ARM GAS  C:\Users\upo\AppData\Local\Temp\ccJAZRXk.s 			page 1


   1              		.cpu cortex-m0plus
   2              		.arch armv6s-m
   3              		.fpu softvfp
   4              		.eabi_attribute 20, 1
   5              		.eabi_attribute 21, 1
   6              		.eabi_attribute 23, 3
   7              		.eabi_attribute 24, 1
   8              		.eabi_attribute 25, 1
   9              		.eabi_attribute 26, 1
  10              		.eabi_attribute 30, 2
  11              		.eabi_attribute 34, 0
  12              		.eabi_attribute 18, 4
  13              		.file	"bme280.c"
  14              		.text
  15              	.Ltext0:
  16              		.cfi_sections	.debug_frame
  17              		.file 1 "User/BME280/bme280.c"
  18              		.section	.text.bme280_get_regs,"ax",%progbits
  19              		.align	1
  20              		.p2align 2,,3
  21              		.global	bme280_get_regs
  22              		.syntax unified
  23              		.code	16
  24              		.thumb_func
  26              	bme280_get_regs:
  27              	.LVL0:
  28              	.LFB1426:
   1:User/BME280/bme280.c **** /**
   2:User/BME280/bme280.c ****  * Copyright (c) 2020 Bosch Sensortec GmbH. All rights reserved.
   3:User/BME280/bme280.c ****  *
   4:User/BME280/bme280.c ****  * BSD-3-Clause
   5:User/BME280/bme280.c ****  *
   6:User/BME280/bme280.c ****  * Redistribution and use in source and binary forms, with or without
   7:User/BME280/bme280.c ****  * modification, are permitted provided that the following conditions are met:
   8:User/BME280/bme280.c ****  *
   9:User/BME280/bme280.c ****  * 1. Redistributions of source code must retain the above copyright
  10:User/BME280/bme280.c ****  *    notice, this list of conditions and the following disclaimer.
  11:User/BME280/bme280.c ****  *
  12:User/BME280/bme280.c ****  * 2. Redistributions in binary form must reproduce the above copyright
  13:User/BME280/bme280.c ****  *    notice, this list of conditions and the following disclaimer in the
  14:User/BME280/bme280.c ****  *    documentation and/or other materials provided with the distribution.
  15:User/BME280/bme280.c ****  *
  16:User/BME280/bme280.c ****  * 3. Neither the name of the copyright holder nor the names of its
  17:User/BME280/bme280.c ****  *    contributors may be used to endorse or promote products derived from
  18:User/BME280/bme280.c ****  *    this software without specific prior written permission.
  19:User/BME280/bme280.c ****  *
  20:User/BME280/bme280.c ****  * THIS SOFTWARE IS PROVIDED BY THE COPYRIGHT HOLDERS AND CONTRIBUTORS
  21:User/BME280/bme280.c ****  * "AS IS" AND ANY EXPRESS OR IMPLIED WARRANTIES, INCLUDING, BUT NOT
  22:User/BME280/bme280.c ****  * LIMITED TO, THE IMPLIED WARRANTIES OF MERCHANTABILITY AND FITNESS
  23:User/BME280/bme280.c ****  * FOR A PARTICULAR PURPOSE ARE DISCLAIMED. IN NO EVENT SHALL THE
  24:User/BME280/bme280.c ****  * COPYRIGHT HOLDER OR CONTRIBUTORS BE LIABLE FOR ANY DIRECT, INDIRECT,
  25:User/BME280/bme280.c ****  * INCIDENTAL, SPECIAL, EXEMPLARY, OR CONSEQUENTIAL DAMAGES
  26:User/BME280/bme280.c ****  * (INCLUDING, BUT NOT LIMITED TO, PROCUREMENT OF SUBSTITUTE GOODS OR
  27:User/BME280/bme280.c ****  * SERVICES; LOSS OF USE, DATA, OR PROFITS; OR BUSINESS INTERRUPTION)
  28:User/BME280/bme280.c ****  * HOWEVER CAUSED AND ON ANY THEORY OF LIABILITY, WHETHER IN CONTRACT,
  29:User/BME280/bme280.c ****  * STRICT LIABILITY, OR TORT (INCLUDING NEGLIGENCE OR OTHERWISE) ARISING
  30:User/BME280/bme280.c ****  * IN ANY WAY OUT OF THE USE OF THIS SOFTWARE, EVEN IF ADVISED OF THE
ARM GAS  C:\Users\upo\AppData\Local\Temp\ccJAZRXk.s 			page 2


  31:User/BME280/bme280.c ****  * POSSIBILITY OF SUCH DAMAGE.
  32:User/BME280/bme280.c ****  *
  33:User/BME280/bme280.c ****  * @file       bme280.c
  34:User/BME280/bme280.c ****  * @date       2020-03-28
  35:User/BME280/bme280.c ****  * @version    v3.5.0
  36:User/BME280/bme280.c ****  *
  37:User/BME280/bme280.c ****  */
  38:User/BME280/bme280.c **** 
  39:User/BME280/bme280.c **** /*! @file bme280.c
  40:User/BME280/bme280.c ****  * @brief Sensor driver for BME280 sensor
  41:User/BME280/bme280.c ****  */
  42:User/BME280/bme280.c **** #include "bme280.h"
  43:User/BME280/bme280.c **** #include <stdio.h>
  44:User/BME280/bme280.c **** #include "stm32u0xx_hal.h"
  45:User/BME280/bme280.c **** 
  46:User/BME280/bme280.c **** struct bme280_data comp_data;
  47:User/BME280/bme280.c **** 
  48:User/BME280/bme280.c **** /**\name Internal macros */
  49:User/BME280/bme280.c **** /* To identify osr settings selected by user */
  50:User/BME280/bme280.c **** #define OVERSAMPLING_SETTINGS UINT8_C(0x07)
  51:User/BME280/bme280.c **** 
  52:User/BME280/bme280.c **** /* To identify filter and standby settings selected by user */
  53:User/BME280/bme280.c **** #define FILTER_STANDBY_SETTINGS UINT8_C(0x18)
  54:User/BME280/bme280.c **** 
  55:User/BME280/bme280.c **** /*!
  56:User/BME280/bme280.c ****  * @brief This internal API puts the device to sleep mode.
  57:User/BME280/bme280.c ****  *
  58:User/BME280/bme280.c ****  * @param[in] dev : Structure instance of bme280_dev.
  59:User/BME280/bme280.c ****  *
  60:User/BME280/bme280.c ****  * @return Result of API execution status.
  61:User/BME280/bme280.c ****  *
  62:User/BME280/bme280.c ****  * @retval   0 -> Success.
  63:User/BME280/bme280.c ****  * @retval > 0 -> Warning.
  64:User/BME280/bme280.c ****  * @retval < 0 -> Fail.
  65:User/BME280/bme280.c ****  *
  66:User/BME280/bme280.c ****  */
  67:User/BME280/bme280.c **** // int8_t put_device_to_sleep(struct bme280_dev *dev);
  68:User/BME280/bme280.c **** 
  69:User/BME280/bme280.c **** /*!
  70:User/BME280/bme280.c ****  * @brief This internal API writes the power mode in the sensor.
  71:User/BME280/bme280.c ****  *
  72:User/BME280/bme280.c ****  * @param[in] dev         : Structure instance of bme280_dev.
  73:User/BME280/bme280.c ****  * @param[in] sensor_mode : Variable which contains the power mode to be set.
  74:User/BME280/bme280.c ****  *
  75:User/BME280/bme280.c ****  * @return Result of API execution status.
  76:User/BME280/bme280.c ****  *
  77:User/BME280/bme280.c ****  * @retval   0 -> Success.
  78:User/BME280/bme280.c ****  * @retval > 0 -> Warning.
  79:User/BME280/bme280.c ****  * @retval < 0 -> Fail.
  80:User/BME280/bme280.c ****  *
  81:User/BME280/bme280.c ****  */
  82:User/BME280/bme280.c **** static int8_t write_power_mode(uint8_t sensor_mode, struct bme280_dev *dev);
  83:User/BME280/bme280.c **** 
  84:User/BME280/bme280.c **** /*!
  85:User/BME280/bme280.c ****  * @brief This internal API is used to validate the device pointer for
  86:User/BME280/bme280.c ****  * null conditions.
  87:User/BME280/bme280.c ****  *
ARM GAS  C:\Users\upo\AppData\Local\Temp\ccJAZRXk.s 			page 3


  88:User/BME280/bme280.c ****  * @param[in] dev : Structure instance of bme280_dev.
  89:User/BME280/bme280.c ****  *
  90:User/BME280/bme280.c ****  * @return Result of API execution status
  91:User/BME280/bme280.c ****  *
  92:User/BME280/bme280.c ****  * @retval   0 -> Success.
  93:User/BME280/bme280.c ****  * @retval > 0 -> Warning.
  94:User/BME280/bme280.c ****  * @retval < 0 -> Fail.
  95:User/BME280/bme280.c ****  *
  96:User/BME280/bme280.c ****  */
  97:User/BME280/bme280.c **** static int8_t null_ptr_check(const struct bme280_dev *dev);
  98:User/BME280/bme280.c **** 
  99:User/BME280/bme280.c **** /*!
 100:User/BME280/bme280.c ****  * @brief This internal API interleaves the register address between the
 101:User/BME280/bme280.c ****  * register data buffer for burst write operation.
 102:User/BME280/bme280.c ****  *
 103:User/BME280/bme280.c ****  * @param[in] reg_addr   : Contains the register address array.
 104:User/BME280/bme280.c ****  * @param[out] temp_buff : Contains the temporary buffer to store the
 105:User/BME280/bme280.c ****  * register data and register address.
 106:User/BME280/bme280.c ****  * @param[in] reg_data   : Contains the register data to be written in the
 107:User/BME280/bme280.c ****  * temporary buffer.
 108:User/BME280/bme280.c ****  * @param[in] len        : No of bytes of data to be written for burst write.
 109:User/BME280/bme280.c ****  *
 110:User/BME280/bme280.c ****  */
 111:User/BME280/bme280.c **** static void interleave_reg_addr(const uint8_t *reg_addr, uint8_t *temp_buff, const uint8_t *reg_dat
 112:User/BME280/bme280.c **** 
 113:User/BME280/bme280.c **** /*!
 114:User/BME280/bme280.c ****  * @brief This internal API reads the calibration data from the sensor, parse
 115:User/BME280/bme280.c ****  * it and store in the device structure.
 116:User/BME280/bme280.c ****  *
 117:User/BME280/bme280.c ****  * @param[in] dev : Structure instance of bme280_dev.
 118:User/BME280/bme280.c ****  *
 119:User/BME280/bme280.c ****  * @return Result of API execution status
 120:User/BME280/bme280.c ****  *
 121:User/BME280/bme280.c ****  * @retval   0 -> Success.
 122:User/BME280/bme280.c ****  * @retval > 0 -> Warning.
 123:User/BME280/bme280.c ****  * @retval < 0 -> Fail.
 124:User/BME280/bme280.c ****  *
 125:User/BME280/bme280.c ****  */
 126:User/BME280/bme280.c **** static int8_t get_calib_data(struct bme280_dev *dev);
 127:User/BME280/bme280.c **** 
 128:User/BME280/bme280.c **** /*!
 129:User/BME280/bme280.c ****  *  @brief This internal API is used to parse the temperature and
 130:User/BME280/bme280.c ****  *  pressure calibration data and store it in the device structure.
 131:User/BME280/bme280.c ****  *
 132:User/BME280/bme280.c ****  *  @param[out] dev     : Structure instance of bme280_dev to store the calib data.
 133:User/BME280/bme280.c ****  *  @param[in] reg_data : Contains the calibration data to be parsed.
 134:User/BME280/bme280.c ****  *
 135:User/BME280/bme280.c ****  */
 136:User/BME280/bme280.c **** static void parse_temp_press_calib_data(const uint8_t *reg_data, struct bme280_dev *dev);
 137:User/BME280/bme280.c **** 
 138:User/BME280/bme280.c **** /*!
 139:User/BME280/bme280.c ****  *  @brief This internal API is used to parse the humidity calibration data
 140:User/BME280/bme280.c ****  *  and store it in device structure.
 141:User/BME280/bme280.c ****  *
 142:User/BME280/bme280.c ****  *  @param[out] dev     : Structure instance of bme280_dev to store the calib data.
 143:User/BME280/bme280.c ****  *  @param[in] reg_data : Contains calibration data to be parsed.
 144:User/BME280/bme280.c ****  *
ARM GAS  C:\Users\upo\AppData\Local\Temp\ccJAZRXk.s 			page 4


 145:User/BME280/bme280.c ****  */
 146:User/BME280/bme280.c **** static void parse_humidity_calib_data(const uint8_t *reg_data, struct bme280_dev *dev);
 147:User/BME280/bme280.c **** 
 148:User/BME280/bme280.c **** #ifdef BME280_FLOAT_ENABLE
 149:User/BME280/bme280.c **** 
 150:User/BME280/bme280.c **** /*!
 151:User/BME280/bme280.c ****  * @brief This internal API is used to compensate the raw pressure data and
 152:User/BME280/bme280.c ****  * return the compensated pressure data in double data type.
 153:User/BME280/bme280.c ****  *
 154:User/BME280/bme280.c ****  * @param[in] uncomp_data : Contains the uncompensated pressure data.
 155:User/BME280/bme280.c ****  * @param[in] calib_data  : Pointer to the calibration data structure.
 156:User/BME280/bme280.c ****  *
 157:User/BME280/bme280.c ****  * @return Compensated pressure data in double.
 158:User/BME280/bme280.c ****  *
 159:User/BME280/bme280.c ****  */
 160:User/BME280/bme280.c **** static double compensate_pressure(const struct bme280_uncomp_data *uncomp_data,
 161:User/BME280/bme280.c ****                                   const struct bme280_calib_data *calib_data);
 162:User/BME280/bme280.c **** 
 163:User/BME280/bme280.c **** /*!
 164:User/BME280/bme280.c ****  * @brief This internal API is used to compensate the raw humidity data and
 165:User/BME280/bme280.c ****  * return the compensated humidity data in double data type.
 166:User/BME280/bme280.c ****  *
 167:User/BME280/bme280.c ****  * @param[in] uncomp_data : Contains the uncompensated humidity data.
 168:User/BME280/bme280.c ****  * @param[in] calib_data  : Pointer to the calibration data structure.
 169:User/BME280/bme280.c ****  *
 170:User/BME280/bme280.c ****  * @return Compensated humidity data in double.
 171:User/BME280/bme280.c ****  *
 172:User/BME280/bme280.c ****  */
 173:User/BME280/bme280.c **** static double compensate_humidity(const struct bme280_uncomp_data *uncomp_data,
 174:User/BME280/bme280.c ****                                   const struct bme280_calib_data *calib_data);
 175:User/BME280/bme280.c **** 
 176:User/BME280/bme280.c **** /*!
 177:User/BME280/bme280.c ****  * @brief This internal API is used to compensate the raw temperature data and
 178:User/BME280/bme280.c ****  * return the compensated temperature data in double data type.
 179:User/BME280/bme280.c ****  *
 180:User/BME280/bme280.c ****  * @param[in] uncomp_data : Contains the uncompensated temperature data.
 181:User/BME280/bme280.c ****  * @param[in] calib_data  : Pointer to calibration data structure.
 182:User/BME280/bme280.c ****  *
 183:User/BME280/bme280.c ****  * @return Compensated temperature data in double.
 184:User/BME280/bme280.c ****  *
 185:User/BME280/bme280.c ****  */
 186:User/BME280/bme280.c **** static double compensate_temperature(const struct bme280_uncomp_data *uncomp_data,
 187:User/BME280/bme280.c ****                                      struct bme280_calib_data *calib_data);
 188:User/BME280/bme280.c **** 
 189:User/BME280/bme280.c **** #else
 190:User/BME280/bme280.c **** 
 191:User/BME280/bme280.c **** /*!
 192:User/BME280/bme280.c ****  * @brief This internal API is used to compensate the raw temperature data and
 193:User/BME280/bme280.c ****  * return the compensated temperature data in integer data type.
 194:User/BME280/bme280.c ****  *
 195:User/BME280/bme280.c ****  * @param[in] uncomp_data : Contains the uncompensated temperature data.
 196:User/BME280/bme280.c ****  * @param[in] calib_data  : Pointer to calibration data structure.
 197:User/BME280/bme280.c ****  *
 198:User/BME280/bme280.c ****  * @return Compensated temperature data in integer.
 199:User/BME280/bme280.c ****  *
 200:User/BME280/bme280.c ****  */
 201:User/BME280/bme280.c **** static int32_t compensate_temperature(const struct bme280_uncomp_data *uncomp_data,
ARM GAS  C:\Users\upo\AppData\Local\Temp\ccJAZRXk.s 			page 5


 202:User/BME280/bme280.c ****                                       struct bme280_calib_data *calib_data);
 203:User/BME280/bme280.c **** 
 204:User/BME280/bme280.c **** /*!
 205:User/BME280/bme280.c ****  * @brief This internal API is used to compensate the raw pressure data and
 206:User/BME280/bme280.c ****  * return the compensated pressure data in integer data type.
 207:User/BME280/bme280.c ****  *
 208:User/BME280/bme280.c ****  * @param[in] uncomp_data : Contains the uncompensated pressure data.
 209:User/BME280/bme280.c ****  * @param[in] calib_data  : Pointer to the calibration data structure.
 210:User/BME280/bme280.c ****  *
 211:User/BME280/bme280.c ****  * @return Compensated pressure data in integer.
 212:User/BME280/bme280.c ****  *
 213:User/BME280/bme280.c ****  */
 214:User/BME280/bme280.c **** static uint32_t compensate_pressure(const struct bme280_uncomp_data *uncomp_data,
 215:User/BME280/bme280.c ****                                     const struct bme280_calib_data *calib_data);
 216:User/BME280/bme280.c **** 
 217:User/BME280/bme280.c **** /*!
 218:User/BME280/bme280.c ****  * @brief This internal API is used to compensate the raw humidity data and
 219:User/BME280/bme280.c ****  * return the compensated humidity data in integer data type.
 220:User/BME280/bme280.c ****  *
 221:User/BME280/bme280.c ****  * @param[in] uncomp_data : Contains the uncompensated humidity data.
 222:User/BME280/bme280.c ****  * @param[in] calib_data  : Pointer to the calibration data structure.
 223:User/BME280/bme280.c ****  *
 224:User/BME280/bme280.c ****  * @return Compensated humidity data in integer.
 225:User/BME280/bme280.c ****  *
 226:User/BME280/bme280.c ****  */
 227:User/BME280/bme280.c **** static uint32_t compensate_humidity(const struct bme280_uncomp_data *uncomp_data,
 228:User/BME280/bme280.c ****                                     const struct bme280_calib_data *calib_data);
 229:User/BME280/bme280.c **** 
 230:User/BME280/bme280.c **** #endif
 231:User/BME280/bme280.c **** 
 232:User/BME280/bme280.c **** /*!
 233:User/BME280/bme280.c ****  * @brief This internal API is used to identify the settings which the user
 234:User/BME280/bme280.c ****  * wants to modify in the sensor.
 235:User/BME280/bme280.c ****  *
 236:User/BME280/bme280.c ****  * @param[in] sub_settings     : Contains the settings subset to identify particular
 237:User/BME280/bme280.c ****  * group of settings which the user is interested to change.
 238:User/BME280/bme280.c ****  * @param[in] desired_settings : Contains the user specified settings.
 239:User/BME280/bme280.c ****  *
 240:User/BME280/bme280.c ****  * @return Indicates whether user is interested to modify the settings which
 241:User/BME280/bme280.c ****  * are related to sub_settings.
 242:User/BME280/bme280.c ****  * @return True -> User wants to modify this group of settings
 243:User/BME280/bme280.c ****  * @return False -> User does not want to modify this group of settings
 244:User/BME280/bme280.c ****  *
 245:User/BME280/bme280.c ****  */
 246:User/BME280/bme280.c **** static uint8_t are_settings_changed(uint8_t sub_settings, uint8_t desired_settings);
 247:User/BME280/bme280.c **** 
 248:User/BME280/bme280.c **** /*!
 249:User/BME280/bme280.c ****  * @brief This API sets the humidity over sampling settings of the sensor.
 250:User/BME280/bme280.c ****  *
 251:User/BME280/bme280.c ****  * @param[in] dev      : Structure instance of bme280_dev.
 252:User/BME280/bme280.c ****  * @param[in] settings : Pointer variable which contains the settings to
 253:User/BME280/bme280.c ****  * be set in the sensor.
 254:User/BME280/bme280.c ****  *
 255:User/BME280/bme280.c ****  * @return Result of API execution status
 256:User/BME280/bme280.c ****  *
 257:User/BME280/bme280.c ****  * @retval   0 -> Success.
 258:User/BME280/bme280.c ****  * @retval > 0 -> Warning.
ARM GAS  C:\Users\upo\AppData\Local\Temp\ccJAZRXk.s 			page 6


 259:User/BME280/bme280.c ****  * @retval < 0 -> Fail.
 260:User/BME280/bme280.c ****  *
 261:User/BME280/bme280.c ****  */
 262:User/BME280/bme280.c **** static int8_t set_osr_humidity_settings(const struct bme280_settings *settings, struct bme280_dev *
 263:User/BME280/bme280.c **** 
 264:User/BME280/bme280.c **** /*!
 265:User/BME280/bme280.c ****  * @brief This internal API sets the oversampling settings for pressure,
 266:User/BME280/bme280.c ****  * temperature and humidity in the sensor.
 267:User/BME280/bme280.c ****  *
 268:User/BME280/bme280.c ****  * @param[in] desired_settings : Variable used to select the settings which
 269:User/BME280/bme280.c ****  * are to be set.
 270:User/BME280/bme280.c ****  * @param[in] settings         : Pointer variable which contains the settings to
 271:User/BME280/bme280.c ****  * be set in the sensor.
 272:User/BME280/bme280.c ****  * @param[in] dev              : Structure instance of bme280_dev.
 273:User/BME280/bme280.c ****  *
 274:User/BME280/bme280.c ****  * @return Result of API execution status
 275:User/BME280/bme280.c ****  *
 276:User/BME280/bme280.c ****  * @retval   0 -> Success.
 277:User/BME280/bme280.c ****  * @retval > 0 -> Warning.
 278:User/BME280/bme280.c ****  * @retval < 0 -> Fail.
 279:User/BME280/bme280.c ****  *
 280:User/BME280/bme280.c ****  */
 281:User/BME280/bme280.c **** static int8_t set_osr_settings(uint8_t desired_settings, const struct bme280_settings *settings,
 282:User/BME280/bme280.c ****                                struct bme280_dev *dev);
 283:User/BME280/bme280.c **** 
 284:User/BME280/bme280.c **** /*!
 285:User/BME280/bme280.c ****  * @brief This API sets the pressure and/or temperature oversampling settings
 286:User/BME280/bme280.c ****  * in the sensor according to the settings selected by the user.
 287:User/BME280/bme280.c ****  *
 288:User/BME280/bme280.c ****  * @param[in] dev : Structure instance of bme280_dev.
 289:User/BME280/bme280.c ****  * @param[in] desired_settings: variable to select the pressure and/or
 290:User/BME280/bme280.c ****  * temperature oversampling settings.
 291:User/BME280/bme280.c ****  * @param[in] settings : Pointer variable which contains the settings to
 292:User/BME280/bme280.c ****  * be set in the sensor.
 293:User/BME280/bme280.c ****  *
 294:User/BME280/bme280.c ****  * @return Result of API execution status
 295:User/BME280/bme280.c ****  *
 296:User/BME280/bme280.c ****  * @retval   0 -> Success.
 297:User/BME280/bme280.c ****  * @retval > 0 -> Warning.
 298:User/BME280/bme280.c ****  * @retval < 0 -> Fail.
 299:User/BME280/bme280.c ****  *
 300:User/BME280/bme280.c ****  */
 301:User/BME280/bme280.c **** static int8_t set_osr_press_temp_settings(uint8_t desired_settings,
 302:User/BME280/bme280.c ****                                           const struct bme280_settings *settings,
 303:User/BME280/bme280.c ****                                           struct bme280_dev *dev);
 304:User/BME280/bme280.c **** 
 305:User/BME280/bme280.c **** /*!
 306:User/BME280/bme280.c ****  * @brief This internal API fills the pressure oversampling settings provided by
 307:User/BME280/bme280.c ****  * the user in the data buffer so as to write in the sensor.
 308:User/BME280/bme280.c ****  *
 309:User/BME280/bme280.c ****  * @param[in] settings : Pointer variable which contains the settings to
 310:User/BME280/bme280.c ****  * be set in the sensor.
 311:User/BME280/bme280.c ****  * @param[out] reg_data : Variable which is filled according to the pressure
 312:User/BME280/bme280.c ****  * oversampling data provided by the user.
 313:User/BME280/bme280.c ****  *
 314:User/BME280/bme280.c ****  */
 315:User/BME280/bme280.c **** static void fill_osr_press_settings(uint8_t *reg_data, const struct bme280_settings *settings);
ARM GAS  C:\Users\upo\AppData\Local\Temp\ccJAZRXk.s 			page 7


 316:User/BME280/bme280.c **** 
 317:User/BME280/bme280.c **** /*!
 318:User/BME280/bme280.c ****  * @brief This internal API fills the temperature oversampling settings provided
 319:User/BME280/bme280.c ****  * by the user in the data buffer so as to write in the sensor.
 320:User/BME280/bme280.c ****  *
 321:User/BME280/bme280.c ****  * @param[in] settings : Pointer variable which contains the settings to
 322:User/BME280/bme280.c ****  * be set in the sensor.
 323:User/BME280/bme280.c ****  * @param[out] reg_data : Variable which is filled according to the temperature
 324:User/BME280/bme280.c ****  * oversampling data provided by the user.
 325:User/BME280/bme280.c ****  *
 326:User/BME280/bme280.c ****  */
 327:User/BME280/bme280.c **** static void fill_osr_temp_settings(uint8_t *reg_data, const struct bme280_settings *settings);
 328:User/BME280/bme280.c **** 
 329:User/BME280/bme280.c **** /*!
 330:User/BME280/bme280.c ****  * @brief This internal API sets the filter and/or standby duration settings
 331:User/BME280/bme280.c ****  * in the sensor according to the settings selected by the user.
 332:User/BME280/bme280.c ****  *
 333:User/BME280/bme280.c ****  * @param[in] dev : Structure instance of bme280_dev.
 334:User/BME280/bme280.c ****  * @param[in] settings : Pointer variable which contains the settings to
 335:User/BME280/bme280.c ****  * be set in the sensor.
 336:User/BME280/bme280.c ****  * @param[in] settings : Structure instance of bme280_settings.
 337:User/BME280/bme280.c ****  *
 338:User/BME280/bme280.c ****  * @return Result of API execution status
 339:User/BME280/bme280.c ****  *
 340:User/BME280/bme280.c ****  * @retval   0 -> Success.
 341:User/BME280/bme280.c ****  * @retval > 0 -> Warning.
 342:User/BME280/bme280.c ****  * @retval < 0 -> Fail.
 343:User/BME280/bme280.c ****  *
 344:User/BME280/bme280.c ****  */
 345:User/BME280/bme280.c **** static int8_t set_filter_standby_settings(uint8_t desired_settings,
 346:User/BME280/bme280.c ****                                           const struct bme280_settings *settings,
 347:User/BME280/bme280.c ****                                           struct bme280_dev *dev);
 348:User/BME280/bme280.c **** 
 349:User/BME280/bme280.c **** /*!
 350:User/BME280/bme280.c ****  * @brief This internal API fills the filter settings provided by the user
 351:User/BME280/bme280.c ****  * in the data buffer so as to write in the sensor.
 352:User/BME280/bme280.c ****  *
 353:User/BME280/bme280.c ****  * @param[in] settings : Pointer variable which contains the settings to
 354:User/BME280/bme280.c ****  * be set in the sensor.
 355:User/BME280/bme280.c ****  * @param[out] reg_data : Variable which is filled according to the filter
 356:User/BME280/bme280.c ****  * settings data provided by the user.
 357:User/BME280/bme280.c ****  *
 358:User/BME280/bme280.c ****  */
 359:User/BME280/bme280.c **** static void fill_filter_settings(uint8_t *reg_data, const struct bme280_settings *settings);
 360:User/BME280/bme280.c **** 
 361:User/BME280/bme280.c **** /*!
 362:User/BME280/bme280.c ****  * @brief This internal API fills the standby duration settings provided by the
 363:User/BME280/bme280.c ****  * user in the data buffer so as to write in the sensor.
 364:User/BME280/bme280.c ****  *
 365:User/BME280/bme280.c ****  * @param[in] settings : Pointer variable which contains the settings to
 366:User/BME280/bme280.c ****  * be set in the sensor.
 367:User/BME280/bme280.c ****  * @param[out] reg_data : Variable which is filled according to the standby
 368:User/BME280/bme280.c ****  * settings data provided by the user.
 369:User/BME280/bme280.c ****  *
 370:User/BME280/bme280.c ****  */
 371:User/BME280/bme280.c **** static void fill_standby_settings(uint8_t *reg_data, const struct bme280_settings *settings);
 372:User/BME280/bme280.c **** 
ARM GAS  C:\Users\upo\AppData\Local\Temp\ccJAZRXk.s 			page 8


 373:User/BME280/bme280.c **** /*!
 374:User/BME280/bme280.c ****  * @brief This internal API parse the oversampling(pressure, temperature
 375:User/BME280/bme280.c ****  * and humidity), filter and standby duration settings and store in the
 376:User/BME280/bme280.c ****  * device structure.
 377:User/BME280/bme280.c ****  *
 378:User/BME280/bme280.c ****  * @param[in] settings : Pointer variable which contains the settings to
 379:User/BME280/bme280.c ****  * be get in the sensor.
 380:User/BME280/bme280.c ****  * @param[in] reg_data : Register data to be parsed.
 381:User/BME280/bme280.c ****  *
 382:User/BME280/bme280.c ****  */
 383:User/BME280/bme280.c **** static void parse_device_settings(const uint8_t *reg_data, struct bme280_settings *settings);
 384:User/BME280/bme280.c **** 
 385:User/BME280/bme280.c **** /*!
 386:User/BME280/bme280.c ****  * @brief This internal API reloads the already existing device settings in the
 387:User/BME280/bme280.c ****  * sensor after soft reset.
 388:User/BME280/bme280.c ****  *
 389:User/BME280/bme280.c ****  * @param[in] dev : Structure instance of bme280_dev.
 390:User/BME280/bme280.c ****  * @param[in] settings : Pointer variable which contains the settings to
 391:User/BME280/bme280.c ****  * be set in the sensor.
 392:User/BME280/bme280.c ****  *
 393:User/BME280/bme280.c ****  * @return Result of API execution status
 394:User/BME280/bme280.c ****  *
 395:User/BME280/bme280.c ****  * @retval   0 -> Success.
 396:User/BME280/bme280.c ****  * @retval > 0 -> Warning.
 397:User/BME280/bme280.c ****  * @retval < 0 -> Fail.
 398:User/BME280/bme280.c ****  *
 399:User/BME280/bme280.c ****  */
 400:User/BME280/bme280.c **** static int8_t reload_device_settings(const struct bme280_settings *settings, struct bme280_dev *dev
 401:User/BME280/bme280.c **** 
 402:User/BME280/bme280.c **** /****************** Global Function Definitions *******************************/
 403:User/BME280/bme280.c **** 
 404:User/BME280/bme280.c **** /*!
 405:User/BME280/bme280.c ****  *  @brief This API is the entry point.
 406:User/BME280/bme280.c ****  *  It reads the chip-id and calibration data from the sensor.
 407:User/BME280/bme280.c ****  */
 408:User/BME280/bme280.c **** int8_t bme280_init(struct bme280_dev *dev)
 409:User/BME280/bme280.c **** {
 410:User/BME280/bme280.c ****     int8_t rslt;
 411:User/BME280/bme280.c **** 
 412:User/BME280/bme280.c ****     /* chip id read try count */
 413:User/BME280/bme280.c ****     uint8_t try_count = 5;
 414:User/BME280/bme280.c ****     uint8_t chip_id = 0;
 415:User/BME280/bme280.c **** 
 416:User/BME280/bme280.c ****     /* Check for null pointer in the device structure*/
 417:User/BME280/bme280.c ****     rslt = null_ptr_check(dev);
 418:User/BME280/bme280.c **** 
 419:User/BME280/bme280.c ****     /* Proceed if null check is fine */
 420:User/BME280/bme280.c ****     if (rslt == BME280_OK)
 421:User/BME280/bme280.c ****     {
 422:User/BME280/bme280.c ****         while (try_count)
 423:User/BME280/bme280.c ****         {
 424:User/BME280/bme280.c ****             /* Read the chip-id of bme280 sensor */
 425:User/BME280/bme280.c ****             rslt = bme280_get_regs(BME280_CHIP_ID_ADDR, &chip_id, 1, dev); // 0xD0
 426:User/BME280/bme280.c ****             printf("bme280 chip_id = %x\n", chip_id);
 427:User/BME280/bme280.c ****             /* Check for chip id validity */
 428:User/BME280/bme280.c ****             if ((rslt == BME280_OK) && (chip_id == BME280_CHIP_ID))
 429:User/BME280/bme280.c ****             {
ARM GAS  C:\Users\upo\AppData\Local\Temp\ccJAZRXk.s 			page 9


 430:User/BME280/bme280.c ****                 dev->chip_id = chip_id;
 431:User/BME280/bme280.c **** 
 432:User/BME280/bme280.c ****                 /* Reset the sensor */
 433:User/BME280/bme280.c ****                 rslt = bme280_soft_reset(dev);
 434:User/BME280/bme280.c **** 
 435:User/BME280/bme280.c ****                 if (rslt == BME280_OK)
 436:User/BME280/bme280.c ****                 {
 437:User/BME280/bme280.c ****                     /* Read the calibration data */
 438:User/BME280/bme280.c ****                     rslt = get_calib_data(dev);
 439:User/BME280/bme280.c ****                 }
 440:User/BME280/bme280.c **** 
 441:User/BME280/bme280.c ****                 break;
 442:User/BME280/bme280.c ****             }
 443:User/BME280/bme280.c **** 
 444:User/BME280/bme280.c ****             /* Wait for 1 ms */
 445:User/BME280/bme280.c ****             dev->delay_us(1, dev->intf_ptr);
 446:User/BME280/bme280.c ****             --try_count;
 447:User/BME280/bme280.c ****         }
 448:User/BME280/bme280.c **** 
 449:User/BME280/bme280.c ****         /* Chip id check failed */
 450:User/BME280/bme280.c ****         if (!try_count)
 451:User/BME280/bme280.c ****         {
 452:User/BME280/bme280.c ****             rslt = BME280_E_DEV_NOT_FOUND;
 453:User/BME280/bme280.c ****         }
 454:User/BME280/bme280.c ****     }
 455:User/BME280/bme280.c **** 
 456:User/BME280/bme280.c ****     return rslt;
 457:User/BME280/bme280.c **** }
 458:User/BME280/bme280.c **** 
 459:User/BME280/bme280.c **** /*!
 460:User/BME280/bme280.c ****  * @brief This API reads the data from the given register address of the sensor.
 461:User/BME280/bme280.c ****  */
 462:User/BME280/bme280.c **** int8_t bme280_get_regs(uint8_t reg_addr, uint8_t *reg_data, uint16_t len, struct bme280_dev *dev)
 463:User/BME280/bme280.c **** {
  29              		.loc 1 463 1 view -0
  30              		.cfi_startproc
  31              		@ args = 0, pretend = 0, frame = 8
  32              		@ frame_needed = 0, uses_anonymous_args = 0
 464:User/BME280/bme280.c ****     volatile int8_t rslt;
  33              		.loc 1 464 5 view .LVU1
 465:User/BME280/bme280.c **** 
 466:User/BME280/bme280.c ****     /* Check for null pointer in the device structure*/
 467:User/BME280/bme280.c ****     rslt = null_ptr_check(dev);
  34              		.loc 1 467 5 view .LVU2
  35              	.LBB44:
  36              	.LBI44:
 468:User/BME280/bme280.c **** 
 469:User/BME280/bme280.c ****     /* Proceed if null check is fine */
 470:User/BME280/bme280.c ****     if ((rslt == BME280_OK) && (reg_data != NULL))
 471:User/BME280/bme280.c ****     {
 472:User/BME280/bme280.c ****         /* If interface selected is SPI */
 473:User/BME280/bme280.c ****         if (dev->intf != BME280_I2C_INTF)
 474:User/BME280/bme280.c ****         {
 475:User/BME280/bme280.c ****             reg_addr = reg_addr | 0x80;
 476:User/BME280/bme280.c ****         }
 477:User/BME280/bme280.c **** 
 478:User/BME280/bme280.c ****         /* Read the data  */
ARM GAS  C:\Users\upo\AppData\Local\Temp\ccJAZRXk.s 			page 10


 479:User/BME280/bme280.c ****         /*  void *intf_ptr;Interface function pointer used to enable the device address for I2C
 480:User/BME280/bme280.c ****                             and chip selection for SPI */
 481:User/BME280/bme280.c **** 
 482:User/BME280/bme280.c ****         dev->intf_rslt = dev->read(reg_addr, reg_data, len, dev->intf_ptr);
 483:User/BME280/bme280.c **** 
 484:User/BME280/bme280.c ****         /* Check for communication error */
 485:User/BME280/bme280.c ****         if (dev->intf_rslt != BME280_INTF_RET_SUCCESS) // BME280_INTF_RET_SUCCESS = INT8_C(0)
 486:User/BME280/bme280.c ****         {
 487:User/BME280/bme280.c ****             rslt = BME280_E_COMM_FAIL; // BME280_E_COMM_FAIL = INT8_C(-4)
 488:User/BME280/bme280.c ****         }
 489:User/BME280/bme280.c ****     }
 490:User/BME280/bme280.c ****     else
 491:User/BME280/bme280.c ****     {
 492:User/BME280/bme280.c ****         rslt = BME280_E_NULL_PTR; // BME280_E_NULL_PTR = INT8_C(-1)
 493:User/BME280/bme280.c ****     }
 494:User/BME280/bme280.c ****     //	printf("result => %d\n", rslt);
 495:User/BME280/bme280.c ****     return rslt;
 496:User/BME280/bme280.c **** }
 497:User/BME280/bme280.c **** 
 498:User/BME280/bme280.c **** /*!
 499:User/BME280/bme280.c ****  * @brief This API writes the given data to the register address
 500:User/BME280/bme280.c ****  * of the sensor.
 501:User/BME280/bme280.c ****  */
 502:User/BME280/bme280.c **** int8_t bme280_set_regs(uint8_t *reg_addr, const uint8_t *reg_data, uint8_t len, struct bme280_dev *
 503:User/BME280/bme280.c **** {
 504:User/BME280/bme280.c ****     int8_t rslt;
 505:User/BME280/bme280.c ****     uint8_t temp_buff[20]; /* Typically not to write more than 10 registers */
 506:User/BME280/bme280.c **** 
 507:User/BME280/bme280.c ****     if (len > 10)
 508:User/BME280/bme280.c ****     {
 509:User/BME280/bme280.c ****         len = 10;
 510:User/BME280/bme280.c ****     }
 511:User/BME280/bme280.c **** 
 512:User/BME280/bme280.c ****     uint16_t temp_len;
 513:User/BME280/bme280.c ****     uint8_t reg_addr_cnt;
 514:User/BME280/bme280.c **** 
 515:User/BME280/bme280.c ****     /* Check for null pointer in the device structure*/
 516:User/BME280/bme280.c ****     rslt = null_ptr_check(dev);
 517:User/BME280/bme280.c **** 
 518:User/BME280/bme280.c ****     /* Check for arguments validity */
 519:User/BME280/bme280.c ****     if ((rslt == BME280_OK) && (reg_addr != NULL) && (reg_data != NULL))
 520:User/BME280/bme280.c ****     {
 521:User/BME280/bme280.c ****         if (len != 0)
 522:User/BME280/bme280.c ****         {
 523:User/BME280/bme280.c ****             temp_buff[0] = reg_data[0];
 524:User/BME280/bme280.c **** 
 525:User/BME280/bme280.c ****             /* If interface selected is SPI */
 526:User/BME280/bme280.c ****             if (dev->intf != BME280_I2C_INTF)
 527:User/BME280/bme280.c ****             {
 528:User/BME280/bme280.c ****                 for (reg_addr_cnt = 0; reg_addr_cnt < len; reg_addr_cnt++)
 529:User/BME280/bme280.c ****                 {
 530:User/BME280/bme280.c ****                     reg_addr[reg_addr_cnt] = reg_addr[reg_addr_cnt] & 0x7F;
 531:User/BME280/bme280.c ****                 }
 532:User/BME280/bme280.c ****             }
 533:User/BME280/bme280.c **** 
 534:User/BME280/bme280.c ****             /* Burst write mode */
 535:User/BME280/bme280.c ****             if (len > 1)
ARM GAS  C:\Users\upo\AppData\Local\Temp\ccJAZRXk.s 			page 11


 536:User/BME280/bme280.c ****             {
 537:User/BME280/bme280.c ****                 /* Interleave register address w.r.t data for
 538:User/BME280/bme280.c ****                  * burst write
 539:User/BME280/bme280.c ****                  */
 540:User/BME280/bme280.c ****                 interleave_reg_addr(reg_addr, temp_buff, reg_data, len);
 541:User/BME280/bme280.c ****                 temp_len = ((len * 2) - 1);
 542:User/BME280/bme280.c ****             }
 543:User/BME280/bme280.c ****             else
 544:User/BME280/bme280.c ****             {
 545:User/BME280/bme280.c ****                 temp_len = len;
 546:User/BME280/bme280.c ****             }
 547:User/BME280/bme280.c **** 
 548:User/BME280/bme280.c ****             dev->intf_rslt = dev->write(reg_addr[0], temp_buff, temp_len, dev->intf_ptr);
 549:User/BME280/bme280.c **** 
 550:User/BME280/bme280.c ****             /* Check for communication error */
 551:User/BME280/bme280.c ****             if (dev->intf_rslt != BME280_INTF_RET_SUCCESS)
 552:User/BME280/bme280.c ****             {
 553:User/BME280/bme280.c ****                 rslt = BME280_E_COMM_FAIL;
 554:User/BME280/bme280.c ****             }
 555:User/BME280/bme280.c ****         }
 556:User/BME280/bme280.c ****         else
 557:User/BME280/bme280.c ****         {
 558:User/BME280/bme280.c ****             rslt = BME280_E_INVALID_LEN;
 559:User/BME280/bme280.c ****         }
 560:User/BME280/bme280.c ****     }
 561:User/BME280/bme280.c ****     else
 562:User/BME280/bme280.c ****     {
 563:User/BME280/bme280.c ****         rslt = BME280_E_NULL_PTR;
 564:User/BME280/bme280.c ****     }
 565:User/BME280/bme280.c **** 
 566:User/BME280/bme280.c ****     return rslt;
 567:User/BME280/bme280.c **** }
 568:User/BME280/bme280.c **** 
 569:User/BME280/bme280.c **** /*!
 570:User/BME280/bme280.c ****  * @brief This API sets the oversampling, filter and standby duration
 571:User/BME280/bme280.c ****  * (normal mode) settings in the sensor.
 572:User/BME280/bme280.c ****  */
 573:User/BME280/bme280.c **** int8_t bme280_set_sensor_settings(uint8_t desired_settings, struct bme280_dev *dev)
 574:User/BME280/bme280.c **** {
 575:User/BME280/bme280.c ****     int8_t rslt;
 576:User/BME280/bme280.c ****     uint8_t sensor_mode;
 577:User/BME280/bme280.c **** 
 578:User/BME280/bme280.c ****     /* Check for null pointer in the device structure*/
 579:User/BME280/bme280.c ****     rslt = null_ptr_check(dev);
 580:User/BME280/bme280.c **** 
 581:User/BME280/bme280.c ****     /* Proceed if null check is fine */
 582:User/BME280/bme280.c ****     if (rslt == BME280_OK)
 583:User/BME280/bme280.c ****     {
 584:User/BME280/bme280.c ****         rslt = bme280_get_sensor_mode(&sensor_mode, dev);
 585:User/BME280/bme280.c **** 
 586:User/BME280/bme280.c ****         if ((rslt == BME280_OK) && (sensor_mode != BME280_SLEEP_MODE))
 587:User/BME280/bme280.c ****         {
 588:User/BME280/bme280.c ****             rslt = put_device_to_sleep(dev);
 589:User/BME280/bme280.c ****         }
 590:User/BME280/bme280.c **** 
 591:User/BME280/bme280.c ****         if (rslt == BME280_OK)
 592:User/BME280/bme280.c ****         {
ARM GAS  C:\Users\upo\AppData\Local\Temp\ccJAZRXk.s 			page 12


 593:User/BME280/bme280.c ****             /* Check if user wants to change oversampling
 594:User/BME280/bme280.c ****              * settings
 595:User/BME280/bme280.c ****              */
 596:User/BME280/bme280.c ****             if (are_settings_changed(OVERSAMPLING_SETTINGS, desired_settings))
 597:User/BME280/bme280.c ****             {
 598:User/BME280/bme280.c ****                 rslt = set_osr_settings(desired_settings, &dev->settings, dev);
 599:User/BME280/bme280.c ****             }
 600:User/BME280/bme280.c **** 
 601:User/BME280/bme280.c ****             /* Check if user wants to change filter and/or
 602:User/BME280/bme280.c ****              * standby settings
 603:User/BME280/bme280.c ****              */
 604:User/BME280/bme280.c ****             if ((rslt == BME280_OK) && are_settings_changed(FILTER_STANDBY_SETTINGS, desired_settin
 605:User/BME280/bme280.c ****             {
 606:User/BME280/bme280.c ****                 rslt = set_filter_standby_settings(desired_settings, &dev->settings, dev);
 607:User/BME280/bme280.c ****             }
 608:User/BME280/bme280.c ****         }
 609:User/BME280/bme280.c ****     }
 610:User/BME280/bme280.c **** 
 611:User/BME280/bme280.c ****     return rslt;
 612:User/BME280/bme280.c **** }
 613:User/BME280/bme280.c **** 
 614:User/BME280/bme280.c **** /*!
 615:User/BME280/bme280.c ****  * @brief This API gets the oversampling, filter and standby duration
 616:User/BME280/bme280.c ****  * (normal mode) settings from the sensor.
 617:User/BME280/bme280.c ****  */
 618:User/BME280/bme280.c **** int8_t bme280_get_sensor_settings(struct bme280_dev *dev)
 619:User/BME280/bme280.c **** {
 620:User/BME280/bme280.c ****     int8_t rslt;
 621:User/BME280/bme280.c ****     uint8_t reg_data[4];
 622:User/BME280/bme280.c **** 
 623:User/BME280/bme280.c ****     /* Check for null pointer in the device structure*/
 624:User/BME280/bme280.c ****     rslt = null_ptr_check(dev);
 625:User/BME280/bme280.c **** 
 626:User/BME280/bme280.c ****     /* Proceed if null check is fine */
 627:User/BME280/bme280.c ****     if (rslt == BME280_OK)
 628:User/BME280/bme280.c ****     {
 629:User/BME280/bme280.c ****         rslt = bme280_get_regs(BME280_CTRL_HUM_ADDR, reg_data, 4, dev);
 630:User/BME280/bme280.c **** 
 631:User/BME280/bme280.c ****         if (rslt == BME280_OK)
 632:User/BME280/bme280.c ****         {
 633:User/BME280/bme280.c ****             parse_device_settings(reg_data, &dev->settings);
 634:User/BME280/bme280.c ****         }
 635:User/BME280/bme280.c ****     }
 636:User/BME280/bme280.c **** 
 637:User/BME280/bme280.c ****     return rslt;
 638:User/BME280/bme280.c **** }
 639:User/BME280/bme280.c **** 
 640:User/BME280/bme280.c **** /*!
 641:User/BME280/bme280.c ****  * @brief This API sets the power mode of the sensor.
 642:User/BME280/bme280.c ****  */
 643:User/BME280/bme280.c **** int8_t bme280_set_sensor_mode(uint8_t sensor_mode, struct bme280_dev *dev)
 644:User/BME280/bme280.c **** {
 645:User/BME280/bme280.c ****     int8_t rslt;
 646:User/BME280/bme280.c ****     uint8_t last_set_mode;
 647:User/BME280/bme280.c **** 
 648:User/BME280/bme280.c ****     /* Check for null pointer in the device structure*/
 649:User/BME280/bme280.c ****     rslt = null_ptr_check(dev);
ARM GAS  C:\Users\upo\AppData\Local\Temp\ccJAZRXk.s 			page 13


 650:User/BME280/bme280.c **** 
 651:User/BME280/bme280.c ****     if (rslt == BME280_OK)
 652:User/BME280/bme280.c ****     {
 653:User/BME280/bme280.c ****         rslt = bme280_get_sensor_mode(&last_set_mode, dev);
 654:User/BME280/bme280.c **** 
 655:User/BME280/bme280.c ****         /* If the sensor is not in sleep mode put the device to sleep
 656:User/BME280/bme280.c ****          * mode
 657:User/BME280/bme280.c ****          */
 658:User/BME280/bme280.c ****         if ((rslt == BME280_OK) && (last_set_mode != BME280_SLEEP_MODE))
 659:User/BME280/bme280.c ****         {
 660:User/BME280/bme280.c ****             rslt = put_device_to_sleep(dev);
 661:User/BME280/bme280.c ****         }
 662:User/BME280/bme280.c **** 
 663:User/BME280/bme280.c ****         /* Set the power mode */
 664:User/BME280/bme280.c ****         if (rslt == BME280_OK)
 665:User/BME280/bme280.c ****         {
 666:User/BME280/bme280.c ****             rslt = write_power_mode(sensor_mode, dev);
 667:User/BME280/bme280.c ****         }
 668:User/BME280/bme280.c ****     }
 669:User/BME280/bme280.c **** 
 670:User/BME280/bme280.c ****     return rslt;
 671:User/BME280/bme280.c **** }
 672:User/BME280/bme280.c **** 
 673:User/BME280/bme280.c **** /*!
 674:User/BME280/bme280.c ****  * @brief This API gets the power mode of the sensor.
 675:User/BME280/bme280.c ****  */
 676:User/BME280/bme280.c **** int8_t bme280_get_sensor_mode(uint8_t *sensor_mode, struct bme280_dev *dev)
 677:User/BME280/bme280.c **** {
 678:User/BME280/bme280.c ****     int8_t rslt;
 679:User/BME280/bme280.c **** 
 680:User/BME280/bme280.c ****     /* Check for null pointer in the device structure*/
 681:User/BME280/bme280.c ****     rslt = null_ptr_check(dev);
 682:User/BME280/bme280.c **** 
 683:User/BME280/bme280.c ****     if ((rslt == BME280_OK) && (sensor_mode != NULL))
 684:User/BME280/bme280.c ****     {
 685:User/BME280/bme280.c ****         /* Read the power mode register */
 686:User/BME280/bme280.c ****         rslt = bme280_get_regs(BME280_PWR_CTRL_ADDR, sensor_mode, 1, dev);
 687:User/BME280/bme280.c **** 
 688:User/BME280/bme280.c ****         /* Assign the power mode in the device structure */
 689:User/BME280/bme280.c ****         *sensor_mode = BME280_GET_BITS_POS_0(*sensor_mode, BME280_SENSOR_MODE);
 690:User/BME280/bme280.c ****     }
 691:User/BME280/bme280.c ****     else
 692:User/BME280/bme280.c ****     {
 693:User/BME280/bme280.c ****         rslt = BME280_E_NULL_PTR;
 694:User/BME280/bme280.c ****     }
 695:User/BME280/bme280.c **** 
 696:User/BME280/bme280.c ****     return rslt;
 697:User/BME280/bme280.c **** }
 698:User/BME280/bme280.c **** 
 699:User/BME280/bme280.c **** /*!
 700:User/BME280/bme280.c ****  * @brief This API performs the soft reset of the sensor.
 701:User/BME280/bme280.c ****  */
 702:User/BME280/bme280.c **** int8_t bme280_soft_reset(struct bme280_dev *dev)
 703:User/BME280/bme280.c **** {
 704:User/BME280/bme280.c ****     int8_t rslt;
 705:User/BME280/bme280.c ****     uint8_t reg_addr = BME280_RESET_ADDR; // UINT8_C(0xE0)
 706:User/BME280/bme280.c ****     uint8_t status_reg = 0;
ARM GAS  C:\Users\upo\AppData\Local\Temp\ccJAZRXk.s 			page 14


 707:User/BME280/bme280.c ****     uint8_t try_run = 5;
 708:User/BME280/bme280.c **** 
 709:User/BME280/bme280.c ****     /* 0xB6 is the soft reset command */
 710:User/BME280/bme280.c ****     uint8_t soft_rst_cmd = BME280_SOFT_RESET_COMMAND;
 711:User/BME280/bme280.c **** 
 712:User/BME280/bme280.c ****     /* Check for null pointer in the device structure*/
 713:User/BME280/bme280.c ****     rslt = null_ptr_check(dev);
 714:User/BME280/bme280.c **** 
 715:User/BME280/bme280.c ****     /* Proceed if null check is fine */
 716:User/BME280/bme280.c ****     if (rslt == BME280_OK)
 717:User/BME280/bme280.c ****     {
 718:User/BME280/bme280.c ****         /* Write the soft reset command in the sensor */
 719:User/BME280/bme280.c ****         rslt = bme280_set_regs(&reg_addr, &soft_rst_cmd, 1, dev);
 720:User/BME280/bme280.c **** 
 721:User/BME280/bme280.c ****         if (rslt == BME280_OK)
 722:User/BME280/bme280.c ****         {
 723:User/BME280/bme280.c ****             /* If NVM not copied yet, Wait for NVM to copy */
 724:User/BME280/bme280.c ****             do
 725:User/BME280/bme280.c ****             {
 726:User/BME280/bme280.c ****                 /* As per data sheet - Table 1, startup time is 2 ms. */
 727:User/BME280/bme280.c ****                 dev->delay_us(2, dev->intf_ptr);
 728:User/BME280/bme280.c ****                 rslt = bme280_get_regs(BME280_STATUS_REG_ADDR, &status_reg, 1, dev);
 729:User/BME280/bme280.c **** 
 730:User/BME280/bme280.c ****             } while ((rslt == BME280_OK) && (try_run--) && (status_reg & BME280_STATUS_IM_UPDATE));
 731:User/BME280/bme280.c **** 
 732:User/BME280/bme280.c ****             if (status_reg & BME280_STATUS_IM_UPDATE)
 733:User/BME280/bme280.c ****             {
 734:User/BME280/bme280.c ****                 rslt = BME280_E_NVM_COPY_FAILED;
 735:User/BME280/bme280.c ****             }
 736:User/BME280/bme280.c ****         }
 737:User/BME280/bme280.c ****     }
 738:User/BME280/bme280.c **** 
 739:User/BME280/bme280.c ****     return rslt;
 740:User/BME280/bme280.c **** }
 741:User/BME280/bme280.c **** 
 742:User/BME280/bme280.c **** /*!
 743:User/BME280/bme280.c ****  * @brief This API reads the pressure, temperature and humidity data from the
 744:User/BME280/bme280.c ****  * sensor, compensates the data and store it in the bme280_data structure
 745:User/BME280/bme280.c ****  * instance passed by the user../ struct bme280_data
 746:User/BME280/bme280.c ****  */
 747:User/BME280/bme280.c **** int8_t bme280_get_sensor_data(uint8_t sensor_comp, struct bme280_data *comp_data, struct bme280_dev
 748:User/BME280/bme280.c **** {
 749:User/BME280/bme280.c ****     int8_t rslt;
 750:User/BME280/bme280.c **** 
 751:User/BME280/bme280.c ****     /* Array to store the pressure, temperature and humidity data read from
 752:User/BME280/bme280.c ****      * the sensor
 753:User/BME280/bme280.c ****      */
 754:User/BME280/bme280.c ****     uint8_t reg_data[BME280_P_T_H_DATA_LEN] = {0};
 755:User/BME280/bme280.c ****     struct bme280_uncomp_data uncomp_data = {0};
 756:User/BME280/bme280.c **** 
 757:User/BME280/bme280.c ****     /* Check for null pointer in the device structure*/
 758:User/BME280/bme280.c ****     rslt = null_ptr_check(dev);
 759:User/BME280/bme280.c **** 
 760:User/BME280/bme280.c ****     if ((rslt == BME280_OK) && (comp_data != NULL))
 761:User/BME280/bme280.c ****     {
 762:User/BME280/bme280.c ****         /* Read the pressure and temperature data from the sensor */
 763:User/BME280/bme280.c ****         rslt = bme280_get_regs(BME280_DATA_ADDR, reg_data, BME280_P_T_H_DATA_LEN, dev);
ARM GAS  C:\Users\upo\AppData\Local\Temp\ccJAZRXk.s 			page 15


 764:User/BME280/bme280.c **** 
 765:User/BME280/bme280.c ****         if (rslt == BME280_OK)
 766:User/BME280/bme280.c ****         {
 767:User/BME280/bme280.c ****             /* Parse the read data from the sensor */
 768:User/BME280/bme280.c ****             bme280_parse_sensor_data(reg_data, &uncomp_data);
 769:User/BME280/bme280.c **** 
 770:User/BME280/bme280.c ****             /* Compensate the pressure and/or temperature and/or
 771:User/BME280/bme280.c ****              * humidity data from the sensor
 772:User/BME280/bme280.c ****              */
 773:User/BME280/bme280.c ****             rslt = bme280_compensate_data(sensor_comp, &uncomp_data, comp_data, &dev->calib_data);
 774:User/BME280/bme280.c ****         }
 775:User/BME280/bme280.c ****     }
 776:User/BME280/bme280.c ****     else
 777:User/BME280/bme280.c ****     {
 778:User/BME280/bme280.c ****         rslt = BME280_E_NULL_PTR;
 779:User/BME280/bme280.c ****     }
 780:User/BME280/bme280.c **** 
 781:User/BME280/bme280.c ****     return rslt;
 782:User/BME280/bme280.c **** }
 783:User/BME280/bme280.c **** 
 784:User/BME280/bme280.c **** /*!
 785:User/BME280/bme280.c ****  *  @brief This API is used to parse the pressure, temperature and
 786:User/BME280/bme280.c ****  *  humidity data and store it in the bme280_uncomp_data structure instance.
 787:User/BME280/bme280.c ****  */
 788:User/BME280/bme280.c **** void bme280_parse_sensor_data(const uint8_t *reg_data, struct bme280_uncomp_data *uncomp_data)
 789:User/BME280/bme280.c **** {
 790:User/BME280/bme280.c ****     /* Variables to store the sensor data */
 791:User/BME280/bme280.c ****     uint32_t data_xlsb;
 792:User/BME280/bme280.c ****     uint32_t data_lsb;
 793:User/BME280/bme280.c ****     uint32_t data_msb;
 794:User/BME280/bme280.c **** 
 795:User/BME280/bme280.c ****     /* Store the parsed register values for pressure data */
 796:User/BME280/bme280.c ****     data_msb = (uint32_t)reg_data[0] << 12;
 797:User/BME280/bme280.c ****     data_lsb = (uint32_t)reg_data[1] << 4;
 798:User/BME280/bme280.c ****     data_xlsb = (uint32_t)reg_data[2] >> 4;
 799:User/BME280/bme280.c ****     uncomp_data->pressure = data_msb | data_lsb | data_xlsb;
 800:User/BME280/bme280.c **** 
 801:User/BME280/bme280.c ****     /* Store the parsed register values for temperature data */
 802:User/BME280/bme280.c ****     data_msb = (uint32_t)reg_data[3] << 12;
 803:User/BME280/bme280.c ****     data_lsb = (uint32_t)reg_data[4] << 4;
 804:User/BME280/bme280.c ****     data_xlsb = (uint32_t)reg_data[5] >> 4;
 805:User/BME280/bme280.c ****     uncomp_data->temperature = data_msb | data_lsb | data_xlsb;
 806:User/BME280/bme280.c **** 
 807:User/BME280/bme280.c ****     /* Store the parsed register values for humidity data */
 808:User/BME280/bme280.c ****     data_msb = (uint32_t)reg_data[6] << 8;
 809:User/BME280/bme280.c ****     data_lsb = (uint32_t)reg_data[7];
 810:User/BME280/bme280.c ****     uncomp_data->humidity = data_msb | data_lsb;
 811:User/BME280/bme280.c **** }
 812:User/BME280/bme280.c **** 
 813:User/BME280/bme280.c **** /*!
 814:User/BME280/bme280.c ****  * @brief This API is used to compensate the pressure and/or
 815:User/BME280/bme280.c ****  * temperature and/or humidity data according to the component selected
 816:User/BME280/bme280.c ****  * by the user.
 817:User/BME280/bme280.c ****  */
 818:User/BME280/bme280.c **** int8_t bme280_compensate_data(uint8_t sensor_comp,
 819:User/BME280/bme280.c ****                               const struct bme280_uncomp_data *uncomp_data,
 820:User/BME280/bme280.c ****                               struct bme280_data *comp_data,
ARM GAS  C:\Users\upo\AppData\Local\Temp\ccJAZRXk.s 			page 16


 821:User/BME280/bme280.c ****                               struct bme280_calib_data *calib_data)
 822:User/BME280/bme280.c **** {
 823:User/BME280/bme280.c ****     int8_t rslt = BME280_OK;
 824:User/BME280/bme280.c **** 
 825:User/BME280/bme280.c ****     if ((uncomp_data != NULL) && (comp_data != NULL) && (calib_data != NULL))
 826:User/BME280/bme280.c ****     {
 827:User/BME280/bme280.c ****         /* Initialize to zero */
 828:User/BME280/bme280.c ****         comp_data->temperature = 0;
 829:User/BME280/bme280.c ****         comp_data->pressure = 0;
 830:User/BME280/bme280.c ****         comp_data->humidity = 0;
 831:User/BME280/bme280.c **** 
 832:User/BME280/bme280.c ****         /* If pressure or temperature component is selected */
 833:User/BME280/bme280.c ****         if (sensor_comp & (BME280_PRESS | BME280_TEMP | BME280_HUM))
 834:User/BME280/bme280.c ****         {
 835:User/BME280/bme280.c ****             /* Compensate the temperature data */
 836:User/BME280/bme280.c ****             comp_data->temperature = compensate_temperature(uncomp_data, calib_data);
 837:User/BME280/bme280.c ****         }
 838:User/BME280/bme280.c **** 
 839:User/BME280/bme280.c ****         if (sensor_comp & BME280_PRESS)
 840:User/BME280/bme280.c ****         {
 841:User/BME280/bme280.c ****             /* Compensate the pressure data */
 842:User/BME280/bme280.c ****             comp_data->pressure = compensate_pressure(uncomp_data, calib_data);
 843:User/BME280/bme280.c ****         }
 844:User/BME280/bme280.c **** 
 845:User/BME280/bme280.c ****         if (sensor_comp & BME280_HUM)
 846:User/BME280/bme280.c ****         {
 847:User/BME280/bme280.c ****             /* Compensate the humidity data */
 848:User/BME280/bme280.c ****             comp_data->humidity = compensate_humidity(uncomp_data, calib_data);
 849:User/BME280/bme280.c ****         }
 850:User/BME280/bme280.c ****     }
 851:User/BME280/bme280.c ****     else
 852:User/BME280/bme280.c ****     {
 853:User/BME280/bme280.c ****         rslt = BME280_E_NULL_PTR;
 854:User/BME280/bme280.c ****     }
 855:User/BME280/bme280.c **** 
 856:User/BME280/bme280.c ****     return rslt;
 857:User/BME280/bme280.c **** }
 858:User/BME280/bme280.c **** 
 859:User/BME280/bme280.c **** /*!
 860:User/BME280/bme280.c ****  * @brief This API is used to calculate the maximum delay in milliseconds required for the
 861:User/BME280/bme280.c ****  * temperature/pressure/humidity(which ever at enabled) measurement to complete.
 862:User/BME280/bme280.c ****  */
 863:User/BME280/bme280.c **** uint32_t bme280_cal_meas_delay(const struct bme280_settings *settings)
 864:User/BME280/bme280.c **** {
 865:User/BME280/bme280.c ****     uint32_t max_delay;
 866:User/BME280/bme280.c ****     uint8_t temp_osr;
 867:User/BME280/bme280.c ****     uint8_t pres_osr;
 868:User/BME280/bme280.c ****     uint8_t hum_osr;
 869:User/BME280/bme280.c **** 
 870:User/BME280/bme280.c ****     /*Array to map OSR config register value to actual OSR */
 871:User/BME280/bme280.c ****     uint8_t osr_sett_to_act_osr[] = {0, 1, 2, 4, 8, 16};
 872:User/BME280/bme280.c **** 
 873:User/BME280/bme280.c ****     /* Mapping osr settings to the actual osr values e.g. 0b101 -> osr X16  */
 874:User/BME280/bme280.c ****     if (settings->osr_t <= 5)
 875:User/BME280/bme280.c ****     {
 876:User/BME280/bme280.c ****         temp_osr = osr_sett_to_act_osr[settings->osr_t];
 877:User/BME280/bme280.c ****     }
ARM GAS  C:\Users\upo\AppData\Local\Temp\ccJAZRXk.s 			page 17


 878:User/BME280/bme280.c ****     else
 879:User/BME280/bme280.c ****     {
 880:User/BME280/bme280.c ****         temp_osr = 16;
 881:User/BME280/bme280.c ****     }
 882:User/BME280/bme280.c **** 
 883:User/BME280/bme280.c ****     if (settings->osr_p <= 5)
 884:User/BME280/bme280.c ****     {
 885:User/BME280/bme280.c ****         pres_osr = osr_sett_to_act_osr[settings->osr_p];
 886:User/BME280/bme280.c ****     }
 887:User/BME280/bme280.c ****     else
 888:User/BME280/bme280.c ****     {
 889:User/BME280/bme280.c ****         pres_osr = 16;
 890:User/BME280/bme280.c ****     }
 891:User/BME280/bme280.c **** 
 892:User/BME280/bme280.c ****     if (settings->osr_h <= 5)
 893:User/BME280/bme280.c ****     {
 894:User/BME280/bme280.c ****         hum_osr = osr_sett_to_act_osr[settings->osr_h];
 895:User/BME280/bme280.c ****     }
 896:User/BME280/bme280.c ****     else
 897:User/BME280/bme280.c ****     {
 898:User/BME280/bme280.c ****         hum_osr = 16;
 899:User/BME280/bme280.c ****     }
 900:User/BME280/bme280.c **** 
 901:User/BME280/bme280.c ****     max_delay =
 902:User/BME280/bme280.c ****         (uint32_t)((BME280_MEAS_OFFSET + (BME280_MEAS_DUR * temp_osr) +
 903:User/BME280/bme280.c ****                     ((BME280_MEAS_DUR * pres_osr) + BME280_PRES_HUM_MEAS_OFFSET) +
 904:User/BME280/bme280.c ****                     ((BME280_MEAS_DUR * hum_osr) + BME280_PRES_HUM_MEAS_OFFSET)) /
 905:User/BME280/bme280.c ****                    BME280_MEAS_SCALING_FACTOR);
 906:User/BME280/bme280.c **** 
 907:User/BME280/bme280.c ****     return max_delay;
 908:User/BME280/bme280.c **** }
 909:User/BME280/bme280.c **** 
 910:User/BME280/bme280.c **** /*!
 911:User/BME280/bme280.c ****  * @brief This internal API sets the oversampling settings for pressure,
 912:User/BME280/bme280.c ****  * temperature and humidity in the sensor.
 913:User/BME280/bme280.c ****  */
 914:User/BME280/bme280.c **** static int8_t set_osr_settings(uint8_t desired_settings, const struct bme280_settings *settings, st
 915:User/BME280/bme280.c **** {
 916:User/BME280/bme280.c ****     int8_t rslt = BME280_W_INVALID_OSR_MACRO;
 917:User/BME280/bme280.c **** 
 918:User/BME280/bme280.c ****     if (desired_settings & BME280_OSR_HUM_SEL)
 919:User/BME280/bme280.c ****     {
 920:User/BME280/bme280.c ****         rslt = set_osr_humidity_settings(settings, dev);
 921:User/BME280/bme280.c ****     }
 922:User/BME280/bme280.c **** 
 923:User/BME280/bme280.c ****     if (desired_settings & (BME280_OSR_PRESS_SEL | BME280_OSR_TEMP_SEL))
 924:User/BME280/bme280.c ****     {
 925:User/BME280/bme280.c ****         rslt = set_osr_press_temp_settings(desired_settings, settings, dev);
 926:User/BME280/bme280.c ****     }
 927:User/BME280/bme280.c **** 
 928:User/BME280/bme280.c ****     return rslt;
 929:User/BME280/bme280.c **** }
 930:User/BME280/bme280.c **** 
 931:User/BME280/bme280.c **** /*!
 932:User/BME280/bme280.c ****  * @brief This API sets the humidity oversampling settings of the sensor.
 933:User/BME280/bme280.c ****  */
 934:User/BME280/bme280.c **** static int8_t set_osr_humidity_settings(const struct bme280_settings *settings, struct bme280_dev *
ARM GAS  C:\Users\upo\AppData\Local\Temp\ccJAZRXk.s 			page 18


 935:User/BME280/bme280.c **** {
 936:User/BME280/bme280.c ****     int8_t rslt;
 937:User/BME280/bme280.c ****     uint8_t ctrl_hum;
 938:User/BME280/bme280.c ****     uint8_t ctrl_meas;
 939:User/BME280/bme280.c ****     uint8_t reg_addr = BME280_CTRL_HUM_ADDR;
 940:User/BME280/bme280.c **** 
 941:User/BME280/bme280.c ****     ctrl_hum = settings->osr_h & BME280_CTRL_HUM_MSK;
 942:User/BME280/bme280.c **** 
 943:User/BME280/bme280.c ****     /* Write the humidity control value in the register */
 944:User/BME280/bme280.c ****     rslt = bme280_set_regs(&reg_addr, &ctrl_hum, 1, dev);
 945:User/BME280/bme280.c **** 
 946:User/BME280/bme280.c ****     /* Humidity related changes will be only effective after a
 947:User/BME280/bme280.c ****      * write operation to ctrl_meas register
 948:User/BME280/bme280.c ****      */
 949:User/BME280/bme280.c ****     if (rslt == BME280_OK)
 950:User/BME280/bme280.c ****     {
 951:User/BME280/bme280.c ****         reg_addr = BME280_CTRL_MEAS_ADDR;
 952:User/BME280/bme280.c ****         rslt = bme280_get_regs(reg_addr, &ctrl_meas, 1, dev);
 953:User/BME280/bme280.c **** 
 954:User/BME280/bme280.c ****         if (rslt == BME280_OK)
 955:User/BME280/bme280.c ****         {
 956:User/BME280/bme280.c ****             rslt = bme280_set_regs(&reg_addr, &ctrl_meas, 1, dev);
 957:User/BME280/bme280.c ****         }
 958:User/BME280/bme280.c ****     }
 959:User/BME280/bme280.c **** 
 960:User/BME280/bme280.c ****     return rslt;
 961:User/BME280/bme280.c **** }
 962:User/BME280/bme280.c **** 
 963:User/BME280/bme280.c **** /*!
 964:User/BME280/bme280.c ****  * @brief This API sets the pressure and/or temperature oversampling settings
 965:User/BME280/bme280.c ****  * in the sensor according to the settings selected by the user.
 966:User/BME280/bme280.c ****  */
 967:User/BME280/bme280.c **** static int8_t set_osr_press_temp_settings(uint8_t desired_settings,
 968:User/BME280/bme280.c ****                                           const struct bme280_settings *settings,
 969:User/BME280/bme280.c ****                                           struct bme280_dev *dev)
 970:User/BME280/bme280.c **** {
 971:User/BME280/bme280.c ****     int8_t rslt;
 972:User/BME280/bme280.c ****     uint8_t reg_addr = BME280_CTRL_MEAS_ADDR;
 973:User/BME280/bme280.c ****     uint8_t reg_data;
 974:User/BME280/bme280.c **** 
 975:User/BME280/bme280.c ****     rslt = bme280_get_regs(reg_addr, &reg_data, 1, dev);
 976:User/BME280/bme280.c **** 
 977:User/BME280/bme280.c ****     if (rslt == BME280_OK)
 978:User/BME280/bme280.c ****     {
 979:User/BME280/bme280.c ****         if (desired_settings & BME280_OSR_PRESS_SEL)
 980:User/BME280/bme280.c ****         {
 981:User/BME280/bme280.c ****             fill_osr_press_settings(&reg_data, settings);
 982:User/BME280/bme280.c ****         }
 983:User/BME280/bme280.c **** 
 984:User/BME280/bme280.c ****         if (desired_settings & BME280_OSR_TEMP_SEL)
 985:User/BME280/bme280.c ****         {
 986:User/BME280/bme280.c ****             fill_osr_temp_settings(&reg_data, settings);
 987:User/BME280/bme280.c ****         }
 988:User/BME280/bme280.c **** 
 989:User/BME280/bme280.c ****         /* Write the oversampling settings in the register */
 990:User/BME280/bme280.c ****         rslt = bme280_set_regs(&reg_addr, &reg_data, 1, dev);
 991:User/BME280/bme280.c ****     }
ARM GAS  C:\Users\upo\AppData\Local\Temp\ccJAZRXk.s 			page 19


 992:User/BME280/bme280.c **** 
 993:User/BME280/bme280.c ****     return rslt;
 994:User/BME280/bme280.c **** }
 995:User/BME280/bme280.c **** 
 996:User/BME280/bme280.c **** /*!
 997:User/BME280/bme280.c ****  * @brief This internal API sets the filter and/or standby duration settings
 998:User/BME280/bme280.c ****  * in the sensor according to the settings selected by the user.
 999:User/BME280/bme280.c ****  */
1000:User/BME280/bme280.c **** static int8_t set_filter_standby_settings(uint8_t desired_settings,
1001:User/BME280/bme280.c ****                                           const struct bme280_settings *settings,
1002:User/BME280/bme280.c ****                                           struct bme280_dev *dev)
1003:User/BME280/bme280.c **** {
1004:User/BME280/bme280.c ****     int8_t rslt;
1005:User/BME280/bme280.c ****     uint8_t reg_addr = BME280_CONFIG_ADDR;
1006:User/BME280/bme280.c ****     uint8_t reg_data;
1007:User/BME280/bme280.c **** 
1008:User/BME280/bme280.c ****     rslt = bme280_get_regs(reg_addr, &reg_data, 1, dev);
1009:User/BME280/bme280.c **** 
1010:User/BME280/bme280.c ****     if (rslt == BME280_OK)
1011:User/BME280/bme280.c ****     {
1012:User/BME280/bme280.c ****         if (desired_settings & BME280_FILTER_SEL)
1013:User/BME280/bme280.c ****         {
1014:User/BME280/bme280.c ****             fill_filter_settings(&reg_data, settings);
1015:User/BME280/bme280.c ****         }
1016:User/BME280/bme280.c **** 
1017:User/BME280/bme280.c ****         if (desired_settings & BME280_STANDBY_SEL)
1018:User/BME280/bme280.c ****         {
1019:User/BME280/bme280.c ****             fill_standby_settings(&reg_data, settings);
1020:User/BME280/bme280.c ****         }
1021:User/BME280/bme280.c **** 
1022:User/BME280/bme280.c ****         /* Write the oversampling settings in the register */
1023:User/BME280/bme280.c ****         rslt = bme280_set_regs(&reg_addr, &reg_data, 1, dev);
1024:User/BME280/bme280.c ****     }
1025:User/BME280/bme280.c **** 
1026:User/BME280/bme280.c ****     return rslt;
1027:User/BME280/bme280.c **** }
1028:User/BME280/bme280.c **** 
1029:User/BME280/bme280.c **** /*!
1030:User/BME280/bme280.c ****  * @brief This internal API fills the filter settings provided by the user
1031:User/BME280/bme280.c ****  * in the data buffer so as to write in the sensor.
1032:User/BME280/bme280.c ****  */
1033:User/BME280/bme280.c **** static void fill_filter_settings(uint8_t *reg_data, const struct bme280_settings *settings)
1034:User/BME280/bme280.c **** {
1035:User/BME280/bme280.c ****     *reg_data = BME280_SET_BITS(*reg_data, BME280_FILTER, settings->filter);
1036:User/BME280/bme280.c **** }
1037:User/BME280/bme280.c **** 
1038:User/BME280/bme280.c **** /*!
1039:User/BME280/bme280.c ****  * @brief This internal API fills the standby duration settings provided by
1040:User/BME280/bme280.c ****  * the user in the data buffer so as to write in the sensor.
1041:User/BME280/bme280.c ****  */
1042:User/BME280/bme280.c **** static void fill_standby_settings(uint8_t *reg_data, const struct bme280_settings *settings)
1043:User/BME280/bme280.c **** {
1044:User/BME280/bme280.c ****     *reg_data = BME280_SET_BITS(*reg_data, BME280_STANDBY, settings->standby_time);
1045:User/BME280/bme280.c **** }
1046:User/BME280/bme280.c **** 
1047:User/BME280/bme280.c **** /*!
1048:User/BME280/bme280.c ****  * @brief This internal API fills the pressure oversampling settings provided by
ARM GAS  C:\Users\upo\AppData\Local\Temp\ccJAZRXk.s 			page 20


1049:User/BME280/bme280.c ****  * the user in the data buffer so as to write in the sensor.
1050:User/BME280/bme280.c ****  */
1051:User/BME280/bme280.c **** static void fill_osr_press_settings(uint8_t *reg_data, const struct bme280_settings *settings)
1052:User/BME280/bme280.c **** {
1053:User/BME280/bme280.c ****     *reg_data = BME280_SET_BITS(*reg_data, BME280_CTRL_PRESS, settings->osr_p);
1054:User/BME280/bme280.c **** }
1055:User/BME280/bme280.c **** 
1056:User/BME280/bme280.c **** /*!
1057:User/BME280/bme280.c ****  * @brief This internal API fills the temperature oversampling settings
1058:User/BME280/bme280.c ****  * provided by the user in the data buffer so as to write in the sensor.
1059:User/BME280/bme280.c ****  */
1060:User/BME280/bme280.c **** static void fill_osr_temp_settings(uint8_t *reg_data, const struct bme280_settings *settings)
1061:User/BME280/bme280.c **** {
1062:User/BME280/bme280.c ****     *reg_data = BME280_SET_BITS(*reg_data, BME280_CTRL_TEMP, settings->osr_t);
1063:User/BME280/bme280.c **** }
1064:User/BME280/bme280.c **** 
1065:User/BME280/bme280.c **** /*!
1066:User/BME280/bme280.c ****  * @brief This internal API parse the oversampling(pressure, temperature
1067:User/BME280/bme280.c ****  * and humidity), filter and standby duration settings and store in the
1068:User/BME280/bme280.c ****  * device structure.
1069:User/BME280/bme280.c ****  */
1070:User/BME280/bme280.c **** static void parse_device_settings(const uint8_t *reg_data, struct bme280_settings *settings)
1071:User/BME280/bme280.c **** {
1072:User/BME280/bme280.c ****     settings->osr_h = BME280_GET_BITS_POS_0(reg_data[0], BME280_CTRL_HUM);
1073:User/BME280/bme280.c ****     settings->osr_p = BME280_GET_BITS(reg_data[2], BME280_CTRL_PRESS);
1074:User/BME280/bme280.c ****     settings->osr_t = BME280_GET_BITS(reg_data[2], BME280_CTRL_TEMP);
1075:User/BME280/bme280.c ****     settings->filter = BME280_GET_BITS(reg_data[3], BME280_FILTER);
1076:User/BME280/bme280.c ****     settings->standby_time = BME280_GET_BITS(reg_data[3], BME280_STANDBY);
1077:User/BME280/bme280.c **** }
1078:User/BME280/bme280.c **** 
1079:User/BME280/bme280.c **** /*!
1080:User/BME280/bme280.c ****  * @brief This internal API writes the power mode in the sensor.
1081:User/BME280/bme280.c ****  */
1082:User/BME280/bme280.c **** static int8_t write_power_mode(uint8_t sensor_mode, struct bme280_dev *dev)
1083:User/BME280/bme280.c **** {
1084:User/BME280/bme280.c ****     int8_t rslt;
1085:User/BME280/bme280.c ****     uint8_t reg_addr = BME280_PWR_CTRL_ADDR;
1086:User/BME280/bme280.c **** 
1087:User/BME280/bme280.c ****     /* Variable to store the value read from power mode register */
1088:User/BME280/bme280.c ****     uint8_t sensor_mode_reg_val;
1089:User/BME280/bme280.c **** 
1090:User/BME280/bme280.c ****     /* Read the power mode register */
1091:User/BME280/bme280.c ****     rslt = bme280_get_regs(reg_addr, &sensor_mode_reg_val, 1, dev);
1092:User/BME280/bme280.c **** 
1093:User/BME280/bme280.c ****     /* Set the power mode */
1094:User/BME280/bme280.c ****     if (rslt == BME280_OK)
1095:User/BME280/bme280.c ****     {
1096:User/BME280/bme280.c ****         sensor_mode_reg_val = BME280_SET_BITS_POS_0(sensor_mode_reg_val, BME280_SENSOR_MODE, sensor
1097:User/BME280/bme280.c **** 
1098:User/BME280/bme280.c ****         /* Write the power mode in the register */
1099:User/BME280/bme280.c ****         rslt = bme280_set_regs(&reg_addr, &sensor_mode_reg_val, 1, dev);
1100:User/BME280/bme280.c ****     }
1101:User/BME280/bme280.c **** 
1102:User/BME280/bme280.c ****     return rslt;
1103:User/BME280/bme280.c **** }
1104:User/BME280/bme280.c **** 
1105:User/BME280/bme280.c **** /*!
ARM GAS  C:\Users\upo\AppData\Local\Temp\ccJAZRXk.s 			page 21


1106:User/BME280/bme280.c ****  * @brief This internal API puts the device to sleep mode.
1107:User/BME280/bme280.c ****  */
1108:User/BME280/bme280.c **** int8_t put_device_to_sleep(struct bme280_dev *dev)
1109:User/BME280/bme280.c **** {
1110:User/BME280/bme280.c ****     int8_t rslt;
1111:User/BME280/bme280.c ****     uint8_t reg_data[4];
1112:User/BME280/bme280.c ****     struct bme280_settings settings;
1113:User/BME280/bme280.c **** 
1114:User/BME280/bme280.c ****     rslt = bme280_get_regs(BME280_CTRL_HUM_ADDR, reg_data, 4, dev);
1115:User/BME280/bme280.c **** 
1116:User/BME280/bme280.c ****     if (rslt == BME280_OK)
1117:User/BME280/bme280.c ****     {
1118:User/BME280/bme280.c ****         parse_device_settings(reg_data, &settings);
1119:User/BME280/bme280.c ****         rslt = bme280_soft_reset(dev);
1120:User/BME280/bme280.c **** 
1121:User/BME280/bme280.c ****         if (rslt == BME280_OK)
1122:User/BME280/bme280.c ****         {
1123:User/BME280/bme280.c ****             rslt = reload_device_settings(&settings, dev);
1124:User/BME280/bme280.c ****         }
1125:User/BME280/bme280.c ****     }
1126:User/BME280/bme280.c **** 
1127:User/BME280/bme280.c ****     return rslt;
1128:User/BME280/bme280.c **** }
1129:User/BME280/bme280.c **** 
1130:User/BME280/bme280.c **** /*!
1131:User/BME280/bme280.c ****  * @brief This internal API reloads the already existing device settings in
1132:User/BME280/bme280.c ****  * the sensor after soft reset.
1133:User/BME280/bme280.c ****  */
1134:User/BME280/bme280.c **** static int8_t reload_device_settings(const struct bme280_settings *settings, struct bme280_dev *dev
1135:User/BME280/bme280.c **** {
1136:User/BME280/bme280.c ****     int8_t rslt;
1137:User/BME280/bme280.c **** 
1138:User/BME280/bme280.c ****     rslt = set_osr_settings(BME280_ALL_SETTINGS_SEL, settings, dev);
1139:User/BME280/bme280.c **** 
1140:User/BME280/bme280.c ****     if (rslt == BME280_OK)
1141:User/BME280/bme280.c ****     {
1142:User/BME280/bme280.c ****         rslt = set_filter_standby_settings(BME280_ALL_SETTINGS_SEL, settings, dev);
1143:User/BME280/bme280.c ****     }
1144:User/BME280/bme280.c **** 
1145:User/BME280/bme280.c ****     return rslt;
1146:User/BME280/bme280.c **** }
1147:User/BME280/bme280.c **** 
1148:User/BME280/bme280.c **** #ifdef BME280_FLOAT_ENABLE
1149:User/BME280/bme280.c **** 
1150:User/BME280/bme280.c **** /*!
1151:User/BME280/bme280.c ****  * @brief This internal API is used to compensate the raw temperature data and
1152:User/BME280/bme280.c ****  * return the compensated temperature data in double data type.
1153:User/BME280/bme280.c ****  */
1154:User/BME280/bme280.c **** static double compensate_temperature(const struct bme280_uncomp_data *uncomp_data, struct bme280_ca
1155:User/BME280/bme280.c **** {
1156:User/BME280/bme280.c ****     double var1;
1157:User/BME280/bme280.c ****     double var2;
1158:User/BME280/bme280.c ****     double temperature;
1159:User/BME280/bme280.c ****     double temperature_min = -40;
1160:User/BME280/bme280.c ****     double temperature_max = 85;
1161:User/BME280/bme280.c **** 
1162:User/BME280/bme280.c ****     var1 = ((double)uncomp_data->temperature) / 16384.0 - ((double)calib_data->dig_t1) / 1024.0;
ARM GAS  C:\Users\upo\AppData\Local\Temp\ccJAZRXk.s 			page 22


1163:User/BME280/bme280.c ****     var1 = var1 * ((double)calib_data->dig_t2);
1164:User/BME280/bme280.c ****     var2 = (((double)uncomp_data->temperature) / 131072.0 - ((double)calib_data->dig_t1) / 8192.0);
1165:User/BME280/bme280.c ****     var2 = (var2 * var2) * ((double)calib_data->dig_t3);
1166:User/BME280/bme280.c ****     calib_data->t_fine = (int32_t)(var1 + var2);
1167:User/BME280/bme280.c ****     temperature = (var1 + var2) / 5120.0;
1168:User/BME280/bme280.c **** 
1169:User/BME280/bme280.c ****     if (temperature < temperature_min)
1170:User/BME280/bme280.c ****     {
1171:User/BME280/bme280.c ****         temperature = temperature_min;
1172:User/BME280/bme280.c ****     }
1173:User/BME280/bme280.c ****     else if (temperature > temperature_max)
1174:User/BME280/bme280.c ****     {
1175:User/BME280/bme280.c ****         temperature = temperature_max;
1176:User/BME280/bme280.c ****     }
1177:User/BME280/bme280.c **** 
1178:User/BME280/bme280.c ****     return temperature;
1179:User/BME280/bme280.c **** }
1180:User/BME280/bme280.c **** 
1181:User/BME280/bme280.c **** /*!
1182:User/BME280/bme280.c ****  * @brief This internal API is used to compensate the raw pressure data and
1183:User/BME280/bme280.c ****  * return the compensated pressure data in double data type.
1184:User/BME280/bme280.c ****  */
1185:User/BME280/bme280.c **** static double compensate_pressure(const struct bme280_uncomp_data *uncomp_data,
1186:User/BME280/bme280.c ****                                   const struct bme280_calib_data *calib_data)
1187:User/BME280/bme280.c **** {
1188:User/BME280/bme280.c ****     double var1;
1189:User/BME280/bme280.c ****     double var2;
1190:User/BME280/bme280.c ****     double var3;
1191:User/BME280/bme280.c ****     double pressure;
1192:User/BME280/bme280.c ****     double pressure_min = 30000.0;
1193:User/BME280/bme280.c ****     double pressure_max = 110000.0;
1194:User/BME280/bme280.c **** 
1195:User/BME280/bme280.c ****     var1 = ((double)calib_data->t_fine / 2.0) - 64000.0;
1196:User/BME280/bme280.c ****     var2 = var1 * var1 * ((double)calib_data->dig_p6) / 32768.0;
1197:User/BME280/bme280.c ****     var2 = var2 + var1 * ((double)calib_data->dig_p5) * 2.0;
1198:User/BME280/bme280.c ****     var2 = (var2 / 4.0) + (((double)calib_data->dig_p4) * 65536.0);
1199:User/BME280/bme280.c ****     var3 = ((double)calib_data->dig_p3) * var1 * var1 / 524288.0;
1200:User/BME280/bme280.c ****     var1 = (var3 + ((double)calib_data->dig_p2) * var1) / 524288.0;
1201:User/BME280/bme280.c ****     var1 = (1.0 + var1 / 32768.0) * ((double)calib_data->dig_p1);
1202:User/BME280/bme280.c **** 
1203:User/BME280/bme280.c ****     /* avoid exception caused by division by zero */
1204:User/BME280/bme280.c ****     if (var1 > (0.0))
1205:User/BME280/bme280.c ****     {
1206:User/BME280/bme280.c ****         pressure = 1048576.0 - (double)uncomp_data->pressure;
1207:User/BME280/bme280.c ****         pressure = (pressure - (var2 / 4096.0)) * 6250.0 / var1;
1208:User/BME280/bme280.c ****         var1 = ((double)calib_data->dig_p9) * pressure * pressure / 2147483648.0;
1209:User/BME280/bme280.c ****         var2 = pressure * ((double)calib_data->dig_p8) / 32768.0;
1210:User/BME280/bme280.c ****         pressure = pressure + (var1 + var2 + ((double)calib_data->dig_p7)) / 16.0;
1211:User/BME280/bme280.c **** 
1212:User/BME280/bme280.c ****         if (pressure < pressure_min)
1213:User/BME280/bme280.c ****         {
1214:User/BME280/bme280.c ****             pressure = pressure_min;
1215:User/BME280/bme280.c ****         }
1216:User/BME280/bme280.c ****         else if (pressure > pressure_max)
1217:User/BME280/bme280.c ****         {
1218:User/BME280/bme280.c ****             pressure = pressure_max;
1219:User/BME280/bme280.c ****         }
ARM GAS  C:\Users\upo\AppData\Local\Temp\ccJAZRXk.s 			page 23


1220:User/BME280/bme280.c ****     }
1221:User/BME280/bme280.c ****     else /* Invalid case */
1222:User/BME280/bme280.c ****     {
1223:User/BME280/bme280.c ****         pressure = pressure_min;
1224:User/BME280/bme280.c ****     }
1225:User/BME280/bme280.c **** 
1226:User/BME280/bme280.c ****     return pressure;
1227:User/BME280/bme280.c **** }
1228:User/BME280/bme280.c **** 
1229:User/BME280/bme280.c **** /*!
1230:User/BME280/bme280.c ****  * @brief This internal API is used to compensate the raw humidity data and
1231:User/BME280/bme280.c ****  * return the compensated humidity data in double data type.
1232:User/BME280/bme280.c ****  */
1233:User/BME280/bme280.c **** static double compensate_humidity(const struct bme280_uncomp_data *uncomp_data,
1234:User/BME280/bme280.c ****                                   const struct bme280_calib_data *calib_data)
1235:User/BME280/bme280.c **** {
1236:User/BME280/bme280.c ****     double humidity;
1237:User/BME280/bme280.c ****     double humidity_min = 0.0;
1238:User/BME280/bme280.c ****     double humidity_max = 100.0;
1239:User/BME280/bme280.c ****     double var1;
1240:User/BME280/bme280.c ****     double var2;
1241:User/BME280/bme280.c ****     double var3;
1242:User/BME280/bme280.c ****     double var4;
1243:User/BME280/bme280.c ****     double var5;
1244:User/BME280/bme280.c ****     double var6;
1245:User/BME280/bme280.c **** 
1246:User/BME280/bme280.c ****     var1 = ((double)calib_data->t_fine) - 76800.0;
1247:User/BME280/bme280.c ****     var2 = (((double)calib_data->dig_h4) * 64.0 + (((double)calib_data->dig_h5) / 16384.0) * var1);
1248:User/BME280/bme280.c ****     var3 = uncomp_data->humidity - var2;
1249:User/BME280/bme280.c ****     var4 = ((double)calib_data->dig_h2) / 65536.0;
1250:User/BME280/bme280.c ****     var5 = (1.0 + (((double)calib_data->dig_h3) / 67108864.0) * var1);
1251:User/BME280/bme280.c ****     var6 = 1.0 + (((double)calib_data->dig_h6) / 67108864.0) * var1 * var5;
1252:User/BME280/bme280.c ****     var6 = var3 * var4 * (var5 * var6);
1253:User/BME280/bme280.c ****     humidity = var6 * (1.0 - ((double)calib_data->dig_h1) * var6 / 524288.0);
1254:User/BME280/bme280.c **** 
1255:User/BME280/bme280.c ****     if (humidity > humidity_max)
1256:User/BME280/bme280.c ****     {
1257:User/BME280/bme280.c ****         humidity = humidity_max;
1258:User/BME280/bme280.c ****     }
1259:User/BME280/bme280.c ****     else if (humidity < humidity_min)
1260:User/BME280/bme280.c ****     {
1261:User/BME280/bme280.c ****         humidity = humidity_min;
1262:User/BME280/bme280.c ****     }
1263:User/BME280/bme280.c **** 
1264:User/BME280/bme280.c ****     return humidity;
1265:User/BME280/bme280.c **** }
1266:User/BME280/bme280.c **** 
1267:User/BME280/bme280.c **** #else
1268:User/BME280/bme280.c **** 
1269:User/BME280/bme280.c **** /*!
1270:User/BME280/bme280.c ****  * @brief This internal API is used to compensate the raw temperature data and
1271:User/BME280/bme280.c ****  * return the compensated temperature data in integer data type.
1272:User/BME280/bme280.c ****  */
1273:User/BME280/bme280.c **** static int32_t compensate_temperature(const struct bme280_uncomp_data *uncomp_data,
1274:User/BME280/bme280.c ****                                       struct bme280_calib_data *calib_data)
1275:User/BME280/bme280.c **** {
1276:User/BME280/bme280.c ****     int32_t var1;
ARM GAS  C:\Users\upo\AppData\Local\Temp\ccJAZRXk.s 			page 24


1277:User/BME280/bme280.c ****     int32_t var2;
1278:User/BME280/bme280.c ****     int32_t temperature;
1279:User/BME280/bme280.c ****     int32_t temperature_min = -4000;
1280:User/BME280/bme280.c ****     int32_t temperature_max = 8500;
1281:User/BME280/bme280.c **** 
1282:User/BME280/bme280.c ****     var1 = (int32_t)((uncomp_data->temperature / 8) - ((int32_t)calib_data->dig_t1 * 2));
1283:User/BME280/bme280.c ****     var1 = (var1 * ((int32_t)calib_data->dig_t2)) / 2048;
1284:User/BME280/bme280.c ****     var2 = (int32_t)((uncomp_data->temperature / 16) - ((int32_t)calib_data->dig_t1));
1285:User/BME280/bme280.c ****     var2 = (((var2 * var2) / 4096) * ((int32_t)calib_data->dig_t3)) / 16384;
1286:User/BME280/bme280.c ****     calib_data->t_fine = var1 + var2;
1287:User/BME280/bme280.c ****     temperature = (calib_data->t_fine * 5 + 128) / 256;
1288:User/BME280/bme280.c **** 
1289:User/BME280/bme280.c ****     if (temperature < temperature_min)
1290:User/BME280/bme280.c ****     {
1291:User/BME280/bme280.c ****         temperature = temperature_min;
1292:User/BME280/bme280.c ****     }
1293:User/BME280/bme280.c ****     else if (temperature > temperature_max)
1294:User/BME280/bme280.c ****     {
1295:User/BME280/bme280.c ****         temperature = temperature_max;
1296:User/BME280/bme280.c ****     }
1297:User/BME280/bme280.c ****     __asm volatile("nop");
1298:User/BME280/bme280.c ****     return temperature;
1299:User/BME280/bme280.c **** }
1300:User/BME280/bme280.c **** #ifndef BME280_32BIT_ENABLE /* 64 bit compensation for pressure data */
1301:User/BME280/bme280.c **** 
1302:User/BME280/bme280.c **** /*!
1303:User/BME280/bme280.c ****  * @brief This internal API is used to compensate the raw pressure data and
1304:User/BME280/bme280.c ****  * return the compensated pressure data in integer data type with higher
1305:User/BME280/bme280.c ****  * accuracy.
1306:User/BME280/bme280.c ****  */
1307:User/BME280/bme280.c **** static uint32_t compensate_pressure(const struct bme280_uncomp_data *uncomp_data,
1308:User/BME280/bme280.c ****                                     const struct bme280_calib_data *calib_data)
1309:User/BME280/bme280.c **** {
1310:User/BME280/bme280.c ****     int64_t var1;
1311:User/BME280/bme280.c ****     int64_t var2;
1312:User/BME280/bme280.c ****     int64_t var3;
1313:User/BME280/bme280.c ****     int64_t var4;
1314:User/BME280/bme280.c ****     uint32_t pressure;
1315:User/BME280/bme280.c ****     uint32_t pressure_min = 3000000;
1316:User/BME280/bme280.c ****     uint32_t pressure_max = 11000000;
1317:User/BME280/bme280.c **** 
1318:User/BME280/bme280.c ****     var1 = ((int64_t)calib_data->t_fine) - 128000;
1319:User/BME280/bme280.c ****     var2 = var1 * var1 * (int64_t)calib_data->dig_p6;
1320:User/BME280/bme280.c ****     var2 = var2 + ((var1 * (int64_t)calib_data->dig_p5) * 131072);
1321:User/BME280/bme280.c ****     var2 = var2 + (((int64_t)calib_data->dig_p4) * 34359738368);
1322:User/BME280/bme280.c ****     var1 = ((var1 * var1 * (int64_t)calib_data->dig_p3) / 256) + ((var1 * ((int64_t)calib_data->dig
1323:User/BME280/bme280.c ****     var3 = ((int64_t)1) * 140737488355328;
1324:User/BME280/bme280.c ****     var1 = (var3 + var1) * ((int64_t)calib_data->dig_p1) / 8589934592;
1325:User/BME280/bme280.c **** 
1326:User/BME280/bme280.c ****     /* To avoid divide by zero exception */
1327:User/BME280/bme280.c ****     if (var1 != 0)
1328:User/BME280/bme280.c ****     {
1329:User/BME280/bme280.c ****         var4 = 1048576 - uncomp_data->pressure;
1330:User/BME280/bme280.c ****         var4 = (((var4 * INT64_C(2147483648)) - var2) * 3125) / var1;
1331:User/BME280/bme280.c ****         var1 = (((int64_t)calib_data->dig_p9) * (var4 / 8192) * (var4 / 8192)) / 33554432;
1332:User/BME280/bme280.c ****         var2 = (((int64_t)calib_data->dig_p8) * var4) / 524288;
1333:User/BME280/bme280.c ****         var4 = ((var4 + var1 + var2) / 256) + (((int64_t)calib_data->dig_p7) * 16);
ARM GAS  C:\Users\upo\AppData\Local\Temp\ccJAZRXk.s 			page 25


1334:User/BME280/bme280.c ****         pressure = (uint32_t)(((var4 / 2) * 100) / 128);
1335:User/BME280/bme280.c **** 
1336:User/BME280/bme280.c ****         if (pressure < pressure_min)
1337:User/BME280/bme280.c ****         {
1338:User/BME280/bme280.c ****             pressure = pressure_min;
1339:User/BME280/bme280.c ****         }
1340:User/BME280/bme280.c ****         else if (pressure > pressure_max)
1341:User/BME280/bme280.c ****         {
1342:User/BME280/bme280.c ****             pressure = pressure_max;
1343:User/BME280/bme280.c ****         }
1344:User/BME280/bme280.c ****     }
1345:User/BME280/bme280.c ****     else
1346:User/BME280/bme280.c ****     {
1347:User/BME280/bme280.c ****         pressure = pressure_min;
1348:User/BME280/bme280.c ****     }
1349:User/BME280/bme280.c **** 
1350:User/BME280/bme280.c ****     return pressure;
1351:User/BME280/bme280.c **** }
1352:User/BME280/bme280.c **** #else                       /* 32 bit compensation for pressure data */
1353:User/BME280/bme280.c **** 
1354:User/BME280/bme280.c **** /*!
1355:User/BME280/bme280.c ****  * @brief This internal API is used to compensate the raw pressure data and
1356:User/BME280/bme280.c ****  * return the compensated pressure data in integer data type.
1357:User/BME280/bme280.c ****  */
1358:User/BME280/bme280.c **** static uint32_t compensate_pressure(const struct bme280_uncomp_data *uncomp_data,
1359:User/BME280/bme280.c ****                                     const struct bme280_calib_data *calib_data)
1360:User/BME280/bme280.c **** {
1361:User/BME280/bme280.c ****     int32_t var1;
1362:User/BME280/bme280.c ****     int32_t var2;
1363:User/BME280/bme280.c ****     int32_t var3;
1364:User/BME280/bme280.c ****     int32_t var4;
1365:User/BME280/bme280.c ****     uint32_t var5;
1366:User/BME280/bme280.c ****     uint32_t pressure;
1367:User/BME280/bme280.c ****     uint32_t pressure_min = 30000;
1368:User/BME280/bme280.c ****     uint32_t pressure_max = 110000;
1369:User/BME280/bme280.c **** 
1370:User/BME280/bme280.c ****     var1 = (((int32_t)calib_data->t_fine) / 2) - (int32_t)64000;
1371:User/BME280/bme280.c ****     var2 = (((var1 / 4) * (var1 / 4)) / 2048) * ((int32_t)calib_data->dig_p6);
1372:User/BME280/bme280.c ****     var2 = var2 + ((var1 * ((int32_t)calib_data->dig_p5)) * 2);
1373:User/BME280/bme280.c ****     var2 = (var2 / 4) + (((int32_t)calib_data->dig_p4) * 65536);
1374:User/BME280/bme280.c ****     var3 = (calib_data->dig_p3 * (((var1 / 4) * (var1 / 4)) / 8192)) / 8;
1375:User/BME280/bme280.c ****     var4 = (((int32_t)calib_data->dig_p2) * var1) / 2;
1376:User/BME280/bme280.c ****     var1 = (var3 + var4) / 262144;
1377:User/BME280/bme280.c ****     var1 = (((32768 + var1)) * ((int32_t)calib_data->dig_p1)) / 32768;
1378:User/BME280/bme280.c **** 
1379:User/BME280/bme280.c ****     /* avoid exception caused by division by zero */
1380:User/BME280/bme280.c ****     if (var1)
1381:User/BME280/bme280.c ****     {
1382:User/BME280/bme280.c ****         var5 = (uint32_t)((uint32_t)1048576) - uncomp_data->pressure;
1383:User/BME280/bme280.c ****         pressure = ((uint32_t)(var5 - (uint32_t)(var2 / 4096))) * 3125;
1384:User/BME280/bme280.c **** 
1385:User/BME280/bme280.c ****         if (pressure < 0x80000000)
1386:User/BME280/bme280.c ****         {
1387:User/BME280/bme280.c ****             pressure = (pressure << 1) / ((uint32_t)var1);
1388:User/BME280/bme280.c ****         }
1389:User/BME280/bme280.c ****         else
1390:User/BME280/bme280.c ****         {
ARM GAS  C:\Users\upo\AppData\Local\Temp\ccJAZRXk.s 			page 26


1391:User/BME280/bme280.c ****             pressure = (pressure / (uint32_t)var1) * 2;
1392:User/BME280/bme280.c ****         }
1393:User/BME280/bme280.c **** 
1394:User/BME280/bme280.c ****         var1 = (((int32_t)calib_data->dig_p9) * ((int32_t)(((pressure / 8) * (pressure / 8)) / 8192
1395:User/BME280/bme280.c ****         var2 = (((int32_t)(pressure / 4)) * ((int32_t)calib_data->dig_p8)) / 8192;
1396:User/BME280/bme280.c ****         pressure = (uint32_t)((int32_t)pressure + ((var1 + var2 + calib_data->dig_p7) / 16));
1397:User/BME280/bme280.c **** 
1398:User/BME280/bme280.c ****         if (pressure < pressure_min)
1399:User/BME280/bme280.c ****         {
1400:User/BME280/bme280.c ****             pressure = pressure_min;
1401:User/BME280/bme280.c ****         }
1402:User/BME280/bme280.c ****         else if (pressure > pressure_max)
1403:User/BME280/bme280.c ****         {
1404:User/BME280/bme280.c ****             pressure = pressure_max;
1405:User/BME280/bme280.c ****         }
1406:User/BME280/bme280.c ****     }
1407:User/BME280/bme280.c ****     else
1408:User/BME280/bme280.c ****     {
1409:User/BME280/bme280.c ****         pressure = pressure_min;
1410:User/BME280/bme280.c ****     }
1411:User/BME280/bme280.c **** 
1412:User/BME280/bme280.c ****     return pressure;
1413:User/BME280/bme280.c **** }
1414:User/BME280/bme280.c **** #endif
1415:User/BME280/bme280.c **** 
1416:User/BME280/bme280.c **** /*!
1417:User/BME280/bme280.c ****  * @brief This internal API is used to compensate the raw humidity data and
1418:User/BME280/bme280.c ****  * return the compensated humidity data in integer data type.
1419:User/BME280/bme280.c ****  */
1420:User/BME280/bme280.c **** static uint32_t compensate_humidity(const struct bme280_uncomp_data *uncomp_data,
1421:User/BME280/bme280.c ****                                     const struct bme280_calib_data *calib_data)
1422:User/BME280/bme280.c **** {
1423:User/BME280/bme280.c ****     int32_t var1;
1424:User/BME280/bme280.c ****     int32_t var2;
1425:User/BME280/bme280.c ****     int32_t var3;
1426:User/BME280/bme280.c ****     int32_t var4;
1427:User/BME280/bme280.c ****     int32_t var5;
1428:User/BME280/bme280.c ****     uint32_t humidity;
1429:User/BME280/bme280.c ****     uint32_t humidity_max = 102400;
1430:User/BME280/bme280.c **** 
1431:User/BME280/bme280.c ****     var1 = calib_data->t_fine - ((int32_t)76800);
1432:User/BME280/bme280.c ****     var2 = (int32_t)(uncomp_data->humidity * 16384);
1433:User/BME280/bme280.c ****     var3 = (int32_t)(((int32_t)calib_data->dig_h4) * 1048576);
1434:User/BME280/bme280.c ****     var4 = ((int32_t)calib_data->dig_h5) * var1;
1435:User/BME280/bme280.c ****     var5 = (((var2 - var3) - var4) + (int32_t)16384) / 32768;
1436:User/BME280/bme280.c ****     var2 = (var1 * ((int32_t)calib_data->dig_h6)) / 1024;
1437:User/BME280/bme280.c ****     var3 = (var1 * ((int32_t)calib_data->dig_h3)) / 2048;
1438:User/BME280/bme280.c ****     var4 = ((var2 * (var3 + (int32_t)32768)) / 1024) + (int32_t)2097152;
1439:User/BME280/bme280.c ****     var2 = ((var4 * ((int32_t)calib_data->dig_h2)) + 8192) / 16384;
1440:User/BME280/bme280.c ****     var3 = var5 * var2;
1441:User/BME280/bme280.c ****     var4 = ((var3 / 32768) * (var3 / 32768)) / 128;
1442:User/BME280/bme280.c ****     var5 = var3 - ((var4 * ((int32_t)calib_data->dig_h1)) / 16);
1443:User/BME280/bme280.c ****     var5 = (var5 < 0 ? 0 : var5);
1444:User/BME280/bme280.c ****     var5 = (var5 > 419430400 ? 419430400 : var5);
1445:User/BME280/bme280.c ****     humidity = (uint32_t)(var5 / 4096);
1446:User/BME280/bme280.c **** 
1447:User/BME280/bme280.c ****     if (humidity > humidity_max)
ARM GAS  C:\Users\upo\AppData\Local\Temp\ccJAZRXk.s 			page 27


1448:User/BME280/bme280.c ****     {
1449:User/BME280/bme280.c ****         humidity = humidity_max;
1450:User/BME280/bme280.c ****     }
1451:User/BME280/bme280.c **** 
1452:User/BME280/bme280.c ****     return humidity;
1453:User/BME280/bme280.c **** }
1454:User/BME280/bme280.c **** #endif
1455:User/BME280/bme280.c **** 
1456:User/BME280/bme280.c **** /*!
1457:User/BME280/bme280.c ****  * @brief This internal API reads the calibration data from the sensor, parse
1458:User/BME280/bme280.c ****  * it and store in the device structure.
1459:User/BME280/bme280.c ****  */
1460:User/BME280/bme280.c **** static int8_t get_calib_data(struct bme280_dev *dev)
1461:User/BME280/bme280.c **** {
1462:User/BME280/bme280.c ****     int8_t rslt;
1463:User/BME280/bme280.c ****     uint8_t reg_addr = BME280_TEMP_PRESS_CALIB_DATA_ADDR;
1464:User/BME280/bme280.c **** 
1465:User/BME280/bme280.c ****     /* Array to store calibration data */
1466:User/BME280/bme280.c ****     uint8_t calib_data[BME280_TEMP_PRESS_CALIB_DATA_LEN] = {0};
1467:User/BME280/bme280.c **** 
1468:User/BME280/bme280.c ****     /* Read the calibration data from the sensor */
1469:User/BME280/bme280.c ****     rslt = bme280_get_regs(reg_addr, calib_data, BME280_TEMP_PRESS_CALIB_DATA_LEN, dev);
1470:User/BME280/bme280.c **** 
1471:User/BME280/bme280.c ****     if (rslt == BME280_OK)
1472:User/BME280/bme280.c ****     {
1473:User/BME280/bme280.c ****         /* Parse temperature and pressure calibration data and store
1474:User/BME280/bme280.c ****          * it in device structure
1475:User/BME280/bme280.c ****          */
1476:User/BME280/bme280.c ****         parse_temp_press_calib_data(calib_data, dev);
1477:User/BME280/bme280.c ****         reg_addr = BME280_HUMIDITY_CALIB_DATA_ADDR;
1478:User/BME280/bme280.c **** 
1479:User/BME280/bme280.c ****         /* Read the humidity calibration data from the sensor */
1480:User/BME280/bme280.c ****         rslt = bme280_get_regs(reg_addr, calib_data, BME280_HUMIDITY_CALIB_DATA_LEN, dev);
1481:User/BME280/bme280.c **** 
1482:User/BME280/bme280.c ****         if (rslt == BME280_OK)
1483:User/BME280/bme280.c ****         {
1484:User/BME280/bme280.c ****             /* Parse humidity calibration data and store it in
1485:User/BME280/bme280.c ****              * device structure
1486:User/BME280/bme280.c ****              */
1487:User/BME280/bme280.c ****             parse_humidity_calib_data(calib_data, dev);
1488:User/BME280/bme280.c ****         }
1489:User/BME280/bme280.c ****     }
1490:User/BME280/bme280.c **** 
1491:User/BME280/bme280.c ****     return rslt;
1492:User/BME280/bme280.c **** }
1493:User/BME280/bme280.c **** 
1494:User/BME280/bme280.c **** /*!
1495:User/BME280/bme280.c ****  * @brief This internal API interleaves the register address between the
1496:User/BME280/bme280.c ****  * register data buffer for burst write operation.
1497:User/BME280/bme280.c ****  */
1498:User/BME280/bme280.c **** static void interleave_reg_addr(const uint8_t *reg_addr, uint8_t *temp_buff, const uint8_t *reg_dat
1499:User/BME280/bme280.c **** {
1500:User/BME280/bme280.c ****     uint8_t index;
1501:User/BME280/bme280.c **** 
1502:User/BME280/bme280.c ****     for (index = 1; index < len; index++)
1503:User/BME280/bme280.c ****     {
1504:User/BME280/bme280.c ****         temp_buff[(index * 2) - 1] = reg_addr[index];
ARM GAS  C:\Users\upo\AppData\Local\Temp\ccJAZRXk.s 			page 28


1505:User/BME280/bme280.c ****         temp_buff[index * 2] = reg_data[index];
1506:User/BME280/bme280.c ****     }
1507:User/BME280/bme280.c **** }
1508:User/BME280/bme280.c **** 
1509:User/BME280/bme280.c **** /*!
1510:User/BME280/bme280.c ****  *  @brief This internal API is used to parse the temperature and
1511:User/BME280/bme280.c ****  *  pressure calibration data and store it in device structure.
1512:User/BME280/bme280.c ****  */
1513:User/BME280/bme280.c **** static void parse_temp_press_calib_data(const uint8_t *reg_data, struct bme280_dev *dev)
1514:User/BME280/bme280.c **** {
1515:User/BME280/bme280.c ****     struct bme280_calib_data *calib_data = &dev->calib_data;
1516:User/BME280/bme280.c **** 
1517:User/BME280/bme280.c ****     calib_data->dig_t1 = BME280_CONCAT_BYTES(reg_data[1], reg_data[0]);
1518:User/BME280/bme280.c ****     calib_data->dig_t2 = (int16_t)BME280_CONCAT_BYTES(reg_data[3], reg_data[2]);
1519:User/BME280/bme280.c ****     calib_data->dig_t3 = (int16_t)BME280_CONCAT_BYTES(reg_data[5], reg_data[4]);
1520:User/BME280/bme280.c ****     calib_data->dig_p1 = BME280_CONCAT_BYTES(reg_data[7], reg_data[6]);
1521:User/BME280/bme280.c ****     calib_data->dig_p2 = (int16_t)BME280_CONCAT_BYTES(reg_data[9], reg_data[8]);
1522:User/BME280/bme280.c ****     calib_data->dig_p3 = (int16_t)BME280_CONCAT_BYTES(reg_data[11], reg_data[10]);
1523:User/BME280/bme280.c ****     calib_data->dig_p4 = (int16_t)BME280_CONCAT_BYTES(reg_data[13], reg_data[12]);
1524:User/BME280/bme280.c ****     calib_data->dig_p5 = (int16_t)BME280_CONCAT_BYTES(reg_data[15], reg_data[14]);
1525:User/BME280/bme280.c ****     calib_data->dig_p6 = (int16_t)BME280_CONCAT_BYTES(reg_data[17], reg_data[16]);
1526:User/BME280/bme280.c ****     calib_data->dig_p7 = (int16_t)BME280_CONCAT_BYTES(reg_data[19], reg_data[18]);
1527:User/BME280/bme280.c ****     calib_data->dig_p8 = (int16_t)BME280_CONCAT_BYTES(reg_data[21], reg_data[20]);
1528:User/BME280/bme280.c ****     calib_data->dig_p9 = (int16_t)BME280_CONCAT_BYTES(reg_data[23], reg_data[22]);
1529:User/BME280/bme280.c ****     calib_data->dig_h1 = reg_data[25];
1530:User/BME280/bme280.c **** }
1531:User/BME280/bme280.c **** 
1532:User/BME280/bme280.c **** /*!
1533:User/BME280/bme280.c ****  *  @brief This internal API is used to parse the humidity calibration data
1534:User/BME280/bme280.c ****  *  and store it in device structure.
1535:User/BME280/bme280.c ****  */
1536:User/BME280/bme280.c **** static void parse_humidity_calib_data(const uint8_t *reg_data, struct bme280_dev *dev)
1537:User/BME280/bme280.c **** {
1538:User/BME280/bme280.c ****     struct bme280_calib_data *calib_data = &dev->calib_data;
1539:User/BME280/bme280.c ****     int16_t dig_h4_lsb;
1540:User/BME280/bme280.c ****     int16_t dig_h4_msb;
1541:User/BME280/bme280.c ****     int16_t dig_h5_lsb;
1542:User/BME280/bme280.c ****     int16_t dig_h5_msb;
1543:User/BME280/bme280.c **** 
1544:User/BME280/bme280.c ****     calib_data->dig_h2 = (int16_t)BME280_CONCAT_BYTES(reg_data[1], reg_data[0]);
1545:User/BME280/bme280.c ****     calib_data->dig_h3 = reg_data[2];
1546:User/BME280/bme280.c ****     dig_h4_msb = (int16_t)(int8_t)reg_data[3] * 16;
1547:User/BME280/bme280.c ****     dig_h4_lsb = (int16_t)(reg_data[4] & 0x0F);
1548:User/BME280/bme280.c ****     calib_data->dig_h4 = dig_h4_msb | dig_h4_lsb;
1549:User/BME280/bme280.c ****     dig_h5_msb = (int16_t)(int8_t)reg_data[5] * 16;
1550:User/BME280/bme280.c ****     dig_h5_lsb = (int16_t)(reg_data[4] >> 4);
1551:User/BME280/bme280.c ****     calib_data->dig_h5 = dig_h5_msb | dig_h5_lsb;
1552:User/BME280/bme280.c ****     calib_data->dig_h6 = (int8_t)reg_data[6];
1553:User/BME280/bme280.c **** }
1554:User/BME280/bme280.c **** 
1555:User/BME280/bme280.c **** /*!
1556:User/BME280/bme280.c ****  * @brief This internal API is used to identify the settings which the user
1557:User/BME280/bme280.c ****  * wants to modify in the sensor.
1558:User/BME280/bme280.c ****  */
1559:User/BME280/bme280.c **** static uint8_t are_settings_changed(uint8_t sub_settings, uint8_t desired_settings)
1560:User/BME280/bme280.c **** {
1561:User/BME280/bme280.c ****     uint8_t settings_changed = FALSE;
ARM GAS  C:\Users\upo\AppData\Local\Temp\ccJAZRXk.s 			page 29


1562:User/BME280/bme280.c **** 
1563:User/BME280/bme280.c ****     if (sub_settings & desired_settings)
1564:User/BME280/bme280.c ****     {
1565:User/BME280/bme280.c ****         /* User wants to modify this particular settings */
1566:User/BME280/bme280.c ****         settings_changed = TRUE;
1567:User/BME280/bme280.c ****     }
1568:User/BME280/bme280.c ****     else
1569:User/BME280/bme280.c ****     {
1570:User/BME280/bme280.c ****         /* User don't want to modify this particular settings */
1571:User/BME280/bme280.c ****         settings_changed = FALSE;
1572:User/BME280/bme280.c ****     }
1573:User/BME280/bme280.c **** 
1574:User/BME280/bme280.c ****     return settings_changed;
1575:User/BME280/bme280.c **** }
1576:User/BME280/bme280.c **** 
1577:User/BME280/bme280.c **** /*!
1578:User/BME280/bme280.c ****  * @brief This internal API is used to validate the device structure pointer for
1579:User/BME280/bme280.c ****  * null conditions.
1580:User/BME280/bme280.c ****  */
1581:User/BME280/bme280.c **** static int8_t null_ptr_check(const struct bme280_dev *dev)
  37              		.loc 1 1581 15 view .LVU3
  38              	.LBB45:
1582:User/BME280/bme280.c **** {
1583:User/BME280/bme280.c ****     int8_t rslt;
  39              		.loc 1 1583 5 view .LVU4
1584:User/BME280/bme280.c **** 
1585:User/BME280/bme280.c ****     if ((dev == NULL) || (dev->read == NULL) || (dev->write == NULL) || (dev->delay_us == NULL))
  40              		.loc 1 1585 5 view .LVU5
  41              	.LBE45:
  42              	.LBE44:
 463:User/BME280/bme280.c ****     volatile int8_t rslt;
  43              		.loc 1 463 1 is_stmt 0 view .LVU6
  44 0000 70B5     		push	{r4, r5, r6, lr}
  45              	.LCFI0:
  46              		.cfi_def_cfa_offset 16
  47              		.cfi_offset 4, -16
  48              		.cfi_offset 5, -12
  49              		.cfi_offset 6, -8
  50              		.cfi_offset 14, -4
  51 0002 1C00     		movs	r4, r3
  52 0004 82B0     		sub	sp, sp, #8
  53              	.LCFI1:
  54              		.cfi_def_cfa_offset 24
  55              	.LBB48:
  56              	.LBB46:
  57              		.loc 1 1585 8 view .LVU7
  58 0006 002B     		cmp	r3, #0
  59 0008 26D0     		beq	.L8
  60              		.loc 1 1585 23 view .LVU8
  61 000a DB68     		ldr	r3, [r3, #12]
  62              	.LVL1:
  63              		.loc 1 1585 23 view .LVU9
  64 000c 002B     		cmp	r3, #0
  65 000e 23D0     		beq	.L8
  66              		.loc 1 1585 46 view .LVU10
  67 0010 2369     		ldr	r3, [r4, #16]
  68 0012 002B     		cmp	r3, #0
ARM GAS  C:\Users\upo\AppData\Local\Temp\ccJAZRXk.s 			page 30


  69 0014 20D0     		beq	.L8
  70              		.loc 1 1585 70 view .LVU11
  71 0016 6369     		ldr	r3, [r4, #20]
  72 0018 5D42     		rsbs	r5, r3, #0
  73 001a 6B41     		adcs	r3, r3, r5
  74 001c 5B42     		rsbs	r3, r3, #0
  75              	.L2:
  76              	.LVL2:
1586:User/BME280/bme280.c ****     {
1587:User/BME280/bme280.c ****         /* Device structure pointer is not valid */
1588:User/BME280/bme280.c ****         rslt = BME280_E_NULL_PTR;
1589:User/BME280/bme280.c ****     }
1590:User/BME280/bme280.c ****     else
1591:User/BME280/bme280.c ****     {
1592:User/BME280/bme280.c ****         /* Device structure is fine */
1593:User/BME280/bme280.c ****         rslt = BME280_OK;
1594:User/BME280/bme280.c ****     }
1595:User/BME280/bme280.c **** 
1596:User/BME280/bme280.c ****     return rslt;
  77              		.loc 1 1596 5 is_stmt 1 view .LVU12
  78              		.loc 1 1596 5 is_stmt 0 view .LVU13
  79              	.LBE46:
  80              	.LBE48:
 467:User/BME280/bme280.c **** 
  81              		.loc 1 467 10 view .LVU14
  82 001e 6D46     		mov	r5, sp
  83 0020 EB71     		strb	r3, [r5, #7]
 470:User/BME280/bme280.c ****     {
  84              		.loc 1 470 5 is_stmt 1 view .LVU15
 470:User/BME280/bme280.c ****     {
  85              		.loc 1 470 15 is_stmt 0 view .LVU16
  86 0022 EB79     		ldrb	r3, [r5, #7]
 467:User/BME280/bme280.c **** 
  87              		.loc 1 467 10 view .LVU17
  88 0024 0735     		adds	r5, r5, #7
 470:User/BME280/bme280.c ****     {
  89              		.loc 1 470 8 view .LVU18
  90 0026 002B     		cmp	r3, #0
  91 0028 10D1     		bne	.L3
 470:User/BME280/bme280.c ****     {
  92              		.loc 1 470 29 discriminator 1 view .LVU19
  93 002a 0029     		cmp	r1, #0
  94 002c 0ED0     		beq	.L3
 473:User/BME280/bme280.c ****         {
  95              		.loc 1 473 9 is_stmt 1 view .LVU20
 473:User/BME280/bme280.c ****         {
  96              		.loc 1 473 12 is_stmt 0 view .LVU21
  97 002e 237A     		ldrb	r3, [r4, #8]
  98 0030 012B     		cmp	r3, #1
  99 0032 01D0     		beq	.L4
 475:User/BME280/bme280.c ****         }
 100              		.loc 1 475 13 is_stmt 1 view .LVU22
 475:User/BME280/bme280.c ****         }
 101              		.loc 1 475 22 is_stmt 0 view .LVU23
 102 0034 8023     		movs	r3, #128
 103 0036 1843     		orrs	r0, r3
 104              	.LVL3:
ARM GAS  C:\Users\upo\AppData\Local\Temp\ccJAZRXk.s 			page 31


 105              	.L4:
 482:User/BME280/bme280.c **** 
 106              		.loc 1 482 9 is_stmt 1 view .LVU24
 482:User/BME280/bme280.c **** 
 107              		.loc 1 482 26 is_stmt 0 view .LVU25
 108 0038 6368     		ldr	r3, [r4, #4]
 109 003a E668     		ldr	r6, [r4, #12]
 110 003c B047     		blx	r6
 111              	.LVL4:
 482:User/BME280/bme280.c **** 
 112              		.loc 1 482 24 view .LVU26
 113 003e 4523     		movs	r3, #69
 114 0040 E054     		strb	r0, [r4, r3]
 485:User/BME280/bme280.c ****         {
 115              		.loc 1 485 9 is_stmt 1 view .LVU27
 485:User/BME280/bme280.c ****         {
 116              		.loc 1 485 12 is_stmt 0 view .LVU28
 117 0042 0028     		cmp	r0, #0
 118 0044 04D0     		beq	.L5
 487:User/BME280/bme280.c ****         }
 119              		.loc 1 487 13 is_stmt 1 view .LVU29
 487:User/BME280/bme280.c ****         }
 120              		.loc 1 487 18 is_stmt 0 view .LVU30
 121 0046 B733     		adds	r3, r3, #183
 122 0048 2B70     		strb	r3, [r5]
 123 004a 01E0     		b	.L5
 124              	.LVL5:
 125              	.L3:
 492:User/BME280/bme280.c ****     }
 126              		.loc 1 492 9 is_stmt 1 view .LVU31
 492:User/BME280/bme280.c ****     }
 127              		.loc 1 492 14 is_stmt 0 view .LVU32
 128 004c FF23     		movs	r3, #255
 129 004e 2B70     		strb	r3, [r5]
 130              	.LVL6:
 131              	.L5:
 495:User/BME280/bme280.c **** }
 132              		.loc 1 495 5 is_stmt 1 view .LVU33
 495:User/BME280/bme280.c **** }
 133              		.loc 1 495 12 is_stmt 0 view .LVU34
 134 0050 2878     		ldrb	r0, [r5]
 135 0052 40B2     		sxtb	r0, r0
 496:User/BME280/bme280.c **** 
 136              		.loc 1 496 1 view .LVU35
 137 0054 02B0     		add	sp, sp, #8
 138              		@ sp needed
 139              	.LVL7:
 496:User/BME280/bme280.c **** 
 140              		.loc 1 496 1 view .LVU36
 141 0056 70BD     		pop	{r4, r5, r6, pc}
 142              	.LVL8:
 143              	.L8:
 144              	.LBB49:
 145              	.LBB47:
1588:User/BME280/bme280.c ****     }
 146              		.loc 1 1588 14 view .LVU37
 147 0058 0123     		movs	r3, #1
ARM GAS  C:\Users\upo\AppData\Local\Temp\ccJAZRXk.s 			page 32


 148 005a 5B42     		rsbs	r3, r3, #0
 149 005c DFE7     		b	.L2
 150              	.LBE47:
 151              	.LBE49:
 152              		.cfi_endproc
 153              	.LFE1426:
 155 005e C046     		.section	.text.bme280_set_regs,"ax",%progbits
 156              		.align	1
 157              		.p2align 2,,3
 158              		.global	bme280_set_regs
 159              		.syntax unified
 160              		.code	16
 161              		.thumb_func
 163              	bme280_set_regs:
 164              	.LVL9:
 165              	.LFB1427:
 503:User/BME280/bme280.c ****     int8_t rslt;
 166              		.loc 1 503 1 is_stmt 1 view -0
 167              		.cfi_startproc
 168              		@ args = 0, pretend = 0, frame = 24
 169              		@ frame_needed = 0, uses_anonymous_args = 0
 504:User/BME280/bme280.c ****     uint8_t temp_buff[20]; /* Typically not to write more than 10 registers */
 170              		.loc 1 504 5 view .LVU39
 505:User/BME280/bme280.c **** 
 171              		.loc 1 505 5 view .LVU40
 507:User/BME280/bme280.c ****     {
 172              		.loc 1 507 5 view .LVU41
 512:User/BME280/bme280.c ****     uint8_t reg_addr_cnt;
 173              		.loc 1 512 5 view .LVU42
 513:User/BME280/bme280.c **** 
 174              		.loc 1 513 5 view .LVU43
 516:User/BME280/bme280.c **** 
 175              		.loc 1 516 5 view .LVU44
 176              	.LBB54:
 177              	.LBI54:
1581:User/BME280/bme280.c **** {
 178              		.loc 1 1581 15 view .LVU45
 179              	.LBB55:
1583:User/BME280/bme280.c **** 
 180              		.loc 1 1583 5 view .LVU46
1585:User/BME280/bme280.c ****     {
 181              		.loc 1 1585 5 view .LVU47
 182              	.LBE55:
 183              	.LBE54:
 503:User/BME280/bme280.c ****     int8_t rslt;
 184              		.loc 1 503 1 is_stmt 0 view .LVU48
 185 0000 F0B5     		push	{r4, r5, r6, r7, lr}
 186              	.LCFI2:
 187              		.cfi_def_cfa_offset 20
 188              		.cfi_offset 4, -20
 189              		.cfi_offset 5, -16
 190              		.cfi_offset 6, -12
 191              		.cfi_offset 7, -8
 192              		.cfi_offset 14, -4
 193 0002 0E00     		movs	r6, r1
 194 0004 1400     		movs	r4, r2
 195 0006 1D00     		movs	r5, r3
ARM GAS  C:\Users\upo\AppData\Local\Temp\ccJAZRXk.s 			page 33


 196 0008 87B0     		sub	sp, sp, #28
 197              	.LCFI3:
 198              		.cfi_def_cfa_offset 48
 199              	.LBB57:
 200              	.LBB56:
1585:User/BME280/bme280.c ****     {
 201              		.loc 1 1585 8 view .LVU49
 202 000a 002B     		cmp	r3, #0
 203 000c 00D1     		bne	.LCB178
 204 000e 9EE0     		b	.L42	@long jump
 205              	.LCB178:
1585:User/BME280/bme280.c ****     {
 206              		.loc 1 1585 23 view .LVU50
 207 0010 DB68     		ldr	r3, [r3, #12]
 208              	.LVL10:
1585:User/BME280/bme280.c ****     {
 209              		.loc 1 1585 23 view .LVU51
 210 0012 002B     		cmp	r3, #0
 211 0014 00D1     		bne	.LCB183
 212 0016 9AE0     		b	.L42	@long jump
 213              	.LCB183:
1585:User/BME280/bme280.c ****     {
 214              		.loc 1 1585 53 view .LVU52
 215 0018 2F69     		ldr	r7, [r5, #16]
1585:User/BME280/bme280.c ****     {
 216              		.loc 1 1585 46 view .LVU53
 217 001a 002F     		cmp	r7, #0
 218 001c 00D1     		bne	.LCB186
 219 001e 96E0     		b	.L42	@long jump
 220              	.LCB186:
1585:User/BME280/bme280.c ****     {
 221              		.loc 1 1585 70 view .LVU54
 222 0020 6B69     		ldr	r3, [r5, #20]
 223 0022 002B     		cmp	r3, #0
 224 0024 00D1     		bne	.LCB189
 225 0026 92E0     		b	.L42	@long jump
 226              	.LCB189:
 227              	.LVL11:
 228              		.loc 1 1596 5 is_stmt 1 view .LVU55
 229              		.loc 1 1596 5 is_stmt 0 view .LVU56
 230              	.LBE56:
 231              	.LBE57:
 519:User/BME280/bme280.c ****     {
 232              		.loc 1 519 5 is_stmt 1 view .LVU57
 519:User/BME280/bme280.c ****     {
 233              		.loc 1 519 29 is_stmt 0 view .LVU58
 234 0028 0028     		cmp	r0, #0
 235 002a 00D1     		bne	.LCB199
 236 002c 8FE0     		b	.L42	@long jump
 237              	.LCB199:
 519:User/BME280/bme280.c ****     {
 238              		.loc 1 519 51 discriminator 2 view .LVU59
 239 002e 0029     		cmp	r1, #0
 240 0030 00D1     		bne	.LCB201
 241 0032 8CE0     		b	.L42	@long jump
 242              	.LCB201:
 521:User/BME280/bme280.c ****         {
ARM GAS  C:\Users\upo\AppData\Local\Temp\ccJAZRXk.s 			page 34


 243              		.loc 1 521 9 is_stmt 1 view .LVU60
 521:User/BME280/bme280.c ****         {
 244              		.loc 1 521 12 is_stmt 0 view .LVU61
 245 0034 002A     		cmp	r2, #0
 246 0036 00D1     		bne	.LCB204
 247 0038 8CE0     		b	.L43	@long jump
 248              	.LCB204:
 523:User/BME280/bme280.c **** 
 249              		.loc 1 523 13 is_stmt 1 view .LVU62
 523:User/BME280/bme280.c **** 
 250              		.loc 1 523 26 is_stmt 0 view .LVU63
 251 003a 3378     		ldrb	r3, [r6]
 252 003c 01A9     		add	r1, sp, #4
 253              	.LVL12:
 523:User/BME280/bme280.c **** 
 254              		.loc 1 523 26 view .LVU64
 255 003e 0B70     		strb	r3, [r1]
 526:User/BME280/bme280.c ****             {
 256              		.loc 1 526 13 is_stmt 1 view .LVU65
 526:User/BME280/bme280.c ****             {
 257              		.loc 1 526 16 is_stmt 0 view .LVU66
 258 0040 2B7A     		ldrb	r3, [r5, #8]
 259 0042 012B     		cmp	r3, #1
 260 0044 00D1     		bne	.LCB213
 261 0046 7EE0     		b	.L21	@long jump
 262              	.LCB213:
 263              	.LVL13:
 530:User/BME280/bme280.c ****                 }
 264              		.loc 1 530 21 is_stmt 1 view .LVU67
 530:User/BME280/bme280.c ****                 }
 265              		.loc 1 530 69 is_stmt 0 view .LVU68
 266 0048 7F23     		movs	r3, #127
 267 004a 0278     		ldrb	r2, [r0]
 268              	.LVL14:
 530:User/BME280/bme280.c ****                 }
 269              		.loc 1 530 69 view .LVU69
 270 004c 1A40     		ands	r2, r3
 530:User/BME280/bme280.c ****                 }
 271              		.loc 1 530 44 view .LVU70
 272 004e 0270     		strb	r2, [r0]
 528:User/BME280/bme280.c ****                 {
 273              		.loc 1 528 72 is_stmt 1 view .LVU71
 274              	.LVL15:
 528:User/BME280/bme280.c ****                 {
 275              		.loc 1 528 53 view .LVU72
 276 0050 012C     		cmp	r4, #1
 277 0052 00D8     		bhi	.LCB225
 278 0054 84E0     		b	.L22	@long jump
 279              	.LCB225:
 530:User/BME280/bme280.c ****                 }
 280              		.loc 1 530 21 view .LVU73
 530:User/BME280/bme280.c ****                 }
 281              		.loc 1 530 69 is_stmt 0 view .LVU74
 282 0056 4278     		ldrb	r2, [r0, #1]
 283 0058 1340     		ands	r3, r2
 530:User/BME280/bme280.c ****                 }
 284              		.loc 1 530 44 view .LVU75
ARM GAS  C:\Users\upo\AppData\Local\Temp\ccJAZRXk.s 			page 35


 285 005a 4370     		strb	r3, [r0, #1]
 528:User/BME280/bme280.c ****                 {
 286              		.loc 1 528 72 is_stmt 1 view .LVU76
 287              	.LVL16:
 528:User/BME280/bme280.c ****                 {
 288              		.loc 1 528 53 view .LVU77
 289 005c 022C     		cmp	r4, #2
 290 005e 6AD9     		bls	.L23
 530:User/BME280/bme280.c ****                 }
 291              		.loc 1 530 21 view .LVU78
 530:User/BME280/bme280.c ****                 }
 292              		.loc 1 530 69 is_stmt 0 view .LVU79
 293 0060 7F23     		movs	r3, #127
 294 0062 8278     		ldrb	r2, [r0, #2]
 295 0064 1A40     		ands	r2, r3
 530:User/BME280/bme280.c ****                 }
 296              		.loc 1 530 44 view .LVU80
 297 0066 8270     		strb	r2, [r0, #2]
 528:User/BME280/bme280.c ****                 {
 298              		.loc 1 528 72 is_stmt 1 view .LVU81
 299              	.LVL17:
 528:User/BME280/bme280.c ****                 {
 300              		.loc 1 528 53 view .LVU82
 301 0068 032C     		cmp	r4, #3
 302 006a 64D9     		bls	.L23
 530:User/BME280/bme280.c ****                 }
 303              		.loc 1 530 21 view .LVU83
 530:User/BME280/bme280.c ****                 }
 304              		.loc 1 530 69 is_stmt 0 view .LVU84
 305 006c C278     		ldrb	r2, [r0, #3]
 306 006e 1A40     		ands	r2, r3
 530:User/BME280/bme280.c ****                 }
 307              		.loc 1 530 44 view .LVU85
 308 0070 C270     		strb	r2, [r0, #3]
 528:User/BME280/bme280.c ****                 {
 309              		.loc 1 528 72 is_stmt 1 view .LVU86
 310              	.LVL18:
 528:User/BME280/bme280.c ****                 {
 311              		.loc 1 528 53 view .LVU87
 312 0072 042C     		cmp	r4, #4
 313 0074 5FD9     		bls	.L23
 530:User/BME280/bme280.c ****                 }
 314              		.loc 1 530 21 view .LVU88
 530:User/BME280/bme280.c ****                 }
 315              		.loc 1 530 69 is_stmt 0 view .LVU89
 316 0076 0279     		ldrb	r2, [r0, #4]
 317 0078 1A40     		ands	r2, r3
 530:User/BME280/bme280.c ****                 }
 318              		.loc 1 530 44 view .LVU90
 319 007a 0271     		strb	r2, [r0, #4]
 528:User/BME280/bme280.c ****                 {
 320              		.loc 1 528 72 is_stmt 1 view .LVU91
 321              	.LVL19:
 528:User/BME280/bme280.c ****                 {
 322              		.loc 1 528 53 view .LVU92
 323 007c 052C     		cmp	r4, #5
 324 007e 5AD9     		bls	.L23
ARM GAS  C:\Users\upo\AppData\Local\Temp\ccJAZRXk.s 			page 36


 530:User/BME280/bme280.c ****                 }
 325              		.loc 1 530 21 view .LVU93
 530:User/BME280/bme280.c ****                 }
 326              		.loc 1 530 69 is_stmt 0 view .LVU94
 327 0080 4279     		ldrb	r2, [r0, #5]
 328 0082 1A40     		ands	r2, r3
 530:User/BME280/bme280.c ****                 }
 329              		.loc 1 530 44 view .LVU95
 330 0084 4271     		strb	r2, [r0, #5]
 528:User/BME280/bme280.c ****                 {
 331              		.loc 1 528 72 is_stmt 1 view .LVU96
 332              	.LVL20:
 528:User/BME280/bme280.c ****                 {
 333              		.loc 1 528 53 view .LVU97
 334 0086 062C     		cmp	r4, #6
 335 0088 55D9     		bls	.L23
 530:User/BME280/bme280.c ****                 }
 336              		.loc 1 530 21 view .LVU98
 530:User/BME280/bme280.c ****                 }
 337              		.loc 1 530 69 is_stmt 0 view .LVU99
 338 008a 8279     		ldrb	r2, [r0, #6]
 339 008c 1A40     		ands	r2, r3
 530:User/BME280/bme280.c ****                 }
 340              		.loc 1 530 44 view .LVU100
 341 008e 8271     		strb	r2, [r0, #6]
 528:User/BME280/bme280.c ****                 {
 342              		.loc 1 528 72 is_stmt 1 view .LVU101
 343              	.LVL21:
 528:User/BME280/bme280.c ****                 {
 344              		.loc 1 528 53 view .LVU102
 345 0090 072C     		cmp	r4, #7
 346 0092 50D9     		bls	.L23
 530:User/BME280/bme280.c ****                 }
 347              		.loc 1 530 21 view .LVU103
 530:User/BME280/bme280.c ****                 }
 348              		.loc 1 530 69 is_stmt 0 view .LVU104
 349 0094 C279     		ldrb	r2, [r0, #7]
 350 0096 1A40     		ands	r2, r3
 530:User/BME280/bme280.c ****                 }
 351              		.loc 1 530 44 view .LVU105
 352 0098 C271     		strb	r2, [r0, #7]
 528:User/BME280/bme280.c ****                 {
 353              		.loc 1 528 72 is_stmt 1 view .LVU106
 354              	.LVL22:
 528:User/BME280/bme280.c ****                 {
 355              		.loc 1 528 53 view .LVU107
 356 009a 082C     		cmp	r4, #8
 357 009c 4BD9     		bls	.L23
 530:User/BME280/bme280.c ****                 }
 358              		.loc 1 530 21 view .LVU108
 530:User/BME280/bme280.c ****                 }
 359              		.loc 1 530 69 is_stmt 0 view .LVU109
 360 009e 027A     		ldrb	r2, [r0, #8]
 361 00a0 1A40     		ands	r2, r3
 530:User/BME280/bme280.c ****                 }
 362              		.loc 1 530 44 view .LVU110
 363 00a2 0272     		strb	r2, [r0, #8]
ARM GAS  C:\Users\upo\AppData\Local\Temp\ccJAZRXk.s 			page 37


 528:User/BME280/bme280.c ****                 {
 364              		.loc 1 528 72 is_stmt 1 view .LVU111
 365              	.LVL23:
 528:User/BME280/bme280.c ****                 {
 366              		.loc 1 528 53 view .LVU112
 367 00a4 092C     		cmp	r4, #9
 368 00a6 46D9     		bls	.L23
 530:User/BME280/bme280.c ****                 }
 369              		.loc 1 530 21 view .LVU113
 530:User/BME280/bme280.c ****                 }
 370              		.loc 1 530 69 is_stmt 0 view .LVU114
 371 00a8 427A     		ldrb	r2, [r0, #9]
 372 00aa 1340     		ands	r3, r2
 530:User/BME280/bme280.c ****                 }
 373              		.loc 1 530 44 view .LVU115
 374 00ac 4372     		strb	r3, [r0, #9]
 528:User/BME280/bme280.c ****                 {
 375              		.loc 1 528 72 is_stmt 1 view .LVU116
 376              	.LVL24:
 528:User/BME280/bme280.c ****                 {
 377              		.loc 1 528 53 view .LVU117
 378              	.LBB58:
 379              	.LBB59:
1504:User/BME280/bme280.c ****         temp_buff[index * 2] = reg_data[index];
 380              		.loc 1 1504 36 is_stmt 0 view .LVU118
 381 00ae 4378     		ldrb	r3, [r0, #1]
 382              	.LBE59:
 383              	.LBE58:
 548:User/BME280/bme280.c **** 
 384              		.loc 1 548 33 view .LVU119
 385 00b0 2F69     		ldr	r7, [r5, #16]
 535:User/BME280/bme280.c ****             {
 386              		.loc 1 535 13 is_stmt 1 view .LVU120
 387              	.LVL25:
 388              	.LBB62:
 389              	.LBB60:
1504:User/BME280/bme280.c ****         temp_buff[index * 2] = reg_data[index];
 390              		.loc 1 1504 9 view .LVU121
1504:User/BME280/bme280.c ****         temp_buff[index * 2] = reg_data[index];
 391              		.loc 1 1504 36 is_stmt 0 view .LVU122
 392 00b2 4B70     		strb	r3, [r1, #1]
1505:User/BME280/bme280.c ****     }
 393              		.loc 1 1505 9 is_stmt 1 view .LVU123
1505:User/BME280/bme280.c ****     }
 394              		.loc 1 1505 30 is_stmt 0 view .LVU124
 395 00b4 7378     		ldrb	r3, [r6, #1]
 396 00b6 8B70     		strb	r3, [r1, #2]
1502:User/BME280/bme280.c ****     {
 397              		.loc 1 1502 39 is_stmt 1 view .LVU125
 398              	.LVL26:
1502:User/BME280/bme280.c ****     {
 399              		.loc 1 1502 27 view .LVU126
 400              	.L31:
1504:User/BME280/bme280.c ****         temp_buff[index * 2] = reg_data[index];
 401              		.loc 1 1504 9 view .LVU127
1504:User/BME280/bme280.c ****         temp_buff[index * 2] = reg_data[index];
 402              		.loc 1 1504 36 is_stmt 0 view .LVU128
ARM GAS  C:\Users\upo\AppData\Local\Temp\ccJAZRXk.s 			page 38


 403 00b8 8378     		ldrb	r3, [r0, #2]
 404 00ba CB70     		strb	r3, [r1, #3]
1505:User/BME280/bme280.c ****     }
 405              		.loc 1 1505 9 is_stmt 1 view .LVU129
1505:User/BME280/bme280.c ****     }
 406              		.loc 1 1505 30 is_stmt 0 view .LVU130
 407 00bc B378     		ldrb	r3, [r6, #2]
 408 00be 0B71     		strb	r3, [r1, #4]
1502:User/BME280/bme280.c ****     {
 409              		.loc 1 1502 39 is_stmt 1 view .LVU131
 410              	.LVL27:
1502:User/BME280/bme280.c ****     {
 411              		.loc 1 1502 27 view .LVU132
 412 00c0 032C     		cmp	r4, #3
 413 00c2 27D9     		bls	.L34
1504:User/BME280/bme280.c ****         temp_buff[index * 2] = reg_data[index];
 414              		.loc 1 1504 9 view .LVU133
1504:User/BME280/bme280.c ****         temp_buff[index * 2] = reg_data[index];
 415              		.loc 1 1504 36 is_stmt 0 view .LVU134
 416 00c4 C378     		ldrb	r3, [r0, #3]
 417 00c6 4B71     		strb	r3, [r1, #5]
1505:User/BME280/bme280.c ****     }
 418              		.loc 1 1505 9 is_stmt 1 view .LVU135
1505:User/BME280/bme280.c ****     }
 419              		.loc 1 1505 30 is_stmt 0 view .LVU136
 420 00c8 F378     		ldrb	r3, [r6, #3]
 421 00ca 8B71     		strb	r3, [r1, #6]
1502:User/BME280/bme280.c ****     {
 422              		.loc 1 1502 39 is_stmt 1 view .LVU137
 423              	.LVL28:
1502:User/BME280/bme280.c ****     {
 424              		.loc 1 1502 27 view .LVU138
 425 00cc 042C     		cmp	r4, #4
 426 00ce 21D9     		bls	.L34
1504:User/BME280/bme280.c ****         temp_buff[index * 2] = reg_data[index];
 427              		.loc 1 1504 9 view .LVU139
1504:User/BME280/bme280.c ****         temp_buff[index * 2] = reg_data[index];
 428              		.loc 1 1504 36 is_stmt 0 view .LVU140
 429 00d0 0379     		ldrb	r3, [r0, #4]
 430 00d2 CB71     		strb	r3, [r1, #7]
1505:User/BME280/bme280.c ****     }
 431              		.loc 1 1505 9 is_stmt 1 view .LVU141
1505:User/BME280/bme280.c ****     }
 432              		.loc 1 1505 30 is_stmt 0 view .LVU142
 433 00d4 3379     		ldrb	r3, [r6, #4]
 434 00d6 0B72     		strb	r3, [r1, #8]
1502:User/BME280/bme280.c ****     {
 435              		.loc 1 1502 39 is_stmt 1 view .LVU143
 436              	.LVL29:
1502:User/BME280/bme280.c ****     {
 437              		.loc 1 1502 27 view .LVU144
 438 00d8 052C     		cmp	r4, #5
 439 00da 1BD9     		bls	.L34
1504:User/BME280/bme280.c ****         temp_buff[index * 2] = reg_data[index];
 440              		.loc 1 1504 9 view .LVU145
1504:User/BME280/bme280.c ****         temp_buff[index * 2] = reg_data[index];
 441              		.loc 1 1504 36 is_stmt 0 view .LVU146
ARM GAS  C:\Users\upo\AppData\Local\Temp\ccJAZRXk.s 			page 39


 442 00dc 4379     		ldrb	r3, [r0, #5]
 443 00de 4B72     		strb	r3, [r1, #9]
1505:User/BME280/bme280.c ****     }
 444              		.loc 1 1505 9 is_stmt 1 view .LVU147
1505:User/BME280/bme280.c ****     }
 445              		.loc 1 1505 30 is_stmt 0 view .LVU148
 446 00e0 7379     		ldrb	r3, [r6, #5]
 447 00e2 8B72     		strb	r3, [r1, #10]
1502:User/BME280/bme280.c ****     {
 448              		.loc 1 1502 39 is_stmt 1 view .LVU149
 449              	.LVL30:
1502:User/BME280/bme280.c ****     {
 450              		.loc 1 1502 27 view .LVU150
 451 00e4 062C     		cmp	r4, #6
 452 00e6 15D9     		bls	.L34
1504:User/BME280/bme280.c ****         temp_buff[index * 2] = reg_data[index];
 453              		.loc 1 1504 9 view .LVU151
1504:User/BME280/bme280.c ****         temp_buff[index * 2] = reg_data[index];
 454              		.loc 1 1504 36 is_stmt 0 view .LVU152
 455 00e8 8379     		ldrb	r3, [r0, #6]
 456 00ea CB72     		strb	r3, [r1, #11]
1505:User/BME280/bme280.c ****     }
 457              		.loc 1 1505 9 is_stmt 1 view .LVU153
1505:User/BME280/bme280.c ****     }
 458              		.loc 1 1505 30 is_stmt 0 view .LVU154
 459 00ec B379     		ldrb	r3, [r6, #6]
 460 00ee 0B73     		strb	r3, [r1, #12]
1502:User/BME280/bme280.c ****     {
 461              		.loc 1 1502 39 is_stmt 1 view .LVU155
 462              	.LVL31:
1502:User/BME280/bme280.c ****     {
 463              		.loc 1 1502 27 view .LVU156
 464 00f0 072C     		cmp	r4, #7
 465 00f2 0FD9     		bls	.L34
1504:User/BME280/bme280.c ****         temp_buff[index * 2] = reg_data[index];
 466              		.loc 1 1504 9 view .LVU157
1504:User/BME280/bme280.c ****         temp_buff[index * 2] = reg_data[index];
 467              		.loc 1 1504 36 is_stmt 0 view .LVU158
 468 00f4 C379     		ldrb	r3, [r0, #7]
 469 00f6 4B73     		strb	r3, [r1, #13]
1505:User/BME280/bme280.c ****     }
 470              		.loc 1 1505 9 is_stmt 1 view .LVU159
1505:User/BME280/bme280.c ****     }
 471              		.loc 1 1505 30 is_stmt 0 view .LVU160
 472 00f8 F379     		ldrb	r3, [r6, #7]
 473 00fa 8B73     		strb	r3, [r1, #14]
1502:User/BME280/bme280.c ****     {
 474              		.loc 1 1502 39 is_stmt 1 view .LVU161
 475              	.LVL32:
1502:User/BME280/bme280.c ****     {
 476              		.loc 1 1502 27 view .LVU162
 477 00fc 082C     		cmp	r4, #8
 478 00fe 09D9     		bls	.L34
1504:User/BME280/bme280.c ****         temp_buff[index * 2] = reg_data[index];
 479              		.loc 1 1504 9 view .LVU163
1504:User/BME280/bme280.c ****         temp_buff[index * 2] = reg_data[index];
 480              		.loc 1 1504 36 is_stmt 0 view .LVU164
ARM GAS  C:\Users\upo\AppData\Local\Temp\ccJAZRXk.s 			page 40


 481 0100 037A     		ldrb	r3, [r0, #8]
 482 0102 CB73     		strb	r3, [r1, #15]
1505:User/BME280/bme280.c ****     }
 483              		.loc 1 1505 9 is_stmt 1 view .LVU165
1505:User/BME280/bme280.c ****     }
 484              		.loc 1 1505 30 is_stmt 0 view .LVU166
 485 0104 337A     		ldrb	r3, [r6, #8]
 486 0106 0B74     		strb	r3, [r1, #16]
1502:User/BME280/bme280.c ****     {
 487              		.loc 1 1502 39 is_stmt 1 view .LVU167
 488              	.LVL33:
1502:User/BME280/bme280.c ****     {
 489              		.loc 1 1502 27 view .LVU168
 490 0108 092C     		cmp	r4, #9
 491 010a 03D9     		bls	.L34
1504:User/BME280/bme280.c ****         temp_buff[index * 2] = reg_data[index];
 492              		.loc 1 1504 9 view .LVU169
1504:User/BME280/bme280.c ****         temp_buff[index * 2] = reg_data[index];
 493              		.loc 1 1504 36 is_stmt 0 view .LVU170
 494 010c 437A     		ldrb	r3, [r0, #9]
 495 010e 4B74     		strb	r3, [r1, #17]
1505:User/BME280/bme280.c ****     }
 496              		.loc 1 1505 9 is_stmt 1 view .LVU171
1505:User/BME280/bme280.c ****     }
 497              		.loc 1 1505 30 is_stmt 0 view .LVU172
 498 0110 737A     		ldrb	r3, [r6, #9]
 499 0112 8B74     		strb	r3, [r1, #18]
1502:User/BME280/bme280.c ****     {
 500              		.loc 1 1502 39 is_stmt 1 view .LVU173
 501              	.LVL34:
1502:User/BME280/bme280.c ****     {
 502              		.loc 1 1502 27 view .LVU174
 503              	.L34:
1502:User/BME280/bme280.c ****     {
 504              		.loc 1 1502 27 is_stmt 0 view .LVU175
 505              	.LBE60:
 506              	.LBE62:
 541:User/BME280/bme280.c ****             }
 507              		.loc 1 541 17 is_stmt 1 view .LVU176
 507:User/BME280/bme280.c ****     {
 508              		.loc 1 507 8 is_stmt 0 view .LVU177
 509 0114 221C     		adds	r2, r4, #0
 510 0116 0A2C     		cmp	r4, #10
 511 0118 00D9     		bls	.L36
 512 011a 0A22     		movs	r2, #10
 513              	.L36:
 541:User/BME280/bme280.c ****             }
 514              		.loc 1 541 39 view .LVU178
 515 011c D2B2     		uxtb	r2, r2
 516 011e 5200     		lsls	r2, r2, #1
 541:User/BME280/bme280.c ****             }
 517              		.loc 1 541 26 view .LVU179
 518 0120 013A     		subs	r2, r2, #1
 548:User/BME280/bme280.c **** 
 519              		.loc 1 548 30 view .LVU180
 520 0122 92B2     		uxth	r2, r2
 521              	.LVL35:
ARM GAS  C:\Users\upo\AppData\Local\Temp\ccJAZRXk.s 			page 41


 522              	.L33:
 548:User/BME280/bme280.c **** 
 523              		.loc 1 548 13 is_stmt 1 view .LVU181
 548:User/BME280/bme280.c **** 
 524              		.loc 1 548 30 is_stmt 0 view .LVU182
 525 0124 6B68     		ldr	r3, [r5, #4]
 526 0126 0078     		ldrb	r0, [r0]
 527              	.LVL36:
 548:User/BME280/bme280.c **** 
 528              		.loc 1 548 30 view .LVU183
 529 0128 B847     		blx	r7
 530              	.LVL37:
 548:User/BME280/bme280.c **** 
 531              		.loc 1 548 28 view .LVU184
 532 012a 4523     		movs	r3, #69
 533 012c E854     		strb	r0, [r5, r3]
 551:User/BME280/bme280.c ****             {
 534              		.loc 1 551 13 is_stmt 1 view .LVU185
 551:User/BME280/bme280.c ****             {
 535              		.loc 1 551 16 is_stmt 0 view .LVU186
 536 012e 0028     		cmp	r0, #0
 537 0130 13D1     		bne	.L47
 538              	.LVL38:
 539              	.L20:
 566:User/BME280/bme280.c **** }
 540              		.loc 1 566 5 is_stmt 1 view .LVU187
 567:User/BME280/bme280.c **** 
 541              		.loc 1 567 1 is_stmt 0 view .LVU188
 542 0132 07B0     		add	sp, sp, #28
 543              		@ sp needed
 544              	.LVL39:
 545              	.LVL40:
 567:User/BME280/bme280.c **** 
 546              		.loc 1 567 1 view .LVU189
 547 0134 F0BD     		pop	{r4, r5, r6, r7, pc}
 548              	.LVL41:
 549              	.L23:
 548:User/BME280/bme280.c **** 
 550              		.loc 1 548 33 view .LVU190
 551 0136 2F69     		ldr	r7, [r5, #16]
 535:User/BME280/bme280.c ****             {
 552              		.loc 1 535 13 is_stmt 1 view .LVU191
 553              	.L32:
 554              	.LVL42:
 555              	.LBB63:
 556              	.LBB61:
1504:User/BME280/bme280.c ****         temp_buff[index * 2] = reg_data[index];
 557              		.loc 1 1504 9 view .LVU192
1504:User/BME280/bme280.c ****         temp_buff[index * 2] = reg_data[index];
 558              		.loc 1 1504 36 is_stmt 0 view .LVU193
 559 0138 4378     		ldrb	r3, [r0, #1]
 560 013a 4B70     		strb	r3, [r1, #1]
1505:User/BME280/bme280.c ****     }
 561              		.loc 1 1505 9 is_stmt 1 view .LVU194
1505:User/BME280/bme280.c ****     }
 562              		.loc 1 1505 30 is_stmt 0 view .LVU195
 563 013c 7378     		ldrb	r3, [r6, #1]
ARM GAS  C:\Users\upo\AppData\Local\Temp\ccJAZRXk.s 			page 42


 564 013e 8B70     		strb	r3, [r1, #2]
1502:User/BME280/bme280.c ****     {
 565              		.loc 1 1502 39 is_stmt 1 view .LVU196
 566              	.LVL43:
1502:User/BME280/bme280.c ****     {
 567              		.loc 1 1502 27 view .LVU197
 568 0140 022C     		cmp	r4, #2
 569 0142 B9D8     		bhi	.L31
 570 0144 E6E7     		b	.L34
 571              	.LVL44:
 572              	.L21:
1502:User/BME280/bme280.c ****     {
 573              		.loc 1 1502 27 is_stmt 0 view .LVU198
 574              	.LBE61:
 575              	.LBE63:
 535:User/BME280/bme280.c ****             {
 576              		.loc 1 535 13 is_stmt 1 view .LVU199
 577 0146 0122     		movs	r2, #1
 578              	.LVL45:
 535:User/BME280/bme280.c ****             {
 579              		.loc 1 535 16 is_stmt 0 view .LVU200
 580 0148 012C     		cmp	r4, #1
 581 014a EBD0     		beq	.L33
 582 014c F4E7     		b	.L32
 583              	.LVL46:
 584              	.L42:
 563:User/BME280/bme280.c ****     }
 585              		.loc 1 563 14 view .LVU201
 586 014e 0120     		movs	r0, #1
 587              	.LVL47:
 563:User/BME280/bme280.c ****     }
 588              		.loc 1 563 14 view .LVU202
 589 0150 4042     		rsbs	r0, r0, #0
 590 0152 EEE7     		b	.L20
 591              	.LVL48:
 592              	.L43:
 558:User/BME280/bme280.c ****         }
 593              		.loc 1 558 18 view .LVU203
 594 0154 0320     		movs	r0, #3
 595              	.LVL49:
 558:User/BME280/bme280.c ****         }
 596              		.loc 1 558 18 view .LVU204
 597 0156 4042     		rsbs	r0, r0, #0
 598 0158 EBE7     		b	.L20
 599              	.LVL50:
 600              	.L47:
 553:User/BME280/bme280.c ****             }
 601              		.loc 1 553 22 view .LVU205
 602 015a 0420     		movs	r0, #4
 603 015c 4042     		rsbs	r0, r0, #0
 604 015e E8E7     		b	.L20
 605              	.LVL51:
 606              	.L22:
 548:User/BME280/bme280.c **** 
 607              		.loc 1 548 33 view .LVU206
 608 0160 0122     		movs	r2, #1
 609 0162 2F69     		ldr	r7, [r5, #16]
ARM GAS  C:\Users\upo\AppData\Local\Temp\ccJAZRXk.s 			page 43


 535:User/BME280/bme280.c ****             {
 610              		.loc 1 535 13 is_stmt 1 view .LVU207
 611 0164 DEE7     		b	.L33
 612              		.cfi_endproc
 613              	.LFE1427:
 615 0166 C046     		.section	.text.bme280_get_sensor_settings,"ax",%progbits
 616              		.align	1
 617              		.p2align 2,,3
 618              		.global	bme280_get_sensor_settings
 619              		.syntax unified
 620              		.code	16
 621              		.thumb_func
 623              	bme280_get_sensor_settings:
 624              	.LVL52:
 625              	.LFB1429:
 619:User/BME280/bme280.c ****     int8_t rslt;
 626              		.loc 1 619 1 view -0
 627              		.cfi_startproc
 628              		@ args = 0, pretend = 0, frame = 8
 629              		@ frame_needed = 0, uses_anonymous_args = 0
 620:User/BME280/bme280.c ****     uint8_t reg_data[4];
 630              		.loc 1 620 5 view .LVU209
 621:User/BME280/bme280.c **** 
 631              		.loc 1 621 5 view .LVU210
 624:User/BME280/bme280.c **** 
 632              		.loc 1 624 5 view .LVU211
 633              	.LBB72:
 634              	.LBI72:
1581:User/BME280/bme280.c **** {
 635              		.loc 1 1581 15 view .LVU212
 636              	.LBB73:
1583:User/BME280/bme280.c **** 
 637              		.loc 1 1583 5 view .LVU213
1585:User/BME280/bme280.c ****     {
 638              		.loc 1 1585 5 view .LVU214
 639              	.LBE73:
 640              	.LBE72:
 619:User/BME280/bme280.c ****     int8_t rslt;
 641              		.loc 1 619 1 is_stmt 0 view .LVU215
 642 0000 F0B5     		push	{r4, r5, r6, r7, lr}
 643              	.LCFI4:
 644              		.cfi_def_cfa_offset 20
 645              		.cfi_offset 4, -20
 646              		.cfi_offset 5, -16
 647              		.cfi_offset 6, -12
 648              		.cfi_offset 7, -8
 649              		.cfi_offset 14, -4
 650 0002 0400     		movs	r4, r0
 651 0004 83B0     		sub	sp, sp, #12
 652              	.LCFI5:
 653              		.cfi_def_cfa_offset 32
 654              	.LBB76:
 655              	.LBB74:
1585:User/BME280/bme280.c ****     {
 656              		.loc 1 1585 8 view .LVU216
 657 0006 0028     		cmp	r0, #0
 658 0008 37D0     		beq	.L55
ARM GAS  C:\Users\upo\AppData\Local\Temp\ccJAZRXk.s 			page 44


1585:User/BME280/bme280.c ****     {
 659              		.loc 1 1585 30 view .LVU217
 660 000a C668     		ldr	r6, [r0, #12]
1585:User/BME280/bme280.c ****     {
 661              		.loc 1 1585 23 view .LVU218
 662 000c 002E     		cmp	r6, #0
 663 000e 34D0     		beq	.L55
1585:User/BME280/bme280.c ****     {
 664              		.loc 1 1585 46 view .LVU219
 665 0010 0369     		ldr	r3, [r0, #16]
 666 0012 002B     		cmp	r3, #0
 667 0014 31D0     		beq	.L55
1585:User/BME280/bme280.c ****     {
 668              		.loc 1 1585 70 view .LVU220
 669 0016 4369     		ldr	r3, [r0, #20]
 670 0018 002B     		cmp	r3, #0
 671 001a 2ED0     		beq	.L55
 672              	.LVL53:
 673              		.loc 1 1596 5 is_stmt 1 view .LVU221
 674              		.loc 1 1596 5 is_stmt 0 view .LVU222
 675              	.LBE74:
 676              	.LBE76:
 627:User/BME280/bme280.c ****     {
 677              		.loc 1 627 5 is_stmt 1 view .LVU223
 629:User/BME280/bme280.c **** 
 678              		.loc 1 629 9 view .LVU224
 679              	.LBB77:
 680              	.LBI77:
 462:User/BME280/bme280.c **** {
 681              		.loc 1 462 8 view .LVU225
 682              	.LBB78:
 464:User/BME280/bme280.c **** 
 683              		.loc 1 464 5 view .LVU226
 467:User/BME280/bme280.c **** 
 684              		.loc 1 467 5 view .LVU227
 467:User/BME280/bme280.c **** 
 685              		.loc 1 467 10 is_stmt 0 view .LVU228
 686 001c 6B46     		mov	r3, sp
 687 001e DD1C     		adds	r5, r3, #3
 688 0020 0023     		movs	r3, #0
 689 0022 2B70     		strb	r3, [r5]
 470:User/BME280/bme280.c ****     {
 690              		.loc 1 470 5 is_stmt 1 view .LVU229
 470:User/BME280/bme280.c ****     {
 691              		.loc 1 470 15 is_stmt 0 view .LVU230
 692 0024 2B78     		ldrb	r3, [r5]
 470:User/BME280/bme280.c ****     {
 693              		.loc 1 470 8 view .LVU231
 694 0026 002B     		cmp	r3, #0
 695 0028 1BD0     		beq	.L59
 492:User/BME280/bme280.c ****     }
 696              		.loc 1 492 9 is_stmt 1 view .LVU232
 492:User/BME280/bme280.c ****     }
 697              		.loc 1 492 14 is_stmt 0 view .LVU233
 698 002a FF23     		movs	r3, #255
 699 002c 2B70     		strb	r3, [r5]
 700              	.LVL54:
ARM GAS  C:\Users\upo\AppData\Local\Temp\ccJAZRXk.s 			page 45


 701              	.L51:
 495:User/BME280/bme280.c **** }
 702              		.loc 1 495 5 is_stmt 1 view .LVU234
 495:User/BME280/bme280.c **** }
 703              		.loc 1 495 12 is_stmt 0 view .LVU235
 704 002e 2B78     		ldrb	r3, [r5]
 705 0030 58B2     		sxtb	r0, r3
 706              	.LVL55:
 495:User/BME280/bme280.c **** }
 707              		.loc 1 495 12 view .LVU236
 708              	.LBE78:
 709              	.LBE77:
 631:User/BME280/bme280.c ****         {
 710              		.loc 1 631 9 is_stmt 1 view .LVU237
 631:User/BME280/bme280.c ****         {
 711              		.loc 1 631 12 is_stmt 0 view .LVU238
 712 0032 002B     		cmp	r3, #0
 713 0034 13D1     		bne	.L49
 633:User/BME280/bme280.c ****         }
 714              		.loc 1 633 13 is_stmt 1 view .LVU239
 715              	.LVL56:
 716              	.LBB80:
 717              	.LBI80:
1070:User/BME280/bme280.c **** {
 718              		.loc 1 1070 13 view .LVU240
 719              	.LBB81:
1072:User/BME280/bme280.c ****     settings->osr_p = BME280_GET_BITS(reg_data[2], BME280_CTRL_PRESS);
 720              		.loc 1 1072 5 view .LVU241
1072:User/BME280/bme280.c ****     settings->osr_p = BME280_GET_BITS(reg_data[2], BME280_CTRL_PRESS);
 721              		.loc 1 1072 21 is_stmt 0 view .LVU242
 722 0036 2200     		movs	r2, r4
1073:User/BME280/bme280.c ****     settings->osr_t = BME280_GET_BITS(reg_data[2], BME280_CTRL_TEMP);
 723              		.loc 1 1073 21 view .LVU243
 724 0038 4027     		movs	r7, #64
1072:User/BME280/bme280.c ****     settings->osr_p = BME280_GET_BITS(reg_data[2], BME280_CTRL_PRESS);
 725              		.loc 1 1072 23 view .LVU244
 726 003a 01AD     		add	r5, sp, #4
 727              	.LVL57:
1072:User/BME280/bme280.c ****     settings->osr_p = BME280_GET_BITS(reg_data[2], BME280_CTRL_PRESS);
 728              		.loc 1 1072 23 view .LVU245
 729 003c 2978     		ldrb	r1, [r5]
 730 003e 0733     		adds	r3, r3, #7
1072:User/BME280/bme280.c ****     settings->osr_p = BME280_GET_BITS(reg_data[2], BME280_CTRL_PRESS);
 731              		.loc 1 1072 21 view .LVU246
 732 0040 4032     		adds	r2, r2, #64
 733              	.LVL58:
1072:User/BME280/bme280.c ****     settings->osr_p = BME280_GET_BITS(reg_data[2], BME280_CTRL_PRESS);
 734              		.loc 1 1072 23 view .LVU247
 735 0042 1940     		ands	r1, r3
1072:User/BME280/bme280.c ****     settings->osr_p = BME280_GET_BITS(reg_data[2], BME280_CTRL_PRESS);
 736              		.loc 1 1072 21 view .LVU248
 737 0044 9170     		strb	r1, [r2, #2]
1073:User/BME280/bme280.c ****     settings->osr_t = BME280_GET_BITS(reg_data[2], BME280_CTRL_TEMP);
 738              		.loc 1 1073 5 is_stmt 1 view .LVU249
1073:User/BME280/bme280.c ****     settings->osr_t = BME280_GET_BITS(reg_data[2], BME280_CTRL_TEMP);
 739              		.loc 1 1073 23 is_stmt 0 view .LVU250
 740 0046 A978     		ldrb	r1, [r5, #2]
ARM GAS  C:\Users\upo\AppData\Local\Temp\ccJAZRXk.s 			page 46


 741 0048 8E10     		asrs	r6, r1, #2
 742 004a 1E40     		ands	r6, r3
1074:User/BME280/bme280.c ****     settings->filter = BME280_GET_BITS(reg_data[3], BME280_FILTER);
 743              		.loc 1 1074 23 view .LVU251
 744 004c 4909     		lsrs	r1, r1, #5
1073:User/BME280/bme280.c ****     settings->osr_t = BME280_GET_BITS(reg_data[2], BME280_CTRL_TEMP);
 745              		.loc 1 1073 21 view .LVU252
 746 004e E655     		strb	r6, [r4, r7]
1074:User/BME280/bme280.c ****     settings->filter = BME280_GET_BITS(reg_data[3], BME280_FILTER);
 747              		.loc 1 1074 5 is_stmt 1 view .LVU253
1074:User/BME280/bme280.c ****     settings->filter = BME280_GET_BITS(reg_data[3], BME280_FILTER);
 748              		.loc 1 1074 21 is_stmt 0 view .LVU254
 749 0050 5170     		strb	r1, [r2, #1]
1075:User/BME280/bme280.c ****     settings->standby_time = BME280_GET_BITS(reg_data[3], BME280_STANDBY);
 750              		.loc 1 1075 5 is_stmt 1 view .LVU255
1075:User/BME280/bme280.c ****     settings->standby_time = BME280_GET_BITS(reg_data[3], BME280_STANDBY);
 751              		.loc 1 1075 24 is_stmt 0 view .LVU256
 752 0052 E978     		ldrb	r1, [r5, #3]
 753 0054 8C10     		asrs	r4, r1, #2
 754              	.LVL59:
1075:User/BME280/bme280.c ****     settings->standby_time = BME280_GET_BITS(reg_data[3], BME280_STANDBY);
 755              		.loc 1 1075 24 view .LVU257
 756 0056 2340     		ands	r3, r4
1076:User/BME280/bme280.c **** }
 757              		.loc 1 1076 30 view .LVU258
 758 0058 4909     		lsrs	r1, r1, #5
1075:User/BME280/bme280.c ****     settings->standby_time = BME280_GET_BITS(reg_data[3], BME280_STANDBY);
 759              		.loc 1 1075 22 view .LVU259
 760 005a D370     		strb	r3, [r2, #3]
1076:User/BME280/bme280.c **** }
 761              		.loc 1 1076 5 is_stmt 1 view .LVU260
1076:User/BME280/bme280.c **** }
 762              		.loc 1 1076 28 is_stmt 0 view .LVU261
 763 005c 1171     		strb	r1, [r2, #4]
 764              	.LVL60:
 765              	.L49:
1076:User/BME280/bme280.c **** }
 766              		.loc 1 1076 28 view .LVU262
 767              	.LBE81:
 768              	.LBE80:
 637:User/BME280/bme280.c **** }
 769              		.loc 1 637 5 is_stmt 1 view .LVU263
 638:User/BME280/bme280.c **** 
 770              		.loc 1 638 1 is_stmt 0 view .LVU264
 771 005e 03B0     		add	sp, sp, #12
 772              		@ sp needed
 773 0060 F0BD     		pop	{r4, r5, r6, r7, pc}
 774              	.LVL61:
 775              	.L59:
 776              	.LBB82:
 777              	.LBB79:
 473:User/BME280/bme280.c ****         {
 778              		.loc 1 473 9 is_stmt 1 view .LVU265
 482:User/BME280/bme280.c **** 
 779              		.loc 1 482 9 view .LVU266
 482:User/BME280/bme280.c **** 
 780              		.loc 1 482 26 is_stmt 0 view .LVU267
ARM GAS  C:\Users\upo\AppData\Local\Temp\ccJAZRXk.s 			page 47


 781 0062 4368     		ldr	r3, [r0, #4]
 782 0064 0422     		movs	r2, #4
 783 0066 F220     		movs	r0, #242
 784              	.LVL62:
 482:User/BME280/bme280.c **** 
 785              		.loc 1 482 26 view .LVU268
 786 0068 01A9     		add	r1, sp, #4
 787              	.LVL63:
 482:User/BME280/bme280.c **** 
 788              		.loc 1 482 26 view .LVU269
 789 006a B047     		blx	r6
 790              	.LVL64:
 482:User/BME280/bme280.c **** 
 791              		.loc 1 482 24 view .LVU270
 792 006c 4523     		movs	r3, #69
 793 006e E054     		strb	r0, [r4, r3]
 485:User/BME280/bme280.c ****         {
 794              		.loc 1 485 9 is_stmt 1 view .LVU271
 485:User/BME280/bme280.c ****         {
 795              		.loc 1 485 12 is_stmt 0 view .LVU272
 796 0070 0028     		cmp	r0, #0
 797 0072 DCD0     		beq	.L51
 487:User/BME280/bme280.c ****         }
 798              		.loc 1 487 13 is_stmt 1 view .LVU273
 487:User/BME280/bme280.c ****         }
 799              		.loc 1 487 18 is_stmt 0 view .LVU274
 800 0074 B733     		adds	r3, r3, #183
 801 0076 2B70     		strb	r3, [r5]
 802 0078 D9E7     		b	.L51
 803              	.LVL65:
 804              	.L55:
 487:User/BME280/bme280.c ****         }
 805              		.loc 1 487 18 view .LVU275
 806              	.LBE79:
 807              	.LBE82:
 808              	.LBB83:
 809              	.LBB75:
1588:User/BME280/bme280.c ****     }
 810              		.loc 1 1588 14 view .LVU276
 811 007a 0120     		movs	r0, #1
 812              	.LVL66:
1588:User/BME280/bme280.c ****     }
 813              		.loc 1 1588 14 view .LVU277
 814 007c 4042     		rsbs	r0, r0, #0
 815 007e EEE7     		b	.L49
 816              	.LBE75:
 817              	.LBE83:
 818              		.cfi_endproc
 819              	.LFE1429:
 821              		.section	.text.bme280_get_sensor_mode,"ax",%progbits
 822              		.align	1
 823              		.p2align 2,,3
 824              		.global	bme280_get_sensor_mode
 825              		.syntax unified
 826              		.code	16
 827              		.thumb_func
 829              	bme280_get_sensor_mode:
ARM GAS  C:\Users\upo\AppData\Local\Temp\ccJAZRXk.s 			page 48


 830              	.LVL67:
 831              	.LFB1431:
 677:User/BME280/bme280.c ****     int8_t rslt;
 832              		.loc 1 677 1 is_stmt 1 view -0
 833              		.cfi_startproc
 834              		@ args = 0, pretend = 0, frame = 8
 835              		@ frame_needed = 0, uses_anonymous_args = 0
 678:User/BME280/bme280.c **** 
 836              		.loc 1 678 5 view .LVU279
 681:User/BME280/bme280.c **** 
 837              		.loc 1 681 5 view .LVU280
 838              	.LBB92:
 839              	.LBI92:
1581:User/BME280/bme280.c **** {
 840              		.loc 1 1581 15 view .LVU281
 841              	.LBB93:
1583:User/BME280/bme280.c **** 
 842              		.loc 1 1583 5 view .LVU282
1585:User/BME280/bme280.c ****     {
 843              		.loc 1 1585 5 view .LVU283
 844              	.LBE93:
 845              	.LBE92:
 677:User/BME280/bme280.c ****     int8_t rslt;
 846              		.loc 1 677 1 is_stmt 0 view .LVU284
 847 0000 F0B5     		push	{r4, r5, r6, r7, lr}
 848              	.LCFI6:
 849              		.cfi_def_cfa_offset 20
 850              		.cfi_offset 4, -20
 851              		.cfi_offset 5, -16
 852              		.cfi_offset 6, -12
 853              		.cfi_offset 7, -8
 854              		.cfi_offset 14, -4
 855 0002 0600     		movs	r6, r0
 856 0004 0C00     		movs	r4, r1
 857 0006 83B0     		sub	sp, sp, #12
 858              	.LCFI7:
 859              		.cfi_def_cfa_offset 32
 860              	.LBB95:
 861              	.LBB94:
1585:User/BME280/bme280.c ****     {
 862              		.loc 1 1585 8 view .LVU285
 863 0008 0029     		cmp	r1, #0
 864 000a 27D0     		beq	.L68
1585:User/BME280/bme280.c ****     {
 865              		.loc 1 1585 30 view .LVU286
 866 000c CD68     		ldr	r5, [r1, #12]
1585:User/BME280/bme280.c ****     {
 867              		.loc 1 1585 23 view .LVU287
 868 000e 002D     		cmp	r5, #0
 869 0010 24D0     		beq	.L68
1585:User/BME280/bme280.c ****     {
 870              		.loc 1 1585 46 view .LVU288
 871 0012 0B69     		ldr	r3, [r1, #16]
 872 0014 002B     		cmp	r3, #0
 873 0016 21D0     		beq	.L68
1585:User/BME280/bme280.c ****     {
 874              		.loc 1 1585 70 view .LVU289
ARM GAS  C:\Users\upo\AppData\Local\Temp\ccJAZRXk.s 			page 49


 875 0018 4B69     		ldr	r3, [r1, #20]
 876 001a 002B     		cmp	r3, #0
 877 001c 1ED0     		beq	.L68
 878              	.LVL68:
 879              		.loc 1 1596 5 is_stmt 1 view .LVU290
 880              		.loc 1 1596 5 is_stmt 0 view .LVU291
 881              	.LBE94:
 882              	.LBE95:
 683:User/BME280/bme280.c ****     {
 883              		.loc 1 683 5 is_stmt 1 view .LVU292
 683:User/BME280/bme280.c ****     {
 884              		.loc 1 683 29 is_stmt 0 view .LVU293
 885 001e 0028     		cmp	r0, #0
 886 0020 1CD0     		beq	.L68
 686:User/BME280/bme280.c **** 
 887              		.loc 1 686 9 is_stmt 1 view .LVU294
 888              	.LVL69:
 889              	.LBB96:
 890              	.LBI96:
 462:User/BME280/bme280.c **** {
 891              		.loc 1 462 8 view .LVU295
 892              	.LBB97:
 464:User/BME280/bme280.c **** 
 893              		.loc 1 464 5 view .LVU296
 467:User/BME280/bme280.c **** 
 894              		.loc 1 467 5 view .LVU297
 467:User/BME280/bme280.c **** 
 895              		.loc 1 467 10 is_stmt 0 view .LVU298
 896 0022 6B46     		mov	r3, sp
 897 0024 DF1D     		adds	r7, r3, #7
 898 0026 0023     		movs	r3, #0
 899 0028 3B70     		strb	r3, [r7]
 470:User/BME280/bme280.c ****     {
 900              		.loc 1 470 5 is_stmt 1 view .LVU299
 470:User/BME280/bme280.c ****     {
 901              		.loc 1 470 15 is_stmt 0 view .LVU300
 902 002a 3B78     		ldrb	r3, [r7]
 470:User/BME280/bme280.c ****     {
 903              		.loc 1 470 8 view .LVU301
 904 002c 002B     		cmp	r3, #0
 905 002e 09D0     		beq	.L72
 492:User/BME280/bme280.c ****     }
 906              		.loc 1 492 9 is_stmt 1 view .LVU302
 492:User/BME280/bme280.c ****     }
 907              		.loc 1 492 14 is_stmt 0 view .LVU303
 908 0030 FF23     		movs	r3, #255
 909 0032 3B70     		strb	r3, [r7]
 910              	.LVL70:
 911              	.L63:
 495:User/BME280/bme280.c **** }
 912              		.loc 1 495 5 is_stmt 1 view .LVU304
 913              	.LBE97:
 914              	.LBE96:
 689:User/BME280/bme280.c ****     }
 915              		.loc 1 689 24 is_stmt 0 view .LVU305
 916 0034 0323     		movs	r3, #3
 917 0036 3278     		ldrb	r2, [r6]
ARM GAS  C:\Users\upo\AppData\Local\Temp\ccJAZRXk.s 			page 50


 918              	.LBB101:
 919              	.LBB98:
 495:User/BME280/bme280.c **** }
 920              		.loc 1 495 12 view .LVU306
 921 0038 3878     		ldrb	r0, [r7]
 922              	.LBE98:
 923              	.LBE101:
 689:User/BME280/bme280.c ****     }
 924              		.loc 1 689 24 view .LVU307
 925 003a 1340     		ands	r3, r2
 926              	.LBB102:
 927              	.LBB99:
 495:User/BME280/bme280.c **** }
 928              		.loc 1 495 12 view .LVU308
 929 003c 40B2     		sxtb	r0, r0
 930              	.LVL71:
 495:User/BME280/bme280.c **** }
 931              		.loc 1 495 12 view .LVU309
 932              	.LBE99:
 933              	.LBE102:
 689:User/BME280/bme280.c ****     }
 934              		.loc 1 689 9 is_stmt 1 view .LVU310
 689:User/BME280/bme280.c ****     }
 935              		.loc 1 689 22 is_stmt 0 view .LVU311
 936 003e 3370     		strb	r3, [r6]
 937              	.LVL72:
 938              	.L61:
 696:User/BME280/bme280.c **** }
 939              		.loc 1 696 5 is_stmt 1 view .LVU312
 697:User/BME280/bme280.c **** 
 940              		.loc 1 697 1 is_stmt 0 view .LVU313
 941 0040 03B0     		add	sp, sp, #12
 942              		@ sp needed
 943              	.LVL73:
 944              	.LVL74:
 697:User/BME280/bme280.c **** 
 945              		.loc 1 697 1 view .LVU314
 946 0042 F0BD     		pop	{r4, r5, r6, r7, pc}
 947              	.LVL75:
 948              	.L72:
 949              	.LBB103:
 950              	.LBB100:
 473:User/BME280/bme280.c ****         {
 951              		.loc 1 473 9 is_stmt 1 view .LVU315
 482:User/BME280/bme280.c **** 
 952              		.loc 1 482 9 view .LVU316
 482:User/BME280/bme280.c **** 
 953              		.loc 1 482 26 is_stmt 0 view .LVU317
 954 0044 4B68     		ldr	r3, [r1, #4]
 955 0046 0122     		movs	r2, #1
 956 0048 0100     		movs	r1, r0
 957              	.LVL76:
 482:User/BME280/bme280.c **** 
 958              		.loc 1 482 26 view .LVU318
 959 004a F420     		movs	r0, #244
 960              	.LVL77:
 482:User/BME280/bme280.c **** 
ARM GAS  C:\Users\upo\AppData\Local\Temp\ccJAZRXk.s 			page 51


 961              		.loc 1 482 26 view .LVU319
 962 004c A847     		blx	r5
 963              	.LVL78:
 482:User/BME280/bme280.c **** 
 964              		.loc 1 482 24 view .LVU320
 965 004e 4523     		movs	r3, #69
 966 0050 E054     		strb	r0, [r4, r3]
 485:User/BME280/bme280.c ****         {
 967              		.loc 1 485 9 is_stmt 1 view .LVU321
 485:User/BME280/bme280.c ****         {
 968              		.loc 1 485 12 is_stmt 0 view .LVU322
 969 0052 0028     		cmp	r0, #0
 970 0054 EED0     		beq	.L63
 487:User/BME280/bme280.c ****         }
 971              		.loc 1 487 13 is_stmt 1 view .LVU323
 487:User/BME280/bme280.c ****         }
 972              		.loc 1 487 18 is_stmt 0 view .LVU324
 973 0056 B733     		adds	r3, r3, #183
 974 0058 3B70     		strb	r3, [r7]
 975 005a EBE7     		b	.L63
 976              	.LVL79:
 977              	.L68:
 487:User/BME280/bme280.c ****         }
 978              		.loc 1 487 18 view .LVU325
 979              	.LBE100:
 980              	.LBE103:
 693:User/BME280/bme280.c ****     }
 981              		.loc 1 693 14 view .LVU326
 982 005c 0120     		movs	r0, #1
 983              	.LVL80:
 693:User/BME280/bme280.c ****     }
 984              		.loc 1 693 14 view .LVU327
 985 005e 4042     		rsbs	r0, r0, #0
 986 0060 EEE7     		b	.L61
 987              		.cfi_endproc
 988              	.LFE1431:
 990 0062 C046     		.section	.text.bme280_soft_reset,"ax",%progbits
 991              		.align	1
 992              		.p2align 2,,3
 993              		.global	bme280_soft_reset
 994              		.syntax unified
 995              		.code	16
 996              		.thumb_func
 998              	bme280_soft_reset:
 999              	.LVL81:
 1000              	.LFB1432:
 703:User/BME280/bme280.c ****     int8_t rslt;
 1001              		.loc 1 703 1 is_stmt 1 view -0
 1002              		.cfi_startproc
 1003              		@ args = 0, pretend = 0, frame = 24
 1004              		@ frame_needed = 0, uses_anonymous_args = 0
 704:User/BME280/bme280.c ****     uint8_t reg_addr = BME280_RESET_ADDR; // UINT8_C(0xE0)
 1005              		.loc 1 704 5 view .LVU329
 705:User/BME280/bme280.c ****     uint8_t status_reg = 0;
 1006              		.loc 1 705 5 view .LVU330
 706:User/BME280/bme280.c ****     uint8_t try_run = 5;
 1007              		.loc 1 706 5 view .LVU331
ARM GAS  C:\Users\upo\AppData\Local\Temp\ccJAZRXk.s 			page 52


 703:User/BME280/bme280.c ****     int8_t rslt;
 1008              		.loc 1 703 1 is_stmt 0 view .LVU332
 1009 0000 F0B5     		push	{r4, r5, r6, r7, lr}
 1010              	.LCFI8:
 1011              		.cfi_def_cfa_offset 20
 1012              		.cfi_offset 4, -20
 1013              		.cfi_offset 5, -16
 1014              		.cfi_offset 6, -12
 1015              		.cfi_offset 7, -8
 1016              		.cfi_offset 14, -4
 1017 0002 4646     		mov	r6, r8
 1018 0004 D646     		mov	lr, r10
 1019 0006 4F46     		mov	r7, r9
 1020 0008 C0B5     		push	{r6, r7, lr}
 1021              	.LCFI9:
 1022              		.cfi_def_cfa_offset 32
 1023              		.cfi_offset 8, -32
 1024              		.cfi_offset 9, -28
 1025              		.cfi_offset 10, -24
 1026 000a 86B0     		sub	sp, sp, #24
 1027              	.LCFI10:
 1028              		.cfi_def_cfa_offset 56
 706:User/BME280/bme280.c ****     uint8_t try_run = 5;
 1029              		.loc 1 706 13 view .LVU333
 1030 000c 6B46     		mov	r3, sp
 1031 000e DE1C     		adds	r6, r3, #3
 1032 0010 0023     		movs	r3, #0
 703:User/BME280/bme280.c ****     int8_t rslt;
 1033              		.loc 1 703 1 view .LVU334
 1034 0012 041E     		subs	r4, r0, #0
 706:User/BME280/bme280.c ****     uint8_t try_run = 5;
 1035              		.loc 1 706 13 view .LVU335
 1036 0014 3370     		strb	r3, [r6]
 707:User/BME280/bme280.c **** 
 1037              		.loc 1 707 5 is_stmt 1 view .LVU336
 1038              	.LVL82:
 710:User/BME280/bme280.c **** 
 1039              		.loc 1 710 5 view .LVU337
 713:User/BME280/bme280.c **** 
 1040              		.loc 1 713 5 view .LVU338
 1041              	.LBB116:
 1042              	.LBI116:
1581:User/BME280/bme280.c **** {
 1043              		.loc 1 1581 15 view .LVU339
 1044              	.LBB117:
1583:User/BME280/bme280.c **** 
 1045              		.loc 1 1583 5 view .LVU340
1585:User/BME280/bme280.c ****     {
 1046              		.loc 1 1585 5 view .LVU341
1585:User/BME280/bme280.c ****     {
 1047              		.loc 1 1585 8 is_stmt 0 view .LVU342
 1048 0016 5CD0     		beq	.L86
1585:User/BME280/bme280.c ****     {
 1049              		.loc 1 1585 23 view .LVU343
 1050 0018 C368     		ldr	r3, [r0, #12]
 1051 001a 002B     		cmp	r3, #0
 1052 001c 59D0     		beq	.L86
ARM GAS  C:\Users\upo\AppData\Local\Temp\ccJAZRXk.s 			page 53


1585:User/BME280/bme280.c ****     {
 1053              		.loc 1 1585 53 view .LVU344
 1054 001e 0769     		ldr	r7, [r0, #16]
1585:User/BME280/bme280.c ****     {
 1055              		.loc 1 1585 46 view .LVU345
 1056 0020 002F     		cmp	r7, #0
 1057 0022 56D0     		beq	.L86
1585:User/BME280/bme280.c ****     {
 1058              		.loc 1 1585 70 view .LVU346
 1059 0024 4369     		ldr	r3, [r0, #20]
 1060 0026 002B     		cmp	r3, #0
 1061 0028 53D0     		beq	.L86
 1062              	.LVL83:
 1063              		.loc 1 1596 5 is_stmt 1 view .LVU347
 1064              		.loc 1 1596 5 is_stmt 0 view .LVU348
 1065              	.LBE117:
 1066              	.LBE116:
 716:User/BME280/bme280.c ****     {
 1067              		.loc 1 716 5 is_stmt 1 view .LVU349
 719:User/BME280/bme280.c **** 
 1068              		.loc 1 719 9 view .LVU350
 1069              	.LBB119:
 1070              	.LBI119:
 502:User/BME280/bme280.c **** {
 1071              		.loc 1 502 8 view .LVU351
 1072              	.LBB120:
 504:User/BME280/bme280.c ****     uint8_t temp_buff[20]; /* Typically not to write more than 10 registers */
 1073              		.loc 1 504 5 view .LVU352
 505:User/BME280/bme280.c **** 
 1074              		.loc 1 505 5 view .LVU353
 507:User/BME280/bme280.c ****     {
 1075              		.loc 1 507 5 view .LVU354
 512:User/BME280/bme280.c ****     uint8_t reg_addr_cnt;
 1076              		.loc 1 512 5 view .LVU355
 513:User/BME280/bme280.c **** 
 1077              		.loc 1 513 5 view .LVU356
 516:User/BME280/bme280.c **** 
 1078              		.loc 1 516 5 view .LVU357
 519:User/BME280/bme280.c ****     {
 1079              		.loc 1 519 5 view .LVU358
 521:User/BME280/bme280.c ****         {
 1080              		.loc 1 521 9 view .LVU359
 523:User/BME280/bme280.c **** 
 1081              		.loc 1 523 13 view .LVU360
 523:User/BME280/bme280.c **** 
 1082              		.loc 1 523 26 is_stmt 0 view .LVU361
 1083 002a B623     		movs	r3, #182
 1084 002c 01AD     		add	r5, sp, #4
 1085 002e 2B70     		strb	r3, [r5]
 526:User/BME280/bme280.c ****             {
 1086              		.loc 1 526 13 is_stmt 1 view .LVU362
 526:User/BME280/bme280.c ****             {
 1087              		.loc 1 526 16 is_stmt 0 view .LVU363
 1088 0030 007A     		ldrb	r0, [r0, #8]
 1089              	.LVL84:
 548:User/BME280/bme280.c **** 
 1090              		.loc 1 548 30 view .LVU364
ARM GAS  C:\Users\upo\AppData\Local\Temp\ccJAZRXk.s 			page 54


 1091 0032 0122     		movs	r2, #1
 1092              	.LBE120:
 1093              	.LBE119:
 705:User/BME280/bme280.c ****     uint8_t status_reg = 0;
 1094              		.loc 1 705 13 view .LVU365
 1095 0034 0138     		subs	r0, r0, #1
 1096 0036 431E     		subs	r3, r0, #1
 1097 0038 9841     		sbcs	r0, r0, r3
 1098 003a 7F23     		movs	r3, #127
 1099 003c 4042     		rsbs	r0, r0, #0
 1100 003e 9843     		bics	r0, r3
 1101              	.LBB127:
 1102              	.LBB121:
 548:User/BME280/bme280.c **** 
 1103              		.loc 1 548 30 view .LVU366
 1104 0040 2900     		movs	r1, r5
 1105 0042 6368     		ldr	r3, [r4, #4]
 1106              	.LBE121:
 1107              	.LBE127:
 705:User/BME280/bme280.c ****     uint8_t status_reg = 0;
 1108              		.loc 1 705 13 view .LVU367
 1109 0044 E030     		adds	r0, r0, #224
 1110              	.LVL85:
 1111              	.LBB128:
 1112              	.LBB122:
 535:User/BME280/bme280.c ****             {
 1113              		.loc 1 535 13 is_stmt 1 view .LVU368
 548:User/BME280/bme280.c **** 
 1114              		.loc 1 548 13 view .LVU369
 548:User/BME280/bme280.c **** 
 1115              		.loc 1 548 30 is_stmt 0 view .LVU370
 1116 0046 B847     		blx	r7
 1117              	.LVL86:
 548:User/BME280/bme280.c **** 
 1118              		.loc 1 548 28 view .LVU371
 1119 0048 4523     		movs	r3, #69
 1120 004a E054     		strb	r0, [r4, r3]
 551:User/BME280/bme280.c ****             {
 1121              		.loc 1 551 13 is_stmt 1 view .LVU372
 1122              	.LBE122:
 1123              	.LBE128:
 1124              	.LBB129:
 1125              	.LBB130:
 492:User/BME280/bme280.c ****     }
 1126              		.loc 1 492 14 is_stmt 0 view .LVU373
 1127 004c BA33     		adds	r3, r3, #186
 1128 004e 9A46     		mov	r10, r3
 482:User/BME280/bme280.c **** 
 1129              		.loc 1 482 24 view .LVU374
 1130 0050 BA3B     		subs	r3, r3, #186
 1131              	.LBE130:
 1132              	.LBE129:
 1133              	.LBB139:
 1134              	.LBB123:
 1135 0052 0627     		movs	r7, #6
 1136              	.LBE123:
 1137              	.LBE139:
ARM GAS  C:\Users\upo\AppData\Local\Temp\ccJAZRXk.s 			page 55


 1138              	.LBB140:
 1139              	.LBB135:
 1140 0054 9946     		mov	r9, r3
 1141              	.LBE135:
 1142              	.LBE140:
 1143              	.LBB141:
 1144              	.LBB124:
 551:User/BME280/bme280.c ****             {
 1145              		.loc 1 551 16 view .LVU375
 1146 0056 0028     		cmp	r0, #0
 1147 0058 3ED1     		bne	.L99
 1148              	.LVL87:
 1149              	.L81:
 551:User/BME280/bme280.c ****             {
 1150              		.loc 1 551 16 view .LVU376
 1151              	.LBE124:
 1152              	.LBE141:
 724:User/BME280/bme280.c ****             {
 1153              		.loc 1 724 13 is_stmt 1 discriminator 3 view .LVU377
 727:User/BME280/bme280.c ****                 rslt = bme280_get_regs(BME280_STATUS_REG_ADDR, &status_reg, 1, dev);
 1154              		.loc 1 727 17 discriminator 3 view .LVU378
 1155 005a 6369     		ldr	r3, [r4, #20]
 1156 005c 0220     		movs	r0, #2
 1157 005e 6168     		ldr	r1, [r4, #4]
 1158 0060 9847     		blx	r3
 1159              	.LVL88:
 728:User/BME280/bme280.c **** 
 1160              		.loc 1 728 17 discriminator 3 view .LVU379
 1161              	.LBB142:
 1162              	.LBI129:
 462:User/BME280/bme280.c **** {
 1163              		.loc 1 462 8 discriminator 3 view .LVU380
 1164              	.LBB136:
 464:User/BME280/bme280.c **** 
 1165              		.loc 1 464 5 discriminator 3 view .LVU381
 467:User/BME280/bme280.c **** 
 1166              		.loc 1 467 5 discriminator 3 view .LVU382
 1167              	.LBB131:
 1168              	.LBI131:
1581:User/BME280/bme280.c **** {
 1169              		.loc 1 1581 15 discriminator 3 view .LVU383
 1170              	.LBB132:
1583:User/BME280/bme280.c **** 
 1171              		.loc 1 1583 5 discriminator 3 view .LVU384
1585:User/BME280/bme280.c ****     {
 1172              		.loc 1 1585 5 discriminator 3 view .LVU385
1585:User/BME280/bme280.c ****     {
 1173              		.loc 1 1585 30 is_stmt 0 discriminator 3 view .LVU386
 1174 0062 E368     		ldr	r3, [r4, #12]
 1175 0064 9846     		mov	r8, r3
1585:User/BME280/bme280.c ****     {
 1176              		.loc 1 1585 23 discriminator 3 view .LVU387
 1177 0066 002B     		cmp	r3, #0
 1178 0068 30D0     		beq	.L89
1585:User/BME280/bme280.c ****     {
 1179              		.loc 1 1585 46 view .LVU388
 1180 006a 2369     		ldr	r3, [r4, #16]
ARM GAS  C:\Users\upo\AppData\Local\Temp\ccJAZRXk.s 			page 56


 1181 006c 002B     		cmp	r3, #0
 1182 006e 2DD0     		beq	.L89
1585:User/BME280/bme280.c ****     {
 1183              		.loc 1 1585 70 view .LVU389
 1184 0070 6369     		ldr	r3, [r4, #20]
 1185 0072 5A42     		rsbs	r2, r3, #0
 1186 0074 5341     		adcs	r3, r3, r2
 1187 0076 5B42     		rsbs	r3, r3, #0
 1188              	.L77:
 1189              	.LVL89:
 1190              		.loc 1 1596 5 is_stmt 1 view .LVU390
 1191              		.loc 1 1596 5 is_stmt 0 view .LVU391
 1192              	.LBE132:
 1193              	.LBE131:
 467:User/BME280/bme280.c **** 
 1194              		.loc 1 467 10 view .LVU392
 1195 0078 2B70     		strb	r3, [r5]
 470:User/BME280/bme280.c ****     {
 1196              		.loc 1 470 5 is_stmt 1 view .LVU393
 470:User/BME280/bme280.c ****     {
 1197              		.loc 1 470 15 is_stmt 0 view .LVU394
 1198 007a 2B78     		ldrb	r3, [r5]
 470:User/BME280/bme280.c ****     {
 1199              		.loc 1 470 8 view .LVU395
 1200 007c 002B     		cmp	r3, #0
 1201 007e 1DD1     		bne	.L78
 473:User/BME280/bme280.c ****         {
 1202              		.loc 1 473 9 is_stmt 1 view .LVU396
 482:User/BME280/bme280.c **** 
 1203              		.loc 1 482 9 view .LVU397
 482:User/BME280/bme280.c **** 
 1204              		.loc 1 482 26 is_stmt 0 view .LVU398
 1205 0080 6368     		ldr	r3, [r4, #4]
 1206 0082 0122     		movs	r2, #1
 1207 0084 3100     		movs	r1, r6
 1208 0086 F320     		movs	r0, #243
 1209 0088 C047     		blx	r8
 1210              	.LVL90:
 482:User/BME280/bme280.c **** 
 1211              		.loc 1 482 24 view .LVU399
 1212 008a 4B46     		mov	r3, r9
 1213 008c E054     		strb	r0, [r4, r3]
 485:User/BME280/bme280.c ****         {
 1214              		.loc 1 485 9 is_stmt 1 view .LVU400
 485:User/BME280/bme280.c ****         {
 1215              		.loc 1 485 12 is_stmt 0 view .LVU401
 1216 008e 0028     		cmp	r0, #0
 1217 0090 01D0     		beq	.L79
 487:User/BME280/bme280.c ****         }
 1218              		.loc 1 487 13 is_stmt 1 view .LVU402
 487:User/BME280/bme280.c ****         }
 1219              		.loc 1 487 18 is_stmt 0 view .LVU403
 1220 0092 FC23     		movs	r3, #252
 1221 0094 2B70     		strb	r3, [r5]
 1222              	.L79:
 495:User/BME280/bme280.c **** }
 1223              		.loc 1 495 5 is_stmt 1 view .LVU404
ARM GAS  C:\Users\upo\AppData\Local\Temp\ccJAZRXk.s 			page 57


 1224 0096 0123     		movs	r3, #1
 495:User/BME280/bme280.c **** }
 1225              		.loc 1 495 12 is_stmt 0 view .LVU405
 1226 0098 2A78     		ldrb	r2, [r5]
 1227 009a 3178     		ldrb	r1, [r6]
 1228 009c 50B2     		sxtb	r0, r2
 1229              	.LVL91:
 495:User/BME280/bme280.c **** }
 1230              		.loc 1 495 12 view .LVU406
 1231              	.LBE136:
 1232              	.LBE142:
 730:User/BME280/bme280.c **** 
 1233              		.loc 1 730 57 is_stmt 1 view .LVU407
 1234 009e 0B40     		ands	r3, r1
 1235 00a0 002A     		cmp	r2, #0
 1236 00a2 0ED1     		bne	.L80
 730:User/BME280/bme280.c **** 
 1237              		.loc 1 730 42 is_stmt 0 discriminator 1 view .LVU408
 1238 00a4 013F     		subs	r7, r7, #1
 1239 00a6 FFB2     		uxtb	r7, r7
 1240 00a8 002F     		cmp	r7, #0
 1241 00aa 0AD0     		beq	.L80
 730:User/BME280/bme280.c **** 
 1242              		.loc 1 730 57 discriminator 2 view .LVU409
 1243 00ac 002B     		cmp	r3, #0
 1244 00ae D4D1     		bne	.L81
 1245              	.LVL92:
 1246              	.L74:
 739:User/BME280/bme280.c **** }
 1247              		.loc 1 739 5 is_stmt 1 view .LVU410
 740:User/BME280/bme280.c **** 
 1248              		.loc 1 740 1 is_stmt 0 view .LVU411
 1249 00b0 06B0     		add	sp, sp, #24
 1250              		@ sp needed
 1251              	.LVL93:
 740:User/BME280/bme280.c **** 
 1252              		.loc 1 740 1 view .LVU412
 1253 00b2 E0BC     		pop	{r5, r6, r7}
 1254 00b4 BA46     		mov	r10, r7
 1255 00b6 B146     		mov	r9, r6
 1256 00b8 A846     		mov	r8, r5
 1257 00ba F0BD     		pop	{r4, r5, r6, r7, pc}
 1258              	.LVL94:
 1259              	.L78:
 1260              	.LBB143:
 1261              	.LBB137:
 492:User/BME280/bme280.c ****     }
 1262              		.loc 1 492 9 is_stmt 1 view .LVU413
 492:User/BME280/bme280.c ****     }
 1263              		.loc 1 492 14 is_stmt 0 view .LVU414
 1264 00bc 5346     		mov	r3, r10
 1265 00be 2B70     		strb	r3, [r5]
 1266 00c0 E9E7     		b	.L79
 1267              	.LVL95:
 1268              	.L80:
 492:User/BME280/bme280.c ****     }
 1269              		.loc 1 492 14 view .LVU415
ARM GAS  C:\Users\upo\AppData\Local\Temp\ccJAZRXk.s 			page 58


 1270              	.LBE137:
 1271              	.LBE143:
 732:User/BME280/bme280.c ****             {
 1272              		.loc 1 732 13 is_stmt 1 view .LVU416
 732:User/BME280/bme280.c ****             {
 1273              		.loc 1 732 16 is_stmt 0 view .LVU417
 1274 00c2 002B     		cmp	r3, #0
 1275 00c4 F4D0     		beq	.L74
 734:User/BME280/bme280.c ****             }
 1276              		.loc 1 734 22 view .LVU418
 1277 00c6 0620     		movs	r0, #6
 1278              	.LVL96:
 734:User/BME280/bme280.c ****             }
 1279              		.loc 1 734 22 view .LVU419
 1280 00c8 4042     		rsbs	r0, r0, #0
 1281 00ca F1E7     		b	.L74
 1282              	.LVL97:
 1283              	.L89:
 1284              	.LBB144:
 1285              	.LBB138:
 1286              	.LBB134:
 1287              	.LBB133:
1588:User/BME280/bme280.c ****     }
 1288              		.loc 1 1588 14 view .LVU420
 1289 00cc 0123     		movs	r3, #1
 1290 00ce 5B42     		rsbs	r3, r3, #0
 1291 00d0 D2E7     		b	.L77
 1292              	.LVL98:
 1293              	.L86:
1588:User/BME280/bme280.c ****     }
 1294              		.loc 1 1588 14 view .LVU421
 1295              	.LBE133:
 1296              	.LBE134:
 1297              	.LBE138:
 1298              	.LBE144:
 1299              	.LBB145:
 1300              	.LBB118:
 1301 00d2 0120     		movs	r0, #1
 1302              	.LVL99:
1588:User/BME280/bme280.c ****     }
 1303              		.loc 1 1588 14 view .LVU422
 1304 00d4 4042     		rsbs	r0, r0, #0
 1305 00d6 EBE7     		b	.L74
 1306              	.LVL100:
 1307              	.L99:
1588:User/BME280/bme280.c ****     }
 1308              		.loc 1 1588 14 view .LVU423
 1309              	.LBE118:
 1310              	.LBE145:
 1311              	.LBB146:
 1312              	.LBB125:
 553:User/BME280/bme280.c ****             }
 1313              		.loc 1 553 17 is_stmt 1 view .LVU424
 566:User/BME280/bme280.c **** }
 1314              		.loc 1 566 5 view .LVU425
 566:User/BME280/bme280.c **** }
 1315              		.loc 1 566 5 is_stmt 0 view .LVU426
ARM GAS  C:\Users\upo\AppData\Local\Temp\ccJAZRXk.s 			page 59


 1316              	.LBE125:
 1317              	.LBE146:
 721:User/BME280/bme280.c ****         {
 1318              		.loc 1 721 9 is_stmt 1 view .LVU427
 1319              	.LBB147:
 1320              	.LBB126:
 553:User/BME280/bme280.c ****             }
 1321              		.loc 1 553 22 is_stmt 0 view .LVU428
 1322 00d8 0420     		movs	r0, #4
 1323 00da 4042     		rsbs	r0, r0, #0
 1324 00dc E8E7     		b	.L74
 1325              	.LBE126:
 1326              	.LBE147:
 1327              		.cfi_endproc
 1328              	.LFE1432:
 1330 00de C046     		.section	.rodata.bme280_init.str1.4,"aMS",%progbits,1
 1331              		.align	2
 1332              	.LC0:
 1333 0000 626D6532 		.ascii	"bme280 chip_id = %x\012\000"
 1333      38302063 
 1333      6869705F 
 1333      6964203D 
 1333      2025780A 
 1334              		.section	.text.bme280_init,"ax",%progbits
 1335              		.align	1
 1336              		.p2align 2,,3
 1337              		.global	bme280_init
 1338              		.syntax unified
 1339              		.code	16
 1340              		.thumb_func
 1342              	bme280_init:
 1343              	.LVL101:
 1344              	.LFB1425:
 409:User/BME280/bme280.c ****     int8_t rslt;
 1345              		.loc 1 409 1 is_stmt 1 view -0
 1346              		.cfi_startproc
 1347              		@ args = 0, pretend = 0, frame = 32
 1348              		@ frame_needed = 0, uses_anonymous_args = 0
 410:User/BME280/bme280.c **** 
 1349              		.loc 1 410 5 view .LVU430
 413:User/BME280/bme280.c ****     uint8_t chip_id = 0;
 1350              		.loc 1 413 5 view .LVU431
 414:User/BME280/bme280.c **** 
 1351              		.loc 1 414 5 view .LVU432
 409:User/BME280/bme280.c ****     int8_t rslt;
 1352              		.loc 1 409 1 is_stmt 0 view .LVU433
 1353 0000 F0B5     		push	{r4, r5, r6, r7, lr}
 1354              	.LCFI11:
 1355              		.cfi_def_cfa_offset 20
 1356              		.cfi_offset 4, -20
 1357              		.cfi_offset 5, -16
 1358              		.cfi_offset 6, -12
 1359              		.cfi_offset 7, -8
 1360              		.cfi_offset 14, -4
 1361 0002 DE46     		mov	lr, fp
 1362 0004 5746     		mov	r7, r10
 1363 0006 4E46     		mov	r6, r9
ARM GAS  C:\Users\upo\AppData\Local\Temp\ccJAZRXk.s 			page 60


 1364 0008 4546     		mov	r5, r8
 1365 000a E0B5     		push	{r5, r6, r7, lr}
 1366              	.LCFI12:
 1367              		.cfi_def_cfa_offset 36
 1368              		.cfi_offset 8, -36
 1369              		.cfi_offset 9, -32
 1370              		.cfi_offset 10, -28
 1371              		.cfi_offset 11, -24
 1372 000c 89B0     		sub	sp, sp, #36
 1373              	.LCFI13:
 1374              		.cfi_def_cfa_offset 72
 414:User/BME280/bme280.c **** 
 1375              		.loc 1 414 13 view .LVU434
 1376 000e 0023     		movs	r3, #0
 1377 0010 6A46     		mov	r2, sp
 409:User/BME280/bme280.c ****     int8_t rslt;
 1378              		.loc 1 409 1 view .LVU435
 1379 0012 041E     		subs	r4, r0, #0
 414:User/BME280/bme280.c **** 
 1380              		.loc 1 414 13 view .LVU436
 1381 0014 1370     		strb	r3, [r2]
 417:User/BME280/bme280.c **** 
 1382              		.loc 1 417 5 is_stmt 1 view .LVU437
 1383              	.LVL102:
 1384              	.LBB168:
 1385              	.LBI168:
1581:User/BME280/bme280.c **** {
 1386              		.loc 1 1581 15 view .LVU438
 1387              	.LBB169:
1583:User/BME280/bme280.c **** 
 1388              		.loc 1 1583 5 view .LVU439
1585:User/BME280/bme280.c ****     {
 1389              		.loc 1 1585 5 view .LVU440
1585:User/BME280/bme280.c ****     {
 1390              		.loc 1 1585 8 is_stmt 0 view .LVU441
 1391 0016 00D1     		bne	.LCB1363
 1392 0018 C6E0     		b	.L119	@long jump
 1393              	.LCB1363:
1585:User/BME280/bme280.c ****     {
 1394              		.loc 1 1585 30 view .LVU442
 1395 001a C768     		ldr	r7, [r0, #12]
1585:User/BME280/bme280.c ****     {
 1396              		.loc 1 1585 23 view .LVU443
 1397 001c 002F     		cmp	r7, #0
 1398 001e 00D1     		bne	.LCB1366
 1399 0020 C2E0     		b	.L119	@long jump
 1400              	.LCB1366:
1585:User/BME280/bme280.c ****     {
 1401              		.loc 1 1585 46 view .LVU444
 1402 0022 0369     		ldr	r3, [r0, #16]
 1403 0024 002B     		cmp	r3, #0
 1404 0026 00D1     		bne	.LCB1369
 1405 0028 BEE0     		b	.L119	@long jump
 1406              	.LCB1369:
1585:User/BME280/bme280.c ****     {
 1407              		.loc 1 1585 70 view .LVU445
 1408 002a 4369     		ldr	r3, [r0, #20]
ARM GAS  C:\Users\upo\AppData\Local\Temp\ccJAZRXk.s 			page 61


 1409 002c 002B     		cmp	r3, #0
 1410 002e 00D1     		bne	.LCB1372
 1411 0030 BAE0     		b	.L119	@long jump
 1412              	.LCB1372:
 1413 0032 654B     		ldr	r3, .L138
 1414 0034 0525     		movs	r5, #5
 1415 0036 9846     		mov	r8, r3
 1416              	.LBE169:
 1417              	.LBE168:
 1418              	.LBB171:
 1419              	.LBB172:
 492:User/BME280/bme280.c ****     }
 1420              		.loc 1 492 14 view .LVU446
 1421 0038 FF23     		movs	r3, #255
 1422 003a 9A46     		mov	r10, r3
 482:User/BME280/bme280.c **** 
 1423              		.loc 1 482 24 view .LVU447
 1424 003c BA3B     		subs	r3, r3, #186
 1425 003e 9946     		mov	r9, r3
 487:User/BME280/bme280.c ****         }
 1426              		.loc 1 487 18 view .LVU448
 1427 0040 B733     		adds	r3, r3, #183
 1428 0042 9B46     		mov	fp, r3
 1429 0044 561C     		adds	r6, r2, #1
 1430 0046 20E0     		b	.L115
 1431              	.LVL103:
 1432              	.L137:
 473:User/BME280/bme280.c ****         {
 1433              		.loc 1 473 9 is_stmt 1 view .LVU449
 482:User/BME280/bme280.c **** 
 1434              		.loc 1 482 9 view .LVU450
 482:User/BME280/bme280.c **** 
 1435              		.loc 1 482 26 is_stmt 0 view .LVU451
 1436 0048 6368     		ldr	r3, [r4, #4]
 1437 004a 0122     		movs	r2, #1
 1438 004c 6946     		mov	r1, sp
 1439 004e D020     		movs	r0, #208
 1440 0050 B847     		blx	r7
 1441              	.LVL104:
 482:User/BME280/bme280.c **** 
 1442              		.loc 1 482 24 view .LVU452
 1443 0052 4B46     		mov	r3, r9
 1444 0054 E054     		strb	r0, [r4, r3]
 485:User/BME280/bme280.c ****         {
 1445              		.loc 1 485 9 is_stmt 1 view .LVU453
 485:User/BME280/bme280.c ****         {
 1446              		.loc 1 485 12 is_stmt 0 view .LVU454
 1447 0056 0028     		cmp	r0, #0
 1448 0058 01D0     		beq	.L104
 487:User/BME280/bme280.c ****         }
 1449              		.loc 1 487 13 is_stmt 1 view .LVU455
 487:User/BME280/bme280.c ****         }
 1450              		.loc 1 487 18 is_stmt 0 view .LVU456
 1451 005a 5B46     		mov	r3, fp
 1452 005c 3370     		strb	r3, [r6]
 1453              	.L104:
 495:User/BME280/bme280.c **** }
ARM GAS  C:\Users\upo\AppData\Local\Temp\ccJAZRXk.s 			page 62


 1454              		.loc 1 495 5 is_stmt 1 view .LVU457
 1455              	.LBE172:
 1456              	.LBE171:
 426:User/BME280/bme280.c ****             /* Check for chip id validity */
 1457              		.loc 1 426 13 is_stmt 0 view .LVU458
 1458 005e 6B46     		mov	r3, sp
 1459              	.LBB184:
 1460              	.LBB179:
 495:User/BME280/bme280.c **** }
 1461              		.loc 1 495 12 view .LVU459
 1462 0060 3778     		ldrb	r7, [r6]
 1463              	.LBE179:
 1464              	.LBE184:
 426:User/BME280/bme280.c ****             /* Check for chip id validity */
 1465              		.loc 1 426 13 view .LVU460
 1466 0062 4046     		mov	r0, r8
 1467              	.LBB185:
 1468              	.LBB180:
 495:User/BME280/bme280.c **** }
 1469              		.loc 1 495 12 view .LVU461
 1470 0064 7FB2     		sxtb	r7, r7
 1471              	.LVL105:
 495:User/BME280/bme280.c **** }
 1472              		.loc 1 495 12 view .LVU462
 1473              	.LBE180:
 1474              	.LBE185:
 426:User/BME280/bme280.c ****             /* Check for chip id validity */
 1475              		.loc 1 426 13 is_stmt 1 view .LVU463
 1476 0066 1978     		ldrb	r1, [r3]
 1477 0068 FFF7FEFF 		bl	printf_
 1478              	.LVL106:
 428:User/BME280/bme280.c ****             {
 1479              		.loc 1 428 13 view .LVU464
 428:User/BME280/bme280.c ****             {
 1480              		.loc 1 428 16 is_stmt 0 view .LVU465
 1481 006c 002F     		cmp	r7, #0
 1482 006e 03D1     		bne	.L105
 428:User/BME280/bme280.c ****             {
 1483              		.loc 1 428 37 discriminator 1 view .LVU466
 1484 0070 6B46     		mov	r3, sp
 1485 0072 1B78     		ldrb	r3, [r3]
 1486 0074 602B     		cmp	r3, #96
 1487 0076 23D0     		beq	.L136
 1488              	.L105:
 445:User/BME280/bme280.c ****             --try_count;
 1489              		.loc 1 445 13 is_stmt 1 view .LVU467
 422:User/BME280/bme280.c ****         {
 1490              		.loc 1 422 16 is_stmt 0 view .LVU468
 1491 0078 013D     		subs	r5, r5, #1
 445:User/BME280/bme280.c ****             --try_count;
 1492              		.loc 1 445 13 view .LVU469
 1493 007a 0120     		movs	r0, #1
 1494 007c 6168     		ldr	r1, [r4, #4]
 1495 007e 6369     		ldr	r3, [r4, #20]
 422:User/BME280/bme280.c ****         {
 1496              		.loc 1 422 16 view .LVU470
 1497 0080 EDB2     		uxtb	r5, r5
ARM GAS  C:\Users\upo\AppData\Local\Temp\ccJAZRXk.s 			page 63


 445:User/BME280/bme280.c ****             --try_count;
 1498              		.loc 1 445 13 view .LVU471
 1499 0082 9847     		blx	r3
 1500              	.LVL107:
 446:User/BME280/bme280.c ****         }
 1501              		.loc 1 446 13 is_stmt 1 view .LVU472
 422:User/BME280/bme280.c ****         {
 1502              		.loc 1 422 16 view .LVU473
 1503 0084 002D     		cmp	r5, #0
 1504 0086 12D0     		beq	.L126
 1505              	.LBB186:
 1506              	.LBB181:
 1507              	.LBB173:
 1508              	.LBB174:
1585:User/BME280/bme280.c ****     {
 1509              		.loc 1 1585 30 is_stmt 0 view .LVU474
 1510 0088 E768     		ldr	r7, [r4, #12]
 1511              	.L115:
1585:User/BME280/bme280.c ****     {
 1512              		.loc 1 1585 30 view .LVU475
 1513              	.LBE174:
 1514              	.LBE173:
 1515              	.LBE181:
 1516              	.LBE186:
 425:User/BME280/bme280.c ****             printf("bme280 chip_id = %x\n", chip_id);
 1517              		.loc 1 425 13 is_stmt 1 view .LVU476
 1518              	.LVL108:
 1519              	.LBB187:
 1520              	.LBI171:
 462:User/BME280/bme280.c **** {
 1521              		.loc 1 462 8 view .LVU477
 1522              	.LBB182:
 464:User/BME280/bme280.c **** 
 1523              		.loc 1 464 5 view .LVU478
 467:User/BME280/bme280.c **** 
 1524              		.loc 1 467 5 view .LVU479
 1525              	.LBB177:
 1526              	.LBI173:
1581:User/BME280/bme280.c **** {
 1527              		.loc 1 1581 15 view .LVU480
 1528              	.LBB175:
1583:User/BME280/bme280.c **** 
 1529              		.loc 1 1583 5 view .LVU481
1585:User/BME280/bme280.c ****     {
 1530              		.loc 1 1585 5 view .LVU482
1585:User/BME280/bme280.c ****     {
 1531              		.loc 1 1585 23 is_stmt 0 view .LVU483
 1532 008a 002F     		cmp	r7, #0
 1533 008c 00D1     		bne	.LCB1490
 1534 008e 88E0     		b	.L121	@long jump
 1535              	.LCB1490:
1585:User/BME280/bme280.c ****     {
 1536              		.loc 1 1585 46 view .LVU484
 1537 0090 2369     		ldr	r3, [r4, #16]
 1538 0092 002B     		cmp	r3, #0
 1539 0094 00D1     		bne	.LCB1498
 1540 0096 84E0     		b	.L121	@long jump
ARM GAS  C:\Users\upo\AppData\Local\Temp\ccJAZRXk.s 			page 64


 1541              	.LCB1498:
1585:User/BME280/bme280.c ****     {
 1542              		.loc 1 1585 70 view .LVU485
 1543 0098 6369     		ldr	r3, [r4, #20]
 1544 009a 5A42     		rsbs	r2, r3, #0
 1545 009c 5341     		adcs	r3, r3, r2
 1546 009e 5B42     		rsbs	r3, r3, #0
 1547              	.L102:
 1548              	.LVL109:
 1549              		.loc 1 1596 5 is_stmt 1 view .LVU486
 1550              		.loc 1 1596 5 is_stmt 0 view .LVU487
 1551              	.LBE175:
 1552              	.LBE177:
 467:User/BME280/bme280.c **** 
 1553              		.loc 1 467 10 view .LVU488
 1554 00a0 3370     		strb	r3, [r6]
 470:User/BME280/bme280.c ****     {
 1555              		.loc 1 470 5 is_stmt 1 view .LVU489
 470:User/BME280/bme280.c ****     {
 1556              		.loc 1 470 15 is_stmt 0 view .LVU490
 1557 00a2 3378     		ldrb	r3, [r6]
 470:User/BME280/bme280.c ****     {
 1558              		.loc 1 470 8 view .LVU491
 1559 00a4 002B     		cmp	r3, #0
 1560 00a6 CFD0     		beq	.L137
 492:User/BME280/bme280.c ****     }
 1561              		.loc 1 492 9 is_stmt 1 view .LVU492
 492:User/BME280/bme280.c ****     }
 1562              		.loc 1 492 14 is_stmt 0 view .LVU493
 1563 00a8 5346     		mov	r3, r10
 1564 00aa 3370     		strb	r3, [r6]
 1565 00ac D7E7     		b	.L104
 1566              	.LVL110:
 1567              	.L126:
 492:User/BME280/bme280.c ****     }
 1568              		.loc 1 492 14 view .LVU494
 1569              	.LBE182:
 1570              	.LBE187:
 452:User/BME280/bme280.c ****         }
 1571              		.loc 1 452 18 view .LVU495
 1572 00ae 0220     		movs	r0, #2
 1573 00b0 4042     		rsbs	r0, r0, #0
 1574              	.L101:
 1575              	.LVL111:
 456:User/BME280/bme280.c **** }
 1576              		.loc 1 456 5 is_stmt 1 view .LVU496
 457:User/BME280/bme280.c **** 
 1577              		.loc 1 457 1 is_stmt 0 view .LVU497
 1578 00b2 09B0     		add	sp, sp, #36
 1579              		@ sp needed
 1580              	.LVL112:
 457:User/BME280/bme280.c **** 
 1581              		.loc 1 457 1 view .LVU498
 1582 00b4 F0BC     		pop	{r4, r5, r6, r7}
 1583 00b6 BB46     		mov	fp, r7
 1584 00b8 B246     		mov	r10, r6
 1585 00ba A946     		mov	r9, r5
ARM GAS  C:\Users\upo\AppData\Local\Temp\ccJAZRXk.s 			page 65


 1586 00bc A046     		mov	r8, r4
 1587 00be F0BD     		pop	{r4, r5, r6, r7, pc}
 1588              	.LVL113:
 1589              	.L136:
 430:User/BME280/bme280.c **** 
 1590              		.loc 1 430 17 is_stmt 1 view .LVU499
 433:User/BME280/bme280.c **** 
 1591              		.loc 1 433 24 is_stmt 0 view .LVU500
 1592 00c0 2000     		movs	r0, r4
 430:User/BME280/bme280.c **** 
 1593              		.loc 1 430 30 view .LVU501
 1594 00c2 2370     		strb	r3, [r4]
 433:User/BME280/bme280.c **** 
 1595              		.loc 1 433 17 is_stmt 1 view .LVU502
 433:User/BME280/bme280.c **** 
 1596              		.loc 1 433 24 is_stmt 0 view .LVU503
 1597 00c4 FFF7FEFF 		bl	bme280_soft_reset
 1598              	.LVL114:
 435:User/BME280/bme280.c ****                 {
 1599              		.loc 1 435 17 is_stmt 1 view .LVU504
 435:User/BME280/bme280.c ****                 {
 1600              		.loc 1 435 20 is_stmt 0 view .LVU505
 1601 00c8 0028     		cmp	r0, #0
 1602 00ca F2D1     		bne	.L101
 438:User/BME280/bme280.c ****                 }
 1603              		.loc 1 438 21 is_stmt 1 view .LVU506
 1604              	.LVL115:
 1605              	.LBB188:
 1606              	.LBI188:
1460:User/BME280/bme280.c **** {
 1607              		.loc 1 1460 15 view .LVU507
 1608              	.LBB189:
1462:User/BME280/bme280.c ****     uint8_t reg_addr = BME280_TEMP_PRESS_CALIB_DATA_ADDR;
 1609              		.loc 1 1462 5 view .LVU508
1463:User/BME280/bme280.c **** 
 1610              		.loc 1 1463 5 view .LVU509
1466:User/BME280/bme280.c **** 
 1611              		.loc 1 1466 5 view .LVU510
1466:User/BME280/bme280.c **** 
 1612              		.loc 1 1466 13 is_stmt 0 view .LVU511
 1613 00cc 0190     		str	r0, [sp, #4]
 1614 00ce 1622     		movs	r2, #22
 1615 00d0 0021     		movs	r1, #0
 1616 00d2 02A8     		add	r0, sp, #8
 1617              	.LVL116:
1466:User/BME280/bme280.c **** 
 1618              		.loc 1 1466 13 view .LVU512
 1619 00d4 FFF7FEFF 		bl	memset
 1620              	.LVL117:
1469:User/BME280/bme280.c **** 
 1621              		.loc 1 1469 5 is_stmt 1 view .LVU513
 1622              	.LBB190:
 1623              	.LBI190:
 462:User/BME280/bme280.c **** {
 1624              		.loc 1 462 8 view .LVU514
 1625              	.LBB191:
 464:User/BME280/bme280.c **** 
ARM GAS  C:\Users\upo\AppData\Local\Temp\ccJAZRXk.s 			page 66


 1626              		.loc 1 464 5 view .LVU515
 467:User/BME280/bme280.c **** 
 1627              		.loc 1 467 5 view .LVU516
 1628              	.LBB192:
 1629              	.LBI192:
1581:User/BME280/bme280.c **** {
 1630              		.loc 1 1581 15 view .LVU517
 1631              	.LBB193:
1583:User/BME280/bme280.c **** 
 1632              		.loc 1 1583 5 view .LVU518
1585:User/BME280/bme280.c ****     {
 1633              		.loc 1 1585 5 view .LVU519
1585:User/BME280/bme280.c ****     {
 1634              		.loc 1 1585 30 is_stmt 0 view .LVU520
 1635 00d8 E668     		ldr	r6, [r4, #12]
1585:User/BME280/bme280.c ****     {
 1636              		.loc 1 1585 23 view .LVU521
 1637 00da 002E     		cmp	r6, #0
 1638 00dc 6DD0     		beq	.L123
1585:User/BME280/bme280.c ****     {
 1639              		.loc 1 1585 46 view .LVU522
 1640 00de 2369     		ldr	r3, [r4, #16]
 1641 00e0 002B     		cmp	r3, #0
 1642 00e2 6AD0     		beq	.L123
1585:User/BME280/bme280.c ****     {
 1643              		.loc 1 1585 70 view .LVU523
 1644 00e4 6369     		ldr	r3, [r4, #20]
 1645 00e6 5A42     		rsbs	r2, r3, #0
 1646 00e8 5341     		adcs	r3, r3, r2
 1647 00ea 5B42     		rsbs	r3, r3, #0
 1648              	.L106:
 1649              	.LVL118:
 1650              		.loc 1 1596 5 is_stmt 1 view .LVU524
 1651              		.loc 1 1596 5 is_stmt 0 view .LVU525
 1652              	.LBE193:
 1653              	.LBE192:
 467:User/BME280/bme280.c **** 
 1654              		.loc 1 467 10 view .LVU526
 1655 00ec 6A46     		mov	r2, sp
 1656 00ee 9370     		strb	r3, [r2, #2]
 470:User/BME280/bme280.c ****     {
 1657              		.loc 1 470 5 is_stmt 1 view .LVU527
 470:User/BME280/bme280.c ****     {
 1658              		.loc 1 470 15 is_stmt 0 view .LVU528
 1659 00f0 9378     		ldrb	r3, [r2, #2]
 467:User/BME280/bme280.c **** 
 1660              		.loc 1 467 10 view .LVU529
 1661 00f2 951C     		adds	r5, r2, #2
 470:User/BME280/bme280.c ****     {
 1662              		.loc 1 470 8 view .LVU530
 1663 00f4 002B     		cmp	r3, #0
 1664 00f6 5AD1     		bne	.L107
 473:User/BME280/bme280.c ****         {
 1665              		.loc 1 473 9 is_stmt 1 view .LVU531
 482:User/BME280/bme280.c **** 
 1666              		.loc 1 482 9 view .LVU532
 482:User/BME280/bme280.c **** 
ARM GAS  C:\Users\upo\AppData\Local\Temp\ccJAZRXk.s 			page 67


 1667              		.loc 1 482 26 is_stmt 0 view .LVU533
 1668 00f8 6368     		ldr	r3, [r4, #4]
 1669 00fa 1A22     		movs	r2, #26
 1670 00fc 8820     		movs	r0, #136
 1671 00fe 01A9     		add	r1, sp, #4
 1672              	.LVL119:
 482:User/BME280/bme280.c **** 
 1673              		.loc 1 482 26 view .LVU534
 1674 0100 B047     		blx	r6
 1675              	.LVL120:
 482:User/BME280/bme280.c **** 
 1676              		.loc 1 482 24 view .LVU535
 1677 0102 4523     		movs	r3, #69
 1678 0104 E054     		strb	r0, [r4, r3]
 485:User/BME280/bme280.c ****         {
 1679              		.loc 1 485 9 is_stmt 1 view .LVU536
 485:User/BME280/bme280.c ****         {
 1680              		.loc 1 485 12 is_stmt 0 view .LVU537
 1681 0106 0028     		cmp	r0, #0
 1682 0108 01D0     		beq	.L108
 487:User/BME280/bme280.c ****         }
 1683              		.loc 1 487 13 is_stmt 1 view .LVU538
 487:User/BME280/bme280.c ****         }
 1684              		.loc 1 487 18 is_stmt 0 view .LVU539
 1685 010a B733     		adds	r3, r3, #183
 1686 010c 2B70     		strb	r3, [r5]
 1687              	.L108:
 495:User/BME280/bme280.c **** }
 1688              		.loc 1 495 5 is_stmt 1 view .LVU540
 495:User/BME280/bme280.c **** }
 1689              		.loc 1 495 12 is_stmt 0 view .LVU541
 1690 010e 2B78     		ldrb	r3, [r5]
 1691 0110 58B2     		sxtb	r0, r3
 1692              	.LVL121:
 495:User/BME280/bme280.c **** }
 1693              		.loc 1 495 12 view .LVU542
 1694              	.LBE191:
 1695              	.LBE190:
1471:User/BME280/bme280.c ****     {
 1696              		.loc 1 1471 5 is_stmt 1 view .LVU543
1471:User/BME280/bme280.c ****     {
 1697              		.loc 1 1471 8 is_stmt 0 view .LVU544
 1698 0112 002B     		cmp	r3, #0
 1699 0114 CDD1     		bne	.L101
1476:User/BME280/bme280.c ****         reg_addr = BME280_HUMIDITY_CALIB_DATA_ADDR;
 1700              		.loc 1 1476 9 is_stmt 1 view .LVU545
 1701              	.LVL122:
 1702              	.LBB198:
 1703              	.LBI198:
1513:User/BME280/bme280.c **** {
 1704              		.loc 1 1513 13 view .LVU546
 1705              	.LBB199:
1515:User/BME280/bme280.c **** 
 1706              		.loc 1 1515 5 view .LVU547
1517:User/BME280/bme280.c ****     calib_data->dig_t2 = (int16_t)BME280_CONCAT_BYTES(reg_data[3], reg_data[2]);
 1707              		.loc 1 1517 5 view .LVU548
1518:User/BME280/bme280.c ****     calib_data->dig_t3 = (int16_t)BME280_CONCAT_BYTES(reg_data[5], reg_data[4]);
ARM GAS  C:\Users\upo\AppData\Local\Temp\ccJAZRXk.s 			page 68


 1708              		.loc 1 1518 5 view .LVU549
1517:User/BME280/bme280.c ****     calib_data->dig_t2 = (int16_t)BME280_CONCAT_BYTES(reg_data[3], reg_data[2]);
 1709              		.loc 1 1517 24 is_stmt 0 view .LVU550
 1710 0116 019B     		ldr	r3, [sp, #4]
1521:User/BME280/bme280.c ****     calib_data->dig_p3 = (int16_t)BME280_CONCAT_BYTES(reg_data[11], reg_data[10]);
 1711              		.loc 1 1521 26 view .LVU551
 1712 0118 059A     		ldr	r2, [sp, #20]
1517:User/BME280/bme280.c ****     calib_data->dig_t2 = (int16_t)BME280_CONCAT_BYTES(reg_data[3], reg_data[2]);
 1713              		.loc 1 1517 24 view .LVU552
 1714 011a A361     		str	r3, [r4, #24]
1519:User/BME280/bme280.c ****     calib_data->dig_p1 = BME280_CONCAT_BYTES(reg_data[7], reg_data[6]);
 1715              		.loc 1 1519 5 is_stmt 1 view .LVU553
1520:User/BME280/bme280.c ****     calib_data->dig_p2 = (int16_t)BME280_CONCAT_BYTES(reg_data[9], reg_data[8]);
 1716              		.loc 1 1520 5 view .LVU554
1519:User/BME280/bme280.c ****     calib_data->dig_p1 = BME280_CONCAT_BYTES(reg_data[7], reg_data[6]);
 1717              		.loc 1 1519 24 is_stmt 0 view .LVU555
 1718 011c 029B     		ldr	r3, [sp, #8]
1529:User/BME280/bme280.c **** }
 1719              		.loc 1 1529 34 view .LVU556
 1720 011e 01AD     		add	r5, sp, #4
 1721              	.LVL123:
1519:User/BME280/bme280.c ****     calib_data->dig_p1 = BME280_CONCAT_BYTES(reg_data[7], reg_data[6]);
 1722              		.loc 1 1519 24 view .LVU557
 1723 0120 E361     		str	r3, [r4, #28]
1521:User/BME280/bme280.c ****     calib_data->dig_p3 = (int16_t)BME280_CONCAT_BYTES(reg_data[11], reg_data[10]);
 1724              		.loc 1 1521 5 is_stmt 1 view .LVU558
1521:User/BME280/bme280.c ****     calib_data->dig_p3 = (int16_t)BME280_CONCAT_BYTES(reg_data[11], reg_data[10]);
 1725              		.loc 1 1521 26 is_stmt 0 view .LVU559
 1726 0122 069B     		ldr	r3, [sp, #24]
1522:User/BME280/bme280.c ****     calib_data->dig_p4 = (int16_t)BME280_CONCAT_BYTES(reg_data[13], reg_data[12]);
 1727              		.loc 1 1522 5 is_stmt 1 view .LVU560
1523:User/BME280/bme280.c ****     calib_data->dig_p5 = (int16_t)BME280_CONCAT_BYTES(reg_data[15], reg_data[14]);
 1728              		.loc 1 1523 5 view .LVU561
1524:User/BME280/bme280.c ****     calib_data->dig_p6 = (int16_t)BME280_CONCAT_BYTES(reg_data[17], reg_data[16]);
 1729              		.loc 1 1524 5 view .LVU562
1525:User/BME280/bme280.c ****     calib_data->dig_p7 = (int16_t)BME280_CONCAT_BYTES(reg_data[19], reg_data[18]);
 1730              		.loc 1 1525 5 view .LVU563
1526:User/BME280/bme280.c ****     calib_data->dig_p8 = (int16_t)BME280_CONCAT_BYTES(reg_data[21], reg_data[20]);
 1731              		.loc 1 1526 5 view .LVU564
1527:User/BME280/bme280.c ****     calib_data->dig_p9 = (int16_t)BME280_CONCAT_BYTES(reg_data[23], reg_data[22]);
 1732              		.loc 1 1527 5 view .LVU565
1528:User/BME280/bme280.c ****     calib_data->dig_h1 = reg_data[25];
 1733              		.loc 1 1528 5 view .LVU566
1521:User/BME280/bme280.c ****     calib_data->dig_p3 = (int16_t)BME280_CONCAT_BYTES(reg_data[11], reg_data[10]);
 1734              		.loc 1 1521 24 is_stmt 0 view .LVU567
 1735 0124 A262     		str	r2, [r4, #40]
 1736 0126 E362     		str	r3, [r4, #44]
1529:User/BME280/bme280.c **** }
 1737              		.loc 1 1529 5 is_stmt 1 view .LVU568
1529:User/BME280/bme280.c **** }
 1738              		.loc 1 1529 24 is_stmt 0 view .LVU569
 1739 0128 3023     		movs	r3, #48
1521:User/BME280/bme280.c ****     calib_data->dig_p3 = (int16_t)BME280_CONCAT_BYTES(reg_data[11], reg_data[10]);
 1740              		.loc 1 1521 26 view .LVU570
 1741 012a 0499     		ldr	r1, [sp, #16]
1521:User/BME280/bme280.c ****     calib_data->dig_p3 = (int16_t)BME280_CONCAT_BYTES(reg_data[11], reg_data[10]);
 1742              		.loc 1 1521 24 view .LVU571
ARM GAS  C:\Users\upo\AppData\Local\Temp\ccJAZRXk.s 			page 69


 1743 012c 0398     		ldr	r0, [sp, #12]
 1744              	.LVL124:
1529:User/BME280/bme280.c **** }
 1745              		.loc 1 1529 24 view .LVU572
 1746 012e 6A7E     		ldrb	r2, [r5, #25]
1521:User/BME280/bme280.c ****     calib_data->dig_p3 = (int16_t)BME280_CONCAT_BYTES(reg_data[11], reg_data[10]);
 1747              		.loc 1 1521 24 view .LVU573
 1748 0130 2062     		str	r0, [r4, #32]
 1749 0132 6162     		str	r1, [r4, #36]
1529:User/BME280/bme280.c **** }
 1750              		.loc 1 1529 24 view .LVU574
 1751 0134 E254     		strb	r2, [r4, r3]
 1752              	.LVL125:
1529:User/BME280/bme280.c **** }
 1753              		.loc 1 1529 24 view .LVU575
 1754              	.LBE199:
 1755              	.LBE198:
1477:User/BME280/bme280.c **** 
 1756              		.loc 1 1477 9 is_stmt 1 view .LVU576
1480:User/BME280/bme280.c **** 
 1757              		.loc 1 1480 9 view .LVU577
 1758              	.LBB200:
 1759              	.LBI200:
 462:User/BME280/bme280.c **** {
 1760              		.loc 1 462 8 view .LVU578
 1761              	.LBB201:
 464:User/BME280/bme280.c **** 
 1762              		.loc 1 464 5 view .LVU579
 467:User/BME280/bme280.c **** 
 1763              		.loc 1 467 5 view .LVU580
 1764              	.LBB202:
 1765              	.LBI202:
1581:User/BME280/bme280.c **** {
 1766              		.loc 1 1581 15 view .LVU581
 1767              	.LBB203:
1583:User/BME280/bme280.c **** 
 1768              		.loc 1 1583 5 view .LVU582
1585:User/BME280/bme280.c ****     {
 1769              		.loc 1 1585 5 view .LVU583
1585:User/BME280/bme280.c ****     {
 1770              		.loc 1 1585 30 is_stmt 0 view .LVU584
 1771 0136 E768     		ldr	r7, [r4, #12]
1585:User/BME280/bme280.c ****     {
 1772              		.loc 1 1585 23 view .LVU585
 1773 0138 002F     		cmp	r7, #0
 1774 013a 41D0     		beq	.L125
1585:User/BME280/bme280.c ****     {
 1775              		.loc 1 1585 46 view .LVU586
 1776 013c 2369     		ldr	r3, [r4, #16]
 1777 013e 002B     		cmp	r3, #0
 1778 0140 3ED0     		beq	.L125
1585:User/BME280/bme280.c ****     {
 1779              		.loc 1 1585 70 view .LVU587
 1780 0142 6369     		ldr	r3, [r4, #20]
 1781 0144 5A42     		rsbs	r2, r3, #0
 1782 0146 5341     		adcs	r3, r3, r2
 1783 0148 5B42     		rsbs	r3, r3, #0
ARM GAS  C:\Users\upo\AppData\Local\Temp\ccJAZRXk.s 			page 70


 1784              	.L110:
 1785              	.LVL126:
 1786              		.loc 1 1596 5 is_stmt 1 view .LVU588
 1787              		.loc 1 1596 5 is_stmt 0 view .LVU589
 1788              	.LBE203:
 1789              	.LBE202:
 467:User/BME280/bme280.c **** 
 1790              		.loc 1 467 10 view .LVU590
 1791 014a 6A46     		mov	r2, sp
 1792 014c D370     		strb	r3, [r2, #3]
 470:User/BME280/bme280.c ****     {
 1793              		.loc 1 470 5 is_stmt 1 view .LVU591
 470:User/BME280/bme280.c ****     {
 1794              		.loc 1 470 15 is_stmt 0 view .LVU592
 1795 014e D378     		ldrb	r3, [r2, #3]
 467:User/BME280/bme280.c **** 
 1796              		.loc 1 467 10 view .LVU593
 1797 0150 D61C     		adds	r6, r2, #3
 470:User/BME280/bme280.c ****     {
 1798              		.loc 1 470 8 view .LVU594
 1799 0152 002B     		cmp	r3, #0
 1800 0154 2ED1     		bne	.L111
 473:User/BME280/bme280.c ****         {
 1801              		.loc 1 473 9 is_stmt 1 view .LVU595
 482:User/BME280/bme280.c **** 
 1802              		.loc 1 482 9 view .LVU596
 482:User/BME280/bme280.c **** 
 1803              		.loc 1 482 26 is_stmt 0 view .LVU597
 1804 0156 6368     		ldr	r3, [r4, #4]
 1805 0158 0722     		movs	r2, #7
 1806 015a 2900     		movs	r1, r5
 1807 015c E120     		movs	r0, #225
 1808 015e B847     		blx	r7
 1809              	.LVL127:
 482:User/BME280/bme280.c **** 
 1810              		.loc 1 482 24 view .LVU598
 1811 0160 4523     		movs	r3, #69
 1812 0162 E054     		strb	r0, [r4, r3]
 485:User/BME280/bme280.c ****         {
 1813              		.loc 1 485 9 is_stmt 1 view .LVU599
 485:User/BME280/bme280.c ****         {
 1814              		.loc 1 485 12 is_stmt 0 view .LVU600
 1815 0164 0028     		cmp	r0, #0
 1816 0166 01D0     		beq	.L112
 487:User/BME280/bme280.c ****         }
 1817              		.loc 1 487 13 is_stmt 1 view .LVU601
 487:User/BME280/bme280.c ****         }
 1818              		.loc 1 487 18 is_stmt 0 view .LVU602
 1819 0168 B733     		adds	r3, r3, #183
 1820 016a 3370     		strb	r3, [r6]
 1821              	.L112:
 495:User/BME280/bme280.c **** }
 1822              		.loc 1 495 5 is_stmt 1 view .LVU603
 495:User/BME280/bme280.c **** }
 1823              		.loc 1 495 12 is_stmt 0 view .LVU604
 1824 016c 3378     		ldrb	r3, [r6]
 1825 016e 58B2     		sxtb	r0, r3
ARM GAS  C:\Users\upo\AppData\Local\Temp\ccJAZRXk.s 			page 71


 1826              	.LVL128:
 495:User/BME280/bme280.c **** }
 1827              		.loc 1 495 12 view .LVU605
 1828              	.LBE201:
 1829              	.LBE200:
1482:User/BME280/bme280.c ****         {
 1830              		.loc 1 1482 9 is_stmt 1 view .LVU606
1482:User/BME280/bme280.c ****         {
 1831              		.loc 1 1482 12 is_stmt 0 view .LVU607
 1832 0170 002B     		cmp	r3, #0
 1833 0172 9ED1     		bne	.L101
1487:User/BME280/bme280.c ****         }
 1834              		.loc 1 1487 13 is_stmt 1 view .LVU608
 1835              	.LVL129:
 1836              	.LBB208:
 1837              	.LBI208:
1536:User/BME280/bme280.c **** {
 1838              		.loc 1 1536 13 view .LVU609
 1839              	.LBB209:
1538:User/BME280/bme280.c ****     int16_t dig_h4_lsb;
 1840              		.loc 1 1538 5 view .LVU610
1539:User/BME280/bme280.c ****     int16_t dig_h4_msb;
 1841              		.loc 1 1539 5 view .LVU611
1540:User/BME280/bme280.c ****     int16_t dig_h5_lsb;
 1842              		.loc 1 1540 5 view .LVU612
1541:User/BME280/bme280.c ****     int16_t dig_h5_msb;
 1843              		.loc 1 1541 5 view .LVU613
1542:User/BME280/bme280.c **** 
 1844              		.loc 1 1542 5 view .LVU614
1544:User/BME280/bme280.c ****     calib_data->dig_h3 = reg_data[2];
 1845              		.loc 1 1544 5 view .LVU615
1544:User/BME280/bme280.c ****     calib_data->dig_h3 = reg_data[2];
 1846              		.loc 1 1544 24 is_stmt 0 view .LVU616
 1847 0174 2B88     		ldrh	r3, [r5]
1545:User/BME280/bme280.c ****     dig_h4_msb = (int16_t)(int8_t)reg_data[3] * 16;
 1848              		.loc 1 1545 24 view .LVU617
 1849 0176 AA78     		ldrb	r2, [r5, #2]
1544:User/BME280/bme280.c ****     calib_data->dig_h3 = reg_data[2];
 1850              		.loc 1 1544 24 view .LVU618
 1851 0178 6386     		strh	r3, [r4, #50]
1545:User/BME280/bme280.c ****     dig_h4_msb = (int16_t)(int8_t)reg_data[3] * 16;
 1852              		.loc 1 1545 5 is_stmt 1 view .LVU619
1545:User/BME280/bme280.c ****     dig_h4_msb = (int16_t)(int8_t)reg_data[3] * 16;
 1853              		.loc 1 1545 24 is_stmt 0 view .LVU620
 1854 017a 3423     		movs	r3, #52
1546:User/BME280/bme280.c ****     dig_h4_lsb = (int16_t)(reg_data[4] & 0x0F);
 1855              		.loc 1 1546 27 view .LVU621
 1856 017c 0321     		movs	r1, #3
1545:User/BME280/bme280.c ****     dig_h4_msb = (int16_t)(int8_t)reg_data[3] * 16;
 1857              		.loc 1 1545 24 view .LVU622
 1858 017e E254     		strb	r2, [r4, r3]
1546:User/BME280/bme280.c ****     dig_h4_lsb = (int16_t)(reg_data[4] & 0x0F);
 1859              		.loc 1 1546 5 is_stmt 1 view .LVU623
 1860              	.LVL130:
1547:User/BME280/bme280.c ****     calib_data->dig_h4 = dig_h4_msb | dig_h4_lsb;
 1861              		.loc 1 1547 5 view .LVU624
1547:User/BME280/bme280.c ****     calib_data->dig_h4 = dig_h4_msb | dig_h4_lsb;
ARM GAS  C:\Users\upo\AppData\Local\Temp\ccJAZRXk.s 			page 72


 1862              		.loc 1 1547 16 is_stmt 0 view .LVU625
 1863 0180 0F22     		movs	r2, #15
1546:User/BME280/bme280.c ****     dig_h4_lsb = (int16_t)(reg_data[4] & 0x0F);
 1864              		.loc 1 1546 27 view .LVU626
 1865 0182 6956     		ldrsb	r1, [r5, r1]
1547:User/BME280/bme280.c ****     calib_data->dig_h4 = dig_h4_msb | dig_h4_lsb;
 1866              		.loc 1 1547 36 view .LVU627
 1867 0184 2B79     		ldrb	r3, [r5, #4]
 1868              	.LVL131:
1548:User/BME280/bme280.c ****     dig_h5_msb = (int16_t)(int8_t)reg_data[5] * 16;
 1869              		.loc 1 1548 5 is_stmt 1 view .LVU628
1546:User/BME280/bme280.c ****     dig_h4_lsb = (int16_t)(reg_data[4] & 0x0F);
 1870              		.loc 1 1546 47 is_stmt 0 view .LVU629
 1871 0186 0901     		lsls	r1, r1, #4
1547:User/BME280/bme280.c ****     calib_data->dig_h4 = dig_h4_msb | dig_h4_lsb;
 1872              		.loc 1 1547 16 view .LVU630
 1873 0188 1A40     		ands	r2, r3
1548:User/BME280/bme280.c ****     dig_h5_msb = (int16_t)(int8_t)reg_data[5] * 16;
 1874              		.loc 1 1548 24 view .LVU631
 1875 018a 0A43     		orrs	r2, r1
 1876 018c E286     		strh	r2, [r4, #54]
1549:User/BME280/bme280.c ****     dig_h5_lsb = (int16_t)(reg_data[4] >> 4);
 1877              		.loc 1 1549 5 is_stmt 1 view .LVU632
 1878              	.LVL132:
1550:User/BME280/bme280.c ****     calib_data->dig_h5 = dig_h5_msb | dig_h5_lsb;
 1879              		.loc 1 1550 5 view .LVU633
1551:User/BME280/bme280.c ****     calib_data->dig_h6 = (int8_t)reg_data[6];
 1880              		.loc 1 1551 5 view .LVU634
1549:User/BME280/bme280.c ****     dig_h5_lsb = (int16_t)(reg_data[4] >> 4);
 1881              		.loc 1 1549 27 is_stmt 0 view .LVU635
 1882 018e 0522     		movs	r2, #5
 1883 0190 AA56     		ldrsb	r2, [r5, r2]
1550:User/BME280/bme280.c ****     calib_data->dig_h5 = dig_h5_msb | dig_h5_lsb;
 1884              		.loc 1 1550 16 view .LVU636
 1885 0192 1B09     		lsrs	r3, r3, #4
 1886              	.LVL133:
1549:User/BME280/bme280.c ****     dig_h5_lsb = (int16_t)(reg_data[4] >> 4);
 1887              		.loc 1 1549 47 view .LVU637
 1888 0194 1201     		lsls	r2, r2, #4
1551:User/BME280/bme280.c ****     calib_data->dig_h6 = (int8_t)reg_data[6];
 1889              		.loc 1 1551 24 view .LVU638
 1890 0196 1343     		orrs	r3, r2
 1891 0198 2387     		strh	r3, [r4, #56]
1552:User/BME280/bme280.c **** }
 1892              		.loc 1 1552 5 is_stmt 1 view .LVU639
1552:User/BME280/bme280.c **** }
 1893              		.loc 1 1552 24 is_stmt 0 view .LVU640
 1894 019a 3A23     		movs	r3, #58
 1895 019c AA79     		ldrb	r2, [r5, #6]
 1896 019e E254     		strb	r2, [r4, r3]
1553:User/BME280/bme280.c **** 
 1897              		.loc 1 1553 1 view .LVU641
 1898 01a0 87E7     		b	.L101
 1899              	.LVL134:
 1900              	.L121:
1553:User/BME280/bme280.c **** 
 1901              		.loc 1 1553 1 view .LVU642
ARM GAS  C:\Users\upo\AppData\Local\Temp\ccJAZRXk.s 			page 73


 1902              	.LBE209:
 1903              	.LBE208:
 1904              	.LBE189:
 1905              	.LBE188:
 1906              	.LBB215:
 1907              	.LBB183:
 1908              	.LBB178:
 1909              	.LBB176:
1588:User/BME280/bme280.c ****     }
 1910              		.loc 1 1588 14 view .LVU643
 1911 01a2 0123     		movs	r3, #1
 1912 01a4 5B42     		rsbs	r3, r3, #0
 1913 01a6 7BE7     		b	.L102
 1914              	.LVL135:
 1915              	.L119:
1588:User/BME280/bme280.c ****     }
 1916              		.loc 1 1588 14 view .LVU644
 1917              	.LBE176:
 1918              	.LBE178:
 1919              	.LBE183:
 1920              	.LBE215:
 1921              	.LBB216:
 1922              	.LBB170:
 1923 01a8 0120     		movs	r0, #1
 1924              	.LVL136:
1588:User/BME280/bme280.c ****     }
 1925              		.loc 1 1588 14 view .LVU645
 1926 01aa 4042     		rsbs	r0, r0, #0
 1927 01ac 81E7     		b	.L101
 1928              	.LVL137:
 1929              	.L107:
1588:User/BME280/bme280.c ****     }
 1930              		.loc 1 1588 14 view .LVU646
 1931              	.LBE170:
 1932              	.LBE216:
 1933              	.LBB217:
 1934              	.LBB214:
 1935              	.LBB210:
 1936              	.LBB196:
 492:User/BME280/bme280.c ****     }
 1937              		.loc 1 492 9 is_stmt 1 view .LVU647
 492:User/BME280/bme280.c ****     }
 1938              		.loc 1 492 14 is_stmt 0 view .LVU648
 1939 01ae FF23     		movs	r3, #255
 1940 01b0 2B70     		strb	r3, [r5]
 1941 01b2 ACE7     		b	.L108
 1942              	.LVL138:
 1943              	.L111:
 492:User/BME280/bme280.c ****     }
 1944              		.loc 1 492 14 view .LVU649
 1945              	.LBE196:
 1946              	.LBE210:
 1947              	.LBB211:
 1948              	.LBB206:
 492:User/BME280/bme280.c ****     }
 1949              		.loc 1 492 9 is_stmt 1 view .LVU650
 492:User/BME280/bme280.c ****     }
ARM GAS  C:\Users\upo\AppData\Local\Temp\ccJAZRXk.s 			page 74


 1950              		.loc 1 492 14 is_stmt 0 view .LVU651
 1951 01b4 FF23     		movs	r3, #255
 1952 01b6 3370     		strb	r3, [r6]
 1953 01b8 D8E7     		b	.L112
 1954              	.LVL139:
 1955              	.L123:
 492:User/BME280/bme280.c ****     }
 1956              		.loc 1 492 14 view .LVU652
 1957              	.LBE206:
 1958              	.LBE211:
 1959              	.LBB212:
 1960              	.LBB197:
 1961              	.LBB195:
 1962              	.LBB194:
1588:User/BME280/bme280.c ****     }
 1963              		.loc 1 1588 14 view .LVU653
 1964 01ba 0123     		movs	r3, #1
 1965 01bc 5B42     		rsbs	r3, r3, #0
 1966 01be 95E7     		b	.L106
 1967              	.LVL140:
 1968              	.L125:
1588:User/BME280/bme280.c ****     }
 1969              		.loc 1 1588 14 view .LVU654
 1970              	.LBE194:
 1971              	.LBE195:
 1972              	.LBE197:
 1973              	.LBE212:
 1974              	.LBB213:
 1975              	.LBB207:
 1976              	.LBB205:
 1977              	.LBB204:
 1978 01c0 0123     		movs	r3, #1
 1979 01c2 5B42     		rsbs	r3, r3, #0
 1980 01c4 C1E7     		b	.L110
 1981              	.L139:
 1982 01c6 C046     		.align	2
 1983              	.L138:
 1984 01c8 00000000 		.word	.LC0
 1985              	.LBE204:
 1986              	.LBE205:
 1987              	.LBE207:
 1988              	.LBE213:
 1989              	.LBE214:
 1990              	.LBE217:
 1991              		.cfi_endproc
 1992              	.LFE1425:
 1994              		.section	.text.bme280_parse_sensor_data,"ax",%progbits
 1995              		.align	1
 1996              		.p2align 2,,3
 1997              		.global	bme280_parse_sensor_data
 1998              		.syntax unified
 1999              		.code	16
 2000              		.thumb_func
 2002              	bme280_parse_sensor_data:
 2003              	.LVL141:
 2004              	.LFB1434:
 789:User/BME280/bme280.c ****     /* Variables to store the sensor data */
ARM GAS  C:\Users\upo\AppData\Local\Temp\ccJAZRXk.s 			page 75


 2005              		.loc 1 789 1 is_stmt 1 view -0
 2006              		.cfi_startproc
 2007              		@ args = 0, pretend = 0, frame = 0
 2008              		@ frame_needed = 0, uses_anonymous_args = 0
 2009              		@ link register save eliminated.
 791:User/BME280/bme280.c ****     uint32_t data_lsb;
 2010              		.loc 1 791 5 view .LVU656
 792:User/BME280/bme280.c ****     uint32_t data_msb;
 2011              		.loc 1 792 5 view .LVU657
 793:User/BME280/bme280.c **** 
 2012              		.loc 1 793 5 view .LVU658
 796:User/BME280/bme280.c ****     data_lsb = (uint32_t)reg_data[1] << 4;
 2013              		.loc 1 796 5 view .LVU659
 797:User/BME280/bme280.c ****     data_xlsb = (uint32_t)reg_data[2] >> 4;
 2014              		.loc 1 797 5 view .LVU660
 798:User/BME280/bme280.c ****     uncomp_data->pressure = data_msb | data_lsb | data_xlsb;
 2015              		.loc 1 798 5 view .LVU661
 799:User/BME280/bme280.c **** 
 2016              		.loc 1 799 5 view .LVU662
 796:User/BME280/bme280.c ****     data_lsb = (uint32_t)reg_data[1] << 4;
 2017              		.loc 1 796 16 is_stmt 0 view .LVU663
 2018 0000 0378     		ldrb	r3, [r0]
 797:User/BME280/bme280.c ****     data_xlsb = (uint32_t)reg_data[2] >> 4;
 2019              		.loc 1 797 16 view .LVU664
 2020 0002 4278     		ldrb	r2, [r0, #1]
 796:User/BME280/bme280.c ****     data_lsb = (uint32_t)reg_data[1] << 4;
 2021              		.loc 1 796 14 view .LVU665
 2022 0004 1B03     		lsls	r3, r3, #12
 2023              	.LVL142:
 797:User/BME280/bme280.c ****     data_xlsb = (uint32_t)reg_data[2] >> 4;
 2024              		.loc 1 797 14 view .LVU666
 2025 0006 1201     		lsls	r2, r2, #4
 2026              	.LVL143:
 799:User/BME280/bme280.c **** 
 2027              		.loc 1 799 38 view .LVU667
 2028 0008 1343     		orrs	r3, r2
 2029              	.LVL144:
 798:User/BME280/bme280.c ****     uncomp_data->pressure = data_msb | data_lsb | data_xlsb;
 2030              		.loc 1 798 39 view .LVU668
 2031 000a 8278     		ldrb	r2, [r0, #2]
 2032              	.LVL145:
 811:User/BME280/bme280.c **** 
 2033              		.loc 1 811 1 view .LVU669
 2034              		@ sp needed
 798:User/BME280/bme280.c ****     uncomp_data->pressure = data_msb | data_lsb | data_xlsb;
 2035              		.loc 1 798 15 view .LVU670
 2036 000c 1209     		lsrs	r2, r2, #4
 799:User/BME280/bme280.c **** 
 2037              		.loc 1 799 49 view .LVU671
 2038 000e 1343     		orrs	r3, r2
 799:User/BME280/bme280.c **** 
 2039              		.loc 1 799 27 view .LVU672
 2040 0010 0B60     		str	r3, [r1]
 2041              	.LVL146:
 802:User/BME280/bme280.c ****     data_lsb = (uint32_t)reg_data[4] << 4;
 2042              		.loc 1 802 5 is_stmt 1 view .LVU673
 803:User/BME280/bme280.c ****     data_xlsb = (uint32_t)reg_data[5] >> 4;
ARM GAS  C:\Users\upo\AppData\Local\Temp\ccJAZRXk.s 			page 76


 2043              		.loc 1 803 5 view .LVU674
 804:User/BME280/bme280.c ****     uncomp_data->temperature = data_msb | data_lsb | data_xlsb;
 2044              		.loc 1 804 5 view .LVU675
 805:User/BME280/bme280.c **** 
 2045              		.loc 1 805 5 view .LVU676
 802:User/BME280/bme280.c ****     data_lsb = (uint32_t)reg_data[4] << 4;
 2046              		.loc 1 802 16 is_stmt 0 view .LVU677
 2047 0012 C378     		ldrb	r3, [r0, #3]
 803:User/BME280/bme280.c ****     data_xlsb = (uint32_t)reg_data[5] >> 4;
 2048              		.loc 1 803 16 view .LVU678
 2049 0014 0279     		ldrb	r2, [r0, #4]
 802:User/BME280/bme280.c ****     data_lsb = (uint32_t)reg_data[4] << 4;
 2050              		.loc 1 802 14 view .LVU679
 2051 0016 1B03     		lsls	r3, r3, #12
 2052              	.LVL147:
 803:User/BME280/bme280.c ****     data_xlsb = (uint32_t)reg_data[5] >> 4;
 2053              		.loc 1 803 14 view .LVU680
 2054 0018 1201     		lsls	r2, r2, #4
 2055              	.LVL148:
 805:User/BME280/bme280.c **** 
 2056              		.loc 1 805 41 view .LVU681
 2057 001a 1343     		orrs	r3, r2
 2058              	.LVL149:
 804:User/BME280/bme280.c ****     uncomp_data->temperature = data_msb | data_lsb | data_xlsb;
 2059              		.loc 1 804 39 view .LVU682
 2060 001c 4279     		ldrb	r2, [r0, #5]
 2061              	.LVL150:
 804:User/BME280/bme280.c ****     uncomp_data->temperature = data_msb | data_lsb | data_xlsb;
 2062              		.loc 1 804 15 view .LVU683
 2063 001e 1209     		lsrs	r2, r2, #4
 805:User/BME280/bme280.c **** 
 2064              		.loc 1 805 52 view .LVU684
 2065 0020 1343     		orrs	r3, r2
 805:User/BME280/bme280.c **** 
 2066              		.loc 1 805 30 view .LVU685
 2067 0022 4B60     		str	r3, [r1, #4]
 2068              	.LVL151:
 808:User/BME280/bme280.c ****     data_lsb = (uint32_t)reg_data[7];
 2069              		.loc 1 808 5 is_stmt 1 view .LVU686
 809:User/BME280/bme280.c ****     uncomp_data->humidity = data_msb | data_lsb;
 2070              		.loc 1 809 5 view .LVU687
 810:User/BME280/bme280.c **** }
 2071              		.loc 1 810 5 view .LVU688
 810:User/BME280/bme280.c **** }
 2072              		.loc 1 810 27 is_stmt 0 view .LVU689
 2073 0024 C379     		ldrb	r3, [r0, #7]
 2074 0026 8279     		ldrb	r2, [r0, #6]
 2075 0028 1B02     		lsls	r3, r3, #8
 2076 002a 1343     		orrs	r3, r2
 2077 002c 5BBA     		rev16	r3, r3
 2078 002e 9BB2     		uxth	r3, r3
 2079 0030 8B60     		str	r3, [r1, #8]
 2080              	.LVL152:
 811:User/BME280/bme280.c **** 
 2081              		.loc 1 811 1 view .LVU690
 2082 0032 7047     		bx	lr
 2083              		.cfi_endproc
ARM GAS  C:\Users\upo\AppData\Local\Temp\ccJAZRXk.s 			page 77


 2084              	.LFE1434:
 2086              		.global	__aeabi_uidiv
 2087              		.section	.text.bme280_compensate_data,"ax",%progbits
 2088              		.align	1
 2089              		.p2align 2,,3
 2090              		.global	bme280_compensate_data
 2091              		.syntax unified
 2092              		.code	16
 2093              		.thumb_func
 2095              	bme280_compensate_data:
 2096              	.LVL153:
 2097              	.LFB1435:
 822:User/BME280/bme280.c ****     int8_t rslt = BME280_OK;
 2098              		.loc 1 822 1 is_stmt 1 view -0
 2099              		.cfi_startproc
 2100              		@ args = 0, pretend = 0, frame = 8
 2101              		@ frame_needed = 0, uses_anonymous_args = 0
 823:User/BME280/bme280.c **** 
 2102              		.loc 1 823 5 view .LVU692
 825:User/BME280/bme280.c ****     {
 2103              		.loc 1 825 5 view .LVU693
 822:User/BME280/bme280.c ****     int8_t rslt = BME280_OK;
 2104              		.loc 1 822 1 is_stmt 0 view .LVU694
 2105 0000 F0B5     		push	{r4, r5, r6, r7, lr}
 2106              	.LCFI14:
 2107              		.cfi_def_cfa_offset 20
 2108              		.cfi_offset 4, -20
 2109              		.cfi_offset 5, -16
 2110              		.cfi_offset 6, -12
 2111              		.cfi_offset 7, -8
 2112              		.cfi_offset 14, -4
 2113 0002 5746     		mov	r7, r10
 2114 0004 4E46     		mov	r6, r9
 2115 0006 4546     		mov	r5, r8
 2116 0008 DE46     		mov	lr, fp
 2117 000a E0B5     		push	{r5, r6, r7, lr}
 2118              	.LCFI15:
 2119              		.cfi_def_cfa_offset 36
 2120              		.cfi_offset 8, -36
 2121              		.cfi_offset 9, -32
 2122              		.cfi_offset 10, -28
 2123              		.cfi_offset 11, -24
 2124 000c 1C00     		movs	r4, r3
 2125 000e 0600     		movs	r6, r0
 2126 0010 0F00     		movs	r7, r1
 2127 0012 1500     		movs	r5, r2
 2128 0014 83B0     		sub	sp, sp, #12
 2129              	.LCFI16:
 2130              		.cfi_def_cfa_offset 48
 825:User/BME280/bme280.c ****     {
 2131              		.loc 1 825 8 view .LVU695
 2132 0016 0029     		cmp	r1, #0
 2133 0018 00D1     		bne	.LCB2127
 2134 001a 35E1     		b	.L157	@long jump
 2135              	.LCB2127:
 825:User/BME280/bme280.c ****     {
 2136              		.loc 1 825 31 discriminator 1 view .LVU696
ARM GAS  C:\Users\upo\AppData\Local\Temp\ccJAZRXk.s 			page 78


 2137 001c 002A     		cmp	r2, #0
 2138 001e 00D1     		bne	.LCB2129
 2139 0020 32E1     		b	.L157	@long jump
 2140              	.LCB2129:
 825:User/BME280/bme280.c ****     {
 2141              		.loc 1 825 54 discriminator 2 view .LVU697
 2142 0022 002B     		cmp	r3, #0
 2143 0024 00D1     		bne	.LCB2131
 2144 0026 2FE1     		b	.L157	@long jump
 2145              	.LCB2131:
 828:User/BME280/bme280.c ****         comp_data->pressure = 0;
 2146              		.loc 1 828 9 is_stmt 1 view .LVU698
 828:User/BME280/bme280.c ****         comp_data->pressure = 0;
 2147              		.loc 1 828 32 is_stmt 0 view .LVU699
 2148 0028 0023     		movs	r3, #0
 2149              	.LVL154:
 828:User/BME280/bme280.c ****         comp_data->pressure = 0;
 2150              		.loc 1 828 32 view .LVU700
 2151 002a 5360     		str	r3, [r2, #4]
 829:User/BME280/bme280.c ****         comp_data->humidity = 0;
 2152              		.loc 1 829 9 is_stmt 1 view .LVU701
 829:User/BME280/bme280.c ****         comp_data->humidity = 0;
 2153              		.loc 1 829 29 is_stmt 0 view .LVU702
 2154 002c 1360     		str	r3, [r2]
 830:User/BME280/bme280.c **** 
 2155              		.loc 1 830 9 is_stmt 1 view .LVU703
 830:User/BME280/bme280.c **** 
 2156              		.loc 1 830 29 is_stmt 0 view .LVU704
 2157 002e 9360     		str	r3, [r2, #8]
 833:User/BME280/bme280.c ****         {
 2158              		.loc 1 833 9 is_stmt 1 view .LVU705
 833:User/BME280/bme280.c ****         {
 2159              		.loc 1 833 12 is_stmt 0 view .LVU706
 2160 0030 4307     		lsls	r3, r0, #29
 2161 0032 00D0     		beq	.LCB2145
 2162 0034 F2E0     		b	.L169	@long jump
 2163              	.LCB2145:
 2164              	.LVL155:
 2165              	.L143:
 839:User/BME280/bme280.c ****         {
 2166              		.loc 1 839 9 is_stmt 1 view .LVU707
 839:User/BME280/bme280.c ****         {
 2167              		.loc 1 839 12 is_stmt 0 view .LVU708
 2168 0036 F307     		lsls	r3, r6, #31
 2169 0038 00D4     		bmi	.LCB2155
 2170 003a 88E0     		b	.L145	@long jump
 2171              	.LCB2155:
 842:User/BME280/bme280.c ****         }
 2172              		.loc 1 842 13 is_stmt 1 view .LVU709
 2173              	.LVL156:
 2174              	.LBB224:
 2175              	.LBI224:
1358:User/BME280/bme280.c ****                                     const struct bme280_calib_data *calib_data)
 2176              		.loc 1 1358 17 view .LVU710
 2177              	.LBB225:
1361:User/BME280/bme280.c ****     int32_t var2;
 2178              		.loc 1 1361 5 view .LVU711
ARM GAS  C:\Users\upo\AppData\Local\Temp\ccJAZRXk.s 			page 79


1362:User/BME280/bme280.c ****     int32_t var3;
 2179              		.loc 1 1362 5 view .LVU712
1363:User/BME280/bme280.c ****     int32_t var4;
 2180              		.loc 1 1363 5 view .LVU713
1364:User/BME280/bme280.c ****     uint32_t var5;
 2181              		.loc 1 1364 5 view .LVU714
1365:User/BME280/bme280.c ****     uint32_t pressure;
 2182              		.loc 1 1365 5 view .LVU715
1366:User/BME280/bme280.c ****     uint32_t pressure_min = 30000;
 2183              		.loc 1 1366 5 view .LVU716
1367:User/BME280/bme280.c ****     uint32_t pressure_max = 110000;
 2184              		.loc 1 1367 5 view .LVU717
1368:User/BME280/bme280.c **** 
 2185              		.loc 1 1368 5 view .LVU718
1370:User/BME280/bme280.c ****     var2 = (((var1 / 4) * (var1 / 4)) / 2048) * ((int32_t)calib_data->dig_p6);
 2186              		.loc 1 1370 5 view .LVU719
1370:User/BME280/bme280.c ****     var2 = (((var1 / 4) * (var1 / 4)) / 2048) * ((int32_t)calib_data->dig_p6);
 2187              		.loc 1 1370 43 is_stmt 0 view .LVU720
 2188 003c 626A     		ldr	r2, [r4, #36]
1371:User/BME280/bme280.c ****     var2 = var2 + ((var1 * ((int32_t)calib_data->dig_p5)) * 2);
 2189              		.loc 1 1371 20 view .LVU721
 2190 003e 0321     		movs	r1, #3
1370:User/BME280/bme280.c ****     var2 = (((var1 / 4) * (var1 / 4)) / 2048) * ((int32_t)calib_data->dig_p6);
 2191              		.loc 1 1370 43 view .LVU722
 2192 0040 D30F     		lsrs	r3, r2, #31
 2193 0042 9B18     		adds	r3, r3, r2
1370:User/BME280/bme280.c ****     var2 = (((var1 / 4) * (var1 / 4)) / 2048) * ((int32_t)calib_data->dig_p6);
 2194              		.loc 1 1370 10 view .LVU723
 2195 0044 934A     		ldr	r2, .L170
1370:User/BME280/bme280.c ****     var2 = (((var1 / 4) * (var1 / 4)) / 2048) * ((int32_t)calib_data->dig_p6);
 2196              		.loc 1 1370 43 view .LVU724
 2197 0046 5B10     		asrs	r3, r3, #1
1370:User/BME280/bme280.c ****     var2 = (((var1 / 4) * (var1 / 4)) / 2048) * ((int32_t)calib_data->dig_p6);
 2198              		.loc 1 1370 10 view .LVU725
 2199 0048 9446     		mov	ip, r2
 2200 004a 6344     		add	r3, r3, ip
 2201              	.LVL157:
1371:User/BME280/bme280.c ****     var2 = var2 + ((var1 * ((int32_t)calib_data->dig_p5)) * 2);
 2202              		.loc 1 1371 5 is_stmt 1 view .LVU726
1371:User/BME280/bme280.c ****     var2 = var2 + ((var1 * ((int32_t)calib_data->dig_p5)) * 2);
 2203              		.loc 1 1371 20 is_stmt 0 view .LVU727
 2204 004c DA17     		asrs	r2, r3, #31
 2205 004e 0A40     		ands	r2, r1
1371:User/BME280/bme280.c ****     var2 = var2 + ((var1 * ((int32_t)calib_data->dig_p5)) * 2);
 2206              		.loc 1 1371 69 view .LVU728
 2207 0050 1020     		movs	r0, #16
 2208 0052 215E     		ldrsh	r1, [r4, r0]
1371:User/BME280/bme280.c ****     var2 = var2 + ((var1 * ((int32_t)calib_data->dig_p5)) * 2);
 2209              		.loc 1 1371 20 view .LVU729
 2210 0054 D218     		adds	r2, r2, r3
1371:User/BME280/bme280.c ****     var2 = var2 + ((var1 * ((int32_t)calib_data->dig_p5)) * 2);
 2211              		.loc 1 1371 69 view .LVU730
 2212 0056 8846     		mov	r8, r1
1371:User/BME280/bme280.c ****     var2 = var2 + ((var1 * ((int32_t)calib_data->dig_p5)) * 2);
 2213              		.loc 1 1371 20 view .LVU731
 2214 0058 9210     		asrs	r2, r2, #2
1372:User/BME280/bme280.c ****     var2 = (var2 / 4) + (((int32_t)calib_data->dig_p4) * 65536);
ARM GAS  C:\Users\upo\AppData\Local\Temp\ccJAZRXk.s 			page 80


 2215              		.loc 1 1372 48 view .LVU732
 2216 005a 0E20     		movs	r0, #14
 2217 005c 215E     		ldrsh	r1, [r4, r0]
1371:User/BME280/bme280.c ****     var2 = var2 + ((var1 * ((int32_t)calib_data->dig_p5)) * 2);
 2218              		.loc 1 1371 25 view .LVU733
 2219 005e 5243     		muls	r2, r2
 2220              	.LVL158:
1372:User/BME280/bme280.c ****     var2 = (var2 / 4) + (((int32_t)calib_data->dig_p4) * 65536);
 2221              		.loc 1 1372 5 is_stmt 1 view .LVU734
1372:User/BME280/bme280.c ****     var2 = (var2 / 4) + (((int32_t)calib_data->dig_p4) * 65536);
 2222              		.loc 1 1372 48 is_stmt 0 view .LVU735
 2223 0060 8946     		mov	r9, r1
 2224              	.LVL159:
1373:User/BME280/bme280.c ****     var3 = (calib_data->dig_p3 * (((var1 / 4) * (var1 / 4)) / 8192)) / 8;
 2225              		.loc 1 1373 5 is_stmt 1 view .LVU736
1373:User/BME280/bme280.c ****     var3 = (calib_data->dig_p3 * (((var1 / 4) * (var1 / 4)) / 8192)) / 8;
 2226              		.loc 1 1373 46 is_stmt 0 view .LVU737
 2227 0062 0C20     		movs	r0, #12
 2228 0064 215E     		ldrsh	r1, [r4, r0]
 2229              	.LVL160:
1373:User/BME280/bme280.c ****     var3 = (calib_data->dig_p3 * (((var1 / 4) * (var1 / 4)) / 8192)) / 8;
 2230              		.loc 1 1373 46 view .LVU738
 2231 0066 8C46     		mov	ip, r1
 2232              	.LVL161:
1374:User/BME280/bme280.c ****     var4 = (((int32_t)calib_data->dig_p2) * var1) / 2;
 2233              		.loc 1 1374 5 is_stmt 1 view .LVU739
1375:User/BME280/bme280.c ****     var1 = (var3 + var4) / 262144;
 2234              		.loc 1 1375 5 view .LVU740
1376:User/BME280/bme280.c ****     var1 = (((32768 + var1)) * ((int32_t)calib_data->dig_p1)) / 32768;
 2235              		.loc 1 1376 5 view .LVU741
1374:User/BME280/bme280.c ****     var4 = (((int32_t)calib_data->dig_p2) * var1) / 2;
 2236              		.loc 1 1374 23 is_stmt 0 view .LVU742
 2237 0068 0A21     		movs	r1, #10
 2238 006a 605E     		ldrsh	r0, [r4, r1]
 2239              	.LVL162:
1374:User/BME280/bme280.c ****     var4 = (((int32_t)calib_data->dig_p2) * var1) / 2;
 2240              		.loc 1 1374 61 view .LVU743
 2241 006c 5113     		asrs	r1, r2, #13
1374:User/BME280/bme280.c ****     var4 = (((int32_t)calib_data->dig_p2) * var1) / 2;
 2242              		.loc 1 1374 32 view .LVU744
 2243 006e 4143     		muls	r1, r0
1374:User/BME280/bme280.c ****     var4 = (((int32_t)calib_data->dig_p2) * var1) / 2;
 2244              		.loc 1 1374 10 view .LVU745
 2245 0070 0720     		movs	r0, #7
1374:User/BME280/bme280.c ****     var4 = (((int32_t)calib_data->dig_p2) * var1) / 2;
 2246              		.loc 1 1374 32 view .LVU746
 2247 0072 8A46     		mov	r10, r1
1374:User/BME280/bme280.c ****     var4 = (((int32_t)calib_data->dig_p2) * var1) / 2;
 2248              		.loc 1 1374 10 view .LVU747
 2249 0074 C917     		asrs	r1, r1, #31
 2250 0076 0840     		ands	r0, r1
 2251 0078 5044     		add	r0, r0, r10
 2252 007a C110     		asrs	r1, r0, #3
 2253 007c 0191     		str	r1, [sp, #4]
1375:User/BME280/bme280.c ****     var1 = (var3 + var4) / 262144;
 2254              		.loc 1 1375 14 view .LVU748
 2255 007e 0820     		movs	r0, #8
ARM GAS  C:\Users\upo\AppData\Local\Temp\ccJAZRXk.s 			page 81


 2256 0080 215E     		ldrsh	r1, [r4, r0]
1375:User/BME280/bme280.c ****     var1 = (var3 + var4) / 262144;
 2257              		.loc 1 1375 43 view .LVU749
 2258 0082 5943     		muls	r1, r3
 2259 0084 8B46     		mov	fp, r1
1375:User/BME280/bme280.c ****     var1 = (var3 + var4) / 262144;
 2260              		.loc 1 1375 10 view .LVU750
 2261 0086 C90F     		lsrs	r1, r1, #31
 2262 0088 8A46     		mov	r10, r1
 2263 008a DA44     		add	r10, r10, fp
 2264 008c 5146     		mov	r1, r10
 2265 008e 4910     		asrs	r1, r1, #1
 2266 0090 8A46     		mov	r10, r1
1376:User/BME280/bme280.c ****     var1 = (((32768 + var1)) * ((int32_t)calib_data->dig_p1)) / 32768;
 2267              		.loc 1 1376 18 view .LVU751
 2268 0092 0199     		ldr	r1, [sp, #4]
 2269 0094 8B46     		mov	fp, r1
 2270 0096 DA44     		add	r10, r10, fp
 2271              	.LVL163:
1377:User/BME280/bme280.c **** 
 2272              		.loc 1 1377 5 is_stmt 1 view .LVU752
1376:User/BME280/bme280.c ****     var1 = (((32768 + var1)) * ((int32_t)calib_data->dig_p1)) / 32768;
 2273              		.loc 1 1376 10 is_stmt 0 view .LVU753
 2274 0098 5146     		mov	r1, r10
 2275 009a C817     		asrs	r0, r1, #31
1377:User/BME280/bme280.c **** 
 2276              		.loc 1 1377 21 view .LVU754
 2277 009c 8021     		movs	r1, #128
1376:User/BME280/bme280.c ****     var1 = (((32768 + var1)) * ((int32_t)calib_data->dig_p1)) / 32768;
 2278              		.loc 1 1376 10 view .LVU755
 2279 009e 8003     		lsls	r0, r0, #14
1377:User/BME280/bme280.c **** 
 2280              		.loc 1 1377 21 view .LVU756
 2281 00a0 0902     		lsls	r1, r1, #8
1376:User/BME280/bme280.c ****     var1 = (((32768 + var1)) * ((int32_t)calib_data->dig_p1)) / 32768;
 2282              		.loc 1 1376 10 view .LVU757
 2283 00a2 800B     		lsrs	r0, r0, #14
 2284 00a4 5044     		add	r0, r0, r10
1377:User/BME280/bme280.c **** 
 2285              		.loc 1 1377 21 view .LVU758
 2286 00a6 8A46     		mov	r10, r1
 2287              	.LVL164:
1376:User/BME280/bme280.c ****     var1 = (((32768 + var1)) * ((int32_t)calib_data->dig_p1)) / 32768;
 2288              		.loc 1 1376 10 view .LVU759
 2289 00a8 8014     		asrs	r0, r0, #18
1377:User/BME280/bme280.c **** 
 2290              		.loc 1 1377 33 view .LVU760
 2291 00aa E188     		ldrh	r1, [r4, #6]
1377:User/BME280/bme280.c **** 
 2292              		.loc 1 1377 21 view .LVU761
 2293 00ac 5044     		add	r0, r0, r10
1377:User/BME280/bme280.c **** 
 2294              		.loc 1 1377 30 view .LVU762
 2295 00ae 4843     		muls	r0, r1
1377:User/BME280/bme280.c **** 
 2296              		.loc 1 1377 10 view .LVU763
 2297 00b0 C013     		asrs	r0, r0, #15
ARM GAS  C:\Users\upo\AppData\Local\Temp\ccJAZRXk.s 			page 82


 2298              	.LVL165:
1380:User/BME280/bme280.c ****     {
 2299              		.loc 1 1380 5 is_stmt 1 view .LVU764
1380:User/BME280/bme280.c ****     {
 2300              		.loc 1 1380 8 is_stmt 0 view .LVU765
 2301 00b2 00D1     		bne	.LCB2249
 2302 00b4 AFE0     		b	.L160	@long jump
 2303              	.LCB2249:
1382:User/BME280/bme280.c ****         pressure = ((uint32_t)(var5 - (uint32_t)(var2 / 4096))) * 3125;
 2304              		.loc 1 1382 9 is_stmt 1 view .LVU766
 2305              	.LVL166:
1383:User/BME280/bme280.c **** 
 2306              		.loc 1 1383 9 view .LVU767
1371:User/BME280/bme280.c ****     var2 = var2 + ((var1 * ((int32_t)calib_data->dig_p5)) * 2);
 2307              		.loc 1 1371 10 is_stmt 0 view .LVU768
 2308 00b6 4146     		mov	r1, r8
1371:User/BME280/bme280.c ****     var2 = var2 + ((var1 * ((int32_t)calib_data->dig_p5)) * 2);
 2309              		.loc 1 1371 39 view .LVU769
 2310 00b8 D212     		asrs	r2, r2, #11
 2311              	.LVL167:
1371:User/BME280/bme280.c ****     var2 = var2 + ((var1 * ((int32_t)calib_data->dig_p5)) * 2);
 2312              		.loc 1 1371 10 view .LVU770
 2313 00ba 5143     		muls	r1, r2
 2314 00bc 0A00     		movs	r2, r1
 2315              	.LVL168:
1372:User/BME280/bme280.c ****     var2 = (var2 / 4) + (((int32_t)calib_data->dig_p4) * 65536);
 2316              		.loc 1 1372 26 view .LVU771
 2317 00be 4946     		mov	r1, r9
 2318 00c0 4B43     		muls	r3, r1
 2319              	.LVL169:
1373:User/BME280/bme280.c ****     var3 = (calib_data->dig_p3 * (((var1 / 4) * (var1 / 4)) / 8192)) / 8;
 2320              		.loc 1 1373 18 view .LVU772
 2321 00c2 0321     		movs	r1, #3
 2322              	.LVL170:
1372:User/BME280/bme280.c ****     var2 = (var2 / 4) + (((int32_t)calib_data->dig_p4) * 65536);
 2323              		.loc 1 1372 59 view .LVU773
 2324 00c4 5B00     		lsls	r3, r3, #1
1372:User/BME280/bme280.c ****     var2 = (var2 / 4) + (((int32_t)calib_data->dig_p4) * 65536);
 2325              		.loc 1 1372 10 view .LVU774
 2326 00c6 9B18     		adds	r3, r3, r2
1373:User/BME280/bme280.c ****     var3 = (calib_data->dig_p3 * (((var1 / 4) * (var1 / 4)) / 8192)) / 8;
 2327              		.loc 1 1373 18 view .LVU775
 2328 00c8 DA17     		asrs	r2, r3, #31
 2329 00ca 1140     		ands	r1, r2
 2330              	.LVL171:
1382:User/BME280/bme280.c ****         pressure = ((uint32_t)(var5 - (uint32_t)(var2 / 4096))) * 3125;
 2331              		.loc 1 1382 14 view .LVU776
 2332 00cc 8022     		movs	r2, #128
1373:User/BME280/bme280.c ****     var3 = (calib_data->dig_p3 * (((var1 / 4) * (var1 / 4)) / 8192)) / 8;
 2333              		.loc 1 1373 18 view .LVU777
 2334 00ce C918     		adds	r1, r1, r3
1382:User/BME280/bme280.c ****         pressure = ((uint32_t)(var5 - (uint32_t)(var2 / 4096))) * 3125;
 2335              		.loc 1 1382 14 view .LVU778
 2336 00d0 3B68     		ldr	r3, [r7]
 2337 00d2 5203     		lsls	r2, r2, #13
 2338 00d4 D21A     		subs	r2, r2, r3
1373:User/BME280/bme280.c ****     var3 = (calib_data->dig_p3 * (((var1 / 4) * (var1 / 4)) / 8192)) / 8;
ARM GAS  C:\Users\upo\AppData\Local\Temp\ccJAZRXk.s 			page 83


 2339              		.loc 1 1373 56 view .LVU779
 2340 00d6 6346     		mov	r3, ip
1373:User/BME280/bme280.c ****     var3 = (calib_data->dig_p3 * (((var1 / 4) * (var1 / 4)) / 8192)) / 8;
 2341              		.loc 1 1373 18 view .LVU780
 2342 00d8 8910     		asrs	r1, r1, #2
1373:User/BME280/bme280.c ****     var3 = (calib_data->dig_p3 * (((var1 / 4) * (var1 / 4)) / 8192)) / 8;
 2343              		.loc 1 1373 56 view .LVU781
 2344 00da 1B04     		lsls	r3, r3, #16
1373:User/BME280/bme280.c ****     var3 = (calib_data->dig_p3 * (((var1 / 4) * (var1 / 4)) / 8192)) / 8;
 2345              		.loc 1 1373 10 view .LVU782
 2346 00dc 5918     		adds	r1, r3, r1
1383:User/BME280/bme280.c **** 
 2347              		.loc 1 1383 55 view .LVU783
 2348 00de CB17     		asrs	r3, r1, #31
 2349 00e0 1B05     		lsls	r3, r3, #20
 2350 00e2 1B0D     		lsrs	r3, r3, #20
 2351 00e4 5B18     		adds	r3, r3, r1
 2352 00e6 1B13     		asrs	r3, r3, #12
1383:User/BME280/bme280.c **** 
 2353              		.loc 1 1383 21 view .LVU784
 2354 00e8 D31A     		subs	r3, r2, r3
1383:User/BME280/bme280.c **** 
 2355              		.loc 1 1383 18 view .LVU785
 2356 00ea 6B4A     		ldr	r2, .L170+4
 2357 00ec 5A43     		muls	r2, r3
 2358              	.LVL172:
1385:User/BME280/bme280.c ****         {
 2359              		.loc 1 1385 9 is_stmt 1 view .LVU786
1385:User/BME280/bme280.c ****         {
 2360              		.loc 1 1385 12 is_stmt 0 view .LVU787
 2361 00ee 002A     		cmp	r2, #0
 2362 00f0 00DA     		bge	.LCB2294
 2363 00f2 C1E0     		b	.L147	@long jump
 2364              	.LCB2294:
1387:User/BME280/bme280.c ****         }
 2365              		.loc 1 1387 13 is_stmt 1 view .LVU788
1387:User/BME280/bme280.c ****         }
 2366              		.loc 1 1387 34 is_stmt 0 view .LVU789
 2367 00f4 5200     		lsls	r2, r2, #1
 2368              	.LVL173:
1387:User/BME280/bme280.c ****         }
 2369              		.loc 1 1387 22 view .LVU790
 2370 00f6 0100     		movs	r1, r0
 2371 00f8 1000     		movs	r0, r2
 2372              	.LVL174:
1387:User/BME280/bme280.c ****         }
 2373              		.loc 1 1387 22 view .LVU791
 2374 00fa FFF7FEFF 		bl	__aeabi_uidiv
 2375              	.LVL175:
 2376              	.L148:
1394:User/BME280/bme280.c ****         var2 = (((int32_t)(pressure / 4)) * ((int32_t)calib_data->dig_p8)) / 8192;
 2377              		.loc 1 1394 9 is_stmt 1 view .LVU792
1394:User/BME280/bme280.c ****         var2 = (((int32_t)(pressure / 4)) * ((int32_t)calib_data->dig_p8)) / 8192;
 2378              		.loc 1 1394 71 is_stmt 0 view .LVU793
 2379 00fe C308     		lsrs	r3, r0, #3
 2380              	.LVL176:
1395:User/BME280/bme280.c ****         pressure = (uint32_t)((int32_t)pressure + ((var1 + var2 + calib_data->dig_p7) / 16));
ARM GAS  C:\Users\upo\AppData\Local\Temp\ccJAZRXk.s 			page 84


 2381              		.loc 1 1395 9 is_stmt 1 view .LVU794
1396:User/BME280/bme280.c **** 
 2382              		.loc 1 1396 9 view .LVU795
1394:User/BME280/bme280.c ****         var2 = (((int32_t)(pressure / 4)) * ((int32_t)calib_data->dig_p8)) / 8192;
 2383              		.loc 1 1394 76 is_stmt 0 view .LVU796
 2384 0100 5B43     		muls	r3, r3
 2385              	.LVL177:
1394:User/BME280/bme280.c ****         var2 = (((int32_t)(pressure / 4)) * ((int32_t)calib_data->dig_p8)) / 8192;
 2386              		.loc 1 1394 18 view .LVU797
 2387 0102 1621     		movs	r1, #22
 2388 0104 625E     		ldrsh	r2, [r4, r1]
1394:User/BME280/bme280.c ****         var2 = (((int32_t)(pressure / 4)) * ((int32_t)calib_data->dig_p8)) / 8192;
 2389              		.loc 1 1394 94 view .LVU798
 2390 0106 5B0B     		lsrs	r3, r3, #13
1394:User/BME280/bme280.c ****         var2 = (((int32_t)(pressure / 4)) * ((int32_t)calib_data->dig_p8)) / 8192;
 2391              		.loc 1 1394 47 view .LVU799
 2392 0108 5A43     		muls	r2, r3
1394:User/BME280/bme280.c ****         var2 = (((int32_t)(pressure / 4)) * ((int32_t)calib_data->dig_p8)) / 8192;
 2393              		.loc 1 1394 14 view .LVU800
 2394 010a D317     		asrs	r3, r2, #31
 2395 010c 1B05     		lsls	r3, r3, #20
 2396 010e 1B0D     		lsrs	r3, r3, #20
 2397 0110 9A18     		adds	r2, r3, r2
1395:User/BME280/bme280.c ****         pressure = (uint32_t)((int32_t)pressure + ((var1 + var2 + calib_data->dig_p7) / 16));
 2398              		.loc 1 1395 37 view .LVU801
 2399 0112 8308     		lsrs	r3, r0, #2
 2400 0114 9C46     		mov	ip, r3
1395:User/BME280/bme280.c ****         pressure = (uint32_t)((int32_t)pressure + ((var1 + var2 + calib_data->dig_p7) / 16));
 2401              		.loc 1 1395 46 view .LVU802
 2402 0116 1423     		movs	r3, #20
 2403 0118 E15E     		ldrsh	r1, [r4, r3]
1395:User/BME280/bme280.c ****         pressure = (uint32_t)((int32_t)pressure + ((var1 + var2 + calib_data->dig_p7) / 16));
 2404              		.loc 1 1395 43 view .LVU803
 2405 011a 6346     		mov	r3, ip
 2406 011c 5943     		muls	r1, r3
1395:User/BME280/bme280.c ****         pressure = (uint32_t)((int32_t)pressure + ((var1 + var2 + calib_data->dig_p7) / 16));
 2407              		.loc 1 1395 14 view .LVU804
 2408 011e CB17     		asrs	r3, r1, #31
 2409 0120 DB04     		lsls	r3, r3, #19
 2410 0122 DB0C     		lsrs	r3, r3, #19
 2411 0124 5B18     		adds	r3, r3, r1
 2412 0126 5B13     		asrs	r3, r3, #13
1394:User/BME280/bme280.c ****         var2 = (((int32_t)(pressure / 4)) * ((int32_t)calib_data->dig_p8)) / 8192;
 2413              		.loc 1 1394 14 view .LVU805
 2414 0128 1213     		asrs	r2, r2, #12
1396:User/BME280/bme280.c **** 
 2415              		.loc 1 1396 58 view .LVU806
 2416 012a D218     		adds	r2, r2, r3
1396:User/BME280/bme280.c **** 
 2417              		.loc 1 1396 77 view .LVU807
 2418 012c 1221     		movs	r1, #18
 2419 012e 635E     		ldrsh	r3, [r4, r1]
1396:User/BME280/bme280.c **** 
 2420              		.loc 1 1396 65 view .LVU808
 2421 0130 D218     		adds	r2, r2, r3
1396:User/BME280/bme280.c **** 
 2422              		.loc 1 1396 87 view .LVU809
ARM GAS  C:\Users\upo\AppData\Local\Temp\ccJAZRXk.s 			page 85


 2423 0132 0F23     		movs	r3, #15
 2424 0134 D117     		asrs	r1, r2, #31
 2425 0136 0B40     		ands	r3, r1
 2426 0138 9B18     		adds	r3, r3, r2
 2427 013a 1B11     		asrs	r3, r3, #4
1396:User/BME280/bme280.c **** 
 2428              		.loc 1 1396 49 view .LVU810
 2429 013c 1818     		adds	r0, r3, r0
 2430              	.LVL178:
1398:User/BME280/bme280.c ****         {
 2431              		.loc 1 1398 9 is_stmt 1 view .LVU811
1402:User/BME280/bme280.c ****         {
 2432              		.loc 1 1402 17 is_stmt 0 view .LVU812
 2433 013e 574B     		ldr	r3, .L170+8
 2434 0140 9842     		cmp	r0, r3
 2435 0142 00D9     		bls	.L149
 2436 0144 1800     		movs	r0, r3
 2437              	.LVL179:
 2438              	.L149:
1402:User/BME280/bme280.c ****         {
 2439              		.loc 1 1402 17 view .LVU813
 2440 0146 564B     		ldr	r3, .L170+12
 2441 0148 9842     		cmp	r0, r3
 2442 014a 64D3     		bcc	.L160
 2443              	.LVL180:
1412:User/BME280/bme280.c **** }
 2444              		.loc 1 1412 5 is_stmt 1 view .LVU814
1412:User/BME280/bme280.c **** }
 2445              		.loc 1 1412 5 is_stmt 0 view .LVU815
 2446              	.LBE225:
 2447              	.LBE224:
 842:User/BME280/bme280.c ****         }
 2448              		.loc 1 842 33 view .LVU816
 2449 014c 2860     		str	r0, [r5]
 2450              	.LVL181:
 2451              	.L145:
 845:User/BME280/bme280.c ****         {
 2452              		.loc 1 845 9 is_stmt 1 view .LVU817
 845:User/BME280/bme280.c ****         {
 2453              		.loc 1 845 12 is_stmt 0 view .LVU818
 2454 014e 7607     		lsls	r6, r6, #29
 2455 0150 59D5     		bpl	.L154
 848:User/BME280/bme280.c ****         }
 2456              		.loc 1 848 13 is_stmt 1 view .LVU819
 2457              	.LVL182:
 2458              	.LBB228:
 2459              	.LBI228:
1420:User/BME280/bme280.c ****                                     const struct bme280_calib_data *calib_data)
 2460              		.loc 1 1420 17 view .LVU820
 2461              	.LBB229:
1423:User/BME280/bme280.c ****     int32_t var2;
 2462              		.loc 1 1423 5 view .LVU821
1424:User/BME280/bme280.c ****     int32_t var3;
 2463              		.loc 1 1424 5 view .LVU822
1425:User/BME280/bme280.c ****     int32_t var4;
 2464              		.loc 1 1425 5 view .LVU823
1426:User/BME280/bme280.c ****     int32_t var5;
ARM GAS  C:\Users\upo\AppData\Local\Temp\ccJAZRXk.s 			page 86


 2465              		.loc 1 1426 5 view .LVU824
1427:User/BME280/bme280.c ****     uint32_t humidity;
 2466              		.loc 1 1427 5 view .LVU825
1428:User/BME280/bme280.c ****     uint32_t humidity_max = 102400;
 2467              		.loc 1 1428 5 view .LVU826
1429:User/BME280/bme280.c **** 
 2468              		.loc 1 1429 5 view .LVU827
1431:User/BME280/bme280.c ****     var2 = (int32_t)(uncomp_data->humidity * 16384);
 2469              		.loc 1 1431 5 view .LVU828
1431:User/BME280/bme280.c ****     var2 = (int32_t)(uncomp_data->humidity * 16384);
 2470              		.loc 1 1431 10 is_stmt 0 view .LVU829
 2471 0152 544B     		ldr	r3, .L170+16
1433:User/BME280/bme280.c ****     var4 = ((int32_t)calib_data->dig_h5) * var1;
 2472              		.loc 1 1433 23 view .LVU830
 2473 0154 1E21     		movs	r1, #30
 2474 0156 625E     		ldrsh	r2, [r4, r1]
1431:User/BME280/bme280.c ****     var2 = (int32_t)(uncomp_data->humidity * 16384);
 2475              		.loc 1 1431 10 view .LVU831
 2476 0158 9C46     		mov	ip, r3
1432:User/BME280/bme280.c ****     var3 = (int32_t)(((int32_t)calib_data->dig_h4) * 1048576);
 2477              		.loc 1 1432 44 view .LVU832
 2478 015a BB68     		ldr	r3, [r7, #8]
1433:User/BME280/bme280.c ****     var4 = ((int32_t)calib_data->dig_h5) * var1;
 2479              		.loc 1 1433 10 view .LVU833
 2480 015c 1205     		lsls	r2, r2, #20
1431:User/BME280/bme280.c ****     var2 = (int32_t)(uncomp_data->humidity * 16384);
 2481              		.loc 1 1431 10 view .LVU834
 2482 015e 606A     		ldr	r0, [r4, #36]
1432:User/BME280/bme280.c ****     var3 = (int32_t)(((int32_t)calib_data->dig_h4) * 1048576);
 2483              		.loc 1 1432 44 view .LVU835
 2484 0160 9B03     		lsls	r3, r3, #14
1435:User/BME280/bme280.c ****     var2 = (var1 * ((int32_t)calib_data->dig_h6)) / 1024;
 2485              		.loc 1 1435 20 view .LVU836
 2486 0162 9B1A     		subs	r3, r3, r2
1434:User/BME280/bme280.c ****     var5 = (((var2 - var3) - var4) + (int32_t)16384) / 32768;
 2487              		.loc 1 1434 13 view .LVU837
 2488 0164 2021     		movs	r1, #32
 2489 0166 625E     		ldrsh	r2, [r4, r1]
1431:User/BME280/bme280.c ****     var2 = (int32_t)(uncomp_data->humidity * 16384);
 2490              		.loc 1 1431 10 view .LVU838
 2491 0168 6044     		add	r0, r0, ip
 2492              	.LVL183:
1432:User/BME280/bme280.c ****     var3 = (int32_t)(((int32_t)calib_data->dig_h4) * 1048576);
 2493              		.loc 1 1432 5 is_stmt 1 view .LVU839
1433:User/BME280/bme280.c ****     var4 = ((int32_t)calib_data->dig_h5) * var1;
 2494              		.loc 1 1433 5 view .LVU840
1434:User/BME280/bme280.c ****     var5 = (((var2 - var3) - var4) + (int32_t)16384) / 32768;
 2495              		.loc 1 1434 5 view .LVU841
1435:User/BME280/bme280.c ****     var2 = (var1 * ((int32_t)calib_data->dig_h6)) / 1024;
 2496              		.loc 1 1435 5 view .LVU842
1434:User/BME280/bme280.c ****     var5 = (((var2 - var3) - var4) + (int32_t)16384) / 32768;
 2497              		.loc 1 1434 10 is_stmt 0 view .LVU843
 2498 016a 4243     		muls	r2, r0
 2499              	.LVL184:
1435:User/BME280/bme280.c ****     var2 = (var1 * ((int32_t)calib_data->dig_h6)) / 1024;
 2500              		.loc 1 1435 28 view .LVU844
 2501 016c 9B1A     		subs	r3, r3, r2
ARM GAS  C:\Users\upo\AppData\Local\Temp\ccJAZRXk.s 			page 87


1435:User/BME280/bme280.c ****     var2 = (var1 * ((int32_t)calib_data->dig_h6)) / 1024;
 2502              		.loc 1 1435 36 view .LVU845
 2503 016e 8022     		movs	r2, #128
 2504              	.LVL185:
1435:User/BME280/bme280.c ****     var2 = (var1 * ((int32_t)calib_data->dig_h6)) / 1024;
 2505              		.loc 1 1435 36 view .LVU846
 2506 0170 D201     		lsls	r2, r2, #7
 2507 0172 9446     		mov	ip, r2
 2508 0174 6344     		add	r3, r3, ip
1435:User/BME280/bme280.c ****     var2 = (var1 * ((int32_t)calib_data->dig_h6)) / 1024;
 2509              		.loc 1 1435 10 view .LVU847
 2510 0176 D917     		asrs	r1, r3, #31
 2511 0178 4904     		lsls	r1, r1, #17
 2512 017a 490C     		lsrs	r1, r1, #17
 2513 017c C918     		adds	r1, r1, r3
1437:User/BME280/bme280.c ****     var4 = ((var2 * (var3 + (int32_t)32768)) / 1024) + (int32_t)2097152;
 2514              		.loc 1 1437 21 view .LVU848
 2515 017e 237F     		ldrb	r3, [r4, #28]
1435:User/BME280/bme280.c ****     var2 = (var1 * ((int32_t)calib_data->dig_h6)) / 1024;
 2516              		.loc 1 1435 10 view .LVU849
 2517 0180 C913     		asrs	r1, r1, #15
 2518              	.LVL186:
1436:User/BME280/bme280.c ****     var3 = (var1 * ((int32_t)calib_data->dig_h3)) / 2048;
 2519              		.loc 1 1436 5 is_stmt 1 view .LVU850
1437:User/BME280/bme280.c ****     var4 = ((var2 * (var3 + (int32_t)32768)) / 1024) + (int32_t)2097152;
 2520              		.loc 1 1437 5 view .LVU851
1438:User/BME280/bme280.c ****     var2 = ((var4 * ((int32_t)calib_data->dig_h2)) + 8192) / 16384;
 2521              		.loc 1 1438 5 view .LVU852
1439:User/BME280/bme280.c ****     var3 = var5 * var2;
 2522              		.loc 1 1439 5 view .LVU853
1437:User/BME280/bme280.c ****     var4 = ((var2 * (var3 + (int32_t)32768)) / 1024) + (int32_t)2097152;
 2523              		.loc 1 1437 18 is_stmt 0 view .LVU854
 2524 0182 4343     		muls	r3, r0
1437:User/BME280/bme280.c ****     var4 = ((var2 * (var3 + (int32_t)32768)) / 1024) + (int32_t)2097152;
 2525              		.loc 1 1437 10 view .LVU855
 2526 0184 DA17     		asrs	r2, r3, #31
 2527 0186 5205     		lsls	r2, r2, #21
 2528 0188 520D     		lsrs	r2, r2, #21
 2529 018a D218     		adds	r2, r2, r3
1438:User/BME280/bme280.c ****     var2 = ((var4 * ((int32_t)calib_data->dig_h2)) + 8192) / 16384;
 2530              		.loc 1 1438 27 view .LVU856
 2531 018c 8023     		movs	r3, #128
 2532 018e 1B02     		lsls	r3, r3, #8
 2533 0190 9C46     		mov	ip, r3
1436:User/BME280/bme280.c ****     var3 = (var1 * ((int32_t)calib_data->dig_h3)) / 2048;
 2534              		.loc 1 1436 40 view .LVU857
 2535 0192 2223     		movs	r3, #34
1436:User/BME280/bme280.c ****     var3 = (var1 * ((int32_t)calib_data->dig_h3)) / 2048;
 2536              		.loc 1 1436 21 view .LVU858
 2537 0194 E356     		ldrsb	r3, [r4, r3]
1437:User/BME280/bme280.c ****     var4 = ((var2 * (var3 + (int32_t)32768)) / 1024) + (int32_t)2097152;
 2538              		.loc 1 1437 10 view .LVU859
 2539 0196 D212     		asrs	r2, r2, #11
1436:User/BME280/bme280.c ****     var3 = (var1 * ((int32_t)calib_data->dig_h3)) / 2048;
 2540              		.loc 1 1436 18 view .LVU860
 2541 0198 5843     		muls	r0, r3
 2542              	.LVL187:
ARM GAS  C:\Users\upo\AppData\Local\Temp\ccJAZRXk.s 			page 88


1436:User/BME280/bme280.c ****     var3 = (var1 * ((int32_t)calib_data->dig_h3)) / 2048;
 2543              		.loc 1 1436 10 view .LVU861
 2544 019a C317     		asrs	r3, r0, #31
 2545 019c 9B05     		lsls	r3, r3, #22
 2546 019e 9B0D     		lsrs	r3, r3, #22
 2547 01a0 1B18     		adds	r3, r3, r0
1438:User/BME280/bme280.c ****     var2 = ((var4 * ((int32_t)calib_data->dig_h2)) + 8192) / 16384;
 2548              		.loc 1 1438 27 view .LVU862
 2549 01a2 6244     		add	r2, r2, ip
1436:User/BME280/bme280.c ****     var3 = (var1 * ((int32_t)calib_data->dig_h3)) / 2048;
 2550              		.loc 1 1436 10 view .LVU863
 2551 01a4 9B12     		asrs	r3, r3, #10
1438:User/BME280/bme280.c ****     var2 = ((var4 * ((int32_t)calib_data->dig_h2)) + 8192) / 16384;
 2552              		.loc 1 1438 19 view .LVU864
 2553 01a6 5343     		muls	r3, r2
1438:User/BME280/bme280.c ****     var2 = ((var4 * ((int32_t)calib_data->dig_h2)) + 8192) / 16384;
 2554              		.loc 1 1438 46 view .LVU865
 2555 01a8 DA17     		asrs	r2, r3, #31
 2556 01aa 9205     		lsls	r2, r2, #22
 2557 01ac 920D     		lsrs	r2, r2, #22
 2558 01ae D318     		adds	r3, r2, r3
1438:User/BME280/bme280.c ****     var2 = ((var4 * ((int32_t)calib_data->dig_h2)) + 8192) / 16384;
 2559              		.loc 1 1438 10 view .LVU866
 2560 01b0 8022     		movs	r2, #128
 2561 01b2 9203     		lsls	r2, r2, #14
 2562 01b4 9446     		mov	ip, r2
1438:User/BME280/bme280.c ****     var2 = ((var4 * ((int32_t)calib_data->dig_h2)) + 8192) / 16384;
 2563              		.loc 1 1438 46 view .LVU867
 2564 01b6 9B12     		asrs	r3, r3, #10
1439:User/BME280/bme280.c ****     var3 = var5 * var2;
 2565              		.loc 1 1439 22 view .LVU868
 2566 01b8 1A20     		movs	r0, #26
 2567 01ba 225E     		ldrsh	r2, [r4, r0]
 2568              	.LVL188:
1438:User/BME280/bme280.c ****     var2 = ((var4 * ((int32_t)calib_data->dig_h2)) + 8192) / 16384;
 2569              		.loc 1 1438 10 view .LVU869
 2570 01bc 6344     		add	r3, r3, ip
1439:User/BME280/bme280.c ****     var3 = var5 * var2;
 2571              		.loc 1 1439 19 view .LVU870
 2572 01be 5A43     		muls	r2, r3
1439:User/BME280/bme280.c ****     var3 = var5 * var2;
 2573              		.loc 1 1439 52 view .LVU871
 2574 01c0 8023     		movs	r3, #128
 2575 01c2 9B01     		lsls	r3, r3, #6
 2576 01c4 9C46     		mov	ip, r3
 2577 01c6 6244     		add	r2, r2, ip
 2578              	.LVL189:
1440:User/BME280/bme280.c ****     var4 = ((var3 / 32768) * (var3 / 32768)) / 128;
 2579              		.loc 1 1440 5 is_stmt 1 view .LVU872
1439:User/BME280/bme280.c ****     var3 = var5 * var2;
 2580              		.loc 1 1439 10 is_stmt 0 view .LVU873
 2581 01c8 D317     		asrs	r3, r2, #31
 2582 01ca 9B04     		lsls	r3, r3, #18
 2583 01cc 9B0C     		lsrs	r3, r3, #18
 2584 01ce 9B18     		adds	r3, r3, r2
 2585 01d0 9B13     		asrs	r3, r3, #14
1440:User/BME280/bme280.c ****     var4 = ((var3 / 32768) * (var3 / 32768)) / 128;
ARM GAS  C:\Users\upo\AppData\Local\Temp\ccJAZRXk.s 			page 89


 2586              		.loc 1 1440 10 view .LVU874
 2587 01d2 4B43     		muls	r3, r1
 2588              	.LVL190:
1441:User/BME280/bme280.c ****     var5 = var3 - ((var4 * ((int32_t)calib_data->dig_h1)) / 16);
 2589              		.loc 1 1441 5 is_stmt 1 view .LVU875
1441:User/BME280/bme280.c ****     var5 = var3 - ((var4 * ((int32_t)calib_data->dig_h1)) / 16);
 2590              		.loc 1 1441 19 is_stmt 0 view .LVU876
 2591 01d4 DA17     		asrs	r2, r3, #31
 2592              	.LVL191:
1441:User/BME280/bme280.c ****     var5 = var3 - ((var4 * ((int32_t)calib_data->dig_h1)) / 16);
 2593              		.loc 1 1441 19 view .LVU877
 2594 01d6 5204     		lsls	r2, r2, #17
 2595 01d8 520C     		lsrs	r2, r2, #17
 2596 01da D218     		adds	r2, r2, r3
 2597 01dc D213     		asrs	r2, r2, #15
 2598              	.LVL192:
1442:User/BME280/bme280.c ****     var5 = (var5 < 0 ? 0 : var5);
 2599              		.loc 1 1442 5 is_stmt 1 view .LVU878
1441:User/BME280/bme280.c ****     var5 = var3 - ((var4 * ((int32_t)calib_data->dig_h1)) / 16);
 2600              		.loc 1 1441 28 is_stmt 0 view .LVU879
 2601 01de 5243     		muls	r2, r2
 2602              	.LVL193:
1442:User/BME280/bme280.c ****     var5 = (var5 < 0 ? 0 : var5);
 2603              		.loc 1 1442 29 view .LVU880
 2604 01e0 217E     		ldrb	r1, [r4, #24]
 2605              	.LVL194:
1441:User/BME280/bme280.c ****     var5 = var3 - ((var4 * ((int32_t)calib_data->dig_h1)) / 16);
 2606              		.loc 1 1441 10 view .LVU881
 2607 01e2 D211     		asrs	r2, r2, #7
 2608              	.LVL195:
1442:User/BME280/bme280.c ****     var5 = (var5 < 0 ? 0 : var5);
 2609              		.loc 1 1442 26 view .LVU882
 2610 01e4 5143     		muls	r1, r2
1442:User/BME280/bme280.c ****     var5 = (var5 < 0 ? 0 : var5);
 2611              		.loc 1 1442 59 view .LVU883
 2612 01e6 0F22     		movs	r2, #15
 2613              	.LVL196:
1442:User/BME280/bme280.c ****     var5 = (var5 < 0 ? 0 : var5);
 2614              		.loc 1 1442 59 view .LVU884
 2615 01e8 C817     		asrs	r0, r1, #31
 2616 01ea 0240     		ands	r2, r0
 2617 01ec 5218     		adds	r2, r2, r1
 2618 01ee 1211     		asrs	r2, r2, #4
1442:User/BME280/bme280.c ****     var5 = (var5 < 0 ? 0 : var5);
 2619              		.loc 1 1442 10 view .LVU885
 2620 01f0 9B1A     		subs	r3, r3, r2
 2621              	.LVL197:
1443:User/BME280/bme280.c ****     var5 = (var5 > 419430400 ? 419430400 : var5);
 2622              		.loc 1 1443 5 is_stmt 1 view .LVU886
1443:User/BME280/bme280.c ****     var5 = (var5 > 419430400 ? 419430400 : var5);
 2623              		.loc 1 1443 10 is_stmt 0 view .LVU887
 2624 01f2 DA43     		mvns	r2, r3
 2625 01f4 D217     		asrs	r2, r2, #31
 2626 01f6 1340     		ands	r3, r2
 2627              	.LVL198:
1444:User/BME280/bme280.c ****     humidity = (uint32_t)(var5 / 4096);
 2628              		.loc 1 1444 5 is_stmt 1 view .LVU888
ARM GAS  C:\Users\upo\AppData\Local\Temp\ccJAZRXk.s 			page 90


1445:User/BME280/bme280.c **** 
 2629              		.loc 1 1445 5 view .LVU889
1447:User/BME280/bme280.c ****     {
 2630              		.loc 1 1447 5 view .LVU890
1452:User/BME280/bme280.c **** }
 2631              		.loc 1 1452 5 view .LVU891
1444:User/BME280/bme280.c ****     humidity = (uint32_t)(var5 / 4096);
 2632              		.loc 1 1444 10 is_stmt 0 view .LVU892
 2633 01f8 C822     		movs	r2, #200
 2634 01fa 5205     		lsls	r2, r2, #21
 2635 01fc 9342     		cmp	r3, r2
 2636 01fe 00DD     		ble	.L153
 2637 0200 1300     		movs	r3, r2
 2638              	.L153:
1445:User/BME280/bme280.c **** 
 2639              		.loc 1 1445 32 view .LVU893
 2640 0202 1B13     		asrs	r3, r3, #12
 2641              	.LBE229:
 2642              	.LBE228:
 848:User/BME280/bme280.c ****         }
 2643              		.loc 1 848 33 view .LVU894
 2644 0204 AB60     		str	r3, [r5, #8]
 2645              	.LVL199:
 2646              	.L154:
 823:User/BME280/bme280.c **** 
 2647              		.loc 1 823 12 view .LVU895
 2648 0206 0020     		movs	r0, #0
 2649              	.L142:
 2650              	.LVL200:
 856:User/BME280/bme280.c **** }
 2651              		.loc 1 856 5 is_stmt 1 view .LVU896
 857:User/BME280/bme280.c **** 
 2652              		.loc 1 857 1 is_stmt 0 view .LVU897
 2653 0208 03B0     		add	sp, sp, #12
 2654              		@ sp needed
 2655              	.LVL201:
 2656              	.LVL202:
 2657              	.LVL203:
 857:User/BME280/bme280.c **** 
 2658              		.loc 1 857 1 view .LVU898
 2659 020a F0BC     		pop	{r4, r5, r6, r7}
 2660 020c BB46     		mov	fp, r7
 2661 020e B246     		mov	r10, r6
 2662 0210 A946     		mov	r9, r5
 2663 0212 A046     		mov	r8, r4
 2664 0214 F0BD     		pop	{r4, r5, r6, r7, pc}
 2665              	.LVL204:
 2666              	.L160:
 2667              	.LBB230:
 2668              	.LBB226:
1409:User/BME280/bme280.c ****     }
 2669              		.loc 1 1409 18 view .LVU899
 2670 0216 2248     		ldr	r0, .L170+12
 2671              	.LVL205:
1412:User/BME280/bme280.c **** }
 2672              		.loc 1 1412 5 is_stmt 1 view .LVU900
1412:User/BME280/bme280.c **** }
ARM GAS  C:\Users\upo\AppData\Local\Temp\ccJAZRXk.s 			page 91


 2673              		.loc 1 1412 5 is_stmt 0 view .LVU901
 2674              	.LBE226:
 2675              	.LBE230:
 842:User/BME280/bme280.c ****         }
 2676              		.loc 1 842 33 view .LVU902
 2677 0218 2860     		str	r0, [r5]
 2678 021a 98E7     		b	.L145
 2679              	.LVL206:
 2680              	.L169:
 836:User/BME280/bme280.c ****         }
 2681              		.loc 1 836 13 is_stmt 1 view .LVU903
 2682 021c 4B68     		ldr	r3, [r1, #4]
 2683              	.LVL207:
 2684              	.LBB231:
 2685              	.LBI231:
1273:User/BME280/bme280.c ****                                       struct bme280_calib_data *calib_data)
 2686              		.loc 1 1273 16 view .LVU904
 2687              	.LBB232:
1276:User/BME280/bme280.c ****     int32_t var2;
 2688              		.loc 1 1276 5 view .LVU905
1277:User/BME280/bme280.c ****     int32_t temperature;
 2689              		.loc 1 1277 5 view .LVU906
1278:User/BME280/bme280.c ****     int32_t temperature_min = -4000;
 2690              		.loc 1 1278 5 view .LVU907
1279:User/BME280/bme280.c ****     int32_t temperature_max = 8500;
 2691              		.loc 1 1279 5 view .LVU908
1280:User/BME280/bme280.c **** 
 2692              		.loc 1 1280 5 view .LVU909
1282:User/BME280/bme280.c ****     var1 = (var1 * ((int32_t)calib_data->dig_t2)) / 2048;
 2693              		.loc 1 1282 5 view .LVU910
1282:User/BME280/bme280.c ****     var1 = (var1 * ((int32_t)calib_data->dig_t2)) / 2048;
 2694              		.loc 1 1282 75 is_stmt 0 view .LVU911
 2695 021e 2088     		ldrh	r0, [r4]
 2696              	.LVL208:
1283:User/BME280/bme280.c ****     var2 = (int32_t)((uncomp_data->temperature / 16) - ((int32_t)calib_data->dig_t1));
 2697              		.loc 1 1283 5 is_stmt 1 view .LVU912
1282:User/BME280/bme280.c ****     var1 = (var1 * ((int32_t)calib_data->dig_t2)) / 2048;
 2698              		.loc 1 1282 48 is_stmt 0 view .LVU913
 2699 0220 D908     		lsrs	r1, r3, #3
 2700              	.LVL209:
1282:User/BME280/bme280.c ****     var1 = (var1 * ((int32_t)calib_data->dig_t2)) / 2048;
 2701              		.loc 1 1282 84 view .LVU914
 2702 0222 4200     		lsls	r2, r0, #1
 2703              	.LVL210:
1282:User/BME280/bme280.c ****     var1 = (var1 * ((int32_t)calib_data->dig_t2)) / 2048;
 2704              		.loc 1 1282 53 view .LVU915
 2705 0224 8A1A     		subs	r2, r1, r2
 2706 0226 9446     		mov	ip, r2
1283:User/BME280/bme280.c ****     var2 = (int32_t)((uncomp_data->temperature / 16) - ((int32_t)calib_data->dig_t1));
 2707              		.loc 1 1283 21 view .LVU916
 2708 0228 0221     		movs	r1, #2
 2709 022a 625E     		ldrsh	r2, [r4, r1]
1283:User/BME280/bme280.c ****     var2 = (int32_t)((uncomp_data->temperature / 16) - ((int32_t)calib_data->dig_t1));
 2710              		.loc 1 1283 18 view .LVU917
 2711 022c 6146     		mov	r1, ip
1284:User/BME280/bme280.c ****     var2 = (((var2 * var2) / 4096) * ((int32_t)calib_data->dig_t3)) / 16384;
 2712              		.loc 1 1284 48 view .LVU918
ARM GAS  C:\Users\upo\AppData\Local\Temp\ccJAZRXk.s 			page 92


 2713 022e 1B09     		lsrs	r3, r3, #4
 2714              	.LVL211:
1284:User/BME280/bme280.c ****     var2 = (((var2 * var2) / 4096) * ((int32_t)calib_data->dig_t3)) / 16384;
 2715              		.loc 1 1284 54 view .LVU919
 2716 0230 1B1A     		subs	r3, r3, r0
1285:User/BME280/bme280.c ****     calib_data->t_fine = var1 + var2;
 2717              		.loc 1 1285 20 view .LVU920
 2718 0232 5B43     		muls	r3, r3
1283:User/BME280/bme280.c ****     var2 = (int32_t)((uncomp_data->temperature / 16) - ((int32_t)calib_data->dig_t1));
 2719              		.loc 1 1283 18 view .LVU921
 2720 0234 4A43     		muls	r2, r1
 2721              	.LVL212:
1284:User/BME280/bme280.c ****     var2 = (((var2 * var2) / 4096) * ((int32_t)calib_data->dig_t3)) / 16384;
 2722              		.loc 1 1284 5 is_stmt 1 view .LVU922
1285:User/BME280/bme280.c ****     calib_data->t_fine = var1 + var2;
 2723              		.loc 1 1285 5 view .LVU923
1285:User/BME280/bme280.c ****     calib_data->t_fine = var1 + var2;
 2724              		.loc 1 1285 39 is_stmt 0 view .LVU924
 2725 0236 0420     		movs	r0, #4
 2726 0238 215E     		ldrsh	r1, [r4, r0]
1285:User/BME280/bme280.c ****     calib_data->t_fine = var1 + var2;
 2727              		.loc 1 1285 28 view .LVU925
 2728 023a 1B13     		asrs	r3, r3, #12
1285:User/BME280/bme280.c ****     calib_data->t_fine = var1 + var2;
 2729              		.loc 1 1285 36 view .LVU926
 2730 023c 5943     		muls	r1, r3
 2731              	.LVL213:
1286:User/BME280/bme280.c ****     temperature = (calib_data->t_fine * 5 + 128) / 256;
 2732              		.loc 1 1286 5 is_stmt 1 view .LVU927
1283:User/BME280/bme280.c ****     var2 = (int32_t)((uncomp_data->temperature / 16) - ((int32_t)calib_data->dig_t1));
 2733              		.loc 1 1283 10 is_stmt 0 view .LVU928
 2734 023e D317     		asrs	r3, r2, #31
 2735 0240 5B05     		lsls	r3, r3, #21
 2736 0242 5B0D     		lsrs	r3, r3, #21
 2737 0244 9B18     		adds	r3, r3, r2
1285:User/BME280/bme280.c ****     calib_data->t_fine = var1 + var2;
 2738              		.loc 1 1285 10 view .LVU929
 2739 0246 CA17     		asrs	r2, r1, #31
 2740              	.LVL214:
1285:User/BME280/bme280.c ****     calib_data->t_fine = var1 + var2;
 2741              		.loc 1 1285 10 view .LVU930
 2742 0248 9204     		lsls	r2, r2, #18
 2743 024a 920C     		lsrs	r2, r2, #18
 2744 024c 5218     		adds	r2, r2, r1
 2745 024e 9213     		asrs	r2, r2, #14
1283:User/BME280/bme280.c ****     var2 = (int32_t)((uncomp_data->temperature / 16) - ((int32_t)calib_data->dig_t1));
 2746              		.loc 1 1283 10 view .LVU931
 2747 0250 DB12     		asrs	r3, r3, #11
1286:User/BME280/bme280.c ****     temperature = (calib_data->t_fine * 5 + 128) / 256;
 2748              		.loc 1 1286 31 view .LVU932
 2749 0252 9B18     		adds	r3, r3, r2
1287:User/BME280/bme280.c **** 
 2750              		.loc 1 1287 39 view .LVU933
 2751 0254 9A00     		lsls	r2, r3, #2
1286:User/BME280/bme280.c ****     temperature = (calib_data->t_fine * 5 + 128) / 256;
 2752              		.loc 1 1286 24 view .LVU934
 2753 0256 6362     		str	r3, [r4, #36]
ARM GAS  C:\Users\upo\AppData\Local\Temp\ccJAZRXk.s 			page 93


1287:User/BME280/bme280.c **** 
 2754              		.loc 1 1287 5 is_stmt 1 view .LVU935
1287:User/BME280/bme280.c **** 
 2755              		.loc 1 1287 39 is_stmt 0 view .LVU936
 2756 0258 D318     		adds	r3, r2, r3
 2757              	.LVL215:
1289:User/BME280/bme280.c ****     {
 2758              		.loc 1 1289 5 is_stmt 1 view .LVU937
1289:User/BME280/bme280.c ****     {
 2759              		.loc 1 1289 8 is_stmt 0 view .LVU938
 2760 025a 134A     		ldr	r2, .L170+20
 2761 025c 9342     		cmp	r3, r2
 2762 025e 16DB     		blt	.L158
1293:User/BME280/bme280.c ****     {
 2763              		.loc 1 1293 10 is_stmt 1 view .LVU939
1293:User/BME280/bme280.c ****     {
 2764              		.loc 1 1293 13 is_stmt 0 view .LVU940
 2765 0260 124A     		ldr	r2, .L170+24
 2766 0262 9342     		cmp	r3, r2
 2767 0264 0EDC     		bgt	.L159
1287:User/BME280/bme280.c **** 
 2768              		.loc 1 1287 17 view .LVU941
 2769 0266 FF22     		movs	r2, #255
1287:User/BME280/bme280.c **** 
 2770              		.loc 1 1287 43 view .LVU942
 2771 0268 8033     		adds	r3, r3, #128
 2772              	.LVL216:
1287:User/BME280/bme280.c **** 
 2773              		.loc 1 1287 17 view .LVU943
 2774 026a D917     		asrs	r1, r3, #31
 2775              	.LVL217:
1287:User/BME280/bme280.c **** 
 2776              		.loc 1 1287 17 view .LVU944
 2777 026c 0A40     		ands	r2, r1
 2778 026e D318     		adds	r3, r2, r3
 2779              	.LVL218:
1287:User/BME280/bme280.c **** 
 2780              		.loc 1 1287 17 view .LVU945
 2781 0270 1B12     		asrs	r3, r3, #8
 2782              	.L144:
 2783              	.LVL219:
1297:User/BME280/bme280.c ****     return temperature;
 2784              		.loc 1 1297 5 is_stmt 1 view .LVU946
 2785              		.syntax divided
 2786              	@ 1297 "User/BME280/bme280.c" 1
 2787 0272 C046     		nop
 2788              	@ 0 "" 2
1298:User/BME280/bme280.c **** }
 2789              		.loc 1 1298 5 view .LVU947
 2790              	.LVL220:
1298:User/BME280/bme280.c **** }
 2791              		.loc 1 1298 5 is_stmt 0 view .LVU948
 2792              		.thumb
 2793              		.syntax unified
 2794              	.LBE232:
 2795              	.LBE231:
 836:User/BME280/bme280.c ****         }
ARM GAS  C:\Users\upo\AppData\Local\Temp\ccJAZRXk.s 			page 94


 2796              		.loc 1 836 36 view .LVU949
 2797 0274 6B60     		str	r3, [r5, #4]
 2798 0276 DEE6     		b	.L143
 2799              	.LVL221:
 2800              	.L147:
 2801              	.LBB235:
 2802              	.LBB227:
1391:User/BME280/bme280.c ****         }
 2803              		.loc 1 1391 13 is_stmt 1 view .LVU950
1391:User/BME280/bme280.c ****         }
 2804              		.loc 1 1391 34 is_stmt 0 view .LVU951
 2805 0278 0100     		movs	r1, r0
 2806 027a 1000     		movs	r0, r2
 2807              	.LVL222:
1391:User/BME280/bme280.c ****         }
 2808              		.loc 1 1391 34 view .LVU952
 2809 027c FFF7FEFF 		bl	__aeabi_uidiv
 2810              	.LVL223:
1391:User/BME280/bme280.c ****         }
 2811              		.loc 1 1391 22 view .LVU953
 2812 0280 4000     		lsls	r0, r0, #1
 2813              	.LVL224:
1391:User/BME280/bme280.c ****         }
 2814              		.loc 1 1391 22 view .LVU954
 2815 0282 3CE7     		b	.L148
 2816              	.LVL225:
 2817              	.L159:
1391:User/BME280/bme280.c ****         }
 2818              		.loc 1 1391 22 view .LVU955
 2819              	.LBE227:
 2820              	.LBE235:
 2821              	.LBB236:
 2822              	.LBB233:
1295:User/BME280/bme280.c ****     }
 2823              		.loc 1 1295 21 view .LVU956
 2824 0284 0A4B     		ldr	r3, .L170+28
 2825              	.LVL226:
1295:User/BME280/bme280.c ****     }
 2826              		.loc 1 1295 21 view .LVU957
 2827 0286 F4E7     		b	.L144
 2828              	.LVL227:
 2829              	.L157:
1295:User/BME280/bme280.c ****     }
 2830              		.loc 1 1295 21 view .LVU958
 2831              	.LBE233:
 2832              	.LBE236:
 853:User/BME280/bme280.c ****     }
 2833              		.loc 1 853 14 view .LVU959
 2834 0288 0120     		movs	r0, #1
 2835              	.LVL228:
 853:User/BME280/bme280.c ****     }
 2836              		.loc 1 853 14 view .LVU960
 2837 028a 4042     		rsbs	r0, r0, #0
 2838 028c BCE7     		b	.L142
 2839              	.LVL229:
 2840              	.L158:
 2841              	.LBB237:
ARM GAS  C:\Users\upo\AppData\Local\Temp\ccJAZRXk.s 			page 95


 2842              	.LBB234:
1291:User/BME280/bme280.c ****     }
 2843              		.loc 1 1291 21 view .LVU961
 2844 028e 094B     		ldr	r3, .L170+32
 2845              	.LVL230:
1291:User/BME280/bme280.c ****     }
 2846              		.loc 1 1291 21 view .LVU962
 2847 0290 EFE7     		b	.L144
 2848              	.L171:
 2849 0292 C046     		.align	2
 2850              	.L170:
 2851 0294 0006FFFF 		.word	-64000
 2852 0298 350C0000 		.word	3125
 2853 029c B0AD0100 		.word	110000
 2854 02a0 30750000 		.word	30000
 2855 02a4 00D4FEFF 		.word	-76800
 2856 02a8 815EF0FF 		.word	-1024383
 2857 02ac 7F342100 		.word	2176127
 2858 02b0 34210000 		.word	8500
 2859 02b4 60F0FFFF 		.word	-4000
 2860              	.LBE234:
 2861              	.LBE237:
 2862              		.cfi_endproc
 2863              	.LFE1435:
 2865              		.section	.text.bme280_get_sensor_data,"ax",%progbits
 2866              		.align	1
 2867              		.p2align 2,,3
 2868              		.global	bme280_get_sensor_data
 2869              		.syntax unified
 2870              		.code	16
 2871              		.thumb_func
 2873              	bme280_get_sensor_data:
 2874              	.LVL231:
 2875              	.LFB1433:
 748:User/BME280/bme280.c ****     int8_t rslt;
 2876              		.loc 1 748 1 is_stmt 1 view -0
 2877              		.cfi_startproc
 2878              		@ args = 0, pretend = 0, frame = 24
 2879              		@ frame_needed = 0, uses_anonymous_args = 0
 749:User/BME280/bme280.c **** 
 2880              		.loc 1 749 5 view .LVU964
 754:User/BME280/bme280.c ****     struct bme280_uncomp_data uncomp_data = {0};
 2881              		.loc 1 754 5 view .LVU965
 748:User/BME280/bme280.c ****     int8_t rslt;
 2882              		.loc 1 748 1 is_stmt 0 view .LVU966
 2883 0000 F0B5     		push	{r4, r5, r6, r7, lr}
 2884              	.LCFI17:
 2885              		.cfi_def_cfa_offset 20
 2886              		.cfi_offset 4, -20
 2887              		.cfi_offset 5, -16
 2888              		.cfi_offset 6, -12
 2889              		.cfi_offset 7, -8
 2890              		.cfi_offset 14, -4
 2891 0002 4746     		mov	r7, r8
 2892 0004 CE46     		mov	lr, r9
 2893 0006 80B5     		push	{r7, lr}
 2894              	.LCFI18:
ARM GAS  C:\Users\upo\AppData\Local\Temp\ccJAZRXk.s 			page 96


 2895              		.cfi_def_cfa_offset 28
 2896              		.cfi_offset 8, -28
 2897              		.cfi_offset 9, -24
 754:User/BME280/bme280.c ****     struct bme280_uncomp_data uncomp_data = {0};
 2898              		.loc 1 754 13 view .LVU967
 2899 0008 0027     		movs	r7, #0
 748:User/BME280/bme280.c ****     int8_t rslt;
 2900              		.loc 1 748 1 view .LVU968
 2901 000a 87B0     		sub	sp, sp, #28
 2902              	.LCFI19:
 2903              		.cfi_def_cfa_offset 56
 748:User/BME280/bme280.c ****     int8_t rslt;
 2904              		.loc 1 748 1 view .LVU969
 2905 000c 1400     		movs	r4, r2
 2906 000e 8046     		mov	r8, r0
 2907 0010 0E00     		movs	r6, r1
 755:User/BME280/bme280.c **** 
 2908              		.loc 1 755 31 view .LVU970
 2909 0012 0C22     		movs	r2, #12
 2910              	.LVL232:
 755:User/BME280/bme280.c **** 
 2911              		.loc 1 755 31 view .LVU971
 2912 0014 0021     		movs	r1, #0
 2913              	.LVL233:
 755:User/BME280/bme280.c **** 
 2914              		.loc 1 755 31 view .LVU972
 2915 0016 03A8     		add	r0, sp, #12
 2916              	.LVL234:
 754:User/BME280/bme280.c ****     struct bme280_uncomp_data uncomp_data = {0};
 2917              		.loc 1 754 13 view .LVU973
 2918 0018 0197     		str	r7, [sp, #4]
 2919 001a 0297     		str	r7, [sp, #8]
 755:User/BME280/bme280.c **** 
 2920              		.loc 1 755 5 is_stmt 1 view .LVU974
 755:User/BME280/bme280.c **** 
 2921              		.loc 1 755 31 is_stmt 0 view .LVU975
 2922 001c FFF7FEFF 		bl	memset
 2923              	.LVL235:
 758:User/BME280/bme280.c **** 
 2924              		.loc 1 758 5 is_stmt 1 view .LVU976
 2925              	.LBB246:
 2926              	.LBI246:
1581:User/BME280/bme280.c **** {
 2927              		.loc 1 1581 15 view .LVU977
 2928              	.LBB247:
1583:User/BME280/bme280.c **** 
 2929              		.loc 1 1583 5 view .LVU978
1585:User/BME280/bme280.c ****     {
 2930              		.loc 1 1585 5 view .LVU979
1585:User/BME280/bme280.c ****     {
 2931              		.loc 1 1585 8 is_stmt 0 view .LVU980
 2932 0020 002C     		cmp	r4, #0
 2933 0022 50D0     		beq	.L180
1585:User/BME280/bme280.c ****     {
 2934              		.loc 1 1585 30 view .LVU981
 2935 0024 E368     		ldr	r3, [r4, #12]
 2936 0026 9946     		mov	r9, r3
ARM GAS  C:\Users\upo\AppData\Local\Temp\ccJAZRXk.s 			page 97


1585:User/BME280/bme280.c ****     {
 2937              		.loc 1 1585 23 view .LVU982
 2938 0028 002B     		cmp	r3, #0
 2939 002a 4CD0     		beq	.L180
1585:User/BME280/bme280.c ****     {
 2940              		.loc 1 1585 46 view .LVU983
 2941 002c 2369     		ldr	r3, [r4, #16]
 2942 002e 002B     		cmp	r3, #0
 2943 0030 49D0     		beq	.L180
1585:User/BME280/bme280.c ****     {
 2944              		.loc 1 1585 70 view .LVU984
 2945 0032 6369     		ldr	r3, [r4, #20]
 2946 0034 002B     		cmp	r3, #0
 2947 0036 46D0     		beq	.L180
 2948              	.LVL236:
 2949              		.loc 1 1596 5 is_stmt 1 view .LVU985
 2950              		.loc 1 1596 5 is_stmt 0 view .LVU986
 2951              	.LBE247:
 2952              	.LBE246:
 760:User/BME280/bme280.c ****     {
 2953              		.loc 1 760 5 is_stmt 1 view .LVU987
 760:User/BME280/bme280.c ****     {
 2954              		.loc 1 760 29 is_stmt 0 view .LVU988
 2955 0038 002E     		cmp	r6, #0
 2956 003a 44D0     		beq	.L180
 763:User/BME280/bme280.c **** 
 2957              		.loc 1 763 9 is_stmt 1 view .LVU989
 2958              	.LVL237:
 2959              	.LBB248:
 2960              	.LBI248:
 462:User/BME280/bme280.c **** {
 2961              		.loc 1 462 8 view .LVU990
 2962              	.LBB249:
 464:User/BME280/bme280.c **** 
 2963              		.loc 1 464 5 view .LVU991
 467:User/BME280/bme280.c **** 
 2964              		.loc 1 467 5 view .LVU992
 467:User/BME280/bme280.c **** 
 2965              		.loc 1 467 10 is_stmt 0 view .LVU993
 2966 003c 6B46     		mov	r3, sp
 2967 003e DD1C     		adds	r5, r3, #3
 2968 0040 2F70     		strb	r7, [r5]
 470:User/BME280/bme280.c ****     {
 2969              		.loc 1 470 5 is_stmt 1 view .LVU994
 470:User/BME280/bme280.c ****     {
 2970              		.loc 1 470 15 is_stmt 0 view .LVU995
 2971 0042 2B78     		ldrb	r3, [r5]
 470:User/BME280/bme280.c ****     {
 2972              		.loc 1 470 8 view .LVU996
 2973 0044 002B     		cmp	r3, #0
 2974 0046 0AD0     		beq	.L184
 492:User/BME280/bme280.c ****     }
 2975              		.loc 1 492 9 is_stmt 1 view .LVU997
 492:User/BME280/bme280.c ****     }
 2976              		.loc 1 492 14 is_stmt 0 view .LVU998
 2977 0048 FF23     		movs	r3, #255
 2978 004a 2B70     		strb	r3, [r5]
ARM GAS  C:\Users\upo\AppData\Local\Temp\ccJAZRXk.s 			page 98


 2979              	.L175:
 495:User/BME280/bme280.c **** }
 2980              		.loc 1 495 5 is_stmt 1 view .LVU999
 495:User/BME280/bme280.c **** }
 2981              		.loc 1 495 12 is_stmt 0 view .LVU1000
 2982 004c 2B78     		ldrb	r3, [r5]
 2983 004e 58B2     		sxtb	r0, r3
 2984              	.LVL238:
 495:User/BME280/bme280.c **** }
 2985              		.loc 1 495 12 view .LVU1001
 2986              	.LBE249:
 2987              	.LBE248:
 765:User/BME280/bme280.c ****         {
 2988              		.loc 1 765 9 is_stmt 1 view .LVU1002
 765:User/BME280/bme280.c ****         {
 2989              		.loc 1 765 12 is_stmt 0 view .LVU1003
 2990 0050 002B     		cmp	r3, #0
 2991 0052 13D0     		beq	.L185
 2992              	.LVL239:
 2993              	.L173:
 781:User/BME280/bme280.c **** }
 2994              		.loc 1 781 5 is_stmt 1 view .LVU1004
 782:User/BME280/bme280.c **** 
 2995              		.loc 1 782 1 is_stmt 0 view .LVU1005
 2996 0054 07B0     		add	sp, sp, #28
 2997              		@ sp needed
 2998              	.LVL240:
 2999              	.LVL241:
 782:User/BME280/bme280.c **** 
 3000              		.loc 1 782 1 view .LVU1006
 3001 0056 C0BC     		pop	{r6, r7}
 3002 0058 B946     		mov	r9, r7
 3003 005a B046     		mov	r8, r6
 3004 005c F0BD     		pop	{r4, r5, r6, r7, pc}
 3005              	.LVL242:
 3006              	.L184:
 3007              	.LBB251:
 3008              	.LBB250:
 473:User/BME280/bme280.c ****         {
 3009              		.loc 1 473 9 is_stmt 1 view .LVU1007
 482:User/BME280/bme280.c **** 
 3010              		.loc 1 482 9 view .LVU1008
 482:User/BME280/bme280.c **** 
 3011              		.loc 1 482 26 is_stmt 0 view .LVU1009
 3012 005e 6368     		ldr	r3, [r4, #4]
 3013 0060 0822     		movs	r2, #8
 3014 0062 F720     		movs	r0, #247
 3015 0064 01A9     		add	r1, sp, #4
 3016              	.LVL243:
 482:User/BME280/bme280.c **** 
 3017              		.loc 1 482 26 view .LVU1010
 3018 0066 C847     		blx	r9
 3019              	.LVL244:
 482:User/BME280/bme280.c **** 
 3020              		.loc 1 482 24 view .LVU1011
 3021 0068 4523     		movs	r3, #69
 3022 006a E054     		strb	r0, [r4, r3]
ARM GAS  C:\Users\upo\AppData\Local\Temp\ccJAZRXk.s 			page 99


 485:User/BME280/bme280.c ****         {
 3023              		.loc 1 485 9 is_stmt 1 view .LVU1012
 485:User/BME280/bme280.c ****         {
 3024              		.loc 1 485 12 is_stmt 0 view .LVU1013
 3025 006c 0028     		cmp	r0, #0
 3026 006e EDD0     		beq	.L175
 487:User/BME280/bme280.c ****         }
 3027              		.loc 1 487 13 is_stmt 1 view .LVU1014
 487:User/BME280/bme280.c ****         }
 3028              		.loc 1 487 18 is_stmt 0 view .LVU1015
 3029 0070 B733     		adds	r3, r3, #183
 3030 0072 2B70     		strb	r3, [r5]
 495:User/BME280/bme280.c **** }
 3031              		.loc 1 495 5 is_stmt 1 view .LVU1016
 495:User/BME280/bme280.c **** }
 3032              		.loc 1 495 12 is_stmt 0 view .LVU1017
 3033 0074 2B78     		ldrb	r3, [r5]
 3034 0076 58B2     		sxtb	r0, r3
 3035              	.LVL245:
 495:User/BME280/bme280.c **** }
 3036              		.loc 1 495 12 view .LVU1018
 3037              	.LBE250:
 3038              	.LBE251:
 765:User/BME280/bme280.c ****         {
 3039              		.loc 1 765 9 is_stmt 1 view .LVU1019
 765:User/BME280/bme280.c ****         {
 3040              		.loc 1 765 12 is_stmt 0 view .LVU1020
 3041 0078 002B     		cmp	r3, #0
 3042 007a EBD1     		bne	.L173
 3043              	.L185:
 768:User/BME280/bme280.c **** 
 3044              		.loc 1 768 13 is_stmt 1 view .LVU1021
 3045              	.LVL246:
 3046              	.LBB252:
 3047              	.LBI252:
 788:User/BME280/bme280.c **** {
 3048              		.loc 1 788 6 view .LVU1022
 3049              	.LBB253:
 791:User/BME280/bme280.c ****     uint32_t data_lsb;
 3050              		.loc 1 791 5 view .LVU1023
 792:User/BME280/bme280.c ****     uint32_t data_msb;
 3051              		.loc 1 792 5 view .LVU1024
 793:User/BME280/bme280.c **** 
 3052              		.loc 1 793 5 view .LVU1025
 796:User/BME280/bme280.c ****     data_lsb = (uint32_t)reg_data[1] << 4;
 3053              		.loc 1 796 5 view .LVU1026
 797:User/BME280/bme280.c ****     data_xlsb = (uint32_t)reg_data[2] >> 4;
 3054              		.loc 1 797 5 view .LVU1027
 798:User/BME280/bme280.c ****     uncomp_data->pressure = data_msb | data_lsb | data_xlsb;
 3055              		.loc 1 798 5 view .LVU1028
 799:User/BME280/bme280.c **** 
 3056              		.loc 1 799 5 view .LVU1029
 796:User/BME280/bme280.c ****     data_lsb = (uint32_t)reg_data[1] << 4;
 3057              		.loc 1 796 16 is_stmt 0 view .LVU1030
 3058 007c 6B46     		mov	r3, sp
 797:User/BME280/bme280.c ****     data_xlsb = (uint32_t)reg_data[2] >> 4;
 3059              		.loc 1 797 16 view .LVU1031
ARM GAS  C:\Users\upo\AppData\Local\Temp\ccJAZRXk.s 			page 100


 3060 007e 6A46     		mov	r2, sp
 796:User/BME280/bme280.c ****     data_lsb = (uint32_t)reg_data[1] << 4;
 3061              		.loc 1 796 16 view .LVU1032
 3062 0080 1B79     		ldrb	r3, [r3, #4]
 797:User/BME280/bme280.c ****     data_xlsb = (uint32_t)reg_data[2] >> 4;
 3063              		.loc 1 797 16 view .LVU1033
 3064 0082 5279     		ldrb	r2, [r2, #5]
 796:User/BME280/bme280.c ****     data_lsb = (uint32_t)reg_data[1] << 4;
 3065              		.loc 1 796 14 view .LVU1034
 3066 0084 1B03     		lsls	r3, r3, #12
 797:User/BME280/bme280.c ****     data_xlsb = (uint32_t)reg_data[2] >> 4;
 3067              		.loc 1 797 14 view .LVU1035
 3068 0086 1201     		lsls	r2, r2, #4
 799:User/BME280/bme280.c **** 
 3069              		.loc 1 799 38 view .LVU1036
 3070 0088 1343     		orrs	r3, r2
 798:User/BME280/bme280.c ****     uncomp_data->pressure = data_msb | data_lsb | data_xlsb;
 3071              		.loc 1 798 39 view .LVU1037
 3072 008a 6A46     		mov	r2, sp
 3073 008c 9279     		ldrb	r2, [r2, #6]
 3074              	.LBE253:
 3075              	.LBE252:
 773:User/BME280/bme280.c ****         }
 3076              		.loc 1 773 20 view .LVU1038
 3077 008e 4046     		mov	r0, r8
 3078              	.LVL247:
 3079              	.LBB257:
 3080              	.LBB254:
 798:User/BME280/bme280.c ****     uncomp_data->pressure = data_msb | data_lsb | data_xlsb;
 3081              		.loc 1 798 15 view .LVU1039
 3082 0090 1209     		lsrs	r2, r2, #4
 799:User/BME280/bme280.c **** 
 3083              		.loc 1 799 49 view .LVU1040
 3084 0092 1343     		orrs	r3, r2
 799:User/BME280/bme280.c **** 
 3085              		.loc 1 799 27 view .LVU1041
 3086 0094 0393     		str	r3, [sp, #12]
 802:User/BME280/bme280.c ****     data_lsb = (uint32_t)reg_data[4] << 4;
 3087              		.loc 1 802 5 is_stmt 1 view .LVU1042
 3088              	.LVL248:
 803:User/BME280/bme280.c ****     data_xlsb = (uint32_t)reg_data[5] >> 4;
 3089              		.loc 1 803 5 view .LVU1043
 804:User/BME280/bme280.c ****     uncomp_data->temperature = data_msb | data_lsb | data_xlsb;
 3090              		.loc 1 804 5 view .LVU1044
 805:User/BME280/bme280.c **** 
 3091              		.loc 1 805 5 view .LVU1045
 803:User/BME280/bme280.c ****     data_xlsb = (uint32_t)reg_data[5] >> 4;
 3092              		.loc 1 803 16 is_stmt 0 view .LVU1046
 3093 0096 6A46     		mov	r2, sp
 802:User/BME280/bme280.c ****     data_lsb = (uint32_t)reg_data[4] << 4;
 3094              		.loc 1 802 16 view .LVU1047
 3095 0098 6B46     		mov	r3, sp
 803:User/BME280/bme280.c ****     data_xlsb = (uint32_t)reg_data[5] >> 4;
 3096              		.loc 1 803 16 view .LVU1048
 3097 009a 127A     		ldrb	r2, [r2, #8]
 802:User/BME280/bme280.c ****     data_lsb = (uint32_t)reg_data[4] << 4;
 3098              		.loc 1 802 16 view .LVU1049
ARM GAS  C:\Users\upo\AppData\Local\Temp\ccJAZRXk.s 			page 101


 3099 009c DB79     		ldrb	r3, [r3, #7]
 803:User/BME280/bme280.c ****     data_xlsb = (uint32_t)reg_data[5] >> 4;
 3100              		.loc 1 803 14 view .LVU1050
 3101 009e 1201     		lsls	r2, r2, #4
 802:User/BME280/bme280.c ****     data_lsb = (uint32_t)reg_data[4] << 4;
 3102              		.loc 1 802 14 view .LVU1051
 3103 00a0 1B03     		lsls	r3, r3, #12
 805:User/BME280/bme280.c **** 
 3104              		.loc 1 805 41 view .LVU1052
 3105 00a2 1343     		orrs	r3, r2
 804:User/BME280/bme280.c ****     uncomp_data->temperature = data_msb | data_lsb | data_xlsb;
 3106              		.loc 1 804 39 view .LVU1053
 3107 00a4 6A46     		mov	r2, sp
 3108 00a6 527A     		ldrb	r2, [r2, #9]
 3109              	.LBE254:
 3110              	.LBE257:
 773:User/BME280/bme280.c ****         }
 3111              		.loc 1 773 20 view .LVU1054
 3112 00a8 03A9     		add	r1, sp, #12
 3113              	.LVL249:
 3114              	.LBB258:
 3115              	.LBB255:
 804:User/BME280/bme280.c ****     uncomp_data->temperature = data_msb | data_lsb | data_xlsb;
 3116              		.loc 1 804 15 view .LVU1055
 3117 00aa 1209     		lsrs	r2, r2, #4
 805:User/BME280/bme280.c **** 
 3118              		.loc 1 805 52 view .LVU1056
 3119 00ac 1343     		orrs	r3, r2
 805:User/BME280/bme280.c **** 
 3120              		.loc 1 805 30 view .LVU1057
 3121 00ae 0493     		str	r3, [sp, #16]
 808:User/BME280/bme280.c ****     data_lsb = (uint32_t)reg_data[7];
 3122              		.loc 1 808 5 is_stmt 1 view .LVU1058
 3123              	.LVL250:
 809:User/BME280/bme280.c ****     uncomp_data->humidity = data_msb | data_lsb;
 3124              		.loc 1 809 5 view .LVU1059
 810:User/BME280/bme280.c **** }
 3125              		.loc 1 810 5 view .LVU1060
 810:User/BME280/bme280.c **** }
 3126              		.loc 1 810 27 is_stmt 0 view .LVU1061
 3127 00b0 6B46     		mov	r3, sp
 3128 00b2 5B89     		ldrh	r3, [r3, #10]
 3129              	.LBE255:
 3130              	.LBE258:
 773:User/BME280/bme280.c ****         }
 3131              		.loc 1 773 20 view .LVU1062
 3132 00b4 3200     		movs	r2, r6
 3133              	.LBB259:
 3134              	.LBB256:
 810:User/BME280/bme280.c **** }
 3135              		.loc 1 810 27 view .LVU1063
 3136 00b6 5BBA     		rev16	r3, r3
 3137 00b8 9BB2     		uxth	r3, r3
 3138 00ba 0593     		str	r3, [sp, #20]
 3139              	.LVL251:
 810:User/BME280/bme280.c **** }
 3140              		.loc 1 810 27 view .LVU1064
ARM GAS  C:\Users\upo\AppData\Local\Temp\ccJAZRXk.s 			page 102


 3141              	.LBE256:
 3142              	.LBE259:
 773:User/BME280/bme280.c ****         }
 3143              		.loc 1 773 13 is_stmt 1 view .LVU1065
 773:User/BME280/bme280.c ****         }
 3144              		.loc 1 773 20 is_stmt 0 view .LVU1066
 3145 00bc 2300     		movs	r3, r4
 3146 00be 1833     		adds	r3, r3, #24
 3147 00c0 FFF7FEFF 		bl	bme280_compensate_data
 3148              	.LVL252:
 773:User/BME280/bme280.c ****         }
 3149              		.loc 1 773 20 view .LVU1067
 3150 00c4 C6E7     		b	.L173
 3151              	.LVL253:
 3152              	.L180:
 778:User/BME280/bme280.c ****     }
 3153              		.loc 1 778 14 view .LVU1068
 3154 00c6 0120     		movs	r0, #1
 3155 00c8 4042     		rsbs	r0, r0, #0
 3156 00ca C3E7     		b	.L173
 3157              		.cfi_endproc
 3158              	.LFE1433:
 3160              		.global	__aeabi_idiv
 3161              		.section	.text.bme280_cal_meas_delay,"ax",%progbits
 3162              		.align	1
 3163              		.p2align 2,,3
 3164              		.global	bme280_cal_meas_delay
 3165              		.syntax unified
 3166              		.code	16
 3167              		.thumb_func
 3169              	bme280_cal_meas_delay:
 3170              	.LVL254:
 3171              	.LFB1436:
 864:User/BME280/bme280.c ****     uint32_t max_delay;
 3172              		.loc 1 864 1 is_stmt 1 view -0
 3173              		.cfi_startproc
 3174              		@ args = 0, pretend = 0, frame = 8
 3175              		@ frame_needed = 0, uses_anonymous_args = 0
 865:User/BME280/bme280.c ****     uint8_t temp_osr;
 3176              		.loc 1 865 5 view .LVU1070
 866:User/BME280/bme280.c ****     uint8_t pres_osr;
 3177              		.loc 1 866 5 view .LVU1071
 867:User/BME280/bme280.c ****     uint8_t hum_osr;
 3178              		.loc 1 867 5 view .LVU1072
 868:User/BME280/bme280.c **** 
 3179              		.loc 1 868 5 view .LVU1073
 871:User/BME280/bme280.c **** 
 3180              		.loc 1 871 5 view .LVU1074
 864:User/BME280/bme280.c ****     uint32_t max_delay;
 3181              		.loc 1 864 1 is_stmt 0 view .LVU1075
 3182 0000 00B5     		push	{lr}
 3183              	.LCFI20:
 3184              		.cfi_def_cfa_offset 4
 3185              		.cfi_offset 14, -4
 871:User/BME280/bme280.c **** 
 3186              		.loc 1 871 13 view .LVU1076
 3187 0002 204A     		ldr	r2, .L195
ARM GAS  C:\Users\upo\AppData\Local\Temp\ccJAZRXk.s 			page 103


 864:User/BME280/bme280.c ****     uint32_t max_delay;
 3188              		.loc 1 864 1 view .LVU1077
 3189 0004 83B0     		sub	sp, sp, #12
 3190              	.LCFI21:
 3191              		.cfi_def_cfa_offset 16
 871:User/BME280/bme280.c **** 
 3192              		.loc 1 871 13 view .LVU1078
 3193 0006 1168     		ldr	r1, [r2]
 864:User/BME280/bme280.c ****     uint32_t max_delay;
 3194              		.loc 1 864 1 view .LVU1079
 3195 0008 0300     		movs	r3, r0
 871:User/BME280/bme280.c **** 
 3196              		.loc 1 871 13 view .LVU1080
 3197 000a 0091     		str	r1, [sp]
 3198 000c 6946     		mov	r1, sp
 3199 000e 9288     		ldrh	r2, [r2, #4]
 3200 0010 8A80     		strh	r2, [r1, #4]
 874:User/BME280/bme280.c ****     {
 3201              		.loc 1 874 5 is_stmt 1 view .LVU1081
 874:User/BME280/bme280.c ****     {
 3202              		.loc 1 874 17 is_stmt 0 view .LVU1082
 3203 0012 4278     		ldrb	r2, [r0, #1]
 874:User/BME280/bme280.c ****     {
 3204              		.loc 1 874 8 view .LVU1083
 3205 0014 052A     		cmp	r2, #5
 3206 0016 2AD8     		bhi	.L190
 876:User/BME280/bme280.c ****     }
 3207              		.loc 1 876 9 is_stmt 1 view .LVU1084
 3208              	.LVL255:
 902:User/BME280/bme280.c ****                     ((BME280_MEAS_DUR * pres_osr) + BME280_PRES_HUM_MEAS_OFFSET) +
 3209              		.loc 1 902 59 is_stmt 0 view .LVU1085
 3210 0018 8A5C     		ldrb	r2, [r1, r2]
 3211              	.LVL256:
 902:User/BME280/bme280.c ****                     ((BME280_MEAS_DUR * pres_osr) + BME280_PRES_HUM_MEAS_OFFSET) +
 3212              		.loc 1 902 59 view .LVU1086
 3213 001a D000     		lsls	r0, r2, #3
 3214              	.LVL257:
 902:User/BME280/bme280.c ****                     ((BME280_MEAS_DUR * pres_osr) + BME280_PRES_HUM_MEAS_OFFSET) +
 3215              		.loc 1 902 59 view .LVU1087
 3216 001c 8018     		adds	r0, r0, r2
 3217 001e 8001     		lsls	r0, r0, #6
 3218 0020 801A     		subs	r0, r0, r2
 902:User/BME280/bme280.c ****                     ((BME280_MEAS_DUR * pres_osr) + BME280_PRES_HUM_MEAS_OFFSET) +
 3219              		.loc 1 902 40 view .LVU1088
 3220 0022 194A     		ldr	r2, .L195+4
 902:User/BME280/bme280.c ****                     ((BME280_MEAS_DUR * pres_osr) + BME280_PRES_HUM_MEAS_OFFSET) +
 3221              		.loc 1 902 59 view .LVU1089
 3222 0024 8000     		lsls	r0, r0, #2
 902:User/BME280/bme280.c ****                     ((BME280_MEAS_DUR * pres_osr) + BME280_PRES_HUM_MEAS_OFFSET) +
 3223              		.loc 1 902 40 view .LVU1090
 3224 0026 9446     		mov	ip, r2
 883:User/BME280/bme280.c ****     {
 3225              		.loc 1 883 17 view .LVU1091
 3226 0028 1A78     		ldrb	r2, [r3]
 902:User/BME280/bme280.c ****                     ((BME280_MEAS_DUR * pres_osr) + BME280_PRES_HUM_MEAS_OFFSET) +
 3227              		.loc 1 902 40 view .LVU1092
 3228 002a 6044     		add	r0, r0, ip
ARM GAS  C:\Users\upo\AppData\Local\Temp\ccJAZRXk.s 			page 104


 3229              	.LVL258:
 883:User/BME280/bme280.c ****     {
 3230              		.loc 1 883 5 is_stmt 1 view .LVU1093
 883:User/BME280/bme280.c ****     {
 3231              		.loc 1 883 8 is_stmt 0 view .LVU1094
 3232 002c 052A     		cmp	r2, #5
 3233 002e 22D8     		bhi	.L191
 3234              	.L193:
 885:User/BME280/bme280.c ****     }
 3235              		.loc 1 885 9 is_stmt 1 view .LVU1095
 3236              	.LVL259:
 903:User/BME280/bme280.c ****                     ((BME280_MEAS_DUR * hum_osr) + BME280_PRES_HUM_MEAS_OFFSET)) /
 3237              		.loc 1 903 39 is_stmt 0 view .LVU1096
 3238 0030 6946     		mov	r1, sp
 3239 0032 895C     		ldrb	r1, [r1, r2]
 892:User/BME280/bme280.c ****     {
 3240              		.loc 1 892 17 view .LVU1097
 3241 0034 9B78     		ldrb	r3, [r3, #2]
 3242              	.LVL260:
 903:User/BME280/bme280.c ****                     ((BME280_MEAS_DUR * hum_osr) + BME280_PRES_HUM_MEAS_OFFSET)) /
 3243              		.loc 1 903 39 view .LVU1098
 3244 0036 CA00     		lsls	r2, r1, #3
 3245              	.LVL261:
 903:User/BME280/bme280.c ****                     ((BME280_MEAS_DUR * hum_osr) + BME280_PRES_HUM_MEAS_OFFSET)) /
 3246              		.loc 1 903 39 view .LVU1099
 3247 0038 5218     		adds	r2, r2, r1
 3248 003a 9201     		lsls	r2, r2, #6
 3249 003c 521A     		subs	r2, r2, r1
 903:User/BME280/bme280.c ****                     ((BME280_MEAS_DUR * hum_osr) + BME280_PRES_HUM_MEAS_OFFSET)) /
 3250              		.loc 1 903 51 view .LVU1100
 3251 003e 1349     		ldr	r1, .L195+8
 903:User/BME280/bme280.c ****                     ((BME280_MEAS_DUR * hum_osr) + BME280_PRES_HUM_MEAS_OFFSET)) /
 3252              		.loc 1 903 39 view .LVU1101
 3253 0040 9200     		lsls	r2, r2, #2
 903:User/BME280/bme280.c ****                     ((BME280_MEAS_DUR * hum_osr) + BME280_PRES_HUM_MEAS_OFFSET)) /
 3254              		.loc 1 903 51 view .LVU1102
 3255 0042 8C46     		mov	ip, r1
 3256 0044 6244     		add	r2, r2, ip
 3257              	.LVL262:
 892:User/BME280/bme280.c ****     {
 3258              		.loc 1 892 5 is_stmt 1 view .LVU1103
 892:User/BME280/bme280.c ****     {
 3259              		.loc 1 892 8 is_stmt 0 view .LVU1104
 3260 0046 052B     		cmp	r3, #5
 3261 0048 19D8     		bhi	.L192
 3262              	.L194:
 894:User/BME280/bme280.c ****     }
 3263              		.loc 1 894 9 is_stmt 1 view .LVU1105
 3264              	.LVL263:
 904:User/BME280/bme280.c ****                    BME280_MEAS_SCALING_FACTOR);
 3265              		.loc 1 904 39 is_stmt 0 view .LVU1106
 3266 004a 6946     		mov	r1, sp
 3267 004c C95C     		ldrb	r1, [r1, r3]
 3268 004e CB00     		lsls	r3, r1, #3
 3269              	.LVL264:
 904:User/BME280/bme280.c ****                    BME280_MEAS_SCALING_FACTOR);
 3270              		.loc 1 904 39 view .LVU1107
ARM GAS  C:\Users\upo\AppData\Local\Temp\ccJAZRXk.s 			page 105


 3271 0050 5B18     		adds	r3, r3, r1
 3272 0052 9B01     		lsls	r3, r3, #6
 3273 0054 5B1A     		subs	r3, r3, r1
 904:User/BME280/bme280.c ****                    BME280_MEAS_SCALING_FACTOR);
 3274              		.loc 1 904 50 view .LVU1108
 3275 0056 0D49     		ldr	r1, .L195+8
 904:User/BME280/bme280.c ****                    BME280_MEAS_SCALING_FACTOR);
 3276              		.loc 1 904 39 view .LVU1109
 3277 0058 9B00     		lsls	r3, r3, #2
 904:User/BME280/bme280.c ****                    BME280_MEAS_SCALING_FACTOR);
 3278              		.loc 1 904 50 view .LVU1110
 3279 005a 8C46     		mov	ip, r1
 3280 005c 6344     		add	r3, r3, ip
 3281              	.LVL265:
 3282              	.L189:
 901:User/BME280/bme280.c ****         (uint32_t)((BME280_MEAS_OFFSET + (BME280_MEAS_DUR * temp_osr) +
 3283              		.loc 1 901 5 is_stmt 1 view .LVU1111
 907:User/BME280/bme280.c **** }
 3284              		.loc 1 907 5 view .LVU1112
 904:User/BME280/bme280.c ****                    BME280_MEAS_SCALING_FACTOR);
 3285              		.loc 1 904 82 is_stmt 0 view .LVU1113
 3286 005e FA21     		movs	r1, #250
 902:User/BME280/bme280.c ****                     ((BME280_MEAS_DUR * pres_osr) + BME280_PRES_HUM_MEAS_OFFSET) +
 3287              		.loc 1 902 71 view .LVU1114
 3288 0060 8018     		adds	r0, r0, r2
 3289              	.LVL266:
 903:User/BME280/bme280.c ****                     ((BME280_MEAS_DUR * hum_osr) + BME280_PRES_HUM_MEAS_OFFSET)) /
 3290              		.loc 1 903 82 view .LVU1115
 3291 0062 C018     		adds	r0, r0, r3
 904:User/BME280/bme280.c ****                    BME280_MEAS_SCALING_FACTOR);
 3292              		.loc 1 904 82 view .LVU1116
 3293 0064 8900     		lsls	r1, r1, #2
 3294 0066 FFF7FEFF 		bl	__aeabi_idiv
 3295              	.LVL267:
 908:User/BME280/bme280.c **** 
 3296              		.loc 1 908 1 view .LVU1117
 3297 006a 03B0     		add	sp, sp, #12
 3298              		@ sp needed
 3299 006c 00BD     		pop	{pc}
 3300              	.LVL268:
 3301              	.L190:
 883:User/BME280/bme280.c ****     {
 3302              		.loc 1 883 17 view .LVU1118
 3303 006e 1A78     		ldrb	r2, [r3]
 3304 0070 0748     		ldr	r0, .L195+12
 3305              	.LVL269:
 883:User/BME280/bme280.c ****     {
 3306              		.loc 1 883 5 is_stmt 1 view .LVU1119
 883:User/BME280/bme280.c ****     {
 3307              		.loc 1 883 8 is_stmt 0 view .LVU1120
 3308 0072 052A     		cmp	r2, #5
 3309 0074 DCD9     		bls	.L193
 3310              	.L191:
 892:User/BME280/bme280.c ****     {
 3311              		.loc 1 892 17 view .LVU1121
 3312 0076 9B78     		ldrb	r3, [r3, #2]
 3313              	.LVL270:
ARM GAS  C:\Users\upo\AppData\Local\Temp\ccJAZRXk.s 			page 106


 892:User/BME280/bme280.c ****     {
 3314              		.loc 1 892 17 view .LVU1122
 3315 0078 064A     		ldr	r2, .L195+16
 892:User/BME280/bme280.c ****     {
 3316              		.loc 1 892 5 is_stmt 1 view .LVU1123
 892:User/BME280/bme280.c ****     {
 3317              		.loc 1 892 8 is_stmt 0 view .LVU1124
 3318 007a 052B     		cmp	r3, #5
 3319 007c E5D9     		bls	.L194
 3320              	.L192:
 892:User/BME280/bme280.c ****     {
 3321              		.loc 1 892 8 view .LVU1125
 3322 007e 054B     		ldr	r3, .L195+16
 3323 0080 EDE7     		b	.L189
 3324              	.L196:
 3325 0082 C046     		.align	2
 3326              	.L195:
 3327 0084 00000000 		.word	.LANCHOR0
 3328 0088 E2040000 		.word	1250
 3329 008c 3F020000 		.word	575
 3330 0090 A2940000 		.word	38050
 3331 0094 FF910000 		.word	37375
 3332              		.cfi_endproc
 3333              	.LFE1436:
 3335              		.section	.text.put_device_to_sleep,"ax",%progbits
 3336              		.align	1
 3337              		.p2align 2,,3
 3338              		.global	put_device_to_sleep
 3339              		.syntax unified
 3340              		.code	16
 3341              		.thumb_func
 3343              	put_device_to_sleep:
 3344              	.LVL271:
 3345              	.LFB1447:
1109:User/BME280/bme280.c ****     int8_t rslt;
 3346              		.loc 1 1109 1 is_stmt 1 view -0
 3347              		.cfi_startproc
 3348              		@ args = 0, pretend = 0, frame = 32
 3349              		@ frame_needed = 0, uses_anonymous_args = 0
1110:User/BME280/bme280.c ****     uint8_t reg_data[4];
 3350              		.loc 1 1110 5 view .LVU1127
1111:User/BME280/bme280.c ****     struct bme280_settings settings;
 3351              		.loc 1 1111 5 view .LVU1128
1112:User/BME280/bme280.c **** 
 3352              		.loc 1 1112 5 view .LVU1129
1114:User/BME280/bme280.c **** 
 3353              		.loc 1 1114 5 view .LVU1130
1109:User/BME280/bme280.c ****     int8_t rslt;
 3354              		.loc 1 1109 1 is_stmt 0 view .LVU1131
 3355 0000 F0B5     		push	{r4, r5, r6, r7, lr}
 3356              	.LCFI22:
 3357              		.cfi_def_cfa_offset 20
 3358              		.cfi_offset 4, -20
 3359              		.cfi_offset 5, -16
 3360              		.cfi_offset 6, -12
 3361              		.cfi_offset 7, -8
 3362              		.cfi_offset 14, -4
ARM GAS  C:\Users\upo\AppData\Local\Temp\ccJAZRXk.s 			page 107


 3363 0002 D646     		mov	lr, r10
 3364 0004 4F46     		mov	r7, r9
 3365 0006 4646     		mov	r6, r8
 3366 0008 C0B5     		push	{r6, r7, lr}
 3367              	.LCFI23:
 3368              		.cfi_def_cfa_offset 32
 3369              		.cfi_offset 8, -32
 3370              		.cfi_offset 9, -28
 3371              		.cfi_offset 10, -24
 3372 000a 0400     		movs	r4, r0
 3373 000c 88B0     		sub	sp, sp, #32
 3374              	.LCFI24:
 3375              		.cfi_def_cfa_offset 64
 3376              	.LVL272:
 3377              	.LBB320:
 3378              	.LBI320:
 462:User/BME280/bme280.c **** {
 3379              		.loc 1 462 8 is_stmt 1 view .LVU1132
 3380              	.LBB321:
 464:User/BME280/bme280.c **** 
 3381              		.loc 1 464 5 view .LVU1133
 467:User/BME280/bme280.c **** 
 3382              		.loc 1 467 5 view .LVU1134
 3383              	.LBB322:
 3384              	.LBI322:
1581:User/BME280/bme280.c **** {
 3385              		.loc 1 1581 15 view .LVU1135
 3386              	.LBB323:
1583:User/BME280/bme280.c **** 
 3387              		.loc 1 1583 5 view .LVU1136
1585:User/BME280/bme280.c ****     {
 3388              		.loc 1 1585 5 view .LVU1137
1585:User/BME280/bme280.c ****     {
 3389              		.loc 1 1585 8 is_stmt 0 view .LVU1138
 3390 000e 0028     		cmp	r0, #0
 3391 0010 00D1     		bne	.LCB3285
 3392 0012 3BE1     		b	.L242	@long jump
 3393              	.LCB3285:
1585:User/BME280/bme280.c ****     {
 3394              		.loc 1 1585 23 view .LVU1139
 3395 0014 C368     		ldr	r3, [r0, #12]
 3396 0016 002B     		cmp	r3, #0
 3397 0018 00D1     		bne	.LCB3288
 3398 001a 37E1     		b	.L242	@long jump
 3399              	.LCB3288:
1585:User/BME280/bme280.c ****     {
 3400              		.loc 1 1585 46 view .LVU1140
 3401 001c 0369     		ldr	r3, [r0, #16]
 3402 001e 002B     		cmp	r3, #0
 3403 0020 00D1     		bne	.LCB3291
 3404 0022 33E1     		b	.L242	@long jump
 3405              	.LCB3291:
1585:User/BME280/bme280.c ****     {
 3406              		.loc 1 1585 70 view .LVU1141
 3407 0024 4369     		ldr	r3, [r0, #20]
 3408 0026 5A42     		rsbs	r2, r3, #0
 3409 0028 5341     		adcs	r3, r3, r2
ARM GAS  C:\Users\upo\AppData\Local\Temp\ccJAZRXk.s 			page 108


 3410 002a 5B42     		rsbs	r3, r3, #0
 3411              	.L198:
 3412              	.LVL273:
 3413              		.loc 1 1596 5 is_stmt 1 view .LVU1142
 3414              		.loc 1 1596 5 is_stmt 0 view .LVU1143
 3415              	.LBE323:
 3416              	.LBE322:
 467:User/BME280/bme280.c **** 
 3417              		.loc 1 467 10 view .LVU1144
 3418 002c 6A46     		mov	r2, sp
 3419 002e D370     		strb	r3, [r2, #3]
 470:User/BME280/bme280.c ****     {
 3420              		.loc 1 470 5 is_stmt 1 view .LVU1145
 470:User/BME280/bme280.c ****     {
 3421              		.loc 1 470 15 is_stmt 0 view .LVU1146
 3422 0030 D378     		ldrb	r3, [r2, #3]
 467:User/BME280/bme280.c **** 
 3423              		.loc 1 467 10 view .LVU1147
 3424 0032 D51C     		adds	r5, r2, #3
 470:User/BME280/bme280.c ****     {
 3425              		.loc 1 470 8 view .LVU1148
 3426 0034 002B     		cmp	r3, #0
 3427 0036 14D1     		bne	.L199
 473:User/BME280/bme280.c ****         {
 3428              		.loc 1 473 9 is_stmt 1 view .LVU1149
 482:User/BME280/bme280.c **** 
 3429              		.loc 1 482 9 view .LVU1150
 482:User/BME280/bme280.c **** 
 3430              		.loc 1 482 26 is_stmt 0 view .LVU1151
 3431 0038 6368     		ldr	r3, [r4, #4]
 3432 003a 0422     		movs	r2, #4
 3433 003c F220     		movs	r0, #242
 3434              	.LVL274:
 482:User/BME280/bme280.c **** 
 3435              		.loc 1 482 26 view .LVU1152
 3436 003e E668     		ldr	r6, [r4, #12]
 3437 0040 02A9     		add	r1, sp, #8
 3438              	.LVL275:
 482:User/BME280/bme280.c **** 
 3439              		.loc 1 482 26 view .LVU1153
 3440 0042 B047     		blx	r6
 3441              	.LVL276:
 482:User/BME280/bme280.c **** 
 3442              		.loc 1 482 24 view .LVU1154
 3443 0044 4523     		movs	r3, #69
 3444 0046 E054     		strb	r0, [r4, r3]
 485:User/BME280/bme280.c ****         {
 3445              		.loc 1 485 9 is_stmt 1 view .LVU1155
 485:User/BME280/bme280.c ****         {
 3446              		.loc 1 485 12 is_stmt 0 view .LVU1156
 3447 0048 0028     		cmp	r0, #0
 3448 004a 00D0     		beq	.LCB3329
 3449 004c 97E0     		b	.L308	@long jump
 3450              	.LCB3329:
 3451              	.L200:
 495:User/BME280/bme280.c **** }
 3452              		.loc 1 495 5 is_stmt 1 view .LVU1157
ARM GAS  C:\Users\upo\AppData\Local\Temp\ccJAZRXk.s 			page 109


 495:User/BME280/bme280.c **** }
 3453              		.loc 1 495 12 is_stmt 0 view .LVU1158
 3454 004e 2B78     		ldrb	r3, [r5]
 3455 0050 58B2     		sxtb	r0, r3
 3456              	.LVL277:
 495:User/BME280/bme280.c **** }
 3457              		.loc 1 495 12 view .LVU1159
 3458              	.LBE321:
 3459              	.LBE320:
1116:User/BME280/bme280.c ****     {
 3460              		.loc 1 1116 5 is_stmt 1 view .LVU1160
1116:User/BME280/bme280.c ****     {
 3461              		.loc 1 1116 8 is_stmt 0 view .LVU1161
 3462 0052 002B     		cmp	r3, #0
 3463 0054 0BD0     		beq	.L309
 3464              	.LVL278:
 3465              	.L255:
1128:User/BME280/bme280.c **** 
 3466              		.loc 1 1128 1 view .LVU1162
 3467 0056 08B0     		add	sp, sp, #32
 3468              		@ sp needed
 3469              	.LVL279:
1128:User/BME280/bme280.c **** 
 3470              		.loc 1 1128 1 view .LVU1163
 3471 0058 E0BC     		pop	{r5, r6, r7}
 3472 005a BA46     		mov	r10, r7
 3473 005c B146     		mov	r9, r6
 3474 005e A846     		mov	r8, r5
 3475 0060 F0BD     		pop	{r4, r5, r6, r7, pc}
 3476              	.LVL280:
 3477              	.L199:
 3478              	.LBB329:
 3479              	.LBB326:
 492:User/BME280/bme280.c ****     }
 3480              		.loc 1 492 9 is_stmt 1 view .LVU1164
 492:User/BME280/bme280.c ****     }
 3481              		.loc 1 492 14 is_stmt 0 view .LVU1165
 3482 0062 FF23     		movs	r3, #255
 3483 0064 2B70     		strb	r3, [r5]
 495:User/BME280/bme280.c **** }
 3484              		.loc 1 495 5 is_stmt 1 view .LVU1166
 495:User/BME280/bme280.c **** }
 3485              		.loc 1 495 12 is_stmt 0 view .LVU1167
 3486 0066 2B78     		ldrb	r3, [r5]
 3487 0068 58B2     		sxtb	r0, r3
 3488              	.LVL281:
 495:User/BME280/bme280.c **** }
 3489              		.loc 1 495 12 view .LVU1168
 3490              	.LBE326:
 3491              	.LBE329:
1116:User/BME280/bme280.c ****     {
 3492              		.loc 1 1116 5 is_stmt 1 view .LVU1169
1116:User/BME280/bme280.c ****     {
 3493              		.loc 1 1116 8 is_stmt 0 view .LVU1170
 3494 006a 002B     		cmp	r3, #0
 3495 006c F3D1     		bne	.L255
 3496              	.L309:
ARM GAS  C:\Users\upo\AppData\Local\Temp\ccJAZRXk.s 			page 110


1118:User/BME280/bme280.c ****         rslt = bme280_soft_reset(dev);
 3497              		.loc 1 1118 9 is_stmt 1 view .LVU1171
 3498              	.LVL282:
 3499              	.LBB330:
 3500              	.LBI330:
1070:User/BME280/bme280.c **** {
 3501              		.loc 1 1070 13 view .LVU1172
 3502              	.LBB331:
1072:User/BME280/bme280.c ****     settings->osr_p = BME280_GET_BITS(reg_data[2], BME280_CTRL_PRESS);
 3503              		.loc 1 1072 5 view .LVU1173
1072:User/BME280/bme280.c ****     settings->osr_p = BME280_GET_BITS(reg_data[2], BME280_CTRL_PRESS);
 3504              		.loc 1 1072 23 is_stmt 0 view .LVU1174
 3505 006e 02AB     		add	r3, sp, #8
 3506              	.LVL283:
1072:User/BME280/bme280.c ****     settings->osr_p = BME280_GET_BITS(reg_data[2], BME280_CTRL_PRESS);
 3507              		.loc 1 1072 23 view .LVU1175
 3508 0070 1A78     		ldrb	r2, [r3]
1073:User/BME280/bme280.c ****     settings->osr_t = BME280_GET_BITS(reg_data[2], BME280_CTRL_TEMP);
 3509              		.loc 1 1073 23 view .LVU1176
 3510 0072 9D78     		ldrb	r5, [r3, #2]
1075:User/BME280/bme280.c ****     settings->standby_time = BME280_GET_BITS(reg_data[3], BME280_STANDBY);
 3511              		.loc 1 1075 24 view .LVU1177
 3512 0074 DB78     		ldrb	r3, [r3, #3]
 3513              	.LVL284:
1075:User/BME280/bme280.c ****     settings->standby_time = BME280_GET_BITS(reg_data[3], BME280_STANDBY);
 3514              		.loc 1 1075 24 view .LVU1178
 3515              	.LBE331:
 3516              	.LBE330:
1119:User/BME280/bme280.c **** 
 3517              		.loc 1 1119 16 view .LVU1179
 3518 0076 2000     		movs	r0, r4
 3519              	.LVL285:
 3520              	.LBB337:
 3521              	.LBB332:
1072:User/BME280/bme280.c ****     settings->osr_p = BME280_GET_BITS(reg_data[2], BME280_CTRL_PRESS);
 3522              		.loc 1 1072 23 view .LVU1180
 3523 0078 9146     		mov	r9, r2
1073:User/BME280/bme280.c ****     settings->osr_t = BME280_GET_BITS(reg_data[2], BME280_CTRL_TEMP);
 3524              		.loc 1 1073 5 is_stmt 1 view .LVU1181
1074:User/BME280/bme280.c ****     settings->filter = BME280_GET_BITS(reg_data[3], BME280_FILTER);
 3525              		.loc 1 1074 5 view .LVU1182
1075:User/BME280/bme280.c ****     settings->standby_time = BME280_GET_BITS(reg_data[3], BME280_STANDBY);
 3526              		.loc 1 1075 5 view .LVU1183
1075:User/BME280/bme280.c ****     settings->standby_time = BME280_GET_BITS(reg_data[3], BME280_STANDBY);
 3527              		.loc 1 1075 24 is_stmt 0 view .LVU1184
 3528 007a 9846     		mov	r8, r3
1076:User/BME280/bme280.c **** }
 3529              		.loc 1 1076 5 is_stmt 1 view .LVU1185
 3530              	.LVL286:
1076:User/BME280/bme280.c **** }
 3531              		.loc 1 1076 5 is_stmt 0 view .LVU1186
 3532              	.LBE332:
 3533              	.LBE337:
1119:User/BME280/bme280.c **** 
 3534              		.loc 1 1119 9 is_stmt 1 view .LVU1187
1119:User/BME280/bme280.c **** 
 3535              		.loc 1 1119 16 is_stmt 0 view .LVU1188
ARM GAS  C:\Users\upo\AppData\Local\Temp\ccJAZRXk.s 			page 111


 3536 007c FFF7FEFF 		bl	bme280_soft_reset
 3537              	.LVL287:
1121:User/BME280/bme280.c ****         {
 3538              		.loc 1 1121 9 is_stmt 1 view .LVU1189
1121:User/BME280/bme280.c ****         {
 3539              		.loc 1 1121 12 is_stmt 0 view .LVU1190
 3540 0080 0028     		cmp	r0, #0
 3541 0082 E8D1     		bne	.L255
1123:User/BME280/bme280.c ****         }
 3542              		.loc 1 1123 13 is_stmt 1 view .LVU1191
 3543              	.LVL288:
 3544              	.LBB338:
 3545              	.LBI338:
1134:User/BME280/bme280.c **** {
 3546              		.loc 1 1134 15 view .LVU1192
 3547              	.LBB339:
1136:User/BME280/bme280.c **** 
 3548              		.loc 1 1136 5 view .LVU1193
1138:User/BME280/bme280.c **** 
 3549              		.loc 1 1138 5 view .LVU1194
 3550              	.LBB340:
 3551              	.LBI340:
 914:User/BME280/bme280.c **** {
 3552              		.loc 1 914 15 view .LVU1195
 3553              	.LBB341:
 916:User/BME280/bme280.c **** 
 3554              		.loc 1 916 5 view .LVU1196
 918:User/BME280/bme280.c ****     {
 3555              		.loc 1 918 5 view .LVU1197
 920:User/BME280/bme280.c ****     }
 3556              		.loc 1 920 9 view .LVU1198
 3557              	.LBB342:
 3558              	.LBI342:
 934:User/BME280/bme280.c **** {
 3559              		.loc 1 934 15 view .LVU1199
 3560              	.LBB343:
 936:User/BME280/bme280.c ****     uint8_t ctrl_hum;
 3561              		.loc 1 936 5 view .LVU1200
 937:User/BME280/bme280.c ****     uint8_t ctrl_meas;
 3562              		.loc 1 937 5 view .LVU1201
 938:User/BME280/bme280.c ****     uint8_t reg_addr = BME280_CTRL_HUM_ADDR;
 3563              		.loc 1 938 5 view .LVU1202
 939:User/BME280/bme280.c **** 
 3564              		.loc 1 939 5 view .LVU1203
 941:User/BME280/bme280.c **** 
 3565              		.loc 1 941 5 view .LVU1204
 944:User/BME280/bme280.c **** 
 3566              		.loc 1 944 5 view .LVU1205
 3567              	.LBB344:
 3568              	.LBI344:
 502:User/BME280/bme280.c **** {
 3569              		.loc 1 502 8 view .LVU1206
 3570              	.LBB345:
 504:User/BME280/bme280.c ****     uint8_t temp_buff[20]; /* Typically not to write more than 10 registers */
 3571              		.loc 1 504 5 view .LVU1207
 505:User/BME280/bme280.c **** 
 3572              		.loc 1 505 5 view .LVU1208
ARM GAS  C:\Users\upo\AppData\Local\Temp\ccJAZRXk.s 			page 112


 507:User/BME280/bme280.c ****     {
 3573              		.loc 1 507 5 view .LVU1209
 512:User/BME280/bme280.c ****     uint8_t reg_addr_cnt;
 3574              		.loc 1 512 5 view .LVU1210
 513:User/BME280/bme280.c **** 
 3575              		.loc 1 513 5 view .LVU1211
 516:User/BME280/bme280.c **** 
 3576              		.loc 1 516 5 view .LVU1212
 3577              	.LBB346:
 3578              	.LBI346:
1581:User/BME280/bme280.c **** {
 3579              		.loc 1 1581 15 view .LVU1213
 3580              	.LBB347:
1583:User/BME280/bme280.c **** 
 3581              		.loc 1 1583 5 view .LVU1214
1585:User/BME280/bme280.c ****     {
 3582              		.loc 1 1585 5 view .LVU1215
1585:User/BME280/bme280.c ****     {
 3583              		.loc 1 1585 8 is_stmt 0 view .LVU1216
 3584 0084 002C     		cmp	r4, #0
 3585 0086 00D1     		bne	.LCB3478
 3586 0088 2FE1     		b	.L239	@long jump
 3587              	.LCB3478:
1585:User/BME280/bme280.c ****     {
 3588              		.loc 1 1585 23 view .LVU1217
 3589 008a E368     		ldr	r3, [r4, #12]
 3590 008c 002B     		cmp	r3, #0
 3591 008e 00D1     		bne	.LCB3481
 3592 0090 2BE1     		b	.L239	@long jump
 3593              	.LCB3481:
1585:User/BME280/bme280.c ****     {
 3594              		.loc 1 1585 53 view .LVU1218
 3595 0092 2769     		ldr	r7, [r4, #16]
1585:User/BME280/bme280.c ****     {
 3596              		.loc 1 1585 46 view .LVU1219
 3597 0094 002F     		cmp	r7, #0
 3598 0096 00D1     		bne	.LCB3484
 3599 0098 27E1     		b	.L239	@long jump
 3600              	.LCB3484:
1585:User/BME280/bme280.c ****     {
 3601              		.loc 1 1585 70 view .LVU1220
 3602 009a 6369     		ldr	r3, [r4, #20]
 3603 009c 002B     		cmp	r3, #0
 3604 009e 3ED0     		beq	.L210
 3605              	.LVL289:
 3606              		.loc 1 1596 5 is_stmt 1 view .LVU1221
 3607              		.loc 1 1596 5 is_stmt 0 view .LVU1222
 3608              	.LBE347:
 3609              	.LBE346:
 519:User/BME280/bme280.c ****     {
 3610              		.loc 1 519 5 is_stmt 1 view .LVU1223
 521:User/BME280/bme280.c ****         {
 3611              		.loc 1 521 9 view .LVU1224
 523:User/BME280/bme280.c **** 
 3612              		.loc 1 523 13 view .LVU1225
 3613              	.LBE345:
 3614              	.LBE344:
ARM GAS  C:\Users\upo\AppData\Local\Temp\ccJAZRXk.s 			page 113


 3615              	.LBE343:
 3616              	.LBE342:
 3617              	.LBE341:
 3618              	.LBE340:
 3619              	.LBE339:
 3620              	.LBE338:
 3621              	.LBB523:
 3622              	.LBB333:
1072:User/BME280/bme280.c ****     settings->osr_p = BME280_GET_BITS(reg_data[2], BME280_CTRL_PRESS);
 3623              		.loc 1 1072 23 is_stmt 0 view .LVU1226
 3624 00a0 4A46     		mov	r2, r9
 3625 00a2 0723     		movs	r3, #7
 3626              	.LBE333:
 3627              	.LBE523:
 3628              	.LBB524:
 3629              	.LBB516:
 3630              	.LBB465:
 3631              	.LBB456:
 3632              	.LBB386:
 3633              	.LBB380:
 3634              	.LBB353:
 3635              	.LBB348:
 523:User/BME280/bme280.c **** 
 3636              		.loc 1 523 26 view .LVU1227
 3637 00a4 03AE     		add	r6, sp, #12
 3638              	.LBE348:
 3639              	.LBE353:
 3640              	.LBE380:
 3641              	.LBE386:
 3642              	.LBE456:
 3643              	.LBE465:
 3644              	.LBE516:
 3645              	.LBE524:
 3646              	.LBB525:
 3647              	.LBB334:
1072:User/BME280/bme280.c ****     settings->osr_p = BME280_GET_BITS(reg_data[2], BME280_CTRL_PRESS);
 3648              		.loc 1 1072 23 view .LVU1228
 3649 00a6 1340     		ands	r3, r2
 3650              	.LBE334:
 3651              	.LBE525:
 3652              	.LBB526:
 3653              	.LBB517:
 3654              	.LBB466:
 3655              	.LBB457:
 3656              	.LBB387:
 3657              	.LBB381:
 3658              	.LBB354:
 3659              	.LBB349:
 523:User/BME280/bme280.c **** 
 3660              		.loc 1 523 26 view .LVU1229
 3661 00a8 3370     		strb	r3, [r6]
 526:User/BME280/bme280.c ****             {
 3662              		.loc 1 526 13 is_stmt 1 view .LVU1230
 526:User/BME280/bme280.c ****             {
 3663              		.loc 1 526 16 is_stmt 0 view .LVU1231
 3664 00aa 207A     		ldrb	r0, [r4, #8]
 3665              	.LVL290:
ARM GAS  C:\Users\upo\AppData\Local\Temp\ccJAZRXk.s 			page 114


 548:User/BME280/bme280.c **** 
 3666              		.loc 1 548 30 view .LVU1232
 3667 00ac 0122     		movs	r2, #1
 3668              	.LBE349:
 3669              	.LBE354:
 939:User/BME280/bme280.c **** 
 3670              		.loc 1 939 13 view .LVU1233
 3671 00ae 0138     		subs	r0, r0, #1
 3672 00b0 431E     		subs	r3, r0, #1
 3673 00b2 9841     		sbcs	r0, r0, r3
 3674 00b4 7F23     		movs	r3, #127
 3675 00b6 4042     		rsbs	r0, r0, #0
 3676 00b8 9843     		bics	r0, r3
 3677              	.LBB355:
 3678              	.LBB350:
 548:User/BME280/bme280.c **** 
 3679              		.loc 1 548 30 view .LVU1234
 3680 00ba 3100     		movs	r1, r6
 3681 00bc 6368     		ldr	r3, [r4, #4]
 3682              	.LBE350:
 3683              	.LBE355:
 939:User/BME280/bme280.c **** 
 3684              		.loc 1 939 13 view .LVU1235
 3685 00be F230     		adds	r0, r0, #242
 3686              	.LVL291:
 3687              	.LBB356:
 3688              	.LBB351:
 535:User/BME280/bme280.c ****             {
 3689              		.loc 1 535 13 is_stmt 1 view .LVU1236
 548:User/BME280/bme280.c **** 
 3690              		.loc 1 548 13 view .LVU1237
 548:User/BME280/bme280.c **** 
 3691              		.loc 1 548 30 is_stmt 0 view .LVU1238
 3692 00c0 B847     		blx	r7
 3693              	.LVL292:
 548:User/BME280/bme280.c **** 
 3694              		.loc 1 548 28 view .LVU1239
 3695 00c2 4523     		movs	r3, #69
 3696 00c4 E054     		strb	r0, [r4, r3]
 551:User/BME280/bme280.c ****             {
 3697              		.loc 1 551 13 is_stmt 1 view .LVU1240
 3698              	.LBE351:
 3699              	.LBE356:
 3700              	.LBE381:
 3701              	.LBE387:
 3702              	.LBB388:
 3703              	.LBB389:
 3704              	.LBB390:
 3705              	.LBB391:
 3706              	.LBB392:
 3707              	.LBB393:
1585:User/BME280/bme280.c ****     {
 3708              		.loc 1 1585 30 is_stmt 0 view .LVU1241
 3709 00c6 E368     		ldr	r3, [r4, #12]
 3710 00c8 9946     		mov	r9, r3
 3711              	.LVL293:
1585:User/BME280/bme280.c ****     {
ARM GAS  C:\Users\upo\AppData\Local\Temp\ccJAZRXk.s 			page 115


 3712              		.loc 1 1585 30 view .LVU1242
 3713              	.LBE393:
 3714              	.LBE392:
 3715              	.LBE391:
 3716              	.LBE390:
 3717              	.LBE389:
 3718              	.LBE388:
 3719              	.LBB447:
 3720              	.LBB382:
 3721              	.LBB357:
 3722              	.LBB352:
 551:User/BME280/bme280.c ****             {
 3723              		.loc 1 551 16 view .LVU1243
 3724 00ca 0028     		cmp	r0, #0
 3725 00cc 22D1     		bne	.L209
 566:User/BME280/bme280.c **** }
 3726              		.loc 1 566 5 is_stmt 1 view .LVU1244
 3727              	.LVL294:
 566:User/BME280/bme280.c **** }
 3728              		.loc 1 566 5 is_stmt 0 view .LVU1245
 3729              	.LBE352:
 3730              	.LBE357:
 949:User/BME280/bme280.c ****     {
 3731              		.loc 1 949 5 is_stmt 1 view .LVU1246
 951:User/BME280/bme280.c ****         rslt = bme280_get_regs(reg_addr, &ctrl_meas, 1, dev);
 3732              		.loc 1 951 9 view .LVU1247
 952:User/BME280/bme280.c **** 
 3733              		.loc 1 952 9 view .LVU1248
 3734              	.LBB358:
 3735              	.LBI358:
 462:User/BME280/bme280.c **** {
 3736              		.loc 1 462 8 view .LVU1249
 3737              	.LBB359:
 464:User/BME280/bme280.c **** 
 3738              		.loc 1 464 5 view .LVU1250
 467:User/BME280/bme280.c **** 
 3739              		.loc 1 467 5 view .LVU1251
 3740              	.LBB360:
 3741              	.LBI360:
1581:User/BME280/bme280.c **** {
 3742              		.loc 1 1581 15 view .LVU1252
 3743              	.LBB361:
1583:User/BME280/bme280.c **** 
 3744              		.loc 1 1583 5 view .LVU1253
1585:User/BME280/bme280.c ****     {
 3745              		.loc 1 1585 5 view .LVU1254
1585:User/BME280/bme280.c ****     {
 3746              		.loc 1 1585 23 is_stmt 0 view .LVU1255
 3747 00ce 002B     		cmp	r3, #0
 3748 00d0 00D1     		bne	.LCB3628
 3749 00d2 D8E0     		b	.L245	@long jump
 3750              	.LCB3628:
1585:User/BME280/bme280.c ****     {
 3751              		.loc 1 1585 46 view .LVU1256
 3752 00d4 2769     		ldr	r7, [r4, #16]
 3753 00d6 002F     		cmp	r7, #0
 3754 00d8 00D1     		bne	.LCB3631
ARM GAS  C:\Users\upo\AppData\Local\Temp\ccJAZRXk.s 			page 116


 3755 00da D4E0     		b	.L245	@long jump
 3756              	.LCB3631:
1585:User/BME280/bme280.c ****     {
 3757              		.loc 1 1585 70 view .LVU1257
 3758 00dc 6369     		ldr	r3, [r4, #20]
 3759 00de 5A42     		rsbs	r2, r3, #0
 3760 00e0 5341     		adcs	r3, r3, r2
 3761 00e2 5B42     		rsbs	r3, r3, #0
 3762              	.L207:
 3763              	.LVL295:
 3764              		.loc 1 1596 5 is_stmt 1 view .LVU1258
 3765              		.loc 1 1596 5 is_stmt 0 view .LVU1259
 3766              	.LBE361:
 3767              	.LBE360:
 467:User/BME280/bme280.c **** 
 3768              		.loc 1 467 10 view .LVU1260
 3769 00e4 01AF     		add	r7, sp, #4
 3770 00e6 3B70     		strb	r3, [r7]
 470:User/BME280/bme280.c ****     {
 3771              		.loc 1 470 5 is_stmt 1 view .LVU1261
 470:User/BME280/bme280.c ****     {
 3772              		.loc 1 470 15 is_stmt 0 view .LVU1262
 3773 00e8 3B78     		ldrb	r3, [r7]
 470:User/BME280/bme280.c ****     {
 3774              		.loc 1 470 8 view .LVU1263
 3775 00ea 002B     		cmp	r3, #0
 3776 00ec 00D0     		beq	.LCB3655
 3777 00ee D0E0     		b	.L213	@long jump
 3778              	.LCB3655:
 473:User/BME280/bme280.c ****         {
 3779              		.loc 1 473 9 is_stmt 1 view .LVU1264
 482:User/BME280/bme280.c **** 
 3780              		.loc 1 482 9 view .LVU1265
 482:User/BME280/bme280.c **** 
 3781              		.loc 1 482 26 is_stmt 0 view .LVU1266
 3782 00f0 6946     		mov	r1, sp
 3783 00f2 6368     		ldr	r3, [r4, #4]
 3784 00f4 0122     		movs	r2, #1
 3785 00f6 F420     		movs	r0, #244
 3786 00f8 0731     		adds	r1, r1, #7
 3787 00fa C847     		blx	r9
 3788              	.LVL296:
 482:User/BME280/bme280.c **** 
 3789              		.loc 1 482 24 view .LVU1267
 3790 00fc 4523     		movs	r3, #69
 3791 00fe E054     		strb	r0, [r4, r3]
 485:User/BME280/bme280.c ****         {
 3792              		.loc 1 485 9 is_stmt 1 view .LVU1268
 485:User/BME280/bme280.c ****         {
 3793              		.loc 1 485 12 is_stmt 0 view .LVU1269
 3794 0100 0028     		cmp	r0, #0
 3795 0102 01D0     		beq	.L307
 487:User/BME280/bme280.c ****         }
 3796              		.loc 1 487 13 is_stmt 1 view .LVU1270
 487:User/BME280/bme280.c ****         }
 3797              		.loc 1 487 18 is_stmt 0 view .LVU1271
 3798 0104 FC23     		movs	r3, #252
ARM GAS  C:\Users\upo\AppData\Local\Temp\ccJAZRXk.s 			page 117


 3799 0106 3B70     		strb	r3, [r7]
 3800              	.L307:
 495:User/BME280/bme280.c **** }
 3801              		.loc 1 495 5 is_stmt 1 view .LVU1272
 495:User/BME280/bme280.c **** }
 3802              		.loc 1 495 12 is_stmt 0 view .LVU1273
 3803 0108 3B78     		ldrb	r3, [r7]
 3804              	.LVL297:
 495:User/BME280/bme280.c **** }
 3805              		.loc 1 495 12 view .LVU1274
 3806              	.LBE359:
 3807              	.LBE358:
 954:User/BME280/bme280.c ****         {
 3808              		.loc 1 954 9 is_stmt 1 view .LVU1275
 954:User/BME280/bme280.c ****         {
 3809              		.loc 1 954 12 is_stmt 0 view .LVU1276
 3810 010a 002B     		cmp	r3, #0
 3811 010c 00D1     		bne	.LCB3687
 3812 010e E6E0     		b	.L310	@long jump
 3813              	.LCB3687:
 3814              	.LVL298:
 3815              	.L304:
 3816              	.LBB366:
 3817              	.LBB367:
 551:User/BME280/bme280.c ****             {
 3818              		.loc 1 551 13 is_stmt 1 view .LVU1277
 3819              	.LBE367:
 3820              	.LBE366:
 3821              	.LBE382:
 3822              	.LBE447:
 3823              	.LBB448:
 3824              	.LBB442:
 3825              	.LBB405:
 3826              	.LBB400:
 3827              	.LBB397:
 3828              	.LBB394:
1585:User/BME280/bme280.c ****     {
 3829              		.loc 1 1585 30 is_stmt 0 view .LVU1278
 3830 0110 E368     		ldr	r3, [r4, #12]
 3831 0112 9946     		mov	r9, r3
 3832              	.L209:
 3833              	.LVL299:
1585:User/BME280/bme280.c ****     {
 3834              		.loc 1 1585 23 view .LVU1279
 3835 0114 4B46     		mov	r3, r9
 3836 0116 002B     		cmp	r3, #0
 3837 0118 00D1     		bne	.LCB3719
 3838 011a E6E0     		b	.L239	@long jump
 3839              	.LCB3719:
 3840 011c 2769     		ldr	r7, [r4, #16]
 3841              	.LVL300:
 3842              	.L210:
1585:User/BME280/bme280.c ****     {
 3843              		.loc 1 1585 46 view .LVU1280
 3844 011e 002F     		cmp	r7, #0
 3845 0120 00D1     		bne	.LCB3730
 3846 0122 E2E0     		b	.L239	@long jump
ARM GAS  C:\Users\upo\AppData\Local\Temp\ccJAZRXk.s 			page 118


 3847              	.LCB3730:
1585:User/BME280/bme280.c ****     {
 3848              		.loc 1 1585 70 view .LVU1281
 3849 0124 6369     		ldr	r3, [r4, #20]
 3850 0126 5A42     		rsbs	r2, r3, #0
 3851 0128 5341     		adcs	r3, r3, r2
 3852 012a 5B42     		rsbs	r3, r3, #0
 3853              	.LVL301:
 3854              	.L211:
1585:User/BME280/bme280.c ****     {
 3855              		.loc 1 1585 70 view .LVU1282
 3856              	.LBE394:
 3857              	.LBE397:
 3858              	.LBE400:
 3859              	.LBE405:
 3860              	.LBE442:
 3861              	.LBE448:
 3862              	.LBE457:
 3863              	.LBE466:
 3864              	.LBE517:
 3865              	.LBE526:
 3866              	.LBB527:
 3867              	.LBB335:
1073:User/BME280/bme280.c ****     settings->osr_t = BME280_GET_BITS(reg_data[2], BME280_CTRL_TEMP);
 3868              		.loc 1 1073 23 view .LVU1283
 3869 012c EA06     		lsls	r2, r5, #27
 3870 012e 520F     		lsrs	r2, r2, #29
 3871 0130 9146     		mov	r9, r2
 3872              	.LBE335:
 3873              	.LBE527:
 3874              	.LBB528:
 3875              	.LBB518:
 3876              	.LBB467:
 3877              	.LBB458:
 3878              	.LBB449:
 3879              	.LBB443:
 3880              	.LBB406:
 3881              	.LBB401:
 467:User/BME280/bme280.c **** 
 3882              		.loc 1 467 10 view .LVU1284
 3883 0132 6A46     		mov	r2, sp
 3884 0134 5371     		strb	r3, [r2, #5]
 470:User/BME280/bme280.c ****     {
 3885              		.loc 1 470 15 view .LVU1285
 3886 0136 5379     		ldrb	r3, [r2, #5]
 467:User/BME280/bme280.c **** 
 3887              		.loc 1 467 10 view .LVU1286
 3888 0138 561D     		adds	r6, r2, #5
 3889              	.LBE401:
 3890              	.LBE406:
 3891              	.LBE443:
 3892              	.LBE449:
 3893              	.LBE458:
 3894              	.LBE467:
 3895              	.LBE518:
 3896              	.LBE528:
 3897              	.LBB529:
ARM GAS  C:\Users\upo\AppData\Local\Temp\ccJAZRXk.s 			page 119


 3898              	.LBB336:
1074:User/BME280/bme280.c ****     settings->filter = BME280_GET_BITS(reg_data[3], BME280_FILTER);
 3899              		.loc 1 1074 23 view .LVU1287
 3900 013a 6D09     		lsrs	r5, r5, #5
 3901              	.LVL302:
1074:User/BME280/bme280.c ****     settings->filter = BME280_GET_BITS(reg_data[3], BME280_FILTER);
 3902              		.loc 1 1074 23 view .LVU1288
 3903              	.LBE336:
 3904              	.LBE529:
 3905              	.LBB530:
 3906              	.LBB519:
 3907              	.LBB468:
 3908              	.LBB459:
 3909              	.LBB450:
 3910              	.LBB444:
 3911              	.LBB407:
 3912              	.LBB402:
 3913              	.LBB398:
 3914              	.LBB395:
 3915              		.loc 1 1596 5 is_stmt 1 view .LVU1289
 3916              	.LBE395:
 3917              	.LBE398:
 470:User/BME280/bme280.c ****     {
 3918              		.loc 1 470 5 view .LVU1290
 470:User/BME280/bme280.c ****     {
 3919              		.loc 1 470 8 is_stmt 0 view .LVU1291
 3920 013c 002B     		cmp	r3, #0
 3921 013e 21D1     		bne	.L223
 473:User/BME280/bme280.c ****         {
 3922              		.loc 1 473 9 is_stmt 1 view .LVU1292
 3923              	.LVL303:
 482:User/BME280/bme280.c **** 
 3924              		.loc 1 482 9 view .LVU1293
 482:User/BME280/bme280.c **** 
 3925              		.loc 1 482 26 is_stmt 0 view .LVU1294
 3926 0140 D71D     		adds	r7, r2, #7
 3927 0142 E268     		ldr	r2, [r4, #12]
 3928 0144 6368     		ldr	r3, [r4, #4]
 3929 0146 9246     		mov	r10, r2
 3930 0148 3900     		movs	r1, r7
 3931 014a 0122     		movs	r2, #1
 3932 014c F420     		movs	r0, #244
 3933 014e D047     		blx	r10
 3934              	.LVL304:
 482:User/BME280/bme280.c **** 
 3935              		.loc 1 482 24 view .LVU1295
 3936 0150 4523     		movs	r3, #69
 3937 0152 E054     		strb	r0, [r4, r3]
 485:User/BME280/bme280.c ****         {
 3938              		.loc 1 485 9 is_stmt 1 view .LVU1296
 485:User/BME280/bme280.c ****         {
 3939              		.loc 1 485 12 is_stmt 0 view .LVU1297
 3940 0154 0028     		cmp	r0, #0
 3941 0156 01D0     		beq	.L305
 487:User/BME280/bme280.c ****         }
 3942              		.loc 1 487 13 is_stmt 1 view .LVU1298
 487:User/BME280/bme280.c ****         }
ARM GAS  C:\Users\upo\AppData\Local\Temp\ccJAZRXk.s 			page 120


 3943              		.loc 1 487 18 is_stmt 0 view .LVU1299
 3944 0158 FC23     		movs	r3, #252
 3945 015a 3370     		strb	r3, [r6]
 3946              	.L305:
 495:User/BME280/bme280.c **** }
 3947              		.loc 1 495 5 is_stmt 1 view .LVU1300
 495:User/BME280/bme280.c **** }
 3948              		.loc 1 495 12 is_stmt 0 view .LVU1301
 3949 015c 3378     		ldrb	r3, [r6]
 3950 015e 58B2     		sxtb	r0, r3
 3951              	.LVL305:
 495:User/BME280/bme280.c **** }
 3952              		.loc 1 495 12 view .LVU1302
 3953              	.LBE402:
 3954              	.LBE407:
 977:User/BME280/bme280.c ****     {
 3955              		.loc 1 977 5 is_stmt 1 view .LVU1303
 977:User/BME280/bme280.c ****     {
 3956              		.loc 1 977 8 is_stmt 0 view .LVU1304
 3957 0160 002B     		cmp	r3, #0
 3958 0162 00D0     		beq	.LCB3835
 3959 0164 77E7     		b	.L255	@long jump
 3960              	.LCB3835:
 979:User/BME280/bme280.c ****         {
 3961              		.loc 1 979 9 is_stmt 1 view .LVU1305
 981:User/BME280/bme280.c ****         }
 3962              		.loc 1 981 13 view .LVU1306
 3963              	.LVL306:
 3964              	.LBB408:
 3965              	.LBI408:
1051:User/BME280/bme280.c **** {
 3966              		.loc 1 1051 13 view .LVU1307
 3967              	.LBB409:
1053:User/BME280/bme280.c **** }
 3968              		.loc 1 1053 5 view .LVU1308
1053:User/BME280/bme280.c **** }
 3969              		.loc 1 1053 5 is_stmt 0 view .LVU1309
 3970              	.LBE409:
 3971              	.LBE408:
 984:User/BME280/bme280.c ****         {
 3972              		.loc 1 984 9 is_stmt 1 view .LVU1310
 986:User/BME280/bme280.c ****         }
 3973              		.loc 1 986 13 view .LVU1311
 3974              	.LBB415:
 3975              	.LBI415:
1060:User/BME280/bme280.c **** {
 3976              		.loc 1 1060 13 view .LVU1312
 3977              	.LBB416:
1062:User/BME280/bme280.c **** }
 3978              		.loc 1 1062 5 view .LVU1313
 3979              	.LBE416:
 3980              	.LBE415:
 3981              	.LBB422:
 3982              	.LBB410:
1053:User/BME280/bme280.c **** }
 3983              		.loc 1 1053 17 is_stmt 0 view .LVU1314
 3984 0166 1C23     		movs	r3, #28
ARM GAS  C:\Users\upo\AppData\Local\Temp\ccJAZRXk.s 			page 121


 3985 0168 3A78     		ldrb	r2, [r7]
 3986              	.LBE410:
 3987              	.LBE422:
 3988              	.LBB423:
 3989              	.LBB417:
1062:User/BME280/bme280.c **** }
 3990              		.loc 1 1062 17 view .LVU1315
 3991 016a 6D01     		lsls	r5, r5, #5
 3992              	.LBE417:
 3993              	.LBE423:
 3994              	.LBB424:
 3995              	.LBB411:
1053:User/BME280/bme280.c **** }
 3996              		.loc 1 1053 17 view .LVU1316
 3997 016c 9A43     		bics	r2, r3
 3998 016e 4B46     		mov	r3, r9
 3999 0170 9B00     		lsls	r3, r3, #2
 4000 0172 1A43     		orrs	r2, r3
 4001              	.LBE411:
 4002              	.LBE424:
 4003              	.LBB425:
 4004              	.LBB418:
1062:User/BME280/bme280.c **** }
 4005              		.loc 1 1062 17 view .LVU1317
 4006 0174 1F23     		movs	r3, #31
 4007 0176 1340     		ands	r3, r2
 4008 0178 2B43     		orrs	r3, r5
1062:User/BME280/bme280.c **** }
 4009              		.loc 1 1062 15 view .LVU1318
 4010 017a 3B70     		strb	r3, [r7]
 4011              	.LVL307:
1062:User/BME280/bme280.c **** }
 4012              		.loc 1 1062 15 view .LVU1319
 4013              	.LBE418:
 4014              	.LBE425:
 990:User/BME280/bme280.c ****     }
 4015              		.loc 1 990 9 is_stmt 1 view .LVU1320
 4016              	.LBB426:
 4017              	.LBI426:
 502:User/BME280/bme280.c **** {
 4018              		.loc 1 502 8 view .LVU1321
 4019              	.LBB427:
 504:User/BME280/bme280.c ****     uint8_t temp_buff[20]; /* Typically not to write more than 10 registers */
 4020              		.loc 1 504 5 view .LVU1322
 505:User/BME280/bme280.c **** 
 4021              		.loc 1 505 5 view .LVU1323
 507:User/BME280/bme280.c ****     {
 4022              		.loc 1 507 5 view .LVU1324
 512:User/BME280/bme280.c ****     uint8_t reg_addr_cnt;
 4023              		.loc 1 512 5 view .LVU1325
 513:User/BME280/bme280.c **** 
 4024              		.loc 1 513 5 view .LVU1326
 516:User/BME280/bme280.c **** 
 4025              		.loc 1 516 5 view .LVU1327
 4026              	.LBB428:
 4027              	.LBI428:
1581:User/BME280/bme280.c **** {
ARM GAS  C:\Users\upo\AppData\Local\Temp\ccJAZRXk.s 			page 122


 4028              		.loc 1 1581 15 view .LVU1328
 4029              	.LBB429:
1583:User/BME280/bme280.c **** 
 4030              		.loc 1 1583 5 view .LVU1329
1585:User/BME280/bme280.c ****     {
 4031              		.loc 1 1585 5 view .LVU1330
 4032 017c 18E0     		b	.L227
 4033              	.LVL308:
 4034              	.L308:
1585:User/BME280/bme280.c ****     {
 4035              		.loc 1 1585 5 is_stmt 0 view .LVU1331
 4036              	.LBE429:
 4037              	.LBE428:
 4038              	.LBE427:
 4039              	.LBE426:
 4040              	.LBE444:
 4041              	.LBE450:
 4042              	.LBE459:
 4043              	.LBE468:
 4044              	.LBE519:
 4045              	.LBE530:
 4046              	.LBB531:
 4047              	.LBB327:
 487:User/BME280/bme280.c ****         }
 4048              		.loc 1 487 13 is_stmt 1 view .LVU1332
 487:User/BME280/bme280.c ****         }
 4049              		.loc 1 487 18 is_stmt 0 view .LVU1333
 4050 017e B733     		adds	r3, r3, #183
 4051 0180 2B70     		strb	r3, [r5]
 4052 0182 64E7     		b	.L200
 4053              	.LVL309:
 4054              	.L223:
 487:User/BME280/bme280.c ****         }
 4055              		.loc 1 487 18 view .LVU1334
 4056              	.LBE327:
 4057              	.LBE531:
 4058              	.LBB532:
 4059              	.LBB520:
 4060              	.LBB469:
 4061              	.LBB460:
 4062              	.LBB451:
 4063              	.LBB445:
 4064              	.LBB433:
 4065              	.LBB403:
 492:User/BME280/bme280.c ****     }
 4066              		.loc 1 492 9 is_stmt 1 view .LVU1335
 492:User/BME280/bme280.c ****     }
 4067              		.loc 1 492 14 is_stmt 0 view .LVU1336
 4068 0184 FF23     		movs	r3, #255
 4069 0186 3370     		strb	r3, [r6]
 495:User/BME280/bme280.c **** }
 4070              		.loc 1 495 5 is_stmt 1 view .LVU1337
 495:User/BME280/bme280.c **** }
 4071              		.loc 1 495 12 is_stmt 0 view .LVU1338
 4072 0188 3378     		ldrb	r3, [r6]
 4073 018a 58B2     		sxtb	r0, r3
 4074              	.LVL310:
ARM GAS  C:\Users\upo\AppData\Local\Temp\ccJAZRXk.s 			page 123


 495:User/BME280/bme280.c **** }
 4075              		.loc 1 495 12 view .LVU1339
 4076              	.LBE403:
 4077              	.LBE433:
 977:User/BME280/bme280.c ****     {
 4078              		.loc 1 977 5 is_stmt 1 view .LVU1340
 977:User/BME280/bme280.c ****     {
 4079              		.loc 1 977 8 is_stmt 0 view .LVU1341
 4080 018c 002B     		cmp	r3, #0
 4081 018e 00D0     		beq	.LCB3991
 4082 0190 61E7     		b	.L255	@long jump
 4083              	.LCB3991:
 979:User/BME280/bme280.c ****         {
 4084              		.loc 1 979 9 is_stmt 1 view .LVU1342
 981:User/BME280/bme280.c ****         }
 4085              		.loc 1 981 13 view .LVU1343
 4086              	.LVL311:
 4087              	.LBB434:
1051:User/BME280/bme280.c **** {
 4088              		.loc 1 1051 13 view .LVU1344
 4089              	.LBB412:
1053:User/BME280/bme280.c **** }
 4090              		.loc 1 1053 5 view .LVU1345
1053:User/BME280/bme280.c **** }
 4091              		.loc 1 1053 5 is_stmt 0 view .LVU1346
 4092              	.LBE412:
 4093              	.LBE434:
 984:User/BME280/bme280.c ****         {
 4094              		.loc 1 984 9 is_stmt 1 view .LVU1347
 986:User/BME280/bme280.c ****         }
 4095              		.loc 1 986 13 view .LVU1348
 4096              	.LBB435:
1060:User/BME280/bme280.c **** {
 4097              		.loc 1 1060 13 view .LVU1349
 4098              	.LBB419:
1062:User/BME280/bme280.c **** }
 4099              		.loc 1 1062 5 view .LVU1350
 4100              	.LBE419:
 4101              	.LBE435:
 4102              	.LBB436:
 4103              	.LBB413:
1053:User/BME280/bme280.c **** }
 4104              		.loc 1 1053 17 is_stmt 0 view .LVU1351
 4105 0192 1C23     		movs	r3, #28
 4106 0194 D71D     		adds	r7, r2, #7
 4107 0196 3A78     		ldrb	r2, [r7]
 4108              	.LBE413:
 4109              	.LBE436:
 4110              	.LBB437:
 4111              	.LBB420:
1062:User/BME280/bme280.c **** }
 4112              		.loc 1 1062 17 view .LVU1352
 4113 0198 6D01     		lsls	r5, r5, #5
 4114              	.LBE420:
 4115              	.LBE437:
 4116              	.LBB438:
 4117              	.LBB414:
ARM GAS  C:\Users\upo\AppData\Local\Temp\ccJAZRXk.s 			page 124


1053:User/BME280/bme280.c **** }
 4118              		.loc 1 1053 17 view .LVU1353
 4119 019a 9A43     		bics	r2, r3
 4120 019c 4B46     		mov	r3, r9
 4121 019e 9B00     		lsls	r3, r3, #2
 4122 01a0 1A43     		orrs	r2, r3
 4123              	.LBE414:
 4124              	.LBE438:
 4125              	.LBB439:
 4126              	.LBB421:
1062:User/BME280/bme280.c **** }
 4127              		.loc 1 1062 17 view .LVU1354
 4128 01a2 1F23     		movs	r3, #31
 4129 01a4 1340     		ands	r3, r2
 4130 01a6 2B43     		orrs	r3, r5
1062:User/BME280/bme280.c **** }
 4131              		.loc 1 1062 15 view .LVU1355
 4132 01a8 3B70     		strb	r3, [r7]
 4133              	.LVL312:
1062:User/BME280/bme280.c **** }
 4134              		.loc 1 1062 15 view .LVU1356
 4135              	.LBE421:
 4136              	.LBE439:
 990:User/BME280/bme280.c ****     }
 4137              		.loc 1 990 9 is_stmt 1 view .LVU1357
 4138              	.LBB440:
 502:User/BME280/bme280.c **** {
 4139              		.loc 1 502 8 view .LVU1358
 4140              	.LBB432:
 504:User/BME280/bme280.c ****     uint8_t temp_buff[20]; /* Typically not to write more than 10 registers */
 4141              		.loc 1 504 5 view .LVU1359
 505:User/BME280/bme280.c **** 
 4142              		.loc 1 505 5 view .LVU1360
 507:User/BME280/bme280.c ****     {
 4143              		.loc 1 507 5 view .LVU1361
 512:User/BME280/bme280.c ****     uint8_t reg_addr_cnt;
 4144              		.loc 1 512 5 view .LVU1362
 513:User/BME280/bme280.c **** 
 4145              		.loc 1 513 5 view .LVU1363
 516:User/BME280/bme280.c **** 
 4146              		.loc 1 516 5 view .LVU1364
 4147              	.LBB431:
1581:User/BME280/bme280.c **** {
 4148              		.loc 1 1581 15 view .LVU1365
 4149              	.LBB430:
1583:User/BME280/bme280.c **** 
 4150              		.loc 1 1583 5 view .LVU1366
1585:User/BME280/bme280.c ****     {
 4151              		.loc 1 1585 5 view .LVU1367
1585:User/BME280/bme280.c ****     {
 4152              		.loc 1 1585 8 is_stmt 0 view .LVU1368
 4153 01aa 002C     		cmp	r4, #0
 4154 01ac 00D1     		bne	.LCB4067
 4155 01ae 99E0     		b	.L252	@long jump
 4156              	.LCB4067:
 4157              	.L227:
1585:User/BME280/bme280.c ****     {
ARM GAS  C:\Users\upo\AppData\Local\Temp\ccJAZRXk.s 			page 125


 4158              		.loc 1 1585 23 view .LVU1369
 4159 01b0 E268     		ldr	r2, [r4, #12]
 4160 01b2 002A     		cmp	r2, #0
 4161 01b4 00D1     		bne	.LCB4083
 4162 01b6 95E0     		b	.L252	@long jump
 4163              	.LCB4083:
1585:User/BME280/bme280.c ****     {
 4164              		.loc 1 1585 53 view .LVU1370
 4165 01b8 2569     		ldr	r5, [r4, #16]
1585:User/BME280/bme280.c ****     {
 4166              		.loc 1 1585 46 view .LVU1371
 4167 01ba 002D     		cmp	r5, #0
 4168 01bc 00D1     		bne	.LCB4086
 4169 01be 91E0     		b	.L252	@long jump
 4170              	.LCB4086:
1585:User/BME280/bme280.c ****     {
 4171              		.loc 1 1585 70 view .LVU1372
 4172 01c0 6269     		ldr	r2, [r4, #20]
 4173 01c2 002A     		cmp	r2, #0
 4174 01c4 00D1     		bne	.LCB4089
 4175 01c6 8DE0     		b	.L252	@long jump
 4176              	.LCB4089:
 4177              	.LVL313:
 4178              		.loc 1 1596 5 is_stmt 1 view .LVU1373
 4179              		.loc 1 1596 5 is_stmt 0 view .LVU1374
 4180              	.LBE430:
 4181              	.LBE431:
 519:User/BME280/bme280.c ****     {
 4182              		.loc 1 519 5 is_stmt 1 view .LVU1375
 521:User/BME280/bme280.c ****         {
 4183              		.loc 1 521 9 view .LVU1376
 523:User/BME280/bme280.c **** 
 4184              		.loc 1 523 13 view .LVU1377
 523:User/BME280/bme280.c **** 
 4185              		.loc 1 523 26 is_stmt 0 view .LVU1378
 4186 01c8 03AE     		add	r6, sp, #12
 4187 01ca 3370     		strb	r3, [r6]
 526:User/BME280/bme280.c ****             {
 4188              		.loc 1 526 13 is_stmt 1 view .LVU1379
 526:User/BME280/bme280.c ****             {
 4189              		.loc 1 526 16 is_stmt 0 view .LVU1380
 4190 01cc 207A     		ldrb	r0, [r4, #8]
 4191              	.LVL314:
 548:User/BME280/bme280.c **** 
 4192              		.loc 1 548 30 view .LVU1381
 4193 01ce 0122     		movs	r2, #1
 526:User/BME280/bme280.c ****             {
 4194              		.loc 1 526 16 view .LVU1382
 4195 01d0 0138     		subs	r0, r0, #1
 4196 01d2 431E     		subs	r3, r0, #1
 4197 01d4 9841     		sbcs	r0, r0, r3
 4198 01d6 7F23     		movs	r3, #127
 4199 01d8 4042     		rsbs	r0, r0, #0
 4200 01da 9843     		bics	r0, r3
 548:User/BME280/bme280.c **** 
 4201              		.loc 1 548 30 view .LVU1383
 4202 01dc 3100     		movs	r1, r6
ARM GAS  C:\Users\upo\AppData\Local\Temp\ccJAZRXk.s 			page 126


 4203 01de 6368     		ldr	r3, [r4, #4]
 526:User/BME280/bme280.c ****             {
 4204              		.loc 1 526 16 view .LVU1384
 4205 01e0 F430     		adds	r0, r0, #244
 4206              	.LVL315:
 535:User/BME280/bme280.c ****             {
 4207              		.loc 1 535 13 is_stmt 1 view .LVU1385
 548:User/BME280/bme280.c **** 
 4208              		.loc 1 548 13 view .LVU1386
 548:User/BME280/bme280.c **** 
 4209              		.loc 1 548 30 is_stmt 0 view .LVU1387
 4210 01e2 A847     		blx	r5
 4211              	.LVL316:
 548:User/BME280/bme280.c **** 
 4212              		.loc 1 548 28 view .LVU1388
 4213 01e4 4523     		movs	r3, #69
 4214 01e6 E054     		strb	r0, [r4, r3]
 551:User/BME280/bme280.c ****             {
 4215              		.loc 1 551 13 is_stmt 1 view .LVU1389
 551:User/BME280/bme280.c ****             {
 4216              		.loc 1 551 16 is_stmt 0 view .LVU1390
 4217 01e8 0028     		cmp	r0, #0
 4218 01ea 49D1     		bne	.L254
 566:User/BME280/bme280.c **** }
 4219              		.loc 1 566 5 is_stmt 1 view .LVU1391
 4220              	.LVL317:
 566:User/BME280/bme280.c **** }
 4221              		.loc 1 566 5 is_stmt 0 view .LVU1392
 4222              	.LBE432:
 4223              	.LBE440:
 993:User/BME280/bme280.c **** }
 4224              		.loc 1 993 5 is_stmt 1 view .LVU1393
 993:User/BME280/bme280.c **** }
 4225              		.loc 1 993 5 is_stmt 0 view .LVU1394
 4226              	.LBE445:
 4227              	.LBE451:
 928:User/BME280/bme280.c **** }
 4228              		.loc 1 928 5 is_stmt 1 view .LVU1395
 928:User/BME280/bme280.c **** }
 4229              		.loc 1 928 5 is_stmt 0 view .LVU1396
 4230              	.LBE460:
 4231              	.LBE469:
1140:User/BME280/bme280.c ****     {
 4232              		.loc 1 1140 5 is_stmt 1 view .LVU1397
1142:User/BME280/bme280.c ****     }
 4233              		.loc 1 1142 9 view .LVU1398
 4234              	.LBB470:
 4235              	.LBI470:
1000:User/BME280/bme280.c ****                                           const struct bme280_settings *settings,
 4236              		.loc 1 1000 15 view .LVU1399
 4237              	.LBB471:
1004:User/BME280/bme280.c ****     uint8_t reg_addr = BME280_CONFIG_ADDR;
 4238              		.loc 1 1004 5 view .LVU1400
1005:User/BME280/bme280.c ****     uint8_t reg_data;
 4239              		.loc 1 1005 5 view .LVU1401
1006:User/BME280/bme280.c **** 
 4240              		.loc 1 1006 5 view .LVU1402
ARM GAS  C:\Users\upo\AppData\Local\Temp\ccJAZRXk.s 			page 127


1008:User/BME280/bme280.c **** 
 4241              		.loc 1 1008 5 view .LVU1403
 4242              	.LBB472:
 4243              	.LBI472:
 462:User/BME280/bme280.c **** {
 4244              		.loc 1 462 8 view .LVU1404
 4245              	.LBB473:
 464:User/BME280/bme280.c **** 
 4246              		.loc 1 464 5 view .LVU1405
 467:User/BME280/bme280.c **** 
 4247              		.loc 1 467 5 view .LVU1406
 4248              	.LBB474:
 4249              	.LBI474:
1581:User/BME280/bme280.c **** {
 4250              		.loc 1 1581 15 view .LVU1407
 4251              	.LBB475:
1583:User/BME280/bme280.c **** 
 4252              		.loc 1 1583 5 view .LVU1408
1585:User/BME280/bme280.c ****     {
 4253              		.loc 1 1585 5 view .LVU1409
1585:User/BME280/bme280.c ****     {
 4254              		.loc 1 1585 30 is_stmt 0 view .LVU1410
 4255 01ec E568     		ldr	r5, [r4, #12]
1585:User/BME280/bme280.c ****     {
 4256              		.loc 1 1585 23 view .LVU1411
 4257 01ee 002D     		cmp	r5, #0
 4258 01f0 7ED0     		beq	.L249
1585:User/BME280/bme280.c ****     {
 4259              		.loc 1 1585 46 view .LVU1412
 4260 01f2 2369     		ldr	r3, [r4, #16]
 4261 01f4 002B     		cmp	r3, #0
 4262 01f6 7BD0     		beq	.L249
1585:User/BME280/bme280.c ****     {
 4263              		.loc 1 1585 70 view .LVU1413
 4264 01f8 6369     		ldr	r3, [r4, #20]
 4265 01fa 5A42     		rsbs	r2, r3, #0
 4266 01fc 5341     		adcs	r3, r3, r2
 4267 01fe 5B42     		rsbs	r3, r3, #0
 4268              	.L231:
 4269              	.LVL318:
 4270              		.loc 1 1596 5 is_stmt 1 view .LVU1414
 4271              		.loc 1 1596 5 is_stmt 0 view .LVU1415
 4272              	.LBE475:
 4273              	.LBE474:
 467:User/BME280/bme280.c **** 
 4274              		.loc 1 467 10 view .LVU1416
 4275 0200 3B70     		strb	r3, [r7]
 470:User/BME280/bme280.c ****     {
 4276              		.loc 1 470 5 is_stmt 1 view .LVU1417
 470:User/BME280/bme280.c ****     {
 4277              		.loc 1 470 15 is_stmt 0 view .LVU1418
 4278 0202 3B78     		ldrb	r3, [r7]
 470:User/BME280/bme280.c ****     {
 4279              		.loc 1 470 8 view .LVU1419
 4280 0204 002B     		cmp	r3, #0
 4281 0206 67D1     		bne	.L233
 473:User/BME280/bme280.c ****         {
ARM GAS  C:\Users\upo\AppData\Local\Temp\ccJAZRXk.s 			page 128


 4282              		.loc 1 473 9 is_stmt 1 view .LVU1420
 482:User/BME280/bme280.c **** 
 4283              		.loc 1 482 9 view .LVU1421
 482:User/BME280/bme280.c **** 
 4284              		.loc 1 482 26 is_stmt 0 view .LVU1422
 4285 0208 6946     		mov	r1, sp
 4286 020a 6368     		ldr	r3, [r4, #4]
 4287 020c 0122     		movs	r2, #1
 4288 020e F520     		movs	r0, #245
 4289 0210 0631     		adds	r1, r1, #6
 4290 0212 A847     		blx	r5
 4291              	.LVL319:
 482:User/BME280/bme280.c **** 
 4292              		.loc 1 482 24 view .LVU1423
 4293 0214 4523     		movs	r3, #69
 4294 0216 E054     		strb	r0, [r4, r3]
 485:User/BME280/bme280.c ****         {
 4295              		.loc 1 485 9 is_stmt 1 view .LVU1424
 485:User/BME280/bme280.c ****         {
 4296              		.loc 1 485 12 is_stmt 0 view .LVU1425
 4297 0218 0028     		cmp	r0, #0
 4298 021a 01D0     		beq	.L234
 487:User/BME280/bme280.c ****         }
 4299              		.loc 1 487 13 is_stmt 1 view .LVU1426
 487:User/BME280/bme280.c ****         }
 4300              		.loc 1 487 18 is_stmt 0 view .LVU1427
 4301 021c B733     		adds	r3, r3, #183
 4302 021e 3B70     		strb	r3, [r7]
 4303              	.L234:
 495:User/BME280/bme280.c **** }
 4304              		.loc 1 495 5 is_stmt 1 view .LVU1428
 495:User/BME280/bme280.c **** }
 4305              		.loc 1 495 12 is_stmt 0 view .LVU1429
 4306 0220 3B78     		ldrb	r3, [r7]
 4307 0222 58B2     		sxtb	r0, r3
 4308              	.LVL320:
 495:User/BME280/bme280.c **** }
 4309              		.loc 1 495 12 view .LVU1430
 4310              	.LBE473:
 4311              	.LBE472:
1010:User/BME280/bme280.c ****     {
 4312              		.loc 1 1010 5 is_stmt 1 view .LVU1431
1010:User/BME280/bme280.c ****     {
 4313              		.loc 1 1010 8 is_stmt 0 view .LVU1432
 4314 0224 002B     		cmp	r3, #0
 4315 0226 00D0     		beq	.LCB4241
 4316 0228 15E7     		b	.L255	@long jump
 4317              	.LCB4241:
1012:User/BME280/bme280.c ****         {
 4318              		.loc 1 1012 9 is_stmt 1 view .LVU1433
1014:User/BME280/bme280.c ****         }
 4319              		.loc 1 1014 13 view .LVU1434
 4320              	.LVL321:
 4321              	.LBB480:
 4322              	.LBI480:
1033:User/BME280/bme280.c **** {
 4323              		.loc 1 1033 13 view .LVU1435
ARM GAS  C:\Users\upo\AppData\Local\Temp\ccJAZRXk.s 			page 129


 4324              	.LBB481:
1035:User/BME280/bme280.c **** }
 4325              		.loc 1 1035 5 view .LVU1436
1035:User/BME280/bme280.c **** }
 4326              		.loc 1 1035 5 is_stmt 0 view .LVU1437
 4327              	.LBE481:
 4328              	.LBE480:
1017:User/BME280/bme280.c ****         {
 4329              		.loc 1 1017 9 is_stmt 1 view .LVU1438
1019:User/BME280/bme280.c ****         }
 4330              		.loc 1 1019 13 view .LVU1439
 4331              	.LBB483:
 4332              	.LBI483:
1042:User/BME280/bme280.c **** {
 4333              		.loc 1 1042 13 view .LVU1440
 4334              	.LBB484:
1044:User/BME280/bme280.c **** }
 4335              		.loc 1 1044 5 view .LVU1441
 4336              	.LBE484:
 4337              	.LBE483:
 4338              	.LBB487:
 4339              	.LBB482:
1035:User/BME280/bme280.c **** }
 4340              		.loc 1 1035 17 is_stmt 0 view .LVU1442
 4341 022a 4346     		mov	r3, r8
 4342 022c 1C22     		movs	r2, #28
 4343 022e 1A40     		ands	r2, r3
 4344 0230 6B46     		mov	r3, sp
 4345 0232 1C20     		movs	r0, #28
 4346              	.LVL322:
1035:User/BME280/bme280.c **** }
 4347              		.loc 1 1035 17 view .LVU1443
 4348 0234 991D     		adds	r1, r3, #6
 4349 0236 9B79     		ldrb	r3, [r3, #6]
 4350 0238 8343     		bics	r3, r0
 4351 023a 1A43     		orrs	r2, r3
 4352              	.LBE482:
 4353              	.LBE487:
 4354              	.LBB488:
 4355              	.LBB485:
1044:User/BME280/bme280.c **** }
 4356              		.loc 1 1044 17 view .LVU1444
 4357 023c 1F23     		movs	r3, #31
 4358 023e 1340     		ands	r3, r2
 4359 0240 4246     		mov	r2, r8
 4360 0242 5209     		lsrs	r2, r2, #5
 4361 0244 5201     		lsls	r2, r2, #5
 4362 0246 1343     		orrs	r3, r2
 4363              	.LBE485:
 4364              	.LBE488:
 4365              	.LBB489:
 4366              	.LBB490:
 4367              	.LBB491:
 4368              	.LBB492:
1585:User/BME280/bme280.c ****     {
 4369              		.loc 1 1585 23 view .LVU1445
 4370 0248 E268     		ldr	r2, [r4, #12]
ARM GAS  C:\Users\upo\AppData\Local\Temp\ccJAZRXk.s 			page 130


 4371              	.LBE492:
 4372              	.LBE491:
 4373              	.LBE490:
 4374              	.LBE489:
 4375              	.LBB499:
 4376              	.LBB486:
1044:User/BME280/bme280.c **** }
 4377              		.loc 1 1044 15 view .LVU1446
 4378 024a 0B70     		strb	r3, [r1]
 4379              	.LVL323:
1044:User/BME280/bme280.c **** }
 4380              		.loc 1 1044 15 view .LVU1447
 4381              	.LBE486:
 4382              	.LBE499:
1023:User/BME280/bme280.c ****     }
 4383              		.loc 1 1023 9 is_stmt 1 view .LVU1448
 4384              	.LBB500:
 4385              	.LBI489:
 502:User/BME280/bme280.c **** {
 4386              		.loc 1 502 8 view .LVU1449
 4387              	.LBB495:
 504:User/BME280/bme280.c ****     uint8_t temp_buff[20]; /* Typically not to write more than 10 registers */
 4388              		.loc 1 504 5 view .LVU1450
 505:User/BME280/bme280.c **** 
 4389              		.loc 1 505 5 view .LVU1451
 507:User/BME280/bme280.c ****     {
 4390              		.loc 1 507 5 view .LVU1452
 512:User/BME280/bme280.c ****     uint8_t reg_addr_cnt;
 4391              		.loc 1 512 5 view .LVU1453
 513:User/BME280/bme280.c **** 
 4392              		.loc 1 513 5 view .LVU1454
 516:User/BME280/bme280.c **** 
 4393              		.loc 1 516 5 view .LVU1455
 4394              	.LBB494:
 4395              	.LBI491:
1581:User/BME280/bme280.c **** {
 4396              		.loc 1 1581 15 view .LVU1456
 4397              	.LBB493:
1583:User/BME280/bme280.c **** 
 4398              		.loc 1 1583 5 view .LVU1457
1585:User/BME280/bme280.c ****     {
 4399              		.loc 1 1585 5 view .LVU1458
1585:User/BME280/bme280.c ****     {
 4400              		.loc 1 1585 23 is_stmt 0 view .LVU1459
 4401 024c 002A     		cmp	r2, #0
 4402 024e 49D0     		beq	.L252
1585:User/BME280/bme280.c ****     {
 4403              		.loc 1 1585 53 view .LVU1460
 4404 0250 2569     		ldr	r5, [r4, #16]
1585:User/BME280/bme280.c ****     {
 4405              		.loc 1 1585 46 view .LVU1461
 4406 0252 002D     		cmp	r5, #0
 4407 0254 46D0     		beq	.L252
1585:User/BME280/bme280.c ****     {
 4408              		.loc 1 1585 70 view .LVU1462
 4409 0256 6269     		ldr	r2, [r4, #20]
 4410 0258 002A     		cmp	r2, #0
ARM GAS  C:\Users\upo\AppData\Local\Temp\ccJAZRXk.s 			page 131


 4411 025a 43D0     		beq	.L252
 4412              	.LVL324:
 4413              		.loc 1 1596 5 is_stmt 1 view .LVU1463
 4414              		.loc 1 1596 5 is_stmt 0 view .LVU1464
 4415              	.LBE493:
 4416              	.LBE494:
 519:User/BME280/bme280.c ****     {
 4417              		.loc 1 519 5 is_stmt 1 view .LVU1465
 521:User/BME280/bme280.c ****         {
 4418              		.loc 1 521 9 view .LVU1466
 523:User/BME280/bme280.c **** 
 4419              		.loc 1 523 13 view .LVU1467
 523:User/BME280/bme280.c **** 
 4420              		.loc 1 523 26 is_stmt 0 view .LVU1468
 4421 025c 3370     		strb	r3, [r6]
 526:User/BME280/bme280.c ****             {
 4422              		.loc 1 526 13 is_stmt 1 view .LVU1469
 526:User/BME280/bme280.c ****             {
 4423              		.loc 1 526 16 is_stmt 0 view .LVU1470
 4424 025e 207A     		ldrb	r0, [r4, #8]
 548:User/BME280/bme280.c **** 
 4425              		.loc 1 548 30 view .LVU1471
 4426 0260 0122     		movs	r2, #1
 4427              	.LBE495:
 4428              	.LBE500:
1005:User/BME280/bme280.c ****     uint8_t reg_data;
 4429              		.loc 1 1005 13 view .LVU1472
 4430 0262 0138     		subs	r0, r0, #1
 4431 0264 431E     		subs	r3, r0, #1
 4432 0266 9841     		sbcs	r0, r0, r3
 4433 0268 7F23     		movs	r3, #127
 4434 026a 4042     		rsbs	r0, r0, #0
 4435 026c 9843     		bics	r0, r3
 4436              	.LBB501:
 4437              	.LBB496:
 548:User/BME280/bme280.c **** 
 4438              		.loc 1 548 30 view .LVU1473
 4439 026e 3100     		movs	r1, r6
 4440 0270 6368     		ldr	r3, [r4, #4]
 4441              	.LBE496:
 4442              	.LBE501:
1005:User/BME280/bme280.c ****     uint8_t reg_data;
 4443              		.loc 1 1005 13 view .LVU1474
 4444 0272 F530     		adds	r0, r0, #245
 4445              	.LVL325:
 4446              	.LBB502:
 4447              	.LBB497:
 535:User/BME280/bme280.c ****             {
 4448              		.loc 1 535 13 is_stmt 1 view .LVU1475
 548:User/BME280/bme280.c **** 
 4449              		.loc 1 548 13 view .LVU1476
 548:User/BME280/bme280.c **** 
 4450              		.loc 1 548 30 is_stmt 0 view .LVU1477
 4451 0274 A847     		blx	r5
 4452              	.LVL326:
 548:User/BME280/bme280.c **** 
 4453              		.loc 1 548 28 view .LVU1478
ARM GAS  C:\Users\upo\AppData\Local\Temp\ccJAZRXk.s 			page 132


 4454 0276 4523     		movs	r3, #69
 4455 0278 E054     		strb	r0, [r4, r3]
 551:User/BME280/bme280.c ****             {
 4456              		.loc 1 551 13 is_stmt 1 view .LVU1479
 551:User/BME280/bme280.c ****             {
 4457              		.loc 1 551 16 is_stmt 0 view .LVU1480
 4458 027a 0028     		cmp	r0, #0
 4459 027c 00D1     		bne	.LCB4383
 4460 027e EAE6     		b	.L255	@long jump
 4461              	.LCB4383:
 4462              	.LVL327:
 4463              	.L254:
 553:User/BME280/bme280.c ****             }
 4464              		.loc 1 553 22 view .LVU1481
 4465 0280 0420     		movs	r0, #4
 4466 0282 4042     		rsbs	r0, r0, #0
 4467              	.LVL328:
 566:User/BME280/bme280.c **** }
 4468              		.loc 1 566 5 is_stmt 1 view .LVU1482
 566:User/BME280/bme280.c **** }
 4469              		.loc 1 566 5 is_stmt 0 view .LVU1483
 4470              	.LBE497:
 4471              	.LBE502:
1026:User/BME280/bme280.c **** }
 4472              		.loc 1 1026 5 is_stmt 1 view .LVU1484
1026:User/BME280/bme280.c **** }
 4473              		.loc 1 1026 5 is_stmt 0 view .LVU1485
 4474              	.LBE471:
 4475              	.LBE470:
 4476              	.LBE520:
 4477              	.LBE532:
1127:User/BME280/bme280.c **** }
 4478              		.loc 1 1127 5 is_stmt 1 view .LVU1486
1127:User/BME280/bme280.c **** }
 4479              		.loc 1 1127 12 is_stmt 0 view .LVU1487
 4480 0284 E7E6     		b	.L255
 4481              	.LVL329:
 4482              	.L245:
 4483              	.LBB533:
 4484              	.LBB521:
 4485              	.LBB509:
 4486              	.LBB461:
 4487              	.LBB452:
 4488              	.LBB383:
 4489              	.LBB375:
 4490              	.LBB364:
 4491              	.LBB363:
 4492              	.LBB362:
1588:User/BME280/bme280.c ****     }
 4493              		.loc 1 1588 14 view .LVU1488
 4494 0286 0123     		movs	r3, #1
 4495 0288 5B42     		rsbs	r3, r3, #0
 4496 028a 2BE7     		b	.L207
 4497              	.LVL330:
 4498              	.L242:
1588:User/BME280/bme280.c ****     }
 4499              		.loc 1 1588 14 view .LVU1489
ARM GAS  C:\Users\upo\AppData\Local\Temp\ccJAZRXk.s 			page 133


 4500              	.LBE362:
 4501              	.LBE363:
 4502              	.LBE364:
 4503              	.LBE375:
 4504              	.LBE383:
 4505              	.LBE452:
 4506              	.LBE461:
 4507              	.LBE509:
 4508              	.LBE521:
 4509              	.LBE533:
 4510              	.LBB534:
 4511              	.LBB328:
 4512              	.LBB325:
 4513              	.LBB324:
 4514 028c 0123     		movs	r3, #1
 4515 028e 5B42     		rsbs	r3, r3, #0
 4516 0290 CCE6     		b	.L198
 4517              	.LVL331:
 4518              	.L213:
1588:User/BME280/bme280.c ****     }
 4519              		.loc 1 1588 14 view .LVU1490
 4520              	.LBE324:
 4521              	.LBE325:
 4522              	.LBE328:
 4523              	.LBE534:
 4524              	.LBB535:
 4525              	.LBB522:
 4526              	.LBB510:
 4527              	.LBB462:
 4528              	.LBB453:
 4529              	.LBB384:
 4530              	.LBB376:
 4531              	.LBB365:
 492:User/BME280/bme280.c ****     }
 4532              		.loc 1 492 9 is_stmt 1 view .LVU1491
 492:User/BME280/bme280.c ****     }
 4533              		.loc 1 492 14 is_stmt 0 view .LVU1492
 4534 0292 FF23     		movs	r3, #255
 4535 0294 3B70     		strb	r3, [r7]
 495:User/BME280/bme280.c **** }
 4536              		.loc 1 495 5 is_stmt 1 view .LVU1493
 4537              	.LVL332:
 495:User/BME280/bme280.c **** }
 4538              		.loc 1 495 12 is_stmt 0 view .LVU1494
 4539 0296 3B78     		ldrb	r3, [r7]
 4540              	.LVL333:
 495:User/BME280/bme280.c **** }
 4541              		.loc 1 495 12 view .LVU1495
 4542              	.LBE365:
 4543              	.LBE376:
 954:User/BME280/bme280.c ****         {
 4544              		.loc 1 954 9 is_stmt 1 view .LVU1496
 954:User/BME280/bme280.c ****         {
 4545              		.loc 1 954 12 is_stmt 0 view .LVU1497
 4546 0298 002B     		cmp	r3, #0
 4547 029a 00D0     		beq	.LCB4546
 4548 029c 3AE7     		b	.L209	@long jump
ARM GAS  C:\Users\upo\AppData\Local\Temp\ccJAZRXk.s 			page 134


 4549              	.LCB4546:
 4550              	.LVL334:
 4551              	.L216:
 4552              	.LBB377:
 4553              	.LBB372:
 4554              	.LBB368:
 4555              	.LBB369:
1585:User/BME280/bme280.c ****     {
 4556              		.loc 1 1585 23 view .LVU1498
 4557 029e 4B46     		mov	r3, r9
 4558 02a0 002B     		cmp	r3, #0
 4559 02a2 22D0     		beq	.L239
1585:User/BME280/bme280.c ****     {
 4560              		.loc 1 1585 53 view .LVU1499
 4561 02a4 2769     		ldr	r7, [r4, #16]
1585:User/BME280/bme280.c ****     {
 4562              		.loc 1 1585 46 view .LVU1500
 4563 02a6 002F     		cmp	r7, #0
 4564 02a8 1FD0     		beq	.L239
1585:User/BME280/bme280.c ****     {
 4565              		.loc 1 1585 70 view .LVU1501
 4566 02aa 6369     		ldr	r3, [r4, #20]
 4567 02ac 002B     		cmp	r3, #0
 4568 02ae 00D1     		bne	.LCB4561
 4569 02b0 35E7     		b	.L210	@long jump
 4570              	.LCB4561:
 4571              	.LVL335:
 4572              		.loc 1 1596 5 is_stmt 1 view .LVU1502
 4573              		.loc 1 1596 5 is_stmt 0 view .LVU1503
 4574              	.LBE369:
 4575              	.LBE368:
 519:User/BME280/bme280.c ****     {
 4576              		.loc 1 519 5 is_stmt 1 view .LVU1504
 521:User/BME280/bme280.c ****         {
 4577              		.loc 1 521 9 view .LVU1505
 523:User/BME280/bme280.c **** 
 4578              		.loc 1 523 13 view .LVU1506
 523:User/BME280/bme280.c **** 
 4579              		.loc 1 523 36 is_stmt 0 view .LVU1507
 4580 02b2 6B46     		mov	r3, sp
 4581 02b4 0733     		adds	r3, r3, #7
 523:User/BME280/bme280.c **** 
 4582              		.loc 1 523 26 view .LVU1508
 4583 02b6 1B78     		ldrb	r3, [r3]
 548:User/BME280/bme280.c **** 
 4584              		.loc 1 548 30 view .LVU1509
 4585 02b8 0122     		movs	r2, #1
 523:User/BME280/bme280.c **** 
 4586              		.loc 1 523 26 view .LVU1510
 4587 02ba 3370     		strb	r3, [r6]
 526:User/BME280/bme280.c ****             {
 4588              		.loc 1 526 13 is_stmt 1 view .LVU1511
 526:User/BME280/bme280.c ****             {
 4589              		.loc 1 526 16 is_stmt 0 view .LVU1512
 4590 02bc 207A     		ldrb	r0, [r4, #8]
 548:User/BME280/bme280.c **** 
 4591              		.loc 1 548 30 view .LVU1513
ARM GAS  C:\Users\upo\AppData\Local\Temp\ccJAZRXk.s 			page 135


 4592 02be 3100     		movs	r1, r6
 4593              	.LBE372:
 4594              	.LBE377:
 951:User/BME280/bme280.c ****         rslt = bme280_get_regs(reg_addr, &ctrl_meas, 1, dev);
 4595              		.loc 1 951 18 view .LVU1514
 4596 02c0 0138     		subs	r0, r0, #1
 4597 02c2 431E     		subs	r3, r0, #1
 4598 02c4 9841     		sbcs	r0, r0, r3
 4599 02c6 7F23     		movs	r3, #127
 4600 02c8 4042     		rsbs	r0, r0, #0
 4601 02ca 9843     		bics	r0, r3
 4602 02cc F430     		adds	r0, r0, #244
 4603              	.LVL336:
 4604              	.LBB378:
 4605              	.LBB373:
 535:User/BME280/bme280.c ****             {
 4606              		.loc 1 535 13 is_stmt 1 view .LVU1515
 548:User/BME280/bme280.c **** 
 4607              		.loc 1 548 13 view .LVU1516
 548:User/BME280/bme280.c **** 
 4608              		.loc 1 548 30 is_stmt 0 view .LVU1517
 4609 02ce 6368     		ldr	r3, [r4, #4]
 4610 02d0 B847     		blx	r7
 4611              	.LVL337:
 548:User/BME280/bme280.c **** 
 4612              		.loc 1 548 28 view .LVU1518
 4613 02d2 4523     		movs	r3, #69
 4614 02d4 E054     		strb	r0, [r4, r3]
 4615 02d6 1BE7     		b	.L304
 4616              	.LVL338:
 4617              	.L233:
 548:User/BME280/bme280.c **** 
 4618              		.loc 1 548 28 view .LVU1519
 4619              	.LBE373:
 4620              	.LBE378:
 4621              	.LBE384:
 4622              	.LBE453:
 4623              	.LBE462:
 4624              	.LBE510:
 4625              	.LBB511:
 4626              	.LBB506:
 4627              	.LBB503:
 4628              	.LBB478:
 492:User/BME280/bme280.c ****     }
 4629              		.loc 1 492 9 is_stmt 1 view .LVU1520
 492:User/BME280/bme280.c ****     }
 4630              		.loc 1 492 14 is_stmt 0 view .LVU1521
 4631 02d8 FF23     		movs	r3, #255
 4632 02da 3B70     		strb	r3, [r7]
 4633 02dc A0E7     		b	.L234
 4634              	.LVL339:
 4635              	.L310:
 492:User/BME280/bme280.c ****     }
 4636              		.loc 1 492 14 view .LVU1522
 4637              	.LBE478:
 4638              	.LBE503:
 4639              	.LBE506:
ARM GAS  C:\Users\upo\AppData\Local\Temp\ccJAZRXk.s 			page 136


 4640              	.LBE511:
 4641              	.LBB512:
 4642              	.LBB463:
 4643              	.LBB454:
 4644              	.LBB385:
 4645              	.LBB379:
 4646              	.LBB374:
 4647              	.LBB371:
 4648              	.LBB370:
1585:User/BME280/bme280.c ****     {
 4649              		.loc 1 1585 30 view .LVU1523
 4650 02de E368     		ldr	r3, [r4, #12]
 4651              	.LVL340:
1585:User/BME280/bme280.c ****     {
 4652              		.loc 1 1585 30 view .LVU1524
 4653 02e0 9946     		mov	r9, r3
 4654 02e2 DCE7     		b	.L216
 4655              	.LVL341:
 4656              	.L252:
1585:User/BME280/bme280.c ****     {
 4657              		.loc 1 1585 30 view .LVU1525
 4658              	.LBE370:
 4659              	.LBE371:
 4660              	.LBE374:
 4661              	.LBE379:
 4662              	.LBE385:
 4663              	.LBE454:
 4664              	.LBE463:
 4665              	.LBE512:
 4666              	.LBB513:
 4667              	.LBB507:
 4668              	.LBB504:
 4669              	.LBB498:
 563:User/BME280/bme280.c ****     }
 4670              		.loc 1 563 14 view .LVU1526
 4671 02e4 0120     		movs	r0, #1
 4672 02e6 4042     		rsbs	r0, r0, #0
 4673 02e8 B5E6     		b	.L255
 4674              	.LVL342:
 4675              	.L239:
 563:User/BME280/bme280.c ****     }
 4676              		.loc 1 563 14 view .LVU1527
 4677              	.LBE498:
 4678              	.LBE504:
 4679              	.LBE507:
 4680              	.LBE513:
 4681              	.LBB514:
 4682              	.LBB464:
 4683              	.LBB455:
 4684              	.LBB446:
 4685              	.LBB441:
 4686              	.LBB404:
 4687              	.LBB399:
 4688              	.LBB396:
1588:User/BME280/bme280.c ****     }
 4689              		.loc 1 1588 14 view .LVU1528
 4690 02ea 0123     		movs	r3, #1
ARM GAS  C:\Users\upo\AppData\Local\Temp\ccJAZRXk.s 			page 137


 4691 02ec 5B42     		rsbs	r3, r3, #0
 4692 02ee 1DE7     		b	.L211
 4693              	.LVL343:
 4694              	.L249:
1588:User/BME280/bme280.c ****     }
 4695              		.loc 1 1588 14 view .LVU1529
 4696              	.LBE396:
 4697              	.LBE399:
 4698              	.LBE404:
 4699              	.LBE441:
 4700              	.LBE446:
 4701              	.LBE455:
 4702              	.LBE464:
 4703              	.LBE514:
 4704              	.LBB515:
 4705              	.LBB508:
 4706              	.LBB505:
 4707              	.LBB479:
 4708              	.LBB477:
 4709              	.LBB476:
 4710 02f0 0123     		movs	r3, #1
 4711 02f2 5B42     		rsbs	r3, r3, #0
 4712 02f4 84E7     		b	.L231
 4713              	.LBE476:
 4714              	.LBE477:
 4715              	.LBE479:
 4716              	.LBE505:
 4717              	.LBE508:
 4718              	.LBE515:
 4719              	.LBE522:
 4720              	.LBE535:
 4721              		.cfi_endproc
 4722              	.LFE1447:
 4724 02f6 C046     		.section	.text.bme280_set_sensor_settings,"ax",%progbits
 4725              		.align	1
 4726              		.p2align 2,,3
 4727              		.global	bme280_set_sensor_settings
 4728              		.syntax unified
 4729              		.code	16
 4730              		.thumb_func
 4732              	bme280_set_sensor_settings:
 4733              	.LVL344:
 4734              	.LFB1428:
 574:User/BME280/bme280.c ****     int8_t rslt;
 4735              		.loc 1 574 1 is_stmt 1 view -0
 4736              		.cfi_startproc
 4737              		@ args = 0, pretend = 0, frame = 32
 4738              		@ frame_needed = 0, uses_anonymous_args = 0
 575:User/BME280/bme280.c ****     uint8_t sensor_mode;
 4739              		.loc 1 575 5 view .LVU1531
 576:User/BME280/bme280.c **** 
 4740              		.loc 1 576 5 view .LVU1532
 579:User/BME280/bme280.c **** 
 4741              		.loc 1 579 5 view .LVU1533
 4742              	.LBB602:
 4743              	.LBI602:
1581:User/BME280/bme280.c **** {
ARM GAS  C:\Users\upo\AppData\Local\Temp\ccJAZRXk.s 			page 138


 4744              		.loc 1 1581 15 view .LVU1534
 4745              	.LBB603:
1583:User/BME280/bme280.c **** 
 4746              		.loc 1 1583 5 view .LVU1535
1585:User/BME280/bme280.c ****     {
 4747              		.loc 1 1585 5 view .LVU1536
 4748              	.LBE603:
 4749              	.LBE602:
 574:User/BME280/bme280.c ****     int8_t rslt;
 4750              		.loc 1 574 1 is_stmt 0 view .LVU1537
 4751 0000 F0B5     		push	{r4, r5, r6, r7, lr}
 4752              	.LCFI25:
 4753              		.cfi_def_cfa_offset 20
 4754              		.cfi_offset 4, -20
 4755              		.cfi_offset 5, -16
 4756              		.cfi_offset 6, -12
 4757              		.cfi_offset 7, -8
 4758              		.cfi_offset 14, -4
 4759 0002 4646     		mov	r6, r8
 4760 0004 D646     		mov	lr, r10
 4761 0006 4F46     		mov	r7, r9
 4762 0008 C0B5     		push	{r6, r7, lr}
 4763              	.LCFI26:
 4764              		.cfi_def_cfa_offset 32
 4765              		.cfi_offset 8, -32
 4766              		.cfi_offset 9, -28
 4767              		.cfi_offset 10, -24
 4768 000a 0C00     		movs	r4, r1
 4769 000c 0600     		movs	r6, r0
 4770 000e 88B0     		sub	sp, sp, #32
 4771              	.LCFI27:
 4772              		.cfi_def_cfa_offset 64
 4773              	.LBB605:
 4774              	.LBB604:
1585:User/BME280/bme280.c ****     {
 4775              		.loc 1 1585 8 view .LVU1538
 4776 0010 0029     		cmp	r1, #0
 4777 0012 00D1     		bne	.LCB4811
 4778 0014 8EE1     		b	.L375	@long jump
 4779              	.LCB4811:
1585:User/BME280/bme280.c ****     {
 4780              		.loc 1 1585 30 view .LVU1539
 4781 0016 CB68     		ldr	r3, [r1, #12]
 4782 0018 9846     		mov	r8, r3
1585:User/BME280/bme280.c ****     {
 4783              		.loc 1 1585 23 view .LVU1540
 4784 001a 002B     		cmp	r3, #0
 4785 001c 00D1     		bne	.LCB4815
 4786 001e 89E1     		b	.L375	@long jump
 4787              	.LCB4815:
1585:User/BME280/bme280.c ****     {
 4788              		.loc 1 1585 46 view .LVU1541
 4789 0020 0B69     		ldr	r3, [r1, #16]
 4790 0022 002B     		cmp	r3, #0
 4791 0024 00D1     		bne	.LCB4818
 4792 0026 85E1     		b	.L375	@long jump
 4793              	.LCB4818:
ARM GAS  C:\Users\upo\AppData\Local\Temp\ccJAZRXk.s 			page 139


1585:User/BME280/bme280.c ****     {
 4794              		.loc 1 1585 70 view .LVU1542
 4795 0028 4B69     		ldr	r3, [r1, #20]
 4796 002a 002B     		cmp	r3, #0
 4797 002c 00D1     		bne	.LCB4821
 4798 002e 81E1     		b	.L375	@long jump
 4799              	.LCB4821:
 4800              	.LVL345:
 4801              		.loc 1 1596 5 is_stmt 1 view .LVU1543
 4802              		.loc 1 1596 5 is_stmt 0 view .LVU1544
 4803              	.LBE604:
 4804              	.LBE605:
 582:User/BME280/bme280.c ****     {
 4805              		.loc 1 582 5 is_stmt 1 view .LVU1545
 584:User/BME280/bme280.c **** 
 4806              		.loc 1 584 9 view .LVU1546
 4807              	.LBB606:
 4808              	.LBI606:
 676:User/BME280/bme280.c **** {
 4809              		.loc 1 676 8 view .LVU1547
 4810              	.LBB607:
 678:User/BME280/bme280.c **** 
 4811              		.loc 1 678 5 view .LVU1548
 681:User/BME280/bme280.c **** 
 4812              		.loc 1 681 5 view .LVU1549
 683:User/BME280/bme280.c ****     {
 4813              		.loc 1 683 5 view .LVU1550
 686:User/BME280/bme280.c **** 
 4814              		.loc 1 686 9 view .LVU1551
 4815              	.LBB608:
 4816              	.LBI608:
 462:User/BME280/bme280.c **** {
 4817              		.loc 1 462 8 view .LVU1552
 4818              	.LBB609:
 464:User/BME280/bme280.c **** 
 4819              		.loc 1 464 5 view .LVU1553
 467:User/BME280/bme280.c **** 
 4820              		.loc 1 467 5 view .LVU1554
 467:User/BME280/bme280.c **** 
 4821              		.loc 1 467 10 is_stmt 0 view .LVU1555
 4822 0030 6B46     		mov	r3, sp
 4823 0032 DD1D     		adds	r5, r3, #7
 4824 0034 0023     		movs	r3, #0
 4825 0036 2B70     		strb	r3, [r5]
 470:User/BME280/bme280.c ****     {
 4826              		.loc 1 470 5 is_stmt 1 view .LVU1556
 470:User/BME280/bme280.c ****     {
 4827              		.loc 1 470 15 is_stmt 0 view .LVU1557
 4828 0038 2B78     		ldrb	r3, [r5]
 470:User/BME280/bme280.c ****     {
 4829              		.loc 1 470 8 view .LVU1558
 4830 003a 002B     		cmp	r3, #0
 4831 003c 00D1     		bne	.LCB4858
 4832 003e 74E0     		b	.L437	@long jump
 4833              	.LCB4858:
 492:User/BME280/bme280.c ****     }
 4834              		.loc 1 492 9 is_stmt 1 view .LVU1559
ARM GAS  C:\Users\upo\AppData\Local\Temp\ccJAZRXk.s 			page 140


 492:User/BME280/bme280.c ****     }
 4835              		.loc 1 492 14 is_stmt 0 view .LVU1560
 4836 0040 FF23     		movs	r3, #255
 4837 0042 2B70     		strb	r3, [r5]
 4838 0044 6B46     		mov	r3, sp
 4839 0046 9F1D     		adds	r7, r3, #6
 4840              	.LVL346:
 4841              	.L316:
 495:User/BME280/bme280.c **** }
 4842              		.loc 1 495 5 is_stmt 1 view .LVU1561
 4843              	.LBE609:
 4844              	.LBE608:
 689:User/BME280/bme280.c ****     }
 4845              		.loc 1 689 24 is_stmt 0 view .LVU1562
 4846 0048 0323     		movs	r3, #3
 4847 004a 3978     		ldrb	r1, [r7]
 4848              	.LBB613:
 4849              	.LBB610:
 495:User/BME280/bme280.c **** }
 4850              		.loc 1 495 12 view .LVU1563
 4851 004c 2A78     		ldrb	r2, [r5]
 4852              	.LBE610:
 4853              	.LBE613:
 689:User/BME280/bme280.c ****     }
 4854              		.loc 1 689 24 view .LVU1564
 4855 004e 0B40     		ands	r3, r1
 4856              	.LBB614:
 4857              	.LBB611:
 495:User/BME280/bme280.c **** }
 4858              		.loc 1 495 12 view .LVU1565
 4859 0050 55B2     		sxtb	r5, r2
 4860              	.LVL347:
 495:User/BME280/bme280.c **** }
 4861              		.loc 1 495 12 view .LVU1566
 4862              	.LBE611:
 4863              	.LBE614:
 689:User/BME280/bme280.c ****     }
 4864              		.loc 1 689 9 is_stmt 1 view .LVU1567
 689:User/BME280/bme280.c ****     }
 4865              		.loc 1 689 22 is_stmt 0 view .LVU1568
 4866 0052 3B70     		strb	r3, [r7]
 696:User/BME280/bme280.c **** }
 4867              		.loc 1 696 5 is_stmt 1 view .LVU1569
 4868              	.LVL348:
 696:User/BME280/bme280.c **** }
 4869              		.loc 1 696 5 is_stmt 0 view .LVU1570
 4870              	.LBE607:
 4871              	.LBE606:
 586:User/BME280/bme280.c ****         {
 4872              		.loc 1 586 9 is_stmt 1 view .LVU1571
 586:User/BME280/bme280.c ****         {
 4873              		.loc 1 586 12 is_stmt 0 view .LVU1572
 4874 0054 002A     		cmp	r2, #0
 4875 0056 61D1     		bne	.L317
 586:User/BME280/bme280.c ****         {
 4876              		.loc 1 586 33 discriminator 1 view .LVU1573
 4877 0058 002B     		cmp	r3, #0
ARM GAS  C:\Users\upo\AppData\Local\Temp\ccJAZRXk.s 			page 141


 4878 005a 00D0     		beq	.LCB4906
 4879 005c 7EE0     		b	.L318	@long jump
 4880              	.LCB4906:
 4881              	.LVL349:
 4882              	.L321:
 596:User/BME280/bme280.c ****             {
 4883              		.loc 1 596 13 is_stmt 1 view .LVU1574
 4884              	.LBB617:
 4885              	.LBI617:
1559:User/BME280/bme280.c **** {
 4886              		.loc 1 1559 16 view .LVU1575
 4887              	.LBB618:
1561:User/BME280/bme280.c **** 
 4888              		.loc 1 1561 5 view .LVU1576
1563:User/BME280/bme280.c ****     {
 4889              		.loc 1 1563 5 view .LVU1577
1563:User/BME280/bme280.c ****     {
 4890              		.loc 1 1563 9 is_stmt 0 view .LVU1578
 4891 005e 0723     		movs	r3, #7
1563:User/BME280/bme280.c ****     {
 4892              		.loc 1 1563 8 view .LVU1579
 4893 0060 3342     		tst	r3, r6
 4894 0062 00D0     		beq	.LCB4922
 4895 0064 70E0     		b	.L319	@long jump
 4896              	.LCB4922:
 4897              	.LVL350:
 4898              	.L322:
1563:User/BME280/bme280.c ****     {
 4899              		.loc 1 1563 8 view .LVU1580
 4900              	.LBE618:
 4901              	.LBE617:
 4902              	.LBB620:
 4903              	.LBI620:
1559:User/BME280/bme280.c **** {
 4904              		.loc 1 1559 16 is_stmt 1 view .LVU1581
 4905              	.LBB621:
1561:User/BME280/bme280.c **** 
 4906              		.loc 1 1561 5 view .LVU1582
1563:User/BME280/bme280.c ****     {
 4907              		.loc 1 1563 5 view .LVU1583
1563:User/BME280/bme280.c ****     {
 4908              		.loc 1 1563 9 is_stmt 0 view .LVU1584
 4909 0066 1823     		movs	r3, #24
1563:User/BME280/bme280.c ****     {
 4910              		.loc 1 1563 8 view .LVU1585
 4911 0068 3342     		tst	r3, r6
 4912 006a 57D0     		beq	.L317
 4913              	.LVL351:
1574:User/BME280/bme280.c **** }
 4914              		.loc 1 1574 5 is_stmt 1 view .LVU1586
1574:User/BME280/bme280.c **** }
 4915              		.loc 1 1574 5 is_stmt 0 view .LVU1587
 4916              	.LBE621:
 4917              	.LBE620:
 606:User/BME280/bme280.c ****             }
 4918              		.loc 1 606 17 is_stmt 1 view .LVU1588
 4919              	.LBB622:
ARM GAS  C:\Users\upo\AppData\Local\Temp\ccJAZRXk.s 			page 142


 4920              	.LBI622:
1000:User/BME280/bme280.c ****                                           const struct bme280_settings *settings,
 4921              		.loc 1 1000 15 view .LVU1589
 4922              	.LBB623:
1004:User/BME280/bme280.c ****     uint8_t reg_addr = BME280_CONFIG_ADDR;
 4923              		.loc 1 1004 5 view .LVU1590
1005:User/BME280/bme280.c ****     uint8_t reg_data;
 4924              		.loc 1 1005 5 view .LVU1591
1006:User/BME280/bme280.c **** 
 4925              		.loc 1 1006 5 view .LVU1592
1008:User/BME280/bme280.c **** 
 4926              		.loc 1 1008 5 view .LVU1593
 4927              	.LBB624:
 4928              	.LBI624:
 462:User/BME280/bme280.c **** {
 4929              		.loc 1 462 8 view .LVU1594
 4930              	.LBB625:
 464:User/BME280/bme280.c **** 
 4931              		.loc 1 464 5 view .LVU1595
 467:User/BME280/bme280.c **** 
 4932              		.loc 1 467 5 view .LVU1596
 4933              	.LBB626:
 4934              	.LBI626:
1581:User/BME280/bme280.c **** {
 4935              		.loc 1 1581 15 view .LVU1597
 4936              	.LBB627:
1583:User/BME280/bme280.c **** 
 4937              		.loc 1 1583 5 view .LVU1598
1585:User/BME280/bme280.c ****     {
 4938              		.loc 1 1585 5 view .LVU1599
1585:User/BME280/bme280.c ****     {
 4939              		.loc 1 1585 30 is_stmt 0 view .LVU1600
 4940 006c E768     		ldr	r7, [r4, #12]
1585:User/BME280/bme280.c ****     {
 4941              		.loc 1 1585 23 view .LVU1601
 4942 006e 002F     		cmp	r7, #0
 4943 0070 00D1     		bne	.LCB4978
 4944 0072 62E1     		b	.L372	@long jump
 4945              	.LCB4978:
1585:User/BME280/bme280.c ****     {
 4946              		.loc 1 1585 46 view .LVU1602
 4947 0074 2369     		ldr	r3, [r4, #16]
 4948 0076 002B     		cmp	r3, #0
 4949 0078 00D1     		bne	.LCB4981
 4950 007a 5EE1     		b	.L372	@long jump
 4951              	.LCB4981:
1585:User/BME280/bme280.c ****     {
 4952              		.loc 1 1585 70 view .LVU1603
 4953 007c 6369     		ldr	r3, [r4, #20]
 4954 007e 5A42     		rsbs	r2, r3, #0
 4955 0080 5341     		adcs	r3, r3, r2
 4956 0082 5B42     		rsbs	r3, r3, #0
 4957              	.L349:
 4958              	.LVL352:
 4959              		.loc 1 1596 5 is_stmt 1 view .LVU1604
 4960              		.loc 1 1596 5 is_stmt 0 view .LVU1605
 4961              	.LBE627:
ARM GAS  C:\Users\upo\AppData\Local\Temp\ccJAZRXk.s 			page 143


 4962              	.LBE626:
 467:User/BME280/bme280.c **** 
 4963              		.loc 1 467 10 view .LVU1606
 4964 0084 0B25     		movs	r5, #11
 4965 0086 6D44     		add	r5, r5, sp
 4966 0088 2B70     		strb	r3, [r5]
 470:User/BME280/bme280.c ****     {
 4967              		.loc 1 470 5 is_stmt 1 view .LVU1607
 470:User/BME280/bme280.c ****     {
 4968              		.loc 1 470 15 is_stmt 0 view .LVU1608
 4969 008a 2B78     		ldrb	r3, [r5]
 470:User/BME280/bme280.c ****     {
 4970              		.loc 1 470 8 view .LVU1609
 4971 008c 002B     		cmp	r3, #0
 4972 008e 6DD0     		beq	.L438
 492:User/BME280/bme280.c ****     }
 4973              		.loc 1 492 9 is_stmt 1 view .LVU1610
 492:User/BME280/bme280.c ****     }
 4974              		.loc 1 492 14 is_stmt 0 view .LVU1611
 4975 0090 FF23     		movs	r3, #255
 4976 0092 2B70     		strb	r3, [r5]
 4977              	.L351:
 495:User/BME280/bme280.c **** }
 4978              		.loc 1 495 5 is_stmt 1 view .LVU1612
 495:User/BME280/bme280.c **** }
 4979              		.loc 1 495 12 is_stmt 0 view .LVU1613
 4980 0094 2B78     		ldrb	r3, [r5]
 4981 0096 5DB2     		sxtb	r5, r3
 4982              	.LVL353:
 495:User/BME280/bme280.c **** }
 4983              		.loc 1 495 12 view .LVU1614
 4984              	.LBE625:
 4985              	.LBE624:
1010:User/BME280/bme280.c ****     {
 4986              		.loc 1 1010 5 is_stmt 1 view .LVU1615
1010:User/BME280/bme280.c ****     {
 4987              		.loc 1 1010 8 is_stmt 0 view .LVU1616
 4988 0098 002B     		cmp	r3, #0
 4989 009a 3FD1     		bne	.L317
1012:User/BME280/bme280.c ****         {
 4990              		.loc 1 1012 9 is_stmt 1 view .LVU1617
1012:User/BME280/bme280.c ****         {
 4991              		.loc 1 1012 12 is_stmt 0 view .LVU1618
 4992 009c 3307     		lsls	r3, r6, #28
 4993 009e 0BD5     		bpl	.L353
1014:User/BME280/bme280.c ****         }
 4994              		.loc 1 1014 13 is_stmt 1 view .LVU1619
 4995              	.LVL354:
 4996              	.LBB632:
 4997              	.LBI632:
1033:User/BME280/bme280.c **** {
 4998              		.loc 1 1033 13 view .LVU1620
 4999              	.LBB633:
1035:User/BME280/bme280.c **** }
 5000              		.loc 1 1035 5 view .LVU1621
1035:User/BME280/bme280.c **** }
 5001              		.loc 1 1035 17 is_stmt 0 view .LVU1622
ARM GAS  C:\Users\upo\AppData\Local\Temp\ccJAZRXk.s 			page 144


 5002 00a0 2300     		movs	r3, r4
1035:User/BME280/bme280.c **** }
 5003              		.loc 1 1035 15 view .LVU1623
 5004 00a2 0A21     		movs	r1, #10
1035:User/BME280/bme280.c **** }
 5005              		.loc 1 1035 17 view .LVU1624
 5006 00a4 1C20     		movs	r0, #28
 5007 00a6 4033     		adds	r3, r3, #64
 5008 00a8 DB78     		ldrb	r3, [r3, #3]
1035:User/BME280/bme280.c **** }
 5009              		.loc 1 1035 15 view .LVU1625
 5010 00aa 6944     		add	r1, r1, sp
1035:User/BME280/bme280.c **** }
 5011              		.loc 1 1035 17 view .LVU1626
 5012 00ac 0A78     		ldrb	r2, [r1]
 5013 00ae 9B00     		lsls	r3, r3, #2
 5014 00b0 0340     		ands	r3, r0
 5015 00b2 8243     		bics	r2, r0
 5016 00b4 1343     		orrs	r3, r2
1035:User/BME280/bme280.c **** }
 5017              		.loc 1 1035 15 view .LVU1627
 5018 00b6 0B70     		strb	r3, [r1]
 5019              	.LVL355:
 5020              	.L353:
1035:User/BME280/bme280.c **** }
 5021              		.loc 1 1035 15 view .LVU1628
 5022              	.LBE633:
 5023              	.LBE632:
1017:User/BME280/bme280.c ****         {
 5024              		.loc 1 1017 9 is_stmt 1 view .LVU1629
1017:User/BME280/bme280.c ****         {
 5025              		.loc 1 1017 12 is_stmt 0 view .LVU1630
 5026 00b8 F606     		lsls	r6, r6, #27
 5027 00ba 0AD5     		bpl	.L354
 5028              	.LVL356:
1019:User/BME280/bme280.c ****         }
 5029              		.loc 1 1019 13 is_stmt 1 view .LVU1631
 5030              	.LBB634:
 5031              	.LBI634:
1042:User/BME280/bme280.c **** {
 5032              		.loc 1 1042 13 view .LVU1632
 5033              	.LBB635:
1044:User/BME280/bme280.c **** }
 5034              		.loc 1 1044 5 view .LVU1633
1044:User/BME280/bme280.c **** }
 5035              		.loc 1 1044 15 is_stmt 0 view .LVU1634
 5036 00bc 0A21     		movs	r1, #10
1044:User/BME280/bme280.c **** }
 5037              		.loc 1 1044 17 view .LVU1635
 5038 00be 1F23     		movs	r3, #31
1044:User/BME280/bme280.c **** }
 5039              		.loc 1 1044 15 view .LVU1636
 5040 00c0 6944     		add	r1, r1, sp
1044:User/BME280/bme280.c **** }
 5041              		.loc 1 1044 17 view .LVU1637
 5042 00c2 0A78     		ldrb	r2, [r1]
 5043 00c4 1340     		ands	r3, r2
ARM GAS  C:\Users\upo\AppData\Local\Temp\ccJAZRXk.s 			page 145


 5044 00c6 2200     		movs	r2, r4
 5045 00c8 4032     		adds	r2, r2, #64
 5046 00ca 1279     		ldrb	r2, [r2, #4]
 5047 00cc 5201     		lsls	r2, r2, #5
 5048 00ce 1343     		orrs	r3, r2
1044:User/BME280/bme280.c **** }
 5049              		.loc 1 1044 15 view .LVU1638
 5050 00d0 0B70     		strb	r3, [r1]
 5051              	.LVL357:
 5052              	.L354:
1044:User/BME280/bme280.c **** }
 5053              		.loc 1 1044 15 view .LVU1639
 5054              	.LBE635:
 5055              	.LBE634:
1023:User/BME280/bme280.c ****     }
 5056              		.loc 1 1023 9 is_stmt 1 view .LVU1640
 5057              	.LBB636:
 5058              	.LBI636:
 502:User/BME280/bme280.c **** {
 5059              		.loc 1 502 8 view .LVU1641
 5060              	.LBB637:
 504:User/BME280/bme280.c ****     uint8_t temp_buff[20]; /* Typically not to write more than 10 registers */
 5061              		.loc 1 504 5 view .LVU1642
 505:User/BME280/bme280.c **** 
 5062              		.loc 1 505 5 view .LVU1643
 507:User/BME280/bme280.c ****     {
 5063              		.loc 1 507 5 view .LVU1644
 512:User/BME280/bme280.c ****     uint8_t reg_addr_cnt;
 5064              		.loc 1 512 5 view .LVU1645
 513:User/BME280/bme280.c **** 
 5065              		.loc 1 513 5 view .LVU1646
 516:User/BME280/bme280.c **** 
 5066              		.loc 1 516 5 view .LVU1647
 5067              	.LBB638:
 5068              	.LBI638:
1581:User/BME280/bme280.c **** {
 5069              		.loc 1 1581 15 view .LVU1648
 5070              	.LBB639:
1583:User/BME280/bme280.c **** 
 5071              		.loc 1 1583 5 view .LVU1649
1585:User/BME280/bme280.c ****     {
 5072              		.loc 1 1585 5 view .LVU1650
1585:User/BME280/bme280.c ****     {
 5073              		.loc 1 1585 23 is_stmt 0 view .LVU1651
 5074 00d2 E368     		ldr	r3, [r4, #12]
 5075 00d4 002B     		cmp	r3, #0
 5076 00d6 00D1     		bne	.LCB5115
 5077 00d8 2CE1     		b	.L375	@long jump
 5078              	.LCB5115:
1585:User/BME280/bme280.c ****     {
 5079              		.loc 1 1585 53 view .LVU1652
 5080 00da 2569     		ldr	r5, [r4, #16]
 5081              	.LVL358:
1585:User/BME280/bme280.c ****     {
 5082              		.loc 1 1585 46 view .LVU1653
 5083 00dc 002D     		cmp	r5, #0
 5084 00de 00D1     		bne	.LCB5119
ARM GAS  C:\Users\upo\AppData\Local\Temp\ccJAZRXk.s 			page 146


 5085 00e0 28E1     		b	.L375	@long jump
 5086              	.LCB5119:
1585:User/BME280/bme280.c ****     {
 5087              		.loc 1 1585 70 view .LVU1654
 5088 00e2 6369     		ldr	r3, [r4, #20]
 5089 00e4 002B     		cmp	r3, #0
 5090 00e6 00D1     		bne	.LCB5122
 5091 00e8 24E1     		b	.L375	@long jump
 5092              	.LCB5122:
 5093              	.LVL359:
 5094              		.loc 1 1596 5 is_stmt 1 view .LVU1655
 5095              		.loc 1 1596 5 is_stmt 0 view .LVU1656
 5096              	.LBE639:
 5097              	.LBE638:
 519:User/BME280/bme280.c ****     {
 5098              		.loc 1 519 5 is_stmt 1 view .LVU1657
 521:User/BME280/bme280.c ****         {
 5099              		.loc 1 521 9 view .LVU1658
 523:User/BME280/bme280.c **** 
 5100              		.loc 1 523 13 view .LVU1659
 523:User/BME280/bme280.c **** 
 5101              		.loc 1 523 26 is_stmt 0 view .LVU1660
 5102 00ea 03AB     		add	r3, sp, #12
 5103 00ec 9A46     		mov	r10, r3
 523:User/BME280/bme280.c **** 
 5104              		.loc 1 523 36 view .LVU1661
 5105 00ee 0A23     		movs	r3, #10
 523:User/BME280/bme280.c **** 
 5106              		.loc 1 523 26 view .LVU1662
 5107 00f0 5246     		mov	r2, r10
 523:User/BME280/bme280.c **** 
 5108              		.loc 1 523 36 view .LVU1663
 5109 00f2 6B44     		add	r3, r3, sp
 523:User/BME280/bme280.c **** 
 5110              		.loc 1 523 26 view .LVU1664
 5111 00f4 1B78     		ldrb	r3, [r3]
 548:User/BME280/bme280.c **** 
 5112              		.loc 1 548 30 view .LVU1665
 5113 00f6 5146     		mov	r1, r10
 523:User/BME280/bme280.c **** 
 5114              		.loc 1 523 26 view .LVU1666
 5115 00f8 1370     		strb	r3, [r2]
 526:User/BME280/bme280.c ****             {
 5116              		.loc 1 526 13 is_stmt 1 view .LVU1667
 526:User/BME280/bme280.c ****             {
 5117              		.loc 1 526 16 is_stmt 0 view .LVU1668
 5118 00fa 207A     		ldrb	r0, [r4, #8]
 548:User/BME280/bme280.c **** 
 5119              		.loc 1 548 30 view .LVU1669
 5120 00fc 0122     		movs	r2, #1
 5121              	.LBE637:
 5122              	.LBE636:
1005:User/BME280/bme280.c ****     uint8_t reg_data;
 5123              		.loc 1 1005 13 view .LVU1670
 5124 00fe 0138     		subs	r0, r0, #1
 5125 0100 431E     		subs	r3, r0, #1
 5126 0102 9841     		sbcs	r0, r0, r3
ARM GAS  C:\Users\upo\AppData\Local\Temp\ccJAZRXk.s 			page 147


 5127 0104 7F23     		movs	r3, #127
 5128 0106 4042     		rsbs	r0, r0, #0
 5129 0108 9843     		bics	r0, r3
 5130 010a F530     		adds	r0, r0, #245
 5131              	.LVL360:
 5132              	.LBB642:
 5133              	.LBB640:
 535:User/BME280/bme280.c ****             {
 5134              		.loc 1 535 13 is_stmt 1 view .LVU1671
 548:User/BME280/bme280.c **** 
 5135              		.loc 1 548 13 view .LVU1672
 548:User/BME280/bme280.c **** 
 5136              		.loc 1 548 30 is_stmt 0 view .LVU1673
 5137 010c 6368     		ldr	r3, [r4, #4]
 5138 010e A847     		blx	r5
 5139              	.LVL361:
 548:User/BME280/bme280.c **** 
 5140              		.loc 1 548 28 view .LVU1674
 5141 0110 4523     		movs	r3, #69
 548:User/BME280/bme280.c **** 
 5142              		.loc 1 548 30 view .LVU1675
 5143 0112 051E     		subs	r5, r0, #0
 548:User/BME280/bme280.c **** 
 5144              		.loc 1 548 28 view .LVU1676
 5145 0114 E054     		strb	r0, [r4, r3]
 551:User/BME280/bme280.c ****             {
 5146              		.loc 1 551 13 is_stmt 1 view .LVU1677
 551:User/BME280/bme280.c ****             {
 5147              		.loc 1 551 16 is_stmt 0 view .LVU1678
 5148 0116 01D0     		beq	.L317
 5149              	.LVL362:
 5150              	.L377:
 553:User/BME280/bme280.c ****             }
 5151              		.loc 1 553 22 view .LVU1679
 5152 0118 0425     		movs	r5, #4
 5153 011a 6D42     		rsbs	r5, r5, #0
 5154              	.LVL363:
 566:User/BME280/bme280.c **** }
 5155              		.loc 1 566 5 is_stmt 1 view .LVU1680
 566:User/BME280/bme280.c **** }
 5156              		.loc 1 566 5 is_stmt 0 view .LVU1681
 5157              	.LBE640:
 5158              	.LBE642:
1026:User/BME280/bme280.c **** }
 5159              		.loc 1 1026 5 is_stmt 1 view .LVU1682
 5160              	.L317:
1026:User/BME280/bme280.c **** }
 5161              		.loc 1 1026 5 is_stmt 0 view .LVU1683
 5162              	.LBE623:
 5163              	.LBE622:
 611:User/BME280/bme280.c **** }
 5164              		.loc 1 611 5 is_stmt 1 view .LVU1684
 612:User/BME280/bme280.c **** 
 5165              		.loc 1 612 1 is_stmt 0 view .LVU1685
 5166 011c 2800     		movs	r0, r5
 5167 011e 08B0     		add	sp, sp, #32
 5168              		@ sp needed
ARM GAS  C:\Users\upo\AppData\Local\Temp\ccJAZRXk.s 			page 148


 5169              	.LVL364:
 5170              	.LVL365:
 612:User/BME280/bme280.c **** 
 5171              		.loc 1 612 1 view .LVU1686
 5172 0120 E0BC     		pop	{r5, r6, r7}
 5173 0122 BA46     		mov	r10, r7
 5174 0124 B146     		mov	r9, r6
 5175 0126 A846     		mov	r8, r5
 5176 0128 F0BD     		pop	{r4, r5, r6, r7, pc}
 5177              	.LVL366:
 5178              	.L437:
 5179              	.LBB648:
 5180              	.LBB616:
 5181              	.LBB615:
 5182              	.LBB612:
 473:User/BME280/bme280.c ****         {
 5183              		.loc 1 473 9 is_stmt 1 view .LVU1687
 482:User/BME280/bme280.c **** 
 5184              		.loc 1 482 9 view .LVU1688
 482:User/BME280/bme280.c **** 
 5185              		.loc 1 482 26 is_stmt 0 view .LVU1689
 5186 012a 6A46     		mov	r2, sp
 5187 012c 971D     		adds	r7, r2, #6
 5188 012e 4B68     		ldr	r3, [r1, #4]
 5189 0130 0122     		movs	r2, #1
 5190 0132 3900     		movs	r1, r7
 5191              	.LVL367:
 482:User/BME280/bme280.c **** 
 5192              		.loc 1 482 26 view .LVU1690
 5193 0134 F420     		movs	r0, #244
 5194              	.LVL368:
 482:User/BME280/bme280.c **** 
 5195              		.loc 1 482 26 view .LVU1691
 5196 0136 C047     		blx	r8
 5197              	.LVL369:
 482:User/BME280/bme280.c **** 
 5198              		.loc 1 482 24 view .LVU1692
 5199 0138 4523     		movs	r3, #69
 5200 013a E054     		strb	r0, [r4, r3]
 485:User/BME280/bme280.c ****         {
 5201              		.loc 1 485 9 is_stmt 1 view .LVU1693
 485:User/BME280/bme280.c ****         {
 5202              		.loc 1 485 12 is_stmt 0 view .LVU1694
 5203 013c 0028     		cmp	r0, #0
 5204 013e 00D1     		bne	.LCB5249
 5205 0140 82E7     		b	.L316	@long jump
 5206              	.LCB5249:
 487:User/BME280/bme280.c ****         }
 5207              		.loc 1 487 13 is_stmt 1 view .LVU1695
 487:User/BME280/bme280.c ****         }
 5208              		.loc 1 487 18 is_stmt 0 view .LVU1696
 5209 0142 B733     		adds	r3, r3, #183
 5210 0144 2B70     		strb	r3, [r5]
 5211 0146 7FE7     		b	.L316
 5212              	.LVL370:
 5213              	.L319:
 487:User/BME280/bme280.c ****         }
ARM GAS  C:\Users\upo\AppData\Local\Temp\ccJAZRXk.s 			page 149


 5214              		.loc 1 487 18 view .LVU1697
 5215              	.LBE612:
 5216              	.LBE615:
 5217              	.LBE616:
 5218              	.LBE648:
 5219              	.LBB649:
 5220              	.LBB619:
1574:User/BME280/bme280.c **** }
 5221              		.loc 1 1574 5 is_stmt 1 view .LVU1698
1574:User/BME280/bme280.c **** }
 5222              		.loc 1 1574 5 is_stmt 0 view .LVU1699
 5223              	.LBE619:
 5224              	.LBE649:
 598:User/BME280/bme280.c ****             }
 5225              		.loc 1 598 17 is_stmt 1 view .LVU1700
 5226              	.LBB650:
 5227              	.LBI650:
 914:User/BME280/bme280.c **** {
 5228              		.loc 1 914 15 view .LVU1701
 5229              	.LBB651:
 916:User/BME280/bme280.c **** 
 5230              		.loc 1 916 5 view .LVU1702
 918:User/BME280/bme280.c ****     {
 5231              		.loc 1 918 5 view .LVU1703
 5232 0148 0322     		movs	r2, #3
 5233 014a 3240     		ands	r2, r6
 5234 014c 9146     		mov	r9, r2
 918:User/BME280/bme280.c ****     {
 5235              		.loc 1 918 8 is_stmt 0 view .LVU1704
 5236 014e 7207     		lsls	r2, r6, #29
 5237 0150 1AD4     		bmi	.L323
 923:User/BME280/bme280.c ****     {
 5238              		.loc 1 923 5 is_stmt 1 view .LVU1705
 923:User/BME280/bme280.c ****     {
 5239              		.loc 1 923 8 is_stmt 0 view .LVU1706
 5240 0152 4B46     		mov	r3, r9
 5241 0154 002B     		cmp	r3, #0
 5242 0156 5FD1     		bne	.L330
 916:User/BME280/bme280.c **** 
 5243              		.loc 1 916 12 view .LVU1707
 5244 0158 0125     		movs	r5, #1
 5245 015a DFE7     		b	.L317
 5246              	.LVL371:
 5247              	.L318:
 916:User/BME280/bme280.c **** 
 5248              		.loc 1 916 12 view .LVU1708
 5249              	.LBE651:
 5250              	.LBE650:
 588:User/BME280/bme280.c ****         }
 5251              		.loc 1 588 13 is_stmt 1 view .LVU1709
 588:User/BME280/bme280.c ****         }
 5252              		.loc 1 588 20 is_stmt 0 view .LVU1710
 5253 015c 2000     		movs	r0, r4
 5254 015e FFF7FEFF 		bl	put_device_to_sleep
 5255              	.LVL372:
 591:User/BME280/bme280.c ****         {
 5256              		.loc 1 591 9 is_stmt 1 view .LVU1711
ARM GAS  C:\Users\upo\AppData\Local\Temp\ccJAZRXk.s 			page 150


 591:User/BME280/bme280.c ****         {
 5257              		.loc 1 591 12 is_stmt 0 view .LVU1712
 5258 0162 0028     		cmp	r0, #0
 5259 0164 00D1     		bne	.LCB5325
 5260 0166 7AE7     		b	.L321	@long jump
 5261              	.LCB5325:
 5262 0168 0500     		movs	r5, r0
 5263 016a D7E7     		b	.L317
 5264              	.LVL373:
 5265              	.L438:
 5266              	.LBB733:
 5267              	.LBB646:
 5268              	.LBB643:
 5269              	.LBB630:
 473:User/BME280/bme280.c ****         {
 5270              		.loc 1 473 9 is_stmt 1 view .LVU1713
 482:User/BME280/bme280.c **** 
 5271              		.loc 1 482 9 view .LVU1714
 482:User/BME280/bme280.c **** 
 5272              		.loc 1 482 26 is_stmt 0 view .LVU1715
 5273 016c 0A21     		movs	r1, #10
 5274 016e 6368     		ldr	r3, [r4, #4]
 5275 0170 0122     		movs	r2, #1
 5276 0172 F520     		movs	r0, #245
 5277 0174 6944     		add	r1, r1, sp
 5278 0176 B847     		blx	r7
 5279              	.LVL374:
 482:User/BME280/bme280.c **** 
 5280              		.loc 1 482 24 view .LVU1716
 5281 0178 4523     		movs	r3, #69
 5282 017a E054     		strb	r0, [r4, r3]
 485:User/BME280/bme280.c ****         {
 5283              		.loc 1 485 9 is_stmt 1 view .LVU1717
 485:User/BME280/bme280.c ****         {
 5284              		.loc 1 485 12 is_stmt 0 view .LVU1718
 5285 017c 0028     		cmp	r0, #0
 5286 017e 00D1     		bne	.LCB5358
 5287 0180 88E7     		b	.L351	@long jump
 5288              	.LCB5358:
 487:User/BME280/bme280.c ****         }
 5289              		.loc 1 487 13 is_stmt 1 view .LVU1719
 487:User/BME280/bme280.c ****         }
 5290              		.loc 1 487 18 is_stmt 0 view .LVU1720
 5291 0182 B733     		adds	r3, r3, #183
 5292 0184 2B70     		strb	r3, [r5]
 5293 0186 85E7     		b	.L351
 5294              	.LVL375:
 5295              	.L323:
 487:User/BME280/bme280.c ****         }
 5296              		.loc 1 487 18 view .LVU1721
 5297              	.LBE630:
 5298              	.LBE643:
 5299              	.LBE646:
 5300              	.LBE733:
 5301              	.LBB734:
 5302              	.LBB730:
 920:User/BME280/bme280.c ****     }
ARM GAS  C:\Users\upo\AppData\Local\Temp\ccJAZRXk.s 			page 151


 5303              		.loc 1 920 9 is_stmt 1 view .LVU1722
 5304              	.LBB652:
 5305              	.LBI652:
 934:User/BME280/bme280.c **** {
 5306              		.loc 1 934 15 view .LVU1723
 5307              	.LBB653:
 936:User/BME280/bme280.c ****     uint8_t ctrl_hum;
 5308              		.loc 1 936 5 view .LVU1724
 937:User/BME280/bme280.c ****     uint8_t ctrl_meas;
 5309              		.loc 1 937 5 view .LVU1725
 938:User/BME280/bme280.c ****     uint8_t reg_addr = BME280_CTRL_HUM_ADDR;
 5310              		.loc 1 938 5 view .LVU1726
 939:User/BME280/bme280.c **** 
 5311              		.loc 1 939 5 view .LVU1727
 941:User/BME280/bme280.c **** 
 5312              		.loc 1 941 5 view .LVU1728
 941:User/BME280/bme280.c **** 
 5313              		.loc 1 941 32 is_stmt 0 view .LVU1729
 5314 0188 4222     		movs	r2, #66
 5315 018a A25C     		ldrb	r2, [r4, r2]
 5316 018c 1A40     		ands	r2, r3
 5317              	.LVL376:
 944:User/BME280/bme280.c **** 
 5318              		.loc 1 944 5 is_stmt 1 view .LVU1730
 5319              	.LBB654:
 5320              	.LBI654:
 502:User/BME280/bme280.c **** {
 5321              		.loc 1 502 8 view .LVU1731
 5322              	.LBB655:
 504:User/BME280/bme280.c ****     uint8_t temp_buff[20]; /* Typically not to write more than 10 registers */
 5323              		.loc 1 504 5 view .LVU1732
 505:User/BME280/bme280.c **** 
 5324              		.loc 1 505 5 view .LVU1733
 507:User/BME280/bme280.c ****     {
 5325              		.loc 1 507 5 view .LVU1734
 512:User/BME280/bme280.c ****     uint8_t reg_addr_cnt;
 5326              		.loc 1 512 5 view .LVU1735
 513:User/BME280/bme280.c **** 
 5327              		.loc 1 513 5 view .LVU1736
 516:User/BME280/bme280.c **** 
 5328              		.loc 1 516 5 view .LVU1737
 5329              	.LBB656:
 5330              	.LBI656:
1581:User/BME280/bme280.c **** {
 5331              		.loc 1 1581 15 view .LVU1738
 5332              	.LBB657:
1583:User/BME280/bme280.c **** 
 5333              		.loc 1 1583 5 view .LVU1739
1585:User/BME280/bme280.c ****     {
 5334              		.loc 1 1585 5 view .LVU1740
1585:User/BME280/bme280.c ****     {
 5335              		.loc 1 1585 23 is_stmt 0 view .LVU1741
 5336 018e E368     		ldr	r3, [r4, #12]
 5337 0190 002B     		cmp	r3, #0
 5338 0192 00D1     		bne	.LCB5425
 5339 0194 D4E0     		b	.L361	@long jump
 5340              	.LCB5425:
ARM GAS  C:\Users\upo\AppData\Local\Temp\ccJAZRXk.s 			page 152


1585:User/BME280/bme280.c ****     {
 5341              		.loc 1 1585 53 view .LVU1742
 5342 0196 2769     		ldr	r7, [r4, #16]
1585:User/BME280/bme280.c ****     {
 5343              		.loc 1 1585 46 view .LVU1743
 5344 0198 002F     		cmp	r7, #0
 5345 019a 00D1     		bne	.LCB5428
 5346 019c D0E0     		b	.L361	@long jump
 5347              	.LCB5428:
1585:User/BME280/bme280.c ****     {
 5348              		.loc 1 1585 70 view .LVU1744
 5349 019e 6369     		ldr	r3, [r4, #20]
 5350 01a0 002B     		cmp	r3, #0
 5351 01a2 00D1     		bne	.LCB5431
 5352 01a4 CCE0     		b	.L361	@long jump
 5353              	.LCB5431:
 5354              	.LVL377:
 5355              		.loc 1 1596 5 is_stmt 1 view .LVU1745
 5356              		.loc 1 1596 5 is_stmt 0 view .LVU1746
 5357              	.LBE657:
 5358              	.LBE656:
 519:User/BME280/bme280.c ****     {
 5359              		.loc 1 519 5 is_stmt 1 view .LVU1747
 521:User/BME280/bme280.c ****         {
 5360              		.loc 1 521 9 view .LVU1748
 523:User/BME280/bme280.c **** 
 5361              		.loc 1 523 13 view .LVU1749
 523:User/BME280/bme280.c **** 
 5362              		.loc 1 523 26 is_stmt 0 view .LVU1750
 5363 01a6 03AB     		add	r3, sp, #12
 5364 01a8 1A70     		strb	r2, [r3]
 526:User/BME280/bme280.c ****             {
 5365              		.loc 1 526 13 is_stmt 1 view .LVU1751
 526:User/BME280/bme280.c ****             {
 5366              		.loc 1 526 16 is_stmt 0 view .LVU1752
 5367 01aa 207A     		ldrb	r0, [r4, #8]
 523:User/BME280/bme280.c **** 
 5368              		.loc 1 523 26 view .LVU1753
 5369 01ac 9A46     		mov	r10, r3
 5370              	.LBE655:
 5371              	.LBE654:
 939:User/BME280/bme280.c **** 
 5372              		.loc 1 939 13 view .LVU1754
 5373 01ae 0138     		subs	r0, r0, #1
 5374 01b0 431E     		subs	r3, r0, #1
 5375 01b2 9841     		sbcs	r0, r0, r3
 5376 01b4 7F23     		movs	r3, #127
 5377 01b6 4042     		rsbs	r0, r0, #0
 5378 01b8 9843     		bics	r0, r3
 5379              	.LBB662:
 5380              	.LBB658:
 548:User/BME280/bme280.c **** 
 5381              		.loc 1 548 30 view .LVU1755
 5382 01ba 0122     		movs	r2, #1
 5383              	.LVL378:
 548:User/BME280/bme280.c **** 
 5384              		.loc 1 548 30 view .LVU1756
ARM GAS  C:\Users\upo\AppData\Local\Temp\ccJAZRXk.s 			page 153


 5385 01bc 6368     		ldr	r3, [r4, #4]
 5386 01be 5146     		mov	r1, r10
 5387              	.LBE658:
 5388              	.LBE662:
 939:User/BME280/bme280.c **** 
 5389              		.loc 1 939 13 view .LVU1757
 5390 01c0 F230     		adds	r0, r0, #242
 5391              	.LVL379:
 5392              	.LBB663:
 5393              	.LBB659:
 535:User/BME280/bme280.c ****             {
 5394              		.loc 1 535 13 is_stmt 1 view .LVU1758
 548:User/BME280/bme280.c **** 
 5395              		.loc 1 548 13 view .LVU1759
 548:User/BME280/bme280.c **** 
 5396              		.loc 1 548 30 is_stmt 0 view .LVU1760
 5397 01c2 B847     		blx	r7
 5398              	.LVL380:
 548:User/BME280/bme280.c **** 
 5399              		.loc 1 548 28 view .LVU1761
 5400 01c4 4523     		movs	r3, #69
 5401 01c6 E054     		strb	r0, [r4, r3]
 551:User/BME280/bme280.c ****             {
 5402              		.loc 1 551 13 is_stmt 1 view .LVU1762
 551:User/BME280/bme280.c ****             {
 5403              		.loc 1 551 16 is_stmt 0 view .LVU1763
 5404 01c8 0028     		cmp	r0, #0
 5405 01ca 00D0     		beq	.LCB5476
 5406 01cc C0E0     		b	.L363	@long jump
 5407              	.LCB5476:
 566:User/BME280/bme280.c **** }
 5408              		.loc 1 566 5 is_stmt 1 view .LVU1764
 5409              	.LVL381:
 566:User/BME280/bme280.c **** }
 5410              		.loc 1 566 5 is_stmt 0 view .LVU1765
 5411              	.LBE659:
 5412              	.LBE663:
 949:User/BME280/bme280.c ****     {
 5413              		.loc 1 949 5 is_stmt 1 view .LVU1766
 951:User/BME280/bme280.c ****         rslt = bme280_get_regs(reg_addr, &ctrl_meas, 1, dev);
 5414              		.loc 1 951 9 view .LVU1767
 952:User/BME280/bme280.c **** 
 5415              		.loc 1 952 9 view .LVU1768
 5416              	.LBB664:
 5417              	.LBI664:
 462:User/BME280/bme280.c **** {
 5418              		.loc 1 462 8 view .LVU1769
 5419              	.LBB665:
 464:User/BME280/bme280.c **** 
 5420              		.loc 1 464 5 view .LVU1770
 467:User/BME280/bme280.c **** 
 5421              		.loc 1 467 5 view .LVU1771
 5422              	.LBB666:
 5423              	.LBI666:
1581:User/BME280/bme280.c **** {
 5424              		.loc 1 1581 15 view .LVU1772
 5425              	.LBB667:
ARM GAS  C:\Users\upo\AppData\Local\Temp\ccJAZRXk.s 			page 154


1583:User/BME280/bme280.c **** 
 5426              		.loc 1 1583 5 view .LVU1773
1585:User/BME280/bme280.c ****     {
 5427              		.loc 1 1585 5 view .LVU1774
1585:User/BME280/bme280.c ****     {
 5428              		.loc 1 1585 30 is_stmt 0 view .LVU1775
 5429 01ce E368     		ldr	r3, [r4, #12]
 5430 01d0 9846     		mov	r8, r3
1585:User/BME280/bme280.c ****     {
 5431              		.loc 1 1585 23 view .LVU1776
 5432 01d2 002B     		cmp	r3, #0
 5433 01d4 00D1     		bne	.LCB5510
 5434 01d6 C1E0     		b	.L365	@long jump
 5435              	.LCB5510:
1585:User/BME280/bme280.c ****     {
 5436              		.loc 1 1585 46 view .LVU1777
 5437 01d8 2369     		ldr	r3, [r4, #16]
 5438 01da 002B     		cmp	r3, #0
 5439 01dc 00D1     		bne	.LCB5513
 5440 01de BDE0     		b	.L365	@long jump
 5441              	.LCB5513:
1585:User/BME280/bme280.c ****     {
 5442              		.loc 1 1585 70 view .LVU1778
 5443 01e0 6369     		ldr	r3, [r4, #20]
 5444 01e2 5A42     		rsbs	r2, r3, #0
 5445 01e4 5341     		adcs	r3, r3, r2
 5446 01e6 5B42     		rsbs	r3, r3, #0
 5447              	.L328:
 5448              	.LVL382:
 5449              		.loc 1 1596 5 is_stmt 1 view .LVU1779
 5450              		.loc 1 1596 5 is_stmt 0 view .LVU1780
 5451              	.LBE667:
 5452              	.LBE666:
 467:User/BME280/bme280.c **** 
 5453              		.loc 1 467 10 view .LVU1781
 5454 01e8 02AF     		add	r7, sp, #8
 5455 01ea 3B70     		strb	r3, [r7]
 470:User/BME280/bme280.c ****     {
 5456              		.loc 1 470 5 is_stmt 1 view .LVU1782
 470:User/BME280/bme280.c ****     {
 5457              		.loc 1 470 15 is_stmt 0 view .LVU1783
 5458 01ec 3B78     		ldrb	r3, [r7]
 470:User/BME280/bme280.c ****     {
 5459              		.loc 1 470 8 view .LVU1784
 5460 01ee 002B     		cmp	r3, #0
 5461 01f0 76D1     		bne	.L331
 473:User/BME280/bme280.c ****         {
 5462              		.loc 1 473 9 is_stmt 1 view .LVU1785
 482:User/BME280/bme280.c **** 
 5463              		.loc 1 482 9 view .LVU1786
 482:User/BME280/bme280.c **** 
 5464              		.loc 1 482 26 is_stmt 0 view .LVU1787
 5465 01f2 0B21     		movs	r1, #11
 5466 01f4 6368     		ldr	r3, [r4, #4]
 5467 01f6 0122     		movs	r2, #1
 5468 01f8 F420     		movs	r0, #244
 5469 01fa 6944     		add	r1, r1, sp
ARM GAS  C:\Users\upo\AppData\Local\Temp\ccJAZRXk.s 			page 155


 5470 01fc C047     		blx	r8
 5471              	.LVL383:
 482:User/BME280/bme280.c **** 
 5472              		.loc 1 482 24 view .LVU1788
 5473 01fe 4523     		movs	r3, #69
 5474 0200 E054     		strb	r0, [r4, r3]
 485:User/BME280/bme280.c ****         {
 5475              		.loc 1 485 9 is_stmt 1 view .LVU1789
 485:User/BME280/bme280.c ****         {
 5476              		.loc 1 485 12 is_stmt 0 view .LVU1790
 5477 0202 0028     		cmp	r0, #0
 5478 0204 01D0     		beq	.L332
 487:User/BME280/bme280.c ****         }
 5479              		.loc 1 487 13 is_stmt 1 view .LVU1791
 487:User/BME280/bme280.c ****         }
 5480              		.loc 1 487 18 is_stmt 0 view .LVU1792
 5481 0206 B733     		adds	r3, r3, #183
 5482 0208 3B70     		strb	r3, [r7]
 5483              	.L332:
 495:User/BME280/bme280.c **** }
 5484              		.loc 1 495 5 is_stmt 1 view .LVU1793
 495:User/BME280/bme280.c **** }
 5485              		.loc 1 495 12 is_stmt 0 view .LVU1794
 5486 020a 3B78     		ldrb	r3, [r7]
 5487 020c 5AB2     		sxtb	r2, r3
 5488              	.LVL384:
 495:User/BME280/bme280.c **** }
 5489              		.loc 1 495 12 view .LVU1795
 5490              	.LBE665:
 5491              	.LBE664:
 954:User/BME280/bme280.c ****         {
 5492              		.loc 1 954 9 is_stmt 1 view .LVU1796
 954:User/BME280/bme280.c ****         {
 5493              		.loc 1 954 12 is_stmt 0 view .LVU1797
 5494 020e 002B     		cmp	r3, #0
 5495 0210 69D0     		beq	.L333
 960:User/BME280/bme280.c **** }
 5496              		.loc 1 960 5 is_stmt 1 view .LVU1798
 5497              	.LVL385:
 960:User/BME280/bme280.c **** }
 5498              		.loc 1 960 5 is_stmt 0 view .LVU1799
 5499              	.LBE653:
 5500              	.LBE652:
 923:User/BME280/bme280.c ****     {
 5501              		.loc 1 923 5 is_stmt 1 view .LVU1800
 923:User/BME280/bme280.c ****     {
 5502              		.loc 1 923 8 is_stmt 0 view .LVU1801
 5503 0212 4B46     		mov	r3, r9
 5504 0214 002B     		cmp	r3, #0
 5505 0216 5ED0     		beq	.L435
 5506              	.LVL386:
 5507              	.L330:
 925:User/BME280/bme280.c ****     }
 5508              		.loc 1 925 9 is_stmt 1 view .LVU1802
 5509              	.LBB697:
 5510              	.LBI697:
 967:User/BME280/bme280.c ****                                           const struct bme280_settings *settings,
ARM GAS  C:\Users\upo\AppData\Local\Temp\ccJAZRXk.s 			page 156


 5511              		.loc 1 967 15 view .LVU1803
 5512              	.LBB698:
 971:User/BME280/bme280.c ****     uint8_t reg_addr = BME280_CTRL_MEAS_ADDR;
 5513              		.loc 1 971 5 view .LVU1804
 972:User/BME280/bme280.c ****     uint8_t reg_data;
 5514              		.loc 1 972 5 view .LVU1805
 973:User/BME280/bme280.c **** 
 5515              		.loc 1 973 5 view .LVU1806
 975:User/BME280/bme280.c **** 
 5516              		.loc 1 975 5 view .LVU1807
 5517              	.LBB699:
 5518              	.LBI699:
 462:User/BME280/bme280.c **** {
 5519              		.loc 1 462 8 view .LVU1808
 5520              	.LBB700:
 464:User/BME280/bme280.c **** 
 5521              		.loc 1 464 5 view .LVU1809
 467:User/BME280/bme280.c **** 
 5522              		.loc 1 467 5 view .LVU1810
 5523              	.LBB701:
 5524              	.LBI701:
1581:User/BME280/bme280.c **** {
 5525              		.loc 1 1581 15 view .LVU1811
 5526              	.LBB702:
1583:User/BME280/bme280.c **** 
 5527              		.loc 1 1583 5 view .LVU1812
1585:User/BME280/bme280.c ****     {
 5528              		.loc 1 1585 5 view .LVU1813
1585:User/BME280/bme280.c ****     {
 5529              		.loc 1 1585 30 is_stmt 0 view .LVU1814
 5530 0218 E368     		ldr	r3, [r4, #12]
 5531 021a 9846     		mov	r8, r3
1585:User/BME280/bme280.c ****     {
 5532              		.loc 1 1585 23 view .LVU1815
 5533 021c 002B     		cmp	r3, #0
 5534 021e 00D1     		bne	.LCB5625
 5535 0220 99E0     		b	.L369	@long jump
 5536              	.LCB5625:
1585:User/BME280/bme280.c ****     {
 5537              		.loc 1 1585 46 view .LVU1816
 5538 0222 2369     		ldr	r3, [r4, #16]
 5539 0224 002B     		cmp	r3, #0
 5540 0226 00D1     		bne	.LCB5637
 5541 0228 95E0     		b	.L369	@long jump
 5542              	.LCB5637:
 5543 022a 6369     		ldr	r3, [r4, #20]
 5544              	.LVL387:
 5545              	.L340:
1585:User/BME280/bme280.c ****     {
 5546              		.loc 1 1585 70 view .LVU1817
 5547 022c 5A42     		rsbs	r2, r3, #0
 5548 022e 5341     		adcs	r3, r3, r2
 5549 0230 5B42     		rsbs	r3, r3, #0
 5550              	.LVL388:
 5551              	.L324:
 5552              		.loc 1 1596 5 is_stmt 1 view .LVU1818
 5553              		.loc 1 1596 5 is_stmt 0 view .LVU1819
ARM GAS  C:\Users\upo\AppData\Local\Temp\ccJAZRXk.s 			page 157


 5554              	.LBE702:
 5555              	.LBE701:
 467:User/BME280/bme280.c **** 
 5556              		.loc 1 467 10 view .LVU1820
 5557 0232 0927     		movs	r7, #9
 5558 0234 6F44     		add	r7, r7, sp
 5559 0236 3B70     		strb	r3, [r7]
 470:User/BME280/bme280.c ****     {
 5560              		.loc 1 470 5 is_stmt 1 view .LVU1821
 470:User/BME280/bme280.c ****     {
 5561              		.loc 1 470 15 is_stmt 0 view .LVU1822
 5562 0238 3B78     		ldrb	r3, [r7]
 470:User/BME280/bme280.c ****     {
 5563              		.loc 1 470 8 view .LVU1823
 5564 023a 002B     		cmp	r3, #0
 5565 023c 4DD1     		bne	.L341
 473:User/BME280/bme280.c ****         {
 5566              		.loc 1 473 9 is_stmt 1 view .LVU1824
 5567              	.LVL389:
 482:User/BME280/bme280.c **** 
 5568              		.loc 1 482 9 view .LVU1825
 482:User/BME280/bme280.c **** 
 5569              		.loc 1 482 26 is_stmt 0 view .LVU1826
 5570 023e 0B21     		movs	r1, #11
 5571 0240 6368     		ldr	r3, [r4, #4]
 5572 0242 0122     		movs	r2, #1
 5573 0244 F420     		movs	r0, #244
 5574 0246 6944     		add	r1, r1, sp
 5575 0248 C047     		blx	r8
 5576              	.LVL390:
 482:User/BME280/bme280.c **** 
 5577              		.loc 1 482 24 view .LVU1827
 5578 024a 4523     		movs	r3, #69
 5579 024c E054     		strb	r0, [r4, r3]
 485:User/BME280/bme280.c ****         {
 5580              		.loc 1 485 9 is_stmt 1 view .LVU1828
 485:User/BME280/bme280.c ****         {
 5581              		.loc 1 485 12 is_stmt 0 view .LVU1829
 5582 024e 0028     		cmp	r0, #0
 5583 0250 01D0     		beq	.L342
 487:User/BME280/bme280.c ****         }
 5584              		.loc 1 487 13 is_stmt 1 view .LVU1830
 487:User/BME280/bme280.c ****         }
 5585              		.loc 1 487 18 is_stmt 0 view .LVU1831
 5586 0252 B733     		adds	r3, r3, #183
 5587 0254 3B70     		strb	r3, [r7]
 5588              	.LVL391:
 5589              	.L342:
 495:User/BME280/bme280.c **** }
 5590              		.loc 1 495 5 is_stmt 1 view .LVU1832
 495:User/BME280/bme280.c **** }
 5591              		.loc 1 495 12 is_stmt 0 view .LVU1833
 5592 0256 3B78     		ldrb	r3, [r7]
 5593 0258 5AB2     		sxtb	r2, r3
 5594              	.LVL392:
 495:User/BME280/bme280.c **** }
 5595              		.loc 1 495 12 view .LVU1834
ARM GAS  C:\Users\upo\AppData\Local\Temp\ccJAZRXk.s 			page 158


 5596              	.LBE700:
 5597              	.LBE699:
 977:User/BME280/bme280.c ****     {
 5598              		.loc 1 977 5 is_stmt 1 view .LVU1835
 977:User/BME280/bme280.c ****     {
 5599              		.loc 1 977 8 is_stmt 0 view .LVU1836
 5600 025a 002B     		cmp	r3, #0
 5601 025c 3BD1     		bne	.L435
 979:User/BME280/bme280.c ****         {
 5602              		.loc 1 979 9 is_stmt 1 view .LVU1837
 979:User/BME280/bme280.c ****         {
 5603              		.loc 1 979 12 is_stmt 0 view .LVU1838
 5604 025e F307     		lsls	r3, r6, #31
 5605 0260 0AD5     		bpl	.L344
 981:User/BME280/bme280.c ****         }
 5606              		.loc 1 981 13 is_stmt 1 view .LVU1839
 5607              	.LVL393:
 5608              	.LBB707:
 5609              	.LBI707:
1051:User/BME280/bme280.c **** {
 5610              		.loc 1 1051 13 view .LVU1840
 5611              	.LBB708:
1053:User/BME280/bme280.c **** }
 5612              		.loc 1 1053 5 view .LVU1841
1053:User/BME280/bme280.c **** }
 5613              		.loc 1 1053 15 is_stmt 0 view .LVU1842
 5614 0262 0B22     		movs	r2, #11
 5615              	.LVL394:
1053:User/BME280/bme280.c **** }
 5616              		.loc 1 1053 17 view .LVU1843
 5617 0264 4023     		movs	r3, #64
 5618 0266 1C20     		movs	r0, #28
1053:User/BME280/bme280.c **** }
 5619              		.loc 1 1053 15 view .LVU1844
 5620 0268 6A44     		add	r2, r2, sp
1053:User/BME280/bme280.c **** }
 5621              		.loc 1 1053 17 view .LVU1845
 5622 026a E35C     		ldrb	r3, [r4, r3]
 5623 026c 1178     		ldrb	r1, [r2]
 5624 026e 9B00     		lsls	r3, r3, #2
 5625 0270 0340     		ands	r3, r0
 5626 0272 8143     		bics	r1, r0
 5627 0274 0B43     		orrs	r3, r1
1053:User/BME280/bme280.c **** }
 5628              		.loc 1 1053 15 view .LVU1846
 5629 0276 1370     		strb	r3, [r2]
 5630              	.LVL395:
 5631              	.L344:
1053:User/BME280/bme280.c **** }
 5632              		.loc 1 1053 15 view .LVU1847
 5633              	.LBE708:
 5634              	.LBE707:
 984:User/BME280/bme280.c ****         {
 5635              		.loc 1 984 9 is_stmt 1 view .LVU1848
 984:User/BME280/bme280.c ****         {
 5636              		.loc 1 984 12 is_stmt 0 view .LVU1849
 5637 0278 B307     		lsls	r3, r6, #30
ARM GAS  C:\Users\upo\AppData\Local\Temp\ccJAZRXk.s 			page 159


 5638 027a 0AD5     		bpl	.L345
 986:User/BME280/bme280.c ****         }
 5639              		.loc 1 986 13 is_stmt 1 view .LVU1850
 5640              	.LVL396:
 5641              	.LBB709:
 5642              	.LBI709:
1060:User/BME280/bme280.c **** {
 5643              		.loc 1 1060 13 view .LVU1851
 5644              	.LBB710:
1062:User/BME280/bme280.c **** }
 5645              		.loc 1 1062 5 view .LVU1852
1062:User/BME280/bme280.c **** }
 5646              		.loc 1 1062 15 is_stmt 0 view .LVU1853
 5647 027c 0B21     		movs	r1, #11
1062:User/BME280/bme280.c **** }
 5648              		.loc 1 1062 17 view .LVU1854
 5649 027e 1F23     		movs	r3, #31
1062:User/BME280/bme280.c **** }
 5650              		.loc 1 1062 15 view .LVU1855
 5651 0280 6944     		add	r1, r1, sp
1062:User/BME280/bme280.c **** }
 5652              		.loc 1 1062 17 view .LVU1856
 5653 0282 0A78     		ldrb	r2, [r1]
 5654 0284 1340     		ands	r3, r2
 5655 0286 2200     		movs	r2, r4
 5656 0288 4032     		adds	r2, r2, #64
 5657 028a 5278     		ldrb	r2, [r2, #1]
 5658 028c 5201     		lsls	r2, r2, #5
 5659 028e 1343     		orrs	r3, r2
1062:User/BME280/bme280.c **** }
 5660              		.loc 1 1062 15 view .LVU1857
 5661 0290 0B70     		strb	r3, [r1]
 5662              	.LVL397:
 5663              	.L345:
1062:User/BME280/bme280.c **** }
 5664              		.loc 1 1062 15 view .LVU1858
 5665              	.LBE710:
 5666              	.LBE709:
 990:User/BME280/bme280.c ****     }
 5667              		.loc 1 990 9 is_stmt 1 view .LVU1859
 5668              	.LBB711:
 5669              	.LBI711:
 502:User/BME280/bme280.c **** {
 5670              		.loc 1 502 8 view .LVU1860
 5671              	.LBB712:
 504:User/BME280/bme280.c ****     uint8_t temp_buff[20]; /* Typically not to write more than 10 registers */
 5672              		.loc 1 504 5 view .LVU1861
 505:User/BME280/bme280.c **** 
 5673              		.loc 1 505 5 view .LVU1862
 507:User/BME280/bme280.c ****     {
 5674              		.loc 1 507 5 view .LVU1863
 512:User/BME280/bme280.c ****     uint8_t reg_addr_cnt;
 5675              		.loc 1 512 5 view .LVU1864
 513:User/BME280/bme280.c **** 
 5676              		.loc 1 513 5 view .LVU1865
 516:User/BME280/bme280.c **** 
 5677              		.loc 1 516 5 view .LVU1866
ARM GAS  C:\Users\upo\AppData\Local\Temp\ccJAZRXk.s 			page 160


 5678              	.LBB713:
 5679              	.LBI713:
1581:User/BME280/bme280.c **** {
 5680              		.loc 1 1581 15 view .LVU1867
 5681              	.LBB714:
1583:User/BME280/bme280.c **** 
 5682              		.loc 1 1583 5 view .LVU1868
1585:User/BME280/bme280.c ****     {
 5683              		.loc 1 1585 5 view .LVU1869
1585:User/BME280/bme280.c ****     {
 5684              		.loc 1 1585 23 is_stmt 0 view .LVU1870
 5685 0292 E368     		ldr	r3, [r4, #12]
 5686 0294 002B     		cmp	r3, #0
 5687 0296 4DD0     		beq	.L375
1585:User/BME280/bme280.c ****     {
 5688              		.loc 1 1585 53 view .LVU1871
 5689 0298 2769     		ldr	r7, [r4, #16]
1585:User/BME280/bme280.c ****     {
 5690              		.loc 1 1585 46 view .LVU1872
 5691 029a 002F     		cmp	r7, #0
 5692 029c 4AD0     		beq	.L375
1585:User/BME280/bme280.c ****     {
 5693              		.loc 1 1585 70 view .LVU1873
 5694 029e 6369     		ldr	r3, [r4, #20]
 5695 02a0 002B     		cmp	r3, #0
 5696 02a2 47D0     		beq	.L375
 5697              	.LVL398:
 5698              		.loc 1 1596 5 is_stmt 1 view .LVU1874
 5699              		.loc 1 1596 5 is_stmt 0 view .LVU1875
 5700              	.LBE714:
 5701              	.LBE713:
 519:User/BME280/bme280.c ****     {
 5702              		.loc 1 519 5 is_stmt 1 view .LVU1876
 521:User/BME280/bme280.c ****         {
 5703              		.loc 1 521 9 view .LVU1877
 523:User/BME280/bme280.c **** 
 5704              		.loc 1 523 13 view .LVU1878
 523:User/BME280/bme280.c **** 
 5705              		.loc 1 523 26 is_stmt 0 view .LVU1879
 5706 02a4 03AB     		add	r3, sp, #12
 5707 02a6 9A46     		mov	r10, r3
 523:User/BME280/bme280.c **** 
 5708              		.loc 1 523 36 view .LVU1880
 5709 02a8 0B23     		movs	r3, #11
 523:User/BME280/bme280.c **** 
 5710              		.loc 1 523 26 view .LVU1881
 5711 02aa 5246     		mov	r2, r10
 523:User/BME280/bme280.c **** 
 5712              		.loc 1 523 36 view .LVU1882
 5713 02ac 6B44     		add	r3, r3, sp
 523:User/BME280/bme280.c **** 
 5714              		.loc 1 523 26 view .LVU1883
 5715 02ae 1B78     		ldrb	r3, [r3]
 548:User/BME280/bme280.c **** 
 5716              		.loc 1 548 30 view .LVU1884
 5717 02b0 5146     		mov	r1, r10
 523:User/BME280/bme280.c **** 
ARM GAS  C:\Users\upo\AppData\Local\Temp\ccJAZRXk.s 			page 161


 5718              		.loc 1 523 26 view .LVU1885
 5719 02b2 1370     		strb	r3, [r2]
 526:User/BME280/bme280.c ****             {
 5720              		.loc 1 526 13 is_stmt 1 view .LVU1886
 526:User/BME280/bme280.c ****             {
 5721              		.loc 1 526 16 is_stmt 0 view .LVU1887
 5722 02b4 207A     		ldrb	r0, [r4, #8]
 548:User/BME280/bme280.c **** 
 5723              		.loc 1 548 30 view .LVU1888
 5724 02b6 0122     		movs	r2, #1
 5725              	.LBE712:
 5726              	.LBE711:
 972:User/BME280/bme280.c ****     uint8_t reg_data;
 5727              		.loc 1 972 13 view .LVU1889
 5728 02b8 0138     		subs	r0, r0, #1
 5729 02ba 431E     		subs	r3, r0, #1
 5730 02bc 9841     		sbcs	r0, r0, r3
 5731 02be 7F23     		movs	r3, #127
 5732 02c0 4042     		rsbs	r0, r0, #0
 5733 02c2 9843     		bics	r0, r3
 5734 02c4 F430     		adds	r0, r0, #244
 5735              	.LVL399:
 5736              	.LBB716:
 5737              	.LBB715:
 535:User/BME280/bme280.c ****             {
 5738              		.loc 1 535 13 is_stmt 1 view .LVU1890
 548:User/BME280/bme280.c **** 
 5739              		.loc 1 548 13 view .LVU1891
 548:User/BME280/bme280.c **** 
 5740              		.loc 1 548 30 is_stmt 0 view .LVU1892
 5741 02c6 6368     		ldr	r3, [r4, #4]
 5742 02c8 B847     		blx	r7
 5743              	.LVL400:
 548:User/BME280/bme280.c **** 
 5744              		.loc 1 548 28 view .LVU1893
 5745 02ca 4523     		movs	r3, #69
 5746 02cc E054     		strb	r0, [r4, r3]
 551:User/BME280/bme280.c ****             {
 5747              		.loc 1 551 13 is_stmt 1 view .LVU1894
 551:User/BME280/bme280.c ****             {
 5748              		.loc 1 551 16 is_stmt 0 view .LVU1895
 5749 02ce 0028     		cmp	r0, #0
 5750 02d0 00D1     		bne	.LCB5865
 5751 02d2 C8E6     		b	.L322	@long jump
 5752              	.LCB5865:
 5753 02d4 20E7     		b	.L377
 5754              	.LVL401:
 5755              	.L435:
 551:User/BME280/bme280.c ****             {
 5756              		.loc 1 551 16 view .LVU1896
 5757              	.LBE715:
 5758              	.LBE716:
 993:User/BME280/bme280.c **** }
 5759              		.loc 1 993 5 is_stmt 1 view .LVU1897
 993:User/BME280/bme280.c **** }
 5760              		.loc 1 993 5 is_stmt 0 view .LVU1898
 5761              	.LBE698:
ARM GAS  C:\Users\upo\AppData\Local\Temp\ccJAZRXk.s 			page 162


 5762              	.LBE697:
 5763              	.LBE730:
 5764              	.LBE734:
 604:User/BME280/bme280.c ****             {
 5765              		.loc 1 604 13 is_stmt 1 view .LVU1899
 5766              	.LBB735:
 5767              	.LBB731:
 5768              	.LBB721:
 5769              	.LBB719:
 975:User/BME280/bme280.c **** 
 5770              		.loc 1 975 12 is_stmt 0 view .LVU1900
 5771 02d6 1500     		movs	r5, r2
 5772 02d8 20E7     		b	.L317
 5773              	.LVL402:
 5774              	.L341:
 5775              	.LBB717:
 5776              	.LBB705:
 492:User/BME280/bme280.c ****     }
 5777              		.loc 1 492 9 is_stmt 1 view .LVU1901
 492:User/BME280/bme280.c ****     }
 5778              		.loc 1 492 14 is_stmt 0 view .LVU1902
 5779 02da FF23     		movs	r3, #255
 5780 02dc 3B70     		strb	r3, [r7]
 5781 02de BAE7     		b	.L342
 5782              	.LVL403:
 5783              	.L331:
 492:User/BME280/bme280.c ****     }
 5784              		.loc 1 492 14 view .LVU1903
 5785              	.LBE705:
 5786              	.LBE717:
 5787              	.LBE719:
 5788              	.LBE721:
 5789              	.LBB722:
 5790              	.LBB690:
 5791              	.LBB672:
 5792              	.LBB670:
 492:User/BME280/bme280.c ****     }
 5793              		.loc 1 492 9 is_stmt 1 view .LVU1904
 492:User/BME280/bme280.c ****     }
 5794              		.loc 1 492 14 is_stmt 0 view .LVU1905
 5795 02e0 FF23     		movs	r3, #255
 5796 02e2 3B70     		strb	r3, [r7]
 5797 02e4 91E7     		b	.L332
 5798              	.LVL404:
 5799              	.L333:
 492:User/BME280/bme280.c ****     }
 5800              		.loc 1 492 14 view .LVU1906
 5801              	.LBE670:
 5802              	.LBE672:
 956:User/BME280/bme280.c ****         }
 5803              		.loc 1 956 13 is_stmt 1 view .LVU1907
 5804              	.LBB673:
 5805              	.LBI673:
 502:User/BME280/bme280.c **** {
 5806              		.loc 1 502 8 view .LVU1908
 5807              	.LBB674:
 504:User/BME280/bme280.c ****     uint8_t temp_buff[20]; /* Typically not to write more than 10 registers */
ARM GAS  C:\Users\upo\AppData\Local\Temp\ccJAZRXk.s 			page 163


 5808              		.loc 1 504 5 view .LVU1909
 505:User/BME280/bme280.c **** 
 5809              		.loc 1 505 5 view .LVU1910
 507:User/BME280/bme280.c ****     {
 5810              		.loc 1 507 5 view .LVU1911
 512:User/BME280/bme280.c ****     uint8_t reg_addr_cnt;
 5811              		.loc 1 512 5 view .LVU1912
 513:User/BME280/bme280.c **** 
 5812              		.loc 1 513 5 view .LVU1913
 516:User/BME280/bme280.c **** 
 5813              		.loc 1 516 5 view .LVU1914
 5814              	.LBB675:
 5815              	.LBI675:
1581:User/BME280/bme280.c **** {
 5816              		.loc 1 1581 15 view .LVU1915
 5817              	.LBB676:
1583:User/BME280/bme280.c **** 
 5818              		.loc 1 1583 5 view .LVU1916
1585:User/BME280/bme280.c ****     {
 5819              		.loc 1 1585 5 view .LVU1917
1585:User/BME280/bme280.c ****     {
 5820              		.loc 1 1585 30 is_stmt 0 view .LVU1918
 5821 02e6 E368     		ldr	r3, [r4, #12]
 5822 02e8 9846     		mov	r8, r3
1585:User/BME280/bme280.c ****     {
 5823              		.loc 1 1585 23 view .LVU1919
 5824 02ea 002B     		cmp	r3, #0
 5825 02ec 1FD0     		beq	.L334
1585:User/BME280/bme280.c ****     {
 5826              		.loc 1 1585 53 view .LVU1920
 5827 02ee 2769     		ldr	r7, [r4, #16]
1585:User/BME280/bme280.c ****     {
 5828              		.loc 1 1585 46 view .LVU1921
 5829 02f0 002F     		cmp	r7, #0
 5830 02f2 1CD0     		beq	.L334
1585:User/BME280/bme280.c ****     {
 5831              		.loc 1 1585 70 view .LVU1922
 5832 02f4 6369     		ldr	r3, [r4, #20]
 5833 02f6 002B     		cmp	r3, #0
 5834 02f8 37D0     		beq	.L336
 5835              	.LVL405:
 5836              		.loc 1 1596 5 is_stmt 1 view .LVU1923
 5837              		.loc 1 1596 5 is_stmt 0 view .LVU1924
 5838              	.LBE676:
 5839              	.LBE675:
 519:User/BME280/bme280.c ****     {
 5840              		.loc 1 519 5 is_stmt 1 view .LVU1925
 521:User/BME280/bme280.c ****         {
 5841              		.loc 1 521 9 view .LVU1926
 523:User/BME280/bme280.c **** 
 5842              		.loc 1 523 13 view .LVU1927
 523:User/BME280/bme280.c **** 
 5843              		.loc 1 523 36 is_stmt 0 view .LVU1928
 5844 02fa 0B23     		movs	r3, #11
 523:User/BME280/bme280.c **** 
 5845              		.loc 1 523 26 view .LVU1929
 5846 02fc 5246     		mov	r2, r10
ARM GAS  C:\Users\upo\AppData\Local\Temp\ccJAZRXk.s 			page 164


 5847              	.LVL406:
 523:User/BME280/bme280.c **** 
 5848              		.loc 1 523 36 view .LVU1930
 5849 02fe 6B44     		add	r3, r3, sp
 523:User/BME280/bme280.c **** 
 5850              		.loc 1 523 26 view .LVU1931
 5851 0300 1B78     		ldrb	r3, [r3]
 548:User/BME280/bme280.c **** 
 5852              		.loc 1 548 30 view .LVU1932
 5853 0302 5146     		mov	r1, r10
 523:User/BME280/bme280.c **** 
 5854              		.loc 1 523 26 view .LVU1933
 5855 0304 1370     		strb	r3, [r2]
 526:User/BME280/bme280.c ****             {
 5856              		.loc 1 526 13 is_stmt 1 view .LVU1934
 526:User/BME280/bme280.c ****             {
 5857              		.loc 1 526 16 is_stmt 0 view .LVU1935
 5858 0306 207A     		ldrb	r0, [r4, #8]
 548:User/BME280/bme280.c **** 
 5859              		.loc 1 548 30 view .LVU1936
 5860 0308 0122     		movs	r2, #1
 5861              	.LBE674:
 5862              	.LBE673:
 951:User/BME280/bme280.c ****         rslt = bme280_get_regs(reg_addr, &ctrl_meas, 1, dev);
 5863              		.loc 1 951 18 view .LVU1937
 5864 030a 0138     		subs	r0, r0, #1
 5865 030c 431E     		subs	r3, r0, #1
 5866 030e 9841     		sbcs	r0, r0, r3
 5867 0310 7F23     		movs	r3, #127
 5868 0312 4042     		rsbs	r0, r0, #0
 5869 0314 9843     		bics	r0, r3
 5870 0316 F430     		adds	r0, r0, #244
 5871              	.LVL407:
 5872              	.LBB682:
 5873              	.LBB677:
 535:User/BME280/bme280.c ****             {
 5874              		.loc 1 535 13 is_stmt 1 view .LVU1938
 548:User/BME280/bme280.c **** 
 5875              		.loc 1 548 13 view .LVU1939
 548:User/BME280/bme280.c **** 
 5876              		.loc 1 548 30 is_stmt 0 view .LVU1940
 5877 0318 6368     		ldr	r3, [r4, #4]
 5878 031a B847     		blx	r7
 5879              	.LVL408:
 548:User/BME280/bme280.c **** 
 5880              		.loc 1 548 28 view .LVU1941
 5881 031c 4523     		movs	r3, #69
 5882 031e E054     		strb	r0, [r4, r3]
 551:User/BME280/bme280.c ****             {
 5883              		.loc 1 551 13 is_stmt 1 view .LVU1942
 5884              	.LBE677:
 5885              	.LBE682:
 5886              	.LBE690:
 5887              	.LBE722:
 923:User/BME280/bme280.c ****     {
 5888              		.loc 1 923 8 is_stmt 0 view .LVU1943
 5889 0320 4B46     		mov	r3, r9
ARM GAS  C:\Users\upo\AppData\Local\Temp\ccJAZRXk.s 			page 165


 5890              	.LBB723:
 5891              	.LBB691:
 5892              	.LBB683:
 5893              	.LBB678:
 551:User/BME280/bme280.c ****             {
 5894              		.loc 1 551 16 view .LVU1944
 5895 0322 0028     		cmp	r0, #0
 5896 0324 1DD1     		bne	.L439
 566:User/BME280/bme280.c **** }
 5897              		.loc 1 566 5 is_stmt 1 view .LVU1945
 5898              	.LVL409:
 566:User/BME280/bme280.c **** }
 5899              		.loc 1 566 5 is_stmt 0 view .LVU1946
 5900              	.LBE678:
 5901              	.LBE683:
 960:User/BME280/bme280.c **** }
 5902              		.loc 1 960 5 is_stmt 1 view .LVU1947
 960:User/BME280/bme280.c **** }
 5903              		.loc 1 960 5 is_stmt 0 view .LVU1948
 5904              	.LBE691:
 5905              	.LBE723:
 923:User/BME280/bme280.c ****     {
 5906              		.loc 1 923 5 is_stmt 1 view .LVU1949
 923:User/BME280/bme280.c ****     {
 5907              		.loc 1 923 8 is_stmt 0 view .LVU1950
 5908 0326 002B     		cmp	r3, #0
 5909 0328 00D1     		bne	.LCB6056
 5910 032a 9CE6     		b	.L322	@long jump
 5911              	.LCB6056:
 5912 032c 74E7     		b	.L330
 5913              	.LVL410:
 5914              	.L334:
 5915              	.LBB724:
 5916              	.LBB692:
 5917              	.LBB684:
 5918              	.LBB679:
 566:User/BME280/bme280.c **** }
 5919              		.loc 1 566 5 is_stmt 1 view .LVU1951
 566:User/BME280/bme280.c **** }
 5920              		.loc 1 566 5 is_stmt 0 view .LVU1952
 5921              	.LBE679:
 5922              	.LBE684:
 960:User/BME280/bme280.c **** }
 5923              		.loc 1 960 5 is_stmt 1 view .LVU1953
 960:User/BME280/bme280.c **** }
 5924              		.loc 1 960 5 is_stmt 0 view .LVU1954
 5925              	.LBE692:
 5926              	.LBE724:
 923:User/BME280/bme280.c ****     {
 5927              		.loc 1 923 5 is_stmt 1 view .LVU1955
 923:User/BME280/bme280.c ****     {
 5928              		.loc 1 923 8 is_stmt 0 view .LVU1956
 5929 032e 4B46     		mov	r3, r9
 5930 0330 002B     		cmp	r3, #0
 5931 0332 10D1     		bne	.L369
 5932              	.LVL411:
 5933              	.L375:
ARM GAS  C:\Users\upo\AppData\Local\Temp\ccJAZRXk.s 			page 166


 923:User/BME280/bme280.c ****     {
 5934              		.loc 1 923 8 view .LVU1957
 5935              	.LBE731:
 5936              	.LBE735:
 5937              	.LBB736:
 5938              	.LBB647:
 5939              	.LBB644:
 5940              	.LBB641:
 563:User/BME280/bme280.c ****     }
 5941              		.loc 1 563 14 view .LVU1958
 5942 0334 0125     		movs	r5, #1
 5943 0336 6D42     		rsbs	r5, r5, #0
 5944 0338 F0E6     		b	.L317
 5945              	.LVL412:
 5946              	.L372:
 563:User/BME280/bme280.c ****     }
 5947              		.loc 1 563 14 view .LVU1959
 5948              	.LBE641:
 5949              	.LBE644:
 5950              	.LBB645:
 5951              	.LBB631:
 5952              	.LBB629:
 5953              	.LBB628:
1588:User/BME280/bme280.c ****     }
 5954              		.loc 1 1588 14 view .LVU1960
 5955 033a 0123     		movs	r3, #1
 5956 033c 5B42     		rsbs	r3, r3, #0
 5957 033e A1E6     		b	.L349
 5958              	.LVL413:
 5959              	.L361:
1588:User/BME280/bme280.c ****     }
 5960              		.loc 1 1588 14 view .LVU1961
 5961              	.LBE628:
 5962              	.LBE629:
 5963              	.LBE631:
 5964              	.LBE645:
 5965              	.LBE647:
 5966              	.LBE736:
 5967              	.LBB737:
 5968              	.LBB732:
 5969              	.LBB725:
 5970              	.LBB693:
 5971              	.LBB685:
 5972              	.LBB660:
 563:User/BME280/bme280.c ****     }
 5973              		.loc 1 563 14 view .LVU1962
 5974 0340 0123     		movs	r3, #1
 5975 0342 5B42     		rsbs	r3, r3, #0
 5976              	.LVL414:
 5977              	.L326:
 563:User/BME280/bme280.c ****     }
 5978              		.loc 1 563 14 view .LVU1963
 5979              	.LBE660:
 5980              	.LBE685:
 960:User/BME280/bme280.c **** }
 5981              		.loc 1 960 5 is_stmt 1 view .LVU1964
 960:User/BME280/bme280.c **** }
ARM GAS  C:\Users\upo\AppData\Local\Temp\ccJAZRXk.s 			page 167


 5982              		.loc 1 960 5 is_stmt 0 view .LVU1965
 5983              	.LBE693:
 5984              	.LBE725:
 923:User/BME280/bme280.c ****     {
 5985              		.loc 1 923 5 is_stmt 1 view .LVU1966
 923:User/BME280/bme280.c ****     {
 5986              		.loc 1 923 8 is_stmt 0 view .LVU1967
 5987 0344 4A46     		mov	r2, r9
 5988 0346 002A     		cmp	r2, #0
 5989 0348 00D0     		beq	.LCB6200
 5990 034a 65E7     		b	.L330	@long jump
 5991              	.LCB6200:
 5992 034c 1D00     		movs	r5, r3
 5993 034e E5E6     		b	.L317
 5994              	.LVL415:
 5995              	.L363:
 5996              	.LBB726:
 5997              	.LBB694:
 5998              	.LBB686:
 5999              	.LBB661:
 553:User/BME280/bme280.c ****             }
 6000              		.loc 1 553 22 view .LVU1968
 6001 0350 0423     		movs	r3, #4
 6002 0352 5B42     		rsbs	r3, r3, #0
 6003 0354 F6E7     		b	.L326
 6004              	.LVL416:
 6005              	.L369:
 553:User/BME280/bme280.c ****             }
 6006              		.loc 1 553 22 view .LVU1969
 6007              	.LBE661:
 6008              	.LBE686:
 6009              	.LBE694:
 6010              	.LBE726:
 6011              	.LBB727:
 6012              	.LBB720:
 6013              	.LBB718:
 6014              	.LBB706:
 6015              	.LBB704:
 6016              	.LBB703:
1588:User/BME280/bme280.c ****     }
 6017              		.loc 1 1588 14 view .LVU1970
 6018 0356 0123     		movs	r3, #1
 6019 0358 5B42     		rsbs	r3, r3, #0
 6020 035a 6AE7     		b	.L324
 6021              	.LVL417:
 6022              	.L365:
1588:User/BME280/bme280.c ****     }
 6023              		.loc 1 1588 14 view .LVU1971
 6024              	.LBE703:
 6025              	.LBE704:
 6026              	.LBE706:
 6027              	.LBE718:
 6028              	.LBE720:
 6029              	.LBE727:
 6030              	.LBB728:
 6031              	.LBB695:
 6032              	.LBB687:
ARM GAS  C:\Users\upo\AppData\Local\Temp\ccJAZRXk.s 			page 168


 6033              	.LBB671:
 6034              	.LBB669:
 6035              	.LBB668:
 6036 035c 0123     		movs	r3, #1
 6037 035e 5B42     		rsbs	r3, r3, #0
 6038 0360 42E7     		b	.L328
 6039              	.LVL418:
 6040              	.L439:
1588:User/BME280/bme280.c ****     }
 6041              		.loc 1 1588 14 view .LVU1972
 6042              	.LBE668:
 6043              	.LBE669:
 6044              	.LBE671:
 6045              	.LBE687:
 6046              	.LBB688:
 6047              	.LBB680:
 553:User/BME280/bme280.c ****             }
 6048              		.loc 1 553 17 is_stmt 1 view .LVU1973
 566:User/BME280/bme280.c **** }
 6049              		.loc 1 566 5 view .LVU1974
 566:User/BME280/bme280.c **** }
 6050              		.loc 1 566 5 is_stmt 0 view .LVU1975
 6051              	.LBE680:
 6052              	.LBE688:
 960:User/BME280/bme280.c **** }
 6053              		.loc 1 960 5 is_stmt 1 view .LVU1976
 960:User/BME280/bme280.c **** }
 6054              		.loc 1 960 5 is_stmt 0 view .LVU1977
 6055              	.LBE695:
 6056              	.LBE728:
 923:User/BME280/bme280.c ****     {
 6057              		.loc 1 923 5 is_stmt 1 view .LVU1978
 923:User/BME280/bme280.c ****     {
 6058              		.loc 1 923 8 is_stmt 0 view .LVU1979
 6059 0362 002B     		cmp	r3, #0
 6060 0364 00D1     		bne	.LCB6339
 6061 0366 D7E6     		b	.L377	@long jump
 6062              	.LCB6339:
 6063 0368 56E7     		b	.L330
 6064              	.LVL419:
 6065              	.L336:
 6066              	.LBB729:
 6067              	.LBB696:
 6068              	.LBB689:
 6069              	.LBB681:
 566:User/BME280/bme280.c **** }
 6070              		.loc 1 566 5 is_stmt 1 view .LVU1980
 566:User/BME280/bme280.c **** }
 6071              		.loc 1 566 5 is_stmt 0 view .LVU1981
 6072              	.LBE681:
 6073              	.LBE689:
 960:User/BME280/bme280.c **** }
 6074              		.loc 1 960 5 is_stmt 1 view .LVU1982
 960:User/BME280/bme280.c **** }
 6075              		.loc 1 960 5 is_stmt 0 view .LVU1983
 6076              	.LBE696:
 6077              	.LBE729:
ARM GAS  C:\Users\upo\AppData\Local\Temp\ccJAZRXk.s 			page 169


 923:User/BME280/bme280.c ****     {
 6078              		.loc 1 923 5 is_stmt 1 view .LVU1984
 923:User/BME280/bme280.c ****     {
 6079              		.loc 1 923 8 is_stmt 0 view .LVU1985
 6080 036a 4A46     		mov	r2, r9
 6081 036c 002A     		cmp	r2, #0
 6082 036e E1D0     		beq	.L375
 6083 0370 5CE7     		b	.L340
 6084              	.LBE732:
 6085              	.LBE737:
 6086              		.cfi_endproc
 6087              	.LFE1428:
 6089 0372 C046     		.section	.text.bme280_set_sensor_mode,"ax",%progbits
 6090              		.align	1
 6091              		.p2align 2,,3
 6092              		.global	bme280_set_sensor_mode
 6093              		.syntax unified
 6094              		.code	16
 6095              		.thumb_func
 6097              	bme280_set_sensor_mode:
 6098              	.LVL420:
 6099              	.LFB1430:
 644:User/BME280/bme280.c ****     int8_t rslt;
 6100              		.loc 1 644 1 is_stmt 1 view -0
 6101              		.cfi_startproc
 6102              		@ args = 0, pretend = 0, frame = 24
 6103              		@ frame_needed = 0, uses_anonymous_args = 0
 645:User/BME280/bme280.c ****     uint8_t last_set_mode;
 6104              		.loc 1 645 5 view .LVU1987
 646:User/BME280/bme280.c **** 
 6105              		.loc 1 646 5 view .LVU1988
 649:User/BME280/bme280.c **** 
 6106              		.loc 1 649 5 view .LVU1989
 6107              	.LBB760:
 6108              	.LBI760:
1581:User/BME280/bme280.c **** {
 6109              		.loc 1 1581 15 view .LVU1990
 6110              	.LBB761:
1583:User/BME280/bme280.c **** 
 6111              		.loc 1 1583 5 view .LVU1991
1585:User/BME280/bme280.c ****     {
 6112              		.loc 1 1585 5 view .LVU1992
 6113              	.LBE761:
 6114              	.LBE760:
 644:User/BME280/bme280.c ****     int8_t rslt;
 6115              		.loc 1 644 1 is_stmt 0 view .LVU1993
 6116 0000 F0B5     		push	{r4, r5, r6, r7, lr}
 6117              	.LCFI28:
 6118              		.cfi_def_cfa_offset 20
 6119              		.cfi_offset 4, -20
 6120              		.cfi_offset 5, -16
 6121              		.cfi_offset 6, -12
 6122              		.cfi_offset 7, -8
 6123              		.cfi_offset 14, -4
 6124 0002 C646     		mov	lr, r8
 6125 0004 00B5     		push	{lr}
 6126              	.LCFI29:
ARM GAS  C:\Users\upo\AppData\Local\Temp\ccJAZRXk.s 			page 170


 6127              		.cfi_def_cfa_offset 24
 6128              		.cfi_offset 8, -24
 6129 0006 8046     		mov	r8, r0
 6130 0008 0C00     		movs	r4, r1
 6131 000a 86B0     		sub	sp, sp, #24
 6132              	.LCFI30:
 6133              		.cfi_def_cfa_offset 48
 6134              	.LBB764:
 6135              	.LBB762:
1585:User/BME280/bme280.c ****     {
 6136              		.loc 1 1585 8 view .LVU1994
 6137 000c 0029     		cmp	r1, #0
 6138 000e 00D1     		bne	.LCB6426
 6139 0010 83E0     		b	.L456	@long jump
 6140              	.LCB6426:
1585:User/BME280/bme280.c ****     {
 6141              		.loc 1 1585 30 view .LVU1995
 6142 0012 CF68     		ldr	r7, [r1, #12]
1585:User/BME280/bme280.c ****     {
 6143              		.loc 1 1585 23 view .LVU1996
 6144 0014 002F     		cmp	r7, #0
 6145 0016 00D1     		bne	.LCB6429
 6146 0018 7FE0     		b	.L456	@long jump
 6147              	.LCB6429:
1585:User/BME280/bme280.c ****     {
 6148              		.loc 1 1585 46 view .LVU1997
 6149 001a 0B69     		ldr	r3, [r1, #16]
 6150 001c 002B     		cmp	r3, #0
 6151 001e 00D1     		bne	.LCB6432
 6152 0020 7BE0     		b	.L456	@long jump
 6153              	.LCB6432:
1585:User/BME280/bme280.c ****     {
 6154              		.loc 1 1585 70 view .LVU1998
 6155 0022 4B69     		ldr	r3, [r1, #20]
 6156 0024 002B     		cmp	r3, #0
 6157 0026 00D1     		bne	.LCB6435
 6158 0028 77E0     		b	.L456	@long jump
 6159              	.LCB6435:
 6160              	.LVL421:
 6161              		.loc 1 1596 5 is_stmt 1 view .LVU1999
 6162              		.loc 1 1596 5 is_stmt 0 view .LVU2000
 6163              	.LBE762:
 6164              	.LBE764:
 651:User/BME280/bme280.c ****     {
 6165              		.loc 1 651 5 is_stmt 1 view .LVU2001
 653:User/BME280/bme280.c **** 
 6166              		.loc 1 653 9 view .LVU2002
 6167              	.LBB765:
 6168              	.LBI765:
 676:User/BME280/bme280.c **** {
 6169              		.loc 1 676 8 view .LVU2003
 6170              	.LBB766:
 678:User/BME280/bme280.c **** 
 6171              		.loc 1 678 5 view .LVU2004
 681:User/BME280/bme280.c **** 
 6172              		.loc 1 681 5 view .LVU2005
 683:User/BME280/bme280.c ****     {
ARM GAS  C:\Users\upo\AppData\Local\Temp\ccJAZRXk.s 			page 171


 6173              		.loc 1 683 5 view .LVU2006
 686:User/BME280/bme280.c **** 
 6174              		.loc 1 686 9 view .LVU2007
 6175              	.LBB767:
 6176              	.LBI767:
 462:User/BME280/bme280.c **** {
 6177              		.loc 1 462 8 view .LVU2008
 6178              	.LBB768:
 464:User/BME280/bme280.c **** 
 6179              		.loc 1 464 5 view .LVU2009
 467:User/BME280/bme280.c **** 
 6180              		.loc 1 467 5 view .LVU2010
 467:User/BME280/bme280.c **** 
 6181              		.loc 1 467 10 is_stmt 0 view .LVU2011
 6182 002a 6B46     		mov	r3, sp
 6183 002c 5D1C     		adds	r5, r3, #1
 6184 002e 0023     		movs	r3, #0
 6185 0030 2B70     		strb	r3, [r5]
 470:User/BME280/bme280.c ****     {
 6186              		.loc 1 470 5 is_stmt 1 view .LVU2012
 470:User/BME280/bme280.c ****     {
 6187              		.loc 1 470 15 is_stmt 0 view .LVU2013
 6188 0032 2B78     		ldrb	r3, [r5]
 470:User/BME280/bme280.c ****     {
 6189              		.loc 1 470 8 view .LVU2014
 6190 0034 002B     		cmp	r3, #0
 6191 0036 51D0     		beq	.L474
 492:User/BME280/bme280.c ****     }
 6192              		.loc 1 492 9 is_stmt 1 view .LVU2015
 492:User/BME280/bme280.c ****     }
 6193              		.loc 1 492 14 is_stmt 0 view .LVU2016
 6194 0038 FF23     		movs	r3, #255
 6195 003a 6E46     		mov	r6, sp
 6196 003c 2B70     		strb	r3, [r5]
 6197              	.LVL422:
 6198              	.L443:
 495:User/BME280/bme280.c **** }
 6199              		.loc 1 495 5 is_stmt 1 view .LVU2017
 6200              	.LBE768:
 6201              	.LBE767:
 689:User/BME280/bme280.c ****     }
 6202              		.loc 1 689 24 is_stmt 0 view .LVU2018
 6203 003e 0323     		movs	r3, #3
 6204 0040 3178     		ldrb	r1, [r6]
 6205              	.LBB772:
 6206              	.LBB769:
 495:User/BME280/bme280.c **** }
 6207              		.loc 1 495 12 view .LVU2019
 6208 0042 2A78     		ldrb	r2, [r5]
 6209              	.LBE769:
 6210              	.LBE772:
 689:User/BME280/bme280.c ****     }
 6211              		.loc 1 689 24 view .LVU2020
 6212 0044 0B40     		ands	r3, r1
 6213              	.LBB773:
 6214              	.LBB770:
 495:User/BME280/bme280.c **** }
ARM GAS  C:\Users\upo\AppData\Local\Temp\ccJAZRXk.s 			page 172


 6215              		.loc 1 495 12 view .LVU2021
 6216 0046 50B2     		sxtb	r0, r2
 6217              	.LVL423:
 495:User/BME280/bme280.c **** }
 6218              		.loc 1 495 12 view .LVU2022
 6219              	.LBE770:
 6220              	.LBE773:
 689:User/BME280/bme280.c ****     }
 6221              		.loc 1 689 9 is_stmt 1 view .LVU2023
 689:User/BME280/bme280.c ****     }
 6222              		.loc 1 689 22 is_stmt 0 view .LVU2024
 6223 0048 3370     		strb	r3, [r6]
 696:User/BME280/bme280.c **** }
 6224              		.loc 1 696 5 is_stmt 1 view .LVU2025
 6225              	.LVL424:
 696:User/BME280/bme280.c **** }
 6226              		.loc 1 696 5 is_stmt 0 view .LVU2026
 6227              	.LBE766:
 6228              	.LBE765:
 658:User/BME280/bme280.c ****         {
 6229              		.loc 1 658 9 is_stmt 1 view .LVU2027
 658:User/BME280/bme280.c ****         {
 6230              		.loc 1 658 12 is_stmt 0 view .LVU2028
 6231 004a 002A     		cmp	r2, #0
 6232 004c 42D1     		bne	.L441
 658:User/BME280/bme280.c ****         {
 6233              		.loc 1 658 33 discriminator 1 view .LVU2029
 6234 004e 002B     		cmp	r3, #0
 6235 0050 51D1     		bne	.L444
 6236              	.LVL425:
 6237              	.L447:
 666:User/BME280/bme280.c ****         }
 6238              		.loc 1 666 13 is_stmt 1 view .LVU2030
 6239              	.LBB776:
 6240              	.LBI776:
1082:User/BME280/bme280.c **** {
 6241              		.loc 1 1082 15 view .LVU2031
 6242              	.LBB777:
1084:User/BME280/bme280.c ****     uint8_t reg_addr = BME280_PWR_CTRL_ADDR;
 6243              		.loc 1 1084 5 view .LVU2032
1085:User/BME280/bme280.c **** 
 6244              		.loc 1 1085 5 view .LVU2033
1088:User/BME280/bme280.c **** 
 6245              		.loc 1 1088 5 view .LVU2034
1091:User/BME280/bme280.c **** 
 6246              		.loc 1 1091 5 view .LVU2035
 6247              	.LBB778:
 6248              	.LBI778:
 462:User/BME280/bme280.c **** {
 6249              		.loc 1 462 8 view .LVU2036
 6250              	.LBB779:
 464:User/BME280/bme280.c **** 
 6251              		.loc 1 464 5 view .LVU2037
 467:User/BME280/bme280.c **** 
 6252              		.loc 1 467 5 view .LVU2038
 6253              	.LBB780:
 6254              	.LBI780:
ARM GAS  C:\Users\upo\AppData\Local\Temp\ccJAZRXk.s 			page 173


1581:User/BME280/bme280.c **** {
 6255              		.loc 1 1581 15 view .LVU2039
 6256              	.LBB781:
1583:User/BME280/bme280.c **** 
 6257              		.loc 1 1583 5 view .LVU2040
1585:User/BME280/bme280.c ****     {
 6258              		.loc 1 1585 5 view .LVU2041
1585:User/BME280/bme280.c ****     {
 6259              		.loc 1 1585 30 is_stmt 0 view .LVU2042
 6260 0052 E668     		ldr	r6, [r4, #12]
1585:User/BME280/bme280.c ****     {
 6261              		.loc 1 1585 23 view .LVU2043
 6262 0054 002E     		cmp	r6, #0
 6263 0056 5AD0     		beq	.L458
1585:User/BME280/bme280.c ****     {
 6264              		.loc 1 1585 46 view .LVU2044
 6265 0058 2369     		ldr	r3, [r4, #16]
 6266 005a 002B     		cmp	r3, #0
 6267 005c 57D0     		beq	.L458
1585:User/BME280/bme280.c ****     {
 6268              		.loc 1 1585 70 view .LVU2045
 6269 005e 6369     		ldr	r3, [r4, #20]
 6270 0060 5A42     		rsbs	r2, r3, #0
 6271 0062 5341     		adcs	r3, r3, r2
 6272 0064 5B42     		rsbs	r3, r3, #0
 6273              	.L445:
 6274              	.LVL426:
 6275              		.loc 1 1596 5 is_stmt 1 view .LVU2046
 6276              		.loc 1 1596 5 is_stmt 0 view .LVU2047
 6277              	.LBE781:
 6278              	.LBE780:
 467:User/BME280/bme280.c **** 
 6279              		.loc 1 467 10 view .LVU2048
 6280 0066 6A46     		mov	r2, sp
 6281 0068 D370     		strb	r3, [r2, #3]
 470:User/BME280/bme280.c ****     {
 6282              		.loc 1 470 5 is_stmt 1 view .LVU2049
 470:User/BME280/bme280.c ****     {
 6283              		.loc 1 470 15 is_stmt 0 view .LVU2050
 6284 006a D378     		ldrb	r3, [r2, #3]
 467:User/BME280/bme280.c **** 
 6285              		.loc 1 467 10 view .LVU2051
 6286 006c D51C     		adds	r5, r2, #3
 470:User/BME280/bme280.c ****     {
 6287              		.loc 1 470 8 view .LVU2052
 6288 006e 002B     		cmp	r3, #0
 6289 0070 47D1     		bne	.L448
 473:User/BME280/bme280.c ****         {
 6290              		.loc 1 473 9 is_stmt 1 view .LVU2053
 482:User/BME280/bme280.c **** 
 6291              		.loc 1 482 9 view .LVU2054
 482:User/BME280/bme280.c **** 
 6292              		.loc 1 482 26 is_stmt 0 view .LVU2055
 6293 0072 6946     		mov	r1, sp
 6294 0074 6368     		ldr	r3, [r4, #4]
 6295 0076 0122     		movs	r2, #1
 6296 0078 F420     		movs	r0, #244
ARM GAS  C:\Users\upo\AppData\Local\Temp\ccJAZRXk.s 			page 174


 6297 007a 0231     		adds	r1, r1, #2
 6298 007c B047     		blx	r6
 6299              	.LVL427:
 482:User/BME280/bme280.c **** 
 6300              		.loc 1 482 24 view .LVU2056
 6301 007e 4523     		movs	r3, #69
 6302 0080 E054     		strb	r0, [r4, r3]
 485:User/BME280/bme280.c ****         {
 6303              		.loc 1 485 9 is_stmt 1 view .LVU2057
 485:User/BME280/bme280.c ****         {
 6304              		.loc 1 485 12 is_stmt 0 view .LVU2058
 6305 0082 0028     		cmp	r0, #0
 6306 0084 40D1     		bne	.L475
 6307              	.L449:
 495:User/BME280/bme280.c **** }
 6308              		.loc 1 495 5 is_stmt 1 view .LVU2059
 495:User/BME280/bme280.c **** }
 6309              		.loc 1 495 12 is_stmt 0 view .LVU2060
 6310 0086 2B78     		ldrb	r3, [r5]
 6311 0088 58B2     		sxtb	r0, r3
 6312              	.LVL428:
 495:User/BME280/bme280.c **** }
 6313              		.loc 1 495 12 view .LVU2061
 6314              	.LBE779:
 6315              	.LBE778:
1094:User/BME280/bme280.c ****     {
 6316              		.loc 1 1094 5 is_stmt 1 view .LVU2062
1094:User/BME280/bme280.c ****     {
 6317              		.loc 1 1094 8 is_stmt 0 view .LVU2063
 6318 008a 002B     		cmp	r3, #0
 6319 008c 22D1     		bne	.L441
1096:User/BME280/bme280.c **** 
 6320              		.loc 1 1096 9 is_stmt 1 view .LVU2064
1096:User/BME280/bme280.c **** 
 6321              		.loc 1 1096 31 is_stmt 0 view .LVU2065
 6322 008e 6B46     		mov	r3, sp
 6323 0090 0322     		movs	r2, #3
 6324 0092 4046     		mov	r0, r8
 6325              	.LVL429:
1096:User/BME280/bme280.c **** 
 6326              		.loc 1 1096 31 view .LVU2066
 6327 0094 991C     		adds	r1, r3, #2
 6328 0096 9B78     		ldrb	r3, [r3, #2]
 6329 0098 9343     		bics	r3, r2
 6330 009a 0240     		ands	r2, r0
 6331 009c 1343     		orrs	r3, r2
 6332              	.LBB785:
 6333              	.LBB786:
 6334              	.LBB787:
 6335              	.LBB788:
1585:User/BME280/bme280.c ****     {
 6336              		.loc 1 1585 23 view .LVU2067
 6337 009e E268     		ldr	r2, [r4, #12]
 6338              	.LBE788:
 6339              	.LBE787:
 6340              	.LBE786:
 6341              	.LBE785:
ARM GAS  C:\Users\upo\AppData\Local\Temp\ccJAZRXk.s 			page 175


1096:User/BME280/bme280.c **** 
 6342              		.loc 1 1096 29 view .LVU2068
 6343 00a0 0B70     		strb	r3, [r1]
1099:User/BME280/bme280.c ****     }
 6344              		.loc 1 1099 9 is_stmt 1 view .LVU2069
 6345              	.LVL430:
 6346              	.LBB794:
 6347              	.LBI785:
 502:User/BME280/bme280.c **** {
 6348              		.loc 1 502 8 view .LVU2070
 6349              	.LBB791:
 504:User/BME280/bme280.c ****     uint8_t temp_buff[20]; /* Typically not to write more than 10 registers */
 6350              		.loc 1 504 5 view .LVU2071
 505:User/BME280/bme280.c **** 
 6351              		.loc 1 505 5 view .LVU2072
 507:User/BME280/bme280.c ****     {
 6352              		.loc 1 507 5 view .LVU2073
 512:User/BME280/bme280.c ****     uint8_t reg_addr_cnt;
 6353              		.loc 1 512 5 view .LVU2074
 513:User/BME280/bme280.c **** 
 6354              		.loc 1 513 5 view .LVU2075
 516:User/BME280/bme280.c **** 
 6355              		.loc 1 516 5 view .LVU2076
 6356              	.LBB790:
 6357              	.LBI787:
1581:User/BME280/bme280.c **** {
 6358              		.loc 1 1581 15 view .LVU2077
 6359              	.LBB789:
1583:User/BME280/bme280.c **** 
 6360              		.loc 1 1583 5 view .LVU2078
1585:User/BME280/bme280.c ****     {
 6361              		.loc 1 1585 5 view .LVU2079
1585:User/BME280/bme280.c ****     {
 6362              		.loc 1 1585 23 is_stmt 0 view .LVU2080
 6363 00a2 002A     		cmp	r2, #0
 6364 00a4 39D0     		beq	.L456
1585:User/BME280/bme280.c ****     {
 6365              		.loc 1 1585 53 view .LVU2081
 6366 00a6 2569     		ldr	r5, [r4, #16]
1585:User/BME280/bme280.c ****     {
 6367              		.loc 1 1585 46 view .LVU2082
 6368 00a8 002D     		cmp	r5, #0
 6369 00aa 36D0     		beq	.L456
1585:User/BME280/bme280.c ****     {
 6370              		.loc 1 1585 70 view .LVU2083
 6371 00ac 6269     		ldr	r2, [r4, #20]
 6372 00ae 002A     		cmp	r2, #0
 6373 00b0 33D0     		beq	.L456
 6374              	.LVL431:
 6375              		.loc 1 1596 5 is_stmt 1 view .LVU2084
 6376              		.loc 1 1596 5 is_stmt 0 view .LVU2085
 6377              	.LBE789:
 6378              	.LBE790:
 519:User/BME280/bme280.c ****     {
 6379              		.loc 1 519 5 is_stmt 1 view .LVU2086
 521:User/BME280/bme280.c ****         {
 6380              		.loc 1 521 9 view .LVU2087
ARM GAS  C:\Users\upo\AppData\Local\Temp\ccJAZRXk.s 			page 176


 523:User/BME280/bme280.c **** 
 6381              		.loc 1 523 13 view .LVU2088
 523:User/BME280/bme280.c **** 
 6382              		.loc 1 523 26 is_stmt 0 view .LVU2089
 6383 00b2 01A9     		add	r1, sp, #4
 6384 00b4 0B70     		strb	r3, [r1]
 526:User/BME280/bme280.c ****             {
 6385              		.loc 1 526 13 is_stmt 1 view .LVU2090
 526:User/BME280/bme280.c ****             {
 6386              		.loc 1 526 16 is_stmt 0 view .LVU2091
 6387 00b6 207A     		ldrb	r0, [r4, #8]
 548:User/BME280/bme280.c **** 
 6388              		.loc 1 548 30 view .LVU2092
 6389 00b8 0122     		movs	r2, #1
 6390              	.LBE791:
 6391              	.LBE794:
1085:User/BME280/bme280.c **** 
 6392              		.loc 1 1085 13 view .LVU2093
 6393 00ba 0138     		subs	r0, r0, #1
 6394 00bc 431E     		subs	r3, r0, #1
 6395 00be 9841     		sbcs	r0, r0, r3
 6396 00c0 7F23     		movs	r3, #127
 6397 00c2 4042     		rsbs	r0, r0, #0
 6398 00c4 9843     		bics	r0, r3
 6399 00c6 F430     		adds	r0, r0, #244
 6400              	.LVL432:
 6401              	.LBB795:
 6402              	.LBB792:
 535:User/BME280/bme280.c ****             {
 6403              		.loc 1 535 13 is_stmt 1 view .LVU2094
 548:User/BME280/bme280.c **** 
 6404              		.loc 1 548 13 view .LVU2095
 548:User/BME280/bme280.c **** 
 6405              		.loc 1 548 30 is_stmt 0 view .LVU2096
 6406 00c8 6368     		ldr	r3, [r4, #4]
 6407 00ca A847     		blx	r5
 6408              	.LVL433:
 548:User/BME280/bme280.c **** 
 6409              		.loc 1 548 28 view .LVU2097
 6410 00cc 4523     		movs	r3, #69
 6411 00ce E054     		strb	r0, [r4, r3]
 551:User/BME280/bme280.c ****             {
 6412              		.loc 1 551 13 is_stmt 1 view .LVU2098
 551:User/BME280/bme280.c ****             {
 6413              		.loc 1 551 16 is_stmt 0 view .LVU2099
 6414 00d0 0028     		cmp	r0, #0
 6415 00d2 1FD1     		bne	.L476
 6416              	.LVL434:
 6417              	.L441:
 551:User/BME280/bme280.c ****             {
 6418              		.loc 1 551 16 view .LVU2100
 6419              	.LBE792:
 6420              	.LBE795:
 6421              	.LBE777:
 6422              	.LBE776:
 670:User/BME280/bme280.c **** }
 6423              		.loc 1 670 5 is_stmt 1 view .LVU2101
ARM GAS  C:\Users\upo\AppData\Local\Temp\ccJAZRXk.s 			page 177


 671:User/BME280/bme280.c **** 
 6424              		.loc 1 671 1 is_stmt 0 view .LVU2102
 6425 00d4 06B0     		add	sp, sp, #24
 6426              		@ sp needed
 6427              	.LVL435:
 671:User/BME280/bme280.c **** 
 6428              		.loc 1 671 1 view .LVU2103
 6429 00d6 80BC     		pop	{r7}
 6430 00d8 B846     		mov	r8, r7
 6431 00da F0BD     		pop	{r4, r5, r6, r7, pc}
 6432              	.LVL436:
 6433              	.L474:
 6434              	.LBB799:
 6435              	.LBB775:
 6436              	.LBB774:
 6437              	.LBB771:
 473:User/BME280/bme280.c ****         {
 6438              		.loc 1 473 9 is_stmt 1 view .LVU2104
 482:User/BME280/bme280.c **** 
 6439              		.loc 1 482 9 view .LVU2105
 482:User/BME280/bme280.c **** 
 6440              		.loc 1 482 26 is_stmt 0 view .LVU2106
 6441 00dc 6E46     		mov	r6, sp
 6442 00de 4B68     		ldr	r3, [r1, #4]
 6443 00e0 0122     		movs	r2, #1
 6444 00e2 3100     		movs	r1, r6
 6445              	.LVL437:
 482:User/BME280/bme280.c **** 
 6446              		.loc 1 482 26 view .LVU2107
 6447 00e4 F420     		movs	r0, #244
 6448              	.LVL438:
 482:User/BME280/bme280.c **** 
 6449              		.loc 1 482 26 view .LVU2108
 6450 00e6 B847     		blx	r7
 6451              	.LVL439:
 482:User/BME280/bme280.c **** 
 6452              		.loc 1 482 24 view .LVU2109
 6453 00e8 4523     		movs	r3, #69
 6454 00ea E054     		strb	r0, [r4, r3]
 485:User/BME280/bme280.c ****         {
 6455              		.loc 1 485 9 is_stmt 1 view .LVU2110
 485:User/BME280/bme280.c ****         {
 6456              		.loc 1 485 12 is_stmt 0 view .LVU2111
 6457 00ec 0028     		cmp	r0, #0
 6458 00ee A6D0     		beq	.L443
 487:User/BME280/bme280.c ****         }
 6459              		.loc 1 487 13 is_stmt 1 view .LVU2112
 487:User/BME280/bme280.c ****         }
 6460              		.loc 1 487 18 is_stmt 0 view .LVU2113
 6461 00f0 B733     		adds	r3, r3, #183
 6462 00f2 2B70     		strb	r3, [r5]
 6463 00f4 A3E7     		b	.L443
 6464              	.LVL440:
 6465              	.L444:
 487:User/BME280/bme280.c ****         }
 6466              		.loc 1 487 18 view .LVU2114
 6467              	.LBE771:
ARM GAS  C:\Users\upo\AppData\Local\Temp\ccJAZRXk.s 			page 178


 6468              	.LBE774:
 6469              	.LBE775:
 6470              	.LBE799:
 660:User/BME280/bme280.c ****         }
 6471              		.loc 1 660 13 is_stmt 1 view .LVU2115
 660:User/BME280/bme280.c ****         }
 6472              		.loc 1 660 20 is_stmt 0 view .LVU2116
 6473 00f6 2000     		movs	r0, r4
 6474              	.LVL441:
 660:User/BME280/bme280.c ****         }
 6475              		.loc 1 660 20 view .LVU2117
 6476 00f8 FFF7FEFF 		bl	put_device_to_sleep
 6477              	.LVL442:
 664:User/BME280/bme280.c ****         {
 6478              		.loc 1 664 9 is_stmt 1 view .LVU2118
 664:User/BME280/bme280.c ****         {
 6479              		.loc 1 664 12 is_stmt 0 view .LVU2119
 6480 00fc 0028     		cmp	r0, #0
 6481 00fe E9D1     		bne	.L441
 6482 0100 A7E7     		b	.L447
 6483              	.LVL443:
 6484              	.L448:
 6485              	.LBB800:
 6486              	.LBB798:
 6487              	.LBB796:
 6488              	.LBB784:
 492:User/BME280/bme280.c ****     }
 6489              		.loc 1 492 9 is_stmt 1 view .LVU2120
 492:User/BME280/bme280.c ****     }
 6490              		.loc 1 492 14 is_stmt 0 view .LVU2121
 6491 0102 FF23     		movs	r3, #255
 6492 0104 2B70     		strb	r3, [r5]
 6493 0106 BEE7     		b	.L449
 6494              	.L475:
 487:User/BME280/bme280.c ****         }
 6495              		.loc 1 487 13 is_stmt 1 view .LVU2122
 487:User/BME280/bme280.c ****         }
 6496              		.loc 1 487 18 is_stmt 0 view .LVU2123
 6497 0108 B733     		adds	r3, r3, #183
 6498 010a 2B70     		strb	r3, [r5]
 6499 010c BBE7     		b	.L449
 6500              	.LVL444:
 6501              	.L458:
 6502              	.LBB783:
 6503              	.LBB782:
1588:User/BME280/bme280.c ****     }
 6504              		.loc 1 1588 14 view .LVU2124
 6505 010e 0123     		movs	r3, #1
 6506 0110 5B42     		rsbs	r3, r3, #0
 6507 0112 A8E7     		b	.L445
 6508              	.LVL445:
 6509              	.L476:
1588:User/BME280/bme280.c ****     }
 6510              		.loc 1 1588 14 view .LVU2125
 6511              	.LBE782:
 6512              	.LBE783:
 6513              	.LBE784:
ARM GAS  C:\Users\upo\AppData\Local\Temp\ccJAZRXk.s 			page 179


 6514              	.LBE796:
 6515              	.LBB797:
 6516              	.LBB793:
 553:User/BME280/bme280.c ****             }
 6517              		.loc 1 553 22 view .LVU2126
 6518 0114 0420     		movs	r0, #4
 6519 0116 4042     		rsbs	r0, r0, #0
 6520              	.LVL446:
 566:User/BME280/bme280.c **** }
 6521              		.loc 1 566 5 is_stmt 1 view .LVU2127
 566:User/BME280/bme280.c **** }
 6522              		.loc 1 566 5 is_stmt 0 view .LVU2128
 6523              	.LBE793:
 6524              	.LBE797:
1102:User/BME280/bme280.c **** }
 6525              		.loc 1 1102 5 is_stmt 1 view .LVU2129
1102:User/BME280/bme280.c **** }
 6526              		.loc 1 1102 5 is_stmt 0 view .LVU2130
 6527 0118 DCE7     		b	.L441
 6528              	.LVL447:
 6529              	.L456:
1102:User/BME280/bme280.c **** }
 6530              		.loc 1 1102 5 view .LVU2131
 6531              	.LBE798:
 6532              	.LBE800:
 6533              	.LBB801:
 6534              	.LBB763:
1588:User/BME280/bme280.c ****     }
 6535              		.loc 1 1588 14 view .LVU2132
 6536 011a 0120     		movs	r0, #1
 6537 011c 4042     		rsbs	r0, r0, #0
 6538 011e D9E7     		b	.L441
 6539              	.LBE763:
 6540              	.LBE801:
 6541              		.cfi_endproc
 6542              	.LFE1430:
 6544              		.global	comp_data
 6545              		.section	.bss.comp_data,"aw",%nobits
 6546              		.align	2
 6549              	comp_data:
 6550 0000 00000000 		.space	12
 6550      00000000 
 6550      00000000 
 6551              		.section	.rodata
 6552              		.align	2
 6553              		.set	.LANCHOR0,. + 0
 6554              	.LC2:
 6555 0000 00010204 		.ascii	"\000\001\002\004\010\020"
 6555      0810
 6556              		.text
 6557              	.Letext0:
 6558              		.file 2 "C:\\ST\\STM32CubeCLT_1.15.0\\GNU-tools-for-STM32\\bin/../lib/gcc/arm-none-eabi/12.3.1/../
 6559              		.file 3 "C:\\ST\\STM32CubeCLT_1.15.0\\GNU-tools-for-STM32\\bin/../lib/gcc/arm-none-eabi/12.3.1/../
 6560              		.file 4 "User/BME280/bme280_defs.h"
 6561              		.file 5 "Drivers/STM32U0xx_HAL_Driver/Inc/stm32u0xx_ll_dma.h"
 6562              		.file 6 "Drivers/STM32U0xx_HAL_Driver/Inc/stm32u0xx_ll_usart.h"
 6563              		.file 7 "Core/Inc/printf.h"
ARM GAS  C:\Users\upo\AppData\Local\Temp\ccJAZRXk.s 			page 180


 6564              		.file 8 "<built-in>"
ARM GAS  C:\Users\upo\AppData\Local\Temp\ccJAZRXk.s 			page 181


DEFINED SYMBOLS
                            *ABS*:00000000 bme280.c
C:\Users\upo\AppData\Local\Temp\ccJAZRXk.s:19     .text.bme280_get_regs:00000000 $t
C:\Users\upo\AppData\Local\Temp\ccJAZRXk.s:26     .text.bme280_get_regs:00000000 bme280_get_regs
C:\Users\upo\AppData\Local\Temp\ccJAZRXk.s:156    .text.bme280_set_regs:00000000 $t
C:\Users\upo\AppData\Local\Temp\ccJAZRXk.s:163    .text.bme280_set_regs:00000000 bme280_set_regs
C:\Users\upo\AppData\Local\Temp\ccJAZRXk.s:616    .text.bme280_get_sensor_settings:00000000 $t
C:\Users\upo\AppData\Local\Temp\ccJAZRXk.s:623    .text.bme280_get_sensor_settings:00000000 bme280_get_sensor_settings
C:\Users\upo\AppData\Local\Temp\ccJAZRXk.s:822    .text.bme280_get_sensor_mode:00000000 $t
C:\Users\upo\AppData\Local\Temp\ccJAZRXk.s:829    .text.bme280_get_sensor_mode:00000000 bme280_get_sensor_mode
C:\Users\upo\AppData\Local\Temp\ccJAZRXk.s:991    .text.bme280_soft_reset:00000000 $t
C:\Users\upo\AppData\Local\Temp\ccJAZRXk.s:998    .text.bme280_soft_reset:00000000 bme280_soft_reset
C:\Users\upo\AppData\Local\Temp\ccJAZRXk.s:1331   .rodata.bme280_init.str1.4:00000000 $d
C:\Users\upo\AppData\Local\Temp\ccJAZRXk.s:1335   .text.bme280_init:00000000 $t
C:\Users\upo\AppData\Local\Temp\ccJAZRXk.s:1342   .text.bme280_init:00000000 bme280_init
C:\Users\upo\AppData\Local\Temp\ccJAZRXk.s:1984   .text.bme280_init:000001c8 $d
C:\Users\upo\AppData\Local\Temp\ccJAZRXk.s:1995   .text.bme280_parse_sensor_data:00000000 $t
C:\Users\upo\AppData\Local\Temp\ccJAZRXk.s:2002   .text.bme280_parse_sensor_data:00000000 bme280_parse_sensor_data
C:\Users\upo\AppData\Local\Temp\ccJAZRXk.s:2088   .text.bme280_compensate_data:00000000 $t
C:\Users\upo\AppData\Local\Temp\ccJAZRXk.s:2095   .text.bme280_compensate_data:00000000 bme280_compensate_data
C:\Users\upo\AppData\Local\Temp\ccJAZRXk.s:2851   .text.bme280_compensate_data:00000294 $d
C:\Users\upo\AppData\Local\Temp\ccJAZRXk.s:2866   .text.bme280_get_sensor_data:00000000 $t
C:\Users\upo\AppData\Local\Temp\ccJAZRXk.s:2873   .text.bme280_get_sensor_data:00000000 bme280_get_sensor_data
C:\Users\upo\AppData\Local\Temp\ccJAZRXk.s:3162   .text.bme280_cal_meas_delay:00000000 $t
C:\Users\upo\AppData\Local\Temp\ccJAZRXk.s:3169   .text.bme280_cal_meas_delay:00000000 bme280_cal_meas_delay
C:\Users\upo\AppData\Local\Temp\ccJAZRXk.s:3327   .text.bme280_cal_meas_delay:00000084 $d
C:\Users\upo\AppData\Local\Temp\ccJAZRXk.s:3336   .text.put_device_to_sleep:00000000 $t
C:\Users\upo\AppData\Local\Temp\ccJAZRXk.s:3343   .text.put_device_to_sleep:00000000 put_device_to_sleep
C:\Users\upo\AppData\Local\Temp\ccJAZRXk.s:4725   .text.bme280_set_sensor_settings:00000000 $t
C:\Users\upo\AppData\Local\Temp\ccJAZRXk.s:4732   .text.bme280_set_sensor_settings:00000000 bme280_set_sensor_settings
C:\Users\upo\AppData\Local\Temp\ccJAZRXk.s:6090   .text.bme280_set_sensor_mode:00000000 $t
C:\Users\upo\AppData\Local\Temp\ccJAZRXk.s:6097   .text.bme280_set_sensor_mode:00000000 bme280_set_sensor_mode
C:\Users\upo\AppData\Local\Temp\ccJAZRXk.s:6549   .bss.comp_data:00000000 comp_data
C:\Users\upo\AppData\Local\Temp\ccJAZRXk.s:6546   .bss.comp_data:00000000 $d
C:\Users\upo\AppData\Local\Temp\ccJAZRXk.s:6552   .rodata:00000000 $d

UNDEFINED SYMBOLS
printf_
memset
__aeabi_uidiv
__aeabi_idiv
