ARM GAS  C:\Users\upo\AppData\Local\Temp\ccEC4369.s 			page 1


   1              		.cpu cortex-m0plus
   2              		.arch armv6s-m
   3              		.fpu softvfp
   4              		.eabi_attribute 20, 1
   5              		.eabi_attribute 21, 1
   6              		.eabi_attribute 23, 3
   7              		.eabi_attribute 24, 1
   8              		.eabi_attribute 25, 1
   9              		.eabi_attribute 26, 1
  10              		.eabi_attribute 30, 2
  11              		.eabi_attribute 34, 0
  12              		.eabi_attribute 18, 4
  13              		.file	"GUI_Paint.c"
  14              		.text
  15              	.Ltext0:
  16              		.cfi_sections	.debug_frame
  17              		.file 1 "User/e-Paper/GUI_Paint.c"
  18              		.section	.text.Paint_SetPixel.part.0,"ax",%progbits
  19              		.align	1
  20              		.p2align 2,,3
  21              		.syntax unified
  22              		.code	16
  23              		.thumb_func
  25              	Paint_SetPixel.part.0:
  26              	.LVL0:
  27              	.LFB1444:
   1:User/e-Paper/GUI_Paint.c **** /******************************************************************************
   2:User/e-Paper/GUI_Paint.c ****  * | File      	:   GUI_Paint.c
   3:User/e-Paper/GUI_Paint.c ****  * | Author      :   Waveshare electronics
   4:User/e-Paper/GUI_Paint.c ****  * | Function    :	Achieve drawing: draw points, lines, boxes, circles and
   5:User/e-Paper/GUI_Paint.c ****  *                   their size, solid dotted line, solid rectangle hollow
   6:User/e-Paper/GUI_Paint.c ****  *                   rectangle, solid circle hollow circle.
   7:User/e-Paper/GUI_Paint.c ****  * | Info        :
   8:User/e-Paper/GUI_Paint.c ****  *   Achieve display characters: Display a single character, string, number
   9:User/e-Paper/GUI_Paint.c ****  *   Achieve time display: adaptive size display time minutes and seconds
  10:User/e-Paper/GUI_Paint.c ****  *----------------
  11:User/e-Paper/GUI_Paint.c ****  * |	This version:   V3.1
  12:User/e-Paper/GUI_Paint.c ****  * | Date        :   2020-07-08
  13:User/e-Paper/GUI_Paint.c ****  * | Info        :
  14:User/e-Paper/GUI_Paint.c ****  * -----------------------------------------------------------------------------
  15:User/e-Paper/GUI_Paint.c ****  * V3.1(2020-07-08):
  16:User/e-Paper/GUI_Paint.c ****  * 1.Change: Paint_SetScale(UBYTE scale)
  17:User/e-Paper/GUI_Paint.c ****  *		 Add scale 7 for 5.65f e-Parper
  18:User/e-Paper/GUI_Paint.c ****  * 2.Change: Paint_SetPixel(UWORD Xpoint, UWORD Ypoint, UWORD Color)
  19:User/e-Paper/GUI_Paint.c ****  *		 Add the branch for scale 7
  20:User/e-Paper/GUI_Paint.c ****  * 3.Change: Paint_Clear(UWORD Color)
  21:User/e-Paper/GUI_Paint.c ****  *		 Add the branch for scale 7
  22:User/e-Paper/GUI_Paint.c ****  *
  23:User/e-Paper/GUI_Paint.c ****  * -----------------------------------------------------------------------------
  24:User/e-Paper/GUI_Paint.c ****  * V3.0(2019-04-18):
  25:User/e-Paper/GUI_Paint.c ****  * 1.Change:
  26:User/e-Paper/GUI_Paint.c ****  *    Paint_DrawPoint(..., DOT_STYLE DOT_STYLE)
  27:User/e-Paper/GUI_Paint.c ****  * => Paint_DrawPoint(..., DOT_STYLE Dot_Style)
  28:User/e-Paper/GUI_Paint.c ****  *    Paint_DrawLine(..., LINE_STYLE Line_Style, DOT_PIXEL Dot_Pixel)
  29:User/e-Paper/GUI_Paint.c ****  * => Paint_DrawLine(..., DOT_PIXEL Line_width, LINE_STYLE Line_Style)
  30:User/e-Paper/GUI_Paint.c ****  *    Paint_DrawRectangle(..., DRAW_FILL Filled, DOT_PIXEL Dot_Pixel)
  31:User/e-Paper/GUI_Paint.c ****  * => Paint_DrawRectangle(..., DOT_PIXEL Line_width, DRAW_FILL Draw_Fill)
ARM GAS  C:\Users\upo\AppData\Local\Temp\ccEC4369.s 			page 2


  32:User/e-Paper/GUI_Paint.c ****  *    Paint_DrawCircle(..., DRAW_FILL Draw_Fill, DOT_PIXEL Dot_Pixel)
  33:User/e-Paper/GUI_Paint.c ****  * => Paint_DrawCircle(..., DOT_PIXEL Line_width, DRAW_FILL Draw_Filll)
  34:User/e-Paper/GUI_Paint.c ****  *
  35:User/e-Paper/GUI_Paint.c ****  * -----------------------------------------------------------------------------
  36:User/e-Paper/GUI_Paint.c ****  * V2.0(2018-11-15):
  37:User/e-Paper/GUI_Paint.c ****  * 1.add: Paint_NewImage()
  38:User/e-Paper/GUI_Paint.c ****  *    Create an image's properties
  39:User/e-Paper/GUI_Paint.c ****  * 2.add: Paint_SelectImage()
  40:User/e-Paper/GUI_Paint.c ****  *    Select the picture to be drawn
  41:User/e-Paper/GUI_Paint.c ****  * 3.add: Paint_SetRotate()
  42:User/e-Paper/GUI_Paint.c ****  *    Set the direction of the cache
  43:User/e-Paper/GUI_Paint.c ****  * 4.add: Paint_RotateImage()
  44:User/e-Paper/GUI_Paint.c ****  *    Can flip the picture, Support 0-360 degrees,
  45:User/e-Paper/GUI_Paint.c ****  *    but only 90.180.270 rotation is better
  46:User/e-Paper/GUI_Paint.c ****  * 4.add: Paint_SetMirroring()
  47:User/e-Paper/GUI_Paint.c ****  *    Can Mirroring the picture, horizontal, vertical, origin
  48:User/e-Paper/GUI_Paint.c ****  * 5.add: Paint_DrawString_CN()
  49:User/e-Paper/GUI_Paint.c ****  *    Can display Chinese(GB1312)
  50:User/e-Paper/GUI_Paint.c ****  *
  51:User/e-Paper/GUI_Paint.c ****  * -----------------------------------------------------------------------------
  52:User/e-Paper/GUI_Paint.c ****  * V1.0(2018-07-17):
  53:User/e-Paper/GUI_Paint.c ****  *   Create library
  54:User/e-Paper/GUI_Paint.c ****  *
  55:User/e-Paper/GUI_Paint.c ****  * Permission is hereby granted, free of charge, to any person obtaining a copy
  56:User/e-Paper/GUI_Paint.c ****  * of this software and associated documnetation files (the "Software"), to deal
  57:User/e-Paper/GUI_Paint.c ****  * in the Software without restriction, including without limitation the rights
  58:User/e-Paper/GUI_Paint.c ****  * to use, copy, modify, merge, publish, distribute, sublicense, and/or sell
  59:User/e-Paper/GUI_Paint.c ****  * copies of the Software, and to permit persons to  whom the Software is
  60:User/e-Paper/GUI_Paint.c ****  * furished to do so, subject to the following conditions:
  61:User/e-Paper/GUI_Paint.c ****  *
  62:User/e-Paper/GUI_Paint.c ****  * The above copyright notice and this permission notice shall be included in
  63:User/e-Paper/GUI_Paint.c ****  * all copies or substantial portions of the Software.
  64:User/e-Paper/GUI_Paint.c ****  *
  65:User/e-Paper/GUI_Paint.c ****  * THE SOFTWARE IS PROVIDED "AS IS", WITHOUT WARRANTY OF ANY KIND, EXPRESS OR
  66:User/e-Paper/GUI_Paint.c ****  * IMPLIED, INCLUDING BUT NOT LIMITED TO THE WARRANTIES OF MERCHANTABILITY,
  67:User/e-Paper/GUI_Paint.c ****  * FITNESS OR A PARTICULAR PURPOSE AND NONINFRINGEMENT. IN NO EVENT SHALL THE
  68:User/e-Paper/GUI_Paint.c ****  * AUTHORS OR COPYRIGHT HOLDERS BE LIABLE FOR ANY CLAIM, DAMAGES OR OTHER
  69:User/e-Paper/GUI_Paint.c ****  * LIABILITY WHETHER IN AN ACTION OF CONTRACT, TORT OR OTHERWISE, ARISING FROM,
  70:User/e-Paper/GUI_Paint.c ****  * OUT OF OR IN CONNECTION WITH THE SOFTWARE OR THE USE OR OTHER DEALINGS IN
  71:User/e-Paper/GUI_Paint.c ****  * THE SOFTWARE.
  72:User/e-Paper/GUI_Paint.c ****  *
  73:User/e-Paper/GUI_Paint.c ****  ******************************************************************************/
  74:User/e-Paper/GUI_Paint.c **** #include "GUI_Paint.h"
  75:User/e-Paper/GUI_Paint.c **** #include "DEV_Config.h"
  76:User/e-Paper/GUI_Paint.c **** #include "Debug.h"
  77:User/e-Paper/GUI_Paint.c **** #include <stdint.h>
  78:User/e-Paper/GUI_Paint.c **** #include <stdlib.h>
  79:User/e-Paper/GUI_Paint.c **** #include <string.h> //memset()
  80:User/e-Paper/GUI_Paint.c **** #include <math.h>
  81:User/e-Paper/GUI_Paint.c **** #include "fonts.h"
  82:User/e-Paper/GUI_Paint.c **** PAINT Paint;
  83:User/e-Paper/GUI_Paint.c **** 
  84:User/e-Paper/GUI_Paint.c **** /******************************************************************************
  85:User/e-Paper/GUI_Paint.c **** function: Create Image
  86:User/e-Paper/GUI_Paint.c **** parameter:
  87:User/e-Paper/GUI_Paint.c ****     image   :   Pointer to the image cache
  88:User/e-Paper/GUI_Paint.c ****     width   :   The width of the picture
ARM GAS  C:\Users\upo\AppData\Local\Temp\ccEC4369.s 			page 3


  89:User/e-Paper/GUI_Paint.c ****     Height  :   The height of the picture
  90:User/e-Paper/GUI_Paint.c ****     Color   :   Whether the picture is inverted
  91:User/e-Paper/GUI_Paint.c **** ******************************************************************************/
  92:User/e-Paper/GUI_Paint.c **** void Paint_NewImage(UBYTE *image, UWORD Width, UWORD Height, UWORD Rotate, UWORD Color)
  93:User/e-Paper/GUI_Paint.c **** {
  94:User/e-Paper/GUI_Paint.c ****     Paint.Image = NULL;
  95:User/e-Paper/GUI_Paint.c ****     Paint.Image = image;
  96:User/e-Paper/GUI_Paint.c **** 
  97:User/e-Paper/GUI_Paint.c ****     Paint.WidthMemory = Width;
  98:User/e-Paper/GUI_Paint.c ****     Paint.HeightMemory = Height;
  99:User/e-Paper/GUI_Paint.c ****     Paint.Color = Color;
 100:User/e-Paper/GUI_Paint.c ****     Paint.Scale = 2;
 101:User/e-Paper/GUI_Paint.c **** 
 102:User/e-Paper/GUI_Paint.c ****     Paint.WidthByte = (Width % 8 == 0) ? (Width / 8) : (Width / 8 + 1);
 103:User/e-Paper/GUI_Paint.c ****     Paint.HeightByte = Height;
 104:User/e-Paper/GUI_Paint.c ****     //    printf("WidthByte = %d, HeightByte = %d\r\n", Paint.WidthByte, Paint.HeightByte);
 105:User/e-Paper/GUI_Paint.c ****     //    printf(" EPD_WIDTH / 8 = %d\r\n",  122 / 8);
 106:User/e-Paper/GUI_Paint.c **** 
 107:User/e-Paper/GUI_Paint.c ****     Paint.Rotate = Rotate;
 108:User/e-Paper/GUI_Paint.c ****     Paint.Mirror = MIRROR_NONE;
 109:User/e-Paper/GUI_Paint.c **** 
 110:User/e-Paper/GUI_Paint.c ****     if (Rotate == ROTATE_0 || Rotate == ROTATE_180)
 111:User/e-Paper/GUI_Paint.c ****     {
 112:User/e-Paper/GUI_Paint.c ****         Paint.Width = Width;
 113:User/e-Paper/GUI_Paint.c ****         Paint.Height = Height;
 114:User/e-Paper/GUI_Paint.c ****     }
 115:User/e-Paper/GUI_Paint.c ****     else
 116:User/e-Paper/GUI_Paint.c ****     {
 117:User/e-Paper/GUI_Paint.c ****         Paint.Width = Height;
 118:User/e-Paper/GUI_Paint.c ****         Paint.Height = Width;
 119:User/e-Paper/GUI_Paint.c ****     }
 120:User/e-Paper/GUI_Paint.c **** }
 121:User/e-Paper/GUI_Paint.c **** 
 122:User/e-Paper/GUI_Paint.c **** /******************************************************************************
 123:User/e-Paper/GUI_Paint.c **** function: Select Image
 124:User/e-Paper/GUI_Paint.c **** parameter:
 125:User/e-Paper/GUI_Paint.c ****     image : Pointer to the image cache
 126:User/e-Paper/GUI_Paint.c **** ******************************************************************************/
 127:User/e-Paper/GUI_Paint.c **** void Paint_SelectImage(UBYTE *image)
 128:User/e-Paper/GUI_Paint.c **** {
 129:User/e-Paper/GUI_Paint.c ****     Paint.Image = image;
 130:User/e-Paper/GUI_Paint.c **** }
 131:User/e-Paper/GUI_Paint.c **** 
 132:User/e-Paper/GUI_Paint.c **** /******************************************************************************
 133:User/e-Paper/GUI_Paint.c **** function: Select Image Rotate
 134:User/e-Paper/GUI_Paint.c **** parameter:
 135:User/e-Paper/GUI_Paint.c ****     Rotate : 0,90,180,270
 136:User/e-Paper/GUI_Paint.c **** ******************************************************************************/
 137:User/e-Paper/GUI_Paint.c **** void Paint_SetRotate(UWORD Rotate)
 138:User/e-Paper/GUI_Paint.c **** {
 139:User/e-Paper/GUI_Paint.c ****     if (Rotate == ROTATE_0 || Rotate == ROTATE_90 || Rotate == ROTATE_180 || Rotate == ROTATE_270)
 140:User/e-Paper/GUI_Paint.c ****     {
 141:User/e-Paper/GUI_Paint.c ****         DE_BUG("Set image Rotate %d\r\n", Rotate);
 142:User/e-Paper/GUI_Paint.c ****         Paint.Rotate = Rotate;
 143:User/e-Paper/GUI_Paint.c ****     }
 144:User/e-Paper/GUI_Paint.c ****     else
 145:User/e-Paper/GUI_Paint.c ****     {
ARM GAS  C:\Users\upo\AppData\Local\Temp\ccEC4369.s 			page 4


 146:User/e-Paper/GUI_Paint.c ****         DE_BUG("rotate = 0, 90, 180, 270\r\n");
 147:User/e-Paper/GUI_Paint.c ****     }
 148:User/e-Paper/GUI_Paint.c **** }
 149:User/e-Paper/GUI_Paint.c **** 
 150:User/e-Paper/GUI_Paint.c **** void Paint_SetScale(UBYTE scale)
 151:User/e-Paper/GUI_Paint.c **** {
 152:User/e-Paper/GUI_Paint.c ****     if (scale == 2)
 153:User/e-Paper/GUI_Paint.c ****     {
 154:User/e-Paper/GUI_Paint.c ****         Paint.Scale = scale;
 155:User/e-Paper/GUI_Paint.c ****         Paint.WidthByte = (Paint.WidthMemory % 8 == 0) ? (Paint.WidthMemory / 8) : (Paint.WidthMemo
 156:User/e-Paper/GUI_Paint.c ****     }
 157:User/e-Paper/GUI_Paint.c ****     else if (scale == 4)
 158:User/e-Paper/GUI_Paint.c ****     {
 159:User/e-Paper/GUI_Paint.c ****         Paint.Scale = scale;
 160:User/e-Paper/GUI_Paint.c ****         Paint.WidthByte = (Paint.WidthMemory % 4 == 0) ? (Paint.WidthMemory / 4) : (Paint.WidthMemo
 161:User/e-Paper/GUI_Paint.c ****     }
 162:User/e-Paper/GUI_Paint.c ****     else if (scale == 7)
 163:User/e-Paper/GUI_Paint.c ****     { // Only applicable with 5in65 e-Paper
 164:User/e-Paper/GUI_Paint.c ****         Paint.Scale = scale;
 165:User/e-Paper/GUI_Paint.c ****         Paint.WidthByte = (Paint.WidthMemory % 2 == 0) ? (Paint.WidthMemory / 2) : (Paint.WidthMemo
 166:User/e-Paper/GUI_Paint.c ****     }
 167:User/e-Paper/GUI_Paint.c ****     else
 168:User/e-Paper/GUI_Paint.c ****     {
 169:User/e-Paper/GUI_Paint.c ****         DE_BUG("Set Scale Input parameter error\r\n");
 170:User/e-Paper/GUI_Paint.c ****         DE_BUG("Scale Only support: 2 4 7\r\n");
 171:User/e-Paper/GUI_Paint.c ****     }
 172:User/e-Paper/GUI_Paint.c **** }
 173:User/e-Paper/GUI_Paint.c **** /******************************************************************************
 174:User/e-Paper/GUI_Paint.c **** function:	Select Image mirror
 175:User/e-Paper/GUI_Paint.c **** parameter:
 176:User/e-Paper/GUI_Paint.c ****     mirror   :Not mirror,Horizontal mirror,Vertical mirror,Origin mirror
 177:User/e-Paper/GUI_Paint.c **** ******************************************************************************/
 178:User/e-Paper/GUI_Paint.c **** void Paint_SetMirroring(UBYTE mirror)
 179:User/e-Paper/GUI_Paint.c **** {
 180:User/e-Paper/GUI_Paint.c ****     if (mirror == MIRROR_NONE || mirror == MIRROR_HORIZONTAL ||
 181:User/e-Paper/GUI_Paint.c ****         mirror == MIRROR_VERTICAL || mirror == MIRROR_ORIGIN)
 182:User/e-Paper/GUI_Paint.c ****     {
 183:User/e-Paper/GUI_Paint.c ****         DE_BUG("mirror image x:%s, y:%s\r\n", (mirror & 0x01) ? "mirror" : "none", ((mirror >> 1) &
 184:User/e-Paper/GUI_Paint.c ****         Paint.Mirror = mirror;
 185:User/e-Paper/GUI_Paint.c ****     }
 186:User/e-Paper/GUI_Paint.c ****     else
 187:User/e-Paper/GUI_Paint.c ****     {
 188:User/e-Paper/GUI_Paint.c ****         DE_BUG("mirror should be MIRROR_NONE, MIRROR_HORIZONTAL, \
 189:User/e-Paper/GUI_Paint.c ****         MIRROR_VERTICAL or MIRROR_ORIGIN\r\n");
 190:User/e-Paper/GUI_Paint.c ****     }
 191:User/e-Paper/GUI_Paint.c **** }
 192:User/e-Paper/GUI_Paint.c **** 
 193:User/e-Paper/GUI_Paint.c **** /******************************************************************************
 194:User/e-Paper/GUI_Paint.c **** function: Draw Pixels
 195:User/e-Paper/GUI_Paint.c **** parameter:
 196:User/e-Paper/GUI_Paint.c ****     Xpoint : At point X
 197:User/e-Paper/GUI_Paint.c ****     Ypoint : At point Y
 198:User/e-Paper/GUI_Paint.c ****     Color  : Painted colors
 199:User/e-Paper/GUI_Paint.c **** ******************************************************************************/
 200:User/e-Paper/GUI_Paint.c **** void Paint_SetPixel(UWORD Xpoint, UWORD Ypoint, UWORD Color)
  28              		.loc 1 200 6 view -0
  29              		.cfi_startproc
ARM GAS  C:\Users\upo\AppData\Local\Temp\ccEC4369.s 			page 5


  30              		@ args = 0, pretend = 0, frame = 0
  31              		@ frame_needed = 0, uses_anonymous_args = 0
 201:User/e-Paper/GUI_Paint.c **** {
 202:User/e-Paper/GUI_Paint.c ****     if (Xpoint > Paint.Width || Ypoint > Paint.Height)
 203:User/e-Paper/GUI_Paint.c ****     {
 204:User/e-Paper/GUI_Paint.c ****         DE_BUG("Exceeding display boundaries\r\n");
 205:User/e-Paper/GUI_Paint.c ****         return;
 206:User/e-Paper/GUI_Paint.c ****     }
 207:User/e-Paper/GUI_Paint.c ****     UWORD X, Y;
  32              		.loc 1 207 5 view .LVU1
 208:User/e-Paper/GUI_Paint.c **** 
 209:User/e-Paper/GUI_Paint.c ****     switch (Paint.Rotate)
  33              		.loc 1 209 5 view .LVU2
 200:User/e-Paper/GUI_Paint.c **** {
  34              		.loc 1 200 6 is_stmt 0 view .LVU3
  35 0000 70B5     		push	{r4, r5, r6, lr}
  36              	.LCFI0:
  37              		.cfi_def_cfa_offset 16
  38              		.cfi_offset 4, -16
  39              		.cfi_offset 5, -12
  40              		.cfi_offset 6, -8
  41              		.cfi_offset 14, -4
  42              		.loc 1 209 18 view .LVU4
  43 0002 444D     		ldr	r5, .L28
  44 0004 EB89     		ldrh	r3, [r5, #14]
  45              		.loc 1 209 5 view .LVU5
  46 0006 B42B     		cmp	r3, #180
  47 0008 42D0     		beq	.L2
  48 000a 2DD8     		bhi	.L3
  49 000c 002B     		cmp	r3, #0
  50 000e 06D0     		beq	.L4
  51 0010 5A2B     		cmp	r3, #90
  52 0012 1BD1     		bne	.L1
 210:User/e-Paper/GUI_Paint.c ****     {
 211:User/e-Paper/GUI_Paint.c ****     case 0:
 212:User/e-Paper/GUI_Paint.c ****         X = Xpoint;
 213:User/e-Paper/GUI_Paint.c ****         Y = Ypoint;
 214:User/e-Paper/GUI_Paint.c ****         break;
 215:User/e-Paper/GUI_Paint.c ****     case 90:
 216:User/e-Paper/GUI_Paint.c ****         X = Paint.WidthMemory - Ypoint - 1;
  53              		.loc 1 216 9 is_stmt 1 view .LVU6
  54              		.loc 1 216 11 is_stmt 0 view .LVU7
  55 0014 2B89     		ldrh	r3, [r5, #8]
  56 0016 013B     		subs	r3, r3, #1
  57 0018 5B1A     		subs	r3, r3, r1
  58              	.LVL1:
 217:User/e-Paper/GUI_Paint.c ****         Y = Xpoint;
  59              		.loc 1 217 9 is_stmt 1 view .LVU8
 218:User/e-Paper/GUI_Paint.c ****         break;
  60              		.loc 1 218 9 view .LVU9
 217:User/e-Paper/GUI_Paint.c ****         Y = Xpoint;
  61              		.loc 1 217 11 is_stmt 0 view .LVU10
  62 001a 0100     		movs	r1, r0
  63              	.LVL2:
 216:User/e-Paper/GUI_Paint.c ****         Y = Xpoint;
  64              		.loc 1 216 11 view .LVU11
  65 001c 98B2     		uxth	r0, r3
ARM GAS  C:\Users\upo\AppData\Local\Temp\ccEC4369.s 			page 6


  66              	.LVL3:
  67              	.L4:
 219:User/e-Paper/GUI_Paint.c ****     case 180:
 220:User/e-Paper/GUI_Paint.c ****         X = Paint.WidthMemory - Xpoint - 1;
 221:User/e-Paper/GUI_Paint.c ****         Y = Paint.HeightMemory - Ypoint - 1;
 222:User/e-Paper/GUI_Paint.c ****         break;
 223:User/e-Paper/GUI_Paint.c ****     case 270:
 224:User/e-Paper/GUI_Paint.c ****         X = Ypoint;
 225:User/e-Paper/GUI_Paint.c ****         Y = Paint.HeightMemory - Xpoint - 1;
 226:User/e-Paper/GUI_Paint.c ****         break;
 227:User/e-Paper/GUI_Paint.c ****     default:
 228:User/e-Paper/GUI_Paint.c ****         return;
 229:User/e-Paper/GUI_Paint.c ****     }
 230:User/e-Paper/GUI_Paint.c **** 
 231:User/e-Paper/GUI_Paint.c ****     switch (Paint.Mirror)
  68              		.loc 1 231 5 is_stmt 1 view .LVU12
  69              		.loc 1 231 18 is_stmt 0 view .LVU13
  70 001e 2B8A     		ldrh	r3, [r5, #16]
  71              		.loc 1 231 5 view .LVU14
  72 0020 022B     		cmp	r3, #2
  73 0022 2DD0     		beq	.L8
  74              	.L27:
  75              		.loc 1 231 5 view .LVU15
  76 0024 022B     		cmp	r3, #2
  77 0026 12D8     		bhi	.L9
  78 0028 002B     		cmp	r3, #0
  79 002a 2DD0     		beq	.L21
 232:User/e-Paper/GUI_Paint.c ****     {
 233:User/e-Paper/GUI_Paint.c ****     case MIRROR_NONE:
 234:User/e-Paper/GUI_Paint.c ****         break;
 235:User/e-Paper/GUI_Paint.c ****     case MIRROR_HORIZONTAL:
 236:User/e-Paper/GUI_Paint.c ****         X = Paint.WidthMemory - X - 1;
  80              		.loc 1 236 9 is_stmt 1 view .LVU16
  81              		.loc 1 236 18 is_stmt 0 view .LVU17
  82 002c 2B89     		ldrh	r3, [r5, #8]
  83              		.loc 1 236 11 view .LVU18
  84 002e 5C1E     		subs	r4, r3, #1
  85 0030 201A     		subs	r0, r4, r0
  86              	.LVL4:
  87              		.loc 1 236 11 view .LVU19
  88 0032 80B2     		uxth	r0, r0
  89              	.LVL5:
 237:User/e-Paper/GUI_Paint.c ****         break;
  90              		.loc 1 237 9 is_stmt 1 view .LVU20
 238:User/e-Paper/GUI_Paint.c ****     case MIRROR_VERTICAL:
 239:User/e-Paper/GUI_Paint.c ****         Y = Paint.HeightMemory - Y - 1;
 240:User/e-Paper/GUI_Paint.c ****         break;
 241:User/e-Paper/GUI_Paint.c ****     case MIRROR_ORIGIN:
 242:User/e-Paper/GUI_Paint.c ****         X = Paint.WidthMemory - X - 1;
 243:User/e-Paper/GUI_Paint.c ****         Y = Paint.HeightMemory - Y - 1;
 244:User/e-Paper/GUI_Paint.c ****         break;
 245:User/e-Paper/GUI_Paint.c ****     default:
 246:User/e-Paper/GUI_Paint.c ****         return;
 247:User/e-Paper/GUI_Paint.c ****     }
 248:User/e-Paper/GUI_Paint.c **** 
 249:User/e-Paper/GUI_Paint.c ****     if (X > Paint.WidthMemory || Y > Paint.HeightMemory)
  91              		.loc 1 249 5 view .LVU21
ARM GAS  C:\Users\upo\AppData\Local\Temp\ccEC4369.s 			page 7


  92              		.loc 1 249 8 is_stmt 0 view .LVU22
  93 0034 8342     		cmp	r3, r0
  94 0036 09D3     		bcc	.L1
  95              	.L26:
  96              		.loc 1 249 31 view .LVU23
  97 0038 6B89     		ldrh	r3, [r5, #10]
  98 003a 8B42     		cmp	r3, r1
  99 003c 06D3     		bcc	.L1
 250:User/e-Paper/GUI_Paint.c ****     {
 251:User/e-Paper/GUI_Paint.c ****         DE_BUG("Exceeding display boundaries\r\n");
 252:User/e-Paper/GUI_Paint.c ****         return;
 253:User/e-Paper/GUI_Paint.c ****     }
 254:User/e-Paper/GUI_Paint.c **** 
 255:User/e-Paper/GUI_Paint.c ****     if (Paint.Scale == 2)
 100              		.loc 1 255 5 is_stmt 1 view .LVU24
 101              		.loc 1 255 14 is_stmt 0 view .LVU25
 102 003e EB8A     		ldrh	r3, [r5, #22]
 103              		.loc 1 255 8 view .LVU26
 104 0040 022B     		cmp	r3, #2
 105 0042 2ED0     		beq	.L23
 256:User/e-Paper/GUI_Paint.c ****     {
 257:User/e-Paper/GUI_Paint.c ****         UDOUBLE Addr = X / 8 + Y * Paint.WidthByte;
 258:User/e-Paper/GUI_Paint.c ****         UBYTE Rdata = Paint.Image[Addr];
 259:User/e-Paper/GUI_Paint.c ****         if (Color == BLACK)
 260:User/e-Paper/GUI_Paint.c ****             Paint.Image[Addr] = Rdata & ~(0x80 >> (X % 8));
 261:User/e-Paper/GUI_Paint.c ****         else
 262:User/e-Paper/GUI_Paint.c ****             Paint.Image[Addr] = Rdata | (0x80 >> (X % 8));
 263:User/e-Paper/GUI_Paint.c ****     }
 264:User/e-Paper/GUI_Paint.c ****     else if (Paint.Scale == 4)
 106              		.loc 1 264 10 is_stmt 1 view .LVU27
 107              		.loc 1 264 13 is_stmt 0 view .LVU28
 108 0044 042B     		cmp	r3, #4
 109 0046 3DD0     		beq	.L24
 265:User/e-Paper/GUI_Paint.c ****     {
 266:User/e-Paper/GUI_Paint.c ****         UDOUBLE Addr = X / 4 + Y * Paint.WidthByte;
 267:User/e-Paper/GUI_Paint.c ****         Color = Color % 4; // Guaranteed color scale is 4  --- 0~3
 268:User/e-Paper/GUI_Paint.c ****         UBYTE Rdata = Paint.Image[Addr];
 269:User/e-Paper/GUI_Paint.c **** 
 270:User/e-Paper/GUI_Paint.c ****         Rdata = Rdata & (~(0xC0 >> ((X % 4) * 2)));
 271:User/e-Paper/GUI_Paint.c ****         Paint.Image[Addr] = Rdata | ((Color << 6) >> ((X % 4) * 2));
 272:User/e-Paper/GUI_Paint.c ****     }
 273:User/e-Paper/GUI_Paint.c ****     else if (Paint.Scale == 7)
 110              		.loc 1 273 10 is_stmt 1 view .LVU29
 111              		.loc 1 273 13 is_stmt 0 view .LVU30
 112 0048 072B     		cmp	r3, #7
 113 004a 51D0     		beq	.L25
 114              	.LVL6:
 115              	.L1:
 274:User/e-Paper/GUI_Paint.c ****     {
 275:User/e-Paper/GUI_Paint.c ****         UDOUBLE Addr = X / 2 + Y * Paint.WidthByte;
 276:User/e-Paper/GUI_Paint.c ****         UBYTE Rdata = Paint.Image[Addr];
 277:User/e-Paper/GUI_Paint.c ****         Rdata = Rdata & (~(0xF0 >> ((X % 2) * 4))); // Clear first, then set value
 278:User/e-Paper/GUI_Paint.c ****         Paint.Image[Addr] = Rdata | ((Color << 4) >> ((X % 2) * 4));
 279:User/e-Paper/GUI_Paint.c ****         // printf("Add =  %d ,data = %d\r\n",Addr,Rdata);
 280:User/e-Paper/GUI_Paint.c ****     }
 281:User/e-Paper/GUI_Paint.c **** }
 116              		.loc 1 281 1 view .LVU31
ARM GAS  C:\Users\upo\AppData\Local\Temp\ccEC4369.s 			page 8


 117              		@ sp needed
 118 004c 70BD     		pop	{r4, r5, r6, pc}
 119              	.LVL7:
 120              	.L9:
 231:User/e-Paper/GUI_Paint.c ****     {
 121              		.loc 1 231 5 view .LVU32
 122 004e 032B     		cmp	r3, #3
 123 0050 FCD1     		bne	.L1
 242:User/e-Paper/GUI_Paint.c ****         Y = Paint.HeightMemory - Y - 1;
 124              		.loc 1 242 9 is_stmt 1 view .LVU33
 242:User/e-Paper/GUI_Paint.c ****         Y = Paint.HeightMemory - Y - 1;
 125              		.loc 1 242 18 is_stmt 0 view .LVU34
 126 0052 2B89     		ldrh	r3, [r5, #8]
 242:User/e-Paper/GUI_Paint.c ****         Y = Paint.HeightMemory - Y - 1;
 127              		.loc 1 242 11 view .LVU35
 128 0054 5C1E     		subs	r4, r3, #1
 129 0056 201A     		subs	r0, r4, r0
 130              	.LVL8:
 243:User/e-Paper/GUI_Paint.c ****         break;
 131              		.loc 1 243 11 view .LVU36
 132 0058 6C89     		ldrh	r4, [r5, #10]
 242:User/e-Paper/GUI_Paint.c ****         Y = Paint.HeightMemory - Y - 1;
 133              		.loc 1 242 11 view .LVU37
 134 005a 80B2     		uxth	r0, r0
 135              	.LVL9:
 243:User/e-Paper/GUI_Paint.c ****         break;
 136              		.loc 1 243 9 is_stmt 1 view .LVU38
 243:User/e-Paper/GUI_Paint.c ****         break;
 137              		.loc 1 243 11 is_stmt 0 view .LVU39
 138 005c 013C     		subs	r4, r4, #1
 139 005e 611A     		subs	r1, r4, r1
 140              	.LVL10:
 243:User/e-Paper/GUI_Paint.c ****         break;
 141              		.loc 1 243 11 view .LVU40
 142 0060 89B2     		uxth	r1, r1
 143              	.LVL11:
 244:User/e-Paper/GUI_Paint.c ****     default:
 144              		.loc 1 244 9 is_stmt 1 view .LVU41
 249:User/e-Paper/GUI_Paint.c ****     {
 145              		.loc 1 249 5 view .LVU42
 249:User/e-Paper/GUI_Paint.c ****     {
 146              		.loc 1 249 8 is_stmt 0 view .LVU43
 147 0062 8342     		cmp	r3, r0
 148 0064 E8D2     		bcs	.L26
 149 0066 F1E7     		b	.L1
 150              	.LVL12:
 151              	.L3:
 209:User/e-Paper/GUI_Paint.c ****     {
 152              		.loc 1 209 5 view .LVU44
 153 0068 8724     		movs	r4, #135
 154 006a 6400     		lsls	r4, r4, #1
 155 006c A342     		cmp	r3, r4
 156 006e EDD1     		bne	.L1
 224:User/e-Paper/GUI_Paint.c ****         Y = Paint.HeightMemory - Xpoint - 1;
 157              		.loc 1 224 9 is_stmt 1 view .LVU45
 158              	.LVL13:
 225:User/e-Paper/GUI_Paint.c ****         break;
ARM GAS  C:\Users\upo\AppData\Local\Temp\ccEC4369.s 			page 9


 159              		.loc 1 225 9 view .LVU46
 225:User/e-Paper/GUI_Paint.c ****         break;
 160              		.loc 1 225 11 is_stmt 0 view .LVU47
 161 0070 6B89     		ldrh	r3, [r5, #10]
 162 0072 013B     		subs	r3, r3, #1
 163 0074 1B1A     		subs	r3, r3, r0
 164              	.LVL14:
 226:User/e-Paper/GUI_Paint.c ****     default:
 165              		.loc 1 226 9 is_stmt 1 view .LVU48
 224:User/e-Paper/GUI_Paint.c ****         Y = Paint.HeightMemory - Xpoint - 1;
 166              		.loc 1 224 11 is_stmt 0 view .LVU49
 167 0076 0800     		movs	r0, r1
 168              	.LVL15:
 225:User/e-Paper/GUI_Paint.c ****         break;
 169              		.loc 1 225 11 view .LVU50
 170 0078 99B2     		uxth	r1, r3
 171              	.LVL16:
 231:User/e-Paper/GUI_Paint.c ****     {
 172              		.loc 1 231 5 is_stmt 1 view .LVU51
 231:User/e-Paper/GUI_Paint.c ****     {
 173              		.loc 1 231 18 is_stmt 0 view .LVU52
 174 007a 2B8A     		ldrh	r3, [r5, #16]
 231:User/e-Paper/GUI_Paint.c ****     {
 175              		.loc 1 231 5 view .LVU53
 176 007c 022B     		cmp	r3, #2
 177 007e D1D1     		bne	.L27
 178              	.L8:
 239:User/e-Paper/GUI_Paint.c ****         break;
 179              		.loc 1 239 9 is_stmt 1 view .LVU54
 239:User/e-Paper/GUI_Paint.c ****         break;
 180              		.loc 1 239 11 is_stmt 0 view .LVU55
 181 0080 6B89     		ldrh	r3, [r5, #10]
 182 0082 013B     		subs	r3, r3, #1
 183 0084 591A     		subs	r1, r3, r1
 184              	.LVL17:
 239:User/e-Paper/GUI_Paint.c ****         break;
 185              		.loc 1 239 11 view .LVU56
 186 0086 89B2     		uxth	r1, r1
 187              	.LVL18:
 188              	.L21:
 240:User/e-Paper/GUI_Paint.c ****     case MIRROR_ORIGIN:
 189              		.loc 1 240 9 is_stmt 1 view .LVU57
 216:User/e-Paper/GUI_Paint.c ****         Y = Xpoint;
 190              		.loc 1 216 18 is_stmt 0 view .LVU58
 191 0088 2B89     		ldrh	r3, [r5, #8]
 249:User/e-Paper/GUI_Paint.c ****     {
 192              		.loc 1 249 5 is_stmt 1 view .LVU59
 249:User/e-Paper/GUI_Paint.c ****     {
 193              		.loc 1 249 8 is_stmt 0 view .LVU60
 194 008a 8342     		cmp	r3, r0
 195 008c D4D2     		bcs	.L26
 249:User/e-Paper/GUI_Paint.c ****     {
 196              		.loc 1 249 8 view .LVU61
 197 008e DDE7     		b	.L1
 198              	.LVL19:
 199              	.L2:
 220:User/e-Paper/GUI_Paint.c ****         Y = Paint.HeightMemory - Ypoint - 1;
ARM GAS  C:\Users\upo\AppData\Local\Temp\ccEC4369.s 			page 10


 200              		.loc 1 220 9 is_stmt 1 view .LVU62
 220:User/e-Paper/GUI_Paint.c ****         Y = Paint.HeightMemory - Ypoint - 1;
 201              		.loc 1 220 11 is_stmt 0 view .LVU63
 202 0090 2B89     		ldrh	r3, [r5, #8]
 203 0092 013B     		subs	r3, r3, #1
 204 0094 181A     		subs	r0, r3, r0
 205              	.LVL20:
 221:User/e-Paper/GUI_Paint.c ****         break;
 206              		.loc 1 221 11 view .LVU64
 207 0096 6B89     		ldrh	r3, [r5, #10]
 220:User/e-Paper/GUI_Paint.c ****         Y = Paint.HeightMemory - Ypoint - 1;
 208              		.loc 1 220 11 view .LVU65
 209 0098 80B2     		uxth	r0, r0
 210              	.LVL21:
 221:User/e-Paper/GUI_Paint.c ****         break;
 211              		.loc 1 221 9 is_stmt 1 view .LVU66
 221:User/e-Paper/GUI_Paint.c ****         break;
 212              		.loc 1 221 11 is_stmt 0 view .LVU67
 213 009a 013B     		subs	r3, r3, #1
 214 009c 591A     		subs	r1, r3, r1
 215              	.LVL22:
 221:User/e-Paper/GUI_Paint.c ****         break;
 216              		.loc 1 221 11 view .LVU68
 217 009e 89B2     		uxth	r1, r1
 218              	.LVL23:
 222:User/e-Paper/GUI_Paint.c ****     case 270:
 219              		.loc 1 222 9 is_stmt 1 view .LVU69
 220 00a0 BDE7     		b	.L4
 221              	.L23:
 222              	.LBB50:
 257:User/e-Paper/GUI_Paint.c ****         UBYTE Rdata = Paint.Image[Addr];
 223              		.loc 1 257 9 view .LVU70
 224              	.LVL24:
 258:User/e-Paper/GUI_Paint.c ****         if (Color == BLACK)
 225              		.loc 1 258 9 view .LVU71
 257:User/e-Paper/GUI_Paint.c ****         UBYTE Rdata = Paint.Image[Addr];
 226              		.loc 1 257 41 is_stmt 0 view .LVU72
 227 00a2 6B8A     		ldrh	r3, [r5, #18]
 257:User/e-Paper/GUI_Paint.c ****         UBYTE Rdata = Paint.Image[Addr];
 228              		.loc 1 257 34 view .LVU73
 229 00a4 4B43     		muls	r3, r1
 257:User/e-Paper/GUI_Paint.c ****         UBYTE Rdata = Paint.Image[Addr];
 230              		.loc 1 257 26 view .LVU74
 231 00a6 C108     		lsrs	r1, r0, #3
 232              	.LVL25:
 257:User/e-Paper/GUI_Paint.c ****         UBYTE Rdata = Paint.Image[Addr];
 233              		.loc 1 257 26 view .LVU75
 234 00a8 89B2     		uxth	r1, r1
 257:User/e-Paper/GUI_Paint.c ****         UBYTE Rdata = Paint.Image[Addr];
 235              		.loc 1 257 30 view .LVU76
 236 00aa 5B18     		adds	r3, r3, r1
 258:User/e-Paper/GUI_Paint.c ****         if (Color == BLACK)
 237              		.loc 1 258 34 view .LVU77
 238 00ac 2968     		ldr	r1, [r5]
 239 00ae CC18     		adds	r4, r1, r3
 258:User/e-Paper/GUI_Paint.c ****         if (Color == BLACK)
 240              		.loc 1 258 15 view .LVU78
ARM GAS  C:\Users\upo\AppData\Local\Temp\ccEC4369.s 			page 11


 241 00b0 CB5C     		ldrb	r3, [r1, r3]
 242              	.LVL26:
 259:User/e-Paper/GUI_Paint.c ****             Paint.Image[Addr] = Rdata & ~(0x80 >> (X % 8));
 243              		.loc 1 259 9 is_stmt 1 view .LVU79
 260:User/e-Paper/GUI_Paint.c ****         else
 244              		.loc 1 260 54 is_stmt 0 view .LVU80
 245 00b2 0721     		movs	r1, #7
 246 00b4 0840     		ands	r0, r1
 247              	.LVL27:
 260:User/e-Paper/GUI_Paint.c ****         else
 248              		.loc 1 260 48 view .LVU81
 249 00b6 7931     		adds	r1, r1, #121
 250 00b8 0141     		asrs	r1, r1, r0
 259:User/e-Paper/GUI_Paint.c ****             Paint.Image[Addr] = Rdata & ~(0x80 >> (X % 8));
 251              		.loc 1 259 12 view .LVU82
 252 00ba 002A     		cmp	r2, #0
 253 00bc 15D1     		bne	.L15
 260:User/e-Paper/GUI_Paint.c ****         else
 254              		.loc 1 260 13 is_stmt 1 view .LVU83
 260:User/e-Paper/GUI_Paint.c ****         else
 255              		.loc 1 260 39 is_stmt 0 view .LVU84
 256 00be 8B43     		bics	r3, r1
 257              	.LVL28:
 260:User/e-Paper/GUI_Paint.c ****         else
 258              		.loc 1 260 31 view .LVU85
 259 00c0 2370     		strb	r3, [r4]
 260              	.LVL29:
 260:User/e-Paper/GUI_Paint.c ****         else
 261              		.loc 1 260 31 view .LVU86
 262 00c2 C3E7     		b	.L1
 263              	.LVL30:
 264              	.L24:
 260:User/e-Paper/GUI_Paint.c ****         else
 265              		.loc 1 260 31 view .LVU87
 266              	.LBE50:
 267              	.LBB51:
 266:User/e-Paper/GUI_Paint.c ****         Color = Color % 4; // Guaranteed color scale is 4  --- 0~3
 268              		.loc 1 266 9 is_stmt 1 view .LVU88
 267:User/e-Paper/GUI_Paint.c ****         UBYTE Rdata = Paint.Image[Addr];
 269              		.loc 1 267 9 view .LVU89
 268:User/e-Paper/GUI_Paint.c **** 
 270              		.loc 1 268 9 view .LVU90
 266:User/e-Paper/GUI_Paint.c ****         Color = Color % 4; // Guaranteed color scale is 4  --- 0~3
 271              		.loc 1 266 41 is_stmt 0 view .LVU91
 272 00c4 6B8A     		ldrh	r3, [r5, #18]
 270:User/e-Paper/GUI_Paint.c ****         Paint.Image[Addr] = Rdata | ((Color << 6) >> ((X % 4) * 2));
 273              		.loc 1 270 33 view .LVU92
 274 00c6 C026     		movs	r6, #192
 266:User/e-Paper/GUI_Paint.c ****         Color = Color % 4; // Guaranteed color scale is 4  --- 0~3
 275              		.loc 1 266 34 view .LVU93
 276 00c8 5943     		muls	r1, r3
 277              	.LVL31:
 266:User/e-Paper/GUI_Paint.c ****         Color = Color % 4; // Guaranteed color scale is 4  --- 0~3
 278              		.loc 1 266 26 view .LVU94
 279 00ca 8308     		lsrs	r3, r0, #2
 280 00cc 9BB2     		uxth	r3, r3
 266:User/e-Paper/GUI_Paint.c ****         Color = Color % 4; // Guaranteed color scale is 4  --- 0~3
ARM GAS  C:\Users\upo\AppData\Local\Temp\ccEC4369.s 			page 12


 281              		.loc 1 266 30 view .LVU95
 282 00ce C918     		adds	r1, r1, r3
 270:User/e-Paper/GUI_Paint.c ****         Paint.Image[Addr] = Rdata | ((Color << 6) >> ((X % 4) * 2));
 283              		.loc 1 270 40 view .LVU96
 284 00d0 0323     		movs	r3, #3
 285 00d2 1840     		ands	r0, r3
 286              	.LVL32:
 270:User/e-Paper/GUI_Paint.c ****         Paint.Image[Addr] = Rdata | ((Color << 6) >> ((X % 4) * 2));
 287              		.loc 1 270 45 view .LVU97
 288 00d4 4000     		lsls	r0, r0, #1
 271:User/e-Paper/GUI_Paint.c ****     }
 289              		.loc 1 271 45 view .LVU98
 290 00d6 1340     		ands	r3, r2
 270:User/e-Paper/GUI_Paint.c ****         Paint.Image[Addr] = Rdata | ((Color << 6) >> ((X % 4) * 2));
 291              		.loc 1 270 33 view .LVU99
 292 00d8 0641     		asrs	r6, r6, r0
 271:User/e-Paper/GUI_Paint.c ****     }
 293              		.loc 1 271 45 view .LVU100
 294 00da 9B01     		lsls	r3, r3, #6
 271:User/e-Paper/GUI_Paint.c ****     }
 295              		.loc 1 271 51 view .LVU101
 296 00dc 0341     		asrs	r3, r3, r0
 268:User/e-Paper/GUI_Paint.c **** 
 297              		.loc 1 268 34 view .LVU102
 298 00de 2D68     		ldr	r5, [r5]
 299              	.LVL33:
 270:User/e-Paper/GUI_Paint.c ****         Paint.Image[Addr] = Rdata | ((Color << 6) >> ((X % 4) * 2));
 300              		.loc 1 270 9 is_stmt 1 view .LVU103
 271:User/e-Paper/GUI_Paint.c ****     }
 301              		.loc 1 271 9 view .LVU104
 270:User/e-Paper/GUI_Paint.c ****         Paint.Image[Addr] = Rdata | ((Color << 6) >> ((X % 4) * 2));
 302              		.loc 1 270 23 is_stmt 0 view .LVU105
 303 00e0 6C5C     		ldrb	r4, [r5, r1]
 304 00e2 B443     		bics	r4, r6
 271:User/e-Paper/GUI_Paint.c ****     }
 305              		.loc 1 271 35 view .LVU106
 306 00e4 2343     		orrs	r3, r4
 271:User/e-Paper/GUI_Paint.c ****     }
 307              		.loc 1 271 27 view .LVU107
 308 00e6 6B54     		strb	r3, [r5, r1]
 309              	.LVL34:
 271:User/e-Paper/GUI_Paint.c ****     }
 310              		.loc 1 271 27 view .LVU108
 311              	.LBE51:
 312 00e8 B0E7     		b	.L1
 313              	.LVL35:
 314              	.L15:
 315              	.LBB52:
 262:User/e-Paper/GUI_Paint.c ****     }
 316              		.loc 1 262 13 is_stmt 1 view .LVU109
 262:User/e-Paper/GUI_Paint.c ****     }
 317              		.loc 1 262 39 is_stmt 0 view .LVU110
 318 00ea 0B43     		orrs	r3, r1
 319              	.LVL36:
 262:User/e-Paper/GUI_Paint.c ****     }
 320              		.loc 1 262 31 view .LVU111
 321 00ec 2370     		strb	r3, [r4]
ARM GAS  C:\Users\upo\AppData\Local\Temp\ccEC4369.s 			page 13


 322              	.LVL37:
 262:User/e-Paper/GUI_Paint.c ****     }
 323              		.loc 1 262 31 view .LVU112
 324 00ee ADE7     		b	.L1
 325              	.LVL38:
 326              	.L25:
 262:User/e-Paper/GUI_Paint.c ****     }
 327              		.loc 1 262 31 view .LVU113
 328              	.LBE52:
 329              	.LBB53:
 275:User/e-Paper/GUI_Paint.c ****         UBYTE Rdata = Paint.Image[Addr];
 330              		.loc 1 275 9 is_stmt 1 view .LVU114
 276:User/e-Paper/GUI_Paint.c ****         Rdata = Rdata & (~(0xF0 >> ((X % 2) * 4))); // Clear first, then set value
 331              		.loc 1 276 9 view .LVU115
 275:User/e-Paper/GUI_Paint.c ****         UBYTE Rdata = Paint.Image[Addr];
 332              		.loc 1 275 41 is_stmt 0 view .LVU116
 333 00f0 6B8A     		ldrh	r3, [r5, #18]
 277:User/e-Paper/GUI_Paint.c ****         Paint.Image[Addr] = Rdata | ((Color << 4) >> ((X % 2) * 4));
 334              		.loc 1 277 33 view .LVU117
 335 00f2 F024     		movs	r4, #240
 275:User/e-Paper/GUI_Paint.c ****         UBYTE Rdata = Paint.Image[Addr];
 336              		.loc 1 275 34 view .LVU118
 337 00f4 5943     		muls	r1, r3
 338              	.LVL39:
 275:User/e-Paper/GUI_Paint.c ****         UBYTE Rdata = Paint.Image[Addr];
 339              		.loc 1 275 26 view .LVU119
 340 00f6 4308     		lsrs	r3, r0, #1
 341 00f8 9BB2     		uxth	r3, r3
 275:User/e-Paper/GUI_Paint.c ****         UBYTE Rdata = Paint.Image[Addr];
 342              		.loc 1 275 30 view .LVU120
 343 00fa C918     		adds	r1, r1, r3
 277:User/e-Paper/GUI_Paint.c ****         Paint.Image[Addr] = Rdata | ((Color << 4) >> ((X % 2) * 4));
 344              		.loc 1 277 40 view .LVU121
 345 00fc 0123     		movs	r3, #1
 346 00fe 0340     		ands	r3, r0
 277:User/e-Paper/GUI_Paint.c ****         Paint.Image[Addr] = Rdata | ((Color << 4) >> ((X % 2) * 4));
 347              		.loc 1 277 45 view .LVU122
 348 0100 9B00     		lsls	r3, r3, #2
 277:User/e-Paper/GUI_Paint.c ****         Paint.Image[Addr] = Rdata | ((Color << 4) >> ((X % 2) * 4));
 349              		.loc 1 277 33 view .LVU123
 350 0102 1C41     		asrs	r4, r4, r3
 278:User/e-Paper/GUI_Paint.c ****         // printf("Add =  %d ,data = %d\r\n",Addr,Rdata);
 351              		.loc 1 278 45 view .LVU124
 352 0104 1201     		lsls	r2, r2, #4
 353              	.LVL40:
 278:User/e-Paper/GUI_Paint.c ****         // printf("Add =  %d ,data = %d\r\n",Addr,Rdata);
 354              		.loc 1 278 51 view .LVU125
 355 0106 1A41     		asrs	r2, r2, r3
 276:User/e-Paper/GUI_Paint.c ****         Rdata = Rdata & (~(0xF0 >> ((X % 2) * 4))); // Clear first, then set value
 356              		.loc 1 276 34 view .LVU126
 357 0108 2D68     		ldr	r5, [r5]
 358              	.LVL41:
 277:User/e-Paper/GUI_Paint.c ****         Paint.Image[Addr] = Rdata | ((Color << 4) >> ((X % 2) * 4));
 359              		.loc 1 277 9 is_stmt 1 view .LVU127
 278:User/e-Paper/GUI_Paint.c ****         // printf("Add =  %d ,data = %d\r\n",Addr,Rdata);
 360              		.loc 1 278 9 view .LVU128
 277:User/e-Paper/GUI_Paint.c ****         Paint.Image[Addr] = Rdata | ((Color << 4) >> ((X % 2) * 4));
ARM GAS  C:\Users\upo\AppData\Local\Temp\ccEC4369.s 			page 14


 361              		.loc 1 277 23 is_stmt 0 view .LVU129
 362 010a 685C     		ldrb	r0, [r5, r1]
 363              	.LVL42:
 277:User/e-Paper/GUI_Paint.c ****         Paint.Image[Addr] = Rdata | ((Color << 4) >> ((X % 2) * 4));
 364              		.loc 1 277 23 view .LVU130
 365 010c A043     		bics	r0, r4
 278:User/e-Paper/GUI_Paint.c ****         // printf("Add =  %d ,data = %d\r\n",Addr,Rdata);
 366              		.loc 1 278 35 view .LVU131
 367 010e 0243     		orrs	r2, r0
 278:User/e-Paper/GUI_Paint.c ****         // printf("Add =  %d ,data = %d\r\n",Addr,Rdata);
 368              		.loc 1 278 27 view .LVU132
 369 0110 6A54     		strb	r2, [r5, r1]
 370              	.LVL43:
 278:User/e-Paper/GUI_Paint.c ****         // printf("Add =  %d ,data = %d\r\n",Addr,Rdata);
 371              		.loc 1 278 27 view .LVU133
 372 0112 9BE7     		b	.L1
 373              	.L29:
 374              		.align	2
 375              	.L28:
 376 0114 00000000 		.word	Paint
 377              	.LBE53:
 378              		.cfi_endproc
 379              	.LFE1444:
 381              		.section	.text.Paint_DrawChar.part.0.isra.0,"ax",%progbits
 382              		.align	1
 383              		.p2align 2,,3
 384              		.syntax unified
 385              		.code	16
 386              		.thumb_func
 388              	Paint_DrawChar.part.0.isra.0:
 389              	.LVL44:
 390              	.LFB1450:
 282:User/e-Paper/GUI_Paint.c **** 
 283:User/e-Paper/GUI_Paint.c **** /******************************************************************************
 284:User/e-Paper/GUI_Paint.c **** function: Clear the color of the picture
 285:User/e-Paper/GUI_Paint.c **** parameter:
 286:User/e-Paper/GUI_Paint.c ****     Color : Painted colors
 287:User/e-Paper/GUI_Paint.c **** ******************************************************************************/
 288:User/e-Paper/GUI_Paint.c **** void Paint_Clear(UWORD Color)
 289:User/e-Paper/GUI_Paint.c **** {
 290:User/e-Paper/GUI_Paint.c ****     if (Paint.Scale == 2 || Paint.Scale == 4)
 291:User/e-Paper/GUI_Paint.c ****     {
 292:User/e-Paper/GUI_Paint.c ****         for (UWORD Y = 0; Y < Paint.HeightByte; Y++)
 293:User/e-Paper/GUI_Paint.c ****         {
 294:User/e-Paper/GUI_Paint.c ****             for (UWORD X = 0; X < Paint.WidthByte; X++)
 295:User/e-Paper/GUI_Paint.c ****             { // 8 pixel =  1 byte
 296:User/e-Paper/GUI_Paint.c ****                 UDOUBLE Addr = X + Y * Paint.WidthByte;
 297:User/e-Paper/GUI_Paint.c ****                 Paint.Image[Addr] = Color;
 298:User/e-Paper/GUI_Paint.c ****             }
 299:User/e-Paper/GUI_Paint.c ****         }
 300:User/e-Paper/GUI_Paint.c ****     }
 301:User/e-Paper/GUI_Paint.c ****     else if (Paint.Scale == 7)
 302:User/e-Paper/GUI_Paint.c ****     {
 303:User/e-Paper/GUI_Paint.c ****         for (UWORD Y = 0; Y < Paint.HeightByte; Y++)
 304:User/e-Paper/GUI_Paint.c ****         {
 305:User/e-Paper/GUI_Paint.c ****             for (UWORD X = 0; X < Paint.WidthByte; X++)
 306:User/e-Paper/GUI_Paint.c ****             {
ARM GAS  C:\Users\upo\AppData\Local\Temp\ccEC4369.s 			page 15


 307:User/e-Paper/GUI_Paint.c ****                 UDOUBLE Addr = X + Y * Paint.WidthByte;
 308:User/e-Paper/GUI_Paint.c ****                 Paint.Image[Addr] = (Color << 4) | Color;
 309:User/e-Paper/GUI_Paint.c ****             }
 310:User/e-Paper/GUI_Paint.c ****         }
 311:User/e-Paper/GUI_Paint.c ****     }
 312:User/e-Paper/GUI_Paint.c **** }
 313:User/e-Paper/GUI_Paint.c **** 
 314:User/e-Paper/GUI_Paint.c **** /******************************************************************************
 315:User/e-Paper/GUI_Paint.c **** function: Clear the color of a window
 316:User/e-Paper/GUI_Paint.c **** parameter:
 317:User/e-Paper/GUI_Paint.c ****     Xstart : x starting point
 318:User/e-Paper/GUI_Paint.c ****     Ystart : Y starting point
 319:User/e-Paper/GUI_Paint.c ****     Xend   : x end point
 320:User/e-Paper/GUI_Paint.c ****     Yend   : y end point
 321:User/e-Paper/GUI_Paint.c ****     Color  : Painted colors
 322:User/e-Paper/GUI_Paint.c **** ******************************************************************************/
 323:User/e-Paper/GUI_Paint.c **** void Paint_ClearWindows(UWORD Xstart, UWORD Ystart, UWORD Xend, UWORD Yend, UWORD Color)
 324:User/e-Paper/GUI_Paint.c **** {
 325:User/e-Paper/GUI_Paint.c ****     UWORD X, Y;
 326:User/e-Paper/GUI_Paint.c ****     for (Y = Ystart; Y < Yend; Y++)
 327:User/e-Paper/GUI_Paint.c ****     {
 328:User/e-Paper/GUI_Paint.c ****         for (X = Xstart; X < Xend; X++)
 329:User/e-Paper/GUI_Paint.c ****         { // 8 pixel =  1 byte
 330:User/e-Paper/GUI_Paint.c ****             Paint_SetPixel(X, Y, Color);
 331:User/e-Paper/GUI_Paint.c ****         }
 332:User/e-Paper/GUI_Paint.c ****     }
 333:User/e-Paper/GUI_Paint.c **** }
 334:User/e-Paper/GUI_Paint.c **** 
 335:User/e-Paper/GUI_Paint.c **** /******************************************************************************
 336:User/e-Paper/GUI_Paint.c **** function: Draw Point(Xpoint, Ypoint) Fill the color
 337:User/e-Paper/GUI_Paint.c **** parameter:
 338:User/e-Paper/GUI_Paint.c ****     Xpoint		: The Xpoint coordinate of the point
 339:User/e-Paper/GUI_Paint.c ****     Ypoint		: The Ypoint coordinate of the point
 340:User/e-Paper/GUI_Paint.c ****     Color		: Painted color
 341:User/e-Paper/GUI_Paint.c ****     Dot_Pixel	: point size
 342:User/e-Paper/GUI_Paint.c ****     Dot_Style	: point Style
 343:User/e-Paper/GUI_Paint.c **** ******************************************************************************/
 344:User/e-Paper/GUI_Paint.c **** void Paint_DrawPoint(UWORD Xpoint, UWORD Ypoint, UWORD Color,
 345:User/e-Paper/GUI_Paint.c ****                      DOT_PIXEL Dot_Pixel, DOT_STYLE Dot_Style)
 346:User/e-Paper/GUI_Paint.c **** {
 347:User/e-Paper/GUI_Paint.c ****     if (Xpoint > Paint.Width || Ypoint > Paint.Height)
 348:User/e-Paper/GUI_Paint.c ****     {
 349:User/e-Paper/GUI_Paint.c ****         DE_BUG("Paint_DrawPoint Input exceeds the normal display range\r\n");
 350:User/e-Paper/GUI_Paint.c ****         printf("Xpoint = %d , Paint.Width = %d  \r\n ", Xpoint, Paint.Width);
 351:User/e-Paper/GUI_Paint.c ****         printf("Ypoint = %d , Paint.Height = %d  \r\n ", Ypoint, Paint.Height);
 352:User/e-Paper/GUI_Paint.c ****         return;
 353:User/e-Paper/GUI_Paint.c ****     }
 354:User/e-Paper/GUI_Paint.c **** 
 355:User/e-Paper/GUI_Paint.c ****     int16_t XDir_Num, YDir_Num;
 356:User/e-Paper/GUI_Paint.c ****     if (Dot_Style == DOT_FILL_AROUND)
 357:User/e-Paper/GUI_Paint.c ****     {
 358:User/e-Paper/GUI_Paint.c ****         for (XDir_Num = 0; XDir_Num < 2 * Dot_Pixel - 1; XDir_Num++)
 359:User/e-Paper/GUI_Paint.c ****         {
 360:User/e-Paper/GUI_Paint.c ****             for (YDir_Num = 0; YDir_Num < 2 * Dot_Pixel - 1; YDir_Num++)
 361:User/e-Paper/GUI_Paint.c ****             {
 362:User/e-Paper/GUI_Paint.c ****                 if (Xpoint + XDir_Num - Dot_Pixel < 0 || Ypoint + YDir_Num - Dot_Pixel < 0)
 363:User/e-Paper/GUI_Paint.c ****                     break;
ARM GAS  C:\Users\upo\AppData\Local\Temp\ccEC4369.s 			page 16


 364:User/e-Paper/GUI_Paint.c ****                 // printf("x = %d, y = %d\r\n", Xpoint + XDir_Num - Dot_Pixel, Ypoint + YDir_Num - 
 365:User/e-Paper/GUI_Paint.c ****                 Paint_SetPixel(Xpoint + XDir_Num - Dot_Pixel, Ypoint + YDir_Num - Dot_Pixel, Color)
 366:User/e-Paper/GUI_Paint.c ****             }
 367:User/e-Paper/GUI_Paint.c ****         }
 368:User/e-Paper/GUI_Paint.c ****     }
 369:User/e-Paper/GUI_Paint.c ****     else
 370:User/e-Paper/GUI_Paint.c ****     {
 371:User/e-Paper/GUI_Paint.c ****         for (XDir_Num = 0; XDir_Num < Dot_Pixel; XDir_Num++)
 372:User/e-Paper/GUI_Paint.c ****         {
 373:User/e-Paper/GUI_Paint.c ****             for (YDir_Num = 0; YDir_Num < Dot_Pixel; YDir_Num++)
 374:User/e-Paper/GUI_Paint.c ****             {
 375:User/e-Paper/GUI_Paint.c ****                 Paint_SetPixel(Xpoint + XDir_Num - 1, Ypoint + YDir_Num - 1, Color);
 376:User/e-Paper/GUI_Paint.c ****             }
 377:User/e-Paper/GUI_Paint.c ****         }
 378:User/e-Paper/GUI_Paint.c ****     }
 379:User/e-Paper/GUI_Paint.c **** }
 380:User/e-Paper/GUI_Paint.c **** 
 381:User/e-Paper/GUI_Paint.c **** /******************************************************************************
 382:User/e-Paper/GUI_Paint.c **** function: Draw a line of arbitrary slope
 383:User/e-Paper/GUI_Paint.c **** parameter:
 384:User/e-Paper/GUI_Paint.c ****     Xstart ：Starting Xpoint point coordinates
 385:User/e-Paper/GUI_Paint.c ****     Ystart ：Starting Xpoint point coordinates
 386:User/e-Paper/GUI_Paint.c ****     Xend   ：End point Xpoint coordinate
 387:User/e-Paper/GUI_Paint.c ****     Yend   ：End point Ypoint coordinate
 388:User/e-Paper/GUI_Paint.c ****     Color  ：The color of the line segment
 389:User/e-Paper/GUI_Paint.c ****     Line_width : Line width
 390:User/e-Paper/GUI_Paint.c ****     Line_Style: Solid and dotted lines
 391:User/e-Paper/GUI_Paint.c **** ******************************************************************************/
 392:User/e-Paper/GUI_Paint.c **** void Paint_DrawLine(UWORD Xstart, UWORD Ystart, UWORD Xend, UWORD Yend,
 393:User/e-Paper/GUI_Paint.c ****                     UWORD Color, DOT_PIXEL Line_width, LINE_STYLE Line_Style)
 394:User/e-Paper/GUI_Paint.c **** {
 395:User/e-Paper/GUI_Paint.c ****     if (Xstart > Paint.Width || Ystart > Paint.Height ||
 396:User/e-Paper/GUI_Paint.c ****         Xend > Paint.Width || Yend > Paint.Height)
 397:User/e-Paper/GUI_Paint.c ****     {
 398:User/e-Paper/GUI_Paint.c ****         DE_BUG("Paint_DrawLine Input exceeds the normal display range\r\n");
 399:User/e-Paper/GUI_Paint.c ****         return;
 400:User/e-Paper/GUI_Paint.c ****     }
 401:User/e-Paper/GUI_Paint.c **** 
 402:User/e-Paper/GUI_Paint.c ****     UWORD Xpoint = Xstart;
 403:User/e-Paper/GUI_Paint.c ****     UWORD Ypoint = Ystart;
 404:User/e-Paper/GUI_Paint.c ****     int dx = (int)Xend - (int)Xstart >= 0 ? Xend - Xstart : Xstart - Xend;
 405:User/e-Paper/GUI_Paint.c ****     int dy = (int)Yend - (int)Ystart <= 0 ? Yend - Ystart : Ystart - Yend;
 406:User/e-Paper/GUI_Paint.c **** 
 407:User/e-Paper/GUI_Paint.c ****     // Increment direction, 1 is positive, -1 is counter;
 408:User/e-Paper/GUI_Paint.c ****     int XAddway = Xstart < Xend ? 1 : -1;
 409:User/e-Paper/GUI_Paint.c ****     int YAddway = Ystart < Yend ? 1 : -1;
 410:User/e-Paper/GUI_Paint.c **** 
 411:User/e-Paper/GUI_Paint.c ****     // Cumulative error
 412:User/e-Paper/GUI_Paint.c ****     int Esp = dx + dy;
 413:User/e-Paper/GUI_Paint.c ****     char Dotted_Len = 0;
 414:User/e-Paper/GUI_Paint.c **** 
 415:User/e-Paper/GUI_Paint.c ****     for (;;)
 416:User/e-Paper/GUI_Paint.c ****     {
 417:User/e-Paper/GUI_Paint.c ****         Dotted_Len++;
 418:User/e-Paper/GUI_Paint.c ****         // Painted dotted line, 2 point is really virtual
 419:User/e-Paper/GUI_Paint.c ****         if (Line_Style == LINE_STYLE_DOTTED && Dotted_Len % 3 == 0)
 420:User/e-Paper/GUI_Paint.c ****         {
ARM GAS  C:\Users\upo\AppData\Local\Temp\ccEC4369.s 			page 17


 421:User/e-Paper/GUI_Paint.c ****             // DE_BUG("LINE_DOTTED\r\n");
 422:User/e-Paper/GUI_Paint.c ****             Paint_DrawPoint(Xpoint, Ypoint, IMAGE_BACKGROUND, Line_width, DOT_STYLE_DFT);
 423:User/e-Paper/GUI_Paint.c ****             Dotted_Len = 0;
 424:User/e-Paper/GUI_Paint.c ****         }
 425:User/e-Paper/GUI_Paint.c ****         else
 426:User/e-Paper/GUI_Paint.c ****         {
 427:User/e-Paper/GUI_Paint.c ****             Paint_DrawPoint(Xpoint, Ypoint, Color, Line_width, DOT_STYLE_DFT);
 428:User/e-Paper/GUI_Paint.c ****         }
 429:User/e-Paper/GUI_Paint.c ****         if (2 * Esp >= dy)
 430:User/e-Paper/GUI_Paint.c ****         {
 431:User/e-Paper/GUI_Paint.c ****             if (Xpoint == Xend)
 432:User/e-Paper/GUI_Paint.c ****                 break;
 433:User/e-Paper/GUI_Paint.c ****             Esp += dy;
 434:User/e-Paper/GUI_Paint.c ****             Xpoint += XAddway;
 435:User/e-Paper/GUI_Paint.c ****         }
 436:User/e-Paper/GUI_Paint.c ****         if (2 * Esp <= dx)
 437:User/e-Paper/GUI_Paint.c ****         {
 438:User/e-Paper/GUI_Paint.c ****             if (Ypoint == Yend)
 439:User/e-Paper/GUI_Paint.c ****                 break;
 440:User/e-Paper/GUI_Paint.c ****             Esp += dx;
 441:User/e-Paper/GUI_Paint.c ****             Ypoint += YAddway;
 442:User/e-Paper/GUI_Paint.c ****         }
 443:User/e-Paper/GUI_Paint.c ****     }
 444:User/e-Paper/GUI_Paint.c **** }
 445:User/e-Paper/GUI_Paint.c **** 
 446:User/e-Paper/GUI_Paint.c **** /******************************************************************************
 447:User/e-Paper/GUI_Paint.c **** function: Draw a rectangle
 448:User/e-Paper/GUI_Paint.c **** parameter:
 449:User/e-Paper/GUI_Paint.c ****     Xstart ：Rectangular  Starting Xpoint point coordinates
 450:User/e-Paper/GUI_Paint.c ****     Ystart ：Rectangular  Starting Xpoint point coordinates
 451:User/e-Paper/GUI_Paint.c ****     Xend   ：Rectangular  End point Xpoint coordinate
 452:User/e-Paper/GUI_Paint.c ****     Yend   ：Rectangular  End point Ypoint coordinate
 453:User/e-Paper/GUI_Paint.c ****     Color  ：The color of the Rectangular segment
 454:User/e-Paper/GUI_Paint.c ****     Line_width: Line width
 455:User/e-Paper/GUI_Paint.c ****     Draw_Fill : Whether to fill the inside of the rectangle
 456:User/e-Paper/GUI_Paint.c **** ******************************************************************************/
 457:User/e-Paper/GUI_Paint.c **** void Paint_DrawRectangle(UWORD Xstart, UWORD Ystart, UWORD Xend, UWORD Yend,
 458:User/e-Paper/GUI_Paint.c ****                          UWORD Color, DOT_PIXEL Line_width, DRAW_FILL Draw_Fill)
 459:User/e-Paper/GUI_Paint.c **** {
 460:User/e-Paper/GUI_Paint.c ****     if (Xstart > Paint.Width || Ystart > Paint.Height ||
 461:User/e-Paper/GUI_Paint.c ****         Xend > Paint.Width || Yend > Paint.Height)
 462:User/e-Paper/GUI_Paint.c ****     {
 463:User/e-Paper/GUI_Paint.c ****         DE_BUG("Input exceeds the normal display range\r\n");
 464:User/e-Paper/GUI_Paint.c ****         return;
 465:User/e-Paper/GUI_Paint.c ****     }
 466:User/e-Paper/GUI_Paint.c **** 
 467:User/e-Paper/GUI_Paint.c ****     if (Draw_Fill)
 468:User/e-Paper/GUI_Paint.c ****     {
 469:User/e-Paper/GUI_Paint.c ****         UWORD Ypoint;
 470:User/e-Paper/GUI_Paint.c ****         for (Ypoint = Ystart; Ypoint < Yend; Ypoint++)
 471:User/e-Paper/GUI_Paint.c ****         {
 472:User/e-Paper/GUI_Paint.c ****             Paint_DrawLine(Xstart, Ypoint, Xend, Ypoint, Color, Line_width, LINE_STYLE_SOLID);
 473:User/e-Paper/GUI_Paint.c ****         }
 474:User/e-Paper/GUI_Paint.c ****     }
 475:User/e-Paper/GUI_Paint.c ****     else
 476:User/e-Paper/GUI_Paint.c ****     {
 477:User/e-Paper/GUI_Paint.c ****         Paint_DrawLine(Xstart, Ystart, Xend, Ystart, Color, Line_width, LINE_STYLE_SOLID);
ARM GAS  C:\Users\upo\AppData\Local\Temp\ccEC4369.s 			page 18


 478:User/e-Paper/GUI_Paint.c ****         Paint_DrawLine(Xstart, Ystart, Xstart, Yend, Color, Line_width, LINE_STYLE_SOLID);
 479:User/e-Paper/GUI_Paint.c ****         Paint_DrawLine(Xend, Yend, Xend, Ystart, Color, Line_width, LINE_STYLE_SOLID);
 480:User/e-Paper/GUI_Paint.c ****         Paint_DrawLine(Xend, Yend, Xstart, Yend, Color, Line_width, LINE_STYLE_SOLID);
 481:User/e-Paper/GUI_Paint.c ****     }
 482:User/e-Paper/GUI_Paint.c **** }
 483:User/e-Paper/GUI_Paint.c **** 
 484:User/e-Paper/GUI_Paint.c **** /******************************************************************************
 485:User/e-Paper/GUI_Paint.c **** function: Use the 8-point method to draw a circle of the
 486:User/e-Paper/GUI_Paint.c ****             specified size at the specified position->
 487:User/e-Paper/GUI_Paint.c **** parameter:
 488:User/e-Paper/GUI_Paint.c ****     X_Center  ：Center X coordinate
 489:User/e-Paper/GUI_Paint.c ****     Y_Center  ：Center Y coordinate
 490:User/e-Paper/GUI_Paint.c ****     Radius    ：circle Radius
 491:User/e-Paper/GUI_Paint.c ****     Color     ：The color of the ：circle segment
 492:User/e-Paper/GUI_Paint.c ****     Line_width: Line width
 493:User/e-Paper/GUI_Paint.c ****     Draw_Fill : Whether to fill the inside of the Circle
 494:User/e-Paper/GUI_Paint.c **** ******************************************************************************/
 495:User/e-Paper/GUI_Paint.c **** void Paint_DrawCircle(UWORD X_Center, UWORD Y_Center, UWORD Radius,
 496:User/e-Paper/GUI_Paint.c ****                       UWORD Color, DOT_PIXEL Line_width, DRAW_FILL Draw_Fill)
 497:User/e-Paper/GUI_Paint.c **** {
 498:User/e-Paper/GUI_Paint.c ****     if (X_Center > Paint.Width || Y_Center >= Paint.Height)
 499:User/e-Paper/GUI_Paint.c ****     {
 500:User/e-Paper/GUI_Paint.c ****         DE_BUG("Paint_DrawCircle Input exceeds the normal display range\r\n");
 501:User/e-Paper/GUI_Paint.c ****         return;
 502:User/e-Paper/GUI_Paint.c ****     }
 503:User/e-Paper/GUI_Paint.c **** 
 504:User/e-Paper/GUI_Paint.c ****     // Draw a circle from(0, R) as a starting point
 505:User/e-Paper/GUI_Paint.c ****     int16_t XCurrent, YCurrent;
 506:User/e-Paper/GUI_Paint.c ****     XCurrent = 0;
 507:User/e-Paper/GUI_Paint.c ****     YCurrent = Radius;
 508:User/e-Paper/GUI_Paint.c **** 
 509:User/e-Paper/GUI_Paint.c ****     // Cumulative error,judge the next point of the logo
 510:User/e-Paper/GUI_Paint.c ****     int16_t Esp = 3 - (Radius << 1);
 511:User/e-Paper/GUI_Paint.c **** 
 512:User/e-Paper/GUI_Paint.c ****     int16_t sCountY;
 513:User/e-Paper/GUI_Paint.c ****     if (Draw_Fill == DRAW_FILL_FULL)
 514:User/e-Paper/GUI_Paint.c ****     {
 515:User/e-Paper/GUI_Paint.c ****         while (XCurrent <= YCurrent)
 516:User/e-Paper/GUI_Paint.c ****         { // Realistic circles
 517:User/e-Paper/GUI_Paint.c ****             for (sCountY = XCurrent; sCountY <= YCurrent; sCountY++)
 518:User/e-Paper/GUI_Paint.c ****             {
 519:User/e-Paper/GUI_Paint.c ****                 Paint_DrawPoint(X_Center + XCurrent, Y_Center + sCountY, Color, DOT_PIXEL_DFT, DOT_
 520:User/e-Paper/GUI_Paint.c ****                 Paint_DrawPoint(X_Center - XCurrent, Y_Center + sCountY, Color, DOT_PIXEL_DFT, DOT_
 521:User/e-Paper/GUI_Paint.c ****                 Paint_DrawPoint(X_Center - sCountY, Y_Center + XCurrent, Color, DOT_PIXEL_DFT, DOT_
 522:User/e-Paper/GUI_Paint.c ****                 Paint_DrawPoint(X_Center - sCountY, Y_Center - XCurrent, Color, DOT_PIXEL_DFT, DOT_
 523:User/e-Paper/GUI_Paint.c ****                 Paint_DrawPoint(X_Center - XCurrent, Y_Center - sCountY, Color, DOT_PIXEL_DFT, DOT_
 524:User/e-Paper/GUI_Paint.c ****                 Paint_DrawPoint(X_Center + XCurrent, Y_Center - sCountY, Color, DOT_PIXEL_DFT, DOT_
 525:User/e-Paper/GUI_Paint.c ****                 Paint_DrawPoint(X_Center + sCountY, Y_Center - XCurrent, Color, DOT_PIXEL_DFT, DOT_
 526:User/e-Paper/GUI_Paint.c ****                 Paint_DrawPoint(X_Center + sCountY, Y_Center + XCurrent, Color, DOT_PIXEL_DFT, DOT_
 527:User/e-Paper/GUI_Paint.c ****             }
 528:User/e-Paper/GUI_Paint.c ****             if (Esp < 0)
 529:User/e-Paper/GUI_Paint.c ****                 Esp += 4 * XCurrent + 6;
 530:User/e-Paper/GUI_Paint.c ****             else
 531:User/e-Paper/GUI_Paint.c ****             {
 532:User/e-Paper/GUI_Paint.c ****                 Esp += 10 + 4 * (XCurrent - YCurrent);
 533:User/e-Paper/GUI_Paint.c ****                 YCurrent--;
 534:User/e-Paper/GUI_Paint.c ****             }
ARM GAS  C:\Users\upo\AppData\Local\Temp\ccEC4369.s 			page 19


 535:User/e-Paper/GUI_Paint.c ****             XCurrent++;
 536:User/e-Paper/GUI_Paint.c ****         }
 537:User/e-Paper/GUI_Paint.c ****     }
 538:User/e-Paper/GUI_Paint.c ****     else
 539:User/e-Paper/GUI_Paint.c ****     { // Draw a hollow circle
 540:User/e-Paper/GUI_Paint.c ****         while (XCurrent <= YCurrent)
 541:User/e-Paper/GUI_Paint.c ****         {
 542:User/e-Paper/GUI_Paint.c ****             Paint_DrawPoint(X_Center + XCurrent, Y_Center + YCurrent, Color, Line_width, DOT_STYLE_
 543:User/e-Paper/GUI_Paint.c ****             Paint_DrawPoint(X_Center - XCurrent, Y_Center + YCurrent, Color, Line_width, DOT_STYLE_
 544:User/e-Paper/GUI_Paint.c ****             Paint_DrawPoint(X_Center - YCurrent, Y_Center + XCurrent, Color, Line_width, DOT_STYLE_
 545:User/e-Paper/GUI_Paint.c ****             Paint_DrawPoint(X_Center - YCurrent, Y_Center - XCurrent, Color, Line_width, DOT_STYLE_
 546:User/e-Paper/GUI_Paint.c ****             Paint_DrawPoint(X_Center - XCurrent, Y_Center - YCurrent, Color, Line_width, DOT_STYLE_
 547:User/e-Paper/GUI_Paint.c ****             Paint_DrawPoint(X_Center + XCurrent, Y_Center - YCurrent, Color, Line_width, DOT_STYLE_
 548:User/e-Paper/GUI_Paint.c ****             Paint_DrawPoint(X_Center + YCurrent, Y_Center - XCurrent, Color, Line_width, DOT_STYLE_
 549:User/e-Paper/GUI_Paint.c ****             Paint_DrawPoint(X_Center + YCurrent, Y_Center + XCurrent, Color, Line_width, DOT_STYLE_
 550:User/e-Paper/GUI_Paint.c **** 
 551:User/e-Paper/GUI_Paint.c ****             if (Esp < 0)
 552:User/e-Paper/GUI_Paint.c ****                 Esp += 4 * XCurrent + 6;
 553:User/e-Paper/GUI_Paint.c ****             else
 554:User/e-Paper/GUI_Paint.c ****             {
 555:User/e-Paper/GUI_Paint.c ****                 Esp += 10 + 4 * (XCurrent - YCurrent);
 556:User/e-Paper/GUI_Paint.c ****                 YCurrent--;
 557:User/e-Paper/GUI_Paint.c ****             }
 558:User/e-Paper/GUI_Paint.c ****             XCurrent++;
 559:User/e-Paper/GUI_Paint.c ****         }
 560:User/e-Paper/GUI_Paint.c ****     }
 561:User/e-Paper/GUI_Paint.c **** }
 562:User/e-Paper/GUI_Paint.c **** 
 563:User/e-Paper/GUI_Paint.c **** /******************************************************************************
 564:User/e-Paper/GUI_Paint.c **** function: Show English characters
 565:User/e-Paper/GUI_Paint.c **** parameter:
 566:User/e-Paper/GUI_Paint.c ****     Xpoint           ：X coordinate
 567:User/e-Paper/GUI_Paint.c ****     Ypoint           ：Y coordinate
 568:User/e-Paper/GUI_Paint.c ****     Acsii_Char       ：To display the English characters
 569:User/e-Paper/GUI_Paint.c ****     Font             ：A structure pointer that displays a character size
 570:User/e-Paper/GUI_Paint.c ****     Color_Foreground : Select the foreground color
 571:User/e-Paper/GUI_Paint.c ****     Color_Background : Select the background color
 572:User/e-Paper/GUI_Paint.c **** ******************************************************************************/
 573:User/e-Paper/GUI_Paint.c **** void Paint_DrawChar(UWORD Xpoint, UWORD Ypoint, const char Acsii_Char,
 391              		.loc 1 573 6 is_stmt 1 view -0
 392              		.cfi_startproc
 393              		@ args = 8, pretend = 0, frame = 24
 394              		@ frame_needed = 0, uses_anonymous_args = 0
 574:User/e-Paper/GUI_Paint.c ****                     tFont *Font, UWORD Color_Foreground, UWORD Color_Background)
 575:User/e-Paper/GUI_Paint.c **** {
 576:User/e-Paper/GUI_Paint.c ****     UWORD Page, Column;
 577:User/e-Paper/GUI_Paint.c **** 
 578:User/e-Paper/GUI_Paint.c ****     if (Xpoint > Paint.Width || Ypoint > Paint.Height)
 579:User/e-Paper/GUI_Paint.c ****     {
 580:User/e-Paper/GUI_Paint.c ****         DE_BUG("Paint_DrawChar Input exceeds the normal display range\r\n");
 581:User/e-Paper/GUI_Paint.c ****         return;
 582:User/e-Paper/GUI_Paint.c ****     }
 583:User/e-Paper/GUI_Paint.c ****     uint32_t font_Width = (*Font).chars[Acsii_Char - ' '].image->width;
 395              		.loc 1 583 5 view .LVU135
 573:User/e-Paper/GUI_Paint.c ****                     tFont *Font, UWORD Color_Foreground, UWORD Color_Background)
 396              		.loc 1 573 6 is_stmt 0 view .LVU136
 397 0000 F0B5     		push	{r4, r5, r6, r7, lr}
ARM GAS  C:\Users\upo\AppData\Local\Temp\ccEC4369.s 			page 20


 398              	.LCFI1:
 399              		.cfi_def_cfa_offset 20
 400              		.cfi_offset 4, -20
 401              		.cfi_offset 5, -16
 402              		.cfi_offset 6, -12
 403              		.cfi_offset 7, -8
 404              		.cfi_offset 14, -4
 405 0002 5746     		mov	r7, r10
 406 0004 4546     		mov	r5, r8
 407 0006 DE46     		mov	lr, fp
 408 0008 4E46     		mov	r6, r9
 409 000a E0B5     		push	{r5, r6, r7, lr}
 410              	.LCFI2:
 411              		.cfi_def_cfa_offset 36
 412              		.cfi_offset 8, -36
 413              		.cfi_offset 9, -32
 414              		.cfi_offset 10, -28
 415              		.cfi_offset 11, -24
 416 000c 87B0     		sub	sp, sp, #28
 417              	.LCFI3:
 418              		.cfi_def_cfa_offset 64
 573:User/e-Paper/GUI_Paint.c ****                     tFont *Font, UWORD Color_Foreground, UWORD Color_Background)
 419              		.loc 1 573 6 view .LVU137
 420 000e 0091     		str	r1, [sp]
 421 0010 0C00     		movs	r4, r1
 422 0012 10A9     		add	r1, sp, #64
 423              	.LVL45:
 573:User/e-Paper/GUI_Paint.c ****                     tFont *Font, UWORD Color_Foreground, UWORD Color_Background)
 424              		.loc 1 573 6 view .LVU138
 425 0014 0490     		str	r0, [sp, #16]
 426 0016 0888     		ldrh	r0, [r1]
 427              	.LVL46:
 573:User/e-Paper/GUI_Paint.c ****                     tFont *Font, UWORD Color_Foreground, UWORD Color_Background)
 428              		.loc 1 573 6 view .LVU139
 429 0018 11A9     		add	r1, sp, #68
 430              	.LVL47:
 573:User/e-Paper/GUI_Paint.c ****                     tFont *Font, UWORD Color_Foreground, UWORD Color_Background)
 431              		.loc 1 573 6 view .LVU140
 432 001a 0390     		str	r0, [sp, #12]
 433 001c 0888     		ldrh	r0, [r1]
 434 001e 0190     		str	r0, [sp, #4]
 435              		.loc 1 583 40 view .LVU141
 436 0020 4448     		ldr	r0, .L59
 437 0022 8446     		mov	ip, r0
 438 0024 6244     		add	r2, r2, ip
 439              	.LVL48:
 440              		.loc 1 583 58 view .LVU142
 441 0026 D200     		lsls	r2, r2, #3
 442 0028 9B18     		adds	r3, r3, r2
 443 002a 5A68     		ldr	r2, [r3, #4]
 444              		.loc 1 583 64 view .LVU143
 445 002c 9388     		ldrh	r3, [r2, #4]
 584:User/e-Paper/GUI_Paint.c ****     uint32_t font_Height = (*Font).chars[Acsii_Char - ' '].image->height;
 585:User/e-Paper/GUI_Paint.c **** 
 586:User/e-Paper/GUI_Paint.c ****     //   uint32_t Char_Offset = (Acsii_Char - ' ') * Font->Height * (Font->Width / 8 + (Font->Width
 587:User/e-Paper/GUI_Paint.c ****     const unsigned char *ptr = (*Font).chars[Acsii_Char - ' '].image->data;
 446              		.loc 1 587 26 view .LVU144
ARM GAS  C:\Users\upo\AppData\Local\Temp\ccEC4369.s 			page 21


 447 002e 1768     		ldr	r7, [r2]
 583:User/e-Paper/GUI_Paint.c ****     uint32_t font_Height = (*Font).chars[Acsii_Char - ' '].image->height;
 448              		.loc 1 583 64 view .LVU145
 449 0030 9846     		mov	r8, r3
 450              	.LVL49:
 584:User/e-Paper/GUI_Paint.c ****     uint32_t font_Height = (*Font).chars[Acsii_Char - ' '].image->height;
 451              		.loc 1 584 5 is_stmt 1 view .LVU146
 584:User/e-Paper/GUI_Paint.c ****     uint32_t font_Height = (*Font).chars[Acsii_Char - ' '].image->height;
 452              		.loc 1 584 65 is_stmt 0 view .LVU147
 453 0032 D388     		ldrh	r3, [r2, #6]
 454              	.LVL50:
 455              		.loc 1 587 5 is_stmt 1 view .LVU148
 588:User/e-Paper/GUI_Paint.c **** 
 589:User/e-Paper/GUI_Paint.c ****     for (Page = 0; Page < font_Height; Page++)
 456              		.loc 1 589 5 view .LVU149
 457              		.loc 1 589 25 view .LVU150
 458 0034 002B     		cmp	r3, #0
 459 0036 75D0     		beq	.L30
 460 0038 A446     		mov	ip, r4
 461 003a 0722     		movs	r2, #7
 462 003c 4046     		mov	r0, r8
 463 003e 6344     		add	r3, r3, ip
 464              	.LVL51:
 465              		.loc 1 589 25 is_stmt 0 view .LVU151
 466 0040 9BB2     		uxth	r3, r3
 467 0042 0293     		str	r3, [sp, #8]
 468              	.LBB60:
 469              	.LBB61:
 202:User/e-Paper/GUI_Paint.c ****     {
 470              		.loc 1 202 23 view .LVU152
 471 0044 3C4B     		ldr	r3, .L59+4
 472 0046 1040     		ands	r0, r2
 473 0048 9946     		mov	r9, r3
 474 004a 0590     		str	r0, [sp, #20]
 475 004c 06E0     		b	.L32
 476              	.LVL52:
 477              	.L41:
 202:User/e-Paper/GUI_Paint.c ****     {
 478              		.loc 1 202 23 view .LVU153
 479              	.LBE61:
 480              	.LBE60:
 481              		.loc 1 589 44 is_stmt 1 view .LVU154
 482              		.loc 1 589 25 view .LVU155
 483 004e 009C     		ldr	r4, [sp]
 484 0050 029A     		ldr	r2, [sp, #8]
 485 0052 0134     		adds	r4, r4, #1
 486 0054 A3B2     		uxth	r3, r4
 487 0056 0093     		str	r3, [sp]
 488 0058 9A42     		cmp	r2, r3
 489 005a 63D0     		beq	.L30
 490              	.LVL53:
 491              	.L32:
 590:User/e-Paper/GUI_Paint.c ****     {
 591:User/e-Paper/GUI_Paint.c ****         for (Column = 0; Column < font_Width; Column++)
 492              		.loc 1 591 33 view .LVU156
 493 005c 4346     		mov	r3, r8
 494 005e 002B     		cmp	r3, #0
ARM GAS  C:\Users\upo\AppData\Local\Temp\ccEC4369.s 			page 22


 495 0060 F5D0     		beq	.L41
 496              	.LVL54:
 497              	.L42:
 498              		.loc 1 591 33 is_stmt 0 view .LVU157
 499 0062 019B     		ldr	r3, [sp, #4]
 500              		.loc 1 591 21 view .LVU158
 501 0064 0025     		movs	r5, #0
 573:User/e-Paper/GUI_Paint.c ****                     tFont *Font, UWORD Color_Foreground, UWORD Color_Background)
 502              		.loc 1 573 6 view .LVU159
 503 0066 049E     		ldr	r6, [sp, #16]
 504 0068 FF2B     		cmp	r3, #255
 505 006a 2ED0     		beq	.L43
 506 006c 0723     		movs	r3, #7
 507 006e 9B46     		mov	fp, r3
 592:User/e-Paper/GUI_Paint.c ****         {
 593:User/e-Paper/GUI_Paint.c **** 
 594:User/e-Paper/GUI_Paint.c ****             // To determine whether the font background color and screen background color is consis
 595:User/e-Paper/GUI_Paint.c ****             if (FONT_BACKGROUND == Color_Background)
 596:User/e-Paper/GUI_Paint.c ****             { // this process is to speed up the scan
 597:User/e-Paper/GUI_Paint.c ****                 if (*ptr & (0x80 >> (Column % 8)))
 508              		.loc 1 597 34 view .LVU160
 509 0070 7933     		adds	r3, r3, #121
 510 0072 9A46     		mov	r10, r3
 511 0074 14E0     		b	.L37
 512              	.LVL55:
 513              	.L58:
 598:User/e-Paper/GUI_Paint.c ****                     Paint_SetPixel(Xpoint + Column, Ypoint + Page, Color_Foreground);
 599:User/e-Paper/GUI_Paint.c ****             }
 600:User/e-Paper/GUI_Paint.c ****             else
 601:User/e-Paper/GUI_Paint.c ****             {
 602:User/e-Paper/GUI_Paint.c ****                 if (*ptr & (0x80 >> (Column % 8)))
 603:User/e-Paper/GUI_Paint.c ****                 {
 604:User/e-Paper/GUI_Paint.c ****                     Paint_SetPixel(Xpoint + Column, Ypoint + Page, Color_Foreground);
 605:User/e-Paper/GUI_Paint.c ****                 }
 606:User/e-Paper/GUI_Paint.c ****                 else
 607:User/e-Paper/GUI_Paint.c ****                 {
 608:User/e-Paper/GUI_Paint.c ****                     Paint_SetPixel(Xpoint + Column, Ypoint + Page, Color_Background);
 514              		.loc 1 608 21 is_stmt 1 view .LVU161
 515              	.LBB64:
 516              	.LBI64:
 200:User/e-Paper/GUI_Paint.c **** {
 517              		.loc 1 200 6 view .LVU162
 518              	.LBB65:
 202:User/e-Paper/GUI_Paint.c ****     {
 519              		.loc 1 202 5 view .LVU163
 202:User/e-Paper/GUI_Paint.c ****     {
 520              		.loc 1 202 8 is_stmt 0 view .LVU164
 521 0076 8E42     		cmp	r6, r1
 522 0078 08D8     		bhi	.L35
 202:User/e-Paper/GUI_Paint.c ****     {
 523              		.loc 1 202 30 view .LVU165
 524 007a 4B46     		mov	r3, r9
 525 007c 0099     		ldr	r1, [sp]
 526 007e DB88     		ldrh	r3, [r3, #6]
 527 0080 8B42     		cmp	r3, r1
 528 0082 03D3     		bcc	.L35
 529 0084 3000     		movs	r0, r6
ARM GAS  C:\Users\upo\AppData\Local\Temp\ccEC4369.s 			page 23


 530 0086 019A     		ldr	r2, [sp, #4]
 531 0088 FFF7FEFF 		bl	Paint_SetPixel.part.0
 532              	.LVL56:
 533              	.L35:
 202:User/e-Paper/GUI_Paint.c ****     {
 534              		.loc 1 202 30 view .LVU166
 535              	.LBE65:
 536              	.LBE64:
 609:User/e-Paper/GUI_Paint.c ****                 }
 610:User/e-Paper/GUI_Paint.c ****             }
 611:User/e-Paper/GUI_Paint.c ****             // One pixel is 8 bits
 612:User/e-Paper/GUI_Paint.c ****             if (Column % 8 == 7)
 537              		.loc 1 612 13 is_stmt 1 view .LVU167
 613:User/e-Paper/GUI_Paint.c ****                 ptr++;
 538              		.loc 1 613 20 is_stmt 0 view .LVU168
 539 008c 073C     		subs	r4, r4, #7
 540 008e 6342     		rsbs	r3, r4, #0
 541 0090 5C41     		adcs	r4, r4, r3
 591:User/e-Paper/GUI_Paint.c ****         {
 542              		.loc 1 591 53 view .LVU169
 543 0092 0135     		adds	r5, r5, #1
 544              	.LVL57:
 591:User/e-Paper/GUI_Paint.c ****         {
 545              		.loc 1 591 33 view .LVU170
 546 0094 0136     		adds	r6, r6, #1
 591:User/e-Paper/GUI_Paint.c ****         {
 547              		.loc 1 591 53 view .LVU171
 548 0096 ADB2     		uxth	r5, r5
 549              		.loc 1 613 20 view .LVU172
 550 0098 3F19     		adds	r7, r7, r4
 551              	.LVL58:
 591:User/e-Paper/GUI_Paint.c ****         {
 552              		.loc 1 591 53 is_stmt 1 view .LVU173
 591:User/e-Paper/GUI_Paint.c ****         {
 553              		.loc 1 591 33 view .LVU174
 554 009a B6B2     		uxth	r6, r6
 555 009c A845     		cmp	r8, r5
 556 009e 36D0     		beq	.L38
 557              	.LVL59:
 558              	.L37:
 595:User/e-Paper/GUI_Paint.c ****             { // this process is to speed up the scan
 559              		.loc 1 595 13 view .LVU175
 560              	.LBB66:
 561              	.LBB62:
 202:User/e-Paper/GUI_Paint.c ****     {
 562              		.loc 1 202 23 is_stmt 0 view .LVU176
 563 00a0 4B46     		mov	r3, r9
 564 00a2 5C46     		mov	r4, fp
 565 00a4 9988     		ldrh	r1, [r3, #4]
 566              	.LBE62:
 567              	.LBE66:
 597:User/e-Paper/GUI_Paint.c ****                     Paint_SetPixel(Xpoint + Column, Ypoint + Page, Color_Foreground);
 568              		.loc 1 597 34 view .LVU177
 569 00a6 5346     		mov	r3, r10
 570 00a8 2C40     		ands	r4, r5
 602:User/e-Paper/GUI_Paint.c ****                 {
 571              		.loc 1 602 17 is_stmt 1 view .LVU178
ARM GAS  C:\Users\upo\AppData\Local\Temp\ccEC4369.s 			page 24


 597:User/e-Paper/GUI_Paint.c ****                     Paint_SetPixel(Xpoint + Column, Ypoint + Page, Color_Foreground);
 572              		.loc 1 597 34 is_stmt 0 view .LVU179
 573 00aa 2341     		asrs	r3, r3, r4
 597:User/e-Paper/GUI_Paint.c ****                     Paint_SetPixel(Xpoint + Column, Ypoint + Page, Color_Foreground);
 574              		.loc 1 597 21 view .LVU180
 575 00ac 3A78     		ldrb	r2, [r7]
 602:User/e-Paper/GUI_Paint.c ****                 {
 576              		.loc 1 602 20 view .LVU181
 577 00ae 1A42     		tst	r2, r3
 578 00b0 E1D0     		beq	.L58
 604:User/e-Paper/GUI_Paint.c ****                 }
 579              		.loc 1 604 21 is_stmt 1 view .LVU182
 580              	.LVL60:
 581              	.LBB67:
 582              	.LBI67:
 200:User/e-Paper/GUI_Paint.c **** {
 583              		.loc 1 200 6 view .LVU183
 584              	.LBB68:
 202:User/e-Paper/GUI_Paint.c ****     {
 585              		.loc 1 202 5 view .LVU184
 202:User/e-Paper/GUI_Paint.c ****     {
 586              		.loc 1 202 8 is_stmt 0 view .LVU185
 587 00b2 8E42     		cmp	r6, r1
 588 00b4 EAD8     		bhi	.L35
 202:User/e-Paper/GUI_Paint.c ****     {
 589              		.loc 1 202 30 view .LVU186
 590 00b6 4B46     		mov	r3, r9
 591 00b8 0099     		ldr	r1, [sp]
 592 00ba DB88     		ldrh	r3, [r3, #6]
 593 00bc 8B42     		cmp	r3, r1
 594 00be E5D3     		bcc	.L35
 595 00c0 3000     		movs	r0, r6
 596 00c2 039A     		ldr	r2, [sp, #12]
 597 00c4 FFF7FEFF 		bl	Paint_SetPixel.part.0
 598              	.LVL61:
 599 00c8 E0E7     		b	.L35
 600              	.LVL62:
 601              	.L43:
 202:User/e-Paper/GUI_Paint.c ****     {
 602              		.loc 1 202 30 view .LVU187
 603 00ca 0723     		movs	r3, #7
 604 00cc 9B46     		mov	fp, r3
 605              	.LBE68:
 606              	.LBE67:
 597:User/e-Paper/GUI_Paint.c ****                     Paint_SetPixel(Xpoint + Column, Ypoint + Page, Color_Foreground);
 607              		.loc 1 597 34 view .LVU188
 608 00ce 7933     		adds	r3, r3, #121
 609 00d0 9A46     		mov	r10, r3
 610              	.L33:
 611              	.LVL63:
 595:User/e-Paper/GUI_Paint.c ****             { // this process is to speed up the scan
 612              		.loc 1 595 13 is_stmt 1 view .LVU189
 613 00d2 5C46     		mov	r4, fp
 597:User/e-Paper/GUI_Paint.c ****                     Paint_SetPixel(Xpoint + Column, Ypoint + Page, Color_Foreground);
 614              		.loc 1 597 34 is_stmt 0 view .LVU190
 615 00d4 5246     		mov	r2, r10
 616 00d6 2C40     		ands	r4, r5
ARM GAS  C:\Users\upo\AppData\Local\Temp\ccEC4369.s 			page 25


 597:User/e-Paper/GUI_Paint.c ****                     Paint_SetPixel(Xpoint + Column, Ypoint + Page, Color_Foreground);
 617              		.loc 1 597 17 is_stmt 1 view .LVU191
 597:User/e-Paper/GUI_Paint.c ****                     Paint_SetPixel(Xpoint + Column, Ypoint + Page, Color_Foreground);
 618              		.loc 1 597 34 is_stmt 0 view .LVU192
 619 00d8 2241     		asrs	r2, r2, r4
 597:User/e-Paper/GUI_Paint.c ****                     Paint_SetPixel(Xpoint + Column, Ypoint + Page, Color_Foreground);
 620              		.loc 1 597 21 view .LVU193
 621 00da 3B78     		ldrb	r3, [r7]
 597:User/e-Paper/GUI_Paint.c ****                     Paint_SetPixel(Xpoint + Column, Ypoint + Page, Color_Foreground);
 622              		.loc 1 597 20 view .LVU194
 623 00dc 1A42     		tst	r2, r3
 624 00de 0CD0     		beq	.L39
 598:User/e-Paper/GUI_Paint.c ****             }
 625              		.loc 1 598 21 is_stmt 1 view .LVU195
 626              	.LVL64:
 627              	.LBB69:
 628              	.LBI60:
 200:User/e-Paper/GUI_Paint.c **** {
 629              		.loc 1 200 6 view .LVU196
 630              	.LBB63:
 202:User/e-Paper/GUI_Paint.c ****     {
 631              		.loc 1 202 5 view .LVU197
 202:User/e-Paper/GUI_Paint.c ****     {
 632              		.loc 1 202 8 is_stmt 0 view .LVU198
 633 00e0 4B46     		mov	r3, r9
 634 00e2 9B88     		ldrh	r3, [r3, #4]
 635 00e4 B342     		cmp	r3, r6
 636 00e6 08D3     		bcc	.L39
 202:User/e-Paper/GUI_Paint.c ****     {
 637              		.loc 1 202 30 view .LVU199
 638 00e8 4B46     		mov	r3, r9
 639 00ea 0099     		ldr	r1, [sp]
 640 00ec DB88     		ldrh	r3, [r3, #6]
 641 00ee 8B42     		cmp	r3, r1
 642 00f0 03D3     		bcc	.L39
 643 00f2 3000     		movs	r0, r6
 644 00f4 039A     		ldr	r2, [sp, #12]
 645 00f6 FFF7FEFF 		bl	Paint_SetPixel.part.0
 646              	.LVL65:
 647              	.L39:
 202:User/e-Paper/GUI_Paint.c ****     {
 648              		.loc 1 202 30 view .LVU200
 649              	.LBE63:
 650              	.LBE69:
 612:User/e-Paper/GUI_Paint.c ****                 ptr++;
 651              		.loc 1 612 13 is_stmt 1 view .LVU201
 652              		.loc 1 613 20 is_stmt 0 view .LVU202
 653 00fa 073C     		subs	r4, r4, #7
 654 00fc 6342     		rsbs	r3, r4, #0
 655 00fe 5C41     		adcs	r4, r4, r3
 591:User/e-Paper/GUI_Paint.c ****         {
 656              		.loc 1 591 53 view .LVU203
 657 0100 0135     		adds	r5, r5, #1
 658              	.LVL66:
 591:User/e-Paper/GUI_Paint.c ****         {
 659              		.loc 1 591 33 view .LVU204
 660 0102 0136     		adds	r6, r6, #1
ARM GAS  C:\Users\upo\AppData\Local\Temp\ccEC4369.s 			page 26


 591:User/e-Paper/GUI_Paint.c ****         {
 661              		.loc 1 591 53 view .LVU205
 662 0104 ADB2     		uxth	r5, r5
 663              		.loc 1 613 20 view .LVU206
 664 0106 3F19     		adds	r7, r7, r4
 665              	.LVL67:
 591:User/e-Paper/GUI_Paint.c ****         {
 666              		.loc 1 591 53 is_stmt 1 view .LVU207
 591:User/e-Paper/GUI_Paint.c ****         {
 667              		.loc 1 591 33 view .LVU208
 668 0108 B6B2     		uxth	r6, r6
 669 010a A845     		cmp	r8, r5
 670 010c E1D1     		bne	.L33
 671              	.L38:
 614:User/e-Paper/GUI_Paint.c ****         } // Write a line
 615:User/e-Paper/GUI_Paint.c ****         if (font_Width % 8 != 0)
 672              		.loc 1 615 9 view .LVU209
 673              		.loc 1 615 12 is_stmt 0 view .LVU210
 674 010e 059B     		ldr	r3, [sp, #20]
 675 0110 002B     		cmp	r3, #0
 676 0112 9CD0     		beq	.L41
 616:User/e-Paper/GUI_Paint.c ****             ptr++;
 677              		.loc 1 616 13 is_stmt 1 view .LVU211
 589:User/e-Paper/GUI_Paint.c ****     {
 678              		.loc 1 589 25 is_stmt 0 view .LVU212
 679 0114 009B     		ldr	r3, [sp]
 680 0116 029A     		ldr	r2, [sp, #8]
 681 0118 0133     		adds	r3, r3, #1
 682 011a 9BB2     		uxth	r3, r3
 683              		.loc 1 616 16 view .LVU213
 684 011c 0137     		adds	r7, r7, #1
 685              	.LVL68:
 589:User/e-Paper/GUI_Paint.c ****     {
 686              		.loc 1 589 44 is_stmt 1 view .LVU214
 589:User/e-Paper/GUI_Paint.c ****     {
 687              		.loc 1 589 25 view .LVU215
 688 011e 0093     		str	r3, [sp]
 689 0120 9A42     		cmp	r2, r3
 690 0122 9ED1     		bne	.L42
 691              	.LVL69:
 692              	.L30:
 617:User/e-Paper/GUI_Paint.c ****     } // Write all
 618:User/e-Paper/GUI_Paint.c **** }
 693              		.loc 1 618 1 is_stmt 0 view .LVU216
 694 0124 07B0     		add	sp, sp, #28
 695              		@ sp needed
 696              	.LVL70:
 697              	.LVL71:
 698              		.loc 1 618 1 view .LVU217
 699 0126 F0BC     		pop	{r4, r5, r6, r7}
 700 0128 BB46     		mov	fp, r7
 701 012a B246     		mov	r10, r6
 702 012c A946     		mov	r9, r5
 703 012e A046     		mov	r8, r4
 704 0130 F0BD     		pop	{r4, r5, r6, r7, pc}
 705              	.L60:
 706 0132 C046     		.align	2
ARM GAS  C:\Users\upo\AppData\Local\Temp\ccEC4369.s 			page 27


 707              	.L59:
 708 0134 E0FFFF1F 		.word	536870880
 709 0138 00000000 		.word	Paint
 710              		.cfi_endproc
 711              	.LFE1450:
 713              		.global	__aeabi_uidivmod
 714              		.section	.rodata.Paint_DrawLine.part.0.str1.4,"aMS",%progbits,1
 715              		.align	2
 716              	.LC3:
 717 0000 58706F69 		.ascii	"Xpoint = %d , Paint.Width = %d  \015\012 \000"
 717      6E74203D 
 717      20256420 
 717      2C205061 
 717      696E742E 
 718              		.align	2
 719              	.LC5:
 720 0024 59706F69 		.ascii	"Ypoint = %d , Paint.Height = %d  \015\012 \000"
 720      6E74203D 
 720      20256420 
 720      2C205061 
 720      696E742E 
 721              		.section	.text.Paint_DrawLine.part.0,"ax",%progbits
 722              		.align	1
 723              		.p2align 2,,3
 724              		.syntax unified
 725              		.code	16
 726              		.thumb_func
 728              	Paint_DrawLine.part.0:
 729              	.LVL72:
 730              	.LFB1446:
 392:User/e-Paper/GUI_Paint.c ****                     UWORD Color, DOT_PIXEL Line_width, LINE_STYLE Line_Style)
 731              		.loc 1 392 6 is_stmt 1 view -0
 732              		.cfi_startproc
 733              		@ args = 12, pretend = 0, frame = 80
 734              		@ frame_needed = 0, uses_anonymous_args = 0
 402:User/e-Paper/GUI_Paint.c ****     UWORD Ypoint = Ystart;
 735              		.loc 1 402 5 view .LVU219
 403:User/e-Paper/GUI_Paint.c ****     int dx = (int)Xend - (int)Xstart >= 0 ? Xend - Xstart : Xstart - Xend;
 736              		.loc 1 403 5 view .LVU220
 392:User/e-Paper/GUI_Paint.c ****                     UWORD Color, DOT_PIXEL Line_width, LINE_STYLE Line_Style)
 737              		.loc 1 392 6 is_stmt 0 view .LVU221
 738 0000 F0B5     		push	{r4, r5, r6, r7, lr}
 739              	.LCFI4:
 740              		.cfi_def_cfa_offset 20
 741              		.cfi_offset 4, -20
 742              		.cfi_offset 5, -16
 743              		.cfi_offset 6, -12
 744              		.cfi_offset 7, -8
 745              		.cfi_offset 14, -4
 746 0002 5746     		mov	r7, r10
 747 0004 4E46     		mov	r6, r9
 748 0006 4546     		mov	r5, r8
 749 0008 DE46     		mov	lr, fp
 750 000a 8846     		mov	r8, r1
 751              	.LVL73:
 404:User/e-Paper/GUI_Paint.c ****     int dy = (int)Yend - (int)Ystart <= 0 ? Yend - Ystart : Ystart - Yend;
 752              		.loc 1 404 5 is_stmt 1 view .LVU222
ARM GAS  C:\Users\upo\AppData\Local\Temp\ccEC4369.s 			page 28


 392:User/e-Paper/GUI_Paint.c ****                     UWORD Color, DOT_PIXEL Line_width, LINE_STYLE Line_Style)
 753              		.loc 1 392 6 is_stmt 0 view .LVU223
 754 000c E0B5     		push	{r5, r6, r7, lr}
 755              	.LCFI5:
 756              		.cfi_def_cfa_offset 36
 757              		.cfi_offset 8, -36
 758              		.cfi_offset 9, -32
 759              		.cfi_offset 10, -28
 760              		.cfi_offset 11, -24
 761 000e 95B0     		sub	sp, sp, #84
 762              	.LCFI6:
 763              		.cfi_def_cfa_offset 120
 392:User/e-Paper/GUI_Paint.c ****                     UWORD Color, DOT_PIXEL Line_width, LINE_STYLE Line_Style)
 764              		.loc 1 392 6 view .LVU224
 765 0010 1D00     		movs	r5, r3
 766 0012 1093     		str	r3, [sp, #64]
 767 0014 1EAB     		add	r3, sp, #120
 768              	.LVL74:
 392:User/e-Paper/GUI_Paint.c ****                     UWORD Color, DOT_PIXEL Line_width, LINE_STYLE Line_Style)
 769              		.loc 1 392 6 view .LVU225
 770 0016 1C88     		ldrh	r4, [r3]
 771 0018 1FAB     		add	r3, sp, #124
 772              	.LVL75:
 392:User/e-Paper/GUI_Paint.c ****                     UWORD Color, DOT_PIXEL Line_width, LINE_STYLE Line_Style)
 773              		.loc 1 392 6 view .LVU226
 774 001a 0194     		str	r4, [sp, #4]
 775 001c 1C78     		ldrb	r4, [r3]
 776 001e 20AB     		add	r3, sp, #128
 777              	.LVL76:
 392:User/e-Paper/GUI_Paint.c ****                     UWORD Color, DOT_PIXEL Line_width, LINE_STYLE Line_Style)
 778              		.loc 1 392 6 view .LVU227
 779 0020 A146     		mov	r9, r4
 780 0022 1C78     		ldrb	r4, [r3]
 404:User/e-Paper/GUI_Paint.c ****     int dy = (int)Yend - (int)Ystart <= 0 ? Yend - Ystart : Ystart - Yend;
 781              		.loc 1 404 50 view .LVU228
 782 0024 131A     		subs	r3, r2, r0
 783              	.LVL77:
 392:User/e-Paper/GUI_Paint.c ****                     UWORD Color, DOT_PIXEL Line_width, LINE_STYLE Line_Style)
 784              		.loc 1 392 6 view .LVU229
 785 0026 1100     		movs	r1, r2
 786              	.LVL78:
 392:User/e-Paper/GUI_Paint.c ****                     UWORD Color, DOT_PIXEL Line_width, LINE_STYLE Line_Style)
 787              		.loc 1 392 6 view .LVU230
 788 0028 0F92     		str	r2, [sp, #60]
 404:User/e-Paper/GUI_Paint.c ****     int dy = (int)Yend - (int)Ystart <= 0 ? Yend - Ystart : Ystart - Yend;
 789              		.loc 1 404 9 view .LVU231
 790 002a DA17     		asrs	r2, r3, #31
 791              	.LVL79:
 392:User/e-Paper/GUI_Paint.c ****                     UWORD Color, DOT_PIXEL Line_width, LINE_STYLE Line_Style)
 792              		.loc 1 392 6 view .LVU232
 793 002c 0A94     		str	r4, [sp, #40]
 404:User/e-Paper/GUI_Paint.c ****     int dy = (int)Yend - (int)Ystart <= 0 ? Yend - Ystart : Ystart - Yend;
 794              		.loc 1 404 9 view .LVU233
 795 002e 9C18     		adds	r4, r3, r2
 405:User/e-Paper/GUI_Paint.c **** 
 796              		.loc 1 405 50 view .LVU234
 797 0030 4346     		mov	r3, r8
ARM GAS  C:\Users\upo\AppData\Local\Temp\ccEC4369.s 			page 29


 408:User/e-Paper/GUI_Paint.c ****     int YAddway = Ystart < Yend ? 1 : -1;
 798              		.loc 1 408 37 view .LVU235
 799 0032 8446     		mov	ip, r0
 405:User/e-Paper/GUI_Paint.c **** 
 800              		.loc 1 405 50 view .LVU236
 801 0034 EB1A     		subs	r3, r5, r3
 404:User/e-Paper/GUI_Paint.c ****     int dy = (int)Yend - (int)Ystart <= 0 ? Yend - Ystart : Ystart - Yend;
 802              		.loc 1 404 9 view .LVU237
 803 0036 5440     		eors	r4, r2
 405:User/e-Paper/GUI_Paint.c **** 
 804              		.loc 1 405 59 view .LVU238
 805 0038 DA17     		asrs	r2, r3, #31
 806 003a 9E18     		adds	r6, r3, r2
 807 003c 5640     		eors	r6, r2
 808 003e DA17     		asrs	r2, r3, #31
 809 0040 D31A     		subs	r3, r2, r3
 810 0042 5340     		eors	r3, r2
 408:User/e-Paper/GUI_Paint.c ****     int YAddway = Ystart < Yend ? 1 : -1;
 811              		.loc 1 408 37 view .LVU239
 812 0044 8C45     		cmp	ip, r1
 813 0046 9241     		sbcs	r2, r2, r2
 405:User/e-Paper/GUI_Paint.c **** 
 814              		.loc 1 405 59 view .LVU240
 815 0048 0993     		str	r3, [sp, #36]
 408:User/e-Paper/GUI_Paint.c ****     int YAddway = Ystart < Yend ? 1 : -1;
 816              		.loc 1 408 37 view .LVU241
 817 004a 7D4B     		ldr	r3, .L95
 392:User/e-Paper/GUI_Paint.c ****                     UWORD Color, DOT_PIXEL Line_width, LINE_STYLE Line_Style)
 818              		.loc 1 392 6 view .LVU242
 819 004c 0390     		str	r0, [sp, #12]
 408:User/e-Paper/GUI_Paint.c ****     int YAddway = Ystart < Yend ? 1 : -1;
 820              		.loc 1 408 37 view .LVU243
 821 004e 1A40     		ands	r2, r3
 822 0050 1300     		movs	r3, r2
 823 0052 7C4A     		ldr	r2, .L95+4
 404:User/e-Paper/GUI_Paint.c ****     int dy = (int)Yend - (int)Ystart <= 0 ? Yend - Ystart : Ystart - Yend;
 824              		.loc 1 404 9 view .LVU244
 825 0054 0B94     		str	r4, [sp, #44]
 826              	.LVL80:
 405:User/e-Paper/GUI_Paint.c **** 
 827              		.loc 1 405 5 is_stmt 1 view .LVU245
 408:User/e-Paper/GUI_Paint.c ****     int YAddway = Ystart < Yend ? 1 : -1;
 828              		.loc 1 408 5 view .LVU246
 408:User/e-Paper/GUI_Paint.c ****     int YAddway = Ystart < Yend ? 1 : -1;
 829              		.loc 1 408 37 is_stmt 0 view .LVU247
 830 0056 9446     		mov	ip, r2
 831 0058 6344     		add	r3, r3, ip
 409:User/e-Paper/GUI_Paint.c **** 
 832              		.loc 1 409 37 view .LVU248
 833 005a 0222     		movs	r2, #2
 408:User/e-Paper/GUI_Paint.c ****     int YAddway = Ystart < Yend ? 1 : -1;
 834              		.loc 1 408 37 view .LVU249
 835 005c 0E93     		str	r3, [sp, #56]
 409:User/e-Paper/GUI_Paint.c **** 
 836              		.loc 1 409 5 is_stmt 1 view .LVU250
 409:User/e-Paper/GUI_Paint.c **** 
 837              		.loc 1 409 37 is_stmt 0 view .LVU251
ARM GAS  C:\Users\upo\AppData\Local\Temp\ccEC4369.s 			page 30


 838 005e A845     		cmp	r8, r5
 839 0060 9B41     		sbcs	r3, r3, r3
 840 0062 1A40     		ands	r2, r3
 841 0064 531E     		subs	r3, r2, #1
 842 0066 1193     		str	r3, [sp, #68]
 843              	.LVL81:
 412:User/e-Paper/GUI_Paint.c ****     char Dotted_Len = 0;
 844              		.loc 1 412 5 is_stmt 1 view .LVU252
 845              	.LBB90:
 846              	.LBB91:
 847              	.LBB92:
 848              	.LBB93:
 358:User/e-Paper/GUI_Paint.c ****         {
 849              		.loc 1 358 41 is_stmt 0 view .LVU253
 850 0068 4B46     		mov	r3, r9
 851              	.LVL82:
 358:User/e-Paper/GUI_Paint.c ****         {
 852              		.loc 1 358 41 view .LVU254
 853 006a 5B00     		lsls	r3, r3, #1
 358:User/e-Paper/GUI_Paint.c ****         {
 854              		.loc 1 358 53 view .LVU255
 855 006c 013B     		subs	r3, r3, #1
 856 006e 9A46     		mov	r10, r3
 857              	.LBE93:
 858              	.LBE92:
 859              	.LBE91:
 860              	.LBE90:
 413:User/e-Paper/GUI_Paint.c **** 
 861              		.loc 1 413 10 view .LVU256
 862 0070 0023     		movs	r3, #0
 863 0072 0293     		str	r3, [sp, #8]
 864 0074 744B     		ldr	r3, .L95+8
 412:User/e-Paper/GUI_Paint.c ****     char Dotted_Len = 0;
 865              		.loc 1 412 9 view .LVU257
 866 0076 A21B     		subs	r2, r4, r6
 867 0078 9B46     		mov	fp, r3
 868 007a 5300     		lsls	r3, r2, #1
 869 007c 0793     		str	r3, [sp, #28]
 870              	.LBB103:
 871              	.LBB98:
 350:User/e-Paper/GUI_Paint.c ****         printf("Ypoint = %d , Paint.Height = %d  \r\n ", Ypoint, Paint.Height);
 872              		.loc 1 350 9 view .LVU258
 873 007e 734B     		ldr	r3, .L95+12
 351:User/e-Paper/GUI_Paint.c ****         return;
 874              		.loc 1 351 9 view .LVU259
 875 0080 5F46     		mov	r7, fp
 350:User/e-Paper/GUI_Paint.c ****         printf("Ypoint = %d , Paint.Height = %d  \r\n ", Ypoint, Paint.Height);
 876              		.loc 1 350 9 view .LVU260
 877 0082 1293     		str	r3, [sp, #72]
 351:User/e-Paper/GUI_Paint.c ****         return;
 878              		.loc 1 351 9 view .LVU261
 879 0084 724B     		ldr	r3, .L95+16
 880              	.LBE98:
 881              	.LBE103:
 405:User/e-Paper/GUI_Paint.c **** 
 882              		.loc 1 405 59 view .LVU262
 883 0086 0D96     		str	r6, [sp, #52]
ARM GAS  C:\Users\upo\AppData\Local\Temp\ccEC4369.s 			page 31


 884              	.LBB104:
 885              	.LBB99:
 351:User/e-Paper/GUI_Paint.c ****         return;
 886              		.loc 1 351 9 view .LVU263
 887 0088 1393     		str	r3, [sp, #76]
 888 008a 4346     		mov	r3, r8
 889              	.LBE99:
 890              	.LBE104:
 412:User/e-Paper/GUI_Paint.c ****     char Dotted_Len = 0;
 891              		.loc 1 412 9 view .LVU264
 892 008c 0892     		str	r2, [sp, #32]
 893              	.LVL83:
 413:User/e-Paper/GUI_Paint.c **** 
 894              		.loc 1 413 5 is_stmt 1 view .LVU265
 895              	.LBB105:
 896              	.LBB100:
 351:User/e-Paper/GUI_Paint.c ****         return;
 897              		.loc 1 351 9 is_stmt 0 view .LVU266
 898 008e 0693     		str	r3, [sp, #24]
 899              	.LVL84:
 900              	.L64:
 351:User/e-Paper/GUI_Paint.c ****         return;
 901              		.loc 1 351 9 view .LVU267
 902              	.LBE100:
 903              	.LBE105:
 415:User/e-Paper/GUI_Paint.c ****     {
 904              		.loc 1 415 5 is_stmt 1 view .LVU268
 417:User/e-Paper/GUI_Paint.c ****         // Painted dotted line, 2 point is really virtual
 905              		.loc 1 417 9 view .LVU269
 417:User/e-Paper/GUI_Paint.c ****         // Painted dotted line, 2 point is really virtual
 906              		.loc 1 417 19 is_stmt 0 view .LVU270
 907 0090 029B     		ldr	r3, [sp, #8]
 908              	.LBB106:
 909              	.LBB107:
 347:User/e-Paper/GUI_Paint.c ****     {
 910              		.loc 1 347 23 view .LVU271
 911 0092 BC88     		ldrh	r4, [r7, #4]
 912              	.LBE107:
 913              	.LBE106:
 417:User/e-Paper/GUI_Paint.c ****         // Painted dotted line, 2 point is really virtual
 914              		.loc 1 417 19 view .LVU272
 915 0094 0133     		adds	r3, r3, #1
 916 0096 DEB2     		uxtb	r6, r3
 917              	.LVL85:
 419:User/e-Paper/GUI_Paint.c ****         {
 918              		.loc 1 419 9 is_stmt 1 view .LVU273
 419:User/e-Paper/GUI_Paint.c ****         {
 919              		.loc 1 419 12 is_stmt 0 view .LVU274
 920 0098 0A9B     		ldr	r3, [sp, #40]
 921 009a 012B     		cmp	r3, #1
 922 009c 07D1     		bne	.L65
 419:User/e-Paper/GUI_Paint.c ****         {
 923              		.loc 1 419 63 view .LVU275
 924 009e 0321     		movs	r1, #3
 925 00a0 3000     		movs	r0, r6
 926 00a2 FFF7FEFF 		bl	__aeabi_uidivmod
 927              	.LVL86:
ARM GAS  C:\Users\upo\AppData\Local\Temp\ccEC4369.s 			page 32


 928 00a6 CBB2     		uxtb	r3, r1
 929 00a8 0293     		str	r3, [sp, #8]
 419:User/e-Paper/GUI_Paint.c ****         {
 930              		.loc 1 419 45 view .LVU276
 931 00aa 002B     		cmp	r3, #0
 932 00ac 74D0     		beq	.L94
 933              	.L65:
 427:User/e-Paper/GUI_Paint.c ****         }
 934              		.loc 1 427 13 is_stmt 1 view .LVU277
 935              	.LVL87:
 936              	.LBB113:
 937              	.LBI90:
 344:User/e-Paper/GUI_Paint.c ****                      DOT_PIXEL Dot_Pixel, DOT_STYLE Dot_Style)
 938              		.loc 1 344 6 view .LVU278
 939              	.LBB101:
 347:User/e-Paper/GUI_Paint.c ****     {
 940              		.loc 1 347 5 view .LVU279
 347:User/e-Paper/GUI_Paint.c ****     {
 941              		.loc 1 347 8 is_stmt 0 view .LVU280
 942 00ae 039A     		ldr	r2, [sp, #12]
 943 00b0 A242     		cmp	r2, r4
 944 00b2 66D8     		bhi	.L75
 347:User/e-Paper/GUI_Paint.c ****     {
 945              		.loc 1 347 30 view .LVU281
 946 00b4 FB88     		ldrh	r3, [r7, #6]
 947 00b6 0699     		ldr	r1, [sp, #24]
 948 00b8 8B42     		cmp	r3, r1
 949 00ba 62D3     		bcc	.L75
 950              	.LVL88:
 951              	.LBB97:
 952              	.LBB96:
 358:User/e-Paper/GUI_Paint.c ****         {
 953              		.loc 1 358 37 is_stmt 1 view .LVU282
 954 00bc 5346     		mov	r3, r10
 955 00be 002B     		cmp	r3, #0
 956 00c0 37DD     		ble	.L79
 362:User/e-Paper/GUI_Paint.c ****                     break;
 957              		.loc 1 362 76 is_stmt 0 view .LVU283
 958 00c2 4B46     		mov	r3, r9
 959 00c4 C81A     		subs	r0, r1, r3
 960 00c6 D51A     		subs	r5, r2, r3
 961 00c8 82B2     		uxth	r2, r0
 962 00ca 0592     		str	r2, [sp, #20]
 963 00cc 4A46     		mov	r2, r9
 964 00ce 521A     		subs	r2, r2, r1
 358:User/e-Paper/GUI_Paint.c ****         {
 965              		.loc 1 358 23 view .LVU284
 966 00d0 0023     		movs	r3, #0
 360:User/e-Paper/GUI_Paint.c ****             {
 967              		.loc 1 360 70 view .LVU285
 968 00d2 0132     		adds	r2, r2, #1
 969 00d4 9346     		mov	fp, r2
 970 00d6 8846     		mov	r8, r1
 362:User/e-Paper/GUI_Paint.c ****                     break;
 971              		.loc 1 362 76 view .LVU286
 972 00d8 0490     		str	r0, [sp, #16]
 973 00da ADB2     		uxth	r5, r5
ARM GAS  C:\Users\upo\AppData\Local\Temp\ccEC4369.s 			page 33


 974 00dc 0C96     		str	r6, [sp, #48]
 975 00de 0293     		str	r3, [sp, #8]
 976              	.LVL89:
 977              	.L77:
 360:User/e-Paper/GUI_Paint.c ****             {
 978              		.loc 1 360 41 is_stmt 1 view .LVU287
 362:User/e-Paper/GUI_Paint.c ****                     break;
 979              		.loc 1 362 17 view .LVU288
 362:User/e-Paper/GUI_Paint.c ****                     break;
 980              		.loc 1 362 28 is_stmt 0 view .LVU289
 981 00e0 039A     		ldr	r2, [sp, #12]
 982 00e2 9446     		mov	ip, r2
 983 00e4 6344     		add	r3, r3, ip
 362:User/e-Paper/GUI_Paint.c ****                     break;
 984              		.loc 1 362 20 view .LVU290
 985 00e6 4B45     		cmp	r3, r9
 986 00e8 1ADB     		blt	.L80
 362:User/e-Paper/GUI_Paint.c ****                     break;
 987              		.loc 1 362 55 view .LVU291
 988 00ea 049B     		ldr	r3, [sp, #16]
 989 00ec 002B     		cmp	r3, #0
 990 00ee 17DB     		blt	.L80
 991 00f0 059C     		ldr	r4, [sp, #20]
 992              	.LVL90:
 993              	.L83:
 365:User/e-Paper/GUI_Paint.c ****             }
 994              		.loc 1 365 17 is_stmt 1 view .LVU292
 995              	.LBB94:
 996              	.LBI94:
 200:User/e-Paper/GUI_Paint.c **** {
 997              		.loc 1 200 6 view .LVU293
 998              	.LBB95:
 202:User/e-Paper/GUI_Paint.c ****     {
 999              		.loc 1 202 5 view .LVU294
 202:User/e-Paper/GUI_Paint.c ****     {
 1000              		.loc 1 202 23 is_stmt 0 view .LVU295
 1001 00f2 BE88     		ldrh	r6, [r7, #4]
 202:User/e-Paper/GUI_Paint.c ****     {
 1002              		.loc 1 202 8 view .LVU296
 1003 00f4 B542     		cmp	r5, r6
 1004 00f6 07D8     		bhi	.L81
 202:User/e-Paper/GUI_Paint.c ****     {
 1005              		.loc 1 202 30 view .LVU297
 1006 00f8 FB88     		ldrh	r3, [r7, #6]
 1007 00fa A342     		cmp	r3, r4
 1008 00fc 04D3     		bcc	.L81
 1009 00fe 2100     		movs	r1, r4
 1010 0100 2800     		movs	r0, r5
 1011 0102 019A     		ldr	r2, [sp, #4]
 1012 0104 FFF7FEFF 		bl	Paint_SetPixel.part.0
 1013              	.LVL91:
 1014              	.L81:
 202:User/e-Paper/GUI_Paint.c ****     {
 1015              		.loc 1 202 30 view .LVU298
 1016              	.LBE95:
 1017              	.LBE94:
 360:User/e-Paper/GUI_Paint.c ****             {
ARM GAS  C:\Users\upo\AppData\Local\Temp\ccEC4369.s 			page 34


 1018              		.loc 1 360 70 is_stmt 1 view .LVU299
 360:User/e-Paper/GUI_Paint.c ****             {
 1019              		.loc 1 360 41 view .LVU300
 360:User/e-Paper/GUI_Paint.c ****             {
 1020              		.loc 1 360 70 is_stmt 0 view .LVU301
 1021 0108 5B46     		mov	r3, fp
 1022 010a E318     		adds	r3, r4, r3
 360:User/e-Paper/GUI_Paint.c ****             {
 1023              		.loc 1 360 41 view .LVU302
 1024 010c 1BB2     		sxth	r3, r3
 1025 010e 9A45     		cmp	r10, r3
 1026 0110 06DD     		ble	.L80
 362:User/e-Paper/GUI_Paint.c ****                     break;
 1027              		.loc 1 362 17 is_stmt 1 view .LVU303
 362:User/e-Paper/GUI_Paint.c ****                     break;
 1028              		.loc 1 362 65 is_stmt 0 view .LVU304
 1029 0112 4344     		add	r3, r3, r8
 362:User/e-Paper/GUI_Paint.c ****                     break;
 1030              		.loc 1 362 55 view .LVU305
 1031 0114 4B45     		cmp	r3, r9
 1032 0116 03DB     		blt	.L80
 1033 0118 0134     		adds	r4, r4, #1
 1034              	.LVL92:
 362:User/e-Paper/GUI_Paint.c ****                     break;
 1035              		.loc 1 362 55 view .LVU306
 1036 011a A4B2     		uxth	r4, r4
 1037 011c B542     		cmp	r5, r6
 1038 011e E8D9     		bls	.L83
 1039              	.LVL93:
 1040              	.L80:
 358:User/e-Paper/GUI_Paint.c ****         {
 1041              		.loc 1 358 66 is_stmt 1 view .LVU307
 1042 0120 029E     		ldr	r6, [sp, #8]
 358:User/e-Paper/GUI_Paint.c ****         {
 1043              		.loc 1 358 37 is_stmt 0 view .LVU308
 1044 0122 0135     		adds	r5, r5, #1
 1045 0124 0136     		adds	r6, r6, #1
 358:User/e-Paper/GUI_Paint.c ****         {
 1046              		.loc 1 358 66 view .LVU309
 1047 0126 33B2     		sxth	r3, r6
 1048 0128 0293     		str	r3, [sp, #8]
 1049              	.LVL94:
 358:User/e-Paper/GUI_Paint.c ****         {
 1050              		.loc 1 358 37 is_stmt 1 view .LVU310
 1051 012a ADB2     		uxth	r5, r5
 1052 012c 9A45     		cmp	r10, r3
 1053 012e D7DC     		bgt	.L77
 1054 0130 0C9E     		ldr	r6, [sp, #48]
 1055              	.LVL95:
 1056              	.L79:
 358:User/e-Paper/GUI_Paint.c ****         {
 1057              		.loc 1 358 37 is_stmt 0 view .LVU311
 1058              	.LBE96:
 1059              	.LBE97:
 1060              	.LBE101:
 1061              	.LBE113:
 417:User/e-Paper/GUI_Paint.c ****         // Painted dotted line, 2 point is really virtual
ARM GAS  C:\Users\upo\AppData\Local\Temp\ccEC4369.s 			page 35


 1062              		.loc 1 417 19 view .LVU312
 1063 0132 0296     		str	r6, [sp, #8]
 1064              	.LVL96:
 1065              	.L69:
 429:User/e-Paper/GUI_Paint.c ****         {
 1066              		.loc 1 429 9 is_stmt 1 view .LVU313
 429:User/e-Paper/GUI_Paint.c ****         {
 1067              		.loc 1 429 12 is_stmt 0 view .LVU314
 1068 0134 099B     		ldr	r3, [sp, #36]
 1069 0136 079A     		ldr	r2, [sp, #28]
 1070 0138 9342     		cmp	r3, r2
 1071 013a 11DC     		bgt	.L85
 431:User/e-Paper/GUI_Paint.c ****                 break;
 1072              		.loc 1 431 13 is_stmt 1 view .LVU315
 431:User/e-Paper/GUI_Paint.c ****                 break;
 1073              		.loc 1 431 16 is_stmt 0 view .LVU316
 1074 013c 0F9A     		ldr	r2, [sp, #60]
 1075 013e 039B     		ldr	r3, [sp, #12]
 1076 0140 9A42     		cmp	r2, r3
 1077 0142 75D0     		beq	.L61
 433:User/e-Paper/GUI_Paint.c ****             Xpoint += XAddway;
 1078              		.loc 1 433 13 is_stmt 1 view .LVU317
 1079 0144 089A     		ldr	r2, [sp, #32]
 1080 0146 0D99     		ldr	r1, [sp, #52]
 1081 0148 521A     		subs	r2, r2, r1
 434:User/e-Paper/GUI_Paint.c ****         }
 1082              		.loc 1 434 20 is_stmt 0 view .LVU318
 1083 014a 0E99     		ldr	r1, [sp, #56]
 1084 014c 0892     		str	r2, [sp, #32]
 1085              	.LVL97:
 434:User/e-Paper/GUI_Paint.c ****         }
 1086              		.loc 1 434 13 is_stmt 1 view .LVU319
 434:User/e-Paper/GUI_Paint.c ****         }
 1087              		.loc 1 434 20 is_stmt 0 view .LVU320
 1088 014e 8C46     		mov	ip, r1
 1089 0150 6344     		add	r3, r3, ip
 1090 0152 9BB2     		uxth	r3, r3
 1091 0154 0393     		str	r3, [sp, #12]
 1092              	.LVL98:
 436:User/e-Paper/GUI_Paint.c ****         {
 1093              		.loc 1 436 9 is_stmt 1 view .LVU321
 436:User/e-Paper/GUI_Paint.c ****         {
 1094              		.loc 1 436 15 is_stmt 0 view .LVU322
 1095 0156 5300     		lsls	r3, r2, #1
 436:User/e-Paper/GUI_Paint.c ****         {
 1096              		.loc 1 436 12 view .LVU323
 1097 0158 0B9A     		ldr	r2, [sp, #44]
 1098              	.LVL99:
 436:User/e-Paper/GUI_Paint.c ****         {
 1099              		.loc 1 436 15 view .LVU324
 1100 015a 0793     		str	r3, [sp, #28]
 436:User/e-Paper/GUI_Paint.c ****         {
 1101              		.loc 1 436 12 view .LVU325
 1102 015c 9A42     		cmp	r2, r3
 1103 015e 97DB     		blt	.L64
 1104              	.L85:
 1105              	.LVL100:
ARM GAS  C:\Users\upo\AppData\Local\Temp\ccEC4369.s 			page 36


 438:User/e-Paper/GUI_Paint.c ****                 break;
 1106              		.loc 1 438 13 is_stmt 1 view .LVU326
 438:User/e-Paper/GUI_Paint.c ****                 break;
 1107              		.loc 1 438 16 is_stmt 0 view .LVU327
 1108 0160 109A     		ldr	r2, [sp, #64]
 1109 0162 069B     		ldr	r3, [sp, #24]
 1110 0164 9A42     		cmp	r2, r3
 1111 0166 63D0     		beq	.L61
 440:User/e-Paper/GUI_Paint.c ****             Ypoint += YAddway;
 1112              		.loc 1 440 13 is_stmt 1 view .LVU328
 440:User/e-Paper/GUI_Paint.c ****             Ypoint += YAddway;
 1113              		.loc 1 440 17 is_stmt 0 view .LVU329
 1114 0168 0B99     		ldr	r1, [sp, #44]
 1115 016a 089A     		ldr	r2, [sp, #32]
 1116 016c 8C46     		mov	ip, r1
 441:User/e-Paper/GUI_Paint.c ****         }
 1117              		.loc 1 441 20 view .LVU330
 1118 016e 1199     		ldr	r1, [sp, #68]
 440:User/e-Paper/GUI_Paint.c ****             Ypoint += YAddway;
 1119              		.loc 1 440 17 view .LVU331
 1120 0170 6244     		add	r2, r2, ip
 441:User/e-Paper/GUI_Paint.c ****         }
 1121              		.loc 1 441 20 view .LVU332
 1122 0172 8C46     		mov	ip, r1
 1123 0174 6344     		add	r3, r3, ip
 1124 0176 9BB2     		uxth	r3, r3
 1125 0178 0693     		str	r3, [sp, #24]
 1126              	.LVL101:
 441:User/e-Paper/GUI_Paint.c ****         }
 1127              		.loc 1 441 20 view .LVU333
 1128 017a 5300     		lsls	r3, r2, #1
 440:User/e-Paper/GUI_Paint.c ****             Ypoint += YAddway;
 1129              		.loc 1 440 17 view .LVU334
 1130 017c 0892     		str	r2, [sp, #32]
 1131              	.LVL102:
 441:User/e-Paper/GUI_Paint.c ****         }
 1132              		.loc 1 441 13 is_stmt 1 view .LVU335
 441:User/e-Paper/GUI_Paint.c ****         }
 1133              		.loc 1 441 13 is_stmt 0 view .LVU336
 1134 017e 0793     		str	r3, [sp, #28]
 1135 0180 86E7     		b	.L64
 1136              	.LVL103:
 1137              	.L75:
 1138              	.LBB114:
 1139              	.LBB102:
 349:User/e-Paper/GUI_Paint.c ****         printf("Xpoint = %d , Paint.Width = %d  \r\n ", Xpoint, Paint.Width);
 1140              		.loc 1 349 77 is_stmt 1 view .LVU337
 350:User/e-Paper/GUI_Paint.c ****         printf("Ypoint = %d , Paint.Height = %d  \r\n ", Ypoint, Paint.Height);
 1141              		.loc 1 350 9 view .LVU338
 1142 0182 2200     		movs	r2, r4
 1143 0184 0399     		ldr	r1, [sp, #12]
 1144 0186 1298     		ldr	r0, [sp, #72]
 1145 0188 FFF7FEFF 		bl	printf_
 1146              	.LVL104:
 351:User/e-Paper/GUI_Paint.c ****         return;
 1147              		.loc 1 351 9 view .LVU339
 1148 018c FA88     		ldrh	r2, [r7, #6]
ARM GAS  C:\Users\upo\AppData\Local\Temp\ccEC4369.s 			page 37


 1149 018e 0699     		ldr	r1, [sp, #24]
 1150 0190 1398     		ldr	r0, [sp, #76]
 1151 0192 FFF7FEFF 		bl	printf_
 1152              	.LVL105:
 352:User/e-Paper/GUI_Paint.c ****     }
 1153              		.loc 1 352 9 view .LVU340
 1154 0196 CCE7     		b	.L79
 1155              	.LVL106:
 1156              	.L94:
 352:User/e-Paper/GUI_Paint.c ****     }
 1157              		.loc 1 352 9 is_stmt 0 view .LVU341
 1158              	.LBE102:
 1159              	.LBE114:
 422:User/e-Paper/GUI_Paint.c ****             Dotted_Len = 0;
 1160              		.loc 1 422 13 is_stmt 1 view .LVU342
 1161              	.LBB115:
 1162              	.LBI106:
 344:User/e-Paper/GUI_Paint.c ****                      DOT_PIXEL Dot_Pixel, DOT_STYLE Dot_Style)
 1163              		.loc 1 344 6 view .LVU343
 1164              	.LBB112:
 347:User/e-Paper/GUI_Paint.c ****     {
 1165              		.loc 1 347 5 view .LVU344
 347:User/e-Paper/GUI_Paint.c ****     {
 1166              		.loc 1 347 8 is_stmt 0 view .LVU345
 1167 0198 039A     		ldr	r2, [sp, #12]
 1168 019a A242     		cmp	r2, r4
 1169 019c 3DD8     		bhi	.L66
 347:User/e-Paper/GUI_Paint.c ****     {
 1170              		.loc 1 347 30 view .LVU346
 1171 019e FB88     		ldrh	r3, [r7, #6]
 1172 01a0 0699     		ldr	r1, [sp, #24]
 1173 01a2 8B42     		cmp	r3, r1
 1174 01a4 39D3     		bcc	.L66
 1175              	.LVL107:
 1176              	.LBB108:
 1177              	.LBB109:
 358:User/e-Paper/GUI_Paint.c ****         {
 1178              		.loc 1 358 37 is_stmt 1 view .LVU347
 1179 01a6 5346     		mov	r3, r10
 1180 01a8 002B     		cmp	r3, #0
 1181 01aa C3DD     		ble	.L69
 362:User/e-Paper/GUI_Paint.c ****                     break;
 1182              		.loc 1 362 76 is_stmt 0 view .LVU348
 1183 01ac 4B46     		mov	r3, r9
 1184 01ae C81A     		subs	r0, r1, r3
 1185 01b0 D51A     		subs	r5, r2, r3
 1186 01b2 82B2     		uxth	r2, r0
 1187 01b4 0C92     		str	r2, [sp, #48]
 1188 01b6 4A46     		mov	r2, r9
 1189 01b8 521A     		subs	r2, r2, r1
 358:User/e-Paper/GUI_Paint.c ****         {
 1190              		.loc 1 358 23 view .LVU349
 1191 01ba 0023     		movs	r3, #0
 360:User/e-Paper/GUI_Paint.c ****             {
 1192              		.loc 1 360 70 view .LVU350
 1193 01bc 0132     		adds	r2, r2, #1
 1194 01be 9046     		mov	r8, r2
ARM GAS  C:\Users\upo\AppData\Local\Temp\ccEC4369.s 			page 38


 1195 01c0 8B46     		mov	fp, r1
 362:User/e-Paper/GUI_Paint.c ****                     break;
 1196              		.loc 1 362 76 view .LVU351
 1197 01c2 0490     		str	r0, [sp, #16]
 1198 01c4 ADB2     		uxth	r5, r5
 1199 01c6 0593     		str	r3, [sp, #20]
 1200              	.LVL108:
 1201              	.L68:
 360:User/e-Paper/GUI_Paint.c ****             {
 1202              		.loc 1 360 41 is_stmt 1 view .LVU352
 362:User/e-Paper/GUI_Paint.c ****                     break;
 1203              		.loc 1 362 17 view .LVU353
 362:User/e-Paper/GUI_Paint.c ****                     break;
 1204              		.loc 1 362 28 is_stmt 0 view .LVU354
 1205 01c8 039A     		ldr	r2, [sp, #12]
 1206 01ca 9446     		mov	ip, r2
 1207 01cc 6344     		add	r3, r3, ip
 362:User/e-Paper/GUI_Paint.c ****                     break;
 1208              		.loc 1 362 20 view .LVU355
 1209 01ce 4B45     		cmp	r3, r9
 1210 01d0 1ADB     		blt	.L71
 362:User/e-Paper/GUI_Paint.c ****                     break;
 1211              		.loc 1 362 55 view .LVU356
 1212 01d2 049B     		ldr	r3, [sp, #16]
 1213 01d4 002B     		cmp	r3, #0
 1214 01d6 17DB     		blt	.L71
 1215 01d8 0C9C     		ldr	r4, [sp, #48]
 1216              	.LVL109:
 1217              	.L74:
 365:User/e-Paper/GUI_Paint.c ****             }
 1218              		.loc 1 365 17 is_stmt 1 view .LVU357
 1219              	.LBB110:
 1220              	.LBI110:
 200:User/e-Paper/GUI_Paint.c **** {
 1221              		.loc 1 200 6 view .LVU358
 1222              	.LBB111:
 202:User/e-Paper/GUI_Paint.c ****     {
 1223              		.loc 1 202 5 view .LVU359
 202:User/e-Paper/GUI_Paint.c ****     {
 1224              		.loc 1 202 23 is_stmt 0 view .LVU360
 1225 01da BE88     		ldrh	r6, [r7, #4]
 202:User/e-Paper/GUI_Paint.c ****     {
 1226              		.loc 1 202 8 view .LVU361
 1227 01dc AE42     		cmp	r6, r5
 1228 01de 07D3     		bcc	.L72
 202:User/e-Paper/GUI_Paint.c ****     {
 1229              		.loc 1 202 30 view .LVU362
 1230 01e0 FB88     		ldrh	r3, [r7, #6]
 1231 01e2 A342     		cmp	r3, r4
 1232 01e4 04D3     		bcc	.L72
 1233 01e6 FF22     		movs	r2, #255
 1234 01e8 2100     		movs	r1, r4
 1235 01ea 2800     		movs	r0, r5
 1236 01ec FFF7FEFF 		bl	Paint_SetPixel.part.0
 1237              	.LVL110:
 1238              	.L72:
 202:User/e-Paper/GUI_Paint.c ****     {
ARM GAS  C:\Users\upo\AppData\Local\Temp\ccEC4369.s 			page 39


 1239              		.loc 1 202 30 view .LVU363
 1240              	.LBE111:
 1241              	.LBE110:
 360:User/e-Paper/GUI_Paint.c ****             {
 1242              		.loc 1 360 70 is_stmt 1 view .LVU364
 360:User/e-Paper/GUI_Paint.c ****             {
 1243              		.loc 1 360 41 view .LVU365
 360:User/e-Paper/GUI_Paint.c ****             {
 1244              		.loc 1 360 70 is_stmt 0 view .LVU366
 1245 01f0 4346     		mov	r3, r8
 1246 01f2 E318     		adds	r3, r4, r3
 360:User/e-Paper/GUI_Paint.c ****             {
 1247              		.loc 1 360 41 view .LVU367
 1248 01f4 1BB2     		sxth	r3, r3
 1249 01f6 5345     		cmp	r3, r10
 1250 01f8 06DA     		bge	.L71
 362:User/e-Paper/GUI_Paint.c ****                     break;
 1251              		.loc 1 362 17 is_stmt 1 view .LVU368
 362:User/e-Paper/GUI_Paint.c ****                     break;
 1252              		.loc 1 362 65 is_stmt 0 view .LVU369
 1253 01fa 5B44     		add	r3, r3, fp
 362:User/e-Paper/GUI_Paint.c ****                     break;
 1254              		.loc 1 362 55 view .LVU370
 1255 01fc 4B45     		cmp	r3, r9
 1256 01fe 03DB     		blt	.L71
 1257 0200 0134     		adds	r4, r4, #1
 1258              	.LVL111:
 362:User/e-Paper/GUI_Paint.c ****                     break;
 1259              		.loc 1 362 55 view .LVU371
 1260 0202 A4B2     		uxth	r4, r4
 1261 0204 AE42     		cmp	r6, r5
 1262 0206 E8D2     		bcs	.L74
 1263              	.LVL112:
 1264              	.L71:
 358:User/e-Paper/GUI_Paint.c ****         {
 1265              		.loc 1 358 66 is_stmt 1 view .LVU372
 1266 0208 059E     		ldr	r6, [sp, #20]
 358:User/e-Paper/GUI_Paint.c ****         {
 1267              		.loc 1 358 37 is_stmt 0 view .LVU373
 1268 020a 0135     		adds	r5, r5, #1
 1269 020c 0136     		adds	r6, r6, #1
 358:User/e-Paper/GUI_Paint.c ****         {
 1270              		.loc 1 358 66 view .LVU374
 1271 020e 33B2     		sxth	r3, r6
 1272 0210 0593     		str	r3, [sp, #20]
 1273              	.LVL113:
 358:User/e-Paper/GUI_Paint.c ****         {
 1274              		.loc 1 358 37 is_stmt 1 view .LVU375
 1275 0212 ADB2     		uxth	r5, r5
 1276 0214 5345     		cmp	r3, r10
 1277 0216 D7DB     		blt	.L68
 1278 0218 8CE7     		b	.L69
 1279              	.LVL114:
 1280              	.L66:
 358:User/e-Paper/GUI_Paint.c ****         {
 1281              		.loc 1 358 37 is_stmt 0 view .LVU376
 1282              	.LBE109:
ARM GAS  C:\Users\upo\AppData\Local\Temp\ccEC4369.s 			page 40


 1283              	.LBE108:
 349:User/e-Paper/GUI_Paint.c ****         printf("Xpoint = %d , Paint.Width = %d  \r\n ", Xpoint, Paint.Width);
 1284              		.loc 1 349 77 is_stmt 1 view .LVU377
 350:User/e-Paper/GUI_Paint.c ****         printf("Ypoint = %d , Paint.Height = %d  \r\n ", Ypoint, Paint.Height);
 1285              		.loc 1 350 9 view .LVU378
 1286 021a 2200     		movs	r2, r4
 1287 021c 0399     		ldr	r1, [sp, #12]
 1288 021e 1298     		ldr	r0, [sp, #72]
 1289 0220 FFF7FEFF 		bl	printf_
 1290              	.LVL115:
 351:User/e-Paper/GUI_Paint.c ****         return;
 1291              		.loc 1 351 9 view .LVU379
 1292 0224 FA88     		ldrh	r2, [r7, #6]
 1293 0226 0699     		ldr	r1, [sp, #24]
 1294 0228 0948     		ldr	r0, .L95+16
 1295 022a FFF7FEFF 		bl	printf_
 1296              	.LVL116:
 352:User/e-Paper/GUI_Paint.c ****     }
 1297              		.loc 1 352 9 view .LVU380
 1298 022e 81E7     		b	.L69
 1299              	.LVL117:
 1300              	.L61:
 352:User/e-Paper/GUI_Paint.c ****     }
 1301              		.loc 1 352 9 is_stmt 0 view .LVU381
 1302              	.LBE112:
 1303              	.LBE115:
 444:User/e-Paper/GUI_Paint.c **** 
 1304              		.loc 1 444 1 view .LVU382
 1305 0230 15B0     		add	sp, sp, #84
 1306              		@ sp needed
 1307 0232 F0BC     		pop	{r4, r5, r6, r7}
 1308 0234 BB46     		mov	fp, r7
 1309 0236 B246     		mov	r10, r6
 1310 0238 A946     		mov	r9, r5
 1311 023a A046     		mov	r8, r4
 1312 023c F0BD     		pop	{r4, r5, r6, r7, pc}
 1313              	.L96:
 1314 023e C046     		.align	2
 1315              	.L95:
 1316 0240 0200FFFF 		.word	-65534
 1317 0244 FFFF0000 		.word	65535
 1318 0248 00000000 		.word	Paint
 1319 024c 00000000 		.word	.LC3
 1320 0250 24000000 		.word	.LC5
 1321              		.cfi_endproc
 1322              	.LFE1446:
 1324              		.section	.text.Paint_DrawPoint.constprop.0,"ax",%progbits
 1325              		.align	1
 1326              		.p2align 2,,3
 1327              		.syntax unified
 1328              		.code	16
 1329              		.thumb_func
 1331              	Paint_DrawPoint.constprop.0:
 1332              	.LVL118:
 1333              	.LFB1453:
 344:User/e-Paper/GUI_Paint.c ****                      DOT_PIXEL Dot_Pixel, DOT_STYLE Dot_Style)
 1334              		.loc 1 344 6 is_stmt 1 view -0
ARM GAS  C:\Users\upo\AppData\Local\Temp\ccEC4369.s 			page 41


 1335              		.cfi_startproc
 1336              		@ args = 0, pretend = 0, frame = 0
 1337              		@ frame_needed = 0, uses_anonymous_args = 0
 347:User/e-Paper/GUI_Paint.c ****     {
 1338              		.loc 1 347 5 view .LVU384
 344:User/e-Paper/GUI_Paint.c ****                      DOT_PIXEL Dot_Pixel, DOT_STYLE Dot_Style)
 1339              		.loc 1 344 6 is_stmt 0 view .LVU385
 1340 0000 70B5     		push	{r4, r5, r6, lr}
 1341              	.LCFI7:
 1342              		.cfi_def_cfa_offset 16
 1343              		.cfi_offset 4, -16
 1344              		.cfi_offset 5, -12
 1345              		.cfi_offset 6, -8
 1346              		.cfi_offset 14, -4
 347:User/e-Paper/GUI_Paint.c ****     {
 1347              		.loc 1 347 23 view .LVU386
 1348 0002 4D4D     		ldr	r5, .L127
 344:User/e-Paper/GUI_Paint.c ****                      DOT_PIXEL Dot_Pixel, DOT_STYLE Dot_Style)
 1349              		.loc 1 344 6 view .LVU387
 1350 0004 1300     		movs	r3, r2
 347:User/e-Paper/GUI_Paint.c ****     {
 1351              		.loc 1 347 23 view .LVU388
 1352 0006 AA88     		ldrh	r2, [r5, #4]
 1353              	.LVL119:
 344:User/e-Paper/GUI_Paint.c ****                      DOT_PIXEL Dot_Pixel, DOT_STYLE Dot_Style)
 1354              		.loc 1 344 6 view .LVU389
 1355 0008 0C00     		movs	r4, r1
 347:User/e-Paper/GUI_Paint.c ****     {
 1356              		.loc 1 347 8 view .LVU390
 1357 000a 8242     		cmp	r2, r0
 1358 000c 49D3     		bcc	.L98
 347:User/e-Paper/GUI_Paint.c ****     {
 1359              		.loc 1 347 30 view .LVU391
 1360 000e E988     		ldrh	r1, [r5, #6]
 1361              	.LVL120:
 347:User/e-Paper/GUI_Paint.c ****     {
 1362              		.loc 1 347 30 view .LVU392
 1363 0010 A142     		cmp	r1, r4
 1364 0012 46D3     		bcc	.L98
 1365              	.LVL121:
 1366              	.LBB131:
 1367              	.LBB132:
 358:User/e-Paper/GUI_Paint.c ****         {
 1368              		.loc 1 358 37 is_stmt 1 view .LVU393
 360:User/e-Paper/GUI_Paint.c ****             {
 1369              		.loc 1 360 41 view .LVU394
 362:User/e-Paper/GUI_Paint.c ****                     break;
 1370              		.loc 1 362 17 view .LVU395
 362:User/e-Paper/GUI_Paint.c ****                     break;
 1371              		.loc 1 362 20 is_stmt 0 view .LVU396
 1372 0014 0028     		cmp	r0, #0
 1373 0016 3AD0     		beq	.L97
 362:User/e-Paper/GUI_Paint.c ****                     break;
 1374              		.loc 1 362 55 view .LVU397
 1375 0018 002C     		cmp	r4, #0
 1376 001a 38D0     		beq	.L97
 365:User/e-Paper/GUI_Paint.c ****             }
ARM GAS  C:\Users\upo\AppData\Local\Temp\ccEC4369.s 			page 42


 1377              		.loc 1 365 17 is_stmt 1 view .LVU398
 1378              	.LVL122:
 1379              	.LBB133:
 1380              	.LBI133:
 200:User/e-Paper/GUI_Paint.c **** {
 1381              		.loc 1 200 6 view .LVU399
 1382              	.LBB134:
 202:User/e-Paper/GUI_Paint.c ****     {
 1383              		.loc 1 202 5 view .LVU400
 1384              	.LBB135:
 1385              	.LBI135:
 200:User/e-Paper/GUI_Paint.c **** {
 1386              		.loc 1 200 6 view .LVU401
 1387              	.LBB136:
 207:User/e-Paper/GUI_Paint.c **** 
 1388              		.loc 1 207 5 view .LVU402
 209:User/e-Paper/GUI_Paint.c ****     {
 1389              		.loc 1 209 5 view .LVU403
 209:User/e-Paper/GUI_Paint.c ****     {
 1390              		.loc 1 209 18 is_stmt 0 view .LVU404
 1391 001c EA89     		ldrh	r2, [r5, #14]
 209:User/e-Paper/GUI_Paint.c ****     {
 1392              		.loc 1 209 5 view .LVU405
 1393 001e B42A     		cmp	r2, #180
 1394 0020 00D1     		bne	.LCB1364
 1395 0022 6BE0     		b	.L100	@long jump
 1396              	.LCB1364:
 1397              	.LBE136:
 1398              	.LBE135:
 1399              	.LBE134:
 1400              	.LBE133:
 365:User/e-Paper/GUI_Paint.c ****             }
 1401              		.loc 1 365 17 view .LVU406
 1402 0024 661E     		subs	r6, r4, #1
 1403 0026 B6B2     		uxth	r6, r6
 1404              	.LBB153:
 1405              	.LBB149:
 1406              	.LBB145:
 1407              	.LBB141:
 209:User/e-Paper/GUI_Paint.c ****     {
 1408              		.loc 1 209 5 view .LVU407
 1409 0028 B42A     		cmp	r2, #180
 1410 002a 31D8     		bhi	.L101
 1411              	.LBE141:
 1412              	.LBE145:
 1413              	.LBE149:
 1414              	.LBE153:
 365:User/e-Paper/GUI_Paint.c ****             }
 1415              		.loc 1 365 17 view .LVU408
 1416 002c 0138     		subs	r0, r0, #1
 1417              	.LVL123:
 365:User/e-Paper/GUI_Paint.c ****             }
 1418              		.loc 1 365 17 view .LVU409
 1419 002e 81B2     		uxth	r1, r0
 1420              	.LBB154:
 1421              	.LBB150:
 1422              	.LBB146:
ARM GAS  C:\Users\upo\AppData\Local\Temp\ccEC4369.s 			page 43


 1423              	.LBB142:
 209:User/e-Paper/GUI_Paint.c ****     {
 1424              		.loc 1 209 5 view .LVU410
 1425 0030 002A     		cmp	r2, #0
 1426 0032 05D0     		beq	.L102
 1427 0034 5A2A     		cmp	r2, #90
 1428 0036 2AD1     		bne	.L97
 216:User/e-Paper/GUI_Paint.c ****         Y = Xpoint;
 1429              		.loc 1 216 9 is_stmt 1 view .LVU411
 216:User/e-Paper/GUI_Paint.c ****         Y = Xpoint;
 1430              		.loc 1 216 11 is_stmt 0 view .LVU412
 1431 0038 2A89     		ldrh	r2, [r5, #8]
 1432 003a 0E00     		movs	r6, r1
 1433 003c 121B     		subs	r2, r2, r4
 1434              	.LVL124:
 217:User/e-Paper/GUI_Paint.c ****         break;
 1435              		.loc 1 217 9 is_stmt 1 view .LVU413
 218:User/e-Paper/GUI_Paint.c ****     case 180:
 1436              		.loc 1 218 9 view .LVU414
 216:User/e-Paper/GUI_Paint.c ****         Y = Xpoint;
 1437              		.loc 1 216 11 is_stmt 0 view .LVU415
 1438 003e 91B2     		uxth	r1, r2
 1439              	.LVL125:
 1440              	.L102:
 231:User/e-Paper/GUI_Paint.c ****     {
 1441              		.loc 1 231 5 is_stmt 1 view .LVU416
 231:User/e-Paper/GUI_Paint.c ****     {
 1442              		.loc 1 231 18 is_stmt 0 view .LVU417
 1443 0040 2A8A     		ldrh	r2, [r5, #16]
 231:User/e-Paper/GUI_Paint.c ****     {
 1444              		.loc 1 231 5 view .LVU418
 1445 0042 022A     		cmp	r2, #2
 1446 0044 43D0     		beq	.L105
 1447 0046 37D8     		bhi	.L106
 1448 0048 002A     		cmp	r2, #0
 1449 004a 44D0     		beq	.L124
 236:User/e-Paper/GUI_Paint.c ****         break;
 1450              		.loc 1 236 9 is_stmt 1 view .LVU419
 236:User/e-Paper/GUI_Paint.c ****         break;
 1451              		.loc 1 236 18 is_stmt 0 view .LVU420
 1452 004c 2A89     		ldrh	r2, [r5, #8]
 236:User/e-Paper/GUI_Paint.c ****         break;
 1453              		.loc 1 236 11 view .LVU421
 1454 004e 501E     		subs	r0, r2, #1
 1455 0050 411A     		subs	r1, r0, r1
 1456              	.LVL126:
 236:User/e-Paper/GUI_Paint.c ****         break;
 1457              		.loc 1 236 11 view .LVU422
 1458 0052 89B2     		uxth	r1, r1
 1459              	.LVL127:
 237:User/e-Paper/GUI_Paint.c ****     case MIRROR_VERTICAL:
 1460              		.loc 1 237 9 is_stmt 1 view .LVU423
 1461              	.L110:
 249:User/e-Paper/GUI_Paint.c ****     {
 1462              		.loc 1 249 5 view .LVU424
 249:User/e-Paper/GUI_Paint.c ****     {
 1463              		.loc 1 249 8 is_stmt 0 view .LVU425
ARM GAS  C:\Users\upo\AppData\Local\Temp\ccEC4369.s 			page 44


 1464 0054 8A42     		cmp	r2, r1
 1465 0056 1AD3     		bcc	.L97
 249:User/e-Paper/GUI_Paint.c ****     {
 1466              		.loc 1 249 31 view .LVU426
 1467 0058 6A89     		ldrh	r2, [r5, #10]
 1468 005a B242     		cmp	r2, r6
 1469 005c 17D3     		bcc	.L97
 255:User/e-Paper/GUI_Paint.c ****     {
 1470              		.loc 1 255 5 is_stmt 1 view .LVU427
 255:User/e-Paper/GUI_Paint.c ****     {
 1471              		.loc 1 255 14 is_stmt 0 view .LVU428
 1472 005e EA8A     		ldrh	r2, [r5, #22]
 255:User/e-Paper/GUI_Paint.c ****     {
 1473              		.loc 1 255 8 view .LVU429
 1474 0060 022A     		cmp	r2, #2
 1475 0062 3AD0     		beq	.L125
 264:User/e-Paper/GUI_Paint.c ****     {
 1476              		.loc 1 264 10 is_stmt 1 view .LVU430
 264:User/e-Paper/GUI_Paint.c ****     {
 1477              		.loc 1 264 13 is_stmt 0 view .LVU431
 1478 0064 042A     		cmp	r2, #4
 1479 0066 53D0     		beq	.L126
 273:User/e-Paper/GUI_Paint.c ****     {
 1480              		.loc 1 273 10 is_stmt 1 view .LVU432
 273:User/e-Paper/GUI_Paint.c ****     {
 1481              		.loc 1 273 13 is_stmt 0 view .LVU433
 1482 0068 072A     		cmp	r2, #7
 1483 006a 10D1     		bne	.L97
 1484              	.LBB137:
 275:User/e-Paper/GUI_Paint.c ****         UBYTE Rdata = Paint.Image[Addr];
 1485              		.loc 1 275 9 is_stmt 1 view .LVU434
 1486              	.LVL128:
 276:User/e-Paper/GUI_Paint.c ****         Rdata = Rdata & (~(0xF0 >> ((X % 2) * 4))); // Clear first, then set value
 1487              		.loc 1 276 9 view .LVU435
 275:User/e-Paper/GUI_Paint.c ****         UBYTE Rdata = Paint.Image[Addr];
 1488              		.loc 1 275 41 is_stmt 0 view .LVU436
 1489 006c 6A8A     		ldrh	r2, [r5, #18]
 277:User/e-Paper/GUI_Paint.c ****         Paint.Image[Addr] = Rdata | ((Color << 4) >> ((X % 2) * 4));
 1490              		.loc 1 277 33 view .LVU437
 1491 006e F020     		movs	r0, #240
 275:User/e-Paper/GUI_Paint.c ****         UBYTE Rdata = Paint.Image[Addr];
 1492              		.loc 1 275 34 view .LVU438
 1493 0070 5643     		muls	r6, r2
 1494              	.LVL129:
 275:User/e-Paper/GUI_Paint.c ****         UBYTE Rdata = Paint.Image[Addr];
 1495              		.loc 1 275 26 view .LVU439
 1496 0072 4A08     		lsrs	r2, r1, #1
 1497 0074 92B2     		uxth	r2, r2
 275:User/e-Paper/GUI_Paint.c ****         UBYTE Rdata = Paint.Image[Addr];
 1498              		.loc 1 275 30 view .LVU440
 1499 0076 B618     		adds	r6, r6, r2
 277:User/e-Paper/GUI_Paint.c ****         Paint.Image[Addr] = Rdata | ((Color << 4) >> ((X % 2) * 4));
 1500              		.loc 1 277 40 view .LVU441
 1501 0078 0122     		movs	r2, #1
 1502 007a 0A40     		ands	r2, r1
 277:User/e-Paper/GUI_Paint.c ****         Paint.Image[Addr] = Rdata | ((Color << 4) >> ((X % 2) * 4));
 1503              		.loc 1 277 45 view .LVU442
ARM GAS  C:\Users\upo\AppData\Local\Temp\ccEC4369.s 			page 45


 1504 007c 9200     		lsls	r2, r2, #2
 277:User/e-Paper/GUI_Paint.c ****         Paint.Image[Addr] = Rdata | ((Color << 4) >> ((X % 2) * 4));
 1505              		.loc 1 277 33 view .LVU443
 1506 007e 1041     		asrs	r0, r0, r2
 278:User/e-Paper/GUI_Paint.c ****         // printf("Add =  %d ,data = %d\r\n",Addr,Rdata);
 1507              		.loc 1 278 45 view .LVU444
 1508 0080 1B01     		lsls	r3, r3, #4
 1509              	.LVL130:
 278:User/e-Paper/GUI_Paint.c ****         // printf("Add =  %d ,data = %d\r\n",Addr,Rdata);
 1510              		.loc 1 278 51 view .LVU445
 1511 0082 1341     		asrs	r3, r3, r2
 276:User/e-Paper/GUI_Paint.c ****         Rdata = Rdata & (~(0xF0 >> ((X % 2) * 4))); // Clear first, then set value
 1512              		.loc 1 276 34 view .LVU446
 1513 0084 2C68     		ldr	r4, [r5]
 1514              	.LVL131:
 277:User/e-Paper/GUI_Paint.c ****         Paint.Image[Addr] = Rdata | ((Color << 4) >> ((X % 2) * 4));
 1515              		.loc 1 277 9 is_stmt 1 view .LVU447
 278:User/e-Paper/GUI_Paint.c ****         // printf("Add =  %d ,data = %d\r\n",Addr,Rdata);
 1516              		.loc 1 278 9 view .LVU448
 277:User/e-Paper/GUI_Paint.c ****         Paint.Image[Addr] = Rdata | ((Color << 4) >> ((X % 2) * 4));
 1517              		.loc 1 277 23 is_stmt 0 view .LVU449
 1518 0086 A15D     		ldrb	r1, [r4, r6]
 1519              	.LVL132:
 277:User/e-Paper/GUI_Paint.c ****         Paint.Image[Addr] = Rdata | ((Color << 4) >> ((X % 2) * 4));
 1520              		.loc 1 277 23 view .LVU450
 1521 0088 8143     		bics	r1, r0
 278:User/e-Paper/GUI_Paint.c ****         // printf("Add =  %d ,data = %d\r\n",Addr,Rdata);
 1522              		.loc 1 278 35 view .LVU451
 1523 008a 0B43     		orrs	r3, r1
 278:User/e-Paper/GUI_Paint.c ****         // printf("Add =  %d ,data = %d\r\n",Addr,Rdata);
 1524              		.loc 1 278 27 view .LVU452
 1525 008c A355     		strb	r3, [r4, r6]
 1526              	.LVL133:
 1527              	.L97:
 278:User/e-Paper/GUI_Paint.c ****         // printf("Add =  %d ,data = %d\r\n",Addr,Rdata);
 1528              		.loc 1 278 27 view .LVU453
 1529              	.LBE137:
 1530              	.LBE142:
 1531              	.LBE146:
 1532              	.LBE150:
 1533              	.LBE154:
 1534              	.LBE132:
 1535              	.LBE131:
 379:User/e-Paper/GUI_Paint.c **** 
 1536              		.loc 1 379 1 view .LVU454
 1537              		@ sp needed
 1538 008e 70BD     		pop	{r4, r5, r6, pc}
 1539              	.LVL134:
 1540              	.L101:
 1541              	.LBB159:
 1542              	.LBB157:
 1543              	.LBB155:
 1544              	.LBB151:
 1545              	.LBB147:
 1546              	.LBB143:
 209:User/e-Paper/GUI_Paint.c ****     {
 1547              		.loc 1 209 5 view .LVU455
ARM GAS  C:\Users\upo\AppData\Local\Temp\ccEC4369.s 			page 46


 1548 0090 8721     		movs	r1, #135
 1549 0092 4900     		lsls	r1, r1, #1
 1550 0094 8A42     		cmp	r2, r1
 1551 0096 FAD1     		bne	.L97
 224:User/e-Paper/GUI_Paint.c ****         Y = Paint.HeightMemory - Xpoint - 1;
 1552              		.loc 1 224 9 is_stmt 1 view .LVU456
 1553              	.LVL135:
 225:User/e-Paper/GUI_Paint.c ****         break;
 1554              		.loc 1 225 9 view .LVU457
 225:User/e-Paper/GUI_Paint.c ****         break;
 1555              		.loc 1 225 11 is_stmt 0 view .LVU458
 1556 0098 6A89     		ldrh	r2, [r5, #10]
 1557 009a 3100     		movs	r1, r6
 1558 009c 121A     		subs	r2, r2, r0
 1559              	.LVL136:
 226:User/e-Paper/GUI_Paint.c ****     default:
 1560              		.loc 1 226 9 is_stmt 1 view .LVU459
 225:User/e-Paper/GUI_Paint.c ****         break;
 1561              		.loc 1 225 11 is_stmt 0 view .LVU460
 1562 009e 96B2     		uxth	r6, r2
 1563 00a0 CEE7     		b	.L102
 1564              	.LVL137:
 1565              	.L98:
 225:User/e-Paper/GUI_Paint.c ****         break;
 1566              		.loc 1 225 11 view .LVU461
 1567              	.LBE143:
 1568              	.LBE147:
 1569              	.LBE151:
 1570              	.LBE155:
 1571              	.LBE157:
 1572              	.LBE159:
 349:User/e-Paper/GUI_Paint.c ****         printf("Xpoint = %d , Paint.Width = %d  \r\n ", Xpoint, Paint.Width);
 1573              		.loc 1 349 77 is_stmt 1 view .LVU462
 350:User/e-Paper/GUI_Paint.c ****         printf("Ypoint = %d , Paint.Height = %d  \r\n ", Ypoint, Paint.Height);
 1574              		.loc 1 350 9 view .LVU463
 1575 00a2 264B     		ldr	r3, .L127+4
 1576 00a4 0100     		movs	r1, r0
 1577 00a6 1800     		movs	r0, r3
 1578              	.LVL138:
 350:User/e-Paper/GUI_Paint.c ****         printf("Ypoint = %d , Paint.Height = %d  \r\n ", Ypoint, Paint.Height);
 1579              		.loc 1 350 9 is_stmt 0 view .LVU464
 1580 00a8 FFF7FEFF 		bl	printf_
 1581              	.LVL139:
 351:User/e-Paper/GUI_Paint.c ****         return;
 1582              		.loc 1 351 9 is_stmt 1 view .LVU465
 1583 00ac 2100     		movs	r1, r4
 1584 00ae EA88     		ldrh	r2, [r5, #6]
 1585 00b0 2348     		ldr	r0, .L127+8
 1586 00b2 FFF7FEFF 		bl	printf_
 1587              	.LVL140:
 352:User/e-Paper/GUI_Paint.c ****     }
 1588              		.loc 1 352 9 view .LVU466
 1589 00b6 EAE7     		b	.L97
 1590              	.LVL141:
 1591              	.L106:
 1592              	.LBB160:
 1593              	.LBB158:
ARM GAS  C:\Users\upo\AppData\Local\Temp\ccEC4369.s 			page 47


 1594              	.LBB156:
 1595              	.LBB152:
 1596              	.LBB148:
 1597              	.LBB144:
 231:User/e-Paper/GUI_Paint.c ****     {
 1598              		.loc 1 231 5 is_stmt 0 view .LVU467
 1599 00b8 032A     		cmp	r2, #3
 1600 00ba E8D1     		bne	.L97
 242:User/e-Paper/GUI_Paint.c ****         Y = Paint.HeightMemory - Y - 1;
 1601              		.loc 1 242 9 is_stmt 1 view .LVU468
 242:User/e-Paper/GUI_Paint.c ****         Y = Paint.HeightMemory - Y - 1;
 1602              		.loc 1 242 18 is_stmt 0 view .LVU469
 1603 00bc 2A89     		ldrh	r2, [r5, #8]
 242:User/e-Paper/GUI_Paint.c ****         Y = Paint.HeightMemory - Y - 1;
 1604              		.loc 1 242 11 view .LVU470
 1605 00be 501E     		subs	r0, r2, #1
 1606 00c0 411A     		subs	r1, r0, r1
 1607              	.LVL142:
 243:User/e-Paper/GUI_Paint.c ****         break;
 1608              		.loc 1 243 11 view .LVU471
 1609 00c2 6889     		ldrh	r0, [r5, #10]
 242:User/e-Paper/GUI_Paint.c ****         Y = Paint.HeightMemory - Y - 1;
 1610              		.loc 1 242 11 view .LVU472
 1611 00c4 89B2     		uxth	r1, r1
 1612              	.LVL143:
 243:User/e-Paper/GUI_Paint.c ****         break;
 1613              		.loc 1 243 9 is_stmt 1 view .LVU473
 243:User/e-Paper/GUI_Paint.c ****         break;
 1614              		.loc 1 243 11 is_stmt 0 view .LVU474
 1615 00c6 0138     		subs	r0, r0, #1
 1616 00c8 861B     		subs	r6, r0, r6
 1617              	.LVL144:
 243:User/e-Paper/GUI_Paint.c ****         break;
 1618              		.loc 1 243 11 view .LVU475
 1619 00ca B6B2     		uxth	r6, r6
 1620              	.LVL145:
 244:User/e-Paper/GUI_Paint.c ****     default:
 1621              		.loc 1 244 9 is_stmt 1 view .LVU476
 1622 00cc C2E7     		b	.L110
 1623              	.L105:
 239:User/e-Paper/GUI_Paint.c ****         break;
 1624              		.loc 1 239 9 view .LVU477
 239:User/e-Paper/GUI_Paint.c ****         break;
 1625              		.loc 1 239 11 is_stmt 0 view .LVU478
 1626 00ce 6A89     		ldrh	r2, [r5, #10]
 1627 00d0 013A     		subs	r2, r2, #1
 1628 00d2 961B     		subs	r6, r2, r6
 1629              	.LVL146:
 239:User/e-Paper/GUI_Paint.c ****         break;
 1630              		.loc 1 239 11 view .LVU479
 1631 00d4 B6B2     		uxth	r6, r6
 1632              	.L124:
 1633              	.LVL147:
 240:User/e-Paper/GUI_Paint.c ****     case MIRROR_ORIGIN:
 1634              		.loc 1 240 9 is_stmt 1 view .LVU480
 216:User/e-Paper/GUI_Paint.c ****         Y = Xpoint;
 1635              		.loc 1 216 18 is_stmt 0 view .LVU481
ARM GAS  C:\Users\upo\AppData\Local\Temp\ccEC4369.s 			page 48


 1636 00d6 2A89     		ldrh	r2, [r5, #8]
 1637 00d8 BCE7     		b	.L110
 1638              	.L125:
 1639              	.LBB138:
 257:User/e-Paper/GUI_Paint.c ****         UBYTE Rdata = Paint.Image[Addr];
 1640              		.loc 1 257 9 is_stmt 1 view .LVU482
 1641              	.LVL148:
 258:User/e-Paper/GUI_Paint.c ****         if (Color == BLACK)
 1642              		.loc 1 258 9 view .LVU483
 257:User/e-Paper/GUI_Paint.c ****         UBYTE Rdata = Paint.Image[Addr];
 1643              		.loc 1 257 41 is_stmt 0 view .LVU484
 1644 00da 6A8A     		ldrh	r2, [r5, #18]
 257:User/e-Paper/GUI_Paint.c ****         UBYTE Rdata = Paint.Image[Addr];
 1645              		.loc 1 257 26 view .LVU485
 1646 00dc C808     		lsrs	r0, r1, #3
 257:User/e-Paper/GUI_Paint.c ****         UBYTE Rdata = Paint.Image[Addr];
 1647              		.loc 1 257 34 view .LVU486
 1648 00de 7243     		muls	r2, r6
 257:User/e-Paper/GUI_Paint.c ****         UBYTE Rdata = Paint.Image[Addr];
 1649              		.loc 1 257 26 view .LVU487
 1650 00e0 80B2     		uxth	r0, r0
 257:User/e-Paper/GUI_Paint.c ****         UBYTE Rdata = Paint.Image[Addr];
 1651              		.loc 1 257 30 view .LVU488
 1652 00e2 1218     		adds	r2, r2, r0
 258:User/e-Paper/GUI_Paint.c ****         if (Color == BLACK)
 1653              		.loc 1 258 34 view .LVU489
 1654 00e4 2868     		ldr	r0, [r5]
 1655 00e6 8418     		adds	r4, r0, r2
 1656              	.LVL149:
 258:User/e-Paper/GUI_Paint.c ****         if (Color == BLACK)
 1657              		.loc 1 258 15 view .LVU490
 1658 00e8 825C     		ldrb	r2, [r0, r2]
 1659              	.LVL150:
 259:User/e-Paper/GUI_Paint.c ****             Paint.Image[Addr] = Rdata & ~(0x80 >> (X % 8));
 1660              		.loc 1 259 9 is_stmt 1 view .LVU491
 260:User/e-Paper/GUI_Paint.c ****         else
 1661              		.loc 1 260 54 is_stmt 0 view .LVU492
 1662 00ea 0720     		movs	r0, #7
 1663 00ec 0840     		ands	r0, r1
 260:User/e-Paper/GUI_Paint.c ****         else
 1664              		.loc 1 260 48 view .LVU493
 1665 00ee 8021     		movs	r1, #128
 1666              	.LVL151:
 260:User/e-Paper/GUI_Paint.c ****         else
 1667              		.loc 1 260 48 view .LVU494
 1668 00f0 0141     		asrs	r1, r1, r0
 259:User/e-Paper/GUI_Paint.c ****             Paint.Image[Addr] = Rdata & ~(0x80 >> (X % 8));
 1669              		.loc 1 259 12 view .LVU495
 1670 00f2 002B     		cmp	r3, #0
 1671 00f4 09D1     		bne	.L112
 260:User/e-Paper/GUI_Paint.c ****         else
 1672              		.loc 1 260 13 is_stmt 1 view .LVU496
 260:User/e-Paper/GUI_Paint.c ****         else
 1673              		.loc 1 260 39 is_stmt 0 view .LVU497
 1674 00f6 8A43     		bics	r2, r1
 1675              	.LVL152:
 260:User/e-Paper/GUI_Paint.c ****         else
ARM GAS  C:\Users\upo\AppData\Local\Temp\ccEC4369.s 			page 49


 1676              		.loc 1 260 31 view .LVU498
 1677 00f8 2270     		strb	r2, [r4]
 1678              	.LVL153:
 260:User/e-Paper/GUI_Paint.c ****         else
 1679              		.loc 1 260 31 view .LVU499
 1680 00fa C8E7     		b	.L97
 1681              	.LVL154:
 1682              	.L100:
 260:User/e-Paper/GUI_Paint.c ****         else
 1683              		.loc 1 260 31 view .LVU500
 1684              	.LBE138:
 220:User/e-Paper/GUI_Paint.c ****         Y = Paint.HeightMemory - Ypoint - 1;
 1685              		.loc 1 220 9 is_stmt 1 view .LVU501
 220:User/e-Paper/GUI_Paint.c ****         Y = Paint.HeightMemory - Ypoint - 1;
 1686              		.loc 1 220 11 is_stmt 0 view .LVU502
 1687 00fc 2989     		ldrh	r1, [r5, #8]
 221:User/e-Paper/GUI_Paint.c ****         break;
 1688              		.loc 1 221 11 view .LVU503
 1689 00fe 6E89     		ldrh	r6, [r5, #10]
 220:User/e-Paper/GUI_Paint.c ****         Y = Paint.HeightMemory - Ypoint - 1;
 1690              		.loc 1 220 11 view .LVU504
 1691 0100 091A     		subs	r1, r1, r0
 221:User/e-Paper/GUI_Paint.c ****         break;
 1692              		.loc 1 221 11 view .LVU505
 1693 0102 361B     		subs	r6, r6, r4
 220:User/e-Paper/GUI_Paint.c ****         Y = Paint.HeightMemory - Ypoint - 1;
 1694              		.loc 1 220 11 view .LVU506
 1695 0104 89B2     		uxth	r1, r1
 1696              	.LVL155:
 221:User/e-Paper/GUI_Paint.c ****         break;
 1697              		.loc 1 221 9 is_stmt 1 view .LVU507
 221:User/e-Paper/GUI_Paint.c ****         break;
 1698              		.loc 1 221 11 is_stmt 0 view .LVU508
 1699 0106 B6B2     		uxth	r6, r6
 1700              	.LVL156:
 222:User/e-Paper/GUI_Paint.c ****     case 270:
 1701              		.loc 1 222 9 is_stmt 1 view .LVU509
 1702 0108 9AE7     		b	.L102
 1703              	.LVL157:
 1704              	.L112:
 1705              	.LBB139:
 262:User/e-Paper/GUI_Paint.c ****     }
 1706              		.loc 1 262 13 view .LVU510
 262:User/e-Paper/GUI_Paint.c ****     }
 1707              		.loc 1 262 39 is_stmt 0 view .LVU511
 1708 010a 0A43     		orrs	r2, r1
 1709              	.LVL158:
 262:User/e-Paper/GUI_Paint.c ****     }
 1710              		.loc 1 262 31 view .LVU512
 1711 010c 2270     		strb	r2, [r4]
 1712              	.LVL159:
 262:User/e-Paper/GUI_Paint.c ****     }
 1713              		.loc 1 262 31 view .LVU513
 1714 010e BEE7     		b	.L97
 1715              	.LVL160:
 1716              	.L126:
 262:User/e-Paper/GUI_Paint.c ****     }
ARM GAS  C:\Users\upo\AppData\Local\Temp\ccEC4369.s 			page 50


 1717              		.loc 1 262 31 view .LVU514
 1718              	.LBE139:
 1719              	.LBB140:
 266:User/e-Paper/GUI_Paint.c ****         Color = Color % 4; // Guaranteed color scale is 4  --- 0~3
 1720              		.loc 1 266 9 is_stmt 1 view .LVU515
 267:User/e-Paper/GUI_Paint.c ****         UBYTE Rdata = Paint.Image[Addr];
 1721              		.loc 1 267 9 view .LVU516
 268:User/e-Paper/GUI_Paint.c **** 
 1722              		.loc 1 268 9 view .LVU517
 266:User/e-Paper/GUI_Paint.c ****         Color = Color % 4; // Guaranteed color scale is 4  --- 0~3
 1723              		.loc 1 266 41 is_stmt 0 view .LVU518
 1724 0110 688A     		ldrh	r0, [r5, #18]
 266:User/e-Paper/GUI_Paint.c ****         Color = Color % 4; // Guaranteed color scale is 4  --- 0~3
 1725              		.loc 1 266 26 view .LVU519
 1726 0112 8A08     		lsrs	r2, r1, #2
 266:User/e-Paper/GUI_Paint.c ****         Color = Color % 4; // Guaranteed color scale is 4  --- 0~3
 1727              		.loc 1 266 34 view .LVU520
 1728 0114 7043     		muls	r0, r6
 266:User/e-Paper/GUI_Paint.c ****         Color = Color % 4; // Guaranteed color scale is 4  --- 0~3
 1729              		.loc 1 266 26 view .LVU521
 1730 0116 92B2     		uxth	r2, r2
 266:User/e-Paper/GUI_Paint.c ****         Color = Color % 4; // Guaranteed color scale is 4  --- 0~3
 1731              		.loc 1 266 30 view .LVU522
 1732 0118 8018     		adds	r0, r0, r2
 270:User/e-Paper/GUI_Paint.c ****         Paint.Image[Addr] = Rdata | ((Color << 6) >> ((X % 4) * 2));
 1733              		.loc 1 270 40 view .LVU523
 1734 011a 0322     		movs	r2, #3
 270:User/e-Paper/GUI_Paint.c ****         Paint.Image[Addr] = Rdata | ((Color << 6) >> ((X % 4) * 2));
 1735              		.loc 1 270 33 view .LVU524
 1736 011c C026     		movs	r6, #192
 1737              	.LVL161:
 270:User/e-Paper/GUI_Paint.c ****         Paint.Image[Addr] = Rdata | ((Color << 6) >> ((X % 4) * 2));
 1738              		.loc 1 270 40 view .LVU525
 1739 011e 1140     		ands	r1, r2
 1740              	.LVL162:
 270:User/e-Paper/GUI_Paint.c ****         Paint.Image[Addr] = Rdata | ((Color << 6) >> ((X % 4) * 2));
 1741              		.loc 1 270 45 view .LVU526
 1742 0120 4900     		lsls	r1, r1, #1
 271:User/e-Paper/GUI_Paint.c ****     }
 1743              		.loc 1 271 45 view .LVU527
 1744 0122 1340     		ands	r3, r2
 1745              	.LVL163:
 270:User/e-Paper/GUI_Paint.c ****         Paint.Image[Addr] = Rdata | ((Color << 6) >> ((X % 4) * 2));
 1746              		.loc 1 270 33 view .LVU528
 1747 0124 0E41     		asrs	r6, r6, r1
 271:User/e-Paper/GUI_Paint.c ****     }
 1748              		.loc 1 271 45 view .LVU529
 1749 0126 9B01     		lsls	r3, r3, #6
 271:User/e-Paper/GUI_Paint.c ****     }
 1750              		.loc 1 271 51 view .LVU530
 1751 0128 0B41     		asrs	r3, r3, r1
 268:User/e-Paper/GUI_Paint.c **** 
 1752              		.loc 1 268 34 view .LVU531
 1753 012a 2D68     		ldr	r5, [r5]
 1754              	.LVL164:
 270:User/e-Paper/GUI_Paint.c ****         Paint.Image[Addr] = Rdata | ((Color << 6) >> ((X % 4) * 2));
 1755              		.loc 1 270 9 is_stmt 1 view .LVU532
ARM GAS  C:\Users\upo\AppData\Local\Temp\ccEC4369.s 			page 51


 271:User/e-Paper/GUI_Paint.c ****     }
 1756              		.loc 1 271 9 view .LVU533
 270:User/e-Paper/GUI_Paint.c ****         Paint.Image[Addr] = Rdata | ((Color << 6) >> ((X % 4) * 2));
 1757              		.loc 1 270 23 is_stmt 0 view .LVU534
 1758 012c 2C5C     		ldrb	r4, [r5, r0]
 1759              	.LVL165:
 270:User/e-Paper/GUI_Paint.c ****         Paint.Image[Addr] = Rdata | ((Color << 6) >> ((X % 4) * 2));
 1760              		.loc 1 270 23 view .LVU535
 1761 012e B443     		bics	r4, r6
 271:User/e-Paper/GUI_Paint.c ****     }
 1762              		.loc 1 271 35 view .LVU536
 1763 0130 2343     		orrs	r3, r4
 271:User/e-Paper/GUI_Paint.c ****     }
 1764              		.loc 1 271 27 view .LVU537
 1765 0132 2B54     		strb	r3, [r5, r0]
 1766              	.LVL166:
 271:User/e-Paper/GUI_Paint.c ****     }
 1767              		.loc 1 271 27 view .LVU538
 1768 0134 ABE7     		b	.L97
 1769              	.L128:
 1770 0136 C046     		.align	2
 1771              	.L127:
 1772 0138 00000000 		.word	Paint
 1773 013c 00000000 		.word	.LC3
 1774 0140 24000000 		.word	.LC5
 1775              	.LBE140:
 1776              	.LBE144:
 1777              	.LBE148:
 1778              	.LBE152:
 1779              	.LBE156:
 1780              	.LBE158:
 1781              	.LBE160:
 1782              		.cfi_endproc
 1783              	.LFE1453:
 1785              		.section	.text.Paint_DrawPoint.constprop.1,"ax",%progbits
 1786              		.align	1
 1787              		.p2align 2,,3
 1788              		.syntax unified
 1789              		.code	16
 1790              		.thumb_func
 1792              	Paint_DrawPoint.constprop.1:
 1793              	.LVL167:
 1794              	.LFB1452:
 344:User/e-Paper/GUI_Paint.c ****                      DOT_PIXEL Dot_Pixel, DOT_STYLE Dot_Style)
 1795              		.loc 1 344 6 is_stmt 1 view -0
 1796              		.cfi_startproc
 1797              		@ args = 0, pretend = 0, frame = 32
 1798              		@ frame_needed = 0, uses_anonymous_args = 0
 344:User/e-Paper/GUI_Paint.c ****                      DOT_PIXEL Dot_Pixel, DOT_STYLE Dot_Style)
 1799              		.loc 1 344 6 is_stmt 0 view .LVU540
 1800 0000 F0B5     		push	{r4, r5, r6, r7, lr}
 1801              	.LCFI8:
 1802              		.cfi_def_cfa_offset 20
 1803              		.cfi_offset 4, -20
 1804              		.cfi_offset 5, -16
 1805              		.cfi_offset 6, -12
 1806              		.cfi_offset 7, -8
ARM GAS  C:\Users\upo\AppData\Local\Temp\ccEC4369.s 			page 52


 1807              		.cfi_offset 14, -4
 1808 0002 DE46     		mov	lr, fp
 1809 0004 4546     		mov	r5, r8
 1810 0006 5746     		mov	r7, r10
 1811 0008 4E46     		mov	r6, r9
 1812 000a 8346     		mov	fp, r0
 1813 000c E0B5     		push	{r5, r6, r7, lr}
 1814              	.LCFI9:
 1815              		.cfi_def_cfa_offset 36
 1816              		.cfi_offset 8, -36
 1817              		.cfi_offset 9, -32
 1818              		.cfi_offset 10, -28
 1819              		.cfi_offset 11, -24
 347:User/e-Paper/GUI_Paint.c ****     {
 1820              		.loc 1 347 23 view .LVU541
 1821 000e 9B4C     		ldr	r4, .L163
 344:User/e-Paper/GUI_Paint.c ****                      DOT_PIXEL Dot_Pixel, DOT_STYLE Dot_Style)
 1822              		.loc 1 344 6 view .LVU542
 1823 0010 89B0     		sub	sp, sp, #36
 1824              	.LCFI10:
 1825              		.cfi_def_cfa_offset 72
 344:User/e-Paper/GUI_Paint.c ****                      DOT_PIXEL Dot_Pixel, DOT_STYLE Dot_Style)
 1826              		.loc 1 344 6 view .LVU543
 1827 0012 0592     		str	r2, [sp, #20]
 1828              	.LVL168:
 347:User/e-Paper/GUI_Paint.c ****     {
 1829              		.loc 1 347 5 is_stmt 1 view .LVU544
 344:User/e-Paper/GUI_Paint.c ****                      DOT_PIXEL Dot_Pixel, DOT_STYLE Dot_Style)
 1830              		.loc 1 344 6 is_stmt 0 view .LVU545
 1831 0014 1000     		movs	r0, r2
 1832              	.LVL169:
 347:User/e-Paper/GUI_Paint.c ****     {
 1833              		.loc 1 347 23 view .LVU546
 1834 0016 A288     		ldrh	r2, [r4, #4]
 1835              	.LVL170:
 344:User/e-Paper/GUI_Paint.c ****                      DOT_PIXEL Dot_Pixel, DOT_STYLE Dot_Style)
 1836              		.loc 1 344 6 view .LVU547
 1837 0018 8846     		mov	r8, r1
 347:User/e-Paper/GUI_Paint.c ****     {
 1838              		.loc 1 347 8 view .LVU548
 1839 001a 5A45     		cmp	r2, fp
 1840 001c 00D2     		bcs	.LCB1827
 1841 001e 22E1     		b	.L130	@long jump
 1842              	.LCB1827:
 347:User/e-Paper/GUI_Paint.c ****     {
 1843              		.loc 1 347 30 view .LVU549
 1844 0020 E188     		ldrh	r1, [r4, #6]
 1845              	.LVL171:
 347:User/e-Paper/GUI_Paint.c ****     {
 1846              		.loc 1 347 30 view .LVU550
 1847 0022 4145     		cmp	r1, r8
 1848 0024 00D2     		bcs	.LCB1831
 1849 0026 1EE1     		b	.L130	@long jump
 1850              	.LCB1831:
 1851              	.LVL172:
 1852              	.LBB172:
 1853              	.LBB173:
ARM GAS  C:\Users\upo\AppData\Local\Temp\ccEC4369.s 			page 53


 358:User/e-Paper/GUI_Paint.c ****         {
 1854              		.loc 1 358 37 is_stmt 1 view .LVU551
 358:User/e-Paper/GUI_Paint.c ****         {
 1855              		.loc 1 358 41 is_stmt 0 view .LVU552
 1856 0028 5F00     		lsls	r7, r3, #1
 358:User/e-Paper/GUI_Paint.c ****         {
 1857              		.loc 1 358 53 view .LVU553
 1858 002a 013F     		subs	r7, r7, #1
 358:User/e-Paper/GUI_Paint.c ****         {
 1859              		.loc 1 358 37 view .LVU554
 1860 002c 002F     		cmp	r7, #0
 1861 002e 00DC     		bgt	.LCB1839
 1862 0030 92E0     		b	.L129	@long jump
 1863              	.LCB1839:
 362:User/e-Paper/GUI_Paint.c ****                     break;
 1864              		.loc 1 362 76 view .LVU555
 1865 0032 4146     		mov	r1, r8
 1866 0034 C91A     		subs	r1, r1, r3
 1867 0036 8A46     		mov	r10, r1
 1868 0038 5946     		mov	r1, fp
 358:User/e-Paper/GUI_Paint.c ****         {
 1869              		.loc 1 358 37 view .LVU556
 1870 003a 0022     		movs	r2, #0
 1871 003c CE1A     		subs	r6, r1, r3
 1872 003e 5146     		mov	r1, r10
 1873 0040 0092     		str	r2, [sp]
 1874 0042 89B2     		uxth	r1, r1
 1875 0044 5A46     		mov	r2, fp
 358:User/e-Paper/GUI_Paint.c ****         {
 1876              		.loc 1 358 23 view .LVU557
 1877 0046 0025     		movs	r5, #0
 1878 0048 8946     		mov	r9, r1
 1879              	.LBB174:
 1880              	.LBB175:
 1881              	.LBB176:
 1882              	.LBB177:
 1883              	.LBB178:
 271:User/e-Paper/GUI_Paint.c ****     }
 1884              		.loc 1 271 45 view .LVU558
 1885 004a 0321     		movs	r1, #3
 1886 004c 0392     		str	r2, [sp, #12]
 1887 004e 5246     		mov	r2, r10
 1888 0050 0140     		ands	r1, r0
 1889 0052 BC46     		mov	ip, r7
 1890 0054 2800     		movs	r0, r5
 1891 0056 4746     		mov	r7, r8
 1892 0058 4D46     		mov	r5, r9
 1893 005a 8901     		lsls	r1, r1, #6
 1894 005c B6B2     		uxth	r6, r6
 1895 005e 0791     		str	r1, [sp, #28]
 1896 0060 0492     		str	r2, [sp, #16]
 1897              	.LVL173:
 1898              	.L132:
 271:User/e-Paper/GUI_Paint.c ****     }
 1899              		.loc 1 271 45 view .LVU559
 1900              	.LBE178:
 1901              	.LBE177:
ARM GAS  C:\Users\upo\AppData\Local\Temp\ccEC4369.s 			page 54


 1902              	.LBE176:
 1903              	.LBE175:
 1904              	.LBE174:
 360:User/e-Paper/GUI_Paint.c ****             {
 1905              		.loc 1 360 41 is_stmt 1 view .LVU560
 362:User/e-Paper/GUI_Paint.c ****                     break;
 1906              		.loc 1 362 17 view .LVU561
 362:User/e-Paper/GUI_Paint.c ****                     break;
 1907              		.loc 1 362 28 is_stmt 0 view .LVU562
 1908 0062 0399     		ldr	r1, [sp, #12]
 1909 0064 009A     		ldr	r2, [sp]
 1910 0066 8846     		mov	r8, r1
 1911 0068 4244     		add	r2, r2, r8
 362:User/e-Paper/GUI_Paint.c ****                     break;
 1912              		.loc 1 362 20 view .LVU563
 1913 006a 9A42     		cmp	r2, r3
 1914 006c 6CDB     		blt	.L135
 362:User/e-Paper/GUI_Paint.c ****                     break;
 1915              		.loc 1 362 55 view .LVU564
 1916 006e 049A     		ldr	r2, [sp, #16]
 1917 0070 002A     		cmp	r2, #0
 1918 0072 69DB     		blt	.L135
 365:User/e-Paper/GUI_Paint.c ****             }
 1919              		.loc 1 365 39 view .LVU565
 1920 0074 0A18     		adds	r2, r1, r0
 1921 0076 92B2     		uxth	r2, r2
 1922 0078 0292     		str	r2, [sp, #8]
 1923 007a 2900     		movs	r1, r5
 360:User/e-Paper/GUI_Paint.c ****             {
 1924              		.loc 1 360 27 view .LVU566
 1925 007c 0022     		movs	r2, #0
 1926 007e 9846     		mov	r8, r3
 1927 0080 AB46     		mov	fp, r5
 1928 0082 0190     		str	r0, [sp, #4]
 1929 0084 0097     		str	r7, [sp]
 1930              	.LVL174:
 1931              	.L152:
 365:User/e-Paper/GUI_Paint.c ****             }
 1932              		.loc 1 365 17 is_stmt 1 view .LVU567
 1933              	.LBB199:
 1934              	.LBI174:
 200:User/e-Paper/GUI_Paint.c **** {
 1935              		.loc 1 200 6 view .LVU568
 1936              	.LBB193:
 202:User/e-Paper/GUI_Paint.c ****     {
 1937              		.loc 1 202 5 view .LVU569
 202:User/e-Paper/GUI_Paint.c ****     {
 1938              		.loc 1 202 23 is_stmt 0 view .LVU570
 1939 0086 A588     		ldrh	r5, [r4, #4]
 202:User/e-Paper/GUI_Paint.c ****     {
 1940              		.loc 1 202 8 view .LVU571
 1941 0088 B542     		cmp	r5, r6
 1942 008a 49D3     		bcc	.L136
 202:User/e-Paper/GUI_Paint.c ****     {
 1943              		.loc 1 202 30 view .LVU572
 1944 008c E388     		ldrh	r3, [r4, #6]
 1945 008e 8B42     		cmp	r3, r1
ARM GAS  C:\Users\upo\AppData\Local\Temp\ccEC4369.s 			page 55


 1946 0090 46D3     		bcc	.L136
 1947              	.LBE193:
 1948              	.LBE199:
 365:User/e-Paper/GUI_Paint.c ****             }
 1949              		.loc 1 365 70 view .LVU573
 1950 0092 009B     		ldr	r3, [sp]
 1951              	.LBB200:
 1952              	.LBB194:
 1953              	.LBB188:
 1954              	.LBB183:
 209:User/e-Paper/GUI_Paint.c ****     {
 1955              		.loc 1 209 18 view .LVU574
 1956 0094 E089     		ldrh	r0, [r4, #14]
 1957              	.LBE183:
 1958              	.LBE188:
 1959              	.LBE194:
 1960              	.LBE200:
 365:User/e-Paper/GUI_Paint.c ****             }
 1961              		.loc 1 365 70 view .LVU575
 1962 0096 9B18     		adds	r3, r3, r2
 1963 0098 9BB2     		uxth	r3, r3
 1964              	.LVL175:
 1965              	.LBB201:
 1966              	.LBB195:
 1967              	.LBB189:
 1968              	.LBI176:
 200:User/e-Paper/GUI_Paint.c **** {
 1969              		.loc 1 200 6 is_stmt 1 view .LVU576
 1970              	.LBB184:
 207:User/e-Paper/GUI_Paint.c **** 
 1971              		.loc 1 207 5 view .LVU577
 209:User/e-Paper/GUI_Paint.c ****     {
 1972              		.loc 1 209 5 view .LVU578
 1973 009a B428     		cmp	r0, #180
 1974 009c 00D1     		bne	.LCB1949
 1975 009e 8BE0     		b	.L137	@long jump
 1976              	.LCB1949:
 1977 00a0 61D8     		bhi	.L138
 1978 00a2 0028     		cmp	r0, #0
 1979 00a4 00D1     		bne	.LCB1953
 1980 00a6 84E0     		b	.L153	@long jump
 1981              	.LCB1953:
 1982 00a8 5A28     		cmp	r0, #90
 1983 00aa 39D1     		bne	.L136
 216:User/e-Paper/GUI_Paint.c ****         Y = Xpoint;
 1984              		.loc 1 216 9 view .LVU579
 216:User/e-Paper/GUI_Paint.c ****         Y = Xpoint;
 1985              		.loc 1 216 11 is_stmt 0 view .LVU580
 1986 00ac 2089     		ldrh	r0, [r4, #8]
 1987 00ae 0138     		subs	r0, r0, #1
 1988 00b0 4044     		add	r0, r0, r8
 1989 00b2 C01A     		subs	r0, r0, r3
 218:User/e-Paper/GUI_Paint.c ****     case 180:
 1990              		.loc 1 218 9 view .LVU581
 1991 00b4 3300     		movs	r3, r6
 216:User/e-Paper/GUI_Paint.c ****         Y = Xpoint;
 1992              		.loc 1 216 11 view .LVU582
ARM GAS  C:\Users\upo\AppData\Local\Temp\ccEC4369.s 			page 56


 1993 00b6 80B2     		uxth	r0, r0
 1994              	.LVL176:
 217:User/e-Paper/GUI_Paint.c ****         break;
 1995              		.loc 1 217 9 is_stmt 1 view .LVU583
 218:User/e-Paper/GUI_Paint.c ****     case 180:
 1996              		.loc 1 218 9 view .LVU584
 1997              	.L139:
 231:User/e-Paper/GUI_Paint.c ****     {
 1998              		.loc 1 231 5 view .LVU585
 231:User/e-Paper/GUI_Paint.c ****     {
 1999              		.loc 1 231 18 is_stmt 0 view .LVU586
 2000 00b8 278A     		ldrh	r7, [r4, #16]
 231:User/e-Paper/GUI_Paint.c ****     {
 2001              		.loc 1 231 5 view .LVU587
 2002 00ba 022F     		cmp	r7, #2
 2003 00bc 61D0     		beq	.L142
 2004              	.L162:
 231:User/e-Paper/GUI_Paint.c ****     {
 2005              		.loc 1 231 5 view .LVU588
 2006 00be 022F     		cmp	r7, #2
 2007 00c0 00D9     		bls	.LCB1983
 2008 00c2 6AE0     		b	.L143	@long jump
 2009              	.LCB1983:
 2010 00c4 002F     		cmp	r7, #0
 2011 00c6 65D0     		beq	.L157
 236:User/e-Paper/GUI_Paint.c ****         break;
 2012              		.loc 1 236 9 is_stmt 1 view .LVU589
 236:User/e-Paper/GUI_Paint.c ****         break;
 2013              		.loc 1 236 18 is_stmt 0 view .LVU590
 2014 00c8 2789     		ldrh	r7, [r4, #8]
 2015 00ca B946     		mov	r9, r7
 236:User/e-Paper/GUI_Paint.c ****         break;
 2016              		.loc 1 236 11 view .LVU591
 2017 00cc 013F     		subs	r7, r7, #1
 2018 00ce 381A     		subs	r0, r7, r0
 2019              	.LVL177:
 236:User/e-Paper/GUI_Paint.c ****         break;
 2020              		.loc 1 236 11 view .LVU592
 2021 00d0 80B2     		uxth	r0, r0
 2022              	.LVL178:
 237:User/e-Paper/GUI_Paint.c ****     case MIRROR_VERTICAL:
 2023              		.loc 1 237 9 is_stmt 1 view .LVU593
 2024              	.L147:
 249:User/e-Paper/GUI_Paint.c ****     {
 2025              		.loc 1 249 5 view .LVU594
 249:User/e-Paper/GUI_Paint.c ****     {
 2026              		.loc 1 249 8 is_stmt 0 view .LVU595
 2027 00d2 4845     		cmp	r0, r9
 2028 00d4 24D8     		bhi	.L136
 249:User/e-Paper/GUI_Paint.c ****     {
 2029              		.loc 1 249 31 view .LVU596
 2030 00d6 6789     		ldrh	r7, [r4, #10]
 2031 00d8 9F42     		cmp	r7, r3
 2032 00da 21D3     		bcc	.L136
 255:User/e-Paper/GUI_Paint.c ****     {
 2033              		.loc 1 255 5 is_stmt 1 view .LVU597
 255:User/e-Paper/GUI_Paint.c ****     {
ARM GAS  C:\Users\upo\AppData\Local\Temp\ccEC4369.s 			page 57


 2034              		.loc 1 255 14 is_stmt 0 view .LVU598
 2035 00dc E78A     		ldrh	r7, [r4, #22]
 255:User/e-Paper/GUI_Paint.c ****     {
 2036              		.loc 1 255 8 view .LVU599
 2037 00de 022F     		cmp	r7, #2
 2038 00e0 00D1     		bne	.LCB2013
 2039 00e2 7AE0     		b	.L158	@long jump
 2040              	.LCB2013:
 264:User/e-Paper/GUI_Paint.c ****     {
 2041              		.loc 1 264 10 is_stmt 1 view .LVU600
 264:User/e-Paper/GUI_Paint.c ****     {
 2042              		.loc 1 264 13 is_stmt 0 view .LVU601
 2043 00e4 042F     		cmp	r7, #4
 2044 00e6 00D1     		bne	.LCB2016
 2045 00e8 99E0     		b	.L159	@long jump
 2046              	.LCB2016:
 273:User/e-Paper/GUI_Paint.c ****     {
 2047              		.loc 1 273 10 is_stmt 1 view .LVU602
 273:User/e-Paper/GUI_Paint.c ****     {
 2048              		.loc 1 273 13 is_stmt 0 view .LVU603
 2049 00ea 072F     		cmp	r7, #7
 2050 00ec 18D1     		bne	.L136
 2051              	.LBB179:
 275:User/e-Paper/GUI_Paint.c ****         UBYTE Rdata = Paint.Image[Addr];
 2052              		.loc 1 275 9 is_stmt 1 view .LVU604
 2053              	.LVL179:
 276:User/e-Paper/GUI_Paint.c ****         Rdata = Rdata & (~(0xF0 >> ((X % 2) * 4))); // Clear first, then set value
 2054              		.loc 1 276 9 view .LVU605
 275:User/e-Paper/GUI_Paint.c ****         UBYTE Rdata = Paint.Image[Addr];
 2055              		.loc 1 275 41 is_stmt 0 view .LVU606
 2056 00ee 678A     		ldrh	r7, [r4, #18]
 275:User/e-Paper/GUI_Paint.c ****         UBYTE Rdata = Paint.Image[Addr];
 2057              		.loc 1 275 34 view .LVU607
 2058 00f0 5F43     		muls	r7, r3
 2059 00f2 B946     		mov	r9, r7
 275:User/e-Paper/GUI_Paint.c ****         UBYTE Rdata = Paint.Image[Addr];
 2060              		.loc 1 275 26 view .LVU608
 2061 00f4 4308     		lsrs	r3, r0, #1
 2062              	.LVL180:
 275:User/e-Paper/GUI_Paint.c ****         UBYTE Rdata = Paint.Image[Addr];
 2063              		.loc 1 275 26 view .LVU609
 2064 00f6 9BB2     		uxth	r3, r3
 275:User/e-Paper/GUI_Paint.c ****         UBYTE Rdata = Paint.Image[Addr];
 2065              		.loc 1 275 30 view .LVU610
 2066 00f8 9944     		add	r9, r9, r3
 277:User/e-Paper/GUI_Paint.c ****         Paint.Image[Addr] = Rdata | ((Color << 4) >> ((X % 2) * 4));
 2067              		.loc 1 277 40 view .LVU611
 2068 00fa 0123     		movs	r3, #1
 2069 00fc 0340     		ands	r3, r0
 277:User/e-Paper/GUI_Paint.c ****         Paint.Image[Addr] = Rdata | ((Color << 4) >> ((X % 2) * 4));
 2070              		.loc 1 277 33 view .LVU612
 2071 00fe F020     		movs	r0, #240
 2072              	.LVL181:
 277:User/e-Paper/GUI_Paint.c ****         Paint.Image[Addr] = Rdata | ((Color << 4) >> ((X % 2) * 4));
 2073              		.loc 1 277 45 view .LVU613
 2074 0100 9B00     		lsls	r3, r3, #2
 277:User/e-Paper/GUI_Paint.c ****         Paint.Image[Addr] = Rdata | ((Color << 4) >> ((X % 2) * 4));
ARM GAS  C:\Users\upo\AppData\Local\Temp\ccEC4369.s 			page 58


 2075              		.loc 1 277 33 view .LVU614
 2076 0102 1841     		asrs	r0, r0, r3
 2077 0104 0693     		str	r3, [sp, #24]
 277:User/e-Paper/GUI_Paint.c ****         Paint.Image[Addr] = Rdata | ((Color << 4) >> ((X % 2) * 4));
 2078              		.loc 1 277 23 view .LVU615
 2079 0106 4B46     		mov	r3, r9
 276:User/e-Paper/GUI_Paint.c ****         Rdata = Rdata & (~(0xF0 >> ((X % 2) * 4))); // Clear first, then set value
 2080              		.loc 1 276 34 view .LVU616
 2081 0108 2768     		ldr	r7, [r4]
 2082              	.LVL182:
 277:User/e-Paper/GUI_Paint.c ****         Paint.Image[Addr] = Rdata | ((Color << 4) >> ((X % 2) * 4));
 2083              		.loc 1 277 9 is_stmt 1 view .LVU617
 278:User/e-Paper/GUI_Paint.c ****         // printf("Add =  %d ,data = %d\r\n",Addr,Rdata);
 2084              		.loc 1 278 9 view .LVU618
 277:User/e-Paper/GUI_Paint.c ****         Paint.Image[Addr] = Rdata | ((Color << 4) >> ((X % 2) * 4));
 2085              		.loc 1 277 23 is_stmt 0 view .LVU619
 2086 010a FB5C     		ldrb	r3, [r7, r3]
 2087 010c 8343     		bics	r3, r0
 2088 010e 9A46     		mov	r10, r3
 278:User/e-Paper/GUI_Paint.c ****         // printf("Add =  %d ,data = %d\r\n",Addr,Rdata);
 2089              		.loc 1 278 45 view .LVU620
 2090 0110 0598     		ldr	r0, [sp, #20]
 278:User/e-Paper/GUI_Paint.c ****         // printf("Add =  %d ,data = %d\r\n",Addr,Rdata);
 2091              		.loc 1 278 51 view .LVU621
 2092 0112 069B     		ldr	r3, [sp, #24]
 278:User/e-Paper/GUI_Paint.c ****         // printf("Add =  %d ,data = %d\r\n",Addr,Rdata);
 2093              		.loc 1 278 45 view .LVU622
 2094 0114 0001     		lsls	r0, r0, #4
 278:User/e-Paper/GUI_Paint.c ****         // printf("Add =  %d ,data = %d\r\n",Addr,Rdata);
 2095              		.loc 1 278 51 view .LVU623
 2096 0116 1841     		asrs	r0, r0, r3
 278:User/e-Paper/GUI_Paint.c ****         // printf("Add =  %d ,data = %d\r\n",Addr,Rdata);
 2097              		.loc 1 278 35 view .LVU624
 2098 0118 5346     		mov	r3, r10
 2099 011a 0343     		orrs	r3, r0
 278:User/e-Paper/GUI_Paint.c ****         // printf("Add =  %d ,data = %d\r\n",Addr,Rdata);
 2100              		.loc 1 278 27 view .LVU625
 2101 011c 4846     		mov	r0, r9
 2102 011e 3B54     		strb	r3, [r7, r0]
 2103              	.LVL183:
 2104              	.L136:
 278:User/e-Paper/GUI_Paint.c ****         // printf("Add =  %d ,data = %d\r\n",Addr,Rdata);
 2105              		.loc 1 278 27 view .LVU626
 2106              	.LBE179:
 2107              	.LBE184:
 2108              	.LBE189:
 2109              	.LBE195:
 2110              	.LBE201:
 360:User/e-Paper/GUI_Paint.c ****             {
 2111              		.loc 1 360 70 is_stmt 1 view .LVU627
 2112 0120 0132     		adds	r2, r2, #1
 2113              	.LVL184:
 360:User/e-Paper/GUI_Paint.c ****             {
 2114              		.loc 1 360 70 is_stmt 0 view .LVU628
 2115 0122 93B2     		uxth	r3, r2
 2116 0124 12B2     		sxth	r2, r2
 2117              	.LVL185:
ARM GAS  C:\Users\upo\AppData\Local\Temp\ccEC4369.s 			page 59


 360:User/e-Paper/GUI_Paint.c ****             {
 2118              		.loc 1 360 41 is_stmt 1 view .LVU629
 2119 0126 6345     		cmp	r3, ip
 2120 0128 00DB     		blt	.LCB2093
 2121 012a 73E0     		b	.L160	@long jump
 2122              	.LCB2093:
 2123              	.L151:
 362:User/e-Paper/GUI_Paint.c ****                     break;
 2124              		.loc 1 362 17 view .LVU630
 362:User/e-Paper/GUI_Paint.c ****                     break;
 2125              		.loc 1 362 65 is_stmt 0 view .LVU631
 2126 012c 0098     		ldr	r0, [sp]
 2127 012e 8146     		mov	r9, r0
 2128 0130 4B44     		add	r3, r3, r9
 362:User/e-Paper/GUI_Paint.c ****                     break;
 2129              		.loc 1 362 55 view .LVU632
 2130 0132 4345     		cmp	r3, r8
 2131 0134 00DA     		bge	.LCB2101
 2132 0136 8DE0     		b	.L161	@long jump
 2133              	.LCB2101:
 2134 0138 0131     		adds	r1, r1, #1
 2135 013a 89B2     		uxth	r1, r1
 2136 013c B542     		cmp	r5, r6
 2137 013e A2D2     		bcs	.L152
 2138 0140 4346     		mov	r3, r8
 2139 0142 5D46     		mov	r5, fp
 2140 0144 0700     		movs	r7, r0
 2141 0146 0198     		ldr	r0, [sp, #4]
 2142              	.LVL186:
 2143              	.L135:
 358:User/e-Paper/GUI_Paint.c ****         {
 2144              		.loc 1 358 66 is_stmt 1 view .LVU633
 2145 0148 0130     		adds	r0, r0, #1
 2146 014a 00B2     		sxth	r0, r0
 2147              	.LVL187:
 358:User/e-Paper/GUI_Paint.c ****         {
 2148              		.loc 1 358 37 view .LVU634
 2149 014c 0136     		adds	r6, r6, #1
 2150 014e 0090     		str	r0, [sp]
 2151 0150 B6B2     		uxth	r6, r6
 2152 0152 6045     		cmp	r0, ip
 2153 0154 00DA     		bge	.LCB2123
 2154 0156 84E7     		b	.L132	@long jump
 2155              	.LCB2123:
 2156              	.LVL188:
 2157              	.L129:
 358:User/e-Paper/GUI_Paint.c ****         {
 2158              		.loc 1 358 37 is_stmt 0 view .LVU635
 2159              	.LBE173:
 2160              	.LBE172:
 379:User/e-Paper/GUI_Paint.c **** 
 2161              		.loc 1 379 1 view .LVU636
 2162 0158 09B0     		add	sp, sp, #36
 2163              		@ sp needed
 2164 015a F0BC     		pop	{r4, r5, r6, r7}
 2165 015c BB46     		mov	fp, r7
 2166 015e B246     		mov	r10, r6
ARM GAS  C:\Users\upo\AppData\Local\Temp\ccEC4369.s 			page 60


 2167 0160 A946     		mov	r9, r5
 2168 0162 A046     		mov	r8, r4
 2169 0164 F0BD     		pop	{r4, r5, r6, r7, pc}
 2170              	.LVL189:
 2171              	.L138:
 2172              	.LBB206:
 2173              	.LBB205:
 2174              	.LBB202:
 2175              	.LBB196:
 2176              	.LBB190:
 2177              	.LBB185:
 209:User/e-Paper/GUI_Paint.c ****     {
 2178              		.loc 1 209 5 view .LVU637
 2179 0166 8723     		movs	r3, #135
 2180 0168 5B00     		lsls	r3, r3, #1
 2181 016a 9842     		cmp	r0, r3
 2182 016c D8D1     		bne	.L136
 224:User/e-Paper/GUI_Paint.c ****         Y = Paint.HeightMemory - Xpoint - 1;
 2183              		.loc 1 224 9 is_stmt 1 view .LVU638
 2184              	.LVL190:
 225:User/e-Paper/GUI_Paint.c ****         break;
 2185              		.loc 1 225 9 view .LVU639
 225:User/e-Paper/GUI_Paint.c ****         break;
 2186              		.loc 1 225 11 is_stmt 0 view .LVU640
 2187 016e 6389     		ldrh	r3, [r4, #10]
 2188 0170 0298     		ldr	r0, [sp, #8]
 2189 0172 013B     		subs	r3, r3, #1
 2190 0174 4344     		add	r3, r3, r8
 231:User/e-Paper/GUI_Paint.c ****     {
 2191              		.loc 1 231 18 view .LVU641
 2192 0176 278A     		ldrh	r7, [r4, #16]
 225:User/e-Paper/GUI_Paint.c ****         break;
 2193              		.loc 1 225 11 view .LVU642
 2194 0178 1B1A     		subs	r3, r3, r0
 2195 017a 9BB2     		uxth	r3, r3
 2196              	.LVL191:
 226:User/e-Paper/GUI_Paint.c ****     default:
 2197              		.loc 1 226 9 is_stmt 1 view .LVU643
 2198              	.LBE185:
 2199              	.LBE190:
 2200              	.LBE196:
 2201              	.LBE202:
 365:User/e-Paper/GUI_Paint.c ****             }
 2202              		.loc 1 365 17 is_stmt 0 view .LVU644
 2203 017c 0800     		movs	r0, r1
 2204              	.LVL192:
 2205              	.LBB203:
 2206              	.LBB197:
 2207              	.LBB191:
 2208              	.LBB186:
 231:User/e-Paper/GUI_Paint.c ****     {
 2209              		.loc 1 231 5 is_stmt 1 view .LVU645
 2210 017e 022F     		cmp	r7, #2
 2211 0180 9DD1     		bne	.L162
 2212              	.L142:
 239:User/e-Paper/GUI_Paint.c ****         break;
 2213              		.loc 1 239 9 view .LVU646
ARM GAS  C:\Users\upo\AppData\Local\Temp\ccEC4369.s 			page 61


 239:User/e-Paper/GUI_Paint.c ****         break;
 2214              		.loc 1 239 11 is_stmt 0 view .LVU647
 2215 0182 6789     		ldrh	r7, [r4, #10]
 2216 0184 B946     		mov	r9, r7
 2217 0186 0127     		movs	r7, #1
 2218 0188 7F42     		rsbs	r7, r7, #0
 2219 018a BA46     		mov	r10, r7
 2220 018c D144     		add	r9, r9, r10
 2221 018e 4F46     		mov	r7, r9
 2222 0190 FB1A     		subs	r3, r7, r3
 2223              	.LVL193:
 239:User/e-Paper/GUI_Paint.c ****         break;
 2224              		.loc 1 239 11 view .LVU648
 2225 0192 9BB2     		uxth	r3, r3
 2226              	.LVL194:
 2227              	.L157:
 240:User/e-Paper/GUI_Paint.c ****     case MIRROR_ORIGIN:
 2228              		.loc 1 240 9 is_stmt 1 view .LVU649
 216:User/e-Paper/GUI_Paint.c ****         Y = Xpoint;
 2229              		.loc 1 216 18 is_stmt 0 view .LVU650
 2230 0194 2789     		ldrh	r7, [r4, #8]
 2231 0196 B946     		mov	r9, r7
 240:User/e-Paper/GUI_Paint.c ****     case MIRROR_ORIGIN:
 2232              		.loc 1 240 9 view .LVU651
 2233 0198 9BE7     		b	.L147
 2234              	.L143:
 231:User/e-Paper/GUI_Paint.c ****     {
 2235              		.loc 1 231 5 view .LVU652
 2236 019a 032F     		cmp	r7, #3
 2237 019c C0D1     		bne	.L136
 242:User/e-Paper/GUI_Paint.c ****         Y = Paint.HeightMemory - Y - 1;
 2238              		.loc 1 242 9 is_stmt 1 view .LVU653
 242:User/e-Paper/GUI_Paint.c ****         Y = Paint.HeightMemory - Y - 1;
 2239              		.loc 1 242 18 is_stmt 0 view .LVU654
 2240 019e 2789     		ldrh	r7, [r4, #8]
 2241 01a0 B946     		mov	r9, r7
 242:User/e-Paper/GUI_Paint.c ****         Y = Paint.HeightMemory - Y - 1;
 2242              		.loc 1 242 11 view .LVU655
 2243 01a2 013F     		subs	r7, r7, #1
 2244 01a4 381A     		subs	r0, r7, r0
 2245              	.LVL195:
 243:User/e-Paper/GUI_Paint.c ****         break;
 2246              		.loc 1 243 11 view .LVU656
 2247 01a6 6789     		ldrh	r7, [r4, #10]
 242:User/e-Paper/GUI_Paint.c ****         Y = Paint.HeightMemory - Y - 1;
 2248              		.loc 1 242 11 view .LVU657
 2249 01a8 80B2     		uxth	r0, r0
 2250              	.LVL196:
 243:User/e-Paper/GUI_Paint.c ****         break;
 2251              		.loc 1 243 9 is_stmt 1 view .LVU658
 243:User/e-Paper/GUI_Paint.c ****         break;
 2252              		.loc 1 243 11 is_stmt 0 view .LVU659
 2253 01aa 013F     		subs	r7, r7, #1
 2254 01ac FB1A     		subs	r3, r7, r3
 2255              	.LVL197:
 243:User/e-Paper/GUI_Paint.c ****         break;
 2256              		.loc 1 243 11 view .LVU660
ARM GAS  C:\Users\upo\AppData\Local\Temp\ccEC4369.s 			page 62


 2257 01ae 9BB2     		uxth	r3, r3
 2258              	.LVL198:
 244:User/e-Paper/GUI_Paint.c ****     default:
 2259              		.loc 1 244 9 is_stmt 1 view .LVU661
 2260 01b0 8FE7     		b	.L147
 2261              	.LVL199:
 2262              	.L153:
 209:User/e-Paper/GUI_Paint.c ****     {
 2263              		.loc 1 209 5 is_stmt 0 view .LVU662
 2264 01b2 0B00     		movs	r3, r1
 2265 01b4 3000     		movs	r0, r6
 2266 01b6 7FE7     		b	.L139
 2267              	.L137:
 220:User/e-Paper/GUI_Paint.c ****         Y = Paint.HeightMemory - Ypoint - 1;
 2268              		.loc 1 220 9 is_stmt 1 view .LVU663
 220:User/e-Paper/GUI_Paint.c ****         Y = Paint.HeightMemory - Ypoint - 1;
 2269              		.loc 1 220 11 is_stmt 0 view .LVU664
 2270 01b8 2089     		ldrh	r0, [r4, #8]
 2271 01ba 029F     		ldr	r7, [sp, #8]
 2272 01bc 0138     		subs	r0, r0, #1
 2273 01be 4044     		add	r0, r0, r8
 2274 01c0 C01B     		subs	r0, r0, r7
 221:User/e-Paper/GUI_Paint.c ****         break;
 2275              		.loc 1 221 11 view .LVU665
 2276 01c2 6789     		ldrh	r7, [r4, #10]
 220:User/e-Paper/GUI_Paint.c ****         Y = Paint.HeightMemory - Ypoint - 1;
 2277              		.loc 1 220 11 view .LVU666
 2278 01c4 80B2     		uxth	r0, r0
 2279              	.LVL200:
 221:User/e-Paper/GUI_Paint.c ****         break;
 2280              		.loc 1 221 9 is_stmt 1 view .LVU667
 221:User/e-Paper/GUI_Paint.c ****         break;
 2281              		.loc 1 221 11 is_stmt 0 view .LVU668
 2282 01c6 B946     		mov	r9, r7
 2283 01c8 0127     		movs	r7, #1
 2284 01ca 7F42     		rsbs	r7, r7, #0
 2285 01cc BA46     		mov	r10, r7
 2286 01ce D144     		add	r9, r9, r10
 2287 01d0 C144     		add	r9, r9, r8
 2288 01d2 4F46     		mov	r7, r9
 2289 01d4 FB1A     		subs	r3, r7, r3
 2290 01d6 9BB2     		uxth	r3, r3
 2291              	.LVL201:
 222:User/e-Paper/GUI_Paint.c ****     case 270:
 2292              		.loc 1 222 9 is_stmt 1 view .LVU669
 2293 01d8 6EE7     		b	.L139
 2294              	.L158:
 2295              	.LBB180:
 257:User/e-Paper/GUI_Paint.c ****         UBYTE Rdata = Paint.Image[Addr];
 2296              		.loc 1 257 9 view .LVU670
 2297              	.LVL202:
 258:User/e-Paper/GUI_Paint.c ****         if (Color == BLACK)
 2298              		.loc 1 258 9 view .LVU671
 257:User/e-Paper/GUI_Paint.c ****         UBYTE Rdata = Paint.Image[Addr];
 2299              		.loc 1 257 41 is_stmt 0 view .LVU672
 2300 01da 678A     		ldrh	r7, [r4, #18]
 257:User/e-Paper/GUI_Paint.c ****         UBYTE Rdata = Paint.Image[Addr];
ARM GAS  C:\Users\upo\AppData\Local\Temp\ccEC4369.s 			page 63


 2301              		.loc 1 257 34 view .LVU673
 2302 01dc 5F43     		muls	r7, r3
 2303 01de B946     		mov	r9, r7
 257:User/e-Paper/GUI_Paint.c ****         UBYTE Rdata = Paint.Image[Addr];
 2304              		.loc 1 257 26 view .LVU674
 2305 01e0 C308     		lsrs	r3, r0, #3
 2306              	.LVL203:
 258:User/e-Paper/GUI_Paint.c ****         if (Color == BLACK)
 2307              		.loc 1 258 34 view .LVU675
 2308 01e2 2768     		ldr	r7, [r4]
 257:User/e-Paper/GUI_Paint.c ****         UBYTE Rdata = Paint.Image[Addr];
 2309              		.loc 1 257 26 view .LVU676
 2310 01e4 9BB2     		uxth	r3, r3
 257:User/e-Paper/GUI_Paint.c ****         UBYTE Rdata = Paint.Image[Addr];
 2311              		.loc 1 257 30 view .LVU677
 2312 01e6 4B44     		add	r3, r3, r9
 258:User/e-Paper/GUI_Paint.c ****         if (Color == BLACK)
 2313              		.loc 1 258 34 view .LVU678
 2314 01e8 B946     		mov	r9, r7
 2315 01ea 1F00     		movs	r7, r3
 2316 01ec 4F44     		add	r7, r7, r9
 2317 01ee BA46     		mov	r10, r7
 258:User/e-Paper/GUI_Paint.c ****         if (Color == BLACK)
 2318              		.loc 1 258 15 view .LVU679
 2319 01f0 4F46     		mov	r7, r9
 2320 01f2 FB5C     		ldrb	r3, [r7, r3]
 2321              	.LVL204:
 259:User/e-Paper/GUI_Paint.c ****             Paint.Image[Addr] = Rdata & ~(0x80 >> (X % 8));
 2322              		.loc 1 259 9 is_stmt 1 view .LVU680
 260:User/e-Paper/GUI_Paint.c ****         else
 2323              		.loc 1 260 54 is_stmt 0 view .LVU681
 2324 01f4 0727     		movs	r7, #7
 2325 01f6 0740     		ands	r7, r0
 260:User/e-Paper/GUI_Paint.c ****         else
 2326              		.loc 1 260 48 view .LVU682
 2327 01f8 8020     		movs	r0, #128
 2328              	.LVL205:
 260:User/e-Paper/GUI_Paint.c ****         else
 2329              		.loc 1 260 48 view .LVU683
 2330 01fa 3841     		asrs	r0, r0, r7
 259:User/e-Paper/GUI_Paint.c ****             Paint.Image[Addr] = Rdata & ~(0x80 >> (X % 8));
 2331              		.loc 1 259 12 view .LVU684
 2332 01fc 059F     		ldr	r7, [sp, #20]
 2333 01fe 002F     		cmp	r7, #0
 2334 0200 2DD1     		bne	.L149
 260:User/e-Paper/GUI_Paint.c ****         else
 2335              		.loc 1 260 13 is_stmt 1 view .LVU685
 260:User/e-Paper/GUI_Paint.c ****         else
 2336              		.loc 1 260 31 is_stmt 0 view .LVU686
 2337 0202 5746     		mov	r7, r10
 260:User/e-Paper/GUI_Paint.c ****         else
 2338              		.loc 1 260 39 view .LVU687
 2339 0204 8343     		bics	r3, r0
 2340              	.LVL206:
 260:User/e-Paper/GUI_Paint.c ****         else
 2341              		.loc 1 260 39 view .LVU688
 2342 0206 0132     		adds	r2, r2, #1
ARM GAS  C:\Users\upo\AppData\Local\Temp\ccEC4369.s 			page 64


 2343              	.LVL207:
 260:User/e-Paper/GUI_Paint.c ****         else
 2344              		.loc 1 260 31 view .LVU689
 2345 0208 3B70     		strb	r3, [r7]
 2346              	.LVL208:
 260:User/e-Paper/GUI_Paint.c ****         else
 2347              		.loc 1 260 31 view .LVU690
 2348              	.LBE180:
 2349              	.LBE186:
 2350              	.LBE191:
 2351              	.LBE197:
 2352              	.LBE203:
 360:User/e-Paper/GUI_Paint.c ****             {
 2353              		.loc 1 360 70 is_stmt 1 view .LVU691
 2354 020a 93B2     		uxth	r3, r2
 2355 020c 12B2     		sxth	r2, r2
 2356              	.LVL209:
 360:User/e-Paper/GUI_Paint.c ****             {
 2357              		.loc 1 360 41 view .LVU692
 2358 020e 6345     		cmp	r3, ip
 2359 0210 00DA     		bge	.LCB2345
 2360 0212 8BE7     		b	.L151	@long jump
 2361              	.LCB2345:
 2362              	.L160:
 360:User/e-Paper/GUI_Paint.c ****             {
 2363              		.loc 1 360 41 is_stmt 0 view .LVU693
 2364 0214 4346     		mov	r3, r8
 2365 0216 5D46     		mov	r5, fp
 2366 0218 0198     		ldr	r0, [sp, #4]
 2367 021a 009F     		ldr	r7, [sp]
 2368 021c 94E7     		b	.L135
 2369              	.LVL210:
 2370              	.L159:
 2371              	.LBB204:
 2372              	.LBB198:
 2373              	.LBB192:
 2374              	.LBB187:
 2375              	.LBB181:
 266:User/e-Paper/GUI_Paint.c ****         Color = Color % 4; // Guaranteed color scale is 4  --- 0~3
 2376              		.loc 1 266 9 is_stmt 1 view .LVU694
 267:User/e-Paper/GUI_Paint.c ****         UBYTE Rdata = Paint.Image[Addr];
 2377              		.loc 1 267 9 view .LVU695
 268:User/e-Paper/GUI_Paint.c **** 
 2378              		.loc 1 268 9 view .LVU696
 266:User/e-Paper/GUI_Paint.c ****         Color = Color % 4; // Guaranteed color scale is 4  --- 0~3
 2379              		.loc 1 266 41 is_stmt 0 view .LVU697
 2380 021e 678A     		ldrh	r7, [r4, #18]
 266:User/e-Paper/GUI_Paint.c ****         Color = Color % 4; // Guaranteed color scale is 4  --- 0~3
 2381              		.loc 1 266 34 view .LVU698
 2382 0220 5F43     		muls	r7, r3
 2383 0222 B946     		mov	r9, r7
 266:User/e-Paper/GUI_Paint.c ****         Color = Color % 4; // Guaranteed color scale is 4  --- 0~3
 2384              		.loc 1 266 26 view .LVU699
 2385 0224 8308     		lsrs	r3, r0, #2
 2386              	.LVL211:
 266:User/e-Paper/GUI_Paint.c ****         Color = Color % 4; // Guaranteed color scale is 4  --- 0~3
 2387              		.loc 1 266 26 view .LVU700
ARM GAS  C:\Users\upo\AppData\Local\Temp\ccEC4369.s 			page 65


 2388 0226 9BB2     		uxth	r3, r3
 266:User/e-Paper/GUI_Paint.c ****         Color = Color % 4; // Guaranteed color scale is 4  --- 0~3
 2389              		.loc 1 266 30 view .LVU701
 2390 0228 9944     		add	r9, r9, r3
 270:User/e-Paper/GUI_Paint.c ****         Paint.Image[Addr] = Rdata | ((Color << 6) >> ((X % 4) * 2));
 2391              		.loc 1 270 40 view .LVU702
 2392 022a 0323     		movs	r3, #3
 2393 022c 1840     		ands	r0, r3
 2394              	.LVL212:
 270:User/e-Paper/GUI_Paint.c ****         Paint.Image[Addr] = Rdata | ((Color << 6) >> ((X % 4) * 2));
 2395              		.loc 1 270 45 view .LVU703
 2396 022e 4300     		lsls	r3, r0, #1
 2397 0230 9A46     		mov	r10, r3
 270:User/e-Paper/GUI_Paint.c ****         Paint.Image[Addr] = Rdata | ((Color << 6) >> ((X % 4) * 2));
 2398              		.loc 1 270 33 view .LVU704
 2399 0232 C023     		movs	r3, #192
 2400 0234 5046     		mov	r0, r10
 2401 0236 0341     		asrs	r3, r3, r0
 2402 0238 1800     		movs	r0, r3
 270:User/e-Paper/GUI_Paint.c ****         Paint.Image[Addr] = Rdata | ((Color << 6) >> ((X % 4) * 2));
 2403              		.loc 1 270 23 view .LVU705
 2404 023a 4B46     		mov	r3, r9
 268:User/e-Paper/GUI_Paint.c **** 
 2405              		.loc 1 268 34 view .LVU706
 2406 023c 2768     		ldr	r7, [r4]
 2407              	.LVL213:
 270:User/e-Paper/GUI_Paint.c ****         Paint.Image[Addr] = Rdata | ((Color << 6) >> ((X % 4) * 2));
 2408              		.loc 1 270 9 is_stmt 1 view .LVU707
 271:User/e-Paper/GUI_Paint.c ****     }
 2409              		.loc 1 271 9 view .LVU708
 270:User/e-Paper/GUI_Paint.c ****         Paint.Image[Addr] = Rdata | ((Color << 6) >> ((X % 4) * 2));
 2410              		.loc 1 270 23 is_stmt 0 view .LVU709
 2411 023e FB5C     		ldrb	r3, [r7, r3]
 2412              	.LVL214:
 270:User/e-Paper/GUI_Paint.c ****         Paint.Image[Addr] = Rdata | ((Color << 6) >> ((X % 4) * 2));
 2413              		.loc 1 270 23 view .LVU710
 2414 0240 8343     		bics	r3, r0
 2415 0242 0693     		str	r3, [sp, #24]
 271:User/e-Paper/GUI_Paint.c ****     }
 2416              		.loc 1 271 51 view .LVU711
 2417 0244 5346     		mov	r3, r10
 2418 0246 0798     		ldr	r0, [sp, #28]
 2419 0248 1841     		asrs	r0, r0, r3
 271:User/e-Paper/GUI_Paint.c ****     }
 2420              		.loc 1 271 35 view .LVU712
 2421 024a 069B     		ldr	r3, [sp, #24]
 2422 024c 0343     		orrs	r3, r0
 271:User/e-Paper/GUI_Paint.c ****     }
 2423              		.loc 1 271 27 view .LVU713
 2424 024e 4846     		mov	r0, r9
 2425 0250 3B54     		strb	r3, [r7, r0]
 2426              	.LVL215:
 271:User/e-Paper/GUI_Paint.c ****     }
 2427              		.loc 1 271 27 view .LVU714
 2428              	.LBE181:
 2429 0252 65E7     		b	.L136
 2430              	.LVL216:
ARM GAS  C:\Users\upo\AppData\Local\Temp\ccEC4369.s 			page 66


 2431              	.L161:
 271:User/e-Paper/GUI_Paint.c ****     }
 2432              		.loc 1 271 27 view .LVU715
 2433 0254 4F46     		mov	r7, r9
 2434 0256 4346     		mov	r3, r8
 2435 0258 5D46     		mov	r5, fp
 2436 025a 0198     		ldr	r0, [sp, #4]
 2437 025c 74E7     		b	.L135
 2438              	.LVL217:
 2439              	.L149:
 2440              	.LBB182:
 262:User/e-Paper/GUI_Paint.c ****     }
 2441              		.loc 1 262 13 is_stmt 1 view .LVU716
 262:User/e-Paper/GUI_Paint.c ****     }
 2442              		.loc 1 262 39 is_stmt 0 view .LVU717
 2443 025e 0343     		orrs	r3, r0
 2444              	.LVL218:
 262:User/e-Paper/GUI_Paint.c ****     }
 2445              		.loc 1 262 31 view .LVU718
 2446 0260 5046     		mov	r0, r10
 2447 0262 0370     		strb	r3, [r0]
 2448              	.LVL219:
 262:User/e-Paper/GUI_Paint.c ****     }
 2449              		.loc 1 262 31 view .LVU719
 2450 0264 5CE7     		b	.L136
 2451              	.LVL220:
 2452              	.L130:
 262:User/e-Paper/GUI_Paint.c ****     }
 2453              		.loc 1 262 31 view .LVU720
 2454              	.LBE182:
 2455              	.LBE187:
 2456              	.LBE192:
 2457              	.LBE198:
 2458              	.LBE204:
 2459              	.LBE205:
 2460              	.LBE206:
 349:User/e-Paper/GUI_Paint.c ****         printf("Xpoint = %d , Paint.Width = %d  \r\n ", Xpoint, Paint.Width);
 2461              		.loc 1 349 77 is_stmt 1 view .LVU721
 350:User/e-Paper/GUI_Paint.c ****         printf("Ypoint = %d , Paint.Height = %d  \r\n ", Ypoint, Paint.Height);
 2462              		.loc 1 350 9 view .LVU722
 2463 0266 5946     		mov	r1, fp
 2464 0268 0548     		ldr	r0, .L163+4
 2465 026a FFF7FEFF 		bl	printf_
 2466              	.LVL221:
 351:User/e-Paper/GUI_Paint.c ****         return;
 2467              		.loc 1 351 9 view .LVU723
 2468 026e 4146     		mov	r1, r8
 2469 0270 E288     		ldrh	r2, [r4, #6]
 2470 0272 0448     		ldr	r0, .L163+8
 2471 0274 FFF7FEFF 		bl	printf_
 2472              	.LVL222:
 352:User/e-Paper/GUI_Paint.c ****     }
 2473              		.loc 1 352 9 view .LVU724
 2474 0278 6EE7     		b	.L129
 2475              	.L164:
 2476 027a C046     		.align	2
 2477              	.L163:
ARM GAS  C:\Users\upo\AppData\Local\Temp\ccEC4369.s 			page 67


 2478 027c 00000000 		.word	Paint
 2479 0280 00000000 		.word	.LC3
 2480 0284 24000000 		.word	.LC5
 2481              		.cfi_endproc
 2482              	.LFE1452:
 2484              		.section	.text.Paint_NewImage,"ax",%progbits
 2485              		.align	1
 2486              		.p2align 2,,3
 2487              		.global	Paint_NewImage
 2488              		.syntax unified
 2489              		.code	16
 2490              		.thumb_func
 2492              	Paint_NewImage:
 2493              	.LVL223:
 2494              	.LFB1425:
  93:User/e-Paper/GUI_Paint.c ****     Paint.Image = NULL;
 2495              		.loc 1 93 1 view -0
 2496              		.cfi_startproc
 2497              		@ args = 4, pretend = 0, frame = 0
 2498              		@ frame_needed = 0, uses_anonymous_args = 0
  94:User/e-Paper/GUI_Paint.c ****     Paint.Image = image;
 2499              		.loc 1 94 5 view .LVU726
  95:User/e-Paper/GUI_Paint.c **** 
 2500              		.loc 1 95 5 view .LVU727
  93:User/e-Paper/GUI_Paint.c ****     Paint.Image = NULL;
 2501              		.loc 1 93 1 is_stmt 0 view .LVU728
 2502 0000 30B5     		push	{r4, r5, lr}
 2503              	.LCFI11:
 2504              		.cfi_def_cfa_offset 12
 2505              		.cfi_offset 4, -12
 2506              		.cfi_offset 5, -8
 2507              		.cfi_offset 14, -4
  93:User/e-Paper/GUI_Paint.c ****     Paint.Image = NULL;
 2508              		.loc 1 93 1 view .LVU729
 2509 0002 03AC     		add	r4, sp, #12
 2510              	.LVL224:
  93:User/e-Paper/GUI_Paint.c ****     Paint.Image = NULL;
 2511              		.loc 1 93 1 view .LVU730
 2512 0004 2588     		ldrh	r5, [r4]
  95:User/e-Paper/GUI_Paint.c **** 
 2513              		.loc 1 95 17 view .LVU731
 2514 0006 0D4C     		ldr	r4, .L176
 2515              	.LVL225:
  95:User/e-Paper/GUI_Paint.c **** 
 2516              		.loc 1 95 17 view .LVU732
 2517 0008 2060     		str	r0, [r4]
  97:User/e-Paper/GUI_Paint.c ****     Paint.HeightMemory = Height;
 2518              		.loc 1 97 5 is_stmt 1 view .LVU733
 100:User/e-Paper/GUI_Paint.c **** 
 2519              		.loc 1 100 17 is_stmt 0 view .LVU734
 2520 000a 0220     		movs	r0, #2
 2521              	.LVL226:
  97:User/e-Paper/GUI_Paint.c ****     Paint.HeightMemory = Height;
 2522              		.loc 1 97 23 view .LVU735
 2523 000c 2181     		strh	r1, [r4, #8]
  98:User/e-Paper/GUI_Paint.c ****     Paint.Color = Color;
 2524              		.loc 1 98 5 is_stmt 1 view .LVU736
ARM GAS  C:\Users\upo\AppData\Local\Temp\ccEC4369.s 			page 68


 100:User/e-Paper/GUI_Paint.c **** 
 2525              		.loc 1 100 17 is_stmt 0 view .LVU737
 2526 000e E082     		strh	r0, [r4, #22]
  98:User/e-Paper/GUI_Paint.c ****     Paint.Color = Color;
 2527              		.loc 1 98 24 view .LVU738
 2528 0010 6281     		strh	r2, [r4, #10]
  99:User/e-Paper/GUI_Paint.c ****     Paint.Scale = 2;
 2529              		.loc 1 99 5 is_stmt 1 view .LVU739
  99:User/e-Paper/GUI_Paint.c ****     Paint.Scale = 2;
 2530              		.loc 1 99 17 is_stmt 0 view .LVU740
 2531 0012 A581     		strh	r5, [r4, #12]
 100:User/e-Paper/GUI_Paint.c **** 
 2532              		.loc 1 100 5 is_stmt 1 view .LVU741
 102:User/e-Paper/GUI_Paint.c ****     Paint.HeightByte = Height;
 2533              		.loc 1 102 5 view .LVU742
 102:User/e-Paper/GUI_Paint.c ****     Paint.HeightByte = Height;
 2534              		.loc 1 102 21 is_stmt 0 view .LVU743
 2535 0014 C808     		lsrs	r0, r1, #3
 2536 0016 4D07     		lsls	r5, r1, #29
 2537 0018 00D0     		beq	.L166
 102:User/e-Paper/GUI_Paint.c ****     Paint.HeightByte = Height;
 2538              		.loc 1 102 21 discriminator 2 view .LVU744
 2539 001a 0130     		adds	r0, r0, #1
 2540              	.L166:
 102:User/e-Paper/GUI_Paint.c ****     Paint.HeightByte = Height;
 2541              		.loc 1 102 21 discriminator 4 view .LVU745
 2542 001c 6082     		strh	r0, [r4, #18]
 103:User/e-Paper/GUI_Paint.c ****     //    printf("WidthByte = %d, HeightByte = %d\r\n", Paint.WidthByte, Paint.HeightByte);
 2543              		.loc 1 103 5 is_stmt 1 discriminator 4 view .LVU746
 108:User/e-Paper/GUI_Paint.c **** 
 2544              		.loc 1 108 18 is_stmt 0 discriminator 4 view .LVU747
 2545 001e 0020     		movs	r0, #0
 103:User/e-Paper/GUI_Paint.c ****     //    printf("WidthByte = %d, HeightByte = %d\r\n", Paint.WidthByte, Paint.HeightByte);
 2546              		.loc 1 103 22 discriminator 4 view .LVU748
 2547 0020 A282     		strh	r2, [r4, #20]
 107:User/e-Paper/GUI_Paint.c ****     Paint.Mirror = MIRROR_NONE;
 2548              		.loc 1 107 5 is_stmt 1 discriminator 4 view .LVU749
 107:User/e-Paper/GUI_Paint.c ****     Paint.Mirror = MIRROR_NONE;
 2549              		.loc 1 107 18 is_stmt 0 discriminator 4 view .LVU750
 2550 0022 E381     		strh	r3, [r4, #14]
 108:User/e-Paper/GUI_Paint.c **** 
 2551              		.loc 1 108 5 is_stmt 1 discriminator 4 view .LVU751
 108:User/e-Paper/GUI_Paint.c **** 
 2552              		.loc 1 108 18 is_stmt 0 discriminator 4 view .LVU752
 2553 0024 2082     		strh	r0, [r4, #16]
 110:User/e-Paper/GUI_Paint.c ****     {
 2554              		.loc 1 110 5 is_stmt 1 discriminator 4 view .LVU753
 110:User/e-Paper/GUI_Paint.c ****     {
 2555              		.loc 1 110 8 is_stmt 0 discriminator 4 view .LVU754
 2556 0026 002B     		cmp	r3, #0
 2557 0028 04D0     		beq	.L167
 110:User/e-Paper/GUI_Paint.c ****     {
 2558              		.loc 1 110 28 discriminator 1 view .LVU755
 2559 002a B42B     		cmp	r3, #180
 2560 002c 02D0     		beq	.L167
 2561 002e 0B00     		movs	r3, r1
 2562              	.LVL227:
ARM GAS  C:\Users\upo\AppData\Local\Temp\ccEC4369.s 			page 69


 117:User/e-Paper/GUI_Paint.c ****         Paint.Height = Width;
 2563              		.loc 1 117 21 view .LVU756
 2564 0030 1100     		movs	r1, r2
 2565              	.LVL228:
 118:User/e-Paper/GUI_Paint.c ****     }
 2566              		.loc 1 118 22 view .LVU757
 2567 0032 1A00     		movs	r2, r3
 2568              	.LVL229:
 2569              	.L167:
 120:User/e-Paper/GUI_Paint.c **** 
 2570              		.loc 1 120 1 view .LVU758
 2571              		@ sp needed
 2572 0034 E280     		strh	r2, [r4, #6]
 2573 0036 A180     		strh	r1, [r4, #4]
 120:User/e-Paper/GUI_Paint.c **** 
 2574              		.loc 1 120 1 view .LVU759
 2575 0038 30BD     		pop	{r4, r5, pc}
 2576              	.L177:
 2577 003a C046     		.align	2
 2578              	.L176:
 2579 003c 00000000 		.word	Paint
 2580              		.cfi_endproc
 2581              	.LFE1425:
 2583              		.section	.text.Paint_SelectImage,"ax",%progbits
 2584              		.align	1
 2585              		.p2align 2,,3
 2586              		.global	Paint_SelectImage
 2587              		.syntax unified
 2588              		.code	16
 2589              		.thumb_func
 2591              	Paint_SelectImage:
 2592              	.LVL230:
 2593              	.LFB1426:
 128:User/e-Paper/GUI_Paint.c ****     Paint.Image = image;
 2594              		.loc 1 128 1 is_stmt 1 view -0
 2595              		.cfi_startproc
 2596              		@ args = 0, pretend = 0, frame = 0
 2597              		@ frame_needed = 0, uses_anonymous_args = 0
 2598              		@ link register save eliminated.
 129:User/e-Paper/GUI_Paint.c **** }
 2599              		.loc 1 129 5 view .LVU761
 129:User/e-Paper/GUI_Paint.c **** }
 2600              		.loc 1 129 17 is_stmt 0 view .LVU762
 2601 0000 014B     		ldr	r3, .L179
 130:User/e-Paper/GUI_Paint.c **** 
 2602              		.loc 1 130 1 view .LVU763
 2603              		@ sp needed
 129:User/e-Paper/GUI_Paint.c **** }
 2604              		.loc 1 129 17 view .LVU764
 2605 0002 1860     		str	r0, [r3]
 130:User/e-Paper/GUI_Paint.c **** 
 2606              		.loc 1 130 1 view .LVU765
 2607 0004 7047     		bx	lr
 2608              	.L180:
 2609 0006 C046     		.align	2
 2610              	.L179:
 2611 0008 00000000 		.word	Paint
ARM GAS  C:\Users\upo\AppData\Local\Temp\ccEC4369.s 			page 70


 2612              		.cfi_endproc
 2613              	.LFE1426:
 2615              		.section	.text.Paint_SetRotate,"ax",%progbits
 2616              		.align	1
 2617              		.p2align 2,,3
 2618              		.global	Paint_SetRotate
 2619              		.syntax unified
 2620              		.code	16
 2621              		.thumb_func
 2623              	Paint_SetRotate:
 2624              	.LVL231:
 2625              	.LFB1427:
 138:User/e-Paper/GUI_Paint.c ****     if (Rotate == ROTATE_0 || Rotate == ROTATE_90 || Rotate == ROTATE_180 || Rotate == ROTATE_270)
 2626              		.loc 1 138 1 is_stmt 1 view -0
 2627              		.cfi_startproc
 2628              		@ args = 0, pretend = 0, frame = 0
 2629              		@ frame_needed = 0, uses_anonymous_args = 0
 2630              		@ link register save eliminated.
 139:User/e-Paper/GUI_Paint.c ****     {
 2631              		.loc 1 139 5 view .LVU767
 139:User/e-Paper/GUI_Paint.c ****     {
 2632              		.loc 1 139 8 is_stmt 0 view .LVU768
 2633 0000 0028     		cmp	r0, #0
 2634 0002 07D0     		beq	.L182
 139:User/e-Paper/GUI_Paint.c ****     {
 2635              		.loc 1 139 28 discriminator 1 view .LVU769
 2636 0004 5A28     		cmp	r0, #90
 2637 0006 05D0     		beq	.L182
 139:User/e-Paper/GUI_Paint.c ****     {
 2638              		.loc 1 139 51 discriminator 2 view .LVU770
 2639 0008 B428     		cmp	r0, #180
 2640 000a 03D0     		beq	.L182
 139:User/e-Paper/GUI_Paint.c ****     {
 2641              		.loc 1 139 75 discriminator 3 view .LVU771
 2642 000c 8723     		movs	r3, #135
 2643 000e 5B00     		lsls	r3, r3, #1
 2644 0010 9842     		cmp	r0, r3
 2645 0012 01D1     		bne	.L181
 2646              	.L182:
 141:User/e-Paper/GUI_Paint.c ****         Paint.Rotate = Rotate;
 2647              		.loc 1 141 50 is_stmt 1 view .LVU772
 142:User/e-Paper/GUI_Paint.c ****     }
 2648              		.loc 1 142 9 view .LVU773
 142:User/e-Paper/GUI_Paint.c ****     }
 2649              		.loc 1 142 22 is_stmt 0 view .LVU774
 2650 0014 014B     		ldr	r3, .L193
 2651 0016 D881     		strh	r0, [r3, #14]
 2652              	.L181:
 148:User/e-Paper/GUI_Paint.c **** 
 2653              		.loc 1 148 1 view .LVU775
 2654              		@ sp needed
 2655 0018 7047     		bx	lr
 2656              	.L194:
 2657 001a C046     		.align	2
 2658              	.L193:
 2659 001c 00000000 		.word	Paint
 2660              		.cfi_endproc
ARM GAS  C:\Users\upo\AppData\Local\Temp\ccEC4369.s 			page 71


 2661              	.LFE1427:
 2663              		.section	.text.Paint_SetScale,"ax",%progbits
 2664              		.align	1
 2665              		.p2align 2,,3
 2666              		.global	Paint_SetScale
 2667              		.syntax unified
 2668              		.code	16
 2669              		.thumb_func
 2671              	Paint_SetScale:
 2672              	.LVL232:
 2673              	.LFB1428:
 151:User/e-Paper/GUI_Paint.c ****     if (scale == 2)
 2674              		.loc 1 151 1 is_stmt 1 view -0
 2675              		.cfi_startproc
 2676              		@ args = 0, pretend = 0, frame = 0
 2677              		@ frame_needed = 0, uses_anonymous_args = 0
 2678              		@ link register save eliminated.
 152:User/e-Paper/GUI_Paint.c ****     {
 2679              		.loc 1 152 5 view .LVU777
 152:User/e-Paper/GUI_Paint.c ****     {
 2680              		.loc 1 152 8 is_stmt 0 view .LVU778
 2681 0000 0228     		cmp	r0, #2
 2682 0002 0CD0     		beq	.L216
 157:User/e-Paper/GUI_Paint.c ****     {
 2683              		.loc 1 157 10 is_stmt 1 view .LVU779
 157:User/e-Paper/GUI_Paint.c ****     {
 2684              		.loc 1 157 13 is_stmt 0 view .LVU780
 2685 0004 0428     		cmp	r0, #4
 2686 0006 02D0     		beq	.L217
 162:User/e-Paper/GUI_Paint.c ****     { // Only applicable with 5in65 e-Paper
 2687              		.loc 1 162 10 is_stmt 1 view .LVU781
 162:User/e-Paper/GUI_Paint.c ****     { // Only applicable with 5in65 e-Paper
 2688              		.loc 1 162 13 is_stmt 0 view .LVU782
 2689 0008 0728     		cmp	r0, #7
 2690 000a 11D0     		beq	.L218
 2691              	.L195:
 172:User/e-Paper/GUI_Paint.c **** /******************************************************************************
 2692              		.loc 1 172 1 view .LVU783
 2693              		@ sp needed
 2694 000c 7047     		bx	lr
 2695              	.L217:
 159:User/e-Paper/GUI_Paint.c ****         Paint.WidthByte = (Paint.WidthMemory % 4 == 0) ? (Paint.WidthMemory / 4) : (Paint.WidthMemo
 2696              		.loc 1 159 9 is_stmt 1 view .LVU784
 159:User/e-Paper/GUI_Paint.c ****         Paint.WidthByte = (Paint.WidthMemory % 4 == 0) ? (Paint.WidthMemory / 4) : (Paint.WidthMemo
 2697              		.loc 1 159 21 is_stmt 0 view .LVU785
 2698 000e 0C4B     		ldr	r3, .L219
 160:User/e-Paper/GUI_Paint.c ****     }
 2699              		.loc 1 160 33 view .LVU786
 2700 0010 1A89     		ldrh	r2, [r3, #8]
 159:User/e-Paper/GUI_Paint.c ****         Paint.WidthByte = (Paint.WidthMemory % 4 == 0) ? (Paint.WidthMemory / 4) : (Paint.WidthMemo
 2701              		.loc 1 159 21 view .LVU787
 2702 0012 D882     		strh	r0, [r3, #22]
 160:User/e-Paper/GUI_Paint.c ****     }
 2703              		.loc 1 160 9 is_stmt 1 view .LVU788
 160:User/e-Paper/GUI_Paint.c ****     }
 2704              		.loc 1 160 25 is_stmt 0 view .LVU789
 2705 0014 9108     		lsrs	r1, r2, #2
ARM GAS  C:\Users\upo\AppData\Local\Temp\ccEC4369.s 			page 72


 2706 0016 9207     		lsls	r2, r2, #30
 2707 0018 07D1     		bne	.L214
 2708              	.L201:
 165:User/e-Paper/GUI_Paint.c ****     }
 2709              		.loc 1 165 25 discriminator 4 view .LVU790
 2710 001a 5982     		strh	r1, [r3, #18]
 169:User/e-Paper/GUI_Paint.c ****         DE_BUG("Scale Only support: 2 4 7\r\n");
 2711              		.loc 1 169 54 is_stmt 1 discriminator 4 view .LVU791
 170:User/e-Paper/GUI_Paint.c ****     }
 2712              		.loc 1 170 48 discriminator 4 view .LVU792
 172:User/e-Paper/GUI_Paint.c **** /******************************************************************************
 2713              		.loc 1 172 1 is_stmt 0 discriminator 4 view .LVU793
 2714 001c F6E7     		b	.L195
 2715              	.L216:
 154:User/e-Paper/GUI_Paint.c ****         Paint.WidthByte = (Paint.WidthMemory % 8 == 0) ? (Paint.WidthMemory / 8) : (Paint.WidthMemo
 2716              		.loc 1 154 9 is_stmt 1 view .LVU794
 154:User/e-Paper/GUI_Paint.c ****         Paint.WidthByte = (Paint.WidthMemory % 8 == 0) ? (Paint.WidthMemory / 8) : (Paint.WidthMemo
 2717              		.loc 1 154 21 is_stmt 0 view .LVU795
 2718 001e 084B     		ldr	r3, .L219
 155:User/e-Paper/GUI_Paint.c ****     }
 2719              		.loc 1 155 33 view .LVU796
 2720 0020 1A89     		ldrh	r2, [r3, #8]
 154:User/e-Paper/GUI_Paint.c ****         Paint.WidthByte = (Paint.WidthMemory % 8 == 0) ? (Paint.WidthMemory / 8) : (Paint.WidthMemo
 2721              		.loc 1 154 21 view .LVU797
 2722 0022 D882     		strh	r0, [r3, #22]
 155:User/e-Paper/GUI_Paint.c ****     }
 2723              		.loc 1 155 9 is_stmt 1 view .LVU798
 155:User/e-Paper/GUI_Paint.c ****     }
 2724              		.loc 1 155 25 is_stmt 0 view .LVU799
 2725 0024 D108     		lsrs	r1, r2, #3
 2726 0026 5207     		lsls	r2, r2, #29
 2727 0028 F7D0     		beq	.L201
 2728              	.L214:
 165:User/e-Paper/GUI_Paint.c ****     }
 2729              		.loc 1 165 25 discriminator 2 view .LVU800
 2730 002a 0131     		adds	r1, r1, #1
 2731 002c 5982     		strh	r1, [r3, #18]
 169:User/e-Paper/GUI_Paint.c ****         DE_BUG("Scale Only support: 2 4 7\r\n");
 2732              		.loc 1 169 54 is_stmt 1 discriminator 2 view .LVU801
 170:User/e-Paper/GUI_Paint.c ****     }
 2733              		.loc 1 170 48 discriminator 2 view .LVU802
 2734 002e EDE7     		b	.L195
 2735              	.L218:
 164:User/e-Paper/GUI_Paint.c ****         Paint.WidthByte = (Paint.WidthMemory % 2 == 0) ? (Paint.WidthMemory / 2) : (Paint.WidthMemo
 2736              		.loc 1 164 9 view .LVU803
 164:User/e-Paper/GUI_Paint.c ****         Paint.WidthByte = (Paint.WidthMemory % 2 == 0) ? (Paint.WidthMemory / 2) : (Paint.WidthMemo
 2737              		.loc 1 164 21 is_stmt 0 view .LVU804
 2738 0030 034B     		ldr	r3, .L219
 165:User/e-Paper/GUI_Paint.c ****     }
 2739              		.loc 1 165 33 view .LVU805
 2740 0032 1A89     		ldrh	r2, [r3, #8]
 164:User/e-Paper/GUI_Paint.c ****         Paint.WidthByte = (Paint.WidthMemory % 2 == 0) ? (Paint.WidthMemory / 2) : (Paint.WidthMemo
 2741              		.loc 1 164 21 view .LVU806
 2742 0034 D882     		strh	r0, [r3, #22]
 165:User/e-Paper/GUI_Paint.c ****     }
 2743              		.loc 1 165 9 is_stmt 1 view .LVU807
 165:User/e-Paper/GUI_Paint.c ****     }
ARM GAS  C:\Users\upo\AppData\Local\Temp\ccEC4369.s 			page 73


 2744              		.loc 1 165 25 is_stmt 0 view .LVU808
 2745 0036 5108     		lsrs	r1, r2, #1
 2746 0038 D207     		lsls	r2, r2, #31
 2747 003a F6D4     		bmi	.L214
 2748 003c 5982     		strh	r1, [r3, #18]
 169:User/e-Paper/GUI_Paint.c ****         DE_BUG("Scale Only support: 2 4 7\r\n");
 2749              		.loc 1 169 54 is_stmt 1 view .LVU809
 170:User/e-Paper/GUI_Paint.c ****     }
 2750              		.loc 1 170 48 view .LVU810
 2751 003e E5E7     		b	.L195
 2752              	.L220:
 2753              		.align	2
 2754              	.L219:
 2755 0040 00000000 		.word	Paint
 2756              		.cfi_endproc
 2757              	.LFE1428:
 2759              		.section	.text.Paint_SetMirroring,"ax",%progbits
 2760              		.align	1
 2761              		.p2align 2,,3
 2762              		.global	Paint_SetMirroring
 2763              		.syntax unified
 2764              		.code	16
 2765              		.thumb_func
 2767              	Paint_SetMirroring:
 2768              	.LVL233:
 2769              	.LFB1429:
 179:User/e-Paper/GUI_Paint.c ****     if (mirror == MIRROR_NONE || mirror == MIRROR_HORIZONTAL ||
 2770              		.loc 1 179 1 view -0
 2771              		.cfi_startproc
 2772              		@ args = 0, pretend = 0, frame = 0
 2773              		@ frame_needed = 0, uses_anonymous_args = 0
 2774              		@ link register save eliminated.
 180:User/e-Paper/GUI_Paint.c ****         mirror == MIRROR_VERTICAL || mirror == MIRROR_ORIGIN)
 2775              		.loc 1 180 5 view .LVU812
 180:User/e-Paper/GUI_Paint.c ****         mirror == MIRROR_VERTICAL || mirror == MIRROR_ORIGIN)
 2776              		.loc 1 180 8 is_stmt 0 view .LVU813
 2777 0000 0328     		cmp	r0, #3
 2778 0002 01D8     		bhi	.L221
 183:User/e-Paper/GUI_Paint.c ****         Paint.Mirror = mirror;
 2779              		.loc 1 183 127 is_stmt 1 view .LVU814
 184:User/e-Paper/GUI_Paint.c ****     }
 2780              		.loc 1 184 9 view .LVU815
 184:User/e-Paper/GUI_Paint.c ****     }
 2781              		.loc 1 184 22 is_stmt 0 view .LVU816
 2782 0004 014B     		ldr	r3, .L223
 2783 0006 1882     		strh	r0, [r3, #16]
 189:User/e-Paper/GUI_Paint.c ****     }
 2784              		.loc 1 189 47 is_stmt 1 view .LVU817
 2785              	.L221:
 191:User/e-Paper/GUI_Paint.c **** 
 2786              		.loc 1 191 1 is_stmt 0 view .LVU818
 2787              		@ sp needed
 2788 0008 7047     		bx	lr
 2789              	.L224:
 2790 000a C046     		.align	2
 2791              	.L223:
 2792 000c 00000000 		.word	Paint
ARM GAS  C:\Users\upo\AppData\Local\Temp\ccEC4369.s 			page 74


 2793              		.cfi_endproc
 2794              	.LFE1429:
 2796              		.section	.text.Paint_SetPixel,"ax",%progbits
 2797              		.align	1
 2798              		.p2align 2,,3
 2799              		.global	Paint_SetPixel
 2800              		.syntax unified
 2801              		.code	16
 2802              		.thumb_func
 2804              	Paint_SetPixel:
 2805              	.LVL234:
 2806              	.LFB1430:
 201:User/e-Paper/GUI_Paint.c ****     if (Xpoint > Paint.Width || Ypoint > Paint.Height)
 2807              		.loc 1 201 1 is_stmt 1 view -0
 2808              		.cfi_startproc
 2809              		@ args = 0, pretend = 0, frame = 0
 2810              		@ frame_needed = 0, uses_anonymous_args = 0
 202:User/e-Paper/GUI_Paint.c ****     {
 2811              		.loc 1 202 5 view .LVU820
 201:User/e-Paper/GUI_Paint.c ****     if (Xpoint > Paint.Width || Ypoint > Paint.Height)
 2812              		.loc 1 201 1 is_stmt 0 view .LVU821
 2813 0000 70B5     		push	{r4, r5, r6, lr}
 2814              	.LCFI12:
 2815              		.cfi_def_cfa_offset 16
 2816              		.cfi_offset 4, -16
 2817              		.cfi_offset 5, -12
 2818              		.cfi_offset 6, -8
 2819              		.cfi_offset 14, -4
 202:User/e-Paper/GUI_Paint.c ****     {
 2820              		.loc 1 202 23 view .LVU822
 2821 0002 454B     		ldr	r3, .L250
 202:User/e-Paper/GUI_Paint.c ****     {
 2822              		.loc 1 202 8 view .LVU823
 2823 0004 9C88     		ldrh	r4, [r3, #4]
 2824 0006 8442     		cmp	r4, r0
 2825 0008 25D3     		bcc	.L225
 202:User/e-Paper/GUI_Paint.c ****     {
 2826              		.loc 1 202 30 discriminator 1 view .LVU824
 2827 000a DC88     		ldrh	r4, [r3, #6]
 2828 000c 8C42     		cmp	r4, r1
 2829 000e 22D3     		bcc	.L225
 2830              	.LVL235:
 2831              	.LBB212:
 2832              	.LBI212:
 200:User/e-Paper/GUI_Paint.c **** {
 2833              		.loc 1 200 6 is_stmt 1 view .LVU825
 2834              	.LBB213:
 207:User/e-Paper/GUI_Paint.c **** 
 2835              		.loc 1 207 5 view .LVU826
 209:User/e-Paper/GUI_Paint.c ****     {
 2836              		.loc 1 209 5 view .LVU827
 209:User/e-Paper/GUI_Paint.c ****     {
 2837              		.loc 1 209 18 is_stmt 0 view .LVU828
 2838 0010 DC89     		ldrh	r4, [r3, #14]
 209:User/e-Paper/GUI_Paint.c ****     {
 2839              		.loc 1 209 5 view .LVU829
 2840 0012 B42C     		cmp	r4, #180
ARM GAS  C:\Users\upo\AppData\Local\Temp\ccEC4369.s 			page 75


 2841 0014 3DD0     		beq	.L227
 2842 0016 2AD8     		bhi	.L228
 2843 0018 002C     		cmp	r4, #0
 2844 001a 06D0     		beq	.L229
 2845 001c 5A2C     		cmp	r4, #90
 2846 001e 1AD1     		bne	.L225
 216:User/e-Paper/GUI_Paint.c ****         Y = Xpoint;
 2847              		.loc 1 216 9 is_stmt 1 view .LVU830
 216:User/e-Paper/GUI_Paint.c ****         Y = Xpoint;
 2848              		.loc 1 216 11 is_stmt 0 view .LVU831
 2849 0020 1C89     		ldrh	r4, [r3, #8]
 2850 0022 013C     		subs	r4, r4, #1
 2851 0024 641A     		subs	r4, r4, r1
 2852              	.LVL236:
 217:User/e-Paper/GUI_Paint.c ****         break;
 2853              		.loc 1 217 9 is_stmt 1 view .LVU832
 218:User/e-Paper/GUI_Paint.c ****     case 180:
 2854              		.loc 1 218 9 view .LVU833
 2855 0026 0100     		movs	r1, r0
 2856              	.LVL237:
 216:User/e-Paper/GUI_Paint.c ****         Y = Xpoint;
 2857              		.loc 1 216 11 is_stmt 0 view .LVU834
 2858 0028 A0B2     		uxth	r0, r4
 2859              	.LVL238:
 2860              	.L229:
 231:User/e-Paper/GUI_Paint.c ****     {
 2861              		.loc 1 231 5 is_stmt 1 view .LVU835
 231:User/e-Paper/GUI_Paint.c ****     {
 2862              		.loc 1 231 18 is_stmt 0 view .LVU836
 2863 002a 1C8A     		ldrh	r4, [r3, #16]
 231:User/e-Paper/GUI_Paint.c ****     {
 2864              		.loc 1 231 5 view .LVU837
 2865 002c 022C     		cmp	r4, #2
 2866 002e 28D0     		beq	.L232
 2867 0030 12D8     		bhi	.L233
 2868 0032 002C     		cmp	r4, #0
 2869 0034 29D0     		beq	.L245
 236:User/e-Paper/GUI_Paint.c ****         break;
 2870              		.loc 1 236 9 is_stmt 1 view .LVU838
 236:User/e-Paper/GUI_Paint.c ****         break;
 2871              		.loc 1 236 18 is_stmt 0 view .LVU839
 2872 0036 1C89     		ldrh	r4, [r3, #8]
 236:User/e-Paper/GUI_Paint.c ****         break;
 2873              		.loc 1 236 11 view .LVU840
 2874 0038 651E     		subs	r5, r4, #1
 2875 003a 281A     		subs	r0, r5, r0
 2876              	.LVL239:
 236:User/e-Paper/GUI_Paint.c ****         break;
 2877              		.loc 1 236 11 view .LVU841
 2878 003c 80B2     		uxth	r0, r0
 2879              	.LVL240:
 237:User/e-Paper/GUI_Paint.c ****     case MIRROR_VERTICAL:
 2880              		.loc 1 237 9 is_stmt 1 view .LVU842
 2881              	.L237:
 249:User/e-Paper/GUI_Paint.c ****     {
 2882              		.loc 1 249 5 view .LVU843
 249:User/e-Paper/GUI_Paint.c ****     {
ARM GAS  C:\Users\upo\AppData\Local\Temp\ccEC4369.s 			page 76


 2883              		.loc 1 249 8 is_stmt 0 view .LVU844
 2884 003e 8442     		cmp	r4, r0
 2885 0040 09D3     		bcc	.L225
 2886              	.L249:
 249:User/e-Paper/GUI_Paint.c ****     {
 2887              		.loc 1 249 31 view .LVU845
 2888 0042 5C89     		ldrh	r4, [r3, #10]
 2889 0044 8C42     		cmp	r4, r1
 2890 0046 06D3     		bcc	.L225
 255:User/e-Paper/GUI_Paint.c ****     {
 2891              		.loc 1 255 5 is_stmt 1 view .LVU846
 255:User/e-Paper/GUI_Paint.c ****     {
 2892              		.loc 1 255 14 is_stmt 0 view .LVU847
 2893 0048 DC8A     		ldrh	r4, [r3, #22]
 255:User/e-Paper/GUI_Paint.c ****     {
 2894              		.loc 1 255 8 view .LVU848
 2895 004a 022C     		cmp	r4, #2
 2896 004c 3CD0     		beq	.L246
 264:User/e-Paper/GUI_Paint.c ****     {
 2897              		.loc 1 264 10 is_stmt 1 view .LVU849
 264:User/e-Paper/GUI_Paint.c ****     {
 2898              		.loc 1 264 13 is_stmt 0 view .LVU850
 2899 004e 042C     		cmp	r4, #4
 2900 0050 4BD0     		beq	.L247
 273:User/e-Paper/GUI_Paint.c ****     {
 2901              		.loc 1 273 10 is_stmt 1 view .LVU851
 273:User/e-Paper/GUI_Paint.c ****     {
 2902              		.loc 1 273 13 is_stmt 0 view .LVU852
 2903 0052 072C     		cmp	r4, #7
 2904 0054 26D0     		beq	.L248
 2905              	.LVL241:
 2906              	.L225:
 273:User/e-Paper/GUI_Paint.c ****     {
 2907              		.loc 1 273 13 view .LVU853
 2908              	.LBE213:
 2909              	.LBE212:
 281:User/e-Paper/GUI_Paint.c **** 
 2910              		.loc 1 281 1 view .LVU854
 2911              		@ sp needed
 2912 0056 70BD     		pop	{r4, r5, r6, pc}
 2913              	.LVL242:
 2914              	.L233:
 2915              	.LBB219:
 2916              	.LBB218:
 231:User/e-Paper/GUI_Paint.c ****     {
 2917              		.loc 1 231 5 view .LVU855
 2918 0058 032C     		cmp	r4, #3
 2919 005a FCD1     		bne	.L225
 242:User/e-Paper/GUI_Paint.c ****         Y = Paint.HeightMemory - Y - 1;
 2920              		.loc 1 242 9 is_stmt 1 view .LVU856
 242:User/e-Paper/GUI_Paint.c ****         Y = Paint.HeightMemory - Y - 1;
 2921              		.loc 1 242 18 is_stmt 0 view .LVU857
 2922 005c 1C89     		ldrh	r4, [r3, #8]
 242:User/e-Paper/GUI_Paint.c ****         Y = Paint.HeightMemory - Y - 1;
 2923              		.loc 1 242 11 view .LVU858
 2924 005e 651E     		subs	r5, r4, #1
 2925 0060 281A     		subs	r0, r5, r0
ARM GAS  C:\Users\upo\AppData\Local\Temp\ccEC4369.s 			page 77


 2926              	.LVL243:
 243:User/e-Paper/GUI_Paint.c ****         break;
 2927              		.loc 1 243 11 view .LVU859
 2928 0062 5D89     		ldrh	r5, [r3, #10]
 242:User/e-Paper/GUI_Paint.c ****         Y = Paint.HeightMemory - Y - 1;
 2929              		.loc 1 242 11 view .LVU860
 2930 0064 80B2     		uxth	r0, r0
 2931              	.LVL244:
 243:User/e-Paper/GUI_Paint.c ****         break;
 2932              		.loc 1 243 9 is_stmt 1 view .LVU861
 243:User/e-Paper/GUI_Paint.c ****         break;
 2933              		.loc 1 243 11 is_stmt 0 view .LVU862
 2934 0066 013D     		subs	r5, r5, #1
 2935 0068 691A     		subs	r1, r5, r1
 2936              	.LVL245:
 243:User/e-Paper/GUI_Paint.c ****         break;
 2937              		.loc 1 243 11 view .LVU863
 2938 006a 89B2     		uxth	r1, r1
 2939              	.LVL246:
 244:User/e-Paper/GUI_Paint.c ****     default:
 2940              		.loc 1 244 9 is_stmt 1 view .LVU864
 2941 006c E7E7     		b	.L237
 2942              	.LVL247:
 2943              	.L228:
 209:User/e-Paper/GUI_Paint.c ****     {
 2944              		.loc 1 209 5 is_stmt 0 view .LVU865
 2945 006e 8725     		movs	r5, #135
 2946 0070 6D00     		lsls	r5, r5, #1
 2947 0072 AC42     		cmp	r4, r5
 2948 0074 EFD1     		bne	.L225
 224:User/e-Paper/GUI_Paint.c ****         Y = Paint.HeightMemory - Xpoint - 1;
 2949              		.loc 1 224 9 is_stmt 1 view .LVU866
 2950              	.LVL248:
 225:User/e-Paper/GUI_Paint.c ****         break;
 2951              		.loc 1 225 9 view .LVU867
 225:User/e-Paper/GUI_Paint.c ****         break;
 2952              		.loc 1 225 11 is_stmt 0 view .LVU868
 2953 0076 5C89     		ldrh	r4, [r3, #10]
 2954 0078 013C     		subs	r4, r4, #1
 2955 007a 241A     		subs	r4, r4, r0
 2956              	.LVL249:
 226:User/e-Paper/GUI_Paint.c ****     default:
 2957              		.loc 1 226 9 is_stmt 1 view .LVU869
 2958 007c 0800     		movs	r0, r1
 2959              	.LVL250:
 225:User/e-Paper/GUI_Paint.c ****         break;
 2960              		.loc 1 225 11 is_stmt 0 view .LVU870
 2961 007e A1B2     		uxth	r1, r4
 2962              	.LVL251:
 226:User/e-Paper/GUI_Paint.c ****     default:
 2963              		.loc 1 226 9 view .LVU871
 2964 0080 D3E7     		b	.L229
 2965              	.LVL252:
 2966              	.L232:
 239:User/e-Paper/GUI_Paint.c ****         break;
 2967              		.loc 1 239 9 is_stmt 1 view .LVU872
 239:User/e-Paper/GUI_Paint.c ****         break;
ARM GAS  C:\Users\upo\AppData\Local\Temp\ccEC4369.s 			page 78


 2968              		.loc 1 239 11 is_stmt 0 view .LVU873
 2969 0082 5C89     		ldrh	r4, [r3, #10]
 2970 0084 013C     		subs	r4, r4, #1
 2971 0086 611A     		subs	r1, r4, r1
 2972              	.LVL253:
 239:User/e-Paper/GUI_Paint.c ****         break;
 2973              		.loc 1 239 11 view .LVU874
 2974 0088 89B2     		uxth	r1, r1
 2975              	.L245:
 2976              	.LVL254:
 240:User/e-Paper/GUI_Paint.c ****     case MIRROR_ORIGIN:
 2977              		.loc 1 240 9 is_stmt 1 view .LVU875
 216:User/e-Paper/GUI_Paint.c ****         Y = Xpoint;
 2978              		.loc 1 216 18 is_stmt 0 view .LVU876
 2979 008a 1C89     		ldrh	r4, [r3, #8]
 249:User/e-Paper/GUI_Paint.c ****     {
 2980              		.loc 1 249 5 is_stmt 1 view .LVU877
 249:User/e-Paper/GUI_Paint.c ****     {
 2981              		.loc 1 249 8 is_stmt 0 view .LVU878
 2982 008c 8442     		cmp	r4, r0
 2983 008e D8D2     		bcs	.L249
 2984 0090 E1E7     		b	.L225
 2985              	.LVL255:
 2986              	.L227:
 220:User/e-Paper/GUI_Paint.c ****         Y = Paint.HeightMemory - Ypoint - 1;
 2987              		.loc 1 220 9 is_stmt 1 view .LVU879
 220:User/e-Paper/GUI_Paint.c ****         Y = Paint.HeightMemory - Ypoint - 1;
 2988              		.loc 1 220 11 is_stmt 0 view .LVU880
 2989 0092 1C89     		ldrh	r4, [r3, #8]
 2990 0094 013C     		subs	r4, r4, #1
 2991 0096 201A     		subs	r0, r4, r0
 2992              	.LVL256:
 221:User/e-Paper/GUI_Paint.c ****         break;
 2993              		.loc 1 221 11 view .LVU881
 2994 0098 5C89     		ldrh	r4, [r3, #10]
 220:User/e-Paper/GUI_Paint.c ****         Y = Paint.HeightMemory - Ypoint - 1;
 2995              		.loc 1 220 11 view .LVU882
 2996 009a 80B2     		uxth	r0, r0
 2997              	.LVL257:
 221:User/e-Paper/GUI_Paint.c ****         break;
 2998              		.loc 1 221 9 is_stmt 1 view .LVU883
 221:User/e-Paper/GUI_Paint.c ****         break;
 2999              		.loc 1 221 11 is_stmt 0 view .LVU884
 3000 009c 013C     		subs	r4, r4, #1
 3001 009e 611A     		subs	r1, r4, r1
 3002              	.LVL258:
 221:User/e-Paper/GUI_Paint.c ****         break;
 3003              		.loc 1 221 11 view .LVU885
 3004 00a0 89B2     		uxth	r1, r1
 3005              	.LVL259:
 222:User/e-Paper/GUI_Paint.c ****     case 270:
 3006              		.loc 1 222 9 is_stmt 1 view .LVU886
 3007 00a2 C2E7     		b	.L229
 3008              	.L248:
 3009              	.LBB214:
 275:User/e-Paper/GUI_Paint.c ****         UBYTE Rdata = Paint.Image[Addr];
 3010              		.loc 1 275 9 view .LVU887
ARM GAS  C:\Users\upo\AppData\Local\Temp\ccEC4369.s 			page 79


 3011              	.LVL260:
 276:User/e-Paper/GUI_Paint.c ****         Rdata = Rdata & (~(0xF0 >> ((X % 2) * 4))); // Clear first, then set value
 3012              		.loc 1 276 9 view .LVU888
 275:User/e-Paper/GUI_Paint.c ****         UBYTE Rdata = Paint.Image[Addr];
 3013              		.loc 1 275 41 is_stmt 0 view .LVU889
 3014 00a4 5C8A     		ldrh	r4, [r3, #18]
 276:User/e-Paper/GUI_Paint.c ****         Rdata = Rdata & (~(0xF0 >> ((X % 2) * 4))); // Clear first, then set value
 3015              		.loc 1 276 34 view .LVU890
 3016 00a6 1D68     		ldr	r5, [r3]
 275:User/e-Paper/GUI_Paint.c ****         UBYTE Rdata = Paint.Image[Addr];
 3017              		.loc 1 275 34 view .LVU891
 3018 00a8 6143     		muls	r1, r4
 3019              	.LVL261:
 277:User/e-Paper/GUI_Paint.c ****         Paint.Image[Addr] = Rdata | ((Color << 4) >> ((X % 2) * 4));
 3020              		.loc 1 277 40 view .LVU892
 3021 00aa 0123     		movs	r3, #1
 275:User/e-Paper/GUI_Paint.c ****         UBYTE Rdata = Paint.Image[Addr];
 3022              		.loc 1 275 26 view .LVU893
 3023 00ac 4408     		lsrs	r4, r0, #1
 3024 00ae A4B2     		uxth	r4, r4
 275:User/e-Paper/GUI_Paint.c ****         UBYTE Rdata = Paint.Image[Addr];
 3025              		.loc 1 275 30 view .LVU894
 3026 00b0 0919     		adds	r1, r1, r4
 3027              	.LVL262:
 277:User/e-Paper/GUI_Paint.c ****         Paint.Image[Addr] = Rdata | ((Color << 4) >> ((X % 2) * 4));
 3028              		.loc 1 277 9 is_stmt 1 view .LVU895
 277:User/e-Paper/GUI_Paint.c ****         Paint.Image[Addr] = Rdata | ((Color << 4) >> ((X % 2) * 4));
 3029              		.loc 1 277 33 is_stmt 0 view .LVU896
 3030 00b2 F024     		movs	r4, #240
 277:User/e-Paper/GUI_Paint.c ****         Paint.Image[Addr] = Rdata | ((Color << 4) >> ((X % 2) * 4));
 3031              		.loc 1 277 40 view .LVU897
 3032 00b4 0340     		ands	r3, r0
 277:User/e-Paper/GUI_Paint.c ****         Paint.Image[Addr] = Rdata | ((Color << 4) >> ((X % 2) * 4));
 3033              		.loc 1 277 45 view .LVU898
 3034 00b6 9B00     		lsls	r3, r3, #2
 3035              	.LVL263:
 278:User/e-Paper/GUI_Paint.c ****         // printf("Add =  %d ,data = %d\r\n",Addr,Rdata);
 3036              		.loc 1 278 9 is_stmt 1 view .LVU899
 277:User/e-Paper/GUI_Paint.c ****         Paint.Image[Addr] = Rdata | ((Color << 4) >> ((X % 2) * 4));
 3037              		.loc 1 277 33 is_stmt 0 view .LVU900
 3038 00b8 1C41     		asrs	r4, r4, r3
 278:User/e-Paper/GUI_Paint.c ****         // printf("Add =  %d ,data = %d\r\n",Addr,Rdata);
 3039              		.loc 1 278 45 view .LVU901
 3040 00ba 1201     		lsls	r2, r2, #4
 3041              	.LVL264:
 278:User/e-Paper/GUI_Paint.c ****         // printf("Add =  %d ,data = %d\r\n",Addr,Rdata);
 3042              		.loc 1 278 51 view .LVU902
 3043 00bc 1A41     		asrs	r2, r2, r3
 277:User/e-Paper/GUI_Paint.c ****         Paint.Image[Addr] = Rdata | ((Color << 4) >> ((X % 2) * 4));
 3044              		.loc 1 277 23 view .LVU903
 3045 00be 685C     		ldrb	r0, [r5, r1]
 3046              	.LVL265:
 277:User/e-Paper/GUI_Paint.c ****         Paint.Image[Addr] = Rdata | ((Color << 4) >> ((X % 2) * 4));
 3047              		.loc 1 277 23 view .LVU904
 3048 00c0 A043     		bics	r0, r4
 278:User/e-Paper/GUI_Paint.c ****         // printf("Add =  %d ,data = %d\r\n",Addr,Rdata);
 3049              		.loc 1 278 35 view .LVU905
ARM GAS  C:\Users\upo\AppData\Local\Temp\ccEC4369.s 			page 80


 3050 00c2 0243     		orrs	r2, r0
 278:User/e-Paper/GUI_Paint.c ****         // printf("Add =  %d ,data = %d\r\n",Addr,Rdata);
 3051              		.loc 1 278 27 view .LVU906
 3052 00c4 6A54     		strb	r2, [r5, r1]
 3053              	.LVL266:
 278:User/e-Paper/GUI_Paint.c ****         // printf("Add =  %d ,data = %d\r\n",Addr,Rdata);
 3054              		.loc 1 278 27 view .LVU907
 3055 00c6 C6E7     		b	.L225
 3056              	.LVL267:
 3057              	.L246:
 278:User/e-Paper/GUI_Paint.c ****         // printf("Add =  %d ,data = %d\r\n",Addr,Rdata);
 3058              		.loc 1 278 27 view .LVU908
 3059              	.LBE214:
 3060              	.LBB215:
 257:User/e-Paper/GUI_Paint.c ****         UBYTE Rdata = Paint.Image[Addr];
 3061              		.loc 1 257 9 is_stmt 1 view .LVU909
 258:User/e-Paper/GUI_Paint.c ****         if (Color == BLACK)
 3062              		.loc 1 258 9 view .LVU910
 257:User/e-Paper/GUI_Paint.c ****         UBYTE Rdata = Paint.Image[Addr];
 3063              		.loc 1 257 41 is_stmt 0 view .LVU911
 3064 00c8 5C8A     		ldrh	r4, [r3, #18]
 258:User/e-Paper/GUI_Paint.c ****         if (Color == BLACK)
 3065              		.loc 1 258 34 view .LVU912
 3066 00ca 1B68     		ldr	r3, [r3]
 257:User/e-Paper/GUI_Paint.c ****         UBYTE Rdata = Paint.Image[Addr];
 3067              		.loc 1 257 34 view .LVU913
 3068 00cc 6143     		muls	r1, r4
 3069              	.LVL268:
 257:User/e-Paper/GUI_Paint.c ****         UBYTE Rdata = Paint.Image[Addr];
 3070              		.loc 1 257 26 view .LVU914
 3071 00ce C408     		lsrs	r4, r0, #3
 3072 00d0 A4B2     		uxth	r4, r4
 257:User/e-Paper/GUI_Paint.c ****         UBYTE Rdata = Paint.Image[Addr];
 3073              		.loc 1 257 30 view .LVU915
 3074 00d2 0919     		adds	r1, r1, r4
 258:User/e-Paper/GUI_Paint.c ****         if (Color == BLACK)
 3075              		.loc 1 258 15 view .LVU916
 3076 00d4 5C5C     		ldrb	r4, [r3, r1]
 3077              	.LVL269:
 259:User/e-Paper/GUI_Paint.c ****             Paint.Image[Addr] = Rdata & ~(0x80 >> (X % 8));
 3078              		.loc 1 259 9 is_stmt 1 view .LVU917
 258:User/e-Paper/GUI_Paint.c ****         if (Color == BLACK)
 3079              		.loc 1 258 34 is_stmt 0 view .LVU918
 3080 00d6 5D18     		adds	r5, r3, r1
 260:User/e-Paper/GUI_Paint.c ****         else
 3081              		.loc 1 260 54 view .LVU919
 3082 00d8 0723     		movs	r3, #7
 260:User/e-Paper/GUI_Paint.c ****         else
 3083              		.loc 1 260 48 view .LVU920
 3084 00da 8021     		movs	r1, #128
 260:User/e-Paper/GUI_Paint.c ****         else
 3085              		.loc 1 260 54 view .LVU921
 3086 00dc 0340     		ands	r3, r0
 260:User/e-Paper/GUI_Paint.c ****         else
 3087              		.loc 1 260 48 view .LVU922
 3088 00de 1941     		asrs	r1, r1, r3
 259:User/e-Paper/GUI_Paint.c ****             Paint.Image[Addr] = Rdata & ~(0x80 >> (X % 8));
ARM GAS  C:\Users\upo\AppData\Local\Temp\ccEC4369.s 			page 81


 3089              		.loc 1 259 12 view .LVU923
 3090 00e0 002A     		cmp	r2, #0
 3091 00e2 15D1     		bne	.L239
 260:User/e-Paper/GUI_Paint.c ****         else
 3092              		.loc 1 260 13 is_stmt 1 view .LVU924
 260:User/e-Paper/GUI_Paint.c ****         else
 3093              		.loc 1 260 39 is_stmt 0 view .LVU925
 3094 00e4 8C43     		bics	r4, r1
 3095              	.LVL270:
 260:User/e-Paper/GUI_Paint.c ****         else
 3096              		.loc 1 260 31 view .LVU926
 3097 00e6 2C70     		strb	r4, [r5]
 3098              	.LVL271:
 260:User/e-Paper/GUI_Paint.c ****         else
 3099              		.loc 1 260 31 view .LVU927
 3100 00e8 B5E7     		b	.L225
 3101              	.LVL272:
 3102              	.L247:
 260:User/e-Paper/GUI_Paint.c ****         else
 3103              		.loc 1 260 31 view .LVU928
 3104              	.LBE215:
 3105              	.LBB216:
 266:User/e-Paper/GUI_Paint.c ****         Color = Color % 4; // Guaranteed color scale is 4  --- 0~3
 3106              		.loc 1 266 9 is_stmt 1 view .LVU929
 267:User/e-Paper/GUI_Paint.c ****         UBYTE Rdata = Paint.Image[Addr];
 3107              		.loc 1 267 9 view .LVU930
 268:User/e-Paper/GUI_Paint.c **** 
 3108              		.loc 1 268 9 view .LVU931
 266:User/e-Paper/GUI_Paint.c ****         Color = Color % 4; // Guaranteed color scale is 4  --- 0~3
 3109              		.loc 1 266 41 is_stmt 0 view .LVU932
 3110 00ea 5C8A     		ldrh	r4, [r3, #18]
 268:User/e-Paper/GUI_Paint.c **** 
 3111              		.loc 1 268 34 view .LVU933
 3112 00ec 1D68     		ldr	r5, [r3]
 270:User/e-Paper/GUI_Paint.c ****         Paint.Image[Addr] = Rdata | ((Color << 6) >> ((X % 4) * 2));
 3113              		.loc 1 270 40 view .LVU934
 3114 00ee 0323     		movs	r3, #3
 270:User/e-Paper/GUI_Paint.c ****         Paint.Image[Addr] = Rdata | ((Color << 6) >> ((X % 4) * 2));
 3115              		.loc 1 270 33 view .LVU935
 3116 00f0 C026     		movs	r6, #192
 266:User/e-Paper/GUI_Paint.c ****         Color = Color % 4; // Guaranteed color scale is 4  --- 0~3
 3117              		.loc 1 266 34 view .LVU936
 3118 00f2 6143     		muls	r1, r4
 3119              	.LVL273:
 266:User/e-Paper/GUI_Paint.c ****         Color = Color % 4; // Guaranteed color scale is 4  --- 0~3
 3120              		.loc 1 266 26 view .LVU937
 3121 00f4 8408     		lsrs	r4, r0, #2
 270:User/e-Paper/GUI_Paint.c ****         Paint.Image[Addr] = Rdata | ((Color << 6) >> ((X % 4) * 2));
 3122              		.loc 1 270 40 view .LVU938
 3123 00f6 1840     		ands	r0, r3
 3124              	.LVL274:
 270:User/e-Paper/GUI_Paint.c ****         Paint.Image[Addr] = Rdata | ((Color << 6) >> ((X % 4) * 2));
 3125              		.loc 1 270 45 view .LVU939
 3126 00f8 4000     		lsls	r0, r0, #1
 271:User/e-Paper/GUI_Paint.c ****     }
 3127              		.loc 1 271 45 view .LVU940
 3128 00fa 1340     		ands	r3, r2
ARM GAS  C:\Users\upo\AppData\Local\Temp\ccEC4369.s 			page 82


 270:User/e-Paper/GUI_Paint.c ****         Paint.Image[Addr] = Rdata | ((Color << 6) >> ((X % 4) * 2));
 3129              		.loc 1 270 33 view .LVU941
 3130 00fc 0641     		asrs	r6, r6, r0
 271:User/e-Paper/GUI_Paint.c ****     }
 3131              		.loc 1 271 45 view .LVU942
 3132 00fe 9B01     		lsls	r3, r3, #6
 271:User/e-Paper/GUI_Paint.c ****     }
 3133              		.loc 1 271 51 view .LVU943
 3134 0100 0341     		asrs	r3, r3, r0
 266:User/e-Paper/GUI_Paint.c ****         Color = Color % 4; // Guaranteed color scale is 4  --- 0~3
 3135              		.loc 1 266 26 view .LVU944
 3136 0102 A4B2     		uxth	r4, r4
 266:User/e-Paper/GUI_Paint.c ****         Color = Color % 4; // Guaranteed color scale is 4  --- 0~3
 3137              		.loc 1 266 30 view .LVU945
 3138 0104 0919     		adds	r1, r1, r4
 3139              	.LVL275:
 270:User/e-Paper/GUI_Paint.c ****         Paint.Image[Addr] = Rdata | ((Color << 6) >> ((X % 4) * 2));
 3140              		.loc 1 270 9 is_stmt 1 view .LVU946
 271:User/e-Paper/GUI_Paint.c ****     }
 3141              		.loc 1 271 9 view .LVU947
 270:User/e-Paper/GUI_Paint.c ****         Paint.Image[Addr] = Rdata | ((Color << 6) >> ((X % 4) * 2));
 3142              		.loc 1 270 23 is_stmt 0 view .LVU948
 3143 0106 6C5C     		ldrb	r4, [r5, r1]
 3144 0108 B443     		bics	r4, r6
 271:User/e-Paper/GUI_Paint.c ****     }
 3145              		.loc 1 271 35 view .LVU949
 3146 010a 2343     		orrs	r3, r4
 271:User/e-Paper/GUI_Paint.c ****     }
 3147              		.loc 1 271 27 view .LVU950
 3148 010c 6B54     		strb	r3, [r5, r1]
 3149              	.LVL276:
 271:User/e-Paper/GUI_Paint.c ****     }
 3150              		.loc 1 271 27 view .LVU951
 3151              	.LBE216:
 3152 010e A2E7     		b	.L225
 3153              	.LVL277:
 3154              	.L239:
 3155              	.LBB217:
 262:User/e-Paper/GUI_Paint.c ****     }
 3156              		.loc 1 262 13 is_stmt 1 view .LVU952
 262:User/e-Paper/GUI_Paint.c ****     }
 3157              		.loc 1 262 39 is_stmt 0 view .LVU953
 3158 0110 0C43     		orrs	r4, r1
 3159              	.LVL278:
 262:User/e-Paper/GUI_Paint.c ****     }
 3160              		.loc 1 262 31 view .LVU954
 3161 0112 2C70     		strb	r4, [r5]
 3162              	.LVL279:
 262:User/e-Paper/GUI_Paint.c ****     }
 3163              		.loc 1 262 31 view .LVU955
 3164 0114 9FE7     		b	.L225
 3165              	.L251:
 3166 0116 C046     		.align	2
 3167              	.L250:
 3168 0118 00000000 		.word	Paint
 3169              	.LBE217:
 3170              	.LBE218:
ARM GAS  C:\Users\upo\AppData\Local\Temp\ccEC4369.s 			page 83


 3171              	.LBE219:
 3172              		.cfi_endproc
 3173              	.LFE1430:
 3175              		.section	.text.Paint_Clear,"ax",%progbits
 3176              		.align	1
 3177              		.p2align 2,,3
 3178              		.global	Paint_Clear
 3179              		.syntax unified
 3180              		.code	16
 3181              		.thumb_func
 3183              	Paint_Clear:
 3184              	.LVL280:
 3185              	.LFB1431:
 289:User/e-Paper/GUI_Paint.c ****     if (Paint.Scale == 2 || Paint.Scale == 4)
 3186              		.loc 1 289 1 is_stmt 1 view -0
 3187              		.cfi_startproc
 3188              		@ args = 0, pretend = 0, frame = 0
 3189              		@ frame_needed = 0, uses_anonymous_args = 0
 290:User/e-Paper/GUI_Paint.c ****     {
 3190              		.loc 1 290 5 view .LVU957
 289:User/e-Paper/GUI_Paint.c ****     if (Paint.Scale == 2 || Paint.Scale == 4)
 3191              		.loc 1 289 1 is_stmt 0 view .LVU958
 3192 0000 30B5     		push	{r4, r5, lr}
 3193              	.LCFI13:
 3194              		.cfi_def_cfa_offset 12
 3195              		.cfi_offset 4, -12
 3196              		.cfi_offset 5, -8
 3197              		.cfi_offset 14, -4
 290:User/e-Paper/GUI_Paint.c ****     {
 3198              		.loc 1 290 14 view .LVU959
 3199 0002 1D4C     		ldr	r4, .L271
 290:User/e-Paper/GUI_Paint.c ****     {
 3200              		.loc 1 290 8 view .LVU960
 3201 0004 1D4A     		ldr	r2, .L271+4
 290:User/e-Paper/GUI_Paint.c ****     {
 3202              		.loc 1 290 14 view .LVU961
 3203 0006 E38A     		ldrh	r3, [r4, #22]
 290:User/e-Paper/GUI_Paint.c ****     {
 3204              		.loc 1 290 8 view .LVU962
 3205 0008 991E     		subs	r1, r3, #2
 3206 000a 1142     		tst	r1, r2
 3207 000c 02D0     		beq	.L269
 301:User/e-Paper/GUI_Paint.c ****     {
 3208              		.loc 1 301 10 is_stmt 1 view .LVU963
 301:User/e-Paper/GUI_Paint.c ****     {
 3209              		.loc 1 301 13 is_stmt 0 view .LVU964
 3210 000e 072B     		cmp	r3, #7
 3211 0010 18D0     		beq	.L270
 3212              	.LVL281:
 3213              	.L252:
 312:User/e-Paper/GUI_Paint.c **** 
 3214              		.loc 1 312 1 view .LVU965
 3215              		@ sp needed
 3216 0012 30BD     		pop	{r4, r5, pc}
 3217              	.LVL282:
 3218              	.L269:
 3219              	.LBB220:
ARM GAS  C:\Users\upo\AppData\Local\Temp\ccEC4369.s 			page 84


 292:User/e-Paper/GUI_Paint.c ****         {
 3220              		.loc 1 292 29 is_stmt 1 discriminator 1 view .LVU966
 3221 0014 A38A     		ldrh	r3, [r4, #20]
 3222 0016 002B     		cmp	r3, #0
 3223 0018 FBD0     		beq	.L252
 3224              	.LBE220:
 3225              	.LBB224:
 3226              	.LBB225:
 305:User/e-Paper/GUI_Paint.c ****             {
 3227              		.loc 1 305 40 is_stmt 0 view .LVU967
 3228 001a 0025     		movs	r5, #0
 3229 001c 628A     		ldrh	r2, [r4, #18]
 3230              	.LBE225:
 3231              	.LBE224:
 3232              	.LBB231:
 3233              	.LBB221:
 3234              	.LBB222:
 297:User/e-Paper/GUI_Paint.c ****             }
 3235              		.loc 1 297 35 view .LVU968
 3236 001e C0B2     		uxtb	r0, r0
 3237              	.LVL283:
 3238              	.L255:
 297:User/e-Paper/GUI_Paint.c ****             }
 3239              		.loc 1 297 35 view .LVU969
 3240              	.LBE222:
 294:User/e-Paper/GUI_Paint.c ****             { // 8 pixel =  1 byte
 3241              		.loc 1 294 33 is_stmt 1 view .LVU970
 3242 0020 002A     		cmp	r2, #0
 3243 0022 F6D0     		beq	.L252
 294:User/e-Paper/GUI_Paint.c ****             { // 8 pixel =  1 byte
 3244              		.loc 1 294 24 is_stmt 0 view .LVU971
 3245 0024 0023     		movs	r3, #0
 3246              	.LVL284:
 3247              	.L256:
 3248              	.LBB223:
 296:User/e-Paper/GUI_Paint.c ****                 Paint.Image[Addr] = Color;
 3249              		.loc 1 296 17 is_stmt 1 discriminator 3 view .LVU972
 297:User/e-Paper/GUI_Paint.c ****             }
 3250              		.loc 1 297 17 discriminator 3 view .LVU973
 296:User/e-Paper/GUI_Paint.c ****                 Paint.Image[Addr] = Color;
 3251              		.loc 1 296 38 is_stmt 0 discriminator 3 view .LVU974
 3252 0026 6A43     		muls	r2, r5
 3253              	.LVL285:
 297:User/e-Paper/GUI_Paint.c ****             }
 3254              		.loc 1 297 35 discriminator 3 view .LVU975
 3255 0028 2168     		ldr	r1, [r4]
 3256 002a C918     		adds	r1, r1, r3
 3257 002c 8854     		strb	r0, [r1, r2]
 3258              	.LBE223:
 294:User/e-Paper/GUI_Paint.c ****             { // 8 pixel =  1 byte
 3259              		.loc 1 294 53 is_stmt 1 discriminator 3 view .LVU976
 3260 002e 0133     		adds	r3, r3, #1
 3261              	.LVL286:
 294:User/e-Paper/GUI_Paint.c ****             { // 8 pixel =  1 byte
 3262              		.loc 1 294 40 is_stmt 0 discriminator 3 view .LVU977
 3263 0030 628A     		ldrh	r2, [r4, #18]
 294:User/e-Paper/GUI_Paint.c ****             { // 8 pixel =  1 byte
ARM GAS  C:\Users\upo\AppData\Local\Temp\ccEC4369.s 			page 85


 3264              		.loc 1 294 53 discriminator 3 view .LVU978
 3265 0032 9BB2     		uxth	r3, r3
 3266              	.LVL287:
 294:User/e-Paper/GUI_Paint.c ****             { // 8 pixel =  1 byte
 3267              		.loc 1 294 33 is_stmt 1 discriminator 3 view .LVU979
 3268 0034 9A42     		cmp	r2, r3
 3269 0036 F6D8     		bhi	.L256
 3270              	.LBE221:
 292:User/e-Paper/GUI_Paint.c ****         {
 3271              		.loc 1 292 50 view .LVU980
 3272 0038 0135     		adds	r5, r5, #1
 3273              	.LVL288:
 292:User/e-Paper/GUI_Paint.c ****         {
 3274              		.loc 1 292 29 is_stmt 0 view .LVU981
 3275 003a A38A     		ldrh	r3, [r4, #20]
 3276              	.LVL289:
 292:User/e-Paper/GUI_Paint.c ****         {
 3277              		.loc 1 292 50 view .LVU982
 3278 003c ADB2     		uxth	r5, r5
 3279              	.LVL290:
 292:User/e-Paper/GUI_Paint.c ****         {
 3280              		.loc 1 292 29 is_stmt 1 view .LVU983
 3281 003e AB42     		cmp	r3, r5
 3282 0040 EED8     		bhi	.L255
 3283 0042 E6E7     		b	.L252
 3284              	.LVL291:
 3285              	.L270:
 292:User/e-Paper/GUI_Paint.c ****         {
 3286              		.loc 1 292 29 is_stmt 0 view .LVU984
 3287              	.LBE231:
 3288              	.LBB232:
 303:User/e-Paper/GUI_Paint.c ****         {
 3289              		.loc 1 303 29 is_stmt 1 view .LVU985
 3290 0044 A38A     		ldrh	r3, [r4, #20]
 3291 0046 002B     		cmp	r3, #0
 3292 0048 E3D0     		beq	.L252
 3293              	.LBB229:
 3294              	.LBB226:
 308:User/e-Paper/GUI_Paint.c ****             }
 3295              		.loc 1 308 44 is_stmt 0 view .LVU986
 3296 004a 0501     		lsls	r5, r0, #4
 308:User/e-Paper/GUI_Paint.c ****             }
 3297              		.loc 1 308 50 view .LVU987
 3298 004c 0543     		orrs	r5, r0
 3299              	.LBE226:
 3300              	.LBE229:
 303:User/e-Paper/GUI_Paint.c ****         {
 3301              		.loc 1 303 20 view .LVU988
 3302 004e 0020     		movs	r0, #0
 3303              	.LVL292:
 3304              	.LBB230:
 305:User/e-Paper/GUI_Paint.c ****             {
 3305              		.loc 1 305 40 view .LVU989
 3306 0050 628A     		ldrh	r2, [r4, #18]
 3307              	.LBB227:
 308:User/e-Paper/GUI_Paint.c ****             }
 3308              		.loc 1 308 50 view .LVU990
ARM GAS  C:\Users\upo\AppData\Local\Temp\ccEC4369.s 			page 86


 3309 0052 EDB2     		uxtb	r5, r5
 3310              	.LVL293:
 3311              	.L258:
 308:User/e-Paper/GUI_Paint.c ****             }
 3312              		.loc 1 308 50 view .LVU991
 3313              	.LBE227:
 305:User/e-Paper/GUI_Paint.c ****             {
 3314              		.loc 1 305 33 is_stmt 1 view .LVU992
 3315 0054 002A     		cmp	r2, #0
 3316 0056 DCD0     		beq	.L252
 305:User/e-Paper/GUI_Paint.c ****             {
 3317              		.loc 1 305 24 is_stmt 0 view .LVU993
 3318 0058 0023     		movs	r3, #0
 3319              	.LVL294:
 3320              	.L259:
 3321              	.LBB228:
 307:User/e-Paper/GUI_Paint.c ****                 Paint.Image[Addr] = (Color << 4) | Color;
 3322              		.loc 1 307 17 is_stmt 1 discriminator 3 view .LVU994
 308:User/e-Paper/GUI_Paint.c ****             }
 3323              		.loc 1 308 17 discriminator 3 view .LVU995
 307:User/e-Paper/GUI_Paint.c ****                 Paint.Image[Addr] = (Color << 4) | Color;
 3324              		.loc 1 307 38 is_stmt 0 discriminator 3 view .LVU996
 3325 005a 4243     		muls	r2, r0
 3326              	.LVL295:
 308:User/e-Paper/GUI_Paint.c ****             }
 3327              		.loc 1 308 35 discriminator 3 view .LVU997
 3328 005c 2168     		ldr	r1, [r4]
 3329 005e C918     		adds	r1, r1, r3
 3330 0060 8D54     		strb	r5, [r1, r2]
 3331              	.LBE228:
 305:User/e-Paper/GUI_Paint.c ****             {
 3332              		.loc 1 305 53 is_stmt 1 discriminator 3 view .LVU998
 3333 0062 0133     		adds	r3, r3, #1
 3334              	.LVL296:
 305:User/e-Paper/GUI_Paint.c ****             {
 3335              		.loc 1 305 40 is_stmt 0 discriminator 3 view .LVU999
 3336 0064 628A     		ldrh	r2, [r4, #18]
 305:User/e-Paper/GUI_Paint.c ****             {
 3337              		.loc 1 305 53 discriminator 3 view .LVU1000
 3338 0066 9BB2     		uxth	r3, r3
 3339              	.LVL297:
 305:User/e-Paper/GUI_Paint.c ****             {
 3340              		.loc 1 305 33 is_stmt 1 discriminator 3 view .LVU1001
 3341 0068 9A42     		cmp	r2, r3
 3342 006a F6D8     		bhi	.L259
 3343              	.LBE230:
 303:User/e-Paper/GUI_Paint.c ****         {
 3344              		.loc 1 303 50 view .LVU1002
 3345 006c 0130     		adds	r0, r0, #1
 3346              	.LVL298:
 303:User/e-Paper/GUI_Paint.c ****         {
 3347              		.loc 1 303 29 is_stmt 0 view .LVU1003
 3348 006e A38A     		ldrh	r3, [r4, #20]
 3349              	.LVL299:
 303:User/e-Paper/GUI_Paint.c ****         {
 3350              		.loc 1 303 50 view .LVU1004
 3351 0070 80B2     		uxth	r0, r0
ARM GAS  C:\Users\upo\AppData\Local\Temp\ccEC4369.s 			page 87


 3352              	.LVL300:
 303:User/e-Paper/GUI_Paint.c ****         {
 3353              		.loc 1 303 29 is_stmt 1 view .LVU1005
 3354 0072 8342     		cmp	r3, r0
 3355 0074 EED8     		bhi	.L258
 3356 0076 CCE7     		b	.L252
 3357              	.L272:
 3358              		.align	2
 3359              	.L271:
 3360 0078 00000000 		.word	Paint
 3361 007c FDFF0000 		.word	65533
 3362              	.LBE232:
 3363              		.cfi_endproc
 3364              	.LFE1431:
 3366              		.section	.text.Paint_ClearWindows,"ax",%progbits
 3367              		.align	1
 3368              		.p2align 2,,3
 3369              		.global	Paint_ClearWindows
 3370              		.syntax unified
 3371              		.code	16
 3372              		.thumb_func
 3374              	Paint_ClearWindows:
 3375              	.LVL301:
 3376              	.LFB1432:
 324:User/e-Paper/GUI_Paint.c ****     UWORD X, Y;
 3377              		.loc 1 324 1 view -0
 3378              		.cfi_startproc
 3379              		@ args = 4, pretend = 0, frame = 16
 3380              		@ frame_needed = 0, uses_anonymous_args = 0
 325:User/e-Paper/GUI_Paint.c ****     for (Y = Ystart; Y < Yend; Y++)
 3381              		.loc 1 325 5 view .LVU1007
 326:User/e-Paper/GUI_Paint.c ****     {
 3382              		.loc 1 326 5 view .LVU1008
 326:User/e-Paper/GUI_Paint.c ****     {
 3383              		.loc 1 326 24 view .LVU1009
 324:User/e-Paper/GUI_Paint.c ****     UWORD X, Y;
 3384              		.loc 1 324 1 is_stmt 0 view .LVU1010
 3385 0000 F0B5     		push	{r4, r5, r6, r7, lr}
 3386              	.LCFI14:
 3387              		.cfi_def_cfa_offset 20
 3388              		.cfi_offset 4, -20
 3389              		.cfi_offset 5, -16
 3390              		.cfi_offset 6, -12
 3391              		.cfi_offset 7, -8
 3392              		.cfi_offset 14, -4
 3393 0002 5746     		mov	r7, r10
 3394 0004 4E46     		mov	r6, r9
 3395 0006 4546     		mov	r5, r8
 3396 0008 DE46     		mov	lr, fp
 3397 000a E0B5     		push	{r5, r6, r7, lr}
 3398              	.LCFI15:
 3399              		.cfi_def_cfa_offset 36
 3400              		.cfi_offset 8, -36
 3401              		.cfi_offset 9, -32
 3402              		.cfi_offset 10, -28
 3403              		.cfi_offset 11, -24
 3404 000c 85B0     		sub	sp, sp, #20
ARM GAS  C:\Users\upo\AppData\Local\Temp\ccEC4369.s 			page 88


 3405              	.LCFI16:
 3406              		.cfi_def_cfa_offset 56
 324:User/e-Paper/GUI_Paint.c ****     UWORD X, Y;
 3407              		.loc 1 324 1 view .LVU1011
 3408 000e 1E00     		movs	r6, r3
 3409 0010 0EAB     		add	r3, sp, #56
 3410              	.LVL302:
 324:User/e-Paper/GUI_Paint.c ****     UWORD X, Y;
 3411              		.loc 1 324 1 view .LVU1012
 3412 0012 1B88     		ldrh	r3, [r3]
 3413              	.LVL303:
 324:User/e-Paper/GUI_Paint.c ****     UWORD X, Y;
 3414              		.loc 1 324 1 view .LVU1013
 3415 0014 0700     		movs	r7, r0
 3416 0016 1400     		movs	r4, r2
 3417 0018 0800     		movs	r0, r1
 3418              	.LVL304:
 324:User/e-Paper/GUI_Paint.c ****     UWORD X, Y;
 3419              		.loc 1 324 1 view .LVU1014
 3420 001a 9846     		mov	r8, r3
 326:User/e-Paper/GUI_Paint.c ****     {
 3421              		.loc 1 326 24 view .LVU1015
 3422 001c B142     		cmp	r1, r6
 3423 001e 00D3     		bcc	.LCB3394
 3424 0020 97E0     		b	.L273	@long jump
 3425              	.LCB3394:
 3426 0022 9742     		cmp	r7, r2
 3427 0024 00D3     		bcc	.LCB3396
 3428 0026 94E0     		b	.L273	@long jump
 3429              	.LCB3396:
 3430              	.LBB240:
 3431              	.LBB241:
 3432              	.LBB242:
 3433              	.LBB243:
 3434              	.LBB244:
 271:User/e-Paper/GUI_Paint.c ****     }
 3435              		.loc 1 271 45 view .LVU1016
 3436 0028 0323     		movs	r3, #3
 3437 002a 4146     		mov	r1, r8
 3438              	.LVL305:
 271:User/e-Paper/GUI_Paint.c ****     }
 3439              		.loc 1 271 45 view .LVU1017
 3440 002c 0B40     		ands	r3, r1
 3441 002e 9B01     		lsls	r3, r3, #6
 3442 0030 0293     		str	r3, [sp, #8]
 3443 0032 3300     		movs	r3, r6
 3444              	.LBE244:
 209:User/e-Paper/GUI_Paint.c ****     {
 3445              		.loc 1 209 5 view .LVU1018
 3446 0034 8725     		movs	r5, #135
 3447 0036 2600     		movs	r6, r4
 3448 0038 0400     		movs	r4, r0
 3449 003a 1800     		movs	r0, r3
 3450 003c 694A     		ldr	r2, .L304
 3451              	.LVL306:
 209:User/e-Paper/GUI_Paint.c ****     {
 3452              		.loc 1 209 5 view .LVU1019
ARM GAS  C:\Users\upo\AppData\Local\Temp\ccEC4369.s 			page 89


 3453 003e 6D00     		lsls	r5, r5, #1
 3454 0040 0197     		str	r7, [sp, #4]
 3455              	.LVL307:
 3456              	.L275:
 209:User/e-Paper/GUI_Paint.c ****     {
 3457              		.loc 1 209 5 view .LVU1020
 3458              	.LBE243:
 3459              	.LBE242:
 3460              	.LBE241:
 3461              	.LBE240:
 328:User/e-Paper/GUI_Paint.c ****         { // 8 pixel =  1 byte
 3462              		.loc 1 328 28 is_stmt 1 view .LVU1021
 3463 0042 8446     		mov	ip, r0
 328:User/e-Paper/GUI_Paint.c ****         { // 8 pixel =  1 byte
 3464              		.loc 1 328 16 is_stmt 0 view .LVU1022
 3465 0044 019B     		ldr	r3, [sp, #4]
 3466 0046 1000     		movs	r0, r2
 3467 0048 44E0     		b	.L292
 3468              	.LVL308:
 3469              	.L302:
 3470              	.LBB258:
 3471              	.LBB255:
 3472              	.LBB252:
 3473              	.LBB249:
 209:User/e-Paper/GUI_Paint.c ****     {
 3474              		.loc 1 209 5 view .LVU1023
 3475 004a 5A29     		cmp	r1, #90
 3476 004c 3ED1     		bne	.L277
 216:User/e-Paper/GUI_Paint.c ****         Y = Xpoint;
 3477              		.loc 1 216 9 is_stmt 1 view .LVU1024
 218:User/e-Paper/GUI_Paint.c ****     case 180:
 3478              		.loc 1 218 9 is_stmt 0 view .LVU1025
 3479 004e 1A00     		movs	r2, r3
 216:User/e-Paper/GUI_Paint.c ****         Y = Xpoint;
 3480              		.loc 1 216 11 view .LVU1026
 3481 0050 0189     		ldrh	r1, [r0, #8]
 3482 0052 0139     		subs	r1, r1, #1
 3483 0054 091B     		subs	r1, r1, r4
 3484 0056 89B2     		uxth	r1, r1
 3485              	.LVL309:
 217:User/e-Paper/GUI_Paint.c ****         break;
 3486              		.loc 1 217 9 is_stmt 1 view .LVU1027
 218:User/e-Paper/GUI_Paint.c ****     case 180:
 3487              		.loc 1 218 9 view .LVU1028
 3488              	.L280:
 231:User/e-Paper/GUI_Paint.c ****     {
 3489              		.loc 1 231 5 view .LVU1029
 231:User/e-Paper/GUI_Paint.c ****     {
 3490              		.loc 1 231 18 is_stmt 0 view .LVU1030
 3491 0058 078A     		ldrh	r7, [r0, #16]
 231:User/e-Paper/GUI_Paint.c ****     {
 3492              		.loc 1 231 5 view .LVU1031
 3493 005a 022F     		cmp	r7, #2
 3494 005c 4BD0     		beq	.L283
 3495              	.L303:
 231:User/e-Paper/GUI_Paint.c ****     {
 3496              		.loc 1 231 5 view .LVU1032
ARM GAS  C:\Users\upo\AppData\Local\Temp\ccEC4369.s 			page 90


 3497 005e 022F     		cmp	r7, #2
 3498 0060 5DD8     		bhi	.L284
 3499 0062 002F     		cmp	r7, #0
 3500 0064 50D0     		beq	.L298
 236:User/e-Paper/GUI_Paint.c ****         break;
 3501              		.loc 1 236 9 is_stmt 1 view .LVU1033
 236:User/e-Paper/GUI_Paint.c ****         break;
 3502              		.loc 1 236 18 is_stmt 0 view .LVU1034
 3503 0066 0789     		ldrh	r7, [r0, #8]
 3504 0068 B946     		mov	r9, r7
 236:User/e-Paper/GUI_Paint.c ****         break;
 3505              		.loc 1 236 11 view .LVU1035
 3506 006a 0127     		movs	r7, #1
 3507 006c 7F42     		rsbs	r7, r7, #0
 3508 006e 4F44     		add	r7, r7, r9
 3509 0070 791A     		subs	r1, r7, r1
 3510              	.LVL310:
 236:User/e-Paper/GUI_Paint.c ****         break;
 3511              		.loc 1 236 11 view .LVU1036
 3512 0072 89B2     		uxth	r1, r1
 3513              	.LVL311:
 237:User/e-Paper/GUI_Paint.c ****     case MIRROR_VERTICAL:
 3514              		.loc 1 237 9 is_stmt 1 view .LVU1037
 3515              	.L288:
 249:User/e-Paper/GUI_Paint.c ****     {
 3516              		.loc 1 249 5 view .LVU1038
 249:User/e-Paper/GUI_Paint.c ****     {
 3517              		.loc 1 249 8 is_stmt 0 view .LVU1039
 3518 0074 4945     		cmp	r1, r9
 3519 0076 29D8     		bhi	.L277
 249:User/e-Paper/GUI_Paint.c ****     {
 3520              		.loc 1 249 31 view .LVU1040
 3521 0078 4789     		ldrh	r7, [r0, #10]
 3522 007a 9742     		cmp	r7, r2
 3523 007c 26D3     		bcc	.L277
 255:User/e-Paper/GUI_Paint.c ****     {
 3524              		.loc 1 255 5 is_stmt 1 view .LVU1041
 255:User/e-Paper/GUI_Paint.c ****     {
 3525              		.loc 1 255 14 is_stmt 0 view .LVU1042
 3526 007e C78A     		ldrh	r7, [r0, #22]
 255:User/e-Paper/GUI_Paint.c ****     {
 3527              		.loc 1 255 8 view .LVU1043
 3528 0080 022F     		cmp	r7, #2
 3529 0082 00D1     		bne	.LCB3515
 3530 0084 75E0     		b	.L299	@long jump
 3531              	.LCB3515:
 264:User/e-Paper/GUI_Paint.c ****     {
 3532              		.loc 1 264 10 is_stmt 1 view .LVU1044
 264:User/e-Paper/GUI_Paint.c ****     {
 3533              		.loc 1 264 13 is_stmt 0 view .LVU1045
 3534 0086 042F     		cmp	r7, #4
 3535 0088 00D1     		bne	.LCB3518
 3536 008a 88E0     		b	.L300	@long jump
 3537              	.LCB3518:
 273:User/e-Paper/GUI_Paint.c ****     {
 3538              		.loc 1 273 10 is_stmt 1 view .LVU1046
 273:User/e-Paper/GUI_Paint.c ****     {
ARM GAS  C:\Users\upo\AppData\Local\Temp\ccEC4369.s 			page 91


 3539              		.loc 1 273 13 is_stmt 0 view .LVU1047
 3540 008c 072F     		cmp	r7, #7
 3541 008e 1DD1     		bne	.L277
 3542              	.LBB245:
 275:User/e-Paper/GUI_Paint.c ****         UBYTE Rdata = Paint.Image[Addr];
 3543              		.loc 1 275 9 is_stmt 1 view .LVU1048
 3544              	.LVL312:
 276:User/e-Paper/GUI_Paint.c ****         Rdata = Rdata & (~(0xF0 >> ((X % 2) * 4))); // Clear first, then set value
 3545              		.loc 1 276 9 view .LVU1049
 275:User/e-Paper/GUI_Paint.c ****         UBYTE Rdata = Paint.Image[Addr];
 3546              		.loc 1 275 41 is_stmt 0 view .LVU1050
 3547 0090 478A     		ldrh	r7, [r0, #18]
 275:User/e-Paper/GUI_Paint.c ****         UBYTE Rdata = Paint.Image[Addr];
 3548              		.loc 1 275 34 view .LVU1051
 3549 0092 7A43     		muls	r2, r7
 3550              	.LVL313:
 275:User/e-Paper/GUI_Paint.c ****         UBYTE Rdata = Paint.Image[Addr];
 3551              		.loc 1 275 26 view .LVU1052
 3552 0094 4F08     		lsrs	r7, r1, #1
 3553 0096 BFB2     		uxth	r7, r7
 3554 0098 B946     		mov	r9, r7
 276:User/e-Paper/GUI_Paint.c ****         Rdata = Rdata & (~(0xF0 >> ((X % 2) * 4))); // Clear first, then set value
 3555              		.loc 1 276 34 view .LVU1053
 3556 009a 0768     		ldr	r7, [r0]
 275:User/e-Paper/GUI_Paint.c ****         UBYTE Rdata = Paint.Image[Addr];
 3557              		.loc 1 275 30 view .LVU1054
 3558 009c 4A44     		add	r2, r2, r9
 276:User/e-Paper/GUI_Paint.c ****         Rdata = Rdata & (~(0xF0 >> ((X % 2) * 4))); // Clear first, then set value
 3559              		.loc 1 276 34 view .LVU1055
 3560 009e B946     		mov	r9, r7
 3561              	.LVL314:
 277:User/e-Paper/GUI_Paint.c ****         Paint.Image[Addr] = Rdata | ((Color << 4) >> ((X % 2) * 4));
 3562              		.loc 1 277 9 is_stmt 1 view .LVU1056
 277:User/e-Paper/GUI_Paint.c ****         Paint.Image[Addr] = Rdata | ((Color << 4) >> ((X % 2) * 4));
 3563              		.loc 1 277 40 is_stmt 0 view .LVU1057
 3564 00a0 0127     		movs	r7, #1
 3565              	.LVL315:
 277:User/e-Paper/GUI_Paint.c ****         Paint.Image[Addr] = Rdata | ((Color << 4) >> ((X % 2) * 4));
 3566              		.loc 1 277 40 view .LVU1058
 3567 00a2 3940     		ands	r1, r7
 3568              	.LVL316:
 277:User/e-Paper/GUI_Paint.c ****         Paint.Image[Addr] = Rdata | ((Color << 4) >> ((X % 2) * 4));
 3569              		.loc 1 277 45 view .LVU1059
 3570 00a4 8900     		lsls	r1, r1, #2
 3571              	.LVL317:
 278:User/e-Paper/GUI_Paint.c ****         // printf("Add =  %d ,data = %d\r\n",Addr,Rdata);
 3572              		.loc 1 278 9 is_stmt 1 view .LVU1060
 277:User/e-Paper/GUI_Paint.c ****         Paint.Image[Addr] = Rdata | ((Color << 4) >> ((X % 2) * 4));
 3573              		.loc 1 277 33 is_stmt 0 view .LVU1061
 3574 00a6 EF37     		adds	r7, r7, #239
 3575 00a8 0F41     		asrs	r7, r7, r1
 3576 00aa BB46     		mov	fp, r7
 277:User/e-Paper/GUI_Paint.c ****         Paint.Image[Addr] = Rdata | ((Color << 4) >> ((X % 2) * 4));
 3577              		.loc 1 277 23 view .LVU1062
 3578 00ac 4F46     		mov	r7, r9
 3579 00ae 0392     		str	r2, [sp, #12]
 3580 00b0 BF5C     		ldrb	r7, [r7, r2]
ARM GAS  C:\Users\upo\AppData\Local\Temp\ccEC4369.s 			page 92


 3581 00b2 5A46     		mov	r2, fp
 3582              	.LVL318:
 277:User/e-Paper/GUI_Paint.c ****         Paint.Image[Addr] = Rdata | ((Color << 4) >> ((X % 2) * 4));
 3583              		.loc 1 277 23 view .LVU1063
 3584 00b4 9743     		bics	r7, r2
 278:User/e-Paper/GUI_Paint.c ****         // printf("Add =  %d ,data = %d\r\n",Addr,Rdata);
 3585              		.loc 1 278 45 view .LVU1064
 3586 00b6 4246     		mov	r2, r8
 3587 00b8 1201     		lsls	r2, r2, #4
 277:User/e-Paper/GUI_Paint.c ****         Paint.Image[Addr] = Rdata | ((Color << 4) >> ((X % 2) * 4));
 3588              		.loc 1 277 23 view .LVU1065
 3589 00ba BA46     		mov	r10, r7
 278:User/e-Paper/GUI_Paint.c ****         // printf("Add =  %d ,data = %d\r\n",Addr,Rdata);
 3590              		.loc 1 278 51 view .LVU1066
 3591 00bc 1700     		movs	r7, r2
 3592 00be 0F41     		asrs	r7, r7, r1
 278:User/e-Paper/GUI_Paint.c ****         // printf("Add =  %d ,data = %d\r\n",Addr,Rdata);
 3593              		.loc 1 278 35 view .LVU1067
 3594 00c0 5246     		mov	r2, r10
 278:User/e-Paper/GUI_Paint.c ****         // printf("Add =  %d ,data = %d\r\n",Addr,Rdata);
 3595              		.loc 1 278 51 view .LVU1068
 3596 00c2 3900     		movs	r1, r7
 3597              	.LVL319:
 278:User/e-Paper/GUI_Paint.c ****         // printf("Add =  %d ,data = %d\r\n",Addr,Rdata);
 3598              		.loc 1 278 35 view .LVU1069
 3599 00c4 1143     		orrs	r1, r2
 278:User/e-Paper/GUI_Paint.c ****         // printf("Add =  %d ,data = %d\r\n",Addr,Rdata);
 3600              		.loc 1 278 27 view .LVU1070
 3601 00c6 4A46     		mov	r2, r9
 3602 00c8 039F     		ldr	r7, [sp, #12]
 3603 00ca D155     		strb	r1, [r2, r7]
 3604              	.LVL320:
 3605              	.L277:
 278:User/e-Paper/GUI_Paint.c ****         // printf("Add =  %d ,data = %d\r\n",Addr,Rdata);
 3606              		.loc 1 278 27 view .LVU1071
 3607              	.LBE245:
 3608              	.LBE249:
 3609              	.LBE252:
 3610              	.LBE255:
 3611              	.LBE258:
 328:User/e-Paper/GUI_Paint.c ****         { // 8 pixel =  1 byte
 3612              		.loc 1 328 37 is_stmt 1 view .LVU1072
 3613 00cc 0133     		adds	r3, r3, #1
 3614              	.LVL321:
 328:User/e-Paper/GUI_Paint.c ****         { // 8 pixel =  1 byte
 3615              		.loc 1 328 37 is_stmt 0 view .LVU1073
 3616 00ce 9BB2     		uxth	r3, r3
 3617              	.LVL322:
 328:User/e-Paper/GUI_Paint.c ****         { // 8 pixel =  1 byte
 3618              		.loc 1 328 28 is_stmt 1 view .LVU1074
 3619 00d0 9E42     		cmp	r6, r3
 3620 00d2 37D0     		beq	.L301
 3621              	.LVL323:
 3622              	.L292:
 330:User/e-Paper/GUI_Paint.c ****         }
 3623              		.loc 1 330 13 view .LVU1075
 3624              	.LBB259:
ARM GAS  C:\Users\upo\AppData\Local\Temp\ccEC4369.s 			page 93


 3625              	.LBI240:
 200:User/e-Paper/GUI_Paint.c **** {
 3626              		.loc 1 200 6 view .LVU1076
 3627              	.LBB256:
 202:User/e-Paper/GUI_Paint.c ****     {
 3628              		.loc 1 202 5 view .LVU1077
 202:User/e-Paper/GUI_Paint.c ****     {
 3629              		.loc 1 202 8 is_stmt 0 view .LVU1078
 3630 00d4 8288     		ldrh	r2, [r0, #4]
 3631 00d6 9A42     		cmp	r2, r3
 3632 00d8 F8D3     		bcc	.L277
 202:User/e-Paper/GUI_Paint.c ****     {
 3633              		.loc 1 202 30 view .LVU1079
 3634 00da C288     		ldrh	r2, [r0, #6]
 3635 00dc A242     		cmp	r2, r4
 3636 00de F5D3     		bcc	.L277
 3637              	.LVL324:
 3638              	.LBB253:
 3639              	.LBI242:
 200:User/e-Paper/GUI_Paint.c **** {
 3640              		.loc 1 200 6 is_stmt 1 view .LVU1080
 3641              	.LBB250:
 207:User/e-Paper/GUI_Paint.c **** 
 3642              		.loc 1 207 5 view .LVU1081
 209:User/e-Paper/GUI_Paint.c ****     {
 3643              		.loc 1 209 5 view .LVU1082
 209:User/e-Paper/GUI_Paint.c ****     {
 3644              		.loc 1 209 18 is_stmt 0 view .LVU1083
 3645 00e0 C189     		ldrh	r1, [r0, #14]
 209:User/e-Paper/GUI_Paint.c ****     {
 3646              		.loc 1 209 5 view .LVU1084
 3647 00e2 B429     		cmp	r1, #180
 3648 00e4 3CD0     		beq	.L278
 3649 00e6 12D8     		bhi	.L279
 3650 00e8 0029     		cmp	r1, #0
 3651 00ea AED1     		bne	.L302
 231:User/e-Paper/GUI_Paint.c ****     {
 3652              		.loc 1 231 18 view .LVU1085
 3653 00ec 078A     		ldrh	r7, [r0, #16]
 209:User/e-Paper/GUI_Paint.c ****     {
 3654              		.loc 1 209 5 view .LVU1086
 3655 00ee 2200     		movs	r2, r4
 3656 00f0 1900     		movs	r1, r3
 3657              	.LVL325:
 231:User/e-Paper/GUI_Paint.c ****     {
 3658              		.loc 1 231 5 is_stmt 1 view .LVU1087
 3659 00f2 022F     		cmp	r7, #2
 3660 00f4 B3D1     		bne	.L303
 3661              	.L283:
 239:User/e-Paper/GUI_Paint.c ****         break;
 3662              		.loc 1 239 9 view .LVU1088
 239:User/e-Paper/GUI_Paint.c ****         break;
 3663              		.loc 1 239 11 is_stmt 0 view .LVU1089
 3664 00f6 4789     		ldrh	r7, [r0, #10]
 3665 00f8 B946     		mov	r9, r7
 3666 00fa 0127     		movs	r7, #1
 3667 00fc 7F42     		rsbs	r7, r7, #0
ARM GAS  C:\Users\upo\AppData\Local\Temp\ccEC4369.s 			page 94


 3668 00fe BA46     		mov	r10, r7
 3669 0100 D144     		add	r9, r9, r10
 3670 0102 4F46     		mov	r7, r9
 3671 0104 BA1A     		subs	r2, r7, r2
 3672              	.LVL326:
 239:User/e-Paper/GUI_Paint.c ****         break;
 3673              		.loc 1 239 11 view .LVU1090
 3674 0106 92B2     		uxth	r2, r2
 3675              	.LVL327:
 3676              	.L298:
 240:User/e-Paper/GUI_Paint.c ****     case MIRROR_ORIGIN:
 3677              		.loc 1 240 9 is_stmt 1 view .LVU1091
 216:User/e-Paper/GUI_Paint.c ****         Y = Xpoint;
 3678              		.loc 1 216 18 is_stmt 0 view .LVU1092
 3679 0108 0789     		ldrh	r7, [r0, #8]
 3680 010a B946     		mov	r9, r7
 240:User/e-Paper/GUI_Paint.c ****     case MIRROR_ORIGIN:
 3681              		.loc 1 240 9 view .LVU1093
 3682 010c B2E7     		b	.L288
 3683              	.LVL328:
 3684              	.L279:
 209:User/e-Paper/GUI_Paint.c ****     {
 3685              		.loc 1 209 5 view .LVU1094
 3686 010e A942     		cmp	r1, r5
 3687 0110 DCD1     		bne	.L277
 224:User/e-Paper/GUI_Paint.c ****         Y = Paint.HeightMemory - Xpoint - 1;
 3688              		.loc 1 224 9 is_stmt 1 view .LVU1095
 3689              	.LVL329:
 225:User/e-Paper/GUI_Paint.c ****         break;
 3690              		.loc 1 225 9 view .LVU1096
 225:User/e-Paper/GUI_Paint.c ****         break;
 3691              		.loc 1 225 11 is_stmt 0 view .LVU1097
 3692 0112 4289     		ldrh	r2, [r0, #10]
 226:User/e-Paper/GUI_Paint.c ****     default:
 3693              		.loc 1 226 9 view .LVU1098
 3694 0114 2100     		movs	r1, r4
 225:User/e-Paper/GUI_Paint.c ****         break;
 3695              		.loc 1 225 11 view .LVU1099
 3696 0116 013A     		subs	r2, r2, #1
 3697 0118 D21A     		subs	r2, r2, r3
 3698 011a 92B2     		uxth	r2, r2
 3699              	.LVL330:
 226:User/e-Paper/GUI_Paint.c ****     default:
 3700              		.loc 1 226 9 is_stmt 1 view .LVU1100
 3701 011c 9CE7     		b	.L280
 3702              	.LVL331:
 3703              	.L284:
 231:User/e-Paper/GUI_Paint.c ****     {
 3704              		.loc 1 231 5 is_stmt 0 view .LVU1101
 3705 011e 032F     		cmp	r7, #3
 3706 0120 D4D1     		bne	.L277
 242:User/e-Paper/GUI_Paint.c ****         Y = Paint.HeightMemory - Y - 1;
 3707              		.loc 1 242 9 is_stmt 1 view .LVU1102
 242:User/e-Paper/GUI_Paint.c ****         Y = Paint.HeightMemory - Y - 1;
 3708              		.loc 1 242 18 is_stmt 0 view .LVU1103
 3709 0122 0789     		ldrh	r7, [r0, #8]
 3710 0124 B946     		mov	r9, r7
ARM GAS  C:\Users\upo\AppData\Local\Temp\ccEC4369.s 			page 95


 242:User/e-Paper/GUI_Paint.c ****         Y = Paint.HeightMemory - Y - 1;
 3711              		.loc 1 242 11 view .LVU1104
 3712 0126 0127     		movs	r7, #1
 3713 0128 7F42     		rsbs	r7, r7, #0
 3714 012a 4F44     		add	r7, r7, r9
 3715 012c 791A     		subs	r1, r7, r1
 3716              	.LVL332:
 243:User/e-Paper/GUI_Paint.c ****         break;
 3717              		.loc 1 243 11 view .LVU1105
 3718 012e 4789     		ldrh	r7, [r0, #10]
 242:User/e-Paper/GUI_Paint.c ****         Y = Paint.HeightMemory - Y - 1;
 3719              		.loc 1 242 11 view .LVU1106
 3720 0130 89B2     		uxth	r1, r1
 3721              	.LVL333:
 243:User/e-Paper/GUI_Paint.c ****         break;
 3722              		.loc 1 243 9 is_stmt 1 view .LVU1107
 243:User/e-Paper/GUI_Paint.c ****         break;
 3723              		.loc 1 243 11 is_stmt 0 view .LVU1108
 3724 0132 BA46     		mov	r10, r7
 3725 0134 0127     		movs	r7, #1
 3726 0136 7F42     		rsbs	r7, r7, #0
 3727 0138 BB46     		mov	fp, r7
 3728 013a DA44     		add	r10, r10, fp
 3729 013c 5746     		mov	r7, r10
 3730 013e BA1A     		subs	r2, r7, r2
 3731              	.LVL334:
 243:User/e-Paper/GUI_Paint.c ****         break;
 3732              		.loc 1 243 11 view .LVU1109
 3733 0140 92B2     		uxth	r2, r2
 3734              	.LVL335:
 244:User/e-Paper/GUI_Paint.c ****     default:
 3735              		.loc 1 244 9 is_stmt 1 view .LVU1110
 3736 0142 97E7     		b	.L288
 3737              	.LVL336:
 3738              	.L301:
 244:User/e-Paper/GUI_Paint.c ****     default:
 3739              		.loc 1 244 9 is_stmt 0 view .LVU1111
 3740              	.LBE250:
 3741              	.LBE253:
 3742              	.LBE256:
 3743              	.LBE259:
 326:User/e-Paper/GUI_Paint.c ****     {
 3744              		.loc 1 326 33 view .LVU1112
 3745 0144 0200     		movs	r2, r0
 3746 0146 6046     		mov	r0, ip
 326:User/e-Paper/GUI_Paint.c ****     {
 3747              		.loc 1 326 33 is_stmt 1 view .LVU1113
 3748 0148 0134     		adds	r4, r4, #1
 3749              	.LVL337:
 326:User/e-Paper/GUI_Paint.c ****     {
 3750              		.loc 1 326 33 is_stmt 0 view .LVU1114
 3751 014a A4B2     		uxth	r4, r4
 3752              	.LVL338:
 326:User/e-Paper/GUI_Paint.c ****     {
 3753              		.loc 1 326 24 is_stmt 1 view .LVU1115
 3754 014c A042     		cmp	r0, r4
 3755 014e 00D0     		beq	.LCB3741
ARM GAS  C:\Users\upo\AppData\Local\Temp\ccEC4369.s 			page 96


 3756 0150 77E7     		b	.L275	@long jump
 3757              	.LCB3741:
 3758              	.LVL339:
 3759              	.L273:
 333:User/e-Paper/GUI_Paint.c **** 
 3760              		.loc 1 333 1 is_stmt 0 view .LVU1116
 3761 0152 05B0     		add	sp, sp, #20
 3762              		@ sp needed
 3763 0154 F0BC     		pop	{r4, r5, r6, r7}
 3764 0156 BB46     		mov	fp, r7
 3765 0158 B246     		mov	r10, r6
 3766 015a A946     		mov	r9, r5
 3767 015c A046     		mov	r8, r4
 3768 015e F0BD     		pop	{r4, r5, r6, r7, pc}
 3769              	.LVL340:
 3770              	.L278:
 3771              	.LBB260:
 3772              	.LBB257:
 3773              	.LBB254:
 3774              	.LBB251:
 220:User/e-Paper/GUI_Paint.c ****         Y = Paint.HeightMemory - Ypoint - 1;
 3775              		.loc 1 220 9 is_stmt 1 view .LVU1117
 220:User/e-Paper/GUI_Paint.c ****         Y = Paint.HeightMemory - Ypoint - 1;
 3776              		.loc 1 220 11 is_stmt 0 view .LVU1118
 3777 0160 0189     		ldrh	r1, [r0, #8]
 221:User/e-Paper/GUI_Paint.c ****         break;
 3778              		.loc 1 221 11 view .LVU1119
 3779 0162 4289     		ldrh	r2, [r0, #10]
 220:User/e-Paper/GUI_Paint.c ****         Y = Paint.HeightMemory - Ypoint - 1;
 3780              		.loc 1 220 11 view .LVU1120
 3781 0164 0139     		subs	r1, r1, #1
 221:User/e-Paper/GUI_Paint.c ****         break;
 3782              		.loc 1 221 11 view .LVU1121
 3783 0166 013A     		subs	r2, r2, #1
 220:User/e-Paper/GUI_Paint.c ****         Y = Paint.HeightMemory - Ypoint - 1;
 3784              		.loc 1 220 11 view .LVU1122
 3785 0168 C91A     		subs	r1, r1, r3
 221:User/e-Paper/GUI_Paint.c ****         break;
 3786              		.loc 1 221 11 view .LVU1123
 3787 016a 121B     		subs	r2, r2, r4
 220:User/e-Paper/GUI_Paint.c ****         Y = Paint.HeightMemory - Ypoint - 1;
 3788              		.loc 1 220 11 view .LVU1124
 3789 016c 89B2     		uxth	r1, r1
 3790              	.LVL341:
 221:User/e-Paper/GUI_Paint.c ****         break;
 3791              		.loc 1 221 9 is_stmt 1 view .LVU1125
 221:User/e-Paper/GUI_Paint.c ****         break;
 3792              		.loc 1 221 11 is_stmt 0 view .LVU1126
 3793 016e 92B2     		uxth	r2, r2
 3794              	.LVL342:
 222:User/e-Paper/GUI_Paint.c ****     case 270:
 3795              		.loc 1 222 9 is_stmt 1 view .LVU1127
 3796 0170 72E7     		b	.L280
 3797              	.L299:
 3798              	.LBB246:
 257:User/e-Paper/GUI_Paint.c ****         UBYTE Rdata = Paint.Image[Addr];
 3799              		.loc 1 257 9 view .LVU1128
ARM GAS  C:\Users\upo\AppData\Local\Temp\ccEC4369.s 			page 97


 3800              	.LVL343:
 258:User/e-Paper/GUI_Paint.c ****         if (Color == BLACK)
 3801              		.loc 1 258 9 view .LVU1129
 257:User/e-Paper/GUI_Paint.c ****         UBYTE Rdata = Paint.Image[Addr];
 3802              		.loc 1 257 41 is_stmt 0 view .LVU1130
 3803 0172 478A     		ldrh	r7, [r0, #18]
 257:User/e-Paper/GUI_Paint.c ****         UBYTE Rdata = Paint.Image[Addr];
 3804              		.loc 1 257 34 view .LVU1131
 3805 0174 7A43     		muls	r2, r7
 3806              	.LVL344:
 257:User/e-Paper/GUI_Paint.c ****         UBYTE Rdata = Paint.Image[Addr];
 3807              		.loc 1 257 26 view .LVU1132
 3808 0176 CF08     		lsrs	r7, r1, #3
 3809 0178 BFB2     		uxth	r7, r7
 3810 017a B946     		mov	r9, r7
 258:User/e-Paper/GUI_Paint.c ****         if (Color == BLACK)
 3811              		.loc 1 258 34 view .LVU1133
 3812 017c 0768     		ldr	r7, [r0]
 257:User/e-Paper/GUI_Paint.c ****         UBYTE Rdata = Paint.Image[Addr];
 3813              		.loc 1 257 30 view .LVU1134
 3814 017e 4A44     		add	r2, r2, r9
 258:User/e-Paper/GUI_Paint.c ****         if (Color == BLACK)
 3815              		.loc 1 258 34 view .LVU1135
 3816 0180 BA46     		mov	r10, r7
 3817 0182 9146     		mov	r9, r2
 258:User/e-Paper/GUI_Paint.c ****         if (Color == BLACK)
 3818              		.loc 1 258 15 view .LVU1136
 3819 0184 BA5C     		ldrb	r2, [r7, r2]
 3820              	.LVL345:
 259:User/e-Paper/GUI_Paint.c ****             Paint.Image[Addr] = Rdata & ~(0x80 >> (X % 8));
 3821              		.loc 1 259 9 is_stmt 1 view .LVU1137
 260:User/e-Paper/GUI_Paint.c ****         else
 3822              		.loc 1 260 54 is_stmt 0 view .LVU1138
 3823 0186 0727     		movs	r7, #7
 3824 0188 0F40     		ands	r7, r1
 260:User/e-Paper/GUI_Paint.c ****         else
 3825              		.loc 1 260 48 view .LVU1139
 3826 018a 8021     		movs	r1, #128
 3827              	.LVL346:
 260:User/e-Paper/GUI_Paint.c ****         else
 3828              		.loc 1 260 48 view .LVU1140
 3829 018c 3941     		asrs	r1, r1, r7
 259:User/e-Paper/GUI_Paint.c ****             Paint.Image[Addr] = Rdata & ~(0x80 >> (X % 8));
 3830              		.loc 1 259 12 view .LVU1141
 3831 018e 4746     		mov	r7, r8
 258:User/e-Paper/GUI_Paint.c ****         if (Color == BLACK)
 3832              		.loc 1 258 34 view .LVU1142
 3833 0190 D144     		add	r9, r9, r10
 259:User/e-Paper/GUI_Paint.c ****             Paint.Image[Addr] = Rdata & ~(0x80 >> (X % 8));
 3834              		.loc 1 259 12 view .LVU1143
 3835 0192 002F     		cmp	r7, #0
 3836 0194 22D1     		bne	.L290
 260:User/e-Paper/GUI_Paint.c ****         else
 3837              		.loc 1 260 13 is_stmt 1 view .LVU1144
 260:User/e-Paper/GUI_Paint.c ****         else
 3838              		.loc 1 260 39 is_stmt 0 view .LVU1145
 3839 0196 8A43     		bics	r2, r1
ARM GAS  C:\Users\upo\AppData\Local\Temp\ccEC4369.s 			page 98


 3840              	.LVL347:
 260:User/e-Paper/GUI_Paint.c ****         else
 3841              		.loc 1 260 31 view .LVU1146
 3842 0198 4946     		mov	r1, r9
 3843 019a 0A70     		strb	r2, [r1]
 3844              	.LVL348:
 260:User/e-Paper/GUI_Paint.c ****         else
 3845              		.loc 1 260 31 view .LVU1147
 3846 019c 96E7     		b	.L277
 3847              	.LVL349:
 3848              	.L300:
 260:User/e-Paper/GUI_Paint.c ****         else
 3849              		.loc 1 260 31 view .LVU1148
 3850              	.LBE246:
 3851              	.LBB247:
 266:User/e-Paper/GUI_Paint.c ****         Color = Color % 4; // Guaranteed color scale is 4  --- 0~3
 3852              		.loc 1 266 9 is_stmt 1 view .LVU1149
 267:User/e-Paper/GUI_Paint.c ****         UBYTE Rdata = Paint.Image[Addr];
 3853              		.loc 1 267 9 view .LVU1150
 268:User/e-Paper/GUI_Paint.c **** 
 3854              		.loc 1 268 9 view .LVU1151
 266:User/e-Paper/GUI_Paint.c ****         Color = Color % 4; // Guaranteed color scale is 4  --- 0~3
 3855              		.loc 1 266 41 is_stmt 0 view .LVU1152
 3856 019e 478A     		ldrh	r7, [r0, #18]
 266:User/e-Paper/GUI_Paint.c ****         Color = Color % 4; // Guaranteed color scale is 4  --- 0~3
 3857              		.loc 1 266 34 view .LVU1153
 3858 01a0 5743     		muls	r7, r2
 3859 01a2 B946     		mov	r9, r7
 266:User/e-Paper/GUI_Paint.c ****         Color = Color % 4; // Guaranteed color scale is 4  --- 0~3
 3860              		.loc 1 266 26 view .LVU1154
 3861 01a4 8A08     		lsrs	r2, r1, #2
 3862              	.LVL350:
 268:User/e-Paper/GUI_Paint.c **** 
 3863              		.loc 1 268 34 view .LVU1155
 3864 01a6 0768     		ldr	r7, [r0]
 266:User/e-Paper/GUI_Paint.c ****         Color = Color % 4; // Guaranteed color scale is 4  --- 0~3
 3865              		.loc 1 266 26 view .LVU1156
 3866 01a8 92B2     		uxth	r2, r2
 266:User/e-Paper/GUI_Paint.c ****         Color = Color % 4; // Guaranteed color scale is 4  --- 0~3
 3867              		.loc 1 266 30 view .LVU1157
 3868 01aa 4A44     		add	r2, r2, r9
 268:User/e-Paper/GUI_Paint.c **** 
 3869              		.loc 1 268 34 view .LVU1158
 3870 01ac B946     		mov	r9, r7
 3871              	.LVL351:
 270:User/e-Paper/GUI_Paint.c ****         Paint.Image[Addr] = Rdata | ((Color << 6) >> ((X % 4) * 2));
 3872              		.loc 1 270 9 is_stmt 1 view .LVU1159
 270:User/e-Paper/GUI_Paint.c ****         Paint.Image[Addr] = Rdata | ((Color << 6) >> ((X % 4) * 2));
 3873              		.loc 1 270 40 is_stmt 0 view .LVU1160
 3874 01ae 0327     		movs	r7, #3
 3875              	.LVL352:
 270:User/e-Paper/GUI_Paint.c ****         Paint.Image[Addr] = Rdata | ((Color << 6) >> ((X % 4) * 2));
 3876              		.loc 1 270 40 view .LVU1161
 3877 01b0 3940     		ands	r1, r7
 3878              	.LVL353:
 270:User/e-Paper/GUI_Paint.c ****         Paint.Image[Addr] = Rdata | ((Color << 6) >> ((X % 4) * 2));
 3879              		.loc 1 270 45 view .LVU1162
ARM GAS  C:\Users\upo\AppData\Local\Temp\ccEC4369.s 			page 99


 3880 01b2 4900     		lsls	r1, r1, #1
 3881 01b4 8A46     		mov	r10, r1
 3882              	.LVL354:
 271:User/e-Paper/GUI_Paint.c ****     }
 3883              		.loc 1 271 9 is_stmt 1 view .LVU1163
 270:User/e-Paper/GUI_Paint.c ****         Paint.Image[Addr] = Rdata | ((Color << 6) >> ((X % 4) * 2));
 3884              		.loc 1 270 33 is_stmt 0 view .LVU1164
 3885 01b6 C021     		movs	r1, #192
 3886              	.LVL355:
 270:User/e-Paper/GUI_Paint.c ****         Paint.Image[Addr] = Rdata | ((Color << 6) >> ((X % 4) * 2));
 3887              		.loc 1 270 33 view .LVU1165
 3888 01b8 5746     		mov	r7, r10
 3889 01ba 3941     		asrs	r1, r1, r7
 3890 01bc 8B46     		mov	fp, r1
 270:User/e-Paper/GUI_Paint.c ****         Paint.Image[Addr] = Rdata | ((Color << 6) >> ((X % 4) * 2));
 3891              		.loc 1 270 23 view .LVU1166
 3892 01be 4946     		mov	r1, r9
 3893 01c0 5F46     		mov	r7, fp
 3894 01c2 895C     		ldrb	r1, [r1, r2]
 3895 01c4 B943     		bics	r1, r7
 3896 01c6 8B46     		mov	fp, r1
 271:User/e-Paper/GUI_Paint.c ****     }
 3897              		.loc 1 271 51 view .LVU1167
 3898 01c8 5146     		mov	r1, r10
 3899 01ca 029F     		ldr	r7, [sp, #8]
 3900 01cc 0F41     		asrs	r7, r7, r1
 271:User/e-Paper/GUI_Paint.c ****     }
 3901              		.loc 1 271 35 view .LVU1168
 3902 01ce 3900     		movs	r1, r7
 3903 01d0 5F46     		mov	r7, fp
 3904 01d2 0F43     		orrs	r7, r1
 3905 01d4 3900     		movs	r1, r7
 271:User/e-Paper/GUI_Paint.c ****     }
 3906              		.loc 1 271 27 view .LVU1169
 3907 01d6 4F46     		mov	r7, r9
 3908 01d8 B954     		strb	r1, [r7, r2]
 3909              	.LVL356:
 271:User/e-Paper/GUI_Paint.c ****     }
 3910              		.loc 1 271 27 view .LVU1170
 3911              	.LBE247:
 3912 01da 77E7     		b	.L277
 3913              	.LVL357:
 3914              	.L290:
 3915              	.LBB248:
 262:User/e-Paper/GUI_Paint.c ****     }
 3916              		.loc 1 262 13 is_stmt 1 view .LVU1171
 262:User/e-Paper/GUI_Paint.c ****     }
 3917              		.loc 1 262 39 is_stmt 0 view .LVU1172
 3918 01dc 0A43     		orrs	r2, r1
 3919              	.LVL358:
 262:User/e-Paper/GUI_Paint.c ****     }
 3920              		.loc 1 262 31 view .LVU1173
 3921 01de 4946     		mov	r1, r9
 3922 01e0 0A70     		strb	r2, [r1]
 3923              	.LVL359:
 262:User/e-Paper/GUI_Paint.c ****     }
 3924              		.loc 1 262 31 view .LVU1174
ARM GAS  C:\Users\upo\AppData\Local\Temp\ccEC4369.s 			page 100


 3925 01e2 73E7     		b	.L277
 3926              	.L305:
 3927              		.align	2
 3928              	.L304:
 3929 01e4 00000000 		.word	Paint
 3930              	.LBE248:
 3931              	.LBE251:
 3932              	.LBE254:
 3933              	.LBE257:
 3934              	.LBE260:
 3935              		.cfi_endproc
 3936              	.LFE1432:
 3938              		.section	.text.Paint_DrawPoint,"ax",%progbits
 3939              		.align	1
 3940              		.p2align 2,,3
 3941              		.global	Paint_DrawPoint
 3942              		.syntax unified
 3943              		.code	16
 3944              		.thumb_func
 3946              	Paint_DrawPoint:
 3947              	.LVL360:
 3948              	.LFB1433:
 346:User/e-Paper/GUI_Paint.c ****     if (Xpoint > Paint.Width || Ypoint > Paint.Height)
 3949              		.loc 1 346 1 is_stmt 1 view -0
 3950              		.cfi_startproc
 3951              		@ args = 4, pretend = 0, frame = 24
 3952              		@ frame_needed = 0, uses_anonymous_args = 0
 346:User/e-Paper/GUI_Paint.c ****     if (Xpoint > Paint.Width || Ypoint > Paint.Height)
 3953              		.loc 1 346 1 is_stmt 0 view .LVU1176
 3954 0000 F0B5     		push	{r4, r5, r6, r7, lr}
 3955              	.LCFI17:
 3956              		.cfi_def_cfa_offset 20
 3957              		.cfi_offset 4, -20
 3958              		.cfi_offset 5, -16
 3959              		.cfi_offset 6, -12
 3960              		.cfi_offset 7, -8
 3961              		.cfi_offset 14, -4
 3962 0002 4E46     		mov	r6, r9
 3963 0004 4546     		mov	r5, r8
 3964 0006 DE46     		mov	lr, fp
 3965 0008 5746     		mov	r7, r10
 3966 000a E0B5     		push	{r5, r6, r7, lr}
 3967              	.LCFI18:
 3968              		.cfi_def_cfa_offset 36
 3969              		.cfi_offset 8, -36
 3970              		.cfi_offset 9, -32
 3971              		.cfi_offset 10, -28
 3972              		.cfi_offset 11, -24
 347:User/e-Paper/GUI_Paint.c ****     {
 3973              		.loc 1 347 23 view .LVU1177
 3974 000c 984C     		ldr	r4, .L350
 346:User/e-Paper/GUI_Paint.c ****     if (Xpoint > Paint.Width || Ypoint > Paint.Height)
 3975              		.loc 1 346 1 view .LVU1178
 3976 000e 87B0     		sub	sp, sp, #28
 3977              	.LCFI19:
 3978              		.cfi_def_cfa_offset 64
 346:User/e-Paper/GUI_Paint.c ****     if (Xpoint > Paint.Width || Ypoint > Paint.Height)
ARM GAS  C:\Users\upo\AppData\Local\Temp\ccEC4369.s 			page 101


 3979              		.loc 1 346 1 view .LVU1179
 3980 0010 8846     		mov	r8, r1
 3981 0012 0192     		str	r2, [sp, #4]
 347:User/e-Paper/GUI_Paint.c ****     {
 3982              		.loc 1 347 5 is_stmt 1 view .LVU1180
 346:User/e-Paper/GUI_Paint.c ****     if (Xpoint > Paint.Width || Ypoint > Paint.Height)
 3983              		.loc 1 346 1 is_stmt 0 view .LVU1181
 3984 0014 10A9     		add	r1, sp, #64
 3985              	.LVL361:
 346:User/e-Paper/GUI_Paint.c ****     if (Xpoint > Paint.Width || Ypoint > Paint.Height)
 3986              		.loc 1 346 1 view .LVU1182
 3987 0016 0E78     		ldrb	r6, [r1]
 347:User/e-Paper/GUI_Paint.c ****     {
 3988              		.loc 1 347 23 view .LVU1183
 3989 0018 A188     		ldrh	r1, [r4, #4]
 3990              	.LVL362:
 347:User/e-Paper/GUI_Paint.c ****     {
 3991              		.loc 1 347 8 view .LVU1184
 3992 001a 8142     		cmp	r1, r0
 3993 001c 00D2     		bcs	.LCB3967
 3994 001e D6E0     		b	.L307	@long jump
 3995              	.LCB3967:
 347:User/e-Paper/GUI_Paint.c ****     {
 3996              		.loc 1 347 30 discriminator 1 view .LVU1185
 3997 0020 E588     		ldrh	r5, [r4, #6]
 3998 0022 4545     		cmp	r5, r8
 3999 0024 00D2     		bcs	.LCB3970
 4000 0026 D2E0     		b	.L307	@long jump
 4001              	.LCB3970:
 4002              	.LVL363:
 4003              	.LBB272:
 4004              	.LBI272:
 344:User/e-Paper/GUI_Paint.c ****                      DOT_PIXEL Dot_Pixel, DOT_STYLE Dot_Style)
 4005              		.loc 1 344 6 is_stmt 1 view .LVU1186
 4006              	.LBB273:
 355:User/e-Paper/GUI_Paint.c ****     if (Dot_Style == DOT_FILL_AROUND)
 4007              		.loc 1 355 5 view .LVU1187
 356:User/e-Paper/GUI_Paint.c ****     {
 4008              		.loc 1 356 5 view .LVU1188
 356:User/e-Paper/GUI_Paint.c ****     {
 4009              		.loc 1 356 8 is_stmt 0 view .LVU1189
 4010 0028 012E     		cmp	r6, #1
 4011 002a 00D1     		bne	.LCB3982
 4012 002c DEE0     		b	.L310	@long jump
 4013              	.LCB3982:
 4014              	.LVL364:
 371:User/e-Paper/GUI_Paint.c ****         {
 4015              		.loc 1 371 37 is_stmt 1 view .LVU1190
 4016 002e 002B     		cmp	r3, #0
 4017 0030 6CD0     		beq	.L306
 4018 0032 4146     		mov	r1, r8
 4019 0034 0139     		subs	r1, r1, #1
 4020 0036 8AB2     		uxth	r2, r1
 4021              	.LVL365:
 4022              	.LBB274:
 4023              	.LBB275:
 4024              	.LBB276:
ARM GAS  C:\Users\upo\AppData\Local\Temp\ccEC4369.s 			page 102


 4025              	.LBB277:
 4026              	.LBB278:
 271:User/e-Paper/GUI_Paint.c ****     }
 4027              		.loc 1 271 45 is_stmt 0 view .LVU1191
 4028 0038 0321     		movs	r1, #3
 4029 003a 9046     		mov	r8, r2
 4030              	.LVL366:
 271:User/e-Paper/GUI_Paint.c ****     }
 4031              		.loc 1 271 45 view .LVU1192
 4032 003c 019A     		ldr	r2, [sp, #4]
 4033 003e 451E     		subs	r5, r0, #1
 4034 0040 1140     		ands	r1, r2
 4035 0042 8901     		lsls	r1, r1, #6
 4036 0044 0291     		str	r1, [sp, #8]
 4037              	.LBE278:
 4038              	.LBE277:
 4039              	.LBE276:
 4040              	.LBE275:
 4041              	.LBE274:
 371:User/e-Paper/GUI_Paint.c ****         {
 4042              		.loc 1 371 58 view .LVU1193
 4043 0046 0221     		movs	r1, #2
 4044 0048 091A     		subs	r1, r1, r0
 4045 004a 9446     		mov	ip, r2
 4046 004c 0F00     		movs	r7, r1
 4047 004e 4046     		mov	r0, r8
 4048              	.LVL367:
 371:User/e-Paper/GUI_Paint.c ****         {
 4049              		.loc 1 371 58 view .LVU1194
 4050 0050 ADB2     		uxth	r5, r5
 4051              	.LVL368:
 4052              	.L312:
 373:User/e-Paper/GUI_Paint.c ****             {
 4053              		.loc 1 373 41 is_stmt 1 view .LVU1195
 358:User/e-Paper/GUI_Paint.c ****         {
 4054              		.loc 1 358 37 is_stmt 0 view .LVU1196
 4055 0052 0126     		movs	r6, #1
 4056 0054 0196     		str	r6, [sp, #4]
 4057 0056 B846     		mov	r8, r7
 4058 0058 1F00     		movs	r7, r3
 4059              	.LBB295:
 4060              	.LBB289:
 202:User/e-Paper/GUI_Paint.c ****     {
 4061              		.loc 1 202 8 view .LVU1197
 4062 005a A388     		ldrh	r3, [r4, #4]
 4063              	.LVL369:
 202:User/e-Paper/GUI_Paint.c ****     {
 4064              		.loc 1 202 8 view .LVU1198
 4065 005c 0200     		movs	r2, r0
 4066              	.LVL370:
 202:User/e-Paper/GUI_Paint.c ****     {
 4067              		.loc 1 202 8 view .LVU1199
 4068              	.LBE289:
 4069              	.LBE295:
 375:User/e-Paper/GUI_Paint.c ****             }
 4070              		.loc 1 375 17 is_stmt 1 view .LVU1200
 4071              	.LBB296:
ARM GAS  C:\Users\upo\AppData\Local\Temp\ccEC4369.s 			page 103


 4072              	.LBI274:
 200:User/e-Paper/GUI_Paint.c **** {
 4073              		.loc 1 200 6 view .LVU1201
 4074              	.LBB290:
 202:User/e-Paper/GUI_Paint.c ****     {
 4075              		.loc 1 202 5 view .LVU1202
 4076 005e 8146     		mov	r9, r0
 202:User/e-Paper/GUI_Paint.c ****     {
 4077              		.loc 1 202 8 is_stmt 0 view .LVU1203
 4078 0060 AB42     		cmp	r3, r5
 4079 0062 4AD3     		bcc	.L344
 4080              	.LVL371:
 4081              	.L348:
 202:User/e-Paper/GUI_Paint.c ****     {
 4082              		.loc 1 202 30 view .LVU1204
 4083 0064 E188     		ldrh	r1, [r4, #6]
 4084 0066 9142     		cmp	r1, r2
 4085 0068 3DD3     		bcc	.L320
 4086              	.LVL372:
 4087              	.LBB286:
 4088              	.LBI276:
 200:User/e-Paper/GUI_Paint.c **** {
 4089              		.loc 1 200 6 is_stmt 1 view .LVU1205
 4090              	.LBB283:
 207:User/e-Paper/GUI_Paint.c **** 
 4091              		.loc 1 207 5 view .LVU1206
 209:User/e-Paper/GUI_Paint.c ****     {
 4092              		.loc 1 209 5 view .LVU1207
 209:User/e-Paper/GUI_Paint.c ****     {
 4093              		.loc 1 209 18 is_stmt 0 view .LVU1208
 4094 006a E189     		ldrh	r1, [r4, #14]
 209:User/e-Paper/GUI_Paint.c ****     {
 4095              		.loc 1 209 5 view .LVU1209
 4096 006c B429     		cmp	r1, #180
 4097 006e 00D1     		bne	.LCB4071
 4098 0070 78E0     		b	.L321	@long jump
 4099              	.LCB4071:
 4100 0072 52D8     		bhi	.L322
 4101 0074 0029     		cmp	r1, #0
 4102 0076 00D1     		bne	.LCB4075
 4103 0078 71E0     		b	.L337	@long jump
 4104              	.LCB4075:
 4105 007a 5A29     		cmp	r1, #90
 4106 007c 33D1     		bne	.L320
 216:User/e-Paper/GUI_Paint.c ****         Y = Xpoint;
 4107              		.loc 1 216 9 is_stmt 1 view .LVU1210
 218:User/e-Paper/GUI_Paint.c ****     case 180:
 4108              		.loc 1 218 9 is_stmt 0 view .LVU1211
 4109 007e 2E00     		movs	r6, r5
 216:User/e-Paper/GUI_Paint.c ****         Y = Xpoint;
 4110              		.loc 1 216 11 view .LVU1212
 4111 0080 2189     		ldrh	r1, [r4, #8]
 4112 0082 0139     		subs	r1, r1, #1
 4113 0084 891A     		subs	r1, r1, r2
 4114 0086 89B2     		uxth	r1, r1
 4115              	.LVL373:
 217:User/e-Paper/GUI_Paint.c ****         break;
ARM GAS  C:\Users\upo\AppData\Local\Temp\ccEC4369.s 			page 104


 4116              		.loc 1 217 9 is_stmt 1 view .LVU1213
 218:User/e-Paper/GUI_Paint.c ****     case 180:
 4117              		.loc 1 218 9 view .LVU1214
 4118              	.L323:
 231:User/e-Paper/GUI_Paint.c ****     {
 4119              		.loc 1 231 5 view .LVU1215
 231:User/e-Paper/GUI_Paint.c ****     {
 4120              		.loc 1 231 18 is_stmt 0 view .LVU1216
 4121 0088 238A     		ldrh	r3, [r4, #16]
 231:User/e-Paper/GUI_Paint.c ****     {
 4122              		.loc 1 231 5 view .LVU1217
 4123 008a 022B     		cmp	r3, #2
 4124 008c 51D0     		beq	.L326
 4125              	.L349:
 231:User/e-Paper/GUI_Paint.c ****     {
 4126              		.loc 1 231 5 view .LVU1218
 4127 008e 022B     		cmp	r3, #2
 4128 0090 55D8     		bhi	.L327
 4129 0092 002B     		cmp	r3, #0
 4130 0094 51D0     		beq	.L345
 236:User/e-Paper/GUI_Paint.c ****         break;
 4131              		.loc 1 236 9 is_stmt 1 view .LVU1219
 236:User/e-Paper/GUI_Paint.c ****         break;
 4132              		.loc 1 236 18 is_stmt 0 view .LVU1220
 4133 0096 2389     		ldrh	r3, [r4, #8]
 236:User/e-Paper/GUI_Paint.c ****         break;
 4134              		.loc 1 236 11 view .LVU1221
 4135 0098 581E     		subs	r0, r3, #1
 4136 009a 411A     		subs	r1, r0, r1
 4137              	.LVL374:
 236:User/e-Paper/GUI_Paint.c ****         break;
 4138              		.loc 1 236 11 view .LVU1222
 4139 009c 89B2     		uxth	r1, r1
 4140              	.LVL375:
 237:User/e-Paper/GUI_Paint.c ****     case MIRROR_VERTICAL:
 4141              		.loc 1 237 9 is_stmt 1 view .LVU1223
 4142              	.L331:
 249:User/e-Paper/GUI_Paint.c ****     {
 4143              		.loc 1 249 5 view .LVU1224
 249:User/e-Paper/GUI_Paint.c ****     {
 4144              		.loc 1 249 8 is_stmt 0 view .LVU1225
 4145 009e 9942     		cmp	r1, r3
 4146 00a0 21D8     		bhi	.L320
 249:User/e-Paper/GUI_Paint.c ****     {
 4147              		.loc 1 249 31 view .LVU1226
 4148 00a2 6389     		ldrh	r3, [r4, #10]
 4149 00a4 B342     		cmp	r3, r6
 4150 00a6 1ED3     		bcc	.L320
 255:User/e-Paper/GUI_Paint.c ****     {
 4151              		.loc 1 255 5 is_stmt 1 view .LVU1227
 255:User/e-Paper/GUI_Paint.c ****     {
 4152              		.loc 1 255 14 is_stmt 0 view .LVU1228
 4153 00a8 E38A     		ldrh	r3, [r4, #22]
 255:User/e-Paper/GUI_Paint.c ****     {
 4154              		.loc 1 255 8 view .LVU1229
 4155 00aa 022B     		cmp	r3, #2
 4156 00ac 63D0     		beq	.L346
ARM GAS  C:\Users\upo\AppData\Local\Temp\ccEC4369.s 			page 105


 264:User/e-Paper/GUI_Paint.c ****     {
 4157              		.loc 1 264 10 is_stmt 1 view .LVU1230
 264:User/e-Paper/GUI_Paint.c ****     {
 4158              		.loc 1 264 13 is_stmt 0 view .LVU1231
 4159 00ae 042B     		cmp	r3, #4
 4160 00b0 00D1     		bne	.LCB4134
 4161 00b2 72E0     		b	.L347	@long jump
 4162              	.LCB4134:
 273:User/e-Paper/GUI_Paint.c ****     {
 4163              		.loc 1 273 10 is_stmt 1 view .LVU1232
 273:User/e-Paper/GUI_Paint.c ****     {
 4164              		.loc 1 273 13 is_stmt 0 view .LVU1233
 4165 00b4 072B     		cmp	r3, #7
 4166 00b6 16D1     		bne	.L320
 4167              	.LBB279:
 275:User/e-Paper/GUI_Paint.c ****         UBYTE Rdata = Paint.Image[Addr];
 4168              		.loc 1 275 9 is_stmt 1 view .LVU1234
 4169              	.LVL376:
 276:User/e-Paper/GUI_Paint.c ****         Rdata = Rdata & (~(0xF0 >> ((X % 2) * 4))); // Clear first, then set value
 4170              		.loc 1 276 9 view .LVU1235
 275:User/e-Paper/GUI_Paint.c ****         UBYTE Rdata = Paint.Image[Addr];
 4171              		.loc 1 275 41 is_stmt 0 view .LVU1236
 4172 00b8 638A     		ldrh	r3, [r4, #18]
 275:User/e-Paper/GUI_Paint.c ****         UBYTE Rdata = Paint.Image[Addr];
 4173              		.loc 1 275 34 view .LVU1237
 4174 00ba 5E43     		muls	r6, r3
 4175              	.LVL377:
 275:User/e-Paper/GUI_Paint.c ****         UBYTE Rdata = Paint.Image[Addr];
 4176              		.loc 1 275 26 view .LVU1238
 4177 00bc 4B08     		lsrs	r3, r1, #1
 4178 00be 9BB2     		uxth	r3, r3
 275:User/e-Paper/GUI_Paint.c ****         UBYTE Rdata = Paint.Image[Addr];
 4179              		.loc 1 275 30 view .LVU1239
 4180 00c0 F618     		adds	r6, r6, r3
 276:User/e-Paper/GUI_Paint.c ****         Rdata = Rdata & (~(0xF0 >> ((X % 2) * 4))); // Clear first, then set value
 4181              		.loc 1 276 34 view .LVU1240
 4182 00c2 2368     		ldr	r3, [r4]
 4183 00c4 9A46     		mov	r10, r3
 4184              	.LVL378:
 277:User/e-Paper/GUI_Paint.c ****         Paint.Image[Addr] = Rdata | ((Color << 4) >> ((X % 2) * 4));
 4185              		.loc 1 277 9 is_stmt 1 view .LVU1241
 277:User/e-Paper/GUI_Paint.c ****         Paint.Image[Addr] = Rdata | ((Color << 4) >> ((X % 2) * 4));
 4186              		.loc 1 277 40 is_stmt 0 view .LVU1242
 4187 00c6 0123     		movs	r3, #1
 4188              	.LVL379:
 277:User/e-Paper/GUI_Paint.c ****         Paint.Image[Addr] = Rdata | ((Color << 4) >> ((X % 2) * 4));
 4189              		.loc 1 277 40 view .LVU1243
 4190 00c8 0B40     		ands	r3, r1
 277:User/e-Paper/GUI_Paint.c ****         Paint.Image[Addr] = Rdata | ((Color << 4) >> ((X % 2) * 4));
 4191              		.loc 1 277 33 view .LVU1244
 4192 00ca F021     		movs	r1, #240
 4193              	.LVL380:
 277:User/e-Paper/GUI_Paint.c ****         Paint.Image[Addr] = Rdata | ((Color << 4) >> ((X % 2) * 4));
 4194              		.loc 1 277 23 view .LVU1245
 4195 00cc 5046     		mov	r0, r10
 277:User/e-Paper/GUI_Paint.c ****         Paint.Image[Addr] = Rdata | ((Color << 4) >> ((X % 2) * 4));
 4196              		.loc 1 277 45 view .LVU1246
ARM GAS  C:\Users\upo\AppData\Local\Temp\ccEC4369.s 			page 106


 4197 00ce 9B00     		lsls	r3, r3, #2
 4198              	.LVL381:
 278:User/e-Paper/GUI_Paint.c ****         // printf("Add =  %d ,data = %d\r\n",Addr,Rdata);
 4199              		.loc 1 278 9 is_stmt 1 view .LVU1247
 277:User/e-Paper/GUI_Paint.c ****         Paint.Image[Addr] = Rdata | ((Color << 4) >> ((X % 2) * 4));
 4200              		.loc 1 277 33 is_stmt 0 view .LVU1248
 4201 00d0 1941     		asrs	r1, r1, r3
 277:User/e-Paper/GUI_Paint.c ****         Paint.Image[Addr] = Rdata | ((Color << 4) >> ((X % 2) * 4));
 4202              		.loc 1 277 23 view .LVU1249
 4203 00d2 805D     		ldrb	r0, [r0, r6]
 4204 00d4 8843     		bics	r0, r1
 4205 00d6 0100     		movs	r1, r0
 278:User/e-Paper/GUI_Paint.c ****         // printf("Add =  %d ,data = %d\r\n",Addr,Rdata);
 4206              		.loc 1 278 45 view .LVU1250
 4207 00d8 6046     		mov	r0, ip
 4208 00da 0001     		lsls	r0, r0, #4
 278:User/e-Paper/GUI_Paint.c ****         // printf("Add =  %d ,data = %d\r\n",Addr,Rdata);
 4209              		.loc 1 278 51 view .LVU1251
 4210 00dc 1841     		asrs	r0, r0, r3
 4211 00de 0300     		movs	r3, r0
 4212              	.LVL382:
 278:User/e-Paper/GUI_Paint.c ****         // printf("Add =  %d ,data = %d\r\n",Addr,Rdata);
 4213              		.loc 1 278 35 view .LVU1252
 4214 00e0 0B43     		orrs	r3, r1
 278:User/e-Paper/GUI_Paint.c ****         // printf("Add =  %d ,data = %d\r\n",Addr,Rdata);
 4215              		.loc 1 278 27 view .LVU1253
 4216 00e2 5146     		mov	r1, r10
 4217 00e4 8B55     		strb	r3, [r1, r6]
 4218              	.LVL383:
 4219              	.L320:
 278:User/e-Paper/GUI_Paint.c ****         // printf("Add =  %d ,data = %d\r\n",Addr,Rdata);
 4220              		.loc 1 278 27 view .LVU1254
 4221              	.LBE279:
 4222              	.LBE283:
 4223              	.LBE286:
 4224              	.LBE290:
 4225              	.LBE296:
 373:User/e-Paper/GUI_Paint.c ****             {
 4226              		.loc 1 373 62 is_stmt 1 view .LVU1255
 373:User/e-Paper/GUI_Paint.c ****             {
 4227              		.loc 1 373 41 view .LVU1256
 4228 00e6 019B     		ldr	r3, [sp, #4]
 4229 00e8 BB42     		cmp	r3, r7
 4230 00ea 06DA     		bge	.L344
 4231 00ec 0133     		adds	r3, r3, #1
 4232 00ee 0193     		str	r3, [sp, #4]
 4233              	.LBB297:
 4234              	.LBB291:
 202:User/e-Paper/GUI_Paint.c ****     {
 4235              		.loc 1 202 8 is_stmt 0 view .LVU1257
 4236 00f0 A388     		ldrh	r3, [r4, #4]
 4237 00f2 0132     		adds	r2, r2, #1
 202:User/e-Paper/GUI_Paint.c ****     {
 4238              		.loc 1 202 8 view .LVU1258
 4239 00f4 92B2     		uxth	r2, r2
 202:User/e-Paper/GUI_Paint.c ****     {
 4240              		.loc 1 202 8 view .LVU1259
ARM GAS  C:\Users\upo\AppData\Local\Temp\ccEC4369.s 			page 107


 4241              	.LBE291:
 4242              	.LBE297:
 375:User/e-Paper/GUI_Paint.c ****             }
 4243              		.loc 1 375 17 is_stmt 1 view .LVU1260
 4244              	.LVL384:
 4245              	.LBB298:
 200:User/e-Paper/GUI_Paint.c **** {
 4246              		.loc 1 200 6 view .LVU1261
 4247              	.LBB292:
 202:User/e-Paper/GUI_Paint.c ****     {
 4248              		.loc 1 202 5 view .LVU1262
 202:User/e-Paper/GUI_Paint.c ****     {
 4249              		.loc 1 202 8 is_stmt 0 view .LVU1263
 4250 00f6 AB42     		cmp	r3, r5
 4251 00f8 B4D2     		bcs	.L348
 4252              	.LVL385:
 4253              	.L344:
 202:User/e-Paper/GUI_Paint.c ****     {
 4254              		.loc 1 202 8 view .LVU1264
 4255 00fa 3B00     		movs	r3, r7
 4256 00fc 4746     		mov	r7, r8
 4257              	.LVL386:
 202:User/e-Paper/GUI_Paint.c ****     {
 4258              		.loc 1 202 8 view .LVU1265
 4259              	.LBE292:
 4260              	.LBE298:
 371:User/e-Paper/GUI_Paint.c ****         {
 4261              		.loc 1 371 58 view .LVU1266
 4262 00fe EA19     		adds	r2, r5, r7
 371:User/e-Paper/GUI_Paint.c ****         {
 4263              		.loc 1 371 37 view .LVU1267
 4264 0100 12B2     		sxth	r2, r2
 4265 0102 0135     		adds	r5, r5, #1
 371:User/e-Paper/GUI_Paint.c ****         {
 4266              		.loc 1 371 37 view .LVU1268
 4267 0104 4846     		mov	r0, r9
 371:User/e-Paper/GUI_Paint.c ****         {
 4268              		.loc 1 371 58 is_stmt 1 view .LVU1269
 4269              	.LVL387:
 371:User/e-Paper/GUI_Paint.c ****         {
 4270              		.loc 1 371 37 view .LVU1270
 4271 0106 ADB2     		uxth	r5, r5
 4272 0108 9A42     		cmp	r2, r3
 4273 010a A2DB     		blt	.L312
 4274              	.LVL388:
 4275              	.L306:
 371:User/e-Paper/GUI_Paint.c ****         {
 4276              		.loc 1 371 37 is_stmt 0 view .LVU1271
 4277              	.LBE273:
 4278              	.LBE272:
 379:User/e-Paper/GUI_Paint.c **** 
 4279              		.loc 1 379 1 view .LVU1272
 4280 010c 07B0     		add	sp, sp, #28
 4281              		@ sp needed
 4282 010e F0BC     		pop	{r4, r5, r6, r7}
 4283 0110 BB46     		mov	fp, r7
 4284 0112 B246     		mov	r10, r6
ARM GAS  C:\Users\upo\AppData\Local\Temp\ccEC4369.s 			page 108


 4285 0114 A946     		mov	r9, r5
 4286 0116 A046     		mov	r8, r4
 4287 0118 F0BD     		pop	{r4, r5, r6, r7, pc}
 4288              	.LVL389:
 4289              	.L322:
 4290              	.LBB305:
 4291              	.LBB303:
 4292              	.LBB299:
 4293              	.LBB293:
 4294              	.LBB287:
 4295              	.LBB284:
 209:User/e-Paper/GUI_Paint.c ****     {
 4296              		.loc 1 209 5 view .LVU1273
 4297 011a 8723     		movs	r3, #135
 4298 011c 5B00     		lsls	r3, r3, #1
 4299 011e 9942     		cmp	r1, r3
 4300 0120 E1D1     		bne	.L320
 224:User/e-Paper/GUI_Paint.c ****         Y = Paint.HeightMemory - Xpoint - 1;
 4301              		.loc 1 224 9 is_stmt 1 view .LVU1274
 4302              	.LVL390:
 225:User/e-Paper/GUI_Paint.c ****         break;
 4303              		.loc 1 225 9 view .LVU1275
 225:User/e-Paper/GUI_Paint.c ****         break;
 4304              		.loc 1 225 11 is_stmt 0 view .LVU1276
 4305 0122 6689     		ldrh	r6, [r4, #10]
 231:User/e-Paper/GUI_Paint.c ****     {
 4306              		.loc 1 231 18 view .LVU1277
 4307 0124 238A     		ldrh	r3, [r4, #16]
 225:User/e-Paper/GUI_Paint.c ****         break;
 4308              		.loc 1 225 11 view .LVU1278
 4309 0126 013E     		subs	r6, r6, #1
 4310 0128 761B     		subs	r6, r6, r5
 226:User/e-Paper/GUI_Paint.c ****     default:
 4311              		.loc 1 226 9 view .LVU1279
 4312 012a 1100     		movs	r1, r2
 225:User/e-Paper/GUI_Paint.c ****         break;
 4313              		.loc 1 225 11 view .LVU1280
 4314 012c B6B2     		uxth	r6, r6
 4315              	.LVL391:
 226:User/e-Paper/GUI_Paint.c ****     default:
 4316              		.loc 1 226 9 is_stmt 1 view .LVU1281
 231:User/e-Paper/GUI_Paint.c ****     {
 4317              		.loc 1 231 5 view .LVU1282
 4318 012e 022B     		cmp	r3, #2
 4319 0130 ADD1     		bne	.L349
 4320              	.L326:
 239:User/e-Paper/GUI_Paint.c ****         break;
 4321              		.loc 1 239 9 view .LVU1283
 239:User/e-Paper/GUI_Paint.c ****         break;
 4322              		.loc 1 239 11 is_stmt 0 view .LVU1284
 4323 0132 6389     		ldrh	r3, [r4, #10]
 4324 0134 013B     		subs	r3, r3, #1
 4325 0136 9E1B     		subs	r6, r3, r6
 4326              	.LVL392:
 239:User/e-Paper/GUI_Paint.c ****         break;
 4327              		.loc 1 239 11 view .LVU1285
 4328 0138 B6B2     		uxth	r6, r6
ARM GAS  C:\Users\upo\AppData\Local\Temp\ccEC4369.s 			page 109


 4329              	.LVL393:
 4330              	.L345:
 240:User/e-Paper/GUI_Paint.c ****     case MIRROR_ORIGIN:
 4331              		.loc 1 240 9 is_stmt 1 view .LVU1286
 216:User/e-Paper/GUI_Paint.c ****         Y = Xpoint;
 4332              		.loc 1 216 18 is_stmt 0 view .LVU1287
 4333 013a 2389     		ldrh	r3, [r4, #8]
 240:User/e-Paper/GUI_Paint.c ****     case MIRROR_ORIGIN:
 4334              		.loc 1 240 9 view .LVU1288
 4335 013c AFE7     		b	.L331
 4336              	.L327:
 231:User/e-Paper/GUI_Paint.c ****     {
 4337              		.loc 1 231 5 view .LVU1289
 4338 013e 032B     		cmp	r3, #3
 4339 0140 D1D1     		bne	.L320
 242:User/e-Paper/GUI_Paint.c ****         Y = Paint.HeightMemory - Y - 1;
 4340              		.loc 1 242 9 is_stmt 1 view .LVU1290
 242:User/e-Paper/GUI_Paint.c ****         Y = Paint.HeightMemory - Y - 1;
 4341              		.loc 1 242 18 is_stmt 0 view .LVU1291
 4342 0142 2389     		ldrh	r3, [r4, #8]
 242:User/e-Paper/GUI_Paint.c ****         Y = Paint.HeightMemory - Y - 1;
 4343              		.loc 1 242 11 view .LVU1292
 4344 0144 581E     		subs	r0, r3, #1
 4345 0146 411A     		subs	r1, r0, r1
 4346              	.LVL394:
 243:User/e-Paper/GUI_Paint.c ****         break;
 4347              		.loc 1 243 11 view .LVU1293
 4348 0148 6089     		ldrh	r0, [r4, #10]
 242:User/e-Paper/GUI_Paint.c ****         Y = Paint.HeightMemory - Y - 1;
 4349              		.loc 1 242 11 view .LVU1294
 4350 014a 89B2     		uxth	r1, r1
 4351              	.LVL395:
 243:User/e-Paper/GUI_Paint.c ****         break;
 4352              		.loc 1 243 9 is_stmt 1 view .LVU1295
 243:User/e-Paper/GUI_Paint.c ****         break;
 4353              		.loc 1 243 11 is_stmt 0 view .LVU1296
 4354 014c 8246     		mov	r10, r0
 4355 014e 0120     		movs	r0, #1
 4356 0150 4042     		rsbs	r0, r0, #0
 4357 0152 8346     		mov	fp, r0
 4358 0154 DA44     		add	r10, r10, fp
 4359 0156 5046     		mov	r0, r10
 4360 0158 861B     		subs	r6, r0, r6
 4361              	.LVL396:
 243:User/e-Paper/GUI_Paint.c ****         break;
 4362              		.loc 1 243 11 view .LVU1297
 4363 015a B6B2     		uxth	r6, r6
 4364              	.LVL397:
 244:User/e-Paper/GUI_Paint.c ****     default:
 4365              		.loc 1 244 9 is_stmt 1 view .LVU1298
 4366 015c 9FE7     		b	.L331
 4367              	.LVL398:
 4368              	.L337:
 209:User/e-Paper/GUI_Paint.c ****     {
 4369              		.loc 1 209 5 is_stmt 0 view .LVU1299
 4370 015e 1600     		movs	r6, r2
 4371 0160 2900     		movs	r1, r5
ARM GAS  C:\Users\upo\AppData\Local\Temp\ccEC4369.s 			page 110


 4372 0162 91E7     		b	.L323
 4373              	.L321:
 220:User/e-Paper/GUI_Paint.c ****         Y = Paint.HeightMemory - Ypoint - 1;
 4374              		.loc 1 220 9 is_stmt 1 view .LVU1300
 220:User/e-Paper/GUI_Paint.c ****         Y = Paint.HeightMemory - Ypoint - 1;
 4375              		.loc 1 220 11 is_stmt 0 view .LVU1301
 4376 0164 2189     		ldrh	r1, [r4, #8]
 221:User/e-Paper/GUI_Paint.c ****         break;
 4377              		.loc 1 221 11 view .LVU1302
 4378 0166 6689     		ldrh	r6, [r4, #10]
 220:User/e-Paper/GUI_Paint.c ****         Y = Paint.HeightMemory - Ypoint - 1;
 4379              		.loc 1 220 11 view .LVU1303
 4380 0168 0139     		subs	r1, r1, #1
 221:User/e-Paper/GUI_Paint.c ****         break;
 4381              		.loc 1 221 11 view .LVU1304
 4382 016a 013E     		subs	r6, r6, #1
 220:User/e-Paper/GUI_Paint.c ****         Y = Paint.HeightMemory - Ypoint - 1;
 4383              		.loc 1 220 11 view .LVU1305
 4384 016c 491B     		subs	r1, r1, r5
 221:User/e-Paper/GUI_Paint.c ****         break;
 4385              		.loc 1 221 11 view .LVU1306
 4386 016e B61A     		subs	r6, r6, r2
 220:User/e-Paper/GUI_Paint.c ****         Y = Paint.HeightMemory - Ypoint - 1;
 4387              		.loc 1 220 11 view .LVU1307
 4388 0170 89B2     		uxth	r1, r1
 4389              	.LVL399:
 221:User/e-Paper/GUI_Paint.c ****         break;
 4390              		.loc 1 221 9 is_stmt 1 view .LVU1308
 221:User/e-Paper/GUI_Paint.c ****         break;
 4391              		.loc 1 221 11 is_stmt 0 view .LVU1309
 4392 0172 B6B2     		uxth	r6, r6
 4393              	.LVL400:
 222:User/e-Paper/GUI_Paint.c ****     case 270:
 4394              		.loc 1 222 9 is_stmt 1 view .LVU1310
 4395 0174 88E7     		b	.L323
 4396              	.L346:
 4397              	.LBB280:
 257:User/e-Paper/GUI_Paint.c ****         UBYTE Rdata = Paint.Image[Addr];
 4398              		.loc 1 257 9 view .LVU1311
 4399              	.LVL401:
 258:User/e-Paper/GUI_Paint.c ****         if (Color == BLACK)
 4400              		.loc 1 258 9 view .LVU1312
 257:User/e-Paper/GUI_Paint.c ****         UBYTE Rdata = Paint.Image[Addr];
 4401              		.loc 1 257 41 is_stmt 0 view .LVU1313
 4402 0176 638A     		ldrh	r3, [r4, #18]
 258:User/e-Paper/GUI_Paint.c ****         if (Color == BLACK)
 4403              		.loc 1 258 34 view .LVU1314
 4404 0178 2068     		ldr	r0, [r4]
 257:User/e-Paper/GUI_Paint.c ****         UBYTE Rdata = Paint.Image[Addr];
 4405              		.loc 1 257 34 view .LVU1315
 4406 017a 7343     		muls	r3, r6
 257:User/e-Paper/GUI_Paint.c ****         UBYTE Rdata = Paint.Image[Addr];
 4407              		.loc 1 257 26 view .LVU1316
 4408 017c CE08     		lsrs	r6, r1, #3
 4409              	.LVL402:
 257:User/e-Paper/GUI_Paint.c ****         UBYTE Rdata = Paint.Image[Addr];
 4410              		.loc 1 257 26 view .LVU1317
ARM GAS  C:\Users\upo\AppData\Local\Temp\ccEC4369.s 			page 111


 4411 017e B6B2     		uxth	r6, r6
 257:User/e-Paper/GUI_Paint.c ****         UBYTE Rdata = Paint.Image[Addr];
 4412              		.loc 1 257 30 view .LVU1318
 4413 0180 9B19     		adds	r3, r3, r6
 258:User/e-Paper/GUI_Paint.c ****         if (Color == BLACK)
 4414              		.loc 1 258 34 view .LVU1319
 4415 0182 C618     		adds	r6, r0, r3
 258:User/e-Paper/GUI_Paint.c ****         if (Color == BLACK)
 4416              		.loc 1 258 15 view .LVU1320
 4417 0184 C35C     		ldrb	r3, [r0, r3]
 4418              	.LVL403:
 259:User/e-Paper/GUI_Paint.c ****             Paint.Image[Addr] = Rdata & ~(0x80 >> (X % 8));
 4419              		.loc 1 259 9 is_stmt 1 view .LVU1321
 260:User/e-Paper/GUI_Paint.c ****         else
 4420              		.loc 1 260 54 is_stmt 0 view .LVU1322
 4421 0186 0720     		movs	r0, #7
 4422 0188 0840     		ands	r0, r1
 260:User/e-Paper/GUI_Paint.c ****         else
 4423              		.loc 1 260 48 view .LVU1323
 4424 018a 8021     		movs	r1, #128
 4425              	.LVL404:
 260:User/e-Paper/GUI_Paint.c ****         else
 4426              		.loc 1 260 48 view .LVU1324
 4427 018c 0141     		asrs	r1, r1, r0
 259:User/e-Paper/GUI_Paint.c ****             Paint.Image[Addr] = Rdata & ~(0x80 >> (X % 8));
 4428              		.loc 1 259 12 view .LVU1325
 4429 018e 6046     		mov	r0, ip
 4430 0190 0028     		cmp	r0, #0
 4431 0192 28D1     		bne	.L333
 260:User/e-Paper/GUI_Paint.c ****         else
 4432              		.loc 1 260 13 is_stmt 1 view .LVU1326
 260:User/e-Paper/GUI_Paint.c ****         else
 4433              		.loc 1 260 39 is_stmt 0 view .LVU1327
 4434 0194 8B43     		bics	r3, r1
 4435              	.LVL405:
 260:User/e-Paper/GUI_Paint.c ****         else
 4436              		.loc 1 260 31 view .LVU1328
 4437 0196 3370     		strb	r3, [r6]
 4438              	.LVL406:
 260:User/e-Paper/GUI_Paint.c ****         else
 4439              		.loc 1 260 31 view .LVU1329
 4440 0198 A5E7     		b	.L320
 4441              	.LVL407:
 4442              	.L347:
 260:User/e-Paper/GUI_Paint.c ****         else
 4443              		.loc 1 260 31 view .LVU1330
 4444              	.LBE280:
 4445              	.LBB281:
 266:User/e-Paper/GUI_Paint.c ****         Color = Color % 4; // Guaranteed color scale is 4  --- 0~3
 4446              		.loc 1 266 9 is_stmt 1 view .LVU1331
 267:User/e-Paper/GUI_Paint.c ****         UBYTE Rdata = Paint.Image[Addr];
 4447              		.loc 1 267 9 view .LVU1332
 268:User/e-Paper/GUI_Paint.c **** 
 4448              		.loc 1 268 9 view .LVU1333
 270:User/e-Paper/GUI_Paint.c ****         Paint.Image[Addr] = Rdata | ((Color << 6) >> ((X % 4) * 2));
 4449              		.loc 1 270 40 is_stmt 0 view .LVU1334
 4450 019a 0320     		movs	r0, #3
ARM GAS  C:\Users\upo\AppData\Local\Temp\ccEC4369.s 			page 112


 266:User/e-Paper/GUI_Paint.c ****         Color = Color % 4; // Guaranteed color scale is 4  --- 0~3
 4451              		.loc 1 266 41 view .LVU1335
 4452 019c 638A     		ldrh	r3, [r4, #18]
 266:User/e-Paper/GUI_Paint.c ****         Color = Color % 4; // Guaranteed color scale is 4  --- 0~3
 4453              		.loc 1 266 34 view .LVU1336
 4454 019e 7343     		muls	r3, r6
 266:User/e-Paper/GUI_Paint.c ****         Color = Color % 4; // Guaranteed color scale is 4  --- 0~3
 4455              		.loc 1 266 26 view .LVU1337
 4456 01a0 8E08     		lsrs	r6, r1, #2
 4457              	.LVL408:
 270:User/e-Paper/GUI_Paint.c ****         Paint.Image[Addr] = Rdata | ((Color << 6) >> ((X % 4) * 2));
 4458              		.loc 1 270 40 view .LVU1338
 4459 01a2 0140     		ands	r1, r0
 4460              	.LVL409:
 270:User/e-Paper/GUI_Paint.c ****         Paint.Image[Addr] = Rdata | ((Color << 6) >> ((X % 4) * 2));
 4461              		.loc 1 270 45 view .LVU1339
 4462 01a4 4900     		lsls	r1, r1, #1
 4463 01a6 8A46     		mov	r10, r1
 270:User/e-Paper/GUI_Paint.c ****         Paint.Image[Addr] = Rdata | ((Color << 6) >> ((X % 4) * 2));
 4464              		.loc 1 270 33 view .LVU1340
 4465 01a8 C021     		movs	r1, #192
 4466 01aa 5046     		mov	r0, r10
 4467 01ac 0141     		asrs	r1, r1, r0
 4468 01ae 8B46     		mov	fp, r1
 270:User/e-Paper/GUI_Paint.c ****         Paint.Image[Addr] = Rdata | ((Color << 6) >> ((X % 4) * 2));
 4469              		.loc 1 270 23 view .LVU1341
 4470 01b0 5846     		mov	r0, fp
 266:User/e-Paper/GUI_Paint.c ****         Color = Color % 4; // Guaranteed color scale is 4  --- 0~3
 4471              		.loc 1 266 26 view .LVU1342
 4472 01b2 B6B2     		uxth	r6, r6
 266:User/e-Paper/GUI_Paint.c ****         Color = Color % 4; // Guaranteed color scale is 4  --- 0~3
 4473              		.loc 1 266 30 view .LVU1343
 4474 01b4 9B19     		adds	r3, r3, r6
 268:User/e-Paper/GUI_Paint.c **** 
 4475              		.loc 1 268 34 view .LVU1344
 4476 01b6 2668     		ldr	r6, [r4]
 4477              	.LVL410:
 270:User/e-Paper/GUI_Paint.c ****         Paint.Image[Addr] = Rdata | ((Color << 6) >> ((X % 4) * 2));
 4478              		.loc 1 270 9 is_stmt 1 view .LVU1345
 271:User/e-Paper/GUI_Paint.c ****     }
 4479              		.loc 1 271 9 view .LVU1346
 270:User/e-Paper/GUI_Paint.c ****         Paint.Image[Addr] = Rdata | ((Color << 6) >> ((X % 4) * 2));
 4480              		.loc 1 270 23 is_stmt 0 view .LVU1347
 4481 01b8 F15C     		ldrb	r1, [r6, r3]
 4482 01ba 8143     		bics	r1, r0
 4483 01bc 8B46     		mov	fp, r1
 271:User/e-Paper/GUI_Paint.c ****     }
 4484              		.loc 1 271 51 view .LVU1348
 4485 01be 5146     		mov	r1, r10
 4486 01c0 0298     		ldr	r0, [sp, #8]
 4487 01c2 0841     		asrs	r0, r0, r1
 271:User/e-Paper/GUI_Paint.c ****     }
 4488              		.loc 1 271 35 view .LVU1349
 4489 01c4 0100     		movs	r1, r0
 4490 01c6 5846     		mov	r0, fp
 4491 01c8 0843     		orrs	r0, r1
 271:User/e-Paper/GUI_Paint.c ****     }
ARM GAS  C:\Users\upo\AppData\Local\Temp\ccEC4369.s 			page 113


 4492              		.loc 1 271 27 view .LVU1350
 4493 01ca F054     		strb	r0, [r6, r3]
 4494              	.LVL411:
 271:User/e-Paper/GUI_Paint.c ****     }
 4495              		.loc 1 271 27 view .LVU1351
 4496              	.LBE281:
 4497 01cc 8BE7     		b	.L320
 4498              	.LVL412:
 4499              	.L307:
 271:User/e-Paper/GUI_Paint.c ****     }
 4500              		.loc 1 271 27 view .LVU1352
 4501              	.LBE284:
 4502              	.LBE287:
 4503              	.LBE293:
 4504              	.LBE299:
 4505              	.LBE303:
 4506              	.LBE305:
 349:User/e-Paper/GUI_Paint.c ****         printf("Xpoint = %d , Paint.Width = %d  \r\n ", Xpoint, Paint.Width);
 4507              		.loc 1 349 77 is_stmt 1 view .LVU1353
 350:User/e-Paper/GUI_Paint.c ****         printf("Ypoint = %d , Paint.Height = %d  \r\n ", Ypoint, Paint.Height);
 4508              		.loc 1 350 9 view .LVU1354
 4509 01ce 294B     		ldr	r3, .L350+4
 4510              	.LVL413:
 350:User/e-Paper/GUI_Paint.c ****         printf("Ypoint = %d , Paint.Height = %d  \r\n ", Ypoint, Paint.Height);
 4511              		.loc 1 350 9 is_stmt 0 view .LVU1355
 4512 01d0 0A00     		movs	r2, r1
 4513              	.LVL414:
 350:User/e-Paper/GUI_Paint.c ****         printf("Ypoint = %d , Paint.Height = %d  \r\n ", Ypoint, Paint.Height);
 4514              		.loc 1 350 9 view .LVU1356
 4515 01d2 0100     		movs	r1, r0
 4516 01d4 1800     		movs	r0, r3
 4517              	.LVL415:
 350:User/e-Paper/GUI_Paint.c ****         printf("Ypoint = %d , Paint.Height = %d  \r\n ", Ypoint, Paint.Height);
 4518              		.loc 1 350 9 view .LVU1357
 4519 01d6 FFF7FEFF 		bl	printf_
 4520              	.LVL416:
 351:User/e-Paper/GUI_Paint.c ****         return;
 4521              		.loc 1 351 9 is_stmt 1 view .LVU1358
 4522 01da 4146     		mov	r1, r8
 4523 01dc E288     		ldrh	r2, [r4, #6]
 4524 01de 2648     		ldr	r0, .L350+8
 4525 01e0 FFF7FEFF 		bl	printf_
 4526              	.LVL417:
 352:User/e-Paper/GUI_Paint.c ****     }
 4527              		.loc 1 352 9 view .LVU1359
 4528 01e4 92E7     		b	.L306
 4529              	.LVL418:
 4530              	.L333:
 4531              	.LBB306:
 4532              	.LBB304:
 4533              	.LBB300:
 4534              	.LBB294:
 4535              	.LBB288:
 4536              	.LBB285:
 4537              	.LBB282:
 262:User/e-Paper/GUI_Paint.c ****     }
 4538              		.loc 1 262 13 view .LVU1360
ARM GAS  C:\Users\upo\AppData\Local\Temp\ccEC4369.s 			page 114


 262:User/e-Paper/GUI_Paint.c ****     }
 4539              		.loc 1 262 39 is_stmt 0 view .LVU1361
 4540 01e6 0B43     		orrs	r3, r1
 4541              	.LVL419:
 262:User/e-Paper/GUI_Paint.c ****     }
 4542              		.loc 1 262 31 view .LVU1362
 4543 01e8 3370     		strb	r3, [r6]
 4544              	.LVL420:
 262:User/e-Paper/GUI_Paint.c ****     }
 4545              		.loc 1 262 31 view .LVU1363
 4546 01ea 7CE7     		b	.L320
 4547              	.LVL421:
 4548              	.L310:
 262:User/e-Paper/GUI_Paint.c ****     }
 4549              		.loc 1 262 31 view .LVU1364
 4550              	.LBE282:
 4551              	.LBE285:
 4552              	.LBE288:
 4553              	.LBE294:
 4554              	.LBE300:
 358:User/e-Paper/GUI_Paint.c ****         {
 4555              		.loc 1 358 37 is_stmt 1 view .LVU1365
 358:User/e-Paper/GUI_Paint.c ****         {
 4556              		.loc 1 358 41 is_stmt 0 view .LVU1366
 4557 01ec 5900     		lsls	r1, r3, #1
 358:User/e-Paper/GUI_Paint.c ****         {
 4558              		.loc 1 358 53 view .LVU1367
 4559 01ee 4A1E     		subs	r2, r1, #1
 4560              	.LVL422:
 358:User/e-Paper/GUI_Paint.c ****         {
 4561              		.loc 1 358 53 view .LVU1368
 4562 01f0 9146     		mov	r9, r2
 358:User/e-Paper/GUI_Paint.c ****         {
 4563              		.loc 1 358 37 view .LVU1369
 4564 01f2 002A     		cmp	r2, #0
 4565 01f4 00DC     		bgt	.LCB4585
 4566 01f6 89E7     		b	.L306	@long jump
 4567              	.LCB4585:
 362:User/e-Paper/GUI_Paint.c ****                     break;
 4568              		.loc 1 362 76 view .LVU1370
 4569 01f8 4246     		mov	r2, r8
 4570 01fa D21A     		subs	r2, r2, r3
 4571 01fc 9346     		mov	fp, r2
 4572 01fe 92B2     		uxth	r2, r2
 4573 0200 0592     		str	r2, [sp, #20]
 4574 0202 4246     		mov	r2, r8
 4575 0204 9A1A     		subs	r2, r3, r2
 360:User/e-Paper/GUI_Paint.c ****             {
 4576              		.loc 1 360 70 view .LVU1371
 4577 0206 0132     		adds	r2, r2, #1
 358:User/e-Paper/GUI_Paint.c ****         {
 4578              		.loc 1 358 23 view .LVU1372
 4579 0208 0027     		movs	r7, #0
 360:User/e-Paper/GUI_Paint.c ****             {
 4580              		.loc 1 360 70 view .LVU1373
 4581 020a 9246     		mov	r10, r2
 4582 020c 5A46     		mov	r2, fp
ARM GAS  C:\Users\upo\AppData\Local\Temp\ccEC4369.s 			page 115


 358:User/e-Paper/GUI_Paint.c ****         {
 4583              		.loc 1 358 37 view .LVU1374
 4584 020e 0025     		movs	r5, #0
 4585 0210 9B46     		mov	fp, r3
 4586 0212 C61A     		subs	r6, r0, r3
 4587              	.LVL423:
 358:User/e-Paper/GUI_Paint.c ****         {
 4588              		.loc 1 358 37 view .LVU1375
 4589 0214 B6B2     		uxth	r6, r6
 4590 0216 0297     		str	r7, [sp, #8]
 4591 0218 0390     		str	r0, [sp, #12]
 4592 021a 0492     		str	r2, [sp, #16]
 4593              	.LVL424:
 4594              	.L313:
 360:User/e-Paper/GUI_Paint.c ****             {
 4595              		.loc 1 360 41 is_stmt 1 view .LVU1376
 362:User/e-Paper/GUI_Paint.c ****                     break;
 4596              		.loc 1 362 17 view .LVU1377
 362:User/e-Paper/GUI_Paint.c ****                     break;
 4597              		.loc 1 362 28 is_stmt 0 view .LVU1378
 4598 021c 039B     		ldr	r3, [sp, #12]
 4599 021e 9C46     		mov	ip, r3
 4600 0220 6544     		add	r5, r5, ip
 362:User/e-Paper/GUI_Paint.c ****                     break;
 4601              		.loc 1 362 20 view .LVU1379
 4602 0222 5D45     		cmp	r5, fp
 4603 0224 1ADB     		blt	.L315
 362:User/e-Paper/GUI_Paint.c ****                     break;
 4604              		.loc 1 362 55 view .LVU1380
 4605 0226 049B     		ldr	r3, [sp, #16]
 4606 0228 002B     		cmp	r3, #0
 4607 022a 17DB     		blt	.L315
 4608 022c 059D     		ldr	r5, [sp, #20]
 4609              	.LVL425:
 4610              	.L318:
 365:User/e-Paper/GUI_Paint.c ****             }
 4611              		.loc 1 365 17 is_stmt 1 view .LVU1381
 4612              	.LBB301:
 4613              	.LBI301:
 200:User/e-Paper/GUI_Paint.c **** {
 4614              		.loc 1 200 6 view .LVU1382
 4615              	.LBB302:
 202:User/e-Paper/GUI_Paint.c ****     {
 4616              		.loc 1 202 5 view .LVU1383
 202:User/e-Paper/GUI_Paint.c ****     {
 4617              		.loc 1 202 23 is_stmt 0 view .LVU1384
 4618 022e A788     		ldrh	r7, [r4, #4]
 202:User/e-Paper/GUI_Paint.c ****     {
 4619              		.loc 1 202 8 view .LVU1385
 4620 0230 B742     		cmp	r7, r6
 4621 0232 07D3     		bcc	.L316
 202:User/e-Paper/GUI_Paint.c ****     {
 4622              		.loc 1 202 30 view .LVU1386
 4623 0234 E388     		ldrh	r3, [r4, #6]
 4624 0236 AB42     		cmp	r3, r5
 4625 0238 04D3     		bcc	.L316
 4626 023a 2900     		movs	r1, r5
ARM GAS  C:\Users\upo\AppData\Local\Temp\ccEC4369.s 			page 116


 4627 023c 3000     		movs	r0, r6
 4628 023e 019A     		ldr	r2, [sp, #4]
 4629 0240 FFF7FEFF 		bl	Paint_SetPixel.part.0
 4630              	.LVL426:
 4631              	.L316:
 202:User/e-Paper/GUI_Paint.c ****     {
 4632              		.loc 1 202 30 view .LVU1387
 4633              	.LBE302:
 4634              	.LBE301:
 360:User/e-Paper/GUI_Paint.c ****             {
 4635              		.loc 1 360 70 is_stmt 1 view .LVU1388
 360:User/e-Paper/GUI_Paint.c ****             {
 4636              		.loc 1 360 41 view .LVU1389
 360:User/e-Paper/GUI_Paint.c ****             {
 4637              		.loc 1 360 70 is_stmt 0 view .LVU1390
 4638 0244 5346     		mov	r3, r10
 4639 0246 EB18     		adds	r3, r5, r3
 360:User/e-Paper/GUI_Paint.c ****             {
 4640              		.loc 1 360 41 view .LVU1391
 4641 0248 1BB2     		sxth	r3, r3
 4642 024a 4B45     		cmp	r3, r9
 4643 024c 06DA     		bge	.L315
 362:User/e-Paper/GUI_Paint.c ****                     break;
 4644              		.loc 1 362 17 is_stmt 1 view .LVU1392
 362:User/e-Paper/GUI_Paint.c ****                     break;
 4645              		.loc 1 362 65 is_stmt 0 view .LVU1393
 4646 024e 4344     		add	r3, r3, r8
 362:User/e-Paper/GUI_Paint.c ****                     break;
 4647              		.loc 1 362 55 view .LVU1394
 4648 0250 5B45     		cmp	r3, fp
 4649 0252 03DB     		blt	.L315
 4650 0254 0135     		adds	r5, r5, #1
 4651              	.LVL427:
 362:User/e-Paper/GUI_Paint.c ****                     break;
 4652              		.loc 1 362 55 view .LVU1395
 4653 0256 ADB2     		uxth	r5, r5
 4654 0258 B742     		cmp	r7, r6
 4655 025a E8D2     		bcs	.L318
 4656              	.LVL428:
 4657              	.L315:
 358:User/e-Paper/GUI_Paint.c ****         {
 4658              		.loc 1 358 66 is_stmt 1 view .LVU1396
 4659 025c 029F     		ldr	r7, [sp, #8]
 358:User/e-Paper/GUI_Paint.c ****         {
 4660              		.loc 1 358 37 is_stmt 0 view .LVU1397
 4661 025e 0136     		adds	r6, r6, #1
 4662 0260 0137     		adds	r7, r7, #1
 358:User/e-Paper/GUI_Paint.c ****         {
 4663              		.loc 1 358 66 view .LVU1398
 4664 0262 3BB2     		sxth	r3, r7
 358:User/e-Paper/GUI_Paint.c ****         {
 4665              		.loc 1 358 37 view .LVU1399
 4666 0264 1D00     		movs	r5, r3
 358:User/e-Paper/GUI_Paint.c ****         {
 4667              		.loc 1 358 66 view .LVU1400
 4668 0266 0293     		str	r3, [sp, #8]
 4669              	.LVL429:
ARM GAS  C:\Users\upo\AppData\Local\Temp\ccEC4369.s 			page 117


 358:User/e-Paper/GUI_Paint.c ****         {
 4670              		.loc 1 358 37 is_stmt 1 view .LVU1401
 4671 0268 B6B2     		uxth	r6, r6
 4672 026a 4B45     		cmp	r3, r9
 4673 026c D6DB     		blt	.L313
 4674 026e 4DE7     		b	.L306
 4675              	.L351:
 4676              		.align	2
 4677              	.L350:
 4678 0270 00000000 		.word	Paint
 4679 0274 00000000 		.word	.LC3
 4680 0278 24000000 		.word	.LC5
 4681              	.LBE304:
 4682              	.LBE306:
 4683              		.cfi_endproc
 4684              	.LFE1433:
 4686              		.section	.text.Paint_DrawLine,"ax",%progbits
 4687              		.align	1
 4688              		.p2align 2,,3
 4689              		.global	Paint_DrawLine
 4690              		.syntax unified
 4691              		.code	16
 4692              		.thumb_func
 4694              	Paint_DrawLine:
 4695              	.LVL430:
 4696              	.LFB1434:
 394:User/e-Paper/GUI_Paint.c ****     if (Xstart > Paint.Width || Ystart > Paint.Height ||
 4697              		.loc 1 394 1 view -0
 4698              		.cfi_startproc
 4699              		@ args = 12, pretend = 0, frame = 0
 4700              		@ frame_needed = 0, uses_anonymous_args = 0
 395:User/e-Paper/GUI_Paint.c ****         Xend > Paint.Width || Yend > Paint.Height)
 4701              		.loc 1 395 5 view .LVU1403
 394:User/e-Paper/GUI_Paint.c ****     if (Xstart > Paint.Width || Ystart > Paint.Height ||
 4702              		.loc 1 394 1 is_stmt 0 view .LVU1404
 4703 0000 F0B5     		push	{r4, r5, r6, r7, lr}
 4704              	.LCFI20:
 4705              		.cfi_def_cfa_offset 20
 4706              		.cfi_offset 4, -20
 4707              		.cfi_offset 5, -16
 4708              		.cfi_offset 6, -12
 4709              		.cfi_offset 7, -8
 4710              		.cfi_offset 14, -4
 4711 0002 85B0     		sub	sp, sp, #20
 4712              	.LCFI21:
 4713              		.cfi_def_cfa_offset 40
 394:User/e-Paper/GUI_Paint.c ****     if (Xstart > Paint.Width || Ystart > Paint.Height ||
 4714              		.loc 1 394 1 view .LVU1405
 4715 0004 0AAC     		add	r4, sp, #40
 4716              	.LVL431:
 394:User/e-Paper/GUI_Paint.c ****     if (Xstart > Paint.Width || Ystart > Paint.Height ||
 4717              		.loc 1 394 1 view .LVU1406
 4718 0006 2688     		ldrh	r6, [r4]
 4719 0008 0BAC     		add	r4, sp, #44
 4720              	.LVL432:
 394:User/e-Paper/GUI_Paint.c ****     if (Xstart > Paint.Width || Ystart > Paint.Height ||
 4721              		.loc 1 394 1 view .LVU1407
ARM GAS  C:\Users\upo\AppData\Local\Temp\ccEC4369.s 			page 118


 4722 000a 2778     		ldrb	r7, [r4]
 4723 000c 0CAC     		add	r4, sp, #48
 4724              	.LVL433:
 394:User/e-Paper/GUI_Paint.c ****     if (Xstart > Paint.Width || Ystart > Paint.Height ||
 4725              		.loc 1 394 1 view .LVU1408
 4726 000e 2478     		ldrb	r4, [r4]
 4727              	.LVL434:
 394:User/e-Paper/GUI_Paint.c ****     if (Xstart > Paint.Width || Ystart > Paint.Height ||
 4728              		.loc 1 394 1 view .LVU1409
 4729 0010 A446     		mov	ip, r4
 395:User/e-Paper/GUI_Paint.c ****         Xend > Paint.Width || Yend > Paint.Height)
 4730              		.loc 1 395 23 view .LVU1410
 4731 0012 094C     		ldr	r4, .L354
 4732 0014 A588     		ldrh	r5, [r4, #4]
 395:User/e-Paper/GUI_Paint.c ****         Xend > Paint.Width || Yend > Paint.Height)
 4733              		.loc 1 395 8 view .LVU1411
 4734 0016 8542     		cmp	r5, r0
 4735 0018 0CD3     		bcc	.L352
 395:User/e-Paper/GUI_Paint.c ****         Xend > Paint.Width || Yend > Paint.Height)
 4736              		.loc 1 395 47 discriminator 1 view .LVU1412
 4737 001a E488     		ldrh	r4, [r4, #6]
 395:User/e-Paper/GUI_Paint.c ****         Xend > Paint.Width || Yend > Paint.Height)
 4738              		.loc 1 395 30 discriminator 1 view .LVU1413
 4739 001c 8C42     		cmp	r4, r1
 4740 001e 09D3     		bcc	.L352
 395:User/e-Paper/GUI_Paint.c ****         Xend > Paint.Width || Yend > Paint.Height)
 4741              		.loc 1 395 55 discriminator 2 view .LVU1414
 4742 0020 9542     		cmp	r5, r2
 4743 0022 07D3     		bcc	.L352
 396:User/e-Paper/GUI_Paint.c ****     {
 4744              		.loc 1 396 28 view .LVU1415
 4745 0024 9C42     		cmp	r4, r3
 4746 0026 05D3     		bcc	.L352
 4747 0028 6446     		mov	r4, ip
 4748 002a 0197     		str	r7, [sp, #4]
 4749 002c 0294     		str	r4, [sp, #8]
 4750 002e 0096     		str	r6, [sp]
 4751 0030 FFF7FEFF 		bl	Paint_DrawLine.part.0
 4752              	.LVL435:
 4753              	.L352:
 444:User/e-Paper/GUI_Paint.c **** 
 4754              		.loc 1 444 1 view .LVU1416
 4755 0034 05B0     		add	sp, sp, #20
 4756              		@ sp needed
 4757 0036 F0BD     		pop	{r4, r5, r6, r7, pc}
 4758              	.L355:
 4759              		.align	2
 4760              	.L354:
 4761 0038 00000000 		.word	Paint
 4762              		.cfi_endproc
 4763              	.LFE1434:
 4765              		.section	.text.Paint_DrawRectangle,"ax",%progbits
 4766              		.align	1
 4767              		.p2align 2,,3
 4768              		.global	Paint_DrawRectangle
 4769              		.syntax unified
 4770              		.code	16
ARM GAS  C:\Users\upo\AppData\Local\Temp\ccEC4369.s 			page 119


 4771              		.thumb_func
 4773              	Paint_DrawRectangle:
 4774              	.LVL436:
 4775              	.LFB1435:
 459:User/e-Paper/GUI_Paint.c ****     if (Xstart > Paint.Width || Ystart > Paint.Height ||
 4776              		.loc 1 459 1 is_stmt 1 view -0
 4777              		.cfi_startproc
 4778              		@ args = 12, pretend = 0, frame = 0
 4779              		@ frame_needed = 0, uses_anonymous_args = 0
 460:User/e-Paper/GUI_Paint.c ****         Xend > Paint.Width || Yend > Paint.Height)
 4780              		.loc 1 460 5 view .LVU1418
 459:User/e-Paper/GUI_Paint.c ****     if (Xstart > Paint.Width || Ystart > Paint.Height ||
 4781              		.loc 1 459 1 is_stmt 0 view .LVU1419
 4782 0000 F0B5     		push	{r4, r5, r6, r7, lr}
 4783              	.LCFI22:
 4784              		.cfi_def_cfa_offset 20
 4785              		.cfi_offset 4, -20
 4786              		.cfi_offset 5, -16
 4787              		.cfi_offset 6, -12
 4788              		.cfi_offset 7, -8
 4789              		.cfi_offset 14, -4
 4790 0002 5746     		mov	r7, r10
 4791 0004 4E46     		mov	r6, r9
 4792 0006 4546     		mov	r5, r8
 4793 0008 DE46     		mov	lr, fp
 4794 000a E0B5     		push	{r5, r6, r7, lr}
 4795              	.LCFI23:
 4796              		.cfi_def_cfa_offset 36
 4797              		.cfi_offset 8, -36
 4798              		.cfi_offset 9, -32
 4799              		.cfi_offset 10, -28
 4800              		.cfi_offset 11, -24
 4801 000c 85B0     		sub	sp, sp, #20
 4802              	.LCFI24:
 4803              		.cfi_def_cfa_offset 56
 459:User/e-Paper/GUI_Paint.c ****     if (Xstart > Paint.Width || Ystart > Paint.Height ||
 4804              		.loc 1 459 1 view .LVU1420
 4805 000e 1E00     		movs	r6, r3
 4806 0010 0EAB     		add	r3, sp, #56
 4807              	.LVL437:
 459:User/e-Paper/GUI_Paint.c ****     if (Xstart > Paint.Width || Ystart > Paint.Height ||
 4808              		.loc 1 459 1 view .LVU1421
 4809 0012 1B88     		ldrh	r3, [r3]
 4810              	.LVL438:
 460:User/e-Paper/GUI_Paint.c ****         Xend > Paint.Width || Yend > Paint.Height)
 4811              		.loc 1 460 23 view .LVU1422
 4812 0014 404F     		ldr	r7, .L366
 459:User/e-Paper/GUI_Paint.c ****     if (Xstart > Paint.Width || Ystart > Paint.Height ||
 4813              		.loc 1 459 1 view .LVU1423
 4814 0016 9946     		mov	r9, r3
 4815 0018 0FAB     		add	r3, sp, #60
 4816              	.LVL439:
 459:User/e-Paper/GUI_Paint.c ****     if (Xstart > Paint.Width || Ystart > Paint.Height ||
 4817              		.loc 1 459 1 view .LVU1424
 4818 001a 1B78     		ldrb	r3, [r3]
 4819              	.LVL440:
 459:User/e-Paper/GUI_Paint.c ****     if (Xstart > Paint.Width || Ystart > Paint.Height ||
ARM GAS  C:\Users\upo\AppData\Local\Temp\ccEC4369.s 			page 120


 4820              		.loc 1 459 1 view .LVU1425
 4821 001c 0500     		movs	r5, r0
 4822 001e 9A46     		mov	r10, r3
 4823 0020 10AB     		add	r3, sp, #64
 4824              	.LVL441:
 459:User/e-Paper/GUI_Paint.c ****     if (Xstart > Paint.Width || Ystart > Paint.Height ||
 4825              		.loc 1 459 1 view .LVU1426
 4826 0022 1B78     		ldrb	r3, [r3]
 4827              	.LVL442:
 459:User/e-Paper/GUI_Paint.c ****     if (Xstart > Paint.Width || Ystart > Paint.Height ||
 4828              		.loc 1 459 1 view .LVU1427
 4829 0024 0C00     		movs	r4, r1
 4830 0026 9B46     		mov	fp, r3
 460:User/e-Paper/GUI_Paint.c ****         Xend > Paint.Width || Yend > Paint.Height)
 4831              		.loc 1 460 23 view .LVU1428
 4832 0028 BB88     		ldrh	r3, [r7, #4]
 459:User/e-Paper/GUI_Paint.c ****     if (Xstart > Paint.Width || Ystart > Paint.Height ||
 4833              		.loc 1 459 1 view .LVU1429
 4834 002a 9046     		mov	r8, r2
 460:User/e-Paper/GUI_Paint.c ****         Xend > Paint.Width || Yend > Paint.Height)
 4835              		.loc 1 460 8 view .LVU1430
 4836 002c 8342     		cmp	r3, r0
 4837 002e 26D3     		bcc	.L356
 460:User/e-Paper/GUI_Paint.c ****         Xend > Paint.Width || Yend > Paint.Height)
 4838              		.loc 1 460 47 discriminator 1 view .LVU1431
 4839 0030 FA88     		ldrh	r2, [r7, #6]
 4840              	.LVL443:
 460:User/e-Paper/GUI_Paint.c ****         Xend > Paint.Width || Yend > Paint.Height)
 4841              		.loc 1 460 30 discriminator 1 view .LVU1432
 4842 0032 8A42     		cmp	r2, r1
 4843 0034 23D3     		bcc	.L356
 460:User/e-Paper/GUI_Paint.c ****         Xend > Paint.Width || Yend > Paint.Height)
 4844              		.loc 1 460 55 discriminator 2 view .LVU1433
 4845 0036 4345     		cmp	r3, r8
 4846 0038 21D3     		bcc	.L356
 461:User/e-Paper/GUI_Paint.c ****     {
 4847              		.loc 1 461 28 view .LVU1434
 4848 003a B242     		cmp	r2, r6
 4849 003c 1FD3     		bcc	.L356
 467:User/e-Paper/GUI_Paint.c ****     {
 4850              		.loc 1 467 5 is_stmt 1 view .LVU1435
 467:User/e-Paper/GUI_Paint.c ****     {
 4851              		.loc 1 467 8 is_stmt 0 view .LVU1436
 4852 003e 5A46     		mov	r2, fp
 4853 0040 002A     		cmp	r2, #0
 4854 0042 23D0     		beq	.L360
 4855              	.LVL444:
 4856              	.LBB318:
 470:User/e-Paper/GUI_Paint.c ****         {
 4857              		.loc 1 470 38 is_stmt 1 view .LVU1437
 4858 0044 B142     		cmp	r1, r6
 4859 0046 1AD2     		bcs	.L356
 4860              	.LBB319:
 4861              	.LBB320:
 4862 0048 0022     		movs	r2, #0
 4863 004a 9346     		mov	fp, r2
 4864 004c 00E0     		b	.L362
ARM GAS  C:\Users\upo\AppData\Local\Temp\ccEC4369.s 			page 121


 4865              	.LVL445:
 4866              	.L365:
 395:User/e-Paper/GUI_Paint.c ****         Xend > Paint.Width || Yend > Paint.Height)
 4867              		.loc 1 395 23 is_stmt 0 view .LVU1438
 4868 004e BB88     		ldrh	r3, [r7, #4]
 4869              	.LVL446:
 4870              	.L362:
 395:User/e-Paper/GUI_Paint.c ****         Xend > Paint.Width || Yend > Paint.Height)
 4871              		.loc 1 395 23 view .LVU1439
 4872              	.LBE320:
 4873              	.LBE319:
 472:User/e-Paper/GUI_Paint.c ****         }
 4874              		.loc 1 472 13 is_stmt 1 view .LVU1440
 4875              	.LBB322:
 4876              	.LBI319:
 392:User/e-Paper/GUI_Paint.c ****                     UWORD Color, DOT_PIXEL Line_width, LINE_STYLE Line_Style)
 4877              		.loc 1 392 6 view .LVU1441
 4878              	.LBB321:
 395:User/e-Paper/GUI_Paint.c ****         Xend > Paint.Width || Yend > Paint.Height)
 4879              		.loc 1 395 5 view .LVU1442
 395:User/e-Paper/GUI_Paint.c ****         Xend > Paint.Width || Yend > Paint.Height)
 4880              		.loc 1 395 8 is_stmt 0 view .LVU1443
 4881 0050 9D42     		cmp	r5, r3
 4882 0052 10D8     		bhi	.L361
 395:User/e-Paper/GUI_Paint.c ****         Xend > Paint.Width || Yend > Paint.Height)
 4883              		.loc 1 395 30 view .LVU1444
 4884 0054 FA88     		ldrh	r2, [r7, #6]
 4885 0056 A242     		cmp	r2, r4
 4886 0058 0DD3     		bcc	.L361
 395:User/e-Paper/GUI_Paint.c ****         Xend > Paint.Width || Yend > Paint.Height)
 4887              		.loc 1 395 55 view .LVU1445
 4888 005a 9845     		cmp	r8, r3
 4889 005c 0BD8     		bhi	.L361
 4890 005e 5B46     		mov	r3, fp
 4891 0060 0293     		str	r3, [sp, #8]
 4892 0062 5346     		mov	r3, r10
 4893 0064 0193     		str	r3, [sp, #4]
 4894 0066 4B46     		mov	r3, r9
 4895 0068 4246     		mov	r2, r8
 4896 006a 0093     		str	r3, [sp]
 4897 006c 2100     		movs	r1, r4
 4898 006e 2300     		movs	r3, r4
 4899 0070 2800     		movs	r0, r5
 4900 0072 FFF7FEFF 		bl	Paint_DrawLine.part.0
 4901              	.LVL447:
 4902              	.L361:
 395:User/e-Paper/GUI_Paint.c ****         Xend > Paint.Width || Yend > Paint.Height)
 4903              		.loc 1 395 55 view .LVU1446
 4904              	.LBE321:
 4905              	.LBE322:
 470:User/e-Paper/GUI_Paint.c ****         {
 4906              		.loc 1 470 52 is_stmt 1 view .LVU1447
 4907 0076 0134     		adds	r4, r4, #1
 4908              	.LVL448:
 470:User/e-Paper/GUI_Paint.c ****         {
 4909              		.loc 1 470 52 is_stmt 0 view .LVU1448
 4910 0078 A4B2     		uxth	r4, r4
ARM GAS  C:\Users\upo\AppData\Local\Temp\ccEC4369.s 			page 122


 4911              	.LVL449:
 470:User/e-Paper/GUI_Paint.c ****         {
 4912              		.loc 1 470 38 is_stmt 1 view .LVU1449
 4913 007a A642     		cmp	r6, r4
 4914 007c E7D1     		bne	.L365
 4915              	.LVL450:
 4916              	.L356:
 470:User/e-Paper/GUI_Paint.c ****         {
 4917              		.loc 1 470 38 is_stmt 0 view .LVU1450
 4918              	.LBE318:
 482:User/e-Paper/GUI_Paint.c **** 
 4919              		.loc 1 482 1 view .LVU1451
 4920 007e 05B0     		add	sp, sp, #20
 4921              		@ sp needed
 4922 0080 F0BC     		pop	{r4, r5, r6, r7}
 4923 0082 BB46     		mov	fp, r7
 4924 0084 B246     		mov	r10, r6
 4925 0086 A946     		mov	r9, r5
 4926 0088 A046     		mov	r8, r4
 4927 008a F0BD     		pop	{r4, r5, r6, r7, pc}
 4928              	.LVL451:
 4929              	.L360:
 477:User/e-Paper/GUI_Paint.c ****         Paint_DrawLine(Xstart, Ystart, Xstart, Yend, Color, Line_width, LINE_STYLE_SOLID);
 4930              		.loc 1 477 9 is_stmt 1 view .LVU1452
 4931              	.LBB323:
 4932              	.LBI323:
 392:User/e-Paper/GUI_Paint.c ****                     UWORD Color, DOT_PIXEL Line_width, LINE_STYLE Line_Style)
 4933              		.loc 1 392 6 view .LVU1453
 4934              	.LBB324:
 395:User/e-Paper/GUI_Paint.c ****         Xend > Paint.Width || Yend > Paint.Height)
 4935              		.loc 1 395 5 view .LVU1454
 4936 008c 5346     		mov	r3, r10
 4937 008e 0193     		str	r3, [sp, #4]
 4938 0090 4B46     		mov	r3, r9
 4939 0092 0292     		str	r2, [sp, #8]
 4940 0094 0093     		str	r3, [sp]
 4941 0096 4246     		mov	r2, r8
 4942 0098 0B00     		movs	r3, r1
 4943 009a FFF7FEFF 		bl	Paint_DrawLine.part.0
 4944              	.LVL452:
 395:User/e-Paper/GUI_Paint.c ****         Xend > Paint.Width || Yend > Paint.Height)
 4945              		.loc 1 395 5 is_stmt 0 view .LVU1455
 4946              	.LBE324:
 4947              	.LBE323:
 478:User/e-Paper/GUI_Paint.c ****         Paint_DrawLine(Xend, Yend, Xend, Ystart, Color, Line_width, LINE_STYLE_SOLID);
 4948              		.loc 1 478 9 is_stmt 1 view .LVU1456
 4949              	.LBB325:
 4950              	.LBI325:
 392:User/e-Paper/GUI_Paint.c ****                     UWORD Color, DOT_PIXEL Line_width, LINE_STYLE Line_Style)
 4951              		.loc 1 392 6 view .LVU1457
 4952              	.LBB326:
 395:User/e-Paper/GUI_Paint.c ****         Xend > Paint.Width || Yend > Paint.Height)
 4953              		.loc 1 395 5 view .LVU1458
 395:User/e-Paper/GUI_Paint.c ****         Xend > Paint.Width || Yend > Paint.Height)
 4954              		.loc 1 395 23 is_stmt 0 view .LVU1459
 4955 009e BB88     		ldrh	r3, [r7, #4]
 395:User/e-Paper/GUI_Paint.c ****         Xend > Paint.Width || Yend > Paint.Height)
ARM GAS  C:\Users\upo\AppData\Local\Temp\ccEC4369.s 			page 123


 4956              		.loc 1 395 8 view .LVU1460
 4957 00a0 9D42     		cmp	r5, r3
 4958 00a2 11D8     		bhi	.L363
 395:User/e-Paper/GUI_Paint.c ****         Xend > Paint.Width || Yend > Paint.Height)
 4959              		.loc 1 395 47 view .LVU1461
 4960 00a4 FA88     		ldrh	r2, [r7, #6]
 395:User/e-Paper/GUI_Paint.c ****         Xend > Paint.Width || Yend > Paint.Height)
 4961              		.loc 1 395 30 view .LVU1462
 4962 00a6 9442     		cmp	r4, r2
 4963 00a8 0ED8     		bhi	.L363
 396:User/e-Paper/GUI_Paint.c ****     {
 4964              		.loc 1 396 28 view .LVU1463
 4965 00aa 9642     		cmp	r6, r2
 4966 00ac 0CD8     		bhi	.L363
 4967 00ae 5B46     		mov	r3, fp
 4968 00b0 0293     		str	r3, [sp, #8]
 4969 00b2 5346     		mov	r3, r10
 4970 00b4 0193     		str	r3, [sp, #4]
 4971 00b6 4B46     		mov	r3, r9
 4972 00b8 2A00     		movs	r2, r5
 4973 00ba 0093     		str	r3, [sp]
 4974 00bc 2100     		movs	r1, r4
 4975 00be 3300     		movs	r3, r6
 4976 00c0 2800     		movs	r0, r5
 4977 00c2 FFF7FEFF 		bl	Paint_DrawLine.part.0
 4978              	.LVL453:
 4979              	.LBE326:
 4980              	.LBE325:
 4981              	.LBB327:
 4982              	.LBB328:
 395:User/e-Paper/GUI_Paint.c ****         Xend > Paint.Width || Yend > Paint.Height)
 4983              		.loc 1 395 23 view .LVU1464
 4984 00c6 BB88     		ldrh	r3, [r7, #4]
 4985              	.L363:
 4986              	.LVL454:
 395:User/e-Paper/GUI_Paint.c ****         Xend > Paint.Width || Yend > Paint.Height)
 4987              		.loc 1 395 23 view .LVU1465
 4988              	.LBE328:
 4989              	.LBE327:
 479:User/e-Paper/GUI_Paint.c ****         Paint_DrawLine(Xend, Yend, Xstart, Yend, Color, Line_width, LINE_STYLE_SOLID);
 4990              		.loc 1 479 9 is_stmt 1 view .LVU1466
 4991              	.LBB330:
 4992              	.LBI327:
 392:User/e-Paper/GUI_Paint.c ****                     UWORD Color, DOT_PIXEL Line_width, LINE_STYLE Line_Style)
 4993              		.loc 1 392 6 view .LVU1467
 4994              	.LBB329:
 395:User/e-Paper/GUI_Paint.c ****         Xend > Paint.Width || Yend > Paint.Height)
 4995              		.loc 1 395 5 view .LVU1468
 395:User/e-Paper/GUI_Paint.c ****         Xend > Paint.Width || Yend > Paint.Height)
 4996              		.loc 1 395 8 is_stmt 0 view .LVU1469
 4997 00c8 9845     		cmp	r8, r3
 4998 00ca D8D8     		bhi	.L356
 395:User/e-Paper/GUI_Paint.c ****         Xend > Paint.Width || Yend > Paint.Height)
 4999              		.loc 1 395 47 view .LVU1470
 5000 00cc FA88     		ldrh	r2, [r7, #6]
 395:User/e-Paper/GUI_Paint.c ****         Xend > Paint.Width || Yend > Paint.Height)
 5001              		.loc 1 395 30 view .LVU1471
ARM GAS  C:\Users\upo\AppData\Local\Temp\ccEC4369.s 			page 124


 5002 00ce 9642     		cmp	r6, r2
 5003 00d0 D5D8     		bhi	.L356
 396:User/e-Paper/GUI_Paint.c ****     {
 5004              		.loc 1 396 28 view .LVU1472
 5005 00d2 9442     		cmp	r4, r2
 5006 00d4 11D8     		bhi	.L364
 5007 00d6 0023     		movs	r3, #0
 5008 00d8 0293     		str	r3, [sp, #8]
 5009 00da 5346     		mov	r3, r10
 5010 00dc 0193     		str	r3, [sp, #4]
 5011 00de 4B46     		mov	r3, r9
 5012 00e0 4246     		mov	r2, r8
 5013 00e2 0093     		str	r3, [sp]
 5014 00e4 3100     		movs	r1, r6
 5015 00e6 2300     		movs	r3, r4
 5016 00e8 4046     		mov	r0, r8
 5017 00ea FFF7FEFF 		bl	Paint_DrawLine.part.0
 5018              	.LVL455:
 5019              	.LBE329:
 5020              	.LBE330:
 5021              	.LBB331:
 5022              	.LBB332:
 395:User/e-Paper/GUI_Paint.c ****         Xend > Paint.Width || Yend > Paint.Height)
 5023              		.loc 1 395 23 view .LVU1473
 5024 00ee BB88     		ldrh	r3, [r7, #4]
 5025              	.LVL456:
 395:User/e-Paper/GUI_Paint.c ****         Xend > Paint.Width || Yend > Paint.Height)
 5026              		.loc 1 395 23 view .LVU1474
 5027              	.LBE332:
 5028              	.LBE331:
 480:User/e-Paper/GUI_Paint.c ****     }
 5029              		.loc 1 480 9 is_stmt 1 view .LVU1475
 5030              	.LBB334:
 5031              	.LBI331:
 392:User/e-Paper/GUI_Paint.c ****                     UWORD Color, DOT_PIXEL Line_width, LINE_STYLE Line_Style)
 5032              		.loc 1 392 6 view .LVU1476
 5033              	.LBB333:
 395:User/e-Paper/GUI_Paint.c ****         Xend > Paint.Width || Yend > Paint.Height)
 5034              		.loc 1 395 5 view .LVU1477
 395:User/e-Paper/GUI_Paint.c ****         Xend > Paint.Width || Yend > Paint.Height)
 5035              		.loc 1 395 8 is_stmt 0 view .LVU1478
 5036 00f0 9845     		cmp	r8, r3
 5037 00f2 C4D8     		bhi	.L356
 395:User/e-Paper/GUI_Paint.c ****         Xend > Paint.Width || Yend > Paint.Height)
 5038              		.loc 1 395 30 view .LVU1479
 5039 00f4 FA88     		ldrh	r2, [r7, #6]
 5040 00f6 B242     		cmp	r2, r6
 5041 00f8 C1D3     		bcc	.L356
 5042              	.LVL457:
 5043              	.L364:
 395:User/e-Paper/GUI_Paint.c ****         Xend > Paint.Width || Yend > Paint.Height)
 5044              		.loc 1 395 55 view .LVU1480
 5045 00fa 9D42     		cmp	r5, r3
 5046 00fc BFD8     		bhi	.L356
 5047 00fe 0023     		movs	r3, #0
 5048 0100 0293     		str	r3, [sp, #8]
 5049 0102 5346     		mov	r3, r10
ARM GAS  C:\Users\upo\AppData\Local\Temp\ccEC4369.s 			page 125


 5050 0104 0193     		str	r3, [sp, #4]
 5051 0106 4B46     		mov	r3, r9
 5052 0108 2A00     		movs	r2, r5
 5053 010a 0093     		str	r3, [sp]
 5054 010c 3100     		movs	r1, r6
 5055 010e 3300     		movs	r3, r6
 5056 0110 4046     		mov	r0, r8
 5057 0112 FFF7FEFF 		bl	Paint_DrawLine.part.0
 5058              	.LVL458:
 395:User/e-Paper/GUI_Paint.c ****         Xend > Paint.Width || Yend > Paint.Height)
 5059              		.loc 1 395 55 view .LVU1481
 5060 0116 B2E7     		b	.L356
 5061              	.L367:
 5062              		.align	2
 5063              	.L366:
 5064 0118 00000000 		.word	Paint
 5065              	.LBE333:
 5066              	.LBE334:
 5067              		.cfi_endproc
 5068              	.LFE1435:
 5070              		.section	.text.Paint_DrawCircle,"ax",%progbits
 5071              		.align	1
 5072              		.p2align 2,,3
 5073              		.global	Paint_DrawCircle
 5074              		.syntax unified
 5075              		.code	16
 5076              		.thumb_func
 5078              	Paint_DrawCircle:
 5079              	.LVL459:
 5080              	.LFB1436:
 497:User/e-Paper/GUI_Paint.c ****     if (X_Center > Paint.Width || Y_Center >= Paint.Height)
 5081              		.loc 1 497 1 is_stmt 1 view -0
 5082              		.cfi_startproc
 5083              		@ args = 8, pretend = 0, frame = 56
 5084              		@ frame_needed = 0, uses_anonymous_args = 0
 498:User/e-Paper/GUI_Paint.c ****     {
 5085              		.loc 1 498 5 view .LVU1483
 497:User/e-Paper/GUI_Paint.c ****     if (X_Center > Paint.Width || Y_Center >= Paint.Height)
 5086              		.loc 1 497 1 is_stmt 0 view .LVU1484
 5087 0000 F0B5     		push	{r4, r5, r6, r7, lr}
 5088              	.LCFI25:
 5089              		.cfi_def_cfa_offset 20
 5090              		.cfi_offset 4, -20
 5091              		.cfi_offset 5, -16
 5092              		.cfi_offset 6, -12
 5093              		.cfi_offset 7, -8
 5094              		.cfi_offset 14, -4
 5095 0002 4546     		mov	r5, r8
 5096 0004 DE46     		mov	lr, fp
 5097 0006 5746     		mov	r7, r10
 5098 0008 4E46     		mov	r6, r9
 5099 000a E0B5     		push	{r5, r6, r7, lr}
 5100              	.LCFI26:
 5101              		.cfi_def_cfa_offset 36
 5102              		.cfi_offset 8, -36
 5103              		.cfi_offset 9, -32
 5104              		.cfi_offset 10, -28
ARM GAS  C:\Users\upo\AppData\Local\Temp\ccEC4369.s 			page 126


 5105              		.cfi_offset 11, -24
 5106 000c 8FB0     		sub	sp, sp, #60
 5107              	.LCFI27:
 5108              		.cfi_def_cfa_offset 96
 497:User/e-Paper/GUI_Paint.c ****     if (X_Center > Paint.Width || Y_Center >= Paint.Height)
 5109              		.loc 1 497 1 view .LVU1485
 5110 000e 9B46     		mov	fp, r3
 5111 0010 18AB     		add	r3, sp, #96
 5112              	.LVL460:
 497:User/e-Paper/GUI_Paint.c ****     if (X_Center > Paint.Width || Y_Center >= Paint.Height)
 5113              		.loc 1 497 1 view .LVU1486
 5114 0012 1C78     		ldrb	r4, [r3]
 5115 0014 19AB     		add	r3, sp, #100
 5116              	.LVL461:
 497:User/e-Paper/GUI_Paint.c ****     if (X_Center > Paint.Width || Y_Center >= Paint.Height)
 5117              		.loc 1 497 1 view .LVU1487
 5118 0016 0491     		str	r1, [sp, #16]
 5119 0018 0D00     		movs	r5, r1
 5120 001a 1978     		ldrb	r1, [r3]
 5121              	.LVL462:
 498:User/e-Paper/GUI_Paint.c ****     {
 5122              		.loc 1 498 25 view .LVU1488
 5123 001c C94B     		ldr	r3, .L431
 5124              	.LVL463:
 497:User/e-Paper/GUI_Paint.c ****     if (X_Center > Paint.Width || Y_Center >= Paint.Height)
 5125              		.loc 1 497 1 view .LVU1489
 5126 001e 0390     		str	r0, [sp, #12]
 498:User/e-Paper/GUI_Paint.c ****     {
 5127              		.loc 1 498 25 view .LVU1490
 5128 0020 9846     		mov	r8, r3
 498:User/e-Paper/GUI_Paint.c ****     {
 5129              		.loc 1 498 8 view .LVU1491
 5130 0022 9B88     		ldrh	r3, [r3, #4]
 5131 0024 8342     		cmp	r3, r0
 5132 0026 00D2     		bcs	.LCB5209
 5133 0028 86E0     		b	.L368	@long jump
 5134              	.LCB5209:
 498:User/e-Paper/GUI_Paint.c ****     {
 5135              		.loc 1 498 32 discriminator 1 view .LVU1492
 5136 002a 4346     		mov	r3, r8
 5137 002c DB88     		ldrh	r3, [r3, #6]
 5138 002e AB42     		cmp	r3, r5
 5139 0030 00D8     		bhi	.LCB5213
 5140 0032 81E0     		b	.L368	@long jump
 5141              	.LCB5213:
 505:User/e-Paper/GUI_Paint.c ****     XCurrent = 0;
 5142              		.loc 1 505 5 is_stmt 1 view .LVU1493
 506:User/e-Paper/GUI_Paint.c ****     YCurrent = Radius;
 5143              		.loc 1 506 5 view .LVU1494
 5144              	.LVL464:
 507:User/e-Paper/GUI_Paint.c **** 
 5145              		.loc 1 507 5 view .LVU1495
 510:User/e-Paper/GUI_Paint.c **** 
 5146              		.loc 1 510 21 is_stmt 0 view .LVU1496
 5147 0034 0323     		movs	r3, #3
 507:User/e-Paper/GUI_Paint.c **** 
 5148              		.loc 1 507 14 view .LVU1497
ARM GAS  C:\Users\upo\AppData\Local\Temp\ccEC4369.s 			page 127


 5149 0036 10B2     		sxth	r0, r2
 5150              	.LVL465:
 510:User/e-Paper/GUI_Paint.c **** 
 5151              		.loc 1 510 31 view .LVU1498
 5152 0038 5200     		lsls	r2, r2, #1
 5153              	.LVL466:
 510:User/e-Paper/GUI_Paint.c **** 
 5154              		.loc 1 510 21 view .LVU1499
 5155 003a 9B1A     		subs	r3, r3, r2
 510:User/e-Paper/GUI_Paint.c **** 
 5156              		.loc 1 510 13 view .LVU1500
 5157 003c 1BB2     		sxth	r3, r3
 507:User/e-Paper/GUI_Paint.c **** 
 5158              		.loc 1 507 14 view .LVU1501
 5159 003e 0690     		str	r0, [sp, #24]
 5160              	.LVL467:
 510:User/e-Paper/GUI_Paint.c **** 
 5161              		.loc 1 510 5 is_stmt 1 view .LVU1502
 510:User/e-Paper/GUI_Paint.c **** 
 5162              		.loc 1 510 13 is_stmt 0 view .LVU1503
 5163 0040 0A93     		str	r3, [sp, #40]
 5164              	.LVL468:
 512:User/e-Paper/GUI_Paint.c ****     if (Draw_Fill == DRAW_FILL_FULL)
 5165              		.loc 1 512 5 is_stmt 1 view .LVU1504
 513:User/e-Paper/GUI_Paint.c ****     {
 5166              		.loc 1 513 5 view .LVU1505
 513:User/e-Paper/GUI_Paint.c ****     {
 5167              		.loc 1 513 8 is_stmt 0 view .LVU1506
 5168 0042 0129     		cmp	r1, #1
 5169 0044 00D1     		bne	.LCB5233
 5170 0046 7EE0     		b	.L371	@long jump
 5171              	.LCB5233:
 540:User/e-Paper/GUI_Paint.c ****         {
 5172              		.loc 1 540 25 is_stmt 1 view .LVU1507
 5173 0048 0028     		cmp	r0, #0
 5174 004a 75DB     		blt	.L368
 506:User/e-Paper/GUI_Paint.c ****     YCurrent = Radius;
 5175              		.loc 1 506 14 is_stmt 0 view .LVU1508
 5176 004c 0023     		movs	r3, #0
 5177 004e 0193     		str	r3, [sp, #4]
 5178 0050 6B46     		mov	r3, sp
 5179 0052 5D46     		mov	r5, fp
 5180 0054 1E8B     		ldrh	r6, [r3, #24]
 5181              	.LVL469:
 5182              	.L372:
 542:User/e-Paper/GUI_Paint.c ****             Paint_DrawPoint(X_Center - XCurrent, Y_Center + YCurrent, Color, Line_width, DOT_STYLE_
 5183              		.loc 1 542 13 is_stmt 1 view .LVU1509
 5184 0056 6B46     		mov	r3, sp
 5185 0058 9F88     		ldrh	r7, [r3, #4]
 5186 005a 039B     		ldr	r3, [sp, #12]
 5187 005c DB19     		adds	r3, r3, r7
 5188 005e 9AB2     		uxth	r2, r3
 5189 0060 9146     		mov	r9, r2
 5190 0062 049A     		ldr	r2, [sp, #16]
 5191 0064 4846     		mov	r0, r9
 5192 0066 B318     		adds	r3, r6, r2
 5193 0068 99B2     		uxth	r1, r3
ARM GAS  C:\Users\upo\AppData\Local\Temp\ccEC4369.s 			page 128


 5194 006a 2A00     		movs	r2, r5
 5195 006c 2300     		movs	r3, r4
 5196 006e 8846     		mov	r8, r1
 5197 0070 FFF7FEFF 		bl	Paint_DrawPoint.constprop.1
 5198              	.LVL470:
 543:User/e-Paper/GUI_Paint.c ****             Paint_DrawPoint(X_Center - YCurrent, Y_Center + XCurrent, Color, Line_width, DOT_STYLE_
 5199              		.loc 1 543 13 view .LVU1510
 5200 0074 039B     		ldr	r3, [sp, #12]
 5201 0076 2A00     		movs	r2, r5
 5202 0078 DB1B     		subs	r3, r3, r7
 5203 007a 99B2     		uxth	r1, r3
 5204 007c 8B46     		mov	fp, r1
 5205 007e 2300     		movs	r3, r4
 5206 0080 4146     		mov	r1, r8
 5207 0082 5846     		mov	r0, fp
 5208 0084 FFF7FEFF 		bl	Paint_DrawPoint.constprop.1
 5209              	.LVL471:
 544:User/e-Paper/GUI_Paint.c ****             Paint_DrawPoint(X_Center - YCurrent, Y_Center - XCurrent, Color, Line_width, DOT_STYLE_
 5210              		.loc 1 544 13 view .LVU1511
 5211 0088 039B     		ldr	r3, [sp, #12]
 5212 008a 049A     		ldr	r2, [sp, #16]
 5213 008c 9B1B     		subs	r3, r3, r6
 5214 008e 99B2     		uxth	r1, r3
 5215 0090 8A46     		mov	r10, r1
 5216 0092 D319     		adds	r3, r2, r7
 5217 0094 99B2     		uxth	r1, r3
 5218 0096 5046     		mov	r0, r10
 5219 0098 2300     		movs	r3, r4
 5220 009a 2A00     		movs	r2, r5
 5221 009c 0291     		str	r1, [sp, #8]
 5222 009e FFF7FEFF 		bl	Paint_DrawPoint.constprop.1
 5223              	.LVL472:
 545:User/e-Paper/GUI_Paint.c ****             Paint_DrawPoint(X_Center - XCurrent, Y_Center - YCurrent, Color, Line_width, DOT_STYLE_
 5224              		.loc 1 545 13 view .LVU1512
 5225 00a2 049A     		ldr	r2, [sp, #16]
 5226 00a4 D31B     		subs	r3, r2, r7
 5227 00a6 98B2     		uxth	r0, r3
 5228 00a8 0100     		movs	r1, r0
 5229 00aa 8046     		mov	r8, r0
 5230 00ac 2300     		movs	r3, r4
 5231 00ae 5046     		mov	r0, r10
 5232 00b0 2A00     		movs	r2, r5
 5233 00b2 FFF7FEFF 		bl	Paint_DrawPoint.constprop.1
 5234              	.LVL473:
 546:User/e-Paper/GUI_Paint.c ****             Paint_DrawPoint(X_Center + XCurrent, Y_Center - YCurrent, Color, Line_width, DOT_STYLE_
 5235              		.loc 1 546 13 view .LVU1513
 5236 00b6 049A     		ldr	r2, [sp, #16]
 5237 00b8 5846     		mov	r0, fp
 5238 00ba 931B     		subs	r3, r2, r6
 5239 00bc 9AB2     		uxth	r2, r3
 5240 00be 9246     		mov	r10, r2
 5241 00c0 2300     		movs	r3, r4
 5242 00c2 2A00     		movs	r2, r5
 5243 00c4 5146     		mov	r1, r10
 5244 00c6 FFF7FEFF 		bl	Paint_DrawPoint.constprop.1
 5245              	.LVL474:
 547:User/e-Paper/GUI_Paint.c ****             Paint_DrawPoint(X_Center + YCurrent, Y_Center - XCurrent, Color, Line_width, DOT_STYLE_
ARM GAS  C:\Users\upo\AppData\Local\Temp\ccEC4369.s 			page 129


 5246              		.loc 1 547 13 view .LVU1514
 5247 00ca 4846     		mov	r0, r9
 5248 00cc 2300     		movs	r3, r4
 5249 00ce 2A00     		movs	r2, r5
 5250 00d0 5146     		mov	r1, r10
 5251 00d2 FFF7FEFF 		bl	Paint_DrawPoint.constprop.1
 5252              	.LVL475:
 548:User/e-Paper/GUI_Paint.c ****             Paint_DrawPoint(X_Center + YCurrent, Y_Center + XCurrent, Color, Line_width, DOT_STYLE_
 5253              		.loc 1 548 13 view .LVU1515
 5254 00d6 039B     		ldr	r3, [sp, #12]
 5255 00d8 2A00     		movs	r2, r5
 5256 00da F318     		adds	r3, r6, r3
 5257 00dc 9BB2     		uxth	r3, r3
 5258 00de 9946     		mov	r9, r3
 5259 00e0 4146     		mov	r1, r8
 5260 00e2 2300     		movs	r3, r4
 5261 00e4 4846     		mov	r0, r9
 5262 00e6 FFF7FEFF 		bl	Paint_DrawPoint.constprop.1
 5263              	.LVL476:
 549:User/e-Paper/GUI_Paint.c **** 
 5264              		.loc 1 549 13 view .LVU1516
 5265 00ea 2300     		movs	r3, r4
 5266 00ec 2A00     		movs	r2, r5
 5267 00ee 4846     		mov	r0, r9
 5268 00f0 0299     		ldr	r1, [sp, #8]
 5269 00f2 FFF7FEFF 		bl	Paint_DrawPoint.constprop.1
 5270              	.LVL477:
 551:User/e-Paper/GUI_Paint.c ****                 Esp += 4 * XCurrent + 6;
 5271              		.loc 1 551 13 view .LVU1517
 552:User/e-Paper/GUI_Paint.c ****             else
 5272              		.loc 1 552 21 is_stmt 0 view .LVU1518
 5273 00f6 0A9A     		ldr	r2, [sp, #40]
 5274 00f8 93B2     		uxth	r3, r2
 551:User/e-Paper/GUI_Paint.c ****                 Esp += 4 * XCurrent + 6;
 5275              		.loc 1 551 16 view .LVU1519
 5276 00fa 002A     		cmp	r2, #0
 5277 00fc 11DB     		blt	.L425
 555:User/e-Paper/GUI_Paint.c ****                 YCurrent--;
 5278              		.loc 1 555 17 is_stmt 1 view .LVU1520
 555:User/e-Paper/GUI_Paint.c ****                 YCurrent--;
 5279              		.loc 1 555 43 is_stmt 0 view .LVU1521
 5280 00fe 019A     		ldr	r2, [sp, #4]
 5281 0100 0699     		ldr	r1, [sp, #24]
 555:User/e-Paper/GUI_Paint.c ****                 YCurrent--;
 5282              		.loc 1 555 21 view .LVU1522
 5283 0102 0A33     		adds	r3, r3, #10
 555:User/e-Paper/GUI_Paint.c ****                 YCurrent--;
 5284              		.loc 1 555 43 view .LVU1523
 5285 0104 521A     		subs	r2, r2, r1
 555:User/e-Paper/GUI_Paint.c ****                 YCurrent--;
 5286              		.loc 1 555 21 view .LVU1524
 5287 0106 9200     		lsls	r2, r2, #2
 5288 0108 D318     		adds	r3, r2, r3
 5289 010a 1BB2     		sxth	r3, r3
 556:User/e-Paper/GUI_Paint.c ****             }
 5290              		.loc 1 556 25 view .LVU1525
 5291 010c 013E     		subs	r6, r6, #1
ARM GAS  C:\Users\upo\AppData\Local\Temp\ccEC4369.s 			page 130


 558:User/e-Paper/GUI_Paint.c ****         }
 5292              		.loc 1 558 21 view .LVU1526
 5293 010e 0137     		adds	r7, r7, #1
 555:User/e-Paper/GUI_Paint.c ****                 YCurrent--;
 5294              		.loc 1 555 21 view .LVU1527
 5295 0110 0A93     		str	r3, [sp, #40]
 5296              	.LVL478:
 556:User/e-Paper/GUI_Paint.c ****             }
 5297              		.loc 1 556 17 is_stmt 1 view .LVU1528
 558:User/e-Paper/GUI_Paint.c ****         }
 5298              		.loc 1 558 21 is_stmt 0 view .LVU1529
 5299 0112 3AB2     		sxth	r2, r7
 556:User/e-Paper/GUI_Paint.c ****             }
 5300              		.loc 1 556 25 view .LVU1530
 5301 0114 33B2     		sxth	r3, r6
 5302 0116 0693     		str	r3, [sp, #24]
 5303              	.LVL479:
 558:User/e-Paper/GUI_Paint.c ****         }
 5304              		.loc 1 558 13 is_stmt 1 view .LVU1531
 558:User/e-Paper/GUI_Paint.c ****         }
 5305              		.loc 1 558 21 is_stmt 0 view .LVU1532
 5306 0118 0192     		str	r2, [sp, #4]
 5307              	.LVL480:
 540:User/e-Paper/GUI_Paint.c ****         {
 5308              		.loc 1 540 25 is_stmt 1 view .LVU1533
 5309 011a 9342     		cmp	r3, r2
 5310 011c 0CDB     		blt	.L368
 5311 011e 9EB2     		uxth	r6, r3
 5312 0120 99E7     		b	.L372
 5313              	.LVL481:
 5314              	.L425:
 552:User/e-Paper/GUI_Paint.c ****             else
 5315              		.loc 1 552 17 view .LVU1534
 552:User/e-Paper/GUI_Paint.c ****             else
 5316              		.loc 1 552 21 is_stmt 0 view .LVU1535
 5317 0122 BA00     		lsls	r2, r7, #2
 5318 0124 0633     		adds	r3, r3, #6
 5319 0126 9B18     		adds	r3, r3, r2
 5320 0128 1BB2     		sxth	r3, r3
 558:User/e-Paper/GUI_Paint.c ****         }
 5321              		.loc 1 558 21 view .LVU1536
 5322 012a 0137     		adds	r7, r7, #1
 540:User/e-Paper/GUI_Paint.c ****         {
 5323              		.loc 1 540 25 view .LVU1537
 5324 012c 069A     		ldr	r2, [sp, #24]
 552:User/e-Paper/GUI_Paint.c ****             else
 5325              		.loc 1 552 21 view .LVU1538
 5326 012e 0A93     		str	r3, [sp, #40]
 5327              	.LVL482:
 558:User/e-Paper/GUI_Paint.c ****         }
 5328              		.loc 1 558 13 is_stmt 1 view .LVU1539
 558:User/e-Paper/GUI_Paint.c ****         }
 5329              		.loc 1 558 21 is_stmt 0 view .LVU1540
 5330 0130 3BB2     		sxth	r3, r7
 5331 0132 0193     		str	r3, [sp, #4]
 5332              	.LVL483:
 540:User/e-Paper/GUI_Paint.c ****         {
ARM GAS  C:\Users\upo\AppData\Local\Temp\ccEC4369.s 			page 131


 5333              		.loc 1 540 25 is_stmt 1 view .LVU1541
 5334 0134 9342     		cmp	r3, r2
 5335 0136 8EDD     		ble	.L372
 5336              	.LVL484:
 5337              	.L368:
 561:User/e-Paper/GUI_Paint.c **** 
 5338              		.loc 1 561 1 is_stmt 0 view .LVU1542
 5339 0138 0FB0     		add	sp, sp, #60
 5340              		@ sp needed
 5341 013a F0BC     		pop	{r4, r5, r6, r7}
 5342 013c BB46     		mov	fp, r7
 5343 013e B246     		mov	r10, r6
 5344 0140 A946     		mov	r9, r5
 5345 0142 A046     		mov	r8, r4
 5346 0144 F0BD     		pop	{r4, r5, r6, r7, pc}
 5347              	.LVL485:
 5348              	.L371:
 515:User/e-Paper/GUI_Paint.c ****         { // Realistic circles
 5349              		.loc 1 515 25 is_stmt 1 view .LVU1543
 5350 0146 0028     		cmp	r0, #0
 5351 0148 F6DB     		blt	.L368
 5352 014a 039A     		ldr	r2, [sp, #12]
 5353 014c C146     		mov	r9, r8
 5354 014e 531E     		subs	r3, r2, #1
 5355 0150 9246     		mov	r10, r2
 5356 0152 0892     		str	r2, [sp, #32]
 506:User/e-Paper/GUI_Paint.c ****     YCurrent = Radius;
 5357              		.loc 1 506 14 is_stmt 0 view .LVU1544
 5358 0154 0022     		movs	r2, #0
 5359 0156 9BB2     		uxth	r3, r3
 5360 0158 0993     		str	r3, [sp, #36]
 515:User/e-Paper/GUI_Paint.c ****         { // Realistic circles
 5361              		.loc 1 515 25 view .LVU1545
 5362 015a 049B     		ldr	r3, [sp, #16]
 5363 015c 0193     		str	r3, [sp, #4]
 5364 015e 0293     		str	r3, [sp, #8]
 5365              	.LBB367:
 5366              	.LBB368:
 5367              	.LBB369:
 5368              	.LBB370:
 365:User/e-Paper/GUI_Paint.c ****             }
 5369              		.loc 1 365 17 view .LVU1546
 5370 0160 013B     		subs	r3, r3, #1
 5371 0162 0793     		str	r3, [sp, #28]
 5372              	.LBE370:
 5373              	.LBE369:
 5374              	.LBE368:
 5375              	.LBE367:
 5376              	.LBB380:
 5377              	.LBB381:
 350:User/e-Paper/GUI_Paint.c ****         printf("Ypoint = %d , Paint.Height = %d  \r\n ", Ypoint, Paint.Height);
 5378              		.loc 1 350 9 view .LVU1547
 5379 0164 784B     		ldr	r3, .L431+4
 5380 0166 0C93     		str	r3, [sp, #48]
 5381 0168 1300     		movs	r3, r2
 5382              	.LVL486:
 5383              	.L373:
ARM GAS  C:\Users\upo\AppData\Local\Temp\ccEC4369.s 			page 132


 350:User/e-Paper/GUI_Paint.c ****         printf("Ypoint = %d , Paint.Height = %d  \r\n ", Ypoint, Paint.Height);
 5384              		.loc 1 350 9 view .LVU1548
 5385              	.LBE381:
 5386              	.LBE380:
 517:User/e-Paper/GUI_Paint.c ****             {
 5387              		.loc 1 517 46 is_stmt 1 view .LVU1549
 5388 016a 069A     		ldr	r2, [sp, #24]
 5389 016c 5546     		mov	r5, r10
 5390 016e 1C00     		movs	r4, r3
 5391 0170 9342     		cmp	r3, r2
 5392 0172 00DD     		ble	.LCB5488
 5393 0174 BCE0     		b	.L392	@long jump
 5394              	.LCB5488:
 5395              	.LBB392:
 5396              	.LBB393:
 5397              	.LBB394:
 5398              	.LBB395:
 365:User/e-Paper/GUI_Paint.c ****             }
 5399              		.loc 1 365 17 is_stmt 0 view .LVU1550
 5400 0176 079A     		ldr	r2, [sp, #28]
 5401 0178 4E46     		mov	r6, r9
 5402 017a D218     		adds	r2, r2, r3
 5403 017c 92B2     		uxth	r2, r2
 5404 017e D946     		mov	r9, fp
 5405 0180 0D92     		str	r2, [sp, #52]
 5406 0182 D346     		mov	fp, r10
 5407 0184 0B93     		str	r3, [sp, #44]
 5408 0186 30E0     		b	.L389
 5409              	.LVL487:
 5410              	.L429:
 365:User/e-Paper/GUI_Paint.c ****             }
 5411              		.loc 1 365 17 view .LVU1551
 5412              	.LBE395:
 5413              	.LBE394:
 5414              	.LBE393:
 5415              	.LBE392:
 5416              	.LBB412:
 5417              	.LBB386:
 5418              	.LBB382:
 5419              	.LBB383:
 358:User/e-Paper/GUI_Paint.c ****         {
 5420              		.loc 1 358 37 is_stmt 1 view .LVU1552
 360:User/e-Paper/GUI_Paint.c ****             {
 5421              		.loc 1 360 41 view .LVU1553
 362:User/e-Paper/GUI_Paint.c ****                     break;
 5422              		.loc 1 362 17 view .LVU1554
 362:User/e-Paper/GUI_Paint.c ****                     break;
 5423              		.loc 1 362 20 is_stmt 0 view .LVU1555
 5424 0188 002D     		cmp	r5, #0
 5425 018a 00D1     		bne	.LCB5526
 5426 018c 50E1     		b	.L426	@long jump
 5427              	.LCB5526:
 362:User/e-Paper/GUI_Paint.c ****                     break;
 5428              		.loc 1 362 55 view .LVU1556
 5429 018e 0029     		cmp	r1, #0
 5430 0190 12D0     		beq	.L423
 365:User/e-Paper/GUI_Paint.c ****             }
ARM GAS  C:\Users\upo\AppData\Local\Temp\ccEC4369.s 			page 133


 5431              		.loc 1 365 17 is_stmt 1 view .LVU1557
 5432 0192 6946     		mov	r1, sp
 5433 0194 8F8D     		ldrh	r7, [r1, #44]
 5434 0196 898B     		ldrh	r1, [r1, #28]
 5435 0198 681E     		subs	r0, r5, #1
 5436 019a 8C46     		mov	ip, r1
 5437 019c C91B     		subs	r1, r1, r7
 5438 019e 89B2     		uxth	r1, r1
 5439 01a0 80B2     		uxth	r0, r0
 5440              	.LVL488:
 5441              	.LBB384:
 5442              	.LBI384:
 200:User/e-Paper/GUI_Paint.c **** {
 5443              		.loc 1 200 6 view .LVU1558
 5444              	.LBB385:
 202:User/e-Paper/GUI_Paint.c ****     {
 5445              		.loc 1 202 5 view .LVU1559
 202:User/e-Paper/GUI_Paint.c ****     {
 5446              		.loc 1 202 30 is_stmt 0 view .LVU1560
 5447 01a2 8B42     		cmp	r3, r1
 5448 01a4 00D2     		bcs	.LCB5546
 5449 01a6 18E1     		b	.L427	@long jump
 5450              	.LCB5546:
 202:User/e-Paper/GUI_Paint.c ****     {
 5451              		.loc 1 202 30 view .LVU1561
 5452 01a8 4A46     		mov	r2, r9
 5453 01aa FFF7FEFF 		bl	Paint_SetPixel.part.0
 5454              	.LVL489:
 202:User/e-Paper/GUI_Paint.c ****     {
 5455              		.loc 1 202 30 view .LVU1562
 5456              	.LBE385:
 5457              	.LBE384:
 5458              	.LBE383:
 5459              	.LBE382:
 5460              	.LBE386:
 5461              	.LBE412:
 526:User/e-Paper/GUI_Paint.c ****             }
 5462              		.loc 1 526 17 is_stmt 1 view .LVU1563
 5463              	.LBB413:
 5464              	.LBI392:
 344:User/e-Paper/GUI_Paint.c ****                      DOT_PIXEL Dot_Pixel, DOT_STYLE Dot_Style)
 5465              		.loc 1 344 6 view .LVU1564
 5466              	.LBB406:
 347:User/e-Paper/GUI_Paint.c ****     {
 5467              		.loc 1 347 5 view .LVU1565
 347:User/e-Paper/GUI_Paint.c ****     {
 5468              		.loc 1 347 23 is_stmt 0 view .LVU1566
 5469 01ae B288     		ldrh	r2, [r6, #4]
 347:User/e-Paper/GUI_Paint.c ****     {
 5470              		.loc 1 347 8 view .LVU1567
 5471 01b0 9542     		cmp	r5, r2
 5472 01b2 00D9     		bls	.LCB5580
 5473 01b4 02E1     		b	.L421	@long jump
 5474              	.LCB5580:
 347:User/e-Paper/GUI_Paint.c ****     {
 5475              		.loc 1 347 47 view .LVU1568
 5476 01b6 F388     		ldrh	r3, [r6, #6]
ARM GAS  C:\Users\upo\AppData\Local\Temp\ccEC4369.s 			page 134


 5477              	.LVL490:
 5478              	.L423:
 347:User/e-Paper/GUI_Paint.c ****     {
 5479              		.loc 1 347 30 view .LVU1569
 5480 01b8 0299     		ldr	r1, [sp, #8]
 5481 01ba 9942     		cmp	r1, r3
 5482 01bc 00D9     		bls	.LCB5592
 5483 01be FDE0     		b	.L421	@long jump
 5484              	.LCB5592:
 5485              	.L384:
 5486              	.LBB403:
 5487              	.LBB400:
 362:User/e-Paper/GUI_Paint.c ****                     break;
 5488              		.loc 1 362 55 view .LVU1570
 5489 01c0 0299     		ldr	r1, [sp, #8]
 5490 01c2 0029     		cmp	r1, #0
 5491 01c4 09D0     		beq	.L382
 365:User/e-Paper/GUI_Paint.c ****             }
 5492              		.loc 1 365 17 is_stmt 1 view .LVU1571
 5493 01c6 681E     		subs	r0, r5, #1
 5494 01c8 80B2     		uxth	r0, r0
 5495 01ca 0D99     		ldr	r1, [sp, #52]
 5496              	.LVL491:
 5497              	.LBB396:
 5498              	.LBI396:
 200:User/e-Paper/GUI_Paint.c **** {
 5499              		.loc 1 200 6 view .LVU1572
 5500              	.LBB397:
 202:User/e-Paper/GUI_Paint.c ****     {
 5501              		.loc 1 202 5 view .LVU1573
 202:User/e-Paper/GUI_Paint.c ****     {
 5502              		.loc 1 202 8 is_stmt 0 view .LVU1574
 5503 01cc 8242     		cmp	r2, r0
 5504 01ce 04D3     		bcc	.L382
 5505              	.LVL492:
 5506              	.L395:
 202:User/e-Paper/GUI_Paint.c ****     {
 5507              		.loc 1 202 30 view .LVU1575
 5508 01d0 8B42     		cmp	r3, r1
 5509 01d2 02D3     		bcc	.L382
 202:User/e-Paper/GUI_Paint.c ****     {
 5510              		.loc 1 202 30 view .LVU1576
 5511 01d4 4A46     		mov	r2, r9
 5512 01d6 FFF7FEFF 		bl	Paint_SetPixel.part.0
 5513              	.LVL493:
 5514              	.L382:
 202:User/e-Paper/GUI_Paint.c ****     {
 5515              		.loc 1 202 30 view .LVU1577
 5516              	.LBE397:
 5517              	.LBE396:
 5518              	.LBE400:
 5519              	.LBE403:
 5520              	.LBE406:
 5521              	.LBE413:
 517:User/e-Paper/GUI_Paint.c ****             {
 5522              		.loc 1 517 66 is_stmt 1 view .LVU1578
 5523 01da 0134     		adds	r4, r4, #1
ARM GAS  C:\Users\upo\AppData\Local\Temp\ccEC4369.s 			page 135


 5524              	.LVL494:
 517:User/e-Paper/GUI_Paint.c ****             {
 5525              		.loc 1 517 46 is_stmt 0 view .LVU1579
 5526 01dc 069B     		ldr	r3, [sp, #24]
 5527 01de 0135     		adds	r5, r5, #1
 517:User/e-Paper/GUI_Paint.c ****             {
 5528              		.loc 1 517 66 view .LVU1580
 5529 01e0 24B2     		sxth	r4, r4
 5530              	.LVL495:
 517:User/e-Paper/GUI_Paint.c ****             {
 5531              		.loc 1 517 46 is_stmt 1 view .LVU1581
 5532 01e2 ADB2     		uxth	r5, r5
 5533 01e4 9C42     		cmp	r4, r3
 5534 01e6 00DD     		ble	.LCB5649
 5535 01e8 7EE0     		b	.L428	@long jump
 5536              	.LCB5649:
 5537              	.LVL496:
 5538              	.L389:
 519:User/e-Paper/GUI_Paint.c ****                 Paint_DrawPoint(X_Center - XCurrent, Y_Center + sCountY, Color, DOT_PIXEL_DFT, DOT_
 5539              		.loc 1 519 17 discriminator 3 view .LVU1582
 5540 01ea 049B     		ldr	r3, [sp, #16]
 5541 01ec A4B2     		uxth	r4, r4
 519:User/e-Paper/GUI_Paint.c ****                 Paint_DrawPoint(X_Center - XCurrent, Y_Center + sCountY, Color, DOT_PIXEL_DFT, DOT_
 5542              		.loc 1 519 17 is_stmt 0 discriminator 3 view .LVU1583
 5543 01ee E318     		adds	r3, r4, r3
 5544 01f0 9BB2     		uxth	r3, r3
 523:User/e-Paper/GUI_Paint.c ****                 Paint_DrawPoint(X_Center + XCurrent, Y_Center - sCountY, Color, DOT_PIXEL_DFT, DOT_
 5545              		.loc 1 523 17 discriminator 3 view .LVU1584
 5546 01f2 6700     		lsls	r7, r4, #1
 5547 01f4 DF1B     		subs	r7, r3, r7
 519:User/e-Paper/GUI_Paint.c ****                 Paint_DrawPoint(X_Center - XCurrent, Y_Center + sCountY, Color, DOT_PIXEL_DFT, DOT_
 5548              		.loc 1 519 17 discriminator 3 view .LVU1585
 5549 01f6 9846     		mov	r8, r3
 5550              	.LVL497:
 5551              	.LBB414:
 5552              	.LBI414:
 344:User/e-Paper/GUI_Paint.c ****                      DOT_PIXEL Dot_Pixel, DOT_STYLE Dot_Style)
 5553              		.loc 1 344 6 is_stmt 1 discriminator 3 view .LVU1586
 5554              	.LBB415:
 347:User/e-Paper/GUI_Paint.c ****     {
 5555              		.loc 1 347 5 discriminator 3 view .LVU1587
 5556              	.LBE415:
 5557              	.LBE414:
 521:User/e-Paper/GUI_Paint.c ****                 Paint_DrawPoint(X_Center - sCountY, Y_Center - XCurrent, Color, DOT_PIXEL_DFT, DOT_
 5558              		.loc 1 521 17 is_stmt 0 discriminator 3 view .LVU1588
 5559 01f8 039B     		ldr	r3, [sp, #12]
 5560              	.LVL498:
 5561              	.LBB425:
 5562              	.LBB422:
 347:User/e-Paper/GUI_Paint.c ****     {
 5563              		.loc 1 347 23 discriminator 3 view .LVU1589
 5564 01fa B288     		ldrh	r2, [r6, #4]
 5565              	.LBE422:
 5566              	.LBE425:
 521:User/e-Paper/GUI_Paint.c ****                 Paint_DrawPoint(X_Center - sCountY, Y_Center - XCurrent, Color, DOT_PIXEL_DFT, DOT_
 5567              		.loc 1 521 17 discriminator 3 view .LVU1590
 5568 01fc 1B1B     		subs	r3, r3, r4
ARM GAS  C:\Users\upo\AppData\Local\Temp\ccEC4369.s 			page 136


 5569 01fe 9BB2     		uxth	r3, r3
 523:User/e-Paper/GUI_Paint.c ****                 Paint_DrawPoint(X_Center + XCurrent, Y_Center - sCountY, Color, DOT_PIXEL_DFT, DOT_
 5570              		.loc 1 523 17 discriminator 3 view .LVU1591
 5571 0200 BFB2     		uxth	r7, r7
 521:User/e-Paper/GUI_Paint.c ****                 Paint_DrawPoint(X_Center - sCountY, Y_Center - XCurrent, Color, DOT_PIXEL_DFT, DOT_
 5572              		.loc 1 521 17 discriminator 3 view .LVU1592
 5573 0202 0593     		str	r3, [sp, #20]
 5574              	.LBB426:
 5575              	.LBB423:
 347:User/e-Paper/GUI_Paint.c ****     {
 5576              		.loc 1 347 8 discriminator 3 view .LVU1593
 5577 0204 5A45     		cmp	r2, fp
 5578 0206 00D2     		bcs	.LCB5687
 5579 0208 CCE0     		b	.L374	@long jump
 5580              	.LCB5687:
 347:User/e-Paper/GUI_Paint.c ****     {
 5581              		.loc 1 347 47 view .LVU1594
 5582 020a F388     		ldrh	r3, [r6, #6]
 347:User/e-Paper/GUI_Paint.c ****     {
 5583              		.loc 1 347 30 view .LVU1595
 5584 020c 9845     		cmp	r8, r3
 5585 020e 00D9     		bls	.LCB5690
 5586 0210 C8E0     		b	.L374	@long jump
 5587              	.LCB5690:
 5588              	.LVL499:
 5589              	.LBB416:
 5590              	.LBB417:
 358:User/e-Paper/GUI_Paint.c ****         {
 5591              		.loc 1 358 37 is_stmt 1 view .LVU1596
 360:User/e-Paper/GUI_Paint.c ****             {
 5592              		.loc 1 360 41 view .LVU1597
 362:User/e-Paper/GUI_Paint.c ****                     break;
 5593              		.loc 1 362 17 view .LVU1598
 362:User/e-Paper/GUI_Paint.c ****                     break;
 5594              		.loc 1 362 20 is_stmt 0 view .LVU1599
 5595 0212 5946     		mov	r1, fp
 5596 0214 0029     		cmp	r1, #0
 5597 0216 00D1     		bne	.LCB5700
 5598 0218 9AE0     		b	.L375	@long jump
 5599              	.LCB5700:
 362:User/e-Paper/GUI_Paint.c ****                     break;
 5600              		.loc 1 362 55 view .LVU1600
 5601 021a 4146     		mov	r1, r8
 5602 021c 0029     		cmp	r1, #0
 5603 021e 0AD0     		beq	.L376
 365:User/e-Paper/GUI_Paint.c ****             }
 5604              		.loc 1 365 17 is_stmt 1 view .LVU1601
 5605              	.LVL500:
 5606              	.LBB418:
 5607              	.LBI418:
 200:User/e-Paper/GUI_Paint.c **** {
 5608              		.loc 1 200 6 view .LVU1602
 5609              	.LBB419:
 202:User/e-Paper/GUI_Paint.c ****     {
 5610              		.loc 1 202 5 view .LVU1603
 202:User/e-Paper/GUI_Paint.c ****     {
 5611              		.loc 1 202 8 is_stmt 0 view .LVU1604
ARM GAS  C:\Users\upo\AppData\Local\Temp\ccEC4369.s 			page 137


 5612 0220 0998     		ldr	r0, [sp, #36]
 5613 0222 8242     		cmp	r2, r0
 5614 0224 07D3     		bcc	.L376
 5615              	.LBE419:
 5616              	.LBE418:
 365:User/e-Paper/GUI_Paint.c ****             }
 5617              		.loc 1 365 17 view .LVU1605
 5618 0226 079A     		ldr	r2, [sp, #28]
 5619 0228 A118     		adds	r1, r4, r2
 5620 022a 89B2     		uxth	r1, r1
 5621              	.LBB421:
 5622              	.LBB420:
 202:User/e-Paper/GUI_Paint.c ****     {
 5623              		.loc 1 202 30 view .LVU1606
 5624 022c 8B42     		cmp	r3, r1
 5625 022e 02D3     		bcc	.L376
 5626 0230 4A46     		mov	r2, r9
 5627 0232 FFF7FEFF 		bl	Paint_SetPixel.part.0
 5628              	.LVL501:
 5629              	.L376:
 202:User/e-Paper/GUI_Paint.c ****     {
 5630              		.loc 1 202 30 view .LVU1607
 5631              	.LBE420:
 5632              	.LBE421:
 5633              	.LBE417:
 5634              	.LBE416:
 5635              	.LBE423:
 5636              	.LBE426:
 520:User/e-Paper/GUI_Paint.c ****                 Paint_DrawPoint(X_Center - sCountY, Y_Center + XCurrent, Color, DOT_PIXEL_DFT, DOT_
 5637              		.loc 1 520 17 is_stmt 1 view .LVU1608
 5638 0236 089B     		ldr	r3, [sp, #32]
 5639 0238 4146     		mov	r1, r8
 5640 023a 1800     		movs	r0, r3
 5641 023c 4A46     		mov	r2, r9
 5642 023e 9A46     		mov	r10, r3
 5643 0240 FFF7FEFF 		bl	Paint_DrawPoint.constprop.0
 5644              	.LVL502:
 521:User/e-Paper/GUI_Paint.c ****                 Paint_DrawPoint(X_Center - sCountY, Y_Center - XCurrent, Color, DOT_PIXEL_DFT, DOT_
 5645              		.loc 1 521 17 view .LVU1609
 5646 0244 059B     		ldr	r3, [sp, #20]
 5647 0246 4A46     		mov	r2, r9
 5648 0248 9846     		mov	r8, r3
 5649 024a 1800     		movs	r0, r3
 5650 024c 0299     		ldr	r1, [sp, #8]
 5651 024e FFF7FEFF 		bl	Paint_DrawPoint.constprop.0
 5652              	.LVL503:
 522:User/e-Paper/GUI_Paint.c ****                 Paint_DrawPoint(X_Center - XCurrent, Y_Center - sCountY, Color, DOT_PIXEL_DFT, DOT_
 5653              		.loc 1 522 17 view .LVU1610
 5654 0252 4A46     		mov	r2, r9
 5655 0254 4046     		mov	r0, r8
 5656 0256 0199     		ldr	r1, [sp, #4]
 5657 0258 FFF7FEFF 		bl	Paint_DrawPoint.constprop.0
 5658              	.LVL504:
 523:User/e-Paper/GUI_Paint.c ****                 Paint_DrawPoint(X_Center + XCurrent, Y_Center - sCountY, Color, DOT_PIXEL_DFT, DOT_
 5659              		.loc 1 523 17 view .LVU1611
 5660 025c 4A46     		mov	r2, r9
 5661 025e 3900     		movs	r1, r7
ARM GAS  C:\Users\upo\AppData\Local\Temp\ccEC4369.s 			page 138


 5662 0260 5046     		mov	r0, r10
 5663 0262 FFF7FEFF 		bl	Paint_DrawPoint.constprop.0
 5664              	.LVL505:
 524:User/e-Paper/GUI_Paint.c ****                 Paint_DrawPoint(X_Center + sCountY, Y_Center - XCurrent, Color, DOT_PIXEL_DFT, DOT_
 5665              		.loc 1 524 17 view .LVU1612
 5666              	.LBB427:
 5667              	.LBI367:
 344:User/e-Paper/GUI_Paint.c ****                      DOT_PIXEL Dot_Pixel, DOT_STYLE Dot_Style)
 5668              		.loc 1 344 6 view .LVU1613
 5669              	.LBB377:
 347:User/e-Paper/GUI_Paint.c ****     {
 5670              		.loc 1 347 5 view .LVU1614
 347:User/e-Paper/GUI_Paint.c ****     {
 5671              		.loc 1 347 23 is_stmt 0 view .LVU1615
 5672 0266 B288     		ldrh	r2, [r6, #4]
 347:User/e-Paper/GUI_Paint.c ****     {
 5673              		.loc 1 347 8 view .LVU1616
 5674 0268 5A45     		cmp	r2, fp
 5675 026a 00D2     		bcs	.LCB5780
 5676 026c 8DE0     		b	.L377	@long jump
 5677              	.LCB5780:
 5678              	.LVL506:
 347:User/e-Paper/GUI_Paint.c ****     {
 5679              		.loc 1 347 47 view .LVU1617
 5680 026e F388     		ldrh	r3, [r6, #6]
 347:User/e-Paper/GUI_Paint.c ****     {
 5681              		.loc 1 347 30 view .LVU1618
 5682 0270 BB42     		cmp	r3, r7
 5683 0272 00D2     		bcs	.LCB5788
 5684 0274 89E0     		b	.L377	@long jump
 5685              	.LCB5788:
 5686              	.LVL507:
 5687              	.LBB376:
 5688              	.LBB375:
 358:User/e-Paper/GUI_Paint.c ****         {
 5689              		.loc 1 358 37 is_stmt 1 view .LVU1619
 360:User/e-Paper/GUI_Paint.c ****             {
 5690              		.loc 1 360 41 view .LVU1620
 362:User/e-Paper/GUI_Paint.c ****                     break;
 5691              		.loc 1 362 17 view .LVU1621
 362:User/e-Paper/GUI_Paint.c ****                     break;
 5692              		.loc 1 362 20 is_stmt 0 view .LVU1622
 5693 0276 5946     		mov	r1, fp
 5694 0278 0029     		cmp	r1, #0
 5695 027a 0DD0     		beq	.L378
 362:User/e-Paper/GUI_Paint.c ****                     break;
 5696              		.loc 1 362 55 view .LVU1623
 5697 027c 002F     		cmp	r7, #0
 5698 027e 0BD0     		beq	.L378
 365:User/e-Paper/GUI_Paint.c ****             }
 5699              		.loc 1 365 17 is_stmt 1 view .LVU1624
 5700              	.LVL508:
 5701              	.LBB371:
 5702              	.LBI371:
 200:User/e-Paper/GUI_Paint.c **** {
 5703              		.loc 1 200 6 view .LVU1625
 5704              	.LBB372:
ARM GAS  C:\Users\upo\AppData\Local\Temp\ccEC4369.s 			page 139


 202:User/e-Paper/GUI_Paint.c ****     {
 5705              		.loc 1 202 5 view .LVU1626
 202:User/e-Paper/GUI_Paint.c ****     {
 5706              		.loc 1 202 8 is_stmt 0 view .LVU1627
 5707 0280 0998     		ldr	r0, [sp, #36]
 5708 0282 8242     		cmp	r2, r0
 5709 0284 08D3     		bcc	.L378
 5710              	.LBE372:
 5711              	.LBE371:
 365:User/e-Paper/GUI_Paint.c ****             }
 5712              		.loc 1 365 17 view .LVU1628
 5713 0286 0799     		ldr	r1, [sp, #28]
 5714 0288 091B     		subs	r1, r1, r4
 5715 028a 89B2     		uxth	r1, r1
 5716              	.LBB374:
 5717              	.LBB373:
 202:User/e-Paper/GUI_Paint.c ****     {
 5718              		.loc 1 202 30 view .LVU1629
 5719 028c 8B42     		cmp	r3, r1
 5720 028e 03D3     		bcc	.L378
 5721 0290 4A46     		mov	r2, r9
 5722 0292 FFF7FEFF 		bl	Paint_SetPixel.part.0
 5723              	.LVL509:
 5724              	.LBE373:
 5725              	.LBE374:
 5726              	.LBE375:
 5727              	.LBE376:
 5728              	.LBE377:
 5729              	.LBE427:
 5730              	.LBB428:
 5731              	.LBB387:
 347:User/e-Paper/GUI_Paint.c ****     {
 5732              		.loc 1 347 23 view .LVU1630
 5733 0296 B288     		ldrh	r2, [r6, #4]
 5734              	.LVL510:
 5735              	.L378:
 347:User/e-Paper/GUI_Paint.c ****     {
 5736              		.loc 1 347 23 view .LVU1631
 5737              	.LBE387:
 5738              	.LBE428:
 525:User/e-Paper/GUI_Paint.c ****                 Paint_DrawPoint(X_Center + sCountY, Y_Center + XCurrent, Color, DOT_PIXEL_DFT, DOT_
 5739              		.loc 1 525 17 is_stmt 1 view .LVU1632
 5740              	.LBB429:
 5741              	.LBI380:
 344:User/e-Paper/GUI_Paint.c ****                      DOT_PIXEL Dot_Pixel, DOT_STYLE Dot_Style)
 5742              		.loc 1 344 6 view .LVU1633
 5743              	.LBB388:
 347:User/e-Paper/GUI_Paint.c ****     {
 5744              		.loc 1 347 5 view .LVU1634
 347:User/e-Paper/GUI_Paint.c ****     {
 5745              		.loc 1 347 8 is_stmt 0 view .LVU1635
 5746 0298 9542     		cmp	r5, r2
 5747 029a 04D8     		bhi	.L379
 347:User/e-Paper/GUI_Paint.c ****     {
 5748              		.loc 1 347 47 view .LVU1636
 5749 029c F388     		ldrh	r3, [r6, #6]
 347:User/e-Paper/GUI_Paint.c ****     {
ARM GAS  C:\Users\upo\AppData\Local\Temp\ccEC4369.s 			page 140


 5750              		.loc 1 347 30 view .LVU1637
 5751 029e 0199     		ldr	r1, [sp, #4]
 5752 02a0 8B42     		cmp	r3, r1
 5753 02a2 00D3     		bcc	.LCB5863
 5754 02a4 70E7     		b	.L429	@long jump
 5755              	.LCB5863:
 5756              	.L379:
 349:User/e-Paper/GUI_Paint.c ****         printf("Xpoint = %d , Paint.Width = %d  \r\n ", Xpoint, Paint.Width);
 5757              		.loc 1 349 77 is_stmt 1 view .LVU1638
 350:User/e-Paper/GUI_Paint.c ****         printf("Ypoint = %d , Paint.Height = %d  \r\n ", Ypoint, Paint.Height);
 5758              		.loc 1 350 9 view .LVU1639
 5759 02a6 0C98     		ldr	r0, [sp, #48]
 5760 02a8 2900     		movs	r1, r5
 5761 02aa 8046     		mov	r8, r0
 5762 02ac FFF7FEFF 		bl	printf_
 5763              	.LVL511:
 351:User/e-Paper/GUI_Paint.c ****         return;
 5764              		.loc 1 351 9 view .LVU1640
 5765 02b0 264B     		ldr	r3, .L431+8
 5766 02b2 F288     		ldrh	r2, [r6, #6]
 5767 02b4 1800     		movs	r0, r3
 5768 02b6 0199     		ldr	r1, [sp, #4]
 5769 02b8 9A46     		mov	r10, r3
 5770 02ba FFF7FEFF 		bl	printf_
 5771              	.LVL512:
 352:User/e-Paper/GUI_Paint.c ****     }
 5772              		.loc 1 352 9 view .LVU1641
 352:User/e-Paper/GUI_Paint.c ****     }
 5773              		.loc 1 352 9 is_stmt 0 view .LVU1642
 5774              	.LBE388:
 5775              	.LBE429:
 526:User/e-Paper/GUI_Paint.c ****             }
 5776              		.loc 1 526 17 is_stmt 1 view .LVU1643
 5777              	.LBB430:
 344:User/e-Paper/GUI_Paint.c ****                      DOT_PIXEL Dot_Pixel, DOT_STYLE Dot_Style)
 5778              		.loc 1 344 6 view .LVU1644
 5779              	.LBB407:
 347:User/e-Paper/GUI_Paint.c ****     {
 5780              		.loc 1 347 5 view .LVU1645
 347:User/e-Paper/GUI_Paint.c ****     {
 5781              		.loc 1 347 23 is_stmt 0 view .LVU1646
 5782 02be B288     		ldrh	r2, [r6, #4]
 5783              	.LBE407:
 5784              	.LBE430:
 5785              	.LBB431:
 5786              	.LBB389:
 350:User/e-Paper/GUI_Paint.c ****         printf("Ypoint = %d , Paint.Height = %d  \r\n ", Ypoint, Paint.Height);
 5787              		.loc 1 350 9 view .LVU1647
 5788 02c0 2F00     		movs	r7, r5
 5789              	.LBE389:
 5790              	.LBE431:
 5791              	.LBB432:
 5792              	.LBB408:
 347:User/e-Paper/GUI_Paint.c ****     {
 5793              		.loc 1 347 8 view .LVU1648
 5794 02c2 9542     		cmp	r5, r2
 5795 02c4 00D9     		bls	.LCB5908
ARM GAS  C:\Users\upo\AppData\Local\Temp\ccEC4369.s 			page 141


 5796 02c6 7EE0     		b	.L381	@long jump
 5797              	.LCB5908:
 347:User/e-Paper/GUI_Paint.c ****     {
 5798              		.loc 1 347 47 view .LVU1649
 5799 02c8 F388     		ldrh	r3, [r6, #6]
 347:User/e-Paper/GUI_Paint.c ****     {
 5800              		.loc 1 347 30 view .LVU1650
 5801 02ca 0299     		ldr	r1, [sp, #8]
 5802 02cc 9942     		cmp	r1, r3
 5803 02ce 00D9     		bls	.LCB5912
 5804 02d0 79E0     		b	.L381	@long jump
 5805              	.LCB5912:
 5806              	.LVL513:
 5807              	.LBB404:
 5808              	.LBB401:
 358:User/e-Paper/GUI_Paint.c ****         {
 5809              		.loc 1 358 37 is_stmt 1 view .LVU1651
 360:User/e-Paper/GUI_Paint.c ****             {
 5810              		.loc 1 360 41 view .LVU1652
 362:User/e-Paper/GUI_Paint.c ****                     break;
 5811              		.loc 1 362 17 view .LVU1653
 362:User/e-Paper/GUI_Paint.c ****                     break;
 5812              		.loc 1 362 20 is_stmt 0 view .LVU1654
 5813 02d2 002D     		cmp	r5, #0
 5814 02d4 00D0     		beq	.LCB5921
 5815 02d6 73E7     		b	.L384	@long jump
 5816              	.LCB5921:
 5817              	.LVL514:
 362:User/e-Paper/GUI_Paint.c ****                     break;
 5818              		.loc 1 362 20 view .LVU1655
 5819              	.LBE401:
 5820              	.LBE404:
 5821              	.LBE408:
 5822              	.LBE432:
 517:User/e-Paper/GUI_Paint.c ****             {
 5823              		.loc 1 517 66 is_stmt 1 view .LVU1656
 5824 02d8 0134     		adds	r4, r4, #1
 5825              	.LVL515:
 517:User/e-Paper/GUI_Paint.c ****             {
 5826              		.loc 1 517 46 is_stmt 0 view .LVU1657
 5827 02da 069B     		ldr	r3, [sp, #24]
 5828 02dc 0135     		adds	r5, r5, #1
 517:User/e-Paper/GUI_Paint.c ****             {
 5829              		.loc 1 517 66 view .LVU1658
 5830 02de 24B2     		sxth	r4, r4
 5831              	.LVL516:
 517:User/e-Paper/GUI_Paint.c ****             {
 5832              		.loc 1 517 46 is_stmt 1 view .LVU1659
 5833 02e0 ADB2     		uxth	r5, r5
 5834 02e2 9C42     		cmp	r4, r3
 5835 02e4 00DC     		bgt	.LCB5944
 5836 02e6 80E7     		b	.L389	@long jump
 5837              	.LCB5944:
 5838              	.L428:
 517:User/e-Paper/GUI_Paint.c ****             {
 5839              		.loc 1 517 46 is_stmt 0 view .LVU1660
 5840 02e8 DA46     		mov	r10, fp
ARM GAS  C:\Users\upo\AppData\Local\Temp\ccEC4369.s 			page 142


 5841 02ea CB46     		mov	fp, r9
 5842 02ec B146     		mov	r9, r6
 5843 02ee 0B9B     		ldr	r3, [sp, #44]
 5844              	.LVL517:
 5845              	.L392:
 528:User/e-Paper/GUI_Paint.c ****                 Esp += 4 * XCurrent + 6;
 5846              		.loc 1 528 13 is_stmt 1 view .LVU1661
 529:User/e-Paper/GUI_Paint.c ****             else
 5847              		.loc 1 529 21 is_stmt 0 view .LVU1662
 5848 02f0 0A99     		ldr	r1, [sp, #40]
 5849 02f2 8AB2     		uxth	r2, r1
 528:User/e-Paper/GUI_Paint.c ****                 Esp += 4 * XCurrent + 6;
 5850              		.loc 1 528 16 view .LVU1663
 5851 02f4 0029     		cmp	r1, #0
 5852 02f6 00DA     		bge	.LCB5958
 5853 02f8 79E0     		b	.L430	@long jump
 5854              	.LCB5958:
 532:User/e-Paper/GUI_Paint.c ****                 YCurrent--;
 5855              		.loc 1 532 17 is_stmt 1 view .LVU1664
 532:User/e-Paper/GUI_Paint.c ****                 YCurrent--;
 5856              		.loc 1 532 43 is_stmt 0 view .LVU1665
 5857 02fa 0698     		ldr	r0, [sp, #24]
 532:User/e-Paper/GUI_Paint.c ****                 YCurrent--;
 5858              		.loc 1 532 21 view .LVU1666
 5859 02fc 0A32     		adds	r2, r2, #10
 532:User/e-Paper/GUI_Paint.c ****                 YCurrent--;
 5860              		.loc 1 532 43 view .LVU1667
 5861 02fe 191A     		subs	r1, r3, r0
 532:User/e-Paper/GUI_Paint.c ****                 YCurrent--;
 5862              		.loc 1 532 21 view .LVU1668
 5863 0300 8900     		lsls	r1, r1, #2
 5864 0302 8918     		adds	r1, r1, r2
 5865 0304 0AB2     		sxth	r2, r1
 5866 0306 0A92     		str	r2, [sp, #40]
 5867              	.LVL518:
 533:User/e-Paper/GUI_Paint.c ****             }
 5868              		.loc 1 533 17 is_stmt 1 view .LVU1669
 533:User/e-Paper/GUI_Paint.c ****             }
 5869              		.loc 1 533 25 is_stmt 0 view .LVU1670
 5870 0308 421E     		subs	r2, r0, #1
 5871 030a 11B2     		sxth	r1, r2
 515:User/e-Paper/GUI_Paint.c ****         { // Realistic circles
 5872              		.loc 1 515 25 view .LVU1671
 5873 030c 029A     		ldr	r2, [sp, #8]
 5874 030e 0133     		adds	r3, r3, #1
 5875 0310 0132     		adds	r2, r2, #1
 5876 0312 92B2     		uxth	r2, r2
 5877 0314 0292     		str	r2, [sp, #8]
 5878 0316 019A     		ldr	r2, [sp, #4]
 535:User/e-Paper/GUI_Paint.c ****         }
 5879              		.loc 1 535 21 view .LVU1672
 5880 0318 1BB2     		sxth	r3, r3
 515:User/e-Paper/GUI_Paint.c ****         { // Realistic circles
 5881              		.loc 1 515 25 view .LVU1673
 5882 031a 013A     		subs	r2, r2, #1
 5883 031c 92B2     		uxth	r2, r2
 5884 031e 0192     		str	r2, [sp, #4]
ARM GAS  C:\Users\upo\AppData\Local\Temp\ccEC4369.s 			page 143


 5885 0320 5246     		mov	r2, r10
 5886 0322 0132     		adds	r2, r2, #1
 5887 0324 92B2     		uxth	r2, r2
 5888 0326 9246     		mov	r10, r2
 5889 0328 099A     		ldr	r2, [sp, #36]
 533:User/e-Paper/GUI_Paint.c ****             }
 5890              		.loc 1 533 25 view .LVU1674
 5891 032a 0691     		str	r1, [sp, #24]
 5892              	.LVL519:
 535:User/e-Paper/GUI_Paint.c ****         }
 5893              		.loc 1 535 13 is_stmt 1 view .LVU1675
 515:User/e-Paper/GUI_Paint.c ****         { // Realistic circles
 5894              		.loc 1 515 25 view .LVU1676
 5895 032c 0132     		adds	r2, r2, #1
 5896 032e 92B2     		uxth	r2, r2
 5897 0330 0992     		str	r2, [sp, #36]
 5898 0332 089A     		ldr	r2, [sp, #32]
 5899 0334 013A     		subs	r2, r2, #1
 5900 0336 92B2     		uxth	r2, r2
 5901 0338 0892     		str	r2, [sp, #32]
 5902 033a 9942     		cmp	r1, r3
 5903 033c 00DB     		blt	.LCB6006
 5904 033e 14E7     		b	.L373	@long jump
 5905              	.LCB6006:
 5906 0340 FAE6     		b	.L368
 5907              	.L432:
 5908 0342 C046     		.align	2
 5909              	.L431:
 5910 0344 00000000 		.word	Paint
 5911 0348 00000000 		.word	.LC3
 5912 034c 24000000 		.word	.LC5
 5913              	.LVL520:
 5914              	.L375:
 520:User/e-Paper/GUI_Paint.c ****                 Paint_DrawPoint(X_Center - sCountY, Y_Center + XCurrent, Color, DOT_PIXEL_DFT, DOT_
 5915              		.loc 1 520 17 view .LVU1677
 5916 0350 089B     		ldr	r3, [sp, #32]
 5917 0352 4146     		mov	r1, r8
 5918 0354 1800     		movs	r0, r3
 5919 0356 4A46     		mov	r2, r9
 5920 0358 9A46     		mov	r10, r3
 5921 035a FFF7FEFF 		bl	Paint_DrawPoint.constprop.0
 5922              	.LVL521:
 521:User/e-Paper/GUI_Paint.c ****                 Paint_DrawPoint(X_Center - sCountY, Y_Center - XCurrent, Color, DOT_PIXEL_DFT, DOT_
 5923              		.loc 1 521 17 view .LVU1678
 5924 035e 059B     		ldr	r3, [sp, #20]
 5925 0360 4A46     		mov	r2, r9
 5926 0362 9846     		mov	r8, r3
 5927 0364 1800     		movs	r0, r3
 5928 0366 0299     		ldr	r1, [sp, #8]
 5929 0368 FFF7FEFF 		bl	Paint_DrawPoint.constprop.0
 5930              	.LVL522:
 522:User/e-Paper/GUI_Paint.c ****                 Paint_DrawPoint(X_Center - XCurrent, Y_Center - sCountY, Color, DOT_PIXEL_DFT, DOT_
 5931              		.loc 1 522 17 view .LVU1679
 5932 036c 4A46     		mov	r2, r9
 5933 036e 4046     		mov	r0, r8
 5934 0370 0199     		ldr	r1, [sp, #4]
 5935 0372 FFF7FEFF 		bl	Paint_DrawPoint.constprop.0
ARM GAS  C:\Users\upo\AppData\Local\Temp\ccEC4369.s 			page 144


 5936              	.LVL523:
 523:User/e-Paper/GUI_Paint.c ****                 Paint_DrawPoint(X_Center + XCurrent, Y_Center - sCountY, Color, DOT_PIXEL_DFT, DOT_
 5937              		.loc 1 523 17 view .LVU1680
 5938 0376 4A46     		mov	r2, r9
 5939 0378 3900     		movs	r1, r7
 5940 037a 5046     		mov	r0, r10
 5941 037c FFF7FEFF 		bl	Paint_DrawPoint.constprop.0
 5942              	.LVL524:
 524:User/e-Paper/GUI_Paint.c ****                 Paint_DrawPoint(X_Center + sCountY, Y_Center - XCurrent, Color, DOT_PIXEL_DFT, DOT_
 5943              		.loc 1 524 17 view .LVU1681
 5944              	.LBB433:
 344:User/e-Paper/GUI_Paint.c ****                      DOT_PIXEL Dot_Pixel, DOT_STYLE Dot_Style)
 5945              		.loc 1 344 6 view .LVU1682
 5946              	.LBB378:
 347:User/e-Paper/GUI_Paint.c ****     {
 5947              		.loc 1 347 5 view .LVU1683
 347:User/e-Paper/GUI_Paint.c ****     {
 5948              		.loc 1 347 30 is_stmt 0 view .LVU1684
 5949 0380 F388     		ldrh	r3, [r6, #6]
 347:User/e-Paper/GUI_Paint.c ****     {
 5950              		.loc 1 347 23 view .LVU1685
 5951 0382 B288     		ldrh	r2, [r6, #4]
 5952              	.LVL525:
 347:User/e-Paper/GUI_Paint.c ****     {
 5953              		.loc 1 347 30 view .LVU1686
 5954 0384 BB42     		cmp	r3, r7
 5955 0386 00D3     		bcc	.LCB6079
 5956 0388 86E7     		b	.L378	@long jump
 5957              	.LCB6079:
 5958              	.LVL526:
 5959              	.L377:
 349:User/e-Paper/GUI_Paint.c ****         printf("Xpoint = %d , Paint.Width = %d  \r\n ", Xpoint, Paint.Width);
 5960              		.loc 1 349 77 is_stmt 1 view .LVU1687
 350:User/e-Paper/GUI_Paint.c ****         printf("Ypoint = %d , Paint.Height = %d  \r\n ", Ypoint, Paint.Height);
 5961              		.loc 1 350 9 view .LVU1688
 5962 038a 2E4B     		ldr	r3, .L433
 5963 038c 5946     		mov	r1, fp
 5964 038e 1800     		movs	r0, r3
 5965 0390 FFF7FEFF 		bl	printf_
 5966              	.LVL527:
 351:User/e-Paper/GUI_Paint.c ****         return;
 5967              		.loc 1 351 9 view .LVU1689
 5968 0394 2C4B     		ldr	r3, .L433+4
 5969 0396 F288     		ldrh	r2, [r6, #6]
 5970 0398 3900     		movs	r1, r7
 5971 039a 1800     		movs	r0, r3
 5972 039c FFF7FEFF 		bl	printf_
 5973              	.LVL528:
 352:User/e-Paper/GUI_Paint.c ****     }
 5974              		.loc 1 352 9 view .LVU1690
 5975              	.LBE378:
 5976              	.LBE433:
 5977              	.LBB434:
 5978              	.LBB390:
 347:User/e-Paper/GUI_Paint.c ****     {
 5979              		.loc 1 347 23 is_stmt 0 view .LVU1691
 5980 03a0 B288     		ldrh	r2, [r6, #4]
ARM GAS  C:\Users\upo\AppData\Local\Temp\ccEC4369.s 			page 145


 5981              	.LBE390:
 5982              	.LBE434:
 5983              	.LBB435:
 5984              	.LBB379:
 352:User/e-Paper/GUI_Paint.c ****     }
 5985              		.loc 1 352 9 view .LVU1692
 5986 03a2 79E7     		b	.L378
 5987              	.LVL529:
 5988              	.L374:
 352:User/e-Paper/GUI_Paint.c ****     }
 5989              		.loc 1 352 9 view .LVU1693
 5990              	.LBE379:
 5991              	.LBE435:
 5992              	.LBB436:
 5993              	.LBB424:
 349:User/e-Paper/GUI_Paint.c ****         printf("Xpoint = %d , Paint.Width = %d  \r\n ", Xpoint, Paint.Width);
 5994              		.loc 1 349 77 is_stmt 1 view .LVU1694
 350:User/e-Paper/GUI_Paint.c ****         printf("Ypoint = %d , Paint.Height = %d  \r\n ", Ypoint, Paint.Height);
 5995              		.loc 1 350 9 view .LVU1695
 5996 03a4 274B     		ldr	r3, .L433
 5997 03a6 5946     		mov	r1, fp
 5998 03a8 1800     		movs	r0, r3
 5999 03aa FFF7FEFF 		bl	printf_
 6000              	.LVL530:
 351:User/e-Paper/GUI_Paint.c ****         return;
 6001              		.loc 1 351 9 view .LVU1696
 6002 03ae 264B     		ldr	r3, .L433+4
 6003 03b0 4146     		mov	r1, r8
 6004 03b2 1800     		movs	r0, r3
 6005 03b4 F288     		ldrh	r2, [r6, #6]
 6006 03b6 FFF7FEFF 		bl	printf_
 6007              	.LVL531:
 352:User/e-Paper/GUI_Paint.c ****     }
 6008              		.loc 1 352 9 view .LVU1697
 6009 03ba 3CE7     		b	.L376
 6010              	.LVL532:
 6011              	.L421:
 352:User/e-Paper/GUI_Paint.c ****     }
 6012              		.loc 1 352 9 is_stmt 0 view .LVU1698
 6013 03bc 214B     		ldr	r3, .L433
 6014              	.LBE424:
 6015              	.LBE436:
 6016              	.LBB437:
 6017              	.LBB391:
 350:User/e-Paper/GUI_Paint.c ****         printf("Ypoint = %d , Paint.Height = %d  \r\n ", Ypoint, Paint.Height);
 6018              		.loc 1 350 9 view .LVU1699
 6019 03be 2F00     		movs	r7, r5
 6020 03c0 9846     		mov	r8, r3
 6021 03c2 214B     		ldr	r3, .L433+4
 6022 03c4 9A46     		mov	r10, r3
 6023              	.L381:
 6024              	.LBE391:
 6025              	.LBE437:
 6026              	.LBB438:
 6027              	.LBB409:
 349:User/e-Paper/GUI_Paint.c ****         printf("Xpoint = %d , Paint.Width = %d  \r\n ", Xpoint, Paint.Width);
 6028              		.loc 1 349 77 is_stmt 1 view .LVU1700
ARM GAS  C:\Users\upo\AppData\Local\Temp\ccEC4369.s 			page 146


 350:User/e-Paper/GUI_Paint.c ****         printf("Ypoint = %d , Paint.Height = %d  \r\n ", Ypoint, Paint.Height);
 6029              		.loc 1 350 9 view .LVU1701
 6030 03c6 3900     		movs	r1, r7
 6031 03c8 4046     		mov	r0, r8
 6032 03ca FFF7FEFF 		bl	printf_
 6033              	.LVL533:
 351:User/e-Paper/GUI_Paint.c ****         return;
 6034              		.loc 1 351 9 view .LVU1702
 6035 03ce 5046     		mov	r0, r10
 6036 03d0 F288     		ldrh	r2, [r6, #6]
 6037 03d2 0299     		ldr	r1, [sp, #8]
 6038 03d4 FFF7FEFF 		bl	printf_
 6039              	.LVL534:
 352:User/e-Paper/GUI_Paint.c ****     }
 6040              		.loc 1 352 9 view .LVU1703
 6041 03d8 FFE6     		b	.L382
 6042              	.LVL535:
 6043              	.L427:
 352:User/e-Paper/GUI_Paint.c ****     }
 6044              		.loc 1 352 9 is_stmt 0 view .LVU1704
 6045              	.LBE409:
 6046              	.LBE438:
 526:User/e-Paper/GUI_Paint.c ****             }
 6047              		.loc 1 526 17 is_stmt 1 view .LVU1705
 6048              	.LBB439:
 344:User/e-Paper/GUI_Paint.c ****                      DOT_PIXEL Dot_Pixel, DOT_STYLE Dot_Style)
 6049              		.loc 1 344 6 view .LVU1706
 6050              	.LBB410:
 347:User/e-Paper/GUI_Paint.c ****     {
 6051              		.loc 1 347 5 view .LVU1707
 347:User/e-Paper/GUI_Paint.c ****     {
 6052              		.loc 1 347 30 is_stmt 0 view .LVU1708
 6053 03da 0299     		ldr	r1, [sp, #8]
 6054 03dc 9942     		cmp	r1, r3
 6055 03de EDD8     		bhi	.L421
 6056              	.LBB405:
 6057              	.LBB402:
 362:User/e-Paper/GUI_Paint.c ****                     break;
 6058              		.loc 1 362 55 view .LVU1709
 6059 03e0 0029     		cmp	r1, #0
 6060 03e2 00D1     		bne	.LCB6214
 6061 03e4 F9E6     		b	.L382	@long jump
 6062              	.LCB6214:
 365:User/e-Paper/GUI_Paint.c ****             }
 6063              		.loc 1 365 17 is_stmt 1 view .LVU1710
 6064 03e6 3900     		movs	r1, r7
 6065 03e8 6144     		add	r1, r1, ip
 6066 03ea 89B2     		uxth	r1, r1
 6067              	.LVL536:
 6068              	.LBB399:
 200:User/e-Paper/GUI_Paint.c **** {
 6069              		.loc 1 200 6 view .LVU1711
 6070              	.LBB398:
 202:User/e-Paper/GUI_Paint.c ****     {
 6071              		.loc 1 202 5 view .LVU1712
 6072 03ec F0E6     		b	.L395
 6073              	.LVL537:
ARM GAS  C:\Users\upo\AppData\Local\Temp\ccEC4369.s 			page 147


 6074              	.L430:
 202:User/e-Paper/GUI_Paint.c ****     {
 6075              		.loc 1 202 5 is_stmt 0 view .LVU1713
 6076              	.LBE398:
 6077              	.LBE399:
 6078              	.LBE402:
 6079              	.LBE405:
 6080              	.LBE410:
 6081              	.LBE439:
 529:User/e-Paper/GUI_Paint.c ****             else
 6082              		.loc 1 529 17 is_stmt 1 view .LVU1714
 6083 03ee 99B2     		uxth	r1, r3
 529:User/e-Paper/GUI_Paint.c ****             else
 6084              		.loc 1 529 21 is_stmt 0 view .LVU1715
 6085 03f0 8800     		lsls	r0, r1, #2
 6086 03f2 0632     		adds	r2, r2, #6
 6087 03f4 1218     		adds	r2, r2, r0
 6088 03f6 13B2     		sxth	r3, r2
 515:User/e-Paper/GUI_Paint.c ****         { // Realistic circles
 6089              		.loc 1 515 25 view .LVU1716
 6090 03f8 029A     		ldr	r2, [sp, #8]
 535:User/e-Paper/GUI_Paint.c ****         }
 6091              		.loc 1 535 21 view .LVU1717
 6092 03fa 0131     		adds	r1, r1, #1
 515:User/e-Paper/GUI_Paint.c ****         { // Realistic circles
 6093              		.loc 1 515 25 view .LVU1718
 6094 03fc 0132     		adds	r2, r2, #1
 6095 03fe 92B2     		uxth	r2, r2
 6096 0400 0292     		str	r2, [sp, #8]
 6097 0402 019A     		ldr	r2, [sp, #4]
 529:User/e-Paper/GUI_Paint.c ****             else
 6098              		.loc 1 529 21 view .LVU1719
 6099 0404 0A93     		str	r3, [sp, #40]
 6100              	.LVL538:
 535:User/e-Paper/GUI_Paint.c ****         }
 6101              		.loc 1 535 13 is_stmt 1 view .LVU1720
 515:User/e-Paper/GUI_Paint.c ****         { // Realistic circles
 6102              		.loc 1 515 25 is_stmt 0 view .LVU1721
 6103 0406 013A     		subs	r2, r2, #1
 6104 0408 92B2     		uxth	r2, r2
 6105 040a 0192     		str	r2, [sp, #4]
 6106 040c 5246     		mov	r2, r10
 6107 040e 0132     		adds	r2, r2, #1
 6108 0410 92B2     		uxth	r2, r2
 6109 0412 9246     		mov	r10, r2
 6110 0414 099A     		ldr	r2, [sp, #36]
 535:User/e-Paper/GUI_Paint.c ****         }
 6111              		.loc 1 535 21 view .LVU1722
 6112 0416 0BB2     		sxth	r3, r1
 6113              	.LVL539:
 515:User/e-Paper/GUI_Paint.c ****         { // Realistic circles
 6114              		.loc 1 515 25 is_stmt 1 view .LVU1723
 6115 0418 0132     		adds	r2, r2, #1
 6116 041a 92B2     		uxth	r2, r2
 6117 041c 0992     		str	r2, [sp, #36]
 6118 041e 089A     		ldr	r2, [sp, #32]
 6119 0420 013A     		subs	r2, r2, #1
ARM GAS  C:\Users\upo\AppData\Local\Temp\ccEC4369.s 			page 148


 6120 0422 92B2     		uxth	r2, r2
 6121 0424 0892     		str	r2, [sp, #32]
 6122 0426 069A     		ldr	r2, [sp, #24]
 6123 0428 9342     		cmp	r3, r2
 6124 042a 00DC     		bgt	.LCB6284
 6125 042c 9DE6     		b	.L373	@long jump
 6126              	.LCB6284:
 6127 042e 83E6     		b	.L368
 6128              	.LVL540:
 6129              	.L426:
 526:User/e-Paper/GUI_Paint.c ****             }
 6130              		.loc 1 526 17 view .LVU1724
 6131              	.LBB440:
 344:User/e-Paper/GUI_Paint.c ****                      DOT_PIXEL Dot_Pixel, DOT_STYLE Dot_Style)
 6132              		.loc 1 344 6 view .LVU1725
 6133              	.LBB411:
 347:User/e-Paper/GUI_Paint.c ****     {
 6134              		.loc 1 347 5 view .LVU1726
 347:User/e-Paper/GUI_Paint.c ****     {
 6135              		.loc 1 347 30 is_stmt 0 view .LVU1727
 6136 0430 0299     		ldr	r1, [sp, #8]
 6137 0432 9942     		cmp	r1, r3
 6138 0434 00D8     		bhi	.LCB6319
 6139 0436 D0E6     		b	.L382	@long jump
 6140              	.LCB6319:
 6141 0438 024B     		ldr	r3, .L433
 6142 043a 0027     		movs	r7, #0
 6143 043c 9846     		mov	r8, r3
 6144 043e 024B     		ldr	r3, .L433+4
 6145 0440 9A46     		mov	r10, r3
 6146 0442 C0E7     		b	.L381
 6147              	.L434:
 6148              		.align	2
 6149              	.L433:
 6150 0444 00000000 		.word	.LC3
 6151 0448 24000000 		.word	.LC5
 6152              	.LBE411:
 6153              	.LBE440:
 6154              		.cfi_endproc
 6155              	.LFE1436:
 6157              		.section	.text.Paint_DrawChar,"ax",%progbits
 6158              		.align	1
 6159              		.p2align 2,,3
 6160              		.global	Paint_DrawChar
 6161              		.syntax unified
 6162              		.code	16
 6163              		.thumb_func
 6165              	Paint_DrawChar:
 6166              	.LVL541:
 6167              	.LFB1437:
 575:User/e-Paper/GUI_Paint.c ****     UWORD Page, Column;
 6168              		.loc 1 575 1 is_stmt 1 view -0
 6169              		.cfi_startproc
 6170              		@ args = 8, pretend = 0, frame = 0
 6171              		@ frame_needed = 0, uses_anonymous_args = 0
 576:User/e-Paper/GUI_Paint.c **** 
 6172              		.loc 1 576 5 view .LVU1729
ARM GAS  C:\Users\upo\AppData\Local\Temp\ccEC4369.s 			page 149


 578:User/e-Paper/GUI_Paint.c ****     {
 6173              		.loc 1 578 5 view .LVU1730
 575:User/e-Paper/GUI_Paint.c ****     UWORD Page, Column;
 6174              		.loc 1 575 1 is_stmt 0 view .LVU1731
 6175 0000 F0B5     		push	{r4, r5, r6, r7, lr}
 6176              	.LCFI28:
 6177              		.cfi_def_cfa_offset 20
 6178              		.cfi_offset 4, -20
 6179              		.cfi_offset 5, -16
 6180              		.cfi_offset 6, -12
 6181              		.cfi_offset 7, -8
 6182              		.cfi_offset 14, -4
 6183 0002 83B0     		sub	sp, sp, #12
 6184              	.LCFI29:
 6185              		.cfi_def_cfa_offset 32
 575:User/e-Paper/GUI_Paint.c ****     UWORD Page, Column;
 6186              		.loc 1 575 1 view .LVU1732
 6187 0004 08AC     		add	r4, sp, #32
 6188              	.LVL542:
 575:User/e-Paper/GUI_Paint.c ****     UWORD Page, Column;
 6189              		.loc 1 575 1 view .LVU1733
 6190 0006 2688     		ldrh	r6, [r4]
 6191 0008 09AC     		add	r4, sp, #36
 6192              	.LVL543:
 575:User/e-Paper/GUI_Paint.c ****     UWORD Page, Column;
 6193              		.loc 1 575 1 view .LVU1734
 6194 000a 2788     		ldrh	r7, [r4]
 578:User/e-Paper/GUI_Paint.c ****     {
 6195              		.loc 1 578 23 view .LVU1735
 6196 000c 064C     		ldr	r4, .L437
 6197              	.LVL544:
 578:User/e-Paper/GUI_Paint.c ****     {
 6198              		.loc 1 578 8 view .LVU1736
 6199 000e A588     		ldrh	r5, [r4, #4]
 6200 0010 8542     		cmp	r5, r0
 6201 0012 07D3     		bcc	.L435
 578:User/e-Paper/GUI_Paint.c ****     {
 6202              		.loc 1 578 30 discriminator 1 view .LVU1737
 6203 0014 E488     		ldrh	r4, [r4, #6]
 6204 0016 8C42     		cmp	r4, r1
 6205 0018 04D3     		bcc	.L435
 6206 001a 5B68     		ldr	r3, [r3, #4]
 6207              	.LVL545:
 578:User/e-Paper/GUI_Paint.c ****     {
 6208              		.loc 1 578 30 discriminator 1 view .LVU1738
 6209 001c 0197     		str	r7, [sp, #4]
 6210 001e 0096     		str	r6, [sp]
 6211 0020 FFF7FEFF 		bl	Paint_DrawChar.part.0.isra.0
 6212              	.LVL546:
 6213              	.L435:
 6214              		.loc 1 618 1 view .LVU1739
 6215 0024 03B0     		add	sp, sp, #12
 6216              		@ sp needed
 6217 0026 F0BD     		pop	{r4, r5, r6, r7, pc}
 6218              	.L438:
 6219              		.align	2
 6220              	.L437:
ARM GAS  C:\Users\upo\AppData\Local\Temp\ccEC4369.s 			page 150


 6221 0028 00000000 		.word	Paint
 6222              		.cfi_endproc
 6223              	.LFE1437:
 6225              		.section	.text.Paint_DrawString_EN,"ax",%progbits
 6226              		.align	1
 6227              		.p2align 2,,3
 6228              		.global	Paint_DrawString_EN
 6229              		.syntax unified
 6230              		.code	16
 6231              		.thumb_func
 6233              	Paint_DrawString_EN:
 6234              	.LVL547:
 6235              	.LFB1438:
 619:User/e-Paper/GUI_Paint.c **** 
 620:User/e-Paper/GUI_Paint.c **** /******************************************************************************
 621:User/e-Paper/GUI_Paint.c **** function:	Display the string
 622:User/e-Paper/GUI_Paint.c **** parameter:
 623:User/e-Paper/GUI_Paint.c ****     Xstart           ：X coordinate
 624:User/e-Paper/GUI_Paint.c ****     Ystart           ：Y coordinate
 625:User/e-Paper/GUI_Paint.c ****     pString          ：The first address of the English string to be displayed
 626:User/e-Paper/GUI_Paint.c ****     Font             ：A structure pointer that displays a character size
 627:User/e-Paper/GUI_Paint.c ****     Color_Foreground : Select the foreground color
 628:User/e-Paper/GUI_Paint.c ****     Color_Background : Select the background color
 629:User/e-Paper/GUI_Paint.c **** ******************************************************************************/
 630:User/e-Paper/GUI_Paint.c **** void Paint_DrawString_EN(UWORD Xstart, UWORD Ystart, const char *pString,
 631:User/e-Paper/GUI_Paint.c ****                          tFont *Font, UWORD Color_Foreground, UWORD Color_Background)
 632:User/e-Paper/GUI_Paint.c **** {
 6236              		.loc 1 632 1 is_stmt 1 view -0
 6237              		.cfi_startproc
 6238              		@ args = 8, pretend = 0, frame = 0
 6239              		@ frame_needed = 0, uses_anonymous_args = 0
 633:User/e-Paper/GUI_Paint.c ****     UWORD Xpoint = Xstart;
 6240              		.loc 1 633 5 view .LVU1741
 634:User/e-Paper/GUI_Paint.c ****     UWORD Ypoint = Ystart;
 6241              		.loc 1 634 5 view .LVU1742
 632:User/e-Paper/GUI_Paint.c ****     UWORD Xpoint = Xstart;
 6242              		.loc 1 632 1 is_stmt 0 view .LVU1743
 6243 0000 F0B5     		push	{r4, r5, r6, r7, lr}
 6244              	.LCFI30:
 6245              		.cfi_def_cfa_offset 20
 6246              		.cfi_offset 4, -20
 6247              		.cfi_offset 5, -16
 6248              		.cfi_offset 6, -12
 6249              		.cfi_offset 7, -8
 6250              		.cfi_offset 14, -4
 6251 0002 4F46     		mov	r7, r9
 6252 0004 4646     		mov	r6, r8
 6253 0006 D646     		mov	lr, r10
 6254 0008 C0B5     		push	{r6, r7, lr}
 6255              	.LCFI31:
 6256              		.cfi_def_cfa_offset 32
 6257              		.cfi_offset 8, -32
 6258              		.cfi_offset 9, -28
 6259              		.cfi_offset 10, -24
 6260 000a 82B0     		sub	sp, sp, #8
 6261              	.LCFI32:
 6262              		.cfi_def_cfa_offset 40
ARM GAS  C:\Users\upo\AppData\Local\Temp\ccEC4369.s 			page 151


 632:User/e-Paper/GUI_Paint.c ****     UWORD Xpoint = Xstart;
 6263              		.loc 1 632 1 view .LVU1744
 6264 000c 9846     		mov	r8, r3
 6265 000e 0AAB     		add	r3, sp, #40
 6266              	.LVL548:
 632:User/e-Paper/GUI_Paint.c ****     UWORD Xpoint = Xstart;
 6267              		.loc 1 632 1 view .LVU1745
 6268 0010 1B88     		ldrh	r3, [r3]
 6269              	.LVL549:
 635:User/e-Paper/GUI_Paint.c ****     //			uint32_t font_Width = (*Font).chars[Acsii_Char - ' '].image->width;
 636:User/e-Paper/GUI_Paint.c ****     //		uint32_t font_Height = (*Font).chars[Acsii_Char - ' ' ].image->height;
 637:User/e-Paper/GUI_Paint.c **** 
 638:User/e-Paper/GUI_Paint.c ****     if (Xstart > Paint.Width || Ystart > Paint.Height)
 6270              		.loc 1 638 23 view .LVU1746
 6271 0012 1C4E     		ldr	r6, .L450
 632:User/e-Paper/GUI_Paint.c ****     UWORD Xpoint = Xstart;
 6272              		.loc 1 632 1 view .LVU1747
 6273 0014 9946     		mov	r9, r3
 6274 0016 0BAB     		add	r3, sp, #44
 6275              	.LVL550:
 632:User/e-Paper/GUI_Paint.c ****     UWORD Xpoint = Xstart;
 6276              		.loc 1 632 1 view .LVU1748
 6277 0018 0F00     		movs	r7, r1
 6278              	.LVL551:
 6279              		.loc 1 638 5 is_stmt 1 view .LVU1749
 632:User/e-Paper/GUI_Paint.c ****     UWORD Xpoint = Xstart;
 6280              		.loc 1 632 1 is_stmt 0 view .LVU1750
 6281 001a 1B88     		ldrh	r3, [r3]
 6282              	.LVL552:
 6283              		.loc 1 638 23 view .LVU1751
 6284 001c B188     		ldrh	r1, [r6, #4]
 6285              	.LVL553:
 632:User/e-Paper/GUI_Paint.c ****     UWORD Xpoint = Xstart;
 6286              		.loc 1 632 1 view .LVU1752
 6287 001e 0400     		movs	r4, r0
 6288 0020 1500     		movs	r5, r2
 6289 0022 9A46     		mov	r10, r3
 6290              		.loc 1 638 8 view .LVU1753
 6291 0024 8142     		cmp	r1, r0
 6292 0026 26D3     		bcc	.L439
 6293              		.loc 1 638 30 discriminator 1 view .LVU1754
 6294 0028 F388     		ldrh	r3, [r6, #6]
 6295 002a BB42     		cmp	r3, r7
 6296 002c 23D3     		bcc	.L439
 6297              	.LVL554:
 6298              	.LBB446:
 6299              	.LBB447:
 639:User/e-Paper/GUI_Paint.c ****     {
 640:User/e-Paper/GUI_Paint.c ****         DE_BUG("Paint_DrawString_EN Input exceeds the normal display range\r\n");
 641:User/e-Paper/GUI_Paint.c ****         return;
 642:User/e-Paper/GUI_Paint.c ****     }
 643:User/e-Paper/GUI_Paint.c **** 
 644:User/e-Paper/GUI_Paint.c ****     while (*pString != '\0')
 6300              		.loc 1 644 21 is_stmt 1 view .LVU1755
 6301              		.loc 1 644 12 is_stmt 0 view .LVU1756
 6302 002e 1278     		ldrb	r2, [r2]
 6303              	.LVL555:
ARM GAS  C:\Users\upo\AppData\Local\Temp\ccEC4369.s 			page 152


 6304              		.loc 1 644 21 view .LVU1757
 6305 0030 002A     		cmp	r2, #0
 6306 0032 20D0     		beq	.L439
 6307 0034 4346     		mov	r3, r8
 6308 0036 5B68     		ldr	r3, [r3, #4]
 6309 0038 00E0     		b	.L442
 6310              	.LVL556:
 6311              	.L449:
 6312              	.LBB448:
 6313              	.LBB449:
 6314              	.LBB450:
 578:User/e-Paper/GUI_Paint.c ****     {
 6315              		.loc 1 578 23 view .LVU1758
 6316 003a B188     		ldrh	r1, [r6, #4]
 6317              	.LVL557:
 6318              	.L442:
 578:User/e-Paper/GUI_Paint.c ****     {
 6319              		.loc 1 578 23 view .LVU1759
 6320              	.LBE450:
 6321              	.LBE449:
 645:User/e-Paper/GUI_Paint.c ****     {
 646:User/e-Paper/GUI_Paint.c ****         // if X direction filled , reposition to(Xstart,Ypoint),Ypoint is Y direction plus the Heig
 647:User/e-Paper/GUI_Paint.c ****         //        if ((Xpoint + Font->Width ) > Paint.Width ) {
 648:User/e-Paper/GUI_Paint.c ****         //            Xpoint = Xstart;
 649:User/e-Paper/GUI_Paint.c ****         //            Ypoint += Font->Height;
 650:User/e-Paper/GUI_Paint.c ****         //        }
 651:User/e-Paper/GUI_Paint.c **** 
 652:User/e-Paper/GUI_Paint.c ****         //        // If the Y direction is full, reposition to(Xstart, Ystart)
 653:User/e-Paper/GUI_Paint.c ****         //        if ((Ypoint  + Font->Height ) > Paint.Height ) {
 654:User/e-Paper/GUI_Paint.c ****         //            Xpoint = Xstart;
 655:User/e-Paper/GUI_Paint.c ****         //            Ypoint = Ystart;
 656:User/e-Paper/GUI_Paint.c ****         //        }
 657:User/e-Paper/GUI_Paint.c ****         Paint_DrawChar(Xpoint, Ypoint, *pString, Font, Color_Background, Color_Foreground);
 6322              		.loc 1 657 9 is_stmt 1 view .LVU1760
 6323              	.LBB452:
 6324              	.LBI449:
 573:User/e-Paper/GUI_Paint.c ****                     tFont *Font, UWORD Color_Foreground, UWORD Color_Background)
 6325              		.loc 1 573 6 view .LVU1761
 6326              	.LBB451:
 576:User/e-Paper/GUI_Paint.c **** 
 6327              		.loc 1 576 5 view .LVU1762
 578:User/e-Paper/GUI_Paint.c ****     {
 6328              		.loc 1 578 5 view .LVU1763
 578:User/e-Paper/GUI_Paint.c ****     {
 6329              		.loc 1 578 8 is_stmt 0 view .LVU1764
 6330 003c 8C42     		cmp	r4, r1
 6331 003e 0DD8     		bhi	.L441
 578:User/e-Paper/GUI_Paint.c ****     {
 6332              		.loc 1 578 30 view .LVU1765
 6333 0040 F188     		ldrh	r1, [r6, #6]
 6334 0042 B942     		cmp	r1, r7
 6335 0044 0AD3     		bcc	.L441
 6336 0046 4946     		mov	r1, r9
 6337 0048 0191     		str	r1, [sp, #4]
 6338 004a 5146     		mov	r1, r10
 6339 004c 2000     		movs	r0, r4
 6340 004e 0091     		str	r1, [sp]
ARM GAS  C:\Users\upo\AppData\Local\Temp\ccEC4369.s 			page 153


 6341 0050 3900     		movs	r1, r7
 6342 0052 FFF7FEFF 		bl	Paint_DrawChar.part.0.isra.0
 6343              	.LVL558:
 578:User/e-Paper/GUI_Paint.c ****     {
 6344              		.loc 1 578 30 view .LVU1766
 6345              	.LBE451:
 6346              	.LBE452:
 658:User/e-Paper/GUI_Paint.c **** 
 659:User/e-Paper/GUI_Paint.c ****         // The next character of the address
 660:User/e-Paper/GUI_Paint.c **** 
 661:User/e-Paper/GUI_Paint.c ****         uint32_t font_Width = (*Font).chars[*pString - ' '].image->width;
 6347              		.loc 1 661 38 view .LVU1767
 6348 0056 4346     		mov	r3, r8
 6349              		.loc 1 661 45 view .LVU1768
 6350 0058 2A78     		ldrb	r2, [r5]
 6351              		.loc 1 661 38 view .LVU1769
 6352 005a 5B68     		ldr	r3, [r3, #4]
 6353              	.L441:
 6354              	.LVL559:
 6355              		.loc 1 661 9 is_stmt 1 view .LVU1770
 662:User/e-Paper/GUI_Paint.c ****         // The next word of the abscissa increases the font of the broadband
 663:User/e-Paper/GUI_Paint.c ****         Xpoint += font_Width;
 6356              		.loc 1 663 9 view .LVU1771
 661:User/e-Paper/GUI_Paint.c ****         // The next word of the abscissa increases the font of the broadband
 6357              		.loc 1 661 44 is_stmt 0 view .LVU1772
 6358 005c 0A49     		ldr	r1, .L450+4
 664:User/e-Paper/GUI_Paint.c ****         pString++;
 6359              		.loc 1 664 16 view .LVU1773
 6360 005e 0135     		adds	r5, r5, #1
 6361              	.LVL560:
 661:User/e-Paper/GUI_Paint.c ****         // The next word of the abscissa increases the font of the broadband
 6362              		.loc 1 661 44 view .LVU1774
 6363 0060 8C46     		mov	ip, r1
 6364 0062 6244     		add	r2, r2, ip
 6365              	.LVL561:
 661:User/e-Paper/GUI_Paint.c ****         // The next word of the abscissa increases the font of the broadband
 6366              		.loc 1 661 60 view .LVU1775
 6367 0064 D200     		lsls	r2, r2, #3
 661:User/e-Paper/GUI_Paint.c ****         // The next word of the abscissa increases the font of the broadband
 6368              		.loc 1 661 66 view .LVU1776
 6369 0066 9A18     		adds	r2, r3, r2
 6370 0068 5268     		ldr	r2, [r2, #4]
 663:User/e-Paper/GUI_Paint.c ****         pString++;
 6371              		.loc 1 663 16 view .LVU1777
 6372 006a 9288     		ldrh	r2, [r2, #4]
 6373 006c A418     		adds	r4, r4, r2
 6374              	.LVL562:
 663:User/e-Paper/GUI_Paint.c ****         pString++;
 6375              		.loc 1 663 16 view .LVU1778
 6376              	.LBE448:
 644:User/e-Paper/GUI_Paint.c ****     {
 6377              		.loc 1 644 12 view .LVU1779
 6378 006e 2A78     		ldrb	r2, [r5]
 6379              	.LBB453:
 663:User/e-Paper/GUI_Paint.c ****         pString++;
 6380              		.loc 1 663 16 view .LVU1780
 6381 0070 A4B2     		uxth	r4, r4
ARM GAS  C:\Users\upo\AppData\Local\Temp\ccEC4369.s 			page 154


 6382              	.LVL563:
 6383              		.loc 1 664 9 is_stmt 1 view .LVU1781
 6384              		.loc 1 664 9 is_stmt 0 view .LVU1782
 6385              	.LBE453:
 644:User/e-Paper/GUI_Paint.c ****     {
 6386              		.loc 1 644 21 is_stmt 1 view .LVU1783
 6387 0072 002A     		cmp	r2, #0
 6388 0074 E1D1     		bne	.L449
 6389              	.LVL564:
 6390              	.L439:
 644:User/e-Paper/GUI_Paint.c ****     {
 6391              		.loc 1 644 21 is_stmt 0 view .LVU1784
 6392              	.LBE447:
 6393              	.LBE446:
 665:User/e-Paper/GUI_Paint.c ****     }
 666:User/e-Paper/GUI_Paint.c **** }
 6394              		.loc 1 666 1 view .LVU1785
 6395 0076 02B0     		add	sp, sp, #8
 6396              		@ sp needed
 6397              	.LVL565:
 6398              	.LVL566:
 6399              		.loc 1 666 1 view .LVU1786
 6400 0078 E0BC     		pop	{r5, r6, r7}
 6401 007a BA46     		mov	r10, r7
 6402 007c B146     		mov	r9, r6
 6403 007e A846     		mov	r8, r5
 6404 0080 F0BD     		pop	{r4, r5, r6, r7, pc}
 6405              	.L451:
 6406 0082 C046     		.align	2
 6407              	.L450:
 6408 0084 00000000 		.word	Paint
 6409 0088 E0FFFF1F 		.word	536870880
 6410              		.cfi_endproc
 6411              	.LFE1438:
 6413              		.global	__aeabi_idivmod
 6414              		.global	__aeabi_idiv
 6415              		.section	.text.Paint_DrawNum,"ax",%progbits
 6416              		.align	1
 6417              		.p2align 2,,3
 6418              		.global	Paint_DrawNum
 6419              		.syntax unified
 6420              		.code	16
 6421              		.thumb_func
 6423              	Paint_DrawNum:
 6424              	.LVL567:
 6425              	.LFB1439:
 667:User/e-Paper/GUI_Paint.c **** 
 668:User/e-Paper/GUI_Paint.c **** /******************************************************************************
 669:User/e-Paper/GUI_Paint.c **** function:	Display nummber
 670:User/e-Paper/GUI_Paint.c **** parameter:
 671:User/e-Paper/GUI_Paint.c ****     Xstart           ：X coordinate
 672:User/e-Paper/GUI_Paint.c ****     Ystart           : Y coordinate
 673:User/e-Paper/GUI_Paint.c ****     Nummber          : The number displayed
 674:User/e-Paper/GUI_Paint.c ****     Font             ：A structure pointer that displays a character size
 675:User/e-Paper/GUI_Paint.c ****     Color_Foreground : Select the foreground color
 676:User/e-Paper/GUI_Paint.c ****     Color_Background : Select the background color
 677:User/e-Paper/GUI_Paint.c **** ******************************************************************************/
ARM GAS  C:\Users\upo\AppData\Local\Temp\ccEC4369.s 			page 155


 678:User/e-Paper/GUI_Paint.c **** #define ARRAY_LEN 255
 679:User/e-Paper/GUI_Paint.c **** void Paint_DrawNum(UWORD Xpoint, UWORD Ypoint, int32_t Nummber,
 680:User/e-Paper/GUI_Paint.c ****                    tFont *Font, UWORD Color_Foreground, UWORD Color_Background)
 681:User/e-Paper/GUI_Paint.c **** {
 6426              		.loc 1 681 1 is_stmt 1 view -0
 6427              		.cfi_startproc
 6428              		@ args = 8, pretend = 0, frame = 520
 6429              		@ frame_needed = 0, uses_anonymous_args = 0
 682:User/e-Paper/GUI_Paint.c **** 
 683:User/e-Paper/GUI_Paint.c ****     int16_t Num_Bit = 0, Str_Bit = 0;
 6430              		.loc 1 683 5 view .LVU1788
 684:User/e-Paper/GUI_Paint.c ****     uint8_t Str_Array[ARRAY_LEN] = {0}, Num_Array[ARRAY_LEN] = {0};
 6431              		.loc 1 684 5 view .LVU1789
 681:User/e-Paper/GUI_Paint.c **** 
 6432              		.loc 1 681 1 is_stmt 0 view .LVU1790
 6433 0000 F0B5     		push	{r4, r5, r6, r7, lr}
 6434              	.LCFI33:
 6435              		.cfi_def_cfa_offset 20
 6436              		.cfi_offset 4, -20
 6437              		.cfi_offset 5, -16
 6438              		.cfi_offset 6, -12
 6439              		.cfi_offset 7, -8
 6440              		.cfi_offset 14, -4
 6441 0002 DE46     		mov	lr, fp
 6442 0004 4E46     		mov	r6, r9
 6443 0006 4546     		mov	r5, r8
 6444 0008 5746     		mov	r7, r10
 6445 000a E0B5     		push	{r5, r6, r7, lr}
 6446              	.LCFI34:
 6447              		.cfi_def_cfa_offset 36
 6448              		.cfi_offset 8, -36
 6449              		.cfi_offset 9, -32
 6450              		.cfi_offset 10, -28
 6451              		.cfi_offset 11, -24
 6452 000c 3A4C     		ldr	r4, .L470
 6453 000e 9B46     		mov	fp, r3
 6454 0010 A544     		add	sp, sp, r4
 6455              	.LCFI35:
 6456              		.cfi_def_cfa_offset 568
 6457              		.loc 1 684 13 view .LVU1791
 6458 0012 0024     		movs	r4, #0
 681:User/e-Paper/GUI_Paint.c **** 
 6459              		.loc 1 681 1 view .LVU1792
 6460 0014 8EAB     		add	r3, sp, #568
 6461              	.LVL568:
 681:User/e-Paper/GUI_Paint.c **** 
 6462              		.loc 1 681 1 view .LVU1793
 6463 0016 1B88     		ldrh	r3, [r3]
 6464              	.LVL569:
 681:User/e-Paper/GUI_Paint.c **** 
 6465              		.loc 1 681 1 view .LVU1794
 6466 0018 0600     		movs	r6, r0
 6467 001a 0293     		str	r3, [sp, #8]
 6468 001c 8FAB     		add	r3, sp, #572
 6469              	.LVL570:
 681:User/e-Paper/GUI_Paint.c **** 
 6470              		.loc 1 681 1 view .LVU1795
ARM GAS  C:\Users\upo\AppData\Local\Temp\ccEC4369.s 			page 156


 6471 001e 1B88     		ldrh	r3, [r3]
 6472              	.LVL571:
 681:User/e-Paper/GUI_Paint.c **** 
 6473              		.loc 1 681 1 view .LVU1796
 6474 0020 8A46     		mov	r10, r1
 6475 0022 1500     		movs	r5, r2
 6476              		.loc 1 684 13 view .LVU1797
 6477 0024 0021     		movs	r1, #0
 6478              	.LVL572:
 6479              		.loc 1 684 13 view .LVU1798
 6480 0026 FB22     		movs	r2, #251
 6481              	.LVL573:
 6482              		.loc 1 684 13 view .LVU1799
 6483 0028 05A8     		add	r0, sp, #20
 6484              	.LVL574:
 681:User/e-Paper/GUI_Paint.c **** 
 6485              		.loc 1 681 1 view .LVU1800
 6486 002a 0393     		str	r3, [sp, #12]
 6487              		.loc 1 684 13 view .LVU1801
 6488 002c 0494     		str	r4, [sp, #16]
 6489 002e FFF7FEFF 		bl	memset
 6490              	.LVL575:
 6491              		.loc 1 684 41 view .LVU1802
 6492 0032 FB22     		movs	r2, #251
 6493 0034 0021     		movs	r1, #0
 6494 0036 45A8     		add	r0, sp, #276
 6495 0038 4494     		str	r4, [sp, #272]
 6496 003a FFF7FEFF 		bl	memset
 6497              	.LVL576:
 685:User/e-Paper/GUI_Paint.c ****     uint8_t *pStr = Str_Array;
 6498              		.loc 1 685 5 is_stmt 1 view .LVU1803
 686:User/e-Paper/GUI_Paint.c **** 
 687:User/e-Paper/GUI_Paint.c ****     if (Xpoint > Paint.Width || Ypoint > Paint.Height)
 6499              		.loc 1 687 5 view .LVU1804
 6500              		.loc 1 687 23 is_stmt 0 view .LVU1805
 6501 003e 2F4B     		ldr	r3, .L470+4
 6502 0040 9946     		mov	r9, r3
 6503 0042 9B88     		ldrh	r3, [r3, #4]
 6504 0044 9846     		mov	r8, r3
 6505              		.loc 1 687 8 view .LVU1806
 6506 0046 B342     		cmp	r3, r6
 6507 0048 4CD3     		bcc	.L452
 6508              		.loc 1 687 30 discriminator 1 view .LVU1807
 6509 004a 4B46     		mov	r3, r9
 6510 004c DB88     		ldrh	r3, [r3, #6]
 6511 004e 5345     		cmp	r3, r10
 6512 0050 48D3     		bcc	.L452
 688:User/e-Paper/GUI_Paint.c ****     {
 689:User/e-Paper/GUI_Paint.c ****         DE_BUG("Paint_DisNum Input exceeds the normal display range\r\n");
 690:User/e-Paper/GUI_Paint.c ****         return;
 691:User/e-Paper/GUI_Paint.c ****     }
 692:User/e-Paper/GUI_Paint.c **** 
 693:User/e-Paper/GUI_Paint.c ****     // Converts a number to a string
 694:User/e-Paper/GUI_Paint.c ****     while (Nummber)
 6513              		.loc 1 694 12 is_stmt 1 view .LVU1808
 6514 0052 44AF     		add	r7, sp, #272
 6515 0054 002D     		cmp	r5, #0
ARM GAS  C:\Users\upo\AppData\Local\Temp\ccEC4369.s 			page 157


 6516 0056 45D0     		beq	.L452
 6517              	.LVL577:
 6518              	.L454:
 695:User/e-Paper/GUI_Paint.c ****     {
 696:User/e-Paper/GUI_Paint.c ****         Num_Array[Num_Bit] = Nummber % 10 + '0';
 6519              		.loc 1 696 9 view .LVU1809
 6520              		.loc 1 696 38 is_stmt 0 view .LVU1810
 6521 0058 2800     		movs	r0, r5
 6522 005a 0A21     		movs	r1, #10
 6523 005c FFF7FEFF 		bl	__aeabi_idivmod
 6524              	.LVL578:
 6525              		.loc 1 696 43 view .LVU1811
 6526 0060 3031     		adds	r1, r1, #48
 6527              		.loc 1 696 28 view .LVU1812
 6528 0062 3955     		strb	r1, [r7, r4]
 697:User/e-Paper/GUI_Paint.c ****         Num_Bit++;
 6529              		.loc 1 697 9 is_stmt 1 view .LVU1813
 698:User/e-Paper/GUI_Paint.c ****         Nummber /= 10;
 6530              		.loc 1 698 17 is_stmt 0 view .LVU1814
 6531 0064 2800     		movs	r0, r5
 6532 0066 0A21     		movs	r1, #10
 6533 0068 FFF7FEFF 		bl	__aeabi_idiv
 6534              	.LVL579:
 6535 006c 0134     		adds	r4, r4, #1
 6536              	.LVL580:
 6537              		.loc 1 698 17 view .LVU1815
 6538 006e 0500     		movs	r5, r0
 6539              	.LVL581:
 697:User/e-Paper/GUI_Paint.c ****         Num_Bit++;
 6540              		.loc 1 697 16 view .LVU1816
 6541 0070 24B2     		sxth	r4, r4
 6542              		.loc 1 698 9 is_stmt 1 view .LVU1817
 6543              	.LVL582:
 694:User/e-Paper/GUI_Paint.c ****     {
 6544              		.loc 1 694 12 view .LVU1818
 6545 0072 0028     		cmp	r0, #0
 6546 0074 F0D1     		bne	.L454
 699:User/e-Paper/GUI_Paint.c ****     }
 700:User/e-Paper/GUI_Paint.c **** 
 701:User/e-Paper/GUI_Paint.c ****     // The string is inverted
 702:User/e-Paper/GUI_Paint.c ****     while (Num_Bit > 0)
 6547              		.loc 1 702 20 view .LVU1819
 6548 0076 002C     		cmp	r4, #0
 6549 0078 34DD     		ble	.L452
 6550              		.loc 1 702 20 is_stmt 0 view .LVU1820
 6551 007a 013C     		subs	r4, r4, #1
 6552              	.LVL583:
 6553              		.loc 1 702 20 view .LVU1821
 6554 007c 3F19     		adds	r7, r7, r4
 6555 007e 04AB     		add	r3, sp, #16
 6556              	.LVL584:
 6557              		.loc 1 702 20 view .LVU1822
 6558 0080 00E0     		b	.L456
 6559              	.LVL585:
 6560              	.L468:
 6561              		.loc 1 702 20 view .LVU1823
 6562 0082 013C     		subs	r4, r4, #1
ARM GAS  C:\Users\upo\AppData\Local\Temp\ccEC4369.s 			page 158


 6563              	.LVL586:
 6564              	.L456:
 703:User/e-Paper/GUI_Paint.c ****     {
 704:User/e-Paper/GUI_Paint.c ****         Str_Array[Str_Bit] = Num_Array[Num_Bit - 1];
 6565              		.loc 1 704 9 is_stmt 1 view .LVU1824
 6566              		.loc 1 704 28 is_stmt 0 view .LVU1825
 6567 0084 3A78     		ldrb	r2, [r7]
 6568 0086 24B2     		sxth	r4, r4
 6569              		.loc 1 704 28 view .LVU1826
 6570 0088 1A70     		strb	r2, [r3]
 705:User/e-Paper/GUI_Paint.c ****         Str_Bit++;
 6571              		.loc 1 705 9 is_stmt 1 view .LVU1827
 6572              	.LVL587:
 706:User/e-Paper/GUI_Paint.c ****         Num_Bit--;
 6573              		.loc 1 706 9 view .LVU1828
 702:User/e-Paper/GUI_Paint.c ****     {
 6574              		.loc 1 702 20 view .LVU1829
 6575 008a 013F     		subs	r7, r7, #1
 6576 008c 0133     		adds	r3, r3, #1
 6577              	.LVL588:
 702:User/e-Paper/GUI_Paint.c ****     {
 6578              		.loc 1 702 20 is_stmt 0 view .LVU1830
 6579 008e 002C     		cmp	r4, #0
 6580 0090 F7D1     		bne	.L468
 6581              	.LBB461:
 6582              	.LBB462:
 6583              	.LBB463:
 6584              	.LBB464:
 644:User/e-Paper/GUI_Paint.c ****     {
 6585              		.loc 1 644 12 view .LVU1831
 6586 0092 02AB     		add	r3, sp, #8
 6587 0094 1C7A     		ldrb	r4, [r3, #8]
 6588              	.LVL589:
 644:User/e-Paper/GUI_Paint.c ****     {
 6589              		.loc 1 644 21 is_stmt 1 view .LVU1832
 6590 0096 002C     		cmp	r4, #0
 6591 0098 24D0     		beq	.L452
 6592 009a 5B46     		mov	r3, fp
 6593 009c 04AD     		add	r5, sp, #16
 6594              	.LVL590:
 644:User/e-Paper/GUI_Paint.c ****     {
 6595              		.loc 1 644 21 is_stmt 0 view .LVU1833
 6596 009e 5B68     		ldr	r3, [r3, #4]
 6597 00a0 02E0     		b	.L459
 6598              	.LVL591:
 6599              	.L469:
 6600              	.LBB465:
 6601              	.LBB466:
 6602              	.LBB467:
 578:User/e-Paper/GUI_Paint.c ****     {
 6603              		.loc 1 578 23 view .LVU1834
 6604 00a2 4A46     		mov	r2, r9
 6605 00a4 9288     		ldrh	r2, [r2, #4]
 6606 00a6 9046     		mov	r8, r2
 6607              	.LVL592:
 6608              	.L459:
 578:User/e-Paper/GUI_Paint.c ****     {
ARM GAS  C:\Users\upo\AppData\Local\Temp\ccEC4369.s 			page 159


 6609              		.loc 1 578 23 view .LVU1835
 6610              	.LBE467:
 6611              	.LBE466:
 657:User/e-Paper/GUI_Paint.c **** 
 6612              		.loc 1 657 9 is_stmt 1 view .LVU1836
 6613              	.LBB469:
 6614              	.LBI466:
 573:User/e-Paper/GUI_Paint.c ****                     tFont *Font, UWORD Color_Foreground, UWORD Color_Background)
 6615              		.loc 1 573 6 view .LVU1837
 6616              	.LBB468:
 576:User/e-Paper/GUI_Paint.c **** 
 6617              		.loc 1 576 5 view .LVU1838
 578:User/e-Paper/GUI_Paint.c ****     {
 6618              		.loc 1 578 5 view .LVU1839
 578:User/e-Paper/GUI_Paint.c ****     {
 6619              		.loc 1 578 8 is_stmt 0 view .LVU1840
 6620 00a8 4645     		cmp	r6, r8
 6621 00aa 0ED8     		bhi	.L458
 578:User/e-Paper/GUI_Paint.c ****     {
 6622              		.loc 1 578 30 view .LVU1841
 6623 00ac 4A46     		mov	r2, r9
 6624 00ae D288     		ldrh	r2, [r2, #6]
 6625 00b0 5245     		cmp	r2, r10
 6626 00b2 0AD3     		bcc	.L458
 6627 00b4 039A     		ldr	r2, [sp, #12]
 6628 00b6 5146     		mov	r1, r10
 6629 00b8 0192     		str	r2, [sp, #4]
 6630 00ba 029A     		ldr	r2, [sp, #8]
 6631 00bc 3000     		movs	r0, r6
 6632 00be 0092     		str	r2, [sp]
 6633 00c0 2200     		movs	r2, r4
 6634 00c2 FFF7FEFF 		bl	Paint_DrawChar.part.0.isra.0
 6635              	.LVL593:
 6636              	.LBE468:
 6637              	.LBE469:
 661:User/e-Paper/GUI_Paint.c ****         // The next word of the abscissa increases the font of the broadband
 6638              		.loc 1 661 38 view .LVU1842
 6639 00c6 5B46     		mov	r3, fp
 6640 00c8 5B68     		ldr	r3, [r3, #4]
 6641              	.L458:
 6642              	.LVL594:
 661:User/e-Paper/GUI_Paint.c ****         // The next word of the abscissa increases the font of the broadband
 6643              		.loc 1 661 9 is_stmt 1 view .LVU1843
 663:User/e-Paper/GUI_Paint.c ****         pString++;
 6644              		.loc 1 663 9 view .LVU1844
 661:User/e-Paper/GUI_Paint.c ****         // The next word of the abscissa increases the font of the broadband
 6645              		.loc 1 661 44 is_stmt 0 view .LVU1845
 6646 00ca 0D4A     		ldr	r2, .L470+8
 664:User/e-Paper/GUI_Paint.c ****     }
 6647              		.loc 1 664 16 view .LVU1846
 6648 00cc 0135     		adds	r5, r5, #1
 6649              	.LVL595:
 661:User/e-Paper/GUI_Paint.c ****         // The next word of the abscissa increases the font of the broadband
 6650              		.loc 1 661 44 view .LVU1847
 6651 00ce 9446     		mov	ip, r2
 6652 00d0 6444     		add	r4, r4, ip
 6653              	.LVL596:
ARM GAS  C:\Users\upo\AppData\Local\Temp\ccEC4369.s 			page 160


 661:User/e-Paper/GUI_Paint.c ****         // The next word of the abscissa increases the font of the broadband
 6654              		.loc 1 661 60 view .LVU1848
 6655 00d2 E400     		lsls	r4, r4, #3
 661:User/e-Paper/GUI_Paint.c ****         // The next word of the abscissa increases the font of the broadband
 6656              		.loc 1 661 66 view .LVU1849
 6657 00d4 1C19     		adds	r4, r3, r4
 6658 00d6 6268     		ldr	r2, [r4, #4]
 6659              	.LBE465:
 644:User/e-Paper/GUI_Paint.c ****     {
 6660              		.loc 1 644 12 view .LVU1850
 6661 00d8 2C78     		ldrb	r4, [r5]
 6662              	.LBB470:
 663:User/e-Paper/GUI_Paint.c ****         pString++;
 6663              		.loc 1 663 16 view .LVU1851
 6664 00da 9288     		ldrh	r2, [r2, #4]
 6665 00dc B618     		adds	r6, r6, r2
 6666              	.LVL597:
 663:User/e-Paper/GUI_Paint.c ****         pString++;
 6667              		.loc 1 663 16 view .LVU1852
 6668 00de B6B2     		uxth	r6, r6
 6669              	.LVL598:
 664:User/e-Paper/GUI_Paint.c ****     }
 6670              		.loc 1 664 9 is_stmt 1 view .LVU1853
 664:User/e-Paper/GUI_Paint.c ****     }
 6671              		.loc 1 664 9 is_stmt 0 view .LVU1854
 6672              	.LBE470:
 644:User/e-Paper/GUI_Paint.c ****     {
 6673              		.loc 1 644 21 is_stmt 1 view .LVU1855
 6674 00e0 002C     		cmp	r4, #0
 6675 00e2 DED1     		bne	.L469
 6676              	.LVL599:
 6677              	.L452:
 644:User/e-Paper/GUI_Paint.c ****     {
 6678              		.loc 1 644 21 is_stmt 0 view .LVU1856
 6679              	.LBE464:
 6680              	.LBE463:
 6681              	.LBE462:
 6682              	.LBE461:
 707:User/e-Paper/GUI_Paint.c ****     }
 708:User/e-Paper/GUI_Paint.c **** 
 709:User/e-Paper/GUI_Paint.c ****     // show
 710:User/e-Paper/GUI_Paint.c ****     Paint_DrawString_EN(Xpoint, Ypoint, (const char *)pStr, Font, Color_Background, Color_Foregroun
 711:User/e-Paper/GUI_Paint.c **** }
 6683              		.loc 1 711 1 view .LVU1857
 6684 00e4 8523     		movs	r3, #133
 6685 00e6 9B00     		lsls	r3, r3, #2
 6686 00e8 9D44     		add	sp, sp, r3
 6687              		@ sp needed
 6688              	.LVL600:
 6689              		.loc 1 711 1 view .LVU1858
 6690 00ea F0BC     		pop	{r4, r5, r6, r7}
 6691 00ec BB46     		mov	fp, r7
 6692 00ee B246     		mov	r10, r6
 6693 00f0 A946     		mov	r9, r5
 6694 00f2 A046     		mov	r8, r4
 6695 00f4 F0BD     		pop	{r4, r5, r6, r7, pc}
 6696              	.L471:
ARM GAS  C:\Users\upo\AppData\Local\Temp\ccEC4369.s 			page 161


 6697 00f6 C046     		.align	2
 6698              	.L470:
 6699 00f8 ECFDFFFF 		.word	-532
 6700 00fc 00000000 		.word	Paint
 6701 0100 E0FFFF1F 		.word	536870880
 6702              		.cfi_endproc
 6703              	.LFE1439:
 6705              		.global	__aeabi_uidiv
 6706              		.section	.rodata.Paint_DrawTime.str1.4,"aMS",%progbits,1
 6707              		.align	2
 6708              	.LC32:
 6709 0000 30313233 		.ascii	"0123456789\000"
 6709      34353637 
 6709      383900
 6710              		.section	.text.Paint_DrawTime,"ax",%progbits
 6711              		.align	1
 6712              		.p2align 2,,3
 6713              		.global	Paint_DrawTime
 6714              		.syntax unified
 6715              		.code	16
 6716              		.thumb_func
 6718              	Paint_DrawTime:
 6719              	.LVL601:
 6720              	.LFB1440:
 712:User/e-Paper/GUI_Paint.c **** 
 713:User/e-Paper/GUI_Paint.c **** /******************************************************************************
 714:User/e-Paper/GUI_Paint.c **** function:	Display time
 715:User/e-Paper/GUI_Paint.c **** parameter:
 716:User/e-Paper/GUI_Paint.c ****     Xstart           ：X coordinate
 717:User/e-Paper/GUI_Paint.c ****     Ystart           : Y coordinate
 718:User/e-Paper/GUI_Paint.c ****     pTime            : Time-related structures
 719:User/e-Paper/GUI_Paint.c ****     Font             ：A structure pointer that displays a character size
 720:User/e-Paper/GUI_Paint.c ****     Color_Foreground : Select the foreground color
 721:User/e-Paper/GUI_Paint.c ****     Color_Background : Select the background color
 722:User/e-Paper/GUI_Paint.c **** ******************************************************************************/
 723:User/e-Paper/GUI_Paint.c **** void Paint_DrawTime(UWORD Xstart, UWORD Ystart, PAINT_TIME *pTime, tFont *Font,
 724:User/e-Paper/GUI_Paint.c ****                     UWORD Color_Foreground, UWORD Color_Background)
 725:User/e-Paper/GUI_Paint.c **** {
 6721              		.loc 1 725 1 is_stmt 1 view -0
 6722              		.cfi_startproc
 6723              		@ args = 8, pretend = 0, frame = 24
 6724              		@ frame_needed = 0, uses_anonymous_args = 0
 726:User/e-Paper/GUI_Paint.c ****     //		uint32_t font_Width = (*Font).chars[Acsii_Char - ' '].image->width;
 727:User/e-Paper/GUI_Paint.c ****     //		uint32_t font_Height = (*Font).chars[Acsii_Char - ' ' ].image->height;
 728:User/e-Paper/GUI_Paint.c **** 
 729:User/e-Paper/GUI_Paint.c ****     uint8_t value[10] = {'0', '1', '2', '3', '4', '5', '6', '7', '8', '9'};
 6725              		.loc 1 729 5 view .LVU1860
 725:User/e-Paper/GUI_Paint.c ****     //		uint32_t font_Width = (*Font).chars[Acsii_Char - ' '].image->width;
 6726              		.loc 1 725 1 is_stmt 0 view .LVU1861
 6727 0000 F0B5     		push	{r4, r5, r6, r7, lr}
 6728              	.LCFI36:
 6729              		.cfi_def_cfa_offset 20
 6730              		.cfi_offset 4, -20
 6731              		.cfi_offset 5, -16
 6732              		.cfi_offset 6, -12
 6733              		.cfi_offset 7, -8
 6734              		.cfi_offset 14, -4
ARM GAS  C:\Users\upo\AppData\Local\Temp\ccEC4369.s 			page 162


 6735 0002 5746     		mov	r7, r10
 6736 0004 4E46     		mov	r6, r9
 6737 0006 4546     		mov	r5, r8
 6738 0008 DE46     		mov	lr, fp
 6739 000a 9146     		mov	r9, r2
 6740 000c E0B5     		push	{r5, r6, r7, lr}
 6741              	.LCFI37:
 6742              		.cfi_def_cfa_offset 36
 6743              		.cfi_offset 8, -36
 6744              		.cfi_offset 9, -32
 6745              		.cfi_offset 10, -28
 6746              		.cfi_offset 11, -24
 6747 000e 89B0     		sub	sp, sp, #36
 6748              	.LCFI38:
 6749              		.cfi_def_cfa_offset 72
 725:User/e-Paper/GUI_Paint.c ****     //		uint32_t font_Width = (*Font).chars[Acsii_Char - ' '].image->width;
 6750              		.loc 1 725 1 view .LVU1862
 6751 0010 9A46     		mov	r10, r3
 6752 0012 12AB     		add	r3, sp, #72
 6753              	.LVL602:
 725:User/e-Paper/GUI_Paint.c ****     //		uint32_t font_Width = (*Font).chars[Acsii_Char - ' '].image->width;
 6754              		.loc 1 725 1 view .LVU1863
 6755 0014 1B88     		ldrh	r3, [r3]
 6756              	.LVL603:
 725:User/e-Paper/GUI_Paint.c ****     //		uint32_t font_Width = (*Font).chars[Acsii_Char - ' '].image->width;
 6757              		.loc 1 725 1 view .LVU1864
 6758 0016 0400     		movs	r4, r0
 6759 0018 0293     		str	r3, [sp, #8]
 6760 001a 13AB     		add	r3, sp, #76
 6761              	.LVL604:
 725:User/e-Paper/GUI_Paint.c ****     //		uint32_t font_Width = (*Font).chars[Acsii_Char - ' '].image->width;
 6762              		.loc 1 725 1 view .LVU1865
 6763 001c 1A88     		ldrh	r2, [r3]
 6764              	.LVL605:
 6765              		.loc 1 729 13 view .LVU1866
 6766 001e 4D4B     		ldr	r3, .L481
 6767              	.LVL606:
 725:User/e-Paper/GUI_Paint.c ****     //		uint32_t font_Width = (*Font).chars[Acsii_Char - ' '].image->width;
 6768              		.loc 1 725 1 view .LVU1867
 6769 0020 9346     		mov	fp, r2
 6770              		.loc 1 729 13 view .LVU1868
 6771 0022 05AA     		add	r2, sp, #20
 725:User/e-Paper/GUI_Paint.c ****     //		uint32_t font_Width = (*Font).chars[Acsii_Char - ' '].image->width;
 6772              		.loc 1 725 1 view .LVU1869
 6773 0024 0D00     		movs	r5, r1
 6774              		.loc 1 729 13 view .LVU1870
 6775 0026 9046     		mov	r8, r2
 6776 0028 03CB     		ldmia	r3!, {r0, r1}
 6777 002a 03C2     		stmia	r2!, {r0, r1}
 6778              	.LVL607:
 6779              		.loc 1 729 13 view .LVU1871
 6780 002c 1B88     		ldrh	r3, [r3]
 6781              	.LBB471:
 6782              	.LBB472:
 578:User/e-Paper/GUI_Paint.c ****     {
 6783              		.loc 1 578 23 view .LVU1872
 6784 002e 4A4F     		ldr	r7, .L481+4
ARM GAS  C:\Users\upo\AppData\Local\Temp\ccEC4369.s 			page 163


 6785              	.LBE472:
 6786              	.LBE471:
 6787              		.loc 1 729 13 view .LVU1873
 6788 0030 1380     		strh	r3, [r2]
 730:User/e-Paper/GUI_Paint.c **** 
 731:User/e-Paper/GUI_Paint.c ****     UWORD Dx = 18;
 6789              		.loc 1 731 5 is_stmt 1 view .LVU1874
 6790              	.LVL608:
 732:User/e-Paper/GUI_Paint.c **** 
 733:User/e-Paper/GUI_Paint.c ****     // Write data into the cache
 734:User/e-Paper/GUI_Paint.c ****     //    Paint_DrawChar(Xstart                           , Ystart, value[pTime->Hour / 10], Font, 
 735:User/e-Paper/GUI_Paint.c ****     //    Paint_DrawChar(Xstart + Dx                      , Ystart, value[pTime->Hour % 10], Font, 
 736:User/e-Paper/GUI_Paint.c ****     //    Paint_DrawChar(Xstart + Dx  + Dx / 4 + Dx / 2   , Ystart, ':'                    , Font, 
 737:User/e-Paper/GUI_Paint.c ****     //    Paint_DrawChar(Xstart + Dx * 2 + Dx / 2         , Ystart, value[pTime->Min / 10] , Font, 
 738:User/e-Paper/GUI_Paint.c ****     //    Paint_DrawChar(Xstart + Dx * 3 + Dx / 2         , Ystart, value[pTime->Min % 10] , Font, 
 739:User/e-Paper/GUI_Paint.c ****     //    Paint_DrawChar(Xstart + Dx * 4 + Dx / 2 - Dx / 4, Ystart, ':'                    , Font, 
 740:User/e-Paper/GUI_Paint.c ****     //    Paint_DrawChar(Xstart + Dx * 5                  , Ystart, value[pTime->Sec / 10] , Font, 
 741:User/e-Paper/GUI_Paint.c ****     //    Paint_DrawChar(Xstart + Dx * 6                  , Ystart, value[pTime->Sec % 10] , Font, 
 742:User/e-Paper/GUI_Paint.c **** 
 743:User/e-Paper/GUI_Paint.c ****     Paint_DrawChar(Xstart, Ystart, value[pTime->Min / 10], Font, Color_Background, Color_Foreground
 6791              		.loc 1 743 5 view .LVU1875
 6792              		.loc 1 743 47 is_stmt 0 view .LVU1876
 6793 0032 4A46     		mov	r2, r9
 6794              	.LBB478:
 6795              	.LBB473:
 578:User/e-Paper/GUI_Paint.c ****     {
 6796              		.loc 1 578 23 view .LVU1877
 6797 0034 BE88     		ldrh	r6, [r7, #4]
 6798              	.LBE473:
 6799              	.LBE478:
 6800              		.loc 1 743 47 view .LVU1878
 6801 0036 5079     		ldrb	r0, [r2, #5]
 6802              	.LVL609:
 6803              	.LBB479:
 6804              	.LBI471:
 573:User/e-Paper/GUI_Paint.c ****                     tFont *Font, UWORD Color_Foreground, UWORD Color_Background)
 6805              		.loc 1 573 6 is_stmt 1 view .LVU1879
 6806              	.LBB474:
 576:User/e-Paper/GUI_Paint.c **** 
 6807              		.loc 1 576 5 view .LVU1880
 578:User/e-Paper/GUI_Paint.c ****     {
 6808              		.loc 1 578 5 view .LVU1881
 578:User/e-Paper/GUI_Paint.c ****     {
 6809              		.loc 1 578 8 is_stmt 0 view .LVU1882
 6810 0038 B442     		cmp	r4, r6
 6811 003a 16D8     		bhi	.L473
 578:User/e-Paper/GUI_Paint.c ****     {
 6812              		.loc 1 578 30 view .LVU1883
 6813 003c FB88     		ldrh	r3, [r7, #6]
 6814 003e AB42     		cmp	r3, r5
 6815 0040 13D3     		bcc	.L473
 6816 0042 5246     		mov	r2, r10
 6817              	.LBE474:
 6818              	.LBE479:
 6819              		.loc 1 743 53 view .LVU1884
 6820 0044 0A21     		movs	r1, #10
 6821              	.LBB480:
ARM GAS  C:\Users\upo\AppData\Local\Temp\ccEC4369.s 			page 164


 6822              	.LBB475:
 6823 0046 5668     		ldr	r6, [r2, #4]
 6824              	.LBE475:
 6825              	.LBE480:
 6826 0048 FFF7FEFF 		bl	__aeabi_uidiv
 6827              	.LVL610:
 6828              	.LBB481:
 6829              	.LBB476:
 6830              		.loc 1 743 53 view .LVU1885
 6831 004c 4246     		mov	r2, r8
 6832 004e 029B     		ldr	r3, [sp, #8]
 6833              	.LBE476:
 6834              	.LBE481:
 6835 0050 C0B2     		uxtb	r0, r0
 6836              	.LBB482:
 6837              	.LBB477:
 6838 0052 125C     		ldrb	r2, [r2, r0]
 6839 0054 0193     		str	r3, [sp, #4]
 6840              		.loc 1 743 53 view .LVU1886
 6841 0056 5B46     		mov	r3, fp
 6842 0058 2000     		movs	r0, r4
 6843 005a 0093     		str	r3, [sp]
 6844 005c 2900     		movs	r1, r5
 6845 005e 3300     		movs	r3, r6
 6846 0060 FFF7FEFF 		bl	Paint_DrawChar.part.0.isra.0
 6847              	.LVL611:
 6848              	.LBE477:
 6849              	.LBE482:
 744:User/e-Paper/GUI_Paint.c ****     Paint_DrawChar(Xstart + Dx, Ystart, value[pTime->Min % 10], Font, Color_Background, Color_Foreg
 6850              		.loc 1 744 52 view .LVU1887
 6851 0064 4B46     		mov	r3, r9
 6852              	.LBB483:
 6853              	.LBB484:
 578:User/e-Paper/GUI_Paint.c ****     {
 6854              		.loc 1 578 23 view .LVU1888
 6855 0066 BE88     		ldrh	r6, [r7, #4]
 6856              	.LBE484:
 6857              	.LBE483:
 6858              		.loc 1 744 52 view .LVU1889
 6859 0068 5879     		ldrb	r0, [r3, #5]
 6860              	.L473:
 6861              	.LVL612:
 6862              		.loc 1 744 5 is_stmt 1 view .LVU1890
 6863 006a 2300     		movs	r3, r4
 6864 006c 1233     		adds	r3, r3, #18
 6865 006e 9BB2     		uxth	r3, r3
 6866              	.LVL613:
 6867              	.LBB489:
 6868              	.LBI483:
 573:User/e-Paper/GUI_Paint.c ****                     tFont *Font, UWORD Color_Foreground, UWORD Color_Background)
 6869              		.loc 1 573 6 view .LVU1891
 6870              	.LBB485:
 576:User/e-Paper/GUI_Paint.c **** 
 6871              		.loc 1 576 5 view .LVU1892
 578:User/e-Paper/GUI_Paint.c ****     {
 6872              		.loc 1 578 5 view .LVU1893
 578:User/e-Paper/GUI_Paint.c ****     {
ARM GAS  C:\Users\upo\AppData\Local\Temp\ccEC4369.s 			page 165


 6873              		.loc 1 578 8 is_stmt 0 view .LVU1894
 6874 0070 0393     		str	r3, [sp, #12]
 6875 0072 B342     		cmp	r3, r6
 6876 0074 14D8     		bhi	.L474
 578:User/e-Paper/GUI_Paint.c ****     {
 6877              		.loc 1 578 30 view .LVU1895
 6878 0076 FB88     		ldrh	r3, [r7, #6]
 6879              	.LVL614:
 578:User/e-Paper/GUI_Paint.c ****     {
 6880              		.loc 1 578 30 view .LVU1896
 6881 0078 AB42     		cmp	r3, r5
 6882 007a 11D3     		bcc	.L474
 6883 007c 5246     		mov	r2, r10
 6884              	.LBE485:
 6885              	.LBE489:
 6886              		.loc 1 744 58 view .LVU1897
 6887 007e 0A21     		movs	r1, #10
 6888              	.LBB490:
 6889              	.LBB486:
 6890 0080 5668     		ldr	r6, [r2, #4]
 6891              	.LBE486:
 6892              	.LBE490:
 6893 0082 FFF7FEFF 		bl	__aeabi_uidivmod
 6894              	.LVL615:
 6895              	.LBB491:
 6896              	.LBB487:
 6897              		.loc 1 744 58 view .LVU1898
 6898 0086 4246     		mov	r2, r8
 6899              	.LBE487:
 6900              	.LBE491:
 6901 0088 C9B2     		uxtb	r1, r1
 6902              	.LBB492:
 6903              	.LBB488:
 6904 008a 525C     		ldrb	r2, [r2, r1]
 6905 008c 0299     		ldr	r1, [sp, #8]
 6906 008e 3300     		movs	r3, r6
 6907 0090 0191     		str	r1, [sp, #4]
 6908              		.loc 1 744 58 view .LVU1899
 6909 0092 5946     		mov	r1, fp
 6910 0094 0398     		ldr	r0, [sp, #12]
 6911 0096 0091     		str	r1, [sp]
 6912 0098 2900     		movs	r1, r5
 6913 009a FFF7FEFF 		bl	Paint_DrawChar.part.0.isra.0
 6914              	.LVL616:
 6915              	.LBE488:
 6916              	.LBE492:
 6917              	.LBB493:
 6918              	.LBB494:
 578:User/e-Paper/GUI_Paint.c ****     {
 6919              		.loc 1 578 23 view .LVU1900
 6920 009e BE88     		ldrh	r6, [r7, #4]
 6921              	.L474:
 6922              	.LVL617:
 578:User/e-Paper/GUI_Paint.c ****     {
 6923              		.loc 1 578 23 view .LVU1901
 6924              	.LBE494:
 6925              	.LBE493:
ARM GAS  C:\Users\upo\AppData\Local\Temp\ccEC4369.s 			page 166


 745:User/e-Paper/GUI_Paint.c ****     Paint_DrawChar(Xstart + Dx + Dx / 4 + Dx / 2, Ystart, ':', Font, Color_Background, Color_Foregr
 6926              		.loc 1 745 5 is_stmt 1 view .LVU1902
 6927 00a0 2000     		movs	r0, r4
 6928 00a2 1F30     		adds	r0, r0, #31
 6929 00a4 80B2     		uxth	r0, r0
 6930              	.LVL618:
 6931              	.LBB496:
 6932              	.LBI493:
 573:User/e-Paper/GUI_Paint.c ****                     tFont *Font, UWORD Color_Foreground, UWORD Color_Background)
 6933              		.loc 1 573 6 view .LVU1903
 6934              	.LBB495:
 576:User/e-Paper/GUI_Paint.c **** 
 6935              		.loc 1 576 5 view .LVU1904
 578:User/e-Paper/GUI_Paint.c ****     {
 6936              		.loc 1 578 5 view .LVU1905
 578:User/e-Paper/GUI_Paint.c ****     {
 6937              		.loc 1 578 8 is_stmt 0 view .LVU1906
 6938 00a6 B042     		cmp	r0, r6
 6939 00a8 0DD8     		bhi	.L475
 578:User/e-Paper/GUI_Paint.c ****     {
 6940              		.loc 1 578 30 view .LVU1907
 6941 00aa FB88     		ldrh	r3, [r7, #6]
 6942 00ac AB42     		cmp	r3, r5
 6943 00ae 46D3     		bcc	.L476
 6944 00b0 5346     		mov	r3, r10
 6945 00b2 029A     		ldr	r2, [sp, #8]
 6946 00b4 5B68     		ldr	r3, [r3, #4]
 6947 00b6 0192     		str	r2, [sp, #4]
 6948 00b8 5A46     		mov	r2, fp
 6949 00ba 2900     		movs	r1, r5
 6950 00bc 0092     		str	r2, [sp]
 6951 00be 3A22     		movs	r2, #58
 6952 00c0 FFF7FEFF 		bl	Paint_DrawChar.part.0.isra.0
 6953              	.LVL619:
 578:User/e-Paper/GUI_Paint.c ****     {
 6954              		.loc 1 578 30 view .LVU1908
 6955              	.LBE495:
 6956              	.LBE496:
 6957              	.LBB497:
 6958              	.LBB498:
 578:User/e-Paper/GUI_Paint.c ****     {
 6959              		.loc 1 578 23 view .LVU1909
 6960 00c4 BE88     		ldrh	r6, [r7, #4]
 6961              	.L475:
 6962              	.LVL620:
 578:User/e-Paper/GUI_Paint.c ****     {
 6963              		.loc 1 578 23 view .LVU1910
 6964              	.LBE498:
 6965              	.LBE497:
 746:User/e-Paper/GUI_Paint.c ****     Paint_DrawChar(Xstart + Dx * 2 + Dx / 2, Ystart, value[pTime->Sec / 10], Font, Color_Background
 6966              		.loc 1 746 5 is_stmt 1 view .LVU1911
 6967 00c6 2300     		movs	r3, r4
 6968              		.loc 1 746 65 is_stmt 0 view .LVU1912
 6969 00c8 4A46     		mov	r2, r9
 6970              		.loc 1 746 5 view .LVU1913
 6971 00ca 2D33     		adds	r3, r3, #45
 6972 00cc 9BB2     		uxth	r3, r3
ARM GAS  C:\Users\upo\AppData\Local\Temp\ccEC4369.s 			page 167


 747:User/e-Paper/GUI_Paint.c ****     Paint_DrawChar(Xstart + Dx * 3 + Dx / 2, Ystart, value[pTime->Sec % 10], Font, Color_Background
 6973              		.loc 1 747 5 view .LVU1914
 6974 00ce 3F34     		adds	r4, r4, #63
 746:User/e-Paper/GUI_Paint.c ****     Paint_DrawChar(Xstart + Dx * 2 + Dx / 2, Ystart, value[pTime->Sec / 10], Font, Color_Background
 6975              		.loc 1 746 65 view .LVU1915
 6976 00d0 9079     		ldrb	r0, [r2, #6]
 6977              	.LVL621:
 6978              	.LBB505:
 6979              	.LBI497:
 573:User/e-Paper/GUI_Paint.c ****                     tFont *Font, UWORD Color_Foreground, UWORD Color_Background)
 6980              		.loc 1 573 6 is_stmt 1 view .LVU1916
 6981              	.LBB499:
 576:User/e-Paper/GUI_Paint.c **** 
 6982              		.loc 1 576 5 view .LVU1917
 578:User/e-Paper/GUI_Paint.c ****     {
 6983              		.loc 1 578 5 view .LVU1918
 6984              	.LBE499:
 6985              	.LBE505:
 6986              		.loc 1 747 5 is_stmt 0 view .LVU1919
 6987 00d2 A4B2     		uxth	r4, r4
 6988              	.LBB506:
 6989              	.LBB500:
 578:User/e-Paper/GUI_Paint.c ****     {
 6990              		.loc 1 578 8 view .LVU1920
 6991 00d4 0393     		str	r3, [sp, #12]
 6992 00d6 B342     		cmp	r3, r6
 6993 00d8 15D8     		bhi	.L477
 6994              	.LVL622:
 578:User/e-Paper/GUI_Paint.c ****     {
 6995              		.loc 1 578 8 view .LVU1921
 6996              	.LBE500:
 6997              	.LBE506:
 746:User/e-Paper/GUI_Paint.c ****     Paint_DrawChar(Xstart + Dx * 3 + Dx / 2, Ystart, value[pTime->Sec % 10], Font, Color_Background
 6998              		.loc 1 746 71 view .LVU1922
 6999 00da 0A21     		movs	r1, #10
 7000 00dc FFF7FEFF 		bl	__aeabi_uidiv
 7001              	.LVL623:
 746:User/e-Paper/GUI_Paint.c ****     Paint_DrawChar(Xstart + Dx * 3 + Dx / 2, Ystart, value[pTime->Sec % 10], Font, Color_Background
 7002              		.loc 1 746 59 view .LVU1923
 7003 00e0 4246     		mov	r2, r8
 7004              	.LBB507:
 7005              	.LBB501:
 578:User/e-Paper/GUI_Paint.c ****     {
 7006              		.loc 1 578 30 view .LVU1924
 7007 00e2 FB88     		ldrh	r3, [r7, #6]
 7008              	.LBE501:
 7009              	.LBE507:
 746:User/e-Paper/GUI_Paint.c ****     Paint_DrawChar(Xstart + Dx * 3 + Dx / 2, Ystart, value[pTime->Sec % 10], Font, Color_Background
 7010              		.loc 1 746 71 view .LVU1925
 7011 00e4 C0B2     		uxtb	r0, r0
 746:User/e-Paper/GUI_Paint.c ****     Paint_DrawChar(Xstart + Dx * 3 + Dx / 2, Ystart, value[pTime->Sec % 10], Font, Color_Background
 7012              		.loc 1 746 59 view .LVU1926
 7013 00e6 125C     		ldrb	r2, [r2, r0]
 7014              	.LBB508:
 7015              	.LBB502:
 578:User/e-Paper/GUI_Paint.c ****     {
 7016              		.loc 1 578 30 view .LVU1927
ARM GAS  C:\Users\upo\AppData\Local\Temp\ccEC4369.s 			page 168


 7017 00e8 AB42     		cmp	r3, r5
 7018 00ea 21D3     		bcc	.L472
 7019 00ec 5146     		mov	r1, r10
 7020 00ee 4B68     		ldr	r3, [r1, #4]
 7021 00f0 0299     		ldr	r1, [sp, #8]
 7022 00f2 0398     		ldr	r0, [sp, #12]
 7023 00f4 0191     		str	r1, [sp, #4]
 578:User/e-Paper/GUI_Paint.c ****     {
 7024              		.loc 1 578 30 view .LVU1928
 7025 00f6 5946     		mov	r1, fp
 7026 00f8 0091     		str	r1, [sp]
 7027 00fa 2900     		movs	r1, r5
 7028 00fc FFF7FEFF 		bl	Paint_DrawChar.part.0.isra.0
 7029              	.LVL624:
 7030              	.LBE502:
 7031              	.LBE508:
 7032              		.loc 1 747 65 view .LVU1929
 7033 0100 4B46     		mov	r3, r9
 7034              	.LBB509:
 7035              	.LBB510:
 578:User/e-Paper/GUI_Paint.c ****     {
 7036              		.loc 1 578 23 view .LVU1930
 7037 0102 BE88     		ldrh	r6, [r7, #4]
 7038              	.LBE510:
 7039              	.LBE509:
 7040              		.loc 1 747 65 view .LVU1931
 7041 0104 9879     		ldrb	r0, [r3, #6]
 7042              	.LVL625:
 7043              	.L477:
 7044              		.loc 1 747 5 is_stmt 1 view .LVU1932
 7045              		.loc 1 747 71 is_stmt 0 view .LVU1933
 7046 0106 0A21     		movs	r1, #10
 7047 0108 FFF7FEFF 		bl	__aeabi_uidivmod
 7048              	.LVL626:
 7049              		.loc 1 747 59 view .LVU1934
 7050 010c 4346     		mov	r3, r8
 7051              		.loc 1 747 71 view .LVU1935
 7052 010e C9B2     		uxtb	r1, r1
 7053              		.loc 1 747 59 view .LVU1936
 7054 0110 5A5C     		ldrb	r2, [r3, r1]
 7055              	.LVL627:
 7056              	.LBB512:
 7057              	.LBI509:
 573:User/e-Paper/GUI_Paint.c ****                     tFont *Font, UWORD Color_Foreground, UWORD Color_Background)
 7058              		.loc 1 573 6 is_stmt 1 view .LVU1937
 7059              	.LBB511:
 576:User/e-Paper/GUI_Paint.c **** 
 7060              		.loc 1 576 5 view .LVU1938
 578:User/e-Paper/GUI_Paint.c ****     {
 7061              		.loc 1 578 5 view .LVU1939
 578:User/e-Paper/GUI_Paint.c ****     {
 7062              		.loc 1 578 8 is_stmt 0 view .LVU1940
 7063 0112 B442     		cmp	r4, r6
 7064 0114 0CD8     		bhi	.L472
 578:User/e-Paper/GUI_Paint.c ****     {
 7065              		.loc 1 578 30 view .LVU1941
 7066 0116 FB88     		ldrh	r3, [r7, #6]
ARM GAS  C:\Users\upo\AppData\Local\Temp\ccEC4369.s 			page 169


 7067              	.LVL628:
 578:User/e-Paper/GUI_Paint.c ****     {
 7068              		.loc 1 578 30 view .LVU1942
 7069 0118 AB42     		cmp	r3, r5
 7070 011a 09D3     		bcc	.L472
 7071 011c 5346     		mov	r3, r10
 7072 011e 0299     		ldr	r1, [sp, #8]
 7073              	.LVL629:
 578:User/e-Paper/GUI_Paint.c ****     {
 7074              		.loc 1 578 30 view .LVU1943
 7075 0120 5B68     		ldr	r3, [r3, #4]
 7076 0122 0191     		str	r1, [sp, #4]
 578:User/e-Paper/GUI_Paint.c ****     {
 7077              		.loc 1 578 30 view .LVU1944
 7078 0124 5946     		mov	r1, fp
 7079 0126 2000     		movs	r0, r4
 7080 0128 0091     		str	r1, [sp]
 7081 012a 2900     		movs	r1, r5
 7082 012c FFF7FEFF 		bl	Paint_DrawChar.part.0.isra.0
 7083              	.LVL630:
 7084              	.L472:
 578:User/e-Paper/GUI_Paint.c ****     {
 7085              		.loc 1 578 30 view .LVU1945
 7086              	.LBE511:
 7087              	.LBE512:
 748:User/e-Paper/GUI_Paint.c **** }
 7088              		.loc 1 748 1 view .LVU1946
 7089 0130 09B0     		add	sp, sp, #36
 7090              		@ sp needed
 7091              	.LVL631:
 7092              	.LVL632:
 7093              		.loc 1 748 1 view .LVU1947
 7094 0132 F0BC     		pop	{r4, r5, r6, r7}
 7095 0134 BB46     		mov	fp, r7
 7096 0136 B246     		mov	r10, r6
 7097 0138 A946     		mov	r9, r5
 7098 013a A046     		mov	r8, r4
 7099 013c F0BD     		pop	{r4, r5, r6, r7, pc}
 7100              	.LVL633:
 7101              	.L476:
 746:User/e-Paper/GUI_Paint.c ****     Paint_DrawChar(Xstart + Dx * 3 + Dx / 2, Ystart, value[pTime->Sec % 10], Font, Color_Background
 7102              		.loc 1 746 5 is_stmt 1 view .LVU1948
 746:User/e-Paper/GUI_Paint.c ****     Paint_DrawChar(Xstart + Dx * 3 + Dx / 2, Ystart, value[pTime->Sec % 10], Font, Color_Background
 7103              		.loc 1 746 65 is_stmt 0 view .LVU1949
 7104 013e 4B46     		mov	r3, r9
 7105 0140 9879     		ldrb	r0, [r3, #6]
 7106              	.LVL634:
 7107              	.LBB513:
 573:User/e-Paper/GUI_Paint.c ****                     tFont *Font, UWORD Color_Foreground, UWORD Color_Background)
 7108              		.loc 1 573 6 is_stmt 1 view .LVU1950
 7109              	.LBB503:
 576:User/e-Paper/GUI_Paint.c **** 
 7110              		.loc 1 576 5 view .LVU1951
 578:User/e-Paper/GUI_Paint.c ****     {
 7111              		.loc 1 578 5 view .LVU1952
 7112              	.LBE503:
 7113              	.LBE513:
ARM GAS  C:\Users\upo\AppData\Local\Temp\ccEC4369.s 			page 170


 746:User/e-Paper/GUI_Paint.c ****     Paint_DrawChar(Xstart + Dx * 3 + Dx / 2, Ystart, value[pTime->Sec % 10], Font, Color_Background
 7114              		.loc 1 746 5 is_stmt 0 view .LVU1953
 7115 0142 2300     		movs	r3, r4
 7116 0144 2D33     		adds	r3, r3, #45
 7117              	.LBB514:
 7118              	.LBB504:
 578:User/e-Paper/GUI_Paint.c ****     {
 7119              		.loc 1 578 8 view .LVU1954
 7120 0146 9BB2     		uxth	r3, r3
 7121 0148 B342     		cmp	r3, r6
 7122 014a F1D9     		bls	.L472
 7123              	.LBE504:
 7124              	.LBE514:
 747:User/e-Paper/GUI_Paint.c **** }
 7125              		.loc 1 747 5 view .LVU1955
 7126 014c 3F34     		adds	r4, r4, #63
 7127              	.LVL635:
 747:User/e-Paper/GUI_Paint.c **** }
 7128              		.loc 1 747 5 view .LVU1956
 7129 014e A4B2     		uxth	r4, r4
 7130              	.LVL636:
 747:User/e-Paper/GUI_Paint.c **** }
 7131              		.loc 1 747 5 view .LVU1957
 7132 0150 D9E7     		b	.L477
 7133              	.L482:
 7134 0152 C046     		.align	2
 7135              	.L481:
 7136 0154 00000000 		.word	.LC32
 7137 0158 00000000 		.word	Paint
 7138              		.cfi_endproc
 7139              	.LFE1440:
 7141              		.section	.text.Paint_DrawBitMap,"ax",%progbits
 7142              		.align	1
 7143              		.p2align 2,,3
 7144              		.global	Paint_DrawBitMap
 7145              		.syntax unified
 7146              		.code	16
 7147              		.thumb_func
 7149              	Paint_DrawBitMap:
 7150              	.LVL637:
 7151              	.LFB1441:
 749:User/e-Paper/GUI_Paint.c **** 
 750:User/e-Paper/GUI_Paint.c **** /******************************************************************************
 751:User/e-Paper/GUI_Paint.c **** function:	Display monochrome bitmap
 752:User/e-Paper/GUI_Paint.c **** parameter:
 753:User/e-Paper/GUI_Paint.c ****     image_buffer ：A picture data converted to a bitmap
 754:User/e-Paper/GUI_Paint.c **** info:
 755:User/e-Paper/GUI_Paint.c ****     Use a computer to convert the image into a corresponding array,
 756:User/e-Paper/GUI_Paint.c ****     and then embed the array directly into Imagedata.cpp as a .c file.
 757:User/e-Paper/GUI_Paint.c **** ******************************************************************************/
 758:User/e-Paper/GUI_Paint.c **** void Paint_DrawBitMap(const unsigned char *image_buffer)
 759:User/e-Paper/GUI_Paint.c **** {
 7152              		.loc 1 759 1 is_stmt 1 view -0
 7153              		.cfi_startproc
 7154              		@ args = 0, pretend = 0, frame = 0
 7155              		@ frame_needed = 0, uses_anonymous_args = 0
 760:User/e-Paper/GUI_Paint.c ****     UWORD x, y;
ARM GAS  C:\Users\upo\AppData\Local\Temp\ccEC4369.s 			page 171


 7156              		.loc 1 760 5 view .LVU1959
 761:User/e-Paper/GUI_Paint.c ****     UDOUBLE Addr = 0;
 7157              		.loc 1 761 5 view .LVU1960
 762:User/e-Paper/GUI_Paint.c **** 
 763:User/e-Paper/GUI_Paint.c ****     for (y = 0; y < Paint.HeightByte; y++)
 7158              		.loc 1 763 5 view .LVU1961
 7159              		.loc 1 763 19 view .LVU1962
 759:User/e-Paper/GUI_Paint.c ****     UWORD x, y;
 7160              		.loc 1 759 1 is_stmt 0 view .LVU1963
 7161 0000 70B5     		push	{r4, r5, r6, lr}
 7162              	.LCFI39:
 7163              		.cfi_def_cfa_offset 16
 7164              		.cfi_offset 4, -16
 7165              		.cfi_offset 5, -12
 7166              		.cfi_offset 6, -8
 7167              		.cfi_offset 14, -4
 7168              		.loc 1 763 26 view .LVU1964
 7169 0002 0C49     		ldr	r1, .L492
 7170              		.loc 1 763 19 view .LVU1965
 7171 0004 8B8A     		ldrh	r3, [r1, #20]
 7172 0006 002B     		cmp	r3, #0
 7173 0008 13D0     		beq	.L483
 7174              		.loc 1 763 12 view .LVU1966
 7175 000a 0026     		movs	r6, #0
 764:User/e-Paper/GUI_Paint.c ****     {
 765:User/e-Paper/GUI_Paint.c ****         for (x = 0; x < Paint.WidthByte; x++)
 7176              		.loc 1 765 30 view .LVU1967
 7177 000c 4B8A     		ldrh	r3, [r1, #18]
 7178              	.LVL638:
 7179              	.L485:
 7180              		.loc 1 765 23 is_stmt 1 view .LVU1968
 7181 000e 002B     		cmp	r3, #0
 7182 0010 0FD0     		beq	.L483
 7183              		.loc 1 765 16 is_stmt 0 view .LVU1969
 7184 0012 0022     		movs	r2, #0
 7185              	.LVL639:
 7186              	.L486:
 766:User/e-Paper/GUI_Paint.c ****         { // 8 pixel =  1 byte
 767:User/e-Paper/GUI_Paint.c ****             Addr = x + y * Paint.WidthByte;
 7187              		.loc 1 767 13 is_stmt 1 discriminator 3 view .LVU1970
 7188              		.loc 1 767 26 is_stmt 0 discriminator 3 view .LVU1971
 7189 0014 7343     		muls	r3, r6
 7190              		.loc 1 767 22 discriminator 3 view .LVU1972
 7191 0016 9B18     		adds	r3, r3, r2
 7192              	.LVL640:
 768:User/e-Paper/GUI_Paint.c ****             Paint.Image[Addr] = (unsigned char)image_buffer[Addr];
 7193              		.loc 1 768 13 is_stmt 1 discriminator 3 view .LVU1973
 7194              		.loc 1 768 33 is_stmt 0 discriminator 3 view .LVU1974
 7195 0018 C55C     		ldrb	r5, [r0, r3]
 7196              		.loc 1 768 31 discriminator 3 view .LVU1975
 7197 001a 0C68     		ldr	r4, [r1]
 765:User/e-Paper/GUI_Paint.c ****         { // 8 pixel =  1 byte
 7198              		.loc 1 765 43 discriminator 3 view .LVU1976
 7199 001c 0132     		adds	r2, r2, #1
 7200              	.LVL641:
 7201              		.loc 1 768 31 discriminator 3 view .LVU1977
 7202 001e E554     		strb	r5, [r4, r3]
ARM GAS  C:\Users\upo\AppData\Local\Temp\ccEC4369.s 			page 172


 765:User/e-Paper/GUI_Paint.c ****         { // 8 pixel =  1 byte
 7203              		.loc 1 765 43 is_stmt 1 discriminator 3 view .LVU1978
 765:User/e-Paper/GUI_Paint.c ****         { // 8 pixel =  1 byte
 7204              		.loc 1 765 30 is_stmt 0 discriminator 3 view .LVU1979
 7205 0020 4B8A     		ldrh	r3, [r1, #18]
 7206              	.LVL642:
 765:User/e-Paper/GUI_Paint.c ****         { // 8 pixel =  1 byte
 7207              		.loc 1 765 43 discriminator 3 view .LVU1980
 7208 0022 92B2     		uxth	r2, r2
 7209              	.LVL643:
 765:User/e-Paper/GUI_Paint.c ****         { // 8 pixel =  1 byte
 7210              		.loc 1 765 23 is_stmt 1 discriminator 3 view .LVU1981
 7211 0024 9342     		cmp	r3, r2
 7212 0026 F5D8     		bhi	.L486
 763:User/e-Paper/GUI_Paint.c ****     {
 7213              		.loc 1 763 40 view .LVU1982
 7214 0028 0136     		adds	r6, r6, #1
 7215              	.LVL644:
 763:User/e-Paper/GUI_Paint.c ****     {
 7216              		.loc 1 763 19 is_stmt 0 view .LVU1983
 7217 002a 8A8A     		ldrh	r2, [r1, #20]
 7218              	.LVL645:
 763:User/e-Paper/GUI_Paint.c ****     {
 7219              		.loc 1 763 40 view .LVU1984
 7220 002c B6B2     		uxth	r6, r6
 7221              	.LVL646:
 763:User/e-Paper/GUI_Paint.c ****     {
 7222              		.loc 1 763 19 is_stmt 1 view .LVU1985
 7223 002e B242     		cmp	r2, r6
 7224 0030 EDD8     		bhi	.L485
 7225              	.LVL647:
 7226              	.L483:
 769:User/e-Paper/GUI_Paint.c ****         }
 770:User/e-Paper/GUI_Paint.c ****     }
 771:User/e-Paper/GUI_Paint.c **** }
 7227              		.loc 1 771 1 is_stmt 0 view .LVU1986
 7228              		@ sp needed
 7229 0032 70BD     		pop	{r4, r5, r6, pc}
 7230              	.L493:
 7231              		.align	2
 7232              	.L492:
 7233 0034 00000000 		.word	Paint
 7234              		.cfi_endproc
 7235              	.LFE1441:
 7237              		.section	.text.Paint_DrawBitMap_Paste,"ax",%progbits
 7238              		.align	1
 7239              		.p2align 2,,3
 7240              		.global	Paint_DrawBitMap_Paste
 7241              		.syntax unified
 7242              		.code	16
 7243              		.thumb_func
 7245              	Paint_DrawBitMap_Paste:
 7246              	.LVL648:
 7247              	.LFB1442:
 772:User/e-Paper/GUI_Paint.c **** 
 773:User/e-Paper/GUI_Paint.c **** /******************************************************************************
 774:User/e-Paper/GUI_Paint.c **** function:	paste monochrome bitmap to a frame buff
ARM GAS  C:\Users\upo\AppData\Local\Temp\ccEC4369.s 			page 173


 775:User/e-Paper/GUI_Paint.c **** parameter:
 776:User/e-Paper/GUI_Paint.c ****     image_buffer ：A picture data converted to a bitmap
 777:User/e-Paper/GUI_Paint.c ****     xStart: The starting x coordinate
 778:User/e-Paper/GUI_Paint.c ****     yStart: The starting y coordinate
 779:User/e-Paper/GUI_Paint.c ****     imageWidth: Original image width
 780:User/e-Paper/GUI_Paint.c ****     imageHeight: Original image height
 781:User/e-Paper/GUI_Paint.c ****     flipColor: Whether the color is reversed
 782:User/e-Paper/GUI_Paint.c **** info:
 783:User/e-Paper/GUI_Paint.c ****     Use this function to paste image data into a buffer
 784:User/e-Paper/GUI_Paint.c **** ******************************************************************************/
 785:User/e-Paper/GUI_Paint.c **** void Paint_DrawBitMap_Paste(const unsigned char *image_buffer, UWORD xStart, UWORD yStart, UWORD im
 786:User/e-Paper/GUI_Paint.c **** {
 7248              		.loc 1 786 1 is_stmt 1 view -0
 7249              		.cfi_startproc
 7250              		@ args = 8, pretend = 0, frame = 40
 7251              		@ frame_needed = 0, uses_anonymous_args = 0
 787:User/e-Paper/GUI_Paint.c ****     UBYTE color, srcImage;
 7252              		.loc 1 787 5 view .LVU1988
 788:User/e-Paper/GUI_Paint.c ****     UWORD x, y;
 7253              		.loc 1 788 5 view .LVU1989
 789:User/e-Paper/GUI_Paint.c ****     UWORD width = (imageWidth % 8 == 0 ? imageWidth / 8 : imageWidth / 8 + 1);
 7254              		.loc 1 789 5 view .LVU1990
 786:User/e-Paper/GUI_Paint.c ****     UBYTE color, srcImage;
 7255              		.loc 1 786 1 is_stmt 0 view .LVU1991
 7256 0000 F0B5     		push	{r4, r5, r6, r7, lr}
 7257              	.LCFI40:
 7258              		.cfi_def_cfa_offset 20
 7259              		.cfi_offset 4, -20
 7260              		.cfi_offset 5, -16
 7261              		.cfi_offset 6, -12
 7262              		.cfi_offset 7, -8
 7263              		.cfi_offset 14, -4
 7264 0002 DE46     		mov	lr, fp
 7265 0004 5746     		mov	r7, r10
 7266 0006 4E46     		mov	r6, r9
 7267 0008 4546     		mov	r5, r8
 7268 000a 9B46     		mov	fp, r3
 7269 000c E0B5     		push	{r5, r6, r7, lr}
 7270              	.LCFI41:
 7271              		.cfi_def_cfa_offset 36
 7272              		.cfi_offset 8, -36
 7273              		.cfi_offset 9, -32
 7274              		.cfi_offset 10, -28
 7275              		.cfi_offset 11, -24
 7276 000e 8BB0     		sub	sp, sp, #44
 7277              	.LCFI42:
 7278              		.cfi_def_cfa_offset 80
 786:User/e-Paper/GUI_Paint.c ****     UBYTE color, srcImage;
 7279              		.loc 1 786 1 view .LVU1992
 7280 0010 14AB     		add	r3, sp, #80
 7281              	.LVL649:
 786:User/e-Paper/GUI_Paint.c ****     UBYTE color, srcImage;
 7282              		.loc 1 786 1 view .LVU1993
 7283 0012 1B88     		ldrh	r3, [r3]
 7284              	.LVL650:
 786:User/e-Paper/GUI_Paint.c ****     UBYTE color, srcImage;
 7285              		.loc 1 786 1 view .LVU1994
ARM GAS  C:\Users\upo\AppData\Local\Temp\ccEC4369.s 			page 174


 7286 0014 9246     		mov	r10, r2
 7287 0016 9846     		mov	r8, r3
 7288 0018 15AB     		add	r3, sp, #84
 7289              	.LVL651:
 786:User/e-Paper/GUI_Paint.c ****     UBYTE color, srcImage;
 7290              		.loc 1 786 1 view .LVU1995
 7291 001a 1B78     		ldrb	r3, [r3]
 7292              	.LVL652:
 786:User/e-Paper/GUI_Paint.c ****     UBYTE color, srcImage;
 7293              		.loc 1 786 1 view .LVU1996
 7294 001c 0490     		str	r0, [sp, #16]
 7295 001e 0293     		str	r3, [sp, #8]
 7296              		.loc 1 789 11 view .LVU1997
 7297 0020 5B46     		mov	r3, fp
 7298 0022 DB08     		lsrs	r3, r3, #3
 7299 0024 9946     		mov	r9, r3
 7300 0026 5B46     		mov	r3, fp
 786:User/e-Paper/GUI_Paint.c ****     UBYTE color, srcImage;
 7301              		.loc 1 786 1 view .LVU1998
 7302 0028 0591     		str	r1, [sp, #20]
 7303              		.loc 1 789 11 view .LVU1999
 7304 002a 5B07     		lsls	r3, r3, #29
 7305 002c 00D1     		bne	.LCB7540
 7306 002e 44E1     		b	.L495	@long jump
 7307              	.LCB7540:
 7308 0030 0123     		movs	r3, #1
 7309 0032 9C46     		mov	ip, r3
 790:User/e-Paper/GUI_Paint.c **** 
 791:User/e-Paper/GUI_Paint.c ****     for (y = 0; y < imageHeight; y++)
 7310              		.loc 1 791 19 view .LVU2000
 7311 0034 4346     		mov	r3, r8
 789:User/e-Paper/GUI_Paint.c **** 
 7312              		.loc 1 789 11 view .LVU2001
 7313 0036 E144     		add	r9, r9, ip
 7314              	.LVL653:
 7315              		.loc 1 791 5 is_stmt 1 view .LVU2002
 7316              		.loc 1 791 19 view .LVU2003
 7317 0038 002B     		cmp	r3, #0
 7318 003a 00D1     		bne	.LCB7551
 7319 003c 99E0     		b	.L494	@long jump
 7320              	.LCB7551:
 7321              	.L496:
 792:User/e-Paper/GUI_Paint.c ****     {
 793:User/e-Paper/GUI_Paint.c ****         for (x = 0; x < imageWidth; x++)
 794:User/e-Paper/GUI_Paint.c ****         {
 795:User/e-Paper/GUI_Paint.c ****             srcImage = image_buffer[y * width + x / 8];
 796:User/e-Paper/GUI_Paint.c ****             if (flipColor)
 797:User/e-Paper/GUI_Paint.c ****                 color = (((srcImage << (x % 8) & 0x80) == 0) ? 1 : 0);
 7322              		.loc 1 797 43 is_stmt 0 view .LVU2004
 7323 003e 0723     		movs	r3, #7
 7324 0040 9C46     		mov	ip, r3
 7325              	.LBB522:
 7326              	.LBB523:
 7327              	.LBB524:
 7328              	.LBB525:
 7329              	.LBB526:
 277:User/e-Paper/GUI_Paint.c ****         Paint.Image[Addr] = Rdata | ((Color << 4) >> ((X % 2) * 4));
ARM GAS  C:\Users\upo\AppData\Local\Temp\ccEC4369.s 			page 175


 7330              		.loc 1 277 33 view .LVU2005
 7331 0042 4B46     		mov	r3, r9
 7332 0044 0693     		str	r3, [sp, #24]
 7333 0046 5346     		mov	r3, r10
 7334 0048 0793     		str	r3, [sp, #28]
 7335 004a 4346     		mov	r3, r8
 7336              	.LBE526:
 7337              	.LBE525:
 7338              	.LBE524:
 7339              	.LBE523:
 7340              	.LBE522:
 791:User/e-Paper/GUI_Paint.c ****     {
 7341              		.loc 1 791 12 view .LVU2006
 7342 004c 0024     		movs	r4, #0
 7343 004e 9F48     		ldr	r0, .L531
 7344              	.LVL654:
 7345              	.LBB541:
 7346              	.LBB538:
 7347              	.LBB535:
 7348              	.LBB532:
 7349              	.LBB527:
 277:User/e-Paper/GUI_Paint.c ****         Paint.Image[Addr] = Rdata | ((Color << 4) >> ((X % 2) * 4));
 7350              		.loc 1 277 33 view .LVU2007
 7351 0050 0893     		str	r3, [sp, #32]
 7352              	.LVL655:
 7353              	.L517:
 277:User/e-Paper/GUI_Paint.c ****         Paint.Image[Addr] = Rdata | ((Color << 4) >> ((X % 2) * 4));
 7354              		.loc 1 277 33 view .LVU2008
 7355              	.LBE527:
 7356              	.LBE532:
 7357              	.LBE535:
 7358              	.LBE538:
 7359              	.LBE541:
 793:User/e-Paper/GUI_Paint.c ****         {
 7360              		.loc 1 793 23 is_stmt 1 view .LVU2009
 798:User/e-Paper/GUI_Paint.c ****             else
 799:User/e-Paper/GUI_Paint.c ****                 color = (((srcImage << (x % 8) & 0x80) == 0) ? 0 : 1);
 800:User/e-Paper/GUI_Paint.c ****             Paint_SetPixel(x + xStart, y + yStart, color);
 7361              		.loc 1 800 13 is_stmt 0 view .LVU2010
 7362 0052 079B     		ldr	r3, [sp, #28]
 7363 0054 069D     		ldr	r5, [sp, #24]
 7364 0056 1E19     		adds	r6, r3, r4
 7365 0058 049B     		ldr	r3, [sp, #16]
 7366 005a 6543     		muls	r5, r4
 7367 005c 9846     		mov	r8, r3
 7368 005e 4544     		add	r5, r5, r8
 7369 0060 0394     		str	r4, [sp, #12]
 793:User/e-Paper/GUI_Paint.c ****         {
 7370              		.loc 1 793 16 view .LVU2011
 7371 0062 0022     		movs	r2, #0
 7372 0064 5C46     		mov	r4, fp
 7373              	.LVL656:
 7374              		.loc 1 800 13 view .LVU2012
 7375 0066 0599     		ldr	r1, [sp, #20]
 7376 0068 B6B2     		uxth	r6, r6
 7377 006a 0095     		str	r5, [sp]
 7378 006c 69E0     		b	.L516
ARM GAS  C:\Users\upo\AppData\Local\Temp\ccEC4369.s 			page 176


 7379              	.LVL657:
 7380              	.L529:
 797:User/e-Paper/GUI_Paint.c ****             else
 7381              		.loc 1 797 17 is_stmt 1 view .LVU2013
 797:User/e-Paper/GUI_Paint.c ****             else
 7382              		.loc 1 797 66 is_stmt 0 view .LVU2014
 7383 006e 1F00     		movs	r7, r3
 7384 0070 7B42     		rsbs	r3, r7, #0
 7385 0072 7B41     		adcs	r3, r3, r7
 797:User/e-Paper/GUI_Paint.c ****             else
 7386              		.loc 1 797 23 view .LVU2015
 7387 0074 DBB2     		uxtb	r3, r3
 7388 0076 0193     		str	r3, [sp, #4]
 7389              	.LVL658:
 7390              	.L500:
 7391              		.loc 1 800 13 is_stmt 1 discriminator 2 view .LVU2016
 7392              	.LBB542:
 7393              	.LBI522:
 200:User/e-Paper/GUI_Paint.c **** {
 7394              		.loc 1 200 6 discriminator 2 view .LVU2017
 7395              	.LBB539:
 202:User/e-Paper/GUI_Paint.c ****     {
 7396              		.loc 1 202 5 discriminator 2 view .LVU2018
 202:User/e-Paper/GUI_Paint.c ****     {
 7397              		.loc 1 202 8 is_stmt 0 discriminator 2 view .LVU2019
 7398 0078 8388     		ldrh	r3, [r0, #4]
 7399 007a 8B42     		cmp	r3, r1
 7400 007c 5BD3     		bcc	.L501
 202:User/e-Paper/GUI_Paint.c ****     {
 7401              		.loc 1 202 30 view .LVU2020
 7402 007e C388     		ldrh	r3, [r0, #6]
 7403 0080 B342     		cmp	r3, r6
 7404 0082 58D3     		bcc	.L501
 7405              	.LVL659:
 7406              	.LBB536:
 7407              	.LBI524:
 200:User/e-Paper/GUI_Paint.c **** {
 7408              		.loc 1 200 6 is_stmt 1 view .LVU2021
 7409              	.LBB533:
 207:User/e-Paper/GUI_Paint.c **** 
 7410              		.loc 1 207 5 view .LVU2022
 209:User/e-Paper/GUI_Paint.c ****     {
 7411              		.loc 1 209 5 view .LVU2023
 209:User/e-Paper/GUI_Paint.c ****     {
 7412              		.loc 1 209 18 is_stmt 0 view .LVU2024
 7413 0084 C389     		ldrh	r3, [r0, #14]
 209:User/e-Paper/GUI_Paint.c ****     {
 7414              		.loc 1 209 5 view .LVU2025
 7415 0086 B42B     		cmp	r3, #180
 7416 0088 00D1     		bne	.LCB7655
 7417 008a B4E0     		b	.L502	@long jump
 7418              	.LCB7655:
 7419 008c 00D9     		bls	.LCB7657
 7420 008e 77E0     		b	.L503	@long jump
 7421              	.LCB7657:
 7422 0090 002B     		cmp	r3, #0
 7423 0092 00D1     		bne	.LCB7659
ARM GAS  C:\Users\upo\AppData\Local\Temp\ccEC4369.s 			page 177


 7424 0094 ACE0     		b	.L518	@long jump
 7425              	.LCB7659:
 7426 0096 5A2B     		cmp	r3, #90
 7427 0098 4DD1     		bne	.L501
 216:User/e-Paper/GUI_Paint.c ****         Y = Xpoint;
 7428              		.loc 1 216 9 is_stmt 1 view .LVU2026
 216:User/e-Paper/GUI_Paint.c ****         Y = Xpoint;
 7429              		.loc 1 216 11 is_stmt 0 view .LVU2027
 7430 009a 0389     		ldrh	r3, [r0, #8]
 7431 009c 9946     		mov	r9, r3
 7432 009e 0123     		movs	r3, #1
 7433 00a0 5B42     		rsbs	r3, r3, #0
 7434 00a2 9846     		mov	r8, r3
 7435 00a4 C144     		add	r9, r9, r8
 7436 00a6 4B46     		mov	r3, r9
 7437 00a8 9B1B     		subs	r3, r3, r6
 7438 00aa 9BB2     		uxth	r3, r3
 7439 00ac 9946     		mov	r9, r3
 7440              	.LVL660:
 217:User/e-Paper/GUI_Paint.c ****         break;
 7441              		.loc 1 217 9 is_stmt 1 view .LVU2028
 218:User/e-Paper/GUI_Paint.c ****     case 180:
 7442              		.loc 1 218 9 view .LVU2029
 7443 00ae 8846     		mov	r8, r1
 7444              	.LVL661:
 7445              	.L504:
 231:User/e-Paper/GUI_Paint.c ****     {
 7446              		.loc 1 231 5 view .LVU2030
 231:User/e-Paper/GUI_Paint.c ****     {
 7447              		.loc 1 231 18 is_stmt 0 view .LVU2031
 7448 00b0 038A     		ldrh	r3, [r0, #16]
 231:User/e-Paper/GUI_Paint.c ****     {
 7449              		.loc 1 231 5 view .LVU2032
 7450 00b2 022B     		cmp	r3, #2
 7451 00b4 00D1     		bne	.LCB7687
 7452 00b6 76E0     		b	.L507	@long jump
 7453              	.LCB7687:
 7454              	.L530:
 231:User/e-Paper/GUI_Paint.c ****     {
 7455              		.loc 1 231 5 view .LVU2033
 7456 00b8 022B     		cmp	r3, #2
 7457 00ba 00D9     		bls	.LCB7692
 7458 00bc 81E0     		b	.L508	@long jump
 7459              	.LCB7692:
 7460 00be 002B     		cmp	r3, #0
 7461 00c0 00D1     		bne	.LCB7694
 7462 00c2 7BE0     		b	.L525	@long jump
 7463              	.LCB7694:
 236:User/e-Paper/GUI_Paint.c ****         break;
 7464              		.loc 1 236 9 is_stmt 1 view .LVU2034
 236:User/e-Paper/GUI_Paint.c ****         break;
 7465              		.loc 1 236 18 is_stmt 0 view .LVU2035
 7466 00c4 0389     		ldrh	r3, [r0, #8]
 236:User/e-Paper/GUI_Paint.c ****         break;
 7467              		.loc 1 236 11 view .LVU2036
 7468 00c6 4F46     		mov	r7, r9
 236:User/e-Paper/GUI_Paint.c ****         break;
ARM GAS  C:\Users\upo\AppData\Local\Temp\ccEC4369.s 			page 178


 7469              		.loc 1 236 18 view .LVU2037
 7470 00c8 1D00     		movs	r5, r3
 236:User/e-Paper/GUI_Paint.c ****         break;
 7471              		.loc 1 236 11 view .LVU2038
 7472 00ca 0123     		movs	r3, #1
 7473 00cc 5B42     		rsbs	r3, r3, #0
 7474 00ce 5B19     		adds	r3, r3, r5
 7475 00d0 DB1B     		subs	r3, r3, r7
 7476 00d2 9BB2     		uxth	r3, r3
 7477 00d4 9946     		mov	r9, r3
 7478              	.LVL662:
 237:User/e-Paper/GUI_Paint.c ****     case MIRROR_VERTICAL:
 7479              		.loc 1 237 9 is_stmt 1 view .LVU2039
 7480              	.L512:
 249:User/e-Paper/GUI_Paint.c ****     {
 7481              		.loc 1 249 5 view .LVU2040
 249:User/e-Paper/GUI_Paint.c ****     {
 7482              		.loc 1 249 8 is_stmt 0 view .LVU2041
 7483 00d6 A945     		cmp	r9, r5
 7484 00d8 2DD8     		bhi	.L501
 249:User/e-Paper/GUI_Paint.c ****     {
 7485              		.loc 1 249 31 view .LVU2042
 7486 00da 4389     		ldrh	r3, [r0, #10]
 7487 00dc 4345     		cmp	r3, r8
 7488 00de 2AD3     		bcc	.L501
 255:User/e-Paper/GUI_Paint.c ****     {
 7489              		.loc 1 255 5 is_stmt 1 view .LVU2043
 255:User/e-Paper/GUI_Paint.c ****     {
 7490              		.loc 1 255 14 is_stmt 0 view .LVU2044
 7491 00e0 C38A     		ldrh	r3, [r0, #22]
 255:User/e-Paper/GUI_Paint.c ****     {
 7492              		.loc 1 255 8 view .LVU2045
 7493 00e2 022B     		cmp	r3, #2
 7494 00e4 00D1     		bne	.LCB7725
 7495 00e6 9BE0     		b	.L526	@long jump
 7496              	.LCB7725:
 264:User/e-Paper/GUI_Paint.c ****     {
 7497              		.loc 1 264 10 is_stmt 1 view .LVU2046
 264:User/e-Paper/GUI_Paint.c ****     {
 7498              		.loc 1 264 13 is_stmt 0 view .LVU2047
 7499 00e8 042B     		cmp	r3, #4
 7500 00ea 00D1     		bne	.LCB7728
 7501 00ec B6E0     		b	.L527	@long jump
 7502              	.LCB7728:
 273:User/e-Paper/GUI_Paint.c ****     {
 7503              		.loc 1 273 10 is_stmt 1 view .LVU2048
 273:User/e-Paper/GUI_Paint.c ****     {
 7504              		.loc 1 273 13 is_stmt 0 view .LVU2049
 7505 00ee 072B     		cmp	r3, #7
 7506 00f0 21D1     		bne	.L501
 7507              	.LBB528:
 275:User/e-Paper/GUI_Paint.c ****         UBYTE Rdata = Paint.Image[Addr];
 7508              		.loc 1 275 9 is_stmt 1 view .LVU2050
 7509              	.LVL663:
 276:User/e-Paper/GUI_Paint.c ****         Rdata = Rdata & (~(0xF0 >> ((X % 2) * 4))); // Clear first, then set value
 7510              		.loc 1 276 9 view .LVU2051
 275:User/e-Paper/GUI_Paint.c ****         UBYTE Rdata = Paint.Image[Addr];
ARM GAS  C:\Users\upo\AppData\Local\Temp\ccEC4369.s 			page 179


 7511              		.loc 1 275 41 is_stmt 0 view .LVU2052
 7512 00f2 438A     		ldrh	r3, [r0, #18]
 7513 00f4 9A46     		mov	r10, r3
 275:User/e-Paper/GUI_Paint.c ****         UBYTE Rdata = Paint.Image[Addr];
 7514              		.loc 1 275 34 view .LVU2053
 7515 00f6 4346     		mov	r3, r8
 7516 00f8 5546     		mov	r5, r10
 7517 00fa 6B43     		muls	r3, r5
 7518 00fc 9A46     		mov	r10, r3
 275:User/e-Paper/GUI_Paint.c ****         UBYTE Rdata = Paint.Image[Addr];
 7519              		.loc 1 275 26 view .LVU2054
 7520 00fe 4B46     		mov	r3, r9
 7521 0100 5B08     		lsrs	r3, r3, #1
 7522 0102 9BB2     		uxth	r3, r3
 7523 0104 9846     		mov	r8, r3
 7524              	.LVL664:
 276:User/e-Paper/GUI_Paint.c ****         Rdata = Rdata & (~(0xF0 >> ((X % 2) * 4))); // Clear first, then set value
 7525              		.loc 1 276 34 view .LVU2055
 7526 0106 0368     		ldr	r3, [r0]
 277:User/e-Paper/GUI_Paint.c ****         Paint.Image[Addr] = Rdata | ((Color << 4) >> ((X % 2) * 4));
 7527              		.loc 1 277 40 view .LVU2056
 7528 0108 0125     		movs	r5, #1
 276:User/e-Paper/GUI_Paint.c ****         Rdata = Rdata & (~(0xF0 >> ((X % 2) * 4))); // Clear first, then set value
 7529              		.loc 1 276 34 view .LVU2057
 7530 010a 9B46     		mov	fp, r3
 277:User/e-Paper/GUI_Paint.c ****         Paint.Image[Addr] = Rdata | ((Color << 4) >> ((X % 2) * 4));
 7531              		.loc 1 277 40 view .LVU2058
 7532 010c 4B46     		mov	r3, r9
 7533 010e 2B40     		ands	r3, r5
 277:User/e-Paper/GUI_Paint.c ****         Paint.Image[Addr] = Rdata | ((Color << 4) >> ((X % 2) * 4));
 7534              		.loc 1 277 45 view .LVU2059
 7535 0110 9B00     		lsls	r3, r3, #2
 7536 0112 9946     		mov	r9, r3
 7537              	.LVL665:
 277:User/e-Paper/GUI_Paint.c ****         Paint.Image[Addr] = Rdata | ((Color << 4) >> ((X % 2) * 4));
 7538              		.loc 1 277 33 view .LVU2060
 7539 0114 F023     		movs	r3, #240
 7540 0116 4D46     		mov	r5, r9
 275:User/e-Paper/GUI_Paint.c ****         UBYTE Rdata = Paint.Image[Addr];
 7541              		.loc 1 275 30 view .LVU2061
 7542 0118 C244     		add	r10, r10, r8
 7543              	.LVL666:
 277:User/e-Paper/GUI_Paint.c ****         Paint.Image[Addr] = Rdata | ((Color << 4) >> ((X % 2) * 4));
 7544              		.loc 1 277 9 is_stmt 1 view .LVU2062
 278:User/e-Paper/GUI_Paint.c ****         // printf("Add =  %d ,data = %d\r\n",Addr,Rdata);
 7545              		.loc 1 278 9 view .LVU2063
 277:User/e-Paper/GUI_Paint.c ****         Paint.Image[Addr] = Rdata | ((Color << 4) >> ((X % 2) * 4));
 7546              		.loc 1 277 33 is_stmt 0 view .LVU2064
 7547 011a 2B41     		asrs	r3, r3, r5
 277:User/e-Paper/GUI_Paint.c ****         Paint.Image[Addr] = Rdata | ((Color << 4) >> ((X % 2) * 4));
 7548              		.loc 1 277 23 view .LVU2065
 7549 011c 5746     		mov	r7, r10
 7550 011e 5D46     		mov	r5, fp
 7551              	.LVL667:
 277:User/e-Paper/GUI_Paint.c ****         Paint.Image[Addr] = Rdata | ((Color << 4) >> ((X % 2) * 4));
 7552              		.loc 1 277 23 view .LVU2066
 7553 0120 ED5D     		ldrb	r5, [r5, r7]
ARM GAS  C:\Users\upo\AppData\Local\Temp\ccEC4369.s 			page 180


 7554 0122 9D43     		bics	r5, r3
 7555 0124 A846     		mov	r8, r5
 278:User/e-Paper/GUI_Paint.c ****         // printf("Add =  %d ,data = %d\r\n",Addr,Rdata);
 7556              		.loc 1 278 51 view .LVU2067
 7557 0126 4D46     		mov	r5, r9
 278:User/e-Paper/GUI_Paint.c ****         // printf("Add =  %d ,data = %d\r\n",Addr,Rdata);
 7558              		.loc 1 278 45 view .LVU2068
 7559 0128 019B     		ldr	r3, [sp, #4]
 7560 012a 1B01     		lsls	r3, r3, #4
 278:User/e-Paper/GUI_Paint.c ****         // printf("Add =  %d ,data = %d\r\n",Addr,Rdata);
 7561              		.loc 1 278 51 view .LVU2069
 7562 012c 2B41     		asrs	r3, r3, r5
 278:User/e-Paper/GUI_Paint.c ****         // printf("Add =  %d ,data = %d\r\n",Addr,Rdata);
 7563              		.loc 1 278 35 view .LVU2070
 7564 012e 4546     		mov	r5, r8
 7565 0130 2B43     		orrs	r3, r5
 278:User/e-Paper/GUI_Paint.c ****         // printf("Add =  %d ,data = %d\r\n",Addr,Rdata);
 7566              		.loc 1 278 27 view .LVU2071
 7567 0132 5D46     		mov	r5, fp
 7568 0134 EB55     		strb	r3, [r5, r7]
 7569              	.LVL668:
 7570              	.L501:
 278:User/e-Paper/GUI_Paint.c ****         // printf("Add =  %d ,data = %d\r\n",Addr,Rdata);
 7571              		.loc 1 278 27 view .LVU2072
 7572              	.LBE528:
 7573              	.LBE533:
 7574              	.LBE536:
 7575              	.LBE539:
 7576              	.LBE542:
 793:User/e-Paper/GUI_Paint.c ****         {
 7577              		.loc 1 793 38 is_stmt 1 view .LVU2073
 7578 0136 0132     		adds	r2, r2, #1
 7579              	.LVL669:
 793:User/e-Paper/GUI_Paint.c ****         {
 7580              		.loc 1 793 23 is_stmt 0 view .LVU2074
 7581 0138 0131     		adds	r1, r1, #1
 793:User/e-Paper/GUI_Paint.c ****         {
 7582              		.loc 1 793 38 view .LVU2075
 7583 013a 92B2     		uxth	r2, r2
 7584              	.LVL670:
 793:User/e-Paper/GUI_Paint.c ****         {
 7585              		.loc 1 793 23 is_stmt 1 view .LVU2076
 7586 013c 89B2     		uxth	r1, r1
 7587 013e 9442     		cmp	r4, r2
 7588 0140 0FD0     		beq	.L528
 7589              	.LVL671:
 7590              	.L516:
 795:User/e-Paper/GUI_Paint.c ****             if (flipColor)
 7591              		.loc 1 795 13 view .LVU2077
 796:User/e-Paper/GUI_Paint.c ****                 color = (((srcImage << (x % 8) & 0x80) == 0) ? 1 : 0);
 7592              		.loc 1 796 13 view .LVU2078
 797:User/e-Paper/GUI_Paint.c ****             else
 7593              		.loc 1 797 43 is_stmt 0 view .LVU2079
 7594 0142 6746     		mov	r7, ip
 797:User/e-Paper/GUI_Paint.c ****             else
 7595              		.loc 1 797 37 view .LVU2080
 7596 0144 009D     		ldr	r5, [sp]
ARM GAS  C:\Users\upo\AppData\Local\Temp\ccEC4369.s 			page 181


 795:User/e-Paper/GUI_Paint.c ****             if (flipColor)
 7597              		.loc 1 795 51 view .LVU2081
 7598 0146 D308     		lsrs	r3, r2, #3
 797:User/e-Paper/GUI_Paint.c ****             else
 7599              		.loc 1 797 37 view .LVU2082
 7600 0148 EB5C     		ldrb	r3, [r5, r3]
 797:User/e-Paper/GUI_Paint.c ****             else
 7601              		.loc 1 797 43 view .LVU2083
 7602 014a 1740     		ands	r7, r2
 797:User/e-Paper/GUI_Paint.c ****             else
 7603              		.loc 1 797 37 view .LVU2084
 7604 014c BB40     		lsls	r3, r3, r7
 797:User/e-Paper/GUI_Paint.c ****             else
 7605              		.loc 1 797 48 view .LVU2085
 7606 014e 8025     		movs	r5, #128
 796:User/e-Paper/GUI_Paint.c ****                 color = (((srcImage << (x % 8) & 0x80) == 0) ? 1 : 0);
 7607              		.loc 1 796 16 view .LVU2086
 7608 0150 029F     		ldr	r7, [sp, #8]
 797:User/e-Paper/GUI_Paint.c ****             else
 7609              		.loc 1 797 48 view .LVU2087
 7610 0152 2B40     		ands	r3, r5
 796:User/e-Paper/GUI_Paint.c ****                 color = (((srcImage << (x % 8) & 0x80) == 0) ? 1 : 0);
 7611              		.loc 1 796 16 view .LVU2088
 7612 0154 002F     		cmp	r7, #0
 7613 0156 8AD1     		bne	.L529
 799:User/e-Paper/GUI_Paint.c ****             Paint_SetPixel(x + xStart, y + yStart, color);
 7614              		.loc 1 799 17 is_stmt 1 view .LVU2089
 799:User/e-Paper/GUI_Paint.c ****             Paint_SetPixel(x + xStart, y + yStart, color);
 7615              		.loc 1 799 66 is_stmt 0 view .LVU2090
 7616 0158 5F1E     		subs	r7, r3, #1
 7617 015a BB41     		sbcs	r3, r3, r7
 799:User/e-Paper/GUI_Paint.c ****             Paint_SetPixel(x + xStart, y + yStart, color);
 7618              		.loc 1 799 23 view .LVU2091
 7619 015c DBB2     		uxtb	r3, r3
 7620 015e 0193     		str	r3, [sp, #4]
 7621              	.LVL672:
 799:User/e-Paper/GUI_Paint.c ****             Paint_SetPixel(x + xStart, y + yStart, color);
 7622              		.loc 1 799 23 view .LVU2092
 7623 0160 8AE7     		b	.L500
 7624              	.LVL673:
 7625              	.L528:
 791:User/e-Paper/GUI_Paint.c ****     {
 7626              		.loc 1 791 35 view .LVU2093
 7627 0162 A346     		mov	fp, r4
 7628 0164 039C     		ldr	r4, [sp, #12]
 791:User/e-Paper/GUI_Paint.c ****     {
 7629              		.loc 1 791 35 is_stmt 1 view .LVU2094
 791:User/e-Paper/GUI_Paint.c ****     {
 7630              		.loc 1 791 19 is_stmt 0 view .LVU2095
 7631 0166 089B     		ldr	r3, [sp, #32]
 791:User/e-Paper/GUI_Paint.c ****     {
 7632              		.loc 1 791 35 view .LVU2096
 7633 0168 0134     		adds	r4, r4, #1
 7634 016a A4B2     		uxth	r4, r4
 7635              	.LVL674:
 791:User/e-Paper/GUI_Paint.c ****     {
 7636              		.loc 1 791 19 is_stmt 1 view .LVU2097
ARM GAS  C:\Users\upo\AppData\Local\Temp\ccEC4369.s 			page 182


 7637 016c A342     		cmp	r3, r4
 7638 016e 00D9     		bls	.LCB7858
 7639 0170 6FE7     		b	.L517	@long jump
 7640              	.LCB7858:
 7641              	.LVL675:
 7642              	.L494:
 801:User/e-Paper/GUI_Paint.c ****         }
 802:User/e-Paper/GUI_Paint.c ****     }
 803:User/e-Paper/GUI_Paint.c **** }
 7643              		.loc 1 803 1 is_stmt 0 view .LVU2098
 7644 0172 0BB0     		add	sp, sp, #44
 7645              		@ sp needed
 7646 0174 F0BC     		pop	{r4, r5, r6, r7}
 7647 0176 BB46     		mov	fp, r7
 7648 0178 B246     		mov	r10, r6
 7649 017a A946     		mov	r9, r5
 7650 017c A046     		mov	r8, r4
 7651 017e F0BD     		pop	{r4, r5, r6, r7, pc}
 7652              	.LVL676:
 7653              	.L503:
 7654              	.LBB543:
 7655              	.LBB540:
 7656              	.LBB537:
 7657              	.LBB534:
 209:User/e-Paper/GUI_Paint.c ****     {
 7658              		.loc 1 209 5 view .LVU2099
 7659 0180 8727     		movs	r7, #135
 7660 0182 7F00     		lsls	r7, r7, #1
 7661 0184 BB42     		cmp	r3, r7
 7662 0186 D6D1     		bne	.L501
 224:User/e-Paper/GUI_Paint.c ****         Y = Paint.HeightMemory - Xpoint - 1;
 7663              		.loc 1 224 9 is_stmt 1 view .LVU2100
 7664              	.LVL677:
 225:User/e-Paper/GUI_Paint.c ****         break;
 7665              		.loc 1 225 9 view .LVU2101
 225:User/e-Paper/GUI_Paint.c ****         break;
 7666              		.loc 1 225 11 is_stmt 0 view .LVU2102
 7667 0188 4389     		ldrh	r3, [r0, #10]
 7668 018a 9846     		mov	r8, r3
 7669 018c 0123     		movs	r3, #1
 7670 018e 5B42     		rsbs	r3, r3, #0
 7671 0190 9946     		mov	r9, r3
 7672 0192 C844     		add	r8, r8, r9
 7673 0194 4346     		mov	r3, r8
 7674 0196 5B1A     		subs	r3, r3, r1
 7675 0198 9BB2     		uxth	r3, r3
 7676 019a 9846     		mov	r8, r3
 7677              	.LVL678:
 226:User/e-Paper/GUI_Paint.c ****     default:
 7678              		.loc 1 226 9 is_stmt 1 view .LVU2103
 231:User/e-Paper/GUI_Paint.c ****     {
 7679              		.loc 1 231 18 is_stmt 0 view .LVU2104
 7680 019c 038A     		ldrh	r3, [r0, #16]
 226:User/e-Paper/GUI_Paint.c ****     default:
 7681              		.loc 1 226 9 view .LVU2105
 7682 019e B146     		mov	r9, r6
 7683              	.LVL679:
ARM GAS  C:\Users\upo\AppData\Local\Temp\ccEC4369.s 			page 183


 231:User/e-Paper/GUI_Paint.c ****     {
 7684              		.loc 1 231 5 is_stmt 1 view .LVU2106
 7685 01a0 022B     		cmp	r3, #2
 7686 01a2 00D0     		beq	.LCB7922
 7687 01a4 88E7     		b	.L530	@long jump
 7688              	.LCB7922:
 7689              	.L507:
 239:User/e-Paper/GUI_Paint.c ****         break;
 7690              		.loc 1 239 9 view .LVU2107
 239:User/e-Paper/GUI_Paint.c ****         break;
 7691              		.loc 1 239 11 is_stmt 0 view .LVU2108
 7692 01a6 4389     		ldrh	r3, [r0, #10]
 7693 01a8 4746     		mov	r7, r8
 7694 01aa 9A46     		mov	r10, r3
 7695 01ac 0123     		movs	r3, #1
 7696 01ae 5B42     		rsbs	r3, r3, #0
 7697 01b0 9B46     		mov	fp, r3
 7698 01b2 DA44     		add	r10, r10, fp
 7699 01b4 5346     		mov	r3, r10
 7700 01b6 DB1B     		subs	r3, r3, r7
 7701 01b8 9BB2     		uxth	r3, r3
 7702 01ba 9846     		mov	r8, r3
 7703              	.LVL680:
 7704              	.L525:
 240:User/e-Paper/GUI_Paint.c ****     case MIRROR_ORIGIN:
 7705              		.loc 1 240 9 is_stmt 1 view .LVU2109
 216:User/e-Paper/GUI_Paint.c ****         Y = Xpoint;
 7706              		.loc 1 216 18 is_stmt 0 view .LVU2110
 7707 01bc 0389     		ldrh	r3, [r0, #8]
 7708 01be 1D00     		movs	r5, r3
 240:User/e-Paper/GUI_Paint.c ****     case MIRROR_ORIGIN:
 7709              		.loc 1 240 9 view .LVU2111
 7710 01c0 89E7     		b	.L512
 7711              	.L508:
 231:User/e-Paper/GUI_Paint.c ****     {
 7712              		.loc 1 231 5 view .LVU2112
 7713 01c2 032B     		cmp	r3, #3
 7714 01c4 B7D1     		bne	.L501
 242:User/e-Paper/GUI_Paint.c ****         Y = Paint.HeightMemory - Y - 1;
 7715              		.loc 1 242 9 is_stmt 1 view .LVU2113
 242:User/e-Paper/GUI_Paint.c ****         Y = Paint.HeightMemory - Y - 1;
 7716              		.loc 1 242 18 is_stmt 0 view .LVU2114
 7717 01c6 0389     		ldrh	r3, [r0, #8]
 242:User/e-Paper/GUI_Paint.c ****         Y = Paint.HeightMemory - Y - 1;
 7718              		.loc 1 242 11 view .LVU2115
 7719 01c8 4F46     		mov	r7, r9
 242:User/e-Paper/GUI_Paint.c ****         Y = Paint.HeightMemory - Y - 1;
 7720              		.loc 1 242 18 view .LVU2116
 7721 01ca 1D00     		movs	r5, r3
 242:User/e-Paper/GUI_Paint.c ****         Y = Paint.HeightMemory - Y - 1;
 7722              		.loc 1 242 11 view .LVU2117
 7723 01cc 0123     		movs	r3, #1
 7724 01ce 5B42     		rsbs	r3, r3, #0
 7725 01d0 5B19     		adds	r3, r3, r5
 7726 01d2 DB1B     		subs	r3, r3, r7
 7727 01d4 9BB2     		uxth	r3, r3
 7728 01d6 9946     		mov	r9, r3
ARM GAS  C:\Users\upo\AppData\Local\Temp\ccEC4369.s 			page 184


 7729              	.LVL681:
 243:User/e-Paper/GUI_Paint.c ****         break;
 7730              		.loc 1 243 9 is_stmt 1 view .LVU2118
 243:User/e-Paper/GUI_Paint.c ****         break;
 7731              		.loc 1 243 11 is_stmt 0 view .LVU2119
 7732 01d8 4389     		ldrh	r3, [r0, #10]
 7733 01da 4746     		mov	r7, r8
 7734 01dc 9B46     		mov	fp, r3
 7735 01de 0123     		movs	r3, #1
 7736 01e0 5B42     		rsbs	r3, r3, #0
 7737 01e2 9A46     		mov	r10, r3
 7738 01e4 D344     		add	fp, fp, r10
 7739 01e6 5B46     		mov	r3, fp
 7740 01e8 DB1B     		subs	r3, r3, r7
 7741 01ea 9BB2     		uxth	r3, r3
 7742 01ec 9846     		mov	r8, r3
 7743              	.LVL682:
 244:User/e-Paper/GUI_Paint.c ****     default:
 7744              		.loc 1 244 9 is_stmt 1 view .LVU2120
 7745 01ee 72E7     		b	.L512
 7746              	.LVL683:
 7747              	.L518:
 209:User/e-Paper/GUI_Paint.c ****     {
 7748              		.loc 1 209 5 is_stmt 0 view .LVU2121
 7749 01f0 B046     		mov	r8, r6
 7750 01f2 8946     		mov	r9, r1
 7751 01f4 5CE7     		b	.L504
 7752              	.L502:
 220:User/e-Paper/GUI_Paint.c ****         Y = Paint.HeightMemory - Ypoint - 1;
 7753              		.loc 1 220 9 is_stmt 1 view .LVU2122
 220:User/e-Paper/GUI_Paint.c ****         Y = Paint.HeightMemory - Ypoint - 1;
 7754              		.loc 1 220 11 is_stmt 0 view .LVU2123
 7755 01f6 0389     		ldrh	r3, [r0, #8]
 7756 01f8 9946     		mov	r9, r3
 7757 01fa 0123     		movs	r3, #1
 7758 01fc 5B42     		rsbs	r3, r3, #0
 7759 01fe 9846     		mov	r8, r3
 7760 0200 C144     		add	r9, r9, r8
 7761 0202 4B46     		mov	r3, r9
 7762 0204 5B1A     		subs	r3, r3, r1
 7763 0206 9BB2     		uxth	r3, r3
 7764 0208 9946     		mov	r9, r3
 7765              	.LVL684:
 221:User/e-Paper/GUI_Paint.c ****         break;
 7766              		.loc 1 221 9 is_stmt 1 view .LVU2124
 221:User/e-Paper/GUI_Paint.c ****         break;
 7767              		.loc 1 221 11 is_stmt 0 view .LVU2125
 7768 020a 4389     		ldrh	r3, [r0, #10]
 7769 020c 9846     		mov	r8, r3
 7770 020e 0123     		movs	r3, #1
 7771 0210 5B42     		rsbs	r3, r3, #0
 7772 0212 9A46     		mov	r10, r3
 7773 0214 D044     		add	r8, r8, r10
 7774 0216 4346     		mov	r3, r8
 7775 0218 9B1B     		subs	r3, r3, r6
 7776 021a 9BB2     		uxth	r3, r3
 7777 021c 9846     		mov	r8, r3
ARM GAS  C:\Users\upo\AppData\Local\Temp\ccEC4369.s 			page 185


 7778              	.LVL685:
 222:User/e-Paper/GUI_Paint.c ****     case 270:
 7779              		.loc 1 222 9 is_stmt 1 view .LVU2126
 7780 021e 47E7     		b	.L504
 7781              	.L526:
 7782              	.LBB529:
 257:User/e-Paper/GUI_Paint.c ****         UBYTE Rdata = Paint.Image[Addr];
 7783              		.loc 1 257 9 view .LVU2127
 7784              	.LVL686:
 258:User/e-Paper/GUI_Paint.c ****         if (Color == BLACK)
 7785              		.loc 1 258 9 view .LVU2128
 257:User/e-Paper/GUI_Paint.c ****         UBYTE Rdata = Paint.Image[Addr];
 7786              		.loc 1 257 41 is_stmt 0 view .LVU2129
 7787 0220 438A     		ldrh	r3, [r0, #18]
 7788 0222 9A46     		mov	r10, r3
 257:User/e-Paper/GUI_Paint.c ****         UBYTE Rdata = Paint.Image[Addr];
 7789              		.loc 1 257 34 view .LVU2130
 7790 0224 4346     		mov	r3, r8
 7791 0226 5746     		mov	r7, r10
 7792 0228 7B43     		muls	r3, r7
 7793 022a 9846     		mov	r8, r3
 7794              	.LVL687:
 257:User/e-Paper/GUI_Paint.c ****         UBYTE Rdata = Paint.Image[Addr];
 7795              		.loc 1 257 26 view .LVU2131
 7796 022c 4B46     		mov	r3, r9
 7797 022e DB08     		lsrs	r3, r3, #3
 7798 0230 9BB2     		uxth	r3, r3
 7799 0232 9A46     		mov	r10, r3
 257:User/e-Paper/GUI_Paint.c ****         UBYTE Rdata = Paint.Image[Addr];
 7800              		.loc 1 257 30 view .LVU2132
 7801 0234 D044     		add	r8, r8, r10
 258:User/e-Paper/GUI_Paint.c ****         if (Color == BLACK)
 7802              		.loc 1 258 15 view .LVU2133
 7803 0236 4746     		mov	r7, r8
 258:User/e-Paper/GUI_Paint.c ****         if (Color == BLACK)
 7804              		.loc 1 258 34 view .LVU2134
 7805 0238 0368     		ldr	r3, [r0]
 7806 023a 9B46     		mov	fp, r3
 258:User/e-Paper/GUI_Paint.c ****         if (Color == BLACK)
 7807              		.loc 1 258 15 view .LVU2135
 7808 023c DB5D     		ldrb	r3, [r3, r7]
 258:User/e-Paper/GUI_Paint.c ****         if (Color == BLACK)
 7809              		.loc 1 258 34 view .LVU2136
 7810 023e C344     		add	fp, fp, r8
 260:User/e-Paper/GUI_Paint.c ****         else
 7811              		.loc 1 260 54 view .LVU2137
 7812 0240 6746     		mov	r7, ip
 258:User/e-Paper/GUI_Paint.c ****         if (Color == BLACK)
 7813              		.loc 1 258 15 view .LVU2138
 7814 0242 9846     		mov	r8, r3
 7815              	.LVL688:
 259:User/e-Paper/GUI_Paint.c ****             Paint.Image[Addr] = Rdata & ~(0x80 >> (X % 8));
 7816              		.loc 1 259 9 is_stmt 1 view .LVU2139
 260:User/e-Paper/GUI_Paint.c ****         else
 7817              		.loc 1 260 54 is_stmt 0 view .LVU2140
 7818 0244 4B46     		mov	r3, r9
 7819 0246 3B40     		ands	r3, r7
ARM GAS  C:\Users\upo\AppData\Local\Temp\ccEC4369.s 			page 186


 260:User/e-Paper/GUI_Paint.c ****         else
 7820              		.loc 1 260 48 view .LVU2141
 7821 0248 8027     		movs	r7, #128
 7822 024a 1F41     		asrs	r7, r7, r3
 259:User/e-Paper/GUI_Paint.c ****             Paint.Image[Addr] = Rdata & ~(0x80 >> (X % 8));
 7823              		.loc 1 259 12 view .LVU2142
 7824 024c 019B     		ldr	r3, [sp, #4]
 7825 024e 002B     		cmp	r3, #0
 7826 0250 2ED1     		bne	.L514
 260:User/e-Paper/GUI_Paint.c ****         else
 7827              		.loc 1 260 13 is_stmt 1 view .LVU2143
 260:User/e-Paper/GUI_Paint.c ****         else
 7828              		.loc 1 260 39 is_stmt 0 view .LVU2144
 7829 0252 4346     		mov	r3, r8
 260:User/e-Paper/GUI_Paint.c ****         else
 7830              		.loc 1 260 31 view .LVU2145
 7831 0254 5D46     		mov	r5, fp
 260:User/e-Paper/GUI_Paint.c ****         else
 7832              		.loc 1 260 39 view .LVU2146
 7833 0256 BB43     		bics	r3, r7
 260:User/e-Paper/GUI_Paint.c ****         else
 7834              		.loc 1 260 31 view .LVU2147
 7835 0258 2B70     		strb	r3, [r5]
 260:User/e-Paper/GUI_Paint.c ****         else
 7836              		.loc 1 260 31 view .LVU2148
 7837 025a 6CE7     		b	.L501
 7838              	.LVL689:
 7839              	.L527:
 260:User/e-Paper/GUI_Paint.c ****         else
 7840              		.loc 1 260 31 view .LVU2149
 7841              	.LBE529:
 7842              	.LBB530:
 266:User/e-Paper/GUI_Paint.c ****         Color = Color % 4; // Guaranteed color scale is 4  --- 0~3
 7843              		.loc 1 266 9 is_stmt 1 view .LVU2150
 267:User/e-Paper/GUI_Paint.c ****         UBYTE Rdata = Paint.Image[Addr];
 7844              		.loc 1 267 9 view .LVU2151
 268:User/e-Paper/GUI_Paint.c **** 
 7845              		.loc 1 268 9 view .LVU2152
 266:User/e-Paper/GUI_Paint.c ****         Color = Color % 4; // Guaranteed color scale is 4  --- 0~3
 7846              		.loc 1 266 41 is_stmt 0 view .LVU2153
 7847 025c 438A     		ldrh	r3, [r0, #18]
 7848 025e 9A46     		mov	r10, r3
 266:User/e-Paper/GUI_Paint.c ****         Color = Color % 4; // Guaranteed color scale is 4  --- 0~3
 7849              		.loc 1 266 34 view .LVU2154
 7850 0260 4346     		mov	r3, r8
 7851 0262 5746     		mov	r7, r10
 7852 0264 7B43     		muls	r3, r7
 7853 0266 9A46     		mov	r10, r3
 266:User/e-Paper/GUI_Paint.c ****         Color = Color % 4; // Guaranteed color scale is 4  --- 0~3
 7854              		.loc 1 266 26 view .LVU2155
 7855 0268 4B46     		mov	r3, r9
 7856 026a 9B08     		lsrs	r3, r3, #2
 7857 026c 9BB2     		uxth	r3, r3
 7858 026e 9846     		mov	r8, r3
 7859              	.LVL690:
 268:User/e-Paper/GUI_Paint.c **** 
 7860              		.loc 1 268 34 view .LVU2156
ARM GAS  C:\Users\upo\AppData\Local\Temp\ccEC4369.s 			page 187


 7861 0270 0368     		ldr	r3, [r0]
 266:User/e-Paper/GUI_Paint.c ****         Color = Color % 4; // Guaranteed color scale is 4  --- 0~3
 7862              		.loc 1 266 30 view .LVU2157
 7863 0272 5746     		mov	r7, r10
 268:User/e-Paper/GUI_Paint.c **** 
 7864              		.loc 1 268 34 view .LVU2158
 7865 0274 9B46     		mov	fp, r3
 270:User/e-Paper/GUI_Paint.c ****         Paint.Image[Addr] = Rdata | ((Color << 6) >> ((X % 4) * 2));
 7866              		.loc 1 270 40 view .LVU2159
 7867 0276 0323     		movs	r3, #3
 266:User/e-Paper/GUI_Paint.c ****         Color = Color % 4; // Guaranteed color scale is 4  --- 0~3
 7868              		.loc 1 266 30 view .LVU2160
 7869 0278 4744     		add	r7, r7, r8
 270:User/e-Paper/GUI_Paint.c ****         Paint.Image[Addr] = Rdata | ((Color << 6) >> ((X % 4) * 2));
 7870              		.loc 1 270 40 view .LVU2161
 7871 027a 9846     		mov	r8, r3
 266:User/e-Paper/GUI_Paint.c ****         Color = Color % 4; // Guaranteed color scale is 4  --- 0~3
 7872              		.loc 1 266 30 view .LVU2162
 7873 027c 3D00     		movs	r5, r7
 7874              	.LVL691:
 270:User/e-Paper/GUI_Paint.c ****         Paint.Image[Addr] = Rdata | ((Color << 6) >> ((X % 4) * 2));
 7875              		.loc 1 270 9 is_stmt 1 view .LVU2163
 270:User/e-Paper/GUI_Paint.c ****         Paint.Image[Addr] = Rdata | ((Color << 6) >> ((X % 4) * 2));
 7876              		.loc 1 270 40 is_stmt 0 view .LVU2164
 7877 027e 4B46     		mov	r3, r9
 7878 0280 4746     		mov	r7, r8
 7879 0282 3B40     		ands	r3, r7
 270:User/e-Paper/GUI_Paint.c ****         Paint.Image[Addr] = Rdata | ((Color << 6) >> ((X % 4) * 2));
 7880              		.loc 1 270 45 view .LVU2165
 7881 0284 5B00     		lsls	r3, r3, #1
 7882 0286 9846     		mov	r8, r3
 7883              	.LVL692:
 271:User/e-Paper/GUI_Paint.c ****     }
 7884              		.loc 1 271 9 is_stmt 1 view .LVU2166
 270:User/e-Paper/GUI_Paint.c ****         Paint.Image[Addr] = Rdata | ((Color << 6) >> ((X % 4) * 2));
 7885              		.loc 1 270 33 is_stmt 0 view .LVU2167
 7886 0288 C023     		movs	r3, #192
 7887              	.LVL693:
 270:User/e-Paper/GUI_Paint.c ****         Paint.Image[Addr] = Rdata | ((Color << 6) >> ((X % 4) * 2));
 7888              		.loc 1 270 33 view .LVU2168
 7889 028a 4746     		mov	r7, r8
 7890 028c 3B41     		asrs	r3, r3, r7
 7891 028e 9A46     		mov	r10, r3
 270:User/e-Paper/GUI_Paint.c ****         Paint.Image[Addr] = Rdata | ((Color << 6) >> ((X % 4) * 2));
 7892              		.loc 1 270 23 view .LVU2169
 7893 0290 5B46     		mov	r3, fp
 7894 0292 5746     		mov	r7, r10
 7895 0294 5B5D     		ldrb	r3, [r3, r5]
 7896 0296 0995     		str	r5, [sp, #36]
 7897 0298 BB43     		bics	r3, r7
 7898 029a 9946     		mov	r9, r3
 7899              	.LVL694:
 271:User/e-Paper/GUI_Paint.c ****     }
 7900              		.loc 1 271 51 view .LVU2170
 7901 029c 4746     		mov	r7, r8
 271:User/e-Paper/GUI_Paint.c ****     }
 7902              		.loc 1 271 45 view .LVU2171
ARM GAS  C:\Users\upo\AppData\Local\Temp\ccEC4369.s 			page 188


 7903 029e 019B     		ldr	r3, [sp, #4]
 271:User/e-Paper/GUI_Paint.c ****     }
 7904              		.loc 1 271 27 view .LVU2172
 7905 02a0 5D46     		mov	r5, fp
 7906              	.LVL695:
 271:User/e-Paper/GUI_Paint.c ****     }
 7907              		.loc 1 271 45 view .LVU2173
 7908 02a2 9B01     		lsls	r3, r3, #6
 271:User/e-Paper/GUI_Paint.c ****     }
 7909              		.loc 1 271 51 view .LVU2174
 7910 02a4 3B41     		asrs	r3, r3, r7
 271:User/e-Paper/GUI_Paint.c ****     }
 7911              		.loc 1 271 35 view .LVU2175
 7912 02a6 4F46     		mov	r7, r9
 7913 02a8 3B43     		orrs	r3, r7
 271:User/e-Paper/GUI_Paint.c ****     }
 7914              		.loc 1 271 27 view .LVU2176
 7915 02aa 099F     		ldr	r7, [sp, #36]
 7916 02ac EB55     		strb	r3, [r5, r7]
 7917              	.LVL696:
 271:User/e-Paper/GUI_Paint.c ****     }
 7918              		.loc 1 271 27 view .LVU2177
 7919              	.LBE530:
 7920 02ae 42E7     		b	.L501
 7921              	.LVL697:
 7922              	.L514:
 7923              	.LBB531:
 262:User/e-Paper/GUI_Paint.c ****     }
 7924              		.loc 1 262 13 is_stmt 1 view .LVU2178
 262:User/e-Paper/GUI_Paint.c ****     }
 7925              		.loc 1 262 39 is_stmt 0 view .LVU2179
 7926 02b0 4346     		mov	r3, r8
 262:User/e-Paper/GUI_Paint.c ****     }
 7927              		.loc 1 262 31 view .LVU2180
 7928 02b2 5D46     		mov	r5, fp
 262:User/e-Paper/GUI_Paint.c ****     }
 7929              		.loc 1 262 39 view .LVU2181
 7930 02b4 3B43     		orrs	r3, r7
 262:User/e-Paper/GUI_Paint.c ****     }
 7931              		.loc 1 262 31 view .LVU2182
 7932 02b6 2B70     		strb	r3, [r5]
 262:User/e-Paper/GUI_Paint.c ****     }
 7933              		.loc 1 262 31 view .LVU2183
 7934 02b8 3DE7     		b	.L501
 7935              	.LVL698:
 7936              	.L495:
 262:User/e-Paper/GUI_Paint.c ****     }
 7937              		.loc 1 262 31 view .LVU2184
 7938              	.LBE531:
 7939              	.LBE534:
 7940              	.LBE537:
 7941              	.LBE540:
 7942              	.LBE543:
 791:User/e-Paper/GUI_Paint.c ****     {
 7943              		.loc 1 791 5 is_stmt 1 discriminator 4 view .LVU2185
 791:User/e-Paper/GUI_Paint.c ****     {
 7944              		.loc 1 791 19 discriminator 4 view .LVU2186
ARM GAS  C:\Users\upo\AppData\Local\Temp\ccEC4369.s 			page 189


 7945 02ba 4346     		mov	r3, r8
 7946 02bc 002B     		cmp	r3, #0
 7947 02be 00D1     		bne	.LCB8206
 7948 02c0 57E7     		b	.L494	@long jump
 7949              	.LCB8206:
 7950 02c2 5B46     		mov	r3, fp
 7951 02c4 002B     		cmp	r3, #0
 7952 02c6 00D0     		beq	.LCB8209
 7953 02c8 B9E6     		b	.L496	@long jump
 7954              	.LCB8209:
 7955 02ca 52E7     		b	.L494
 7956              	.L532:
 7957              		.align	2
 7958              	.L531:
 7959 02cc 00000000 		.word	Paint
 7960              		.cfi_endproc
 7961              	.LFE1442:
 7963              		.section	.text.Paint_DrawBitMap_Block,"ax",%progbits
 7964              		.align	1
 7965              		.p2align 2,,3
 7966              		.global	Paint_DrawBitMap_Block
 7967              		.syntax unified
 7968              		.code	16
 7969              		.thumb_func
 7971              	Paint_DrawBitMap_Block:
 7972              	.LVL699:
 7973              	.LFB1443:
 804:User/e-Paper/GUI_Paint.c **** 
 805:User/e-Paper/GUI_Paint.c **** void Paint_DrawBitMap_Block(const unsigned char *image_buffer, UBYTE Region)
 806:User/e-Paper/GUI_Paint.c **** {
 7974              		.loc 1 806 1 view -0
 7975              		.cfi_startproc
 7976              		@ args = 0, pretend = 0, frame = 0
 7977              		@ frame_needed = 0, uses_anonymous_args = 0
 807:User/e-Paper/GUI_Paint.c ****     UWORD x, y;
 7978              		.loc 1 807 5 view .LVU2188
 808:User/e-Paper/GUI_Paint.c ****     UDOUBLE Addr = 0;
 7979              		.loc 1 808 5 view .LVU2189
 809:User/e-Paper/GUI_Paint.c ****     for (y = 0; y < Paint.HeightByte; y++)
 7980              		.loc 1 809 5 view .LVU2190
 7981              		.loc 1 809 19 view .LVU2191
 806:User/e-Paper/GUI_Paint.c ****     UWORD x, y;
 7982              		.loc 1 806 1 is_stmt 0 view .LVU2192
 7983 0000 F0B5     		push	{r4, r5, r6, r7, lr}
 7984              	.LCFI43:
 7985              		.cfi_def_cfa_offset 20
 7986              		.cfi_offset 4, -20
 7987              		.cfi_offset 5, -16
 7988              		.cfi_offset 6, -12
 7989              		.cfi_offset 7, -8
 7990              		.cfi_offset 14, -4
 806:User/e-Paper/GUI_Paint.c ****     UWORD x, y;
 7991              		.loc 1 806 1 view .LVU2193
 7992 0002 0500     		movs	r5, r0
 7993              		.loc 1 809 26 view .LVU2194
 7994 0004 1448     		ldr	r0, .L543
 7995              	.LVL700:
ARM GAS  C:\Users\upo\AppData\Local\Temp\ccEC4369.s 			page 190


 7996              		.loc 1 809 26 view .LVU2195
 7997 0006 828A     		ldrh	r2, [r0, #20]
 7998              		.loc 1 809 19 view .LVU2196
 7999 0008 002A     		cmp	r2, #0
 8000 000a 24D0     		beq	.L533
 8001              		.loc 1 809 12 view .LVU2197
 8002 000c 0024     		movs	r4, #0
 810:User/e-Paper/GUI_Paint.c ****     {
 811:User/e-Paper/GUI_Paint.c ****         for (x = 0; x < Paint.WidthByte; x++)
 8003              		.loc 1 811 30 view .LVU2198
 8004 000e 438A     		ldrh	r3, [r0, #18]
 812:User/e-Paper/GUI_Paint.c ****         { // 8 pixel =  1 byte
 813:User/e-Paper/GUI_Paint.c ****             Addr = x + y * Paint.WidthByte;
 814:User/e-Paper/GUI_Paint.c ****             Paint.Image[Addr] =
 815:User/e-Paper/GUI_Paint.c ****                 (unsigned char)image_buffer[Addr + (Paint.HeightByte) * Paint.WidthByte * (Region -
 8005              		.loc 1 815 99 view .LVU2199
 8006 0010 4E1E     		subs	r6, r1, #1
 8007              	.LVL701:
 8008              	.L535:
 811:User/e-Paper/GUI_Paint.c ****         { // 8 pixel =  1 byte
 8009              		.loc 1 811 23 is_stmt 1 view .LVU2200
 8010 0012 002B     		cmp	r3, #0
 8011 0014 1FD0     		beq	.L533
 813:User/e-Paper/GUI_Paint.c ****             Paint.Image[Addr] =
 8012              		.loc 1 813 13 view .LVU2201
 813:User/e-Paper/GUI_Paint.c ****             Paint.Image[Addr] =
 8013              		.loc 1 813 26 is_stmt 0 view .LVU2202
 8014 0016 2100     		movs	r1, r4
 8015 0018 5943     		muls	r1, r3
 8016              	.LVL702:
 814:User/e-Paper/GUI_Paint.c ****                 (unsigned char)image_buffer[Addr + (Paint.HeightByte) * Paint.WidthByte * (Region -
 8017              		.loc 1 814 13 is_stmt 1 view .LVU2203
 8018              		.loc 1 815 71 is_stmt 0 view .LVU2204
 8019 001a 5343     		muls	r3, r2
 8020              		.loc 1 815 89 view .LVU2205
 8021 001c 7343     		muls	r3, r6
 8022              		.loc 1 815 17 view .LVU2206
 8023 001e 6A18     		adds	r2, r5, r1
 8024 0020 D25C     		ldrb	r2, [r2, r3]
 814:User/e-Paper/GUI_Paint.c ****                 (unsigned char)image_buffer[Addr + (Paint.HeightByte) * Paint.WidthByte * (Region -
 8025              		.loc 1 814 31 view .LVU2207
 8026 0022 0368     		ldr	r3, [r0]
 8027 0024 5A54     		strb	r2, [r3, r1]
 811:User/e-Paper/GUI_Paint.c ****         { // 8 pixel =  1 byte
 8028              		.loc 1 811 43 is_stmt 1 view .LVU2208
 8029              	.LVL703:
 811:User/e-Paper/GUI_Paint.c ****         { // 8 pixel =  1 byte
 8030              		.loc 1 811 23 view .LVU2209
 811:User/e-Paper/GUI_Paint.c ****         { // 8 pixel =  1 byte
 8031              		.loc 1 811 30 is_stmt 0 view .LVU2210
 8032 0026 438A     		ldrh	r3, [r0, #18]
 811:User/e-Paper/GUI_Paint.c ****         { // 8 pixel =  1 byte
 8033              		.loc 1 811 23 view .LVU2211
 8034 0028 012B     		cmp	r3, #1
 8035 002a 0FD9     		bls	.L536
 811:User/e-Paper/GUI_Paint.c ****         { // 8 pixel =  1 byte
 8036              		.loc 1 811 43 view .LVU2212
ARM GAS  C:\Users\upo\AppData\Local\Temp\ccEC4369.s 			page 191


 8037 002c 0122     		movs	r2, #1
 8038              	.LVL704:
 8039              	.L537:
 813:User/e-Paper/GUI_Paint.c ****             Paint.Image[Addr] =
 8040              		.loc 1 813 13 is_stmt 1 view .LVU2213
 813:User/e-Paper/GUI_Paint.c ****             Paint.Image[Addr] =
 8041              		.loc 1 813 26 is_stmt 0 view .LVU2214
 8042 002e 2100     		movs	r1, r4
 8043              		.loc 1 815 58 view .LVU2215
 8044 0030 878A     		ldrh	r7, [r0, #20]
 813:User/e-Paper/GUI_Paint.c ****             Paint.Image[Addr] =
 8045              		.loc 1 813 26 view .LVU2216
 8046 0032 5943     		muls	r1, r3
 8047              		.loc 1 815 71 view .LVU2217
 8048 0034 7B43     		muls	r3, r7
 8049              		.loc 1 815 89 view .LVU2218
 8050 0036 7343     		muls	r3, r6
 813:User/e-Paper/GUI_Paint.c ****             Paint.Image[Addr] =
 8051              		.loc 1 813 22 view .LVU2219
 8052 0038 8918     		adds	r1, r1, r2
 8053              	.LVL705:
 814:User/e-Paper/GUI_Paint.c ****                 (unsigned char)image_buffer[Addr + (Paint.HeightByte) * Paint.WidthByte * (Region -
 8054              		.loc 1 814 13 is_stmt 1 view .LVU2220
 8055              		.loc 1 815 17 is_stmt 0 view .LVU2221
 8056 003a 6F18     		adds	r7, r5, r1
 8057 003c FF5C     		ldrb	r7, [r7, r3]
 814:User/e-Paper/GUI_Paint.c ****                 (unsigned char)image_buffer[Addr + (Paint.HeightByte) * Paint.WidthByte * (Region -
 8058              		.loc 1 814 31 view .LVU2222
 8059 003e 0368     		ldr	r3, [r0]
 811:User/e-Paper/GUI_Paint.c ****         { // 8 pixel =  1 byte
 8060              		.loc 1 811 43 view .LVU2223
 8061 0040 0132     		adds	r2, r2, #1
 8062              	.LVL706:
 814:User/e-Paper/GUI_Paint.c ****                 (unsigned char)image_buffer[Addr + (Paint.HeightByte) * Paint.WidthByte * (Region -
 8063              		.loc 1 814 31 view .LVU2224
 8064 0042 5F54     		strb	r7, [r3, r1]
 811:User/e-Paper/GUI_Paint.c ****         { // 8 pixel =  1 byte
 8065              		.loc 1 811 43 is_stmt 1 view .LVU2225
 811:User/e-Paper/GUI_Paint.c ****         { // 8 pixel =  1 byte
 8066              		.loc 1 811 30 is_stmt 0 view .LVU2226
 8067 0044 438A     		ldrh	r3, [r0, #18]
 811:User/e-Paper/GUI_Paint.c ****         { // 8 pixel =  1 byte
 8068              		.loc 1 811 43 view .LVU2227
 8069 0046 92B2     		uxth	r2, r2
 8070              	.LVL707:
 811:User/e-Paper/GUI_Paint.c ****         { // 8 pixel =  1 byte
 8071              		.loc 1 811 23 is_stmt 1 view .LVU2228
 8072 0048 9342     		cmp	r3, r2
 8073 004a F0D8     		bhi	.L537
 8074              	.LVL708:
 8075              	.L536:
 809:User/e-Paper/GUI_Paint.c ****     {
 8076              		.loc 1 809 40 is_stmt 0 view .LVU2229
 8077 004c 0134     		adds	r4, r4, #1
 8078              	.LVL709:
 809:User/e-Paper/GUI_Paint.c ****     {
 8079              		.loc 1 809 26 view .LVU2230
ARM GAS  C:\Users\upo\AppData\Local\Temp\ccEC4369.s 			page 192


 8080 004e 828A     		ldrh	r2, [r0, #20]
 809:User/e-Paper/GUI_Paint.c ****     {
 8081              		.loc 1 809 40 is_stmt 1 view .LVU2231
 8082 0050 A4B2     		uxth	r4, r4
 8083              	.LVL710:
 809:User/e-Paper/GUI_Paint.c ****     {
 8084              		.loc 1 809 19 view .LVU2232
 8085 0052 9442     		cmp	r4, r2
 8086 0054 DDD3     		bcc	.L535
 8087              	.LVL711:
 8088              	.L533:
 816:User/e-Paper/GUI_Paint.c ****         }
 817:User/e-Paper/GUI_Paint.c ****     }
 818:User/e-Paper/GUI_Paint.c **** }
 8089              		.loc 1 818 1 is_stmt 0 view .LVU2233
 8090              		@ sp needed
 8091              	.LVL712:
 8092              		.loc 1 818 1 view .LVU2234
 8093 0056 F0BD     		pop	{r4, r5, r6, r7, pc}
 8094              	.L544:
 8095              		.align	2
 8096              	.L543:
 8097 0058 00000000 		.word	Paint
 8098              		.cfi_endproc
 8099              	.LFE1443:
 8101              		.global	Paint
 8102              		.section	.bss.Paint,"aw",%nobits
 8103              		.align	2
 8106              	Paint:
 8107 0000 00000000 		.space	24
 8107      00000000 
 8107      00000000 
 8107      00000000 
 8107      00000000 
 8108              		.text
 8109              	.Letext0:
 8110              		.file 2 "C:\\ST\\STM32CubeCLT_1.15.0\\GNU-tools-for-STM32\\bin/../lib/gcc/arm-none-eabi/12.3.1/../
 8111              		.file 3 "C:\\ST\\STM32CubeCLT_1.15.0\\GNU-tools-for-STM32\\bin/../lib/gcc/arm-none-eabi/12.3.1/../
 8112              		.file 4 "Drivers/STM32U0xx_HAL_Driver/Inc/stm32u0xx_ll_dma.h"
 8113              		.file 5 "Drivers/STM32U0xx_HAL_Driver/Inc/stm32u0xx_ll_usart.h"
 8114              		.file 6 "User/e-Paper/fonts.h"
 8115              		.file 7 "User/e-Paper/GUI_Paint.h"
 8116              		.file 8 "Core/Inc/printf.h"
 8117              		.file 9 "<built-in>"
ARM GAS  C:\Users\upo\AppData\Local\Temp\ccEC4369.s 			page 193


DEFINED SYMBOLS
                            *ABS*:00000000 GUI_Paint.c
C:\Users\upo\AppData\Local\Temp\ccEC4369.s:19     .text.Paint_SetPixel.part.0:00000000 $t
C:\Users\upo\AppData\Local\Temp\ccEC4369.s:25     .text.Paint_SetPixel.part.0:00000000 Paint_SetPixel.part.0
C:\Users\upo\AppData\Local\Temp\ccEC4369.s:376    .text.Paint_SetPixel.part.0:00000114 $d
C:\Users\upo\AppData\Local\Temp\ccEC4369.s:8106   .bss.Paint:00000000 Paint
C:\Users\upo\AppData\Local\Temp\ccEC4369.s:382    .text.Paint_DrawChar.part.0.isra.0:00000000 $t
C:\Users\upo\AppData\Local\Temp\ccEC4369.s:388    .text.Paint_DrawChar.part.0.isra.0:00000000 Paint_DrawChar.part.0.isra.0
C:\Users\upo\AppData\Local\Temp\ccEC4369.s:708    .text.Paint_DrawChar.part.0.isra.0:00000134 $d
C:\Users\upo\AppData\Local\Temp\ccEC4369.s:715    .rodata.Paint_DrawLine.part.0.str1.4:00000000 $d
C:\Users\upo\AppData\Local\Temp\ccEC4369.s:722    .text.Paint_DrawLine.part.0:00000000 $t
C:\Users\upo\AppData\Local\Temp\ccEC4369.s:728    .text.Paint_DrawLine.part.0:00000000 Paint_DrawLine.part.0
C:\Users\upo\AppData\Local\Temp\ccEC4369.s:1316   .text.Paint_DrawLine.part.0:00000240 $d
C:\Users\upo\AppData\Local\Temp\ccEC4369.s:1325   .text.Paint_DrawPoint.constprop.0:00000000 $t
C:\Users\upo\AppData\Local\Temp\ccEC4369.s:1331   .text.Paint_DrawPoint.constprop.0:00000000 Paint_DrawPoint.constprop.0
C:\Users\upo\AppData\Local\Temp\ccEC4369.s:1772   .text.Paint_DrawPoint.constprop.0:00000138 $d
C:\Users\upo\AppData\Local\Temp\ccEC4369.s:1786   .text.Paint_DrawPoint.constprop.1:00000000 $t
C:\Users\upo\AppData\Local\Temp\ccEC4369.s:1792   .text.Paint_DrawPoint.constprop.1:00000000 Paint_DrawPoint.constprop.1
C:\Users\upo\AppData\Local\Temp\ccEC4369.s:2478   .text.Paint_DrawPoint.constprop.1:0000027c $d
C:\Users\upo\AppData\Local\Temp\ccEC4369.s:2485   .text.Paint_NewImage:00000000 $t
C:\Users\upo\AppData\Local\Temp\ccEC4369.s:2492   .text.Paint_NewImage:00000000 Paint_NewImage
C:\Users\upo\AppData\Local\Temp\ccEC4369.s:2579   .text.Paint_NewImage:0000003c $d
C:\Users\upo\AppData\Local\Temp\ccEC4369.s:2584   .text.Paint_SelectImage:00000000 $t
C:\Users\upo\AppData\Local\Temp\ccEC4369.s:2591   .text.Paint_SelectImage:00000000 Paint_SelectImage
C:\Users\upo\AppData\Local\Temp\ccEC4369.s:2611   .text.Paint_SelectImage:00000008 $d
C:\Users\upo\AppData\Local\Temp\ccEC4369.s:2616   .text.Paint_SetRotate:00000000 $t
C:\Users\upo\AppData\Local\Temp\ccEC4369.s:2623   .text.Paint_SetRotate:00000000 Paint_SetRotate
C:\Users\upo\AppData\Local\Temp\ccEC4369.s:2659   .text.Paint_SetRotate:0000001c $d
C:\Users\upo\AppData\Local\Temp\ccEC4369.s:2664   .text.Paint_SetScale:00000000 $t
C:\Users\upo\AppData\Local\Temp\ccEC4369.s:2671   .text.Paint_SetScale:00000000 Paint_SetScale
C:\Users\upo\AppData\Local\Temp\ccEC4369.s:2755   .text.Paint_SetScale:00000040 $d
C:\Users\upo\AppData\Local\Temp\ccEC4369.s:2760   .text.Paint_SetMirroring:00000000 $t
C:\Users\upo\AppData\Local\Temp\ccEC4369.s:2767   .text.Paint_SetMirroring:00000000 Paint_SetMirroring
C:\Users\upo\AppData\Local\Temp\ccEC4369.s:2792   .text.Paint_SetMirroring:0000000c $d
C:\Users\upo\AppData\Local\Temp\ccEC4369.s:2797   .text.Paint_SetPixel:00000000 $t
C:\Users\upo\AppData\Local\Temp\ccEC4369.s:2804   .text.Paint_SetPixel:00000000 Paint_SetPixel
C:\Users\upo\AppData\Local\Temp\ccEC4369.s:3168   .text.Paint_SetPixel:00000118 $d
C:\Users\upo\AppData\Local\Temp\ccEC4369.s:3176   .text.Paint_Clear:00000000 $t
C:\Users\upo\AppData\Local\Temp\ccEC4369.s:3183   .text.Paint_Clear:00000000 Paint_Clear
C:\Users\upo\AppData\Local\Temp\ccEC4369.s:3360   .text.Paint_Clear:00000078 $d
C:\Users\upo\AppData\Local\Temp\ccEC4369.s:3367   .text.Paint_ClearWindows:00000000 $t
C:\Users\upo\AppData\Local\Temp\ccEC4369.s:3374   .text.Paint_ClearWindows:00000000 Paint_ClearWindows
C:\Users\upo\AppData\Local\Temp\ccEC4369.s:3929   .text.Paint_ClearWindows:000001e4 $d
C:\Users\upo\AppData\Local\Temp\ccEC4369.s:3939   .text.Paint_DrawPoint:00000000 $t
C:\Users\upo\AppData\Local\Temp\ccEC4369.s:3946   .text.Paint_DrawPoint:00000000 Paint_DrawPoint
C:\Users\upo\AppData\Local\Temp\ccEC4369.s:4678   .text.Paint_DrawPoint:00000270 $d
C:\Users\upo\AppData\Local\Temp\ccEC4369.s:4687   .text.Paint_DrawLine:00000000 $t
C:\Users\upo\AppData\Local\Temp\ccEC4369.s:4694   .text.Paint_DrawLine:00000000 Paint_DrawLine
C:\Users\upo\AppData\Local\Temp\ccEC4369.s:4761   .text.Paint_DrawLine:00000038 $d
C:\Users\upo\AppData\Local\Temp\ccEC4369.s:4766   .text.Paint_DrawRectangle:00000000 $t
C:\Users\upo\AppData\Local\Temp\ccEC4369.s:4773   .text.Paint_DrawRectangle:00000000 Paint_DrawRectangle
C:\Users\upo\AppData\Local\Temp\ccEC4369.s:5064   .text.Paint_DrawRectangle:00000118 $d
C:\Users\upo\AppData\Local\Temp\ccEC4369.s:5071   .text.Paint_DrawCircle:00000000 $t
C:\Users\upo\AppData\Local\Temp\ccEC4369.s:5078   .text.Paint_DrawCircle:00000000 Paint_DrawCircle
C:\Users\upo\AppData\Local\Temp\ccEC4369.s:5910   .text.Paint_DrawCircle:00000344 $d
C:\Users\upo\AppData\Local\Temp\ccEC4369.s:5916   .text.Paint_DrawCircle:00000350 $t
C:\Users\upo\AppData\Local\Temp\ccEC4369.s:6150   .text.Paint_DrawCircle:00000444 $d
ARM GAS  C:\Users\upo\AppData\Local\Temp\ccEC4369.s 			page 194


C:\Users\upo\AppData\Local\Temp\ccEC4369.s:6158   .text.Paint_DrawChar:00000000 $t
C:\Users\upo\AppData\Local\Temp\ccEC4369.s:6165   .text.Paint_DrawChar:00000000 Paint_DrawChar
C:\Users\upo\AppData\Local\Temp\ccEC4369.s:6221   .text.Paint_DrawChar:00000028 $d
C:\Users\upo\AppData\Local\Temp\ccEC4369.s:6226   .text.Paint_DrawString_EN:00000000 $t
C:\Users\upo\AppData\Local\Temp\ccEC4369.s:6233   .text.Paint_DrawString_EN:00000000 Paint_DrawString_EN
C:\Users\upo\AppData\Local\Temp\ccEC4369.s:6408   .text.Paint_DrawString_EN:00000084 $d
C:\Users\upo\AppData\Local\Temp\ccEC4369.s:6416   .text.Paint_DrawNum:00000000 $t
C:\Users\upo\AppData\Local\Temp\ccEC4369.s:6423   .text.Paint_DrawNum:00000000 Paint_DrawNum
C:\Users\upo\AppData\Local\Temp\ccEC4369.s:6699   .text.Paint_DrawNum:000000f8 $d
C:\Users\upo\AppData\Local\Temp\ccEC4369.s:6707   .rodata.Paint_DrawTime.str1.4:00000000 $d
C:\Users\upo\AppData\Local\Temp\ccEC4369.s:6711   .text.Paint_DrawTime:00000000 $t
C:\Users\upo\AppData\Local\Temp\ccEC4369.s:6718   .text.Paint_DrawTime:00000000 Paint_DrawTime
C:\Users\upo\AppData\Local\Temp\ccEC4369.s:7136   .text.Paint_DrawTime:00000154 $d
C:\Users\upo\AppData\Local\Temp\ccEC4369.s:7142   .text.Paint_DrawBitMap:00000000 $t
C:\Users\upo\AppData\Local\Temp\ccEC4369.s:7149   .text.Paint_DrawBitMap:00000000 Paint_DrawBitMap
C:\Users\upo\AppData\Local\Temp\ccEC4369.s:7233   .text.Paint_DrawBitMap:00000034 $d
C:\Users\upo\AppData\Local\Temp\ccEC4369.s:7238   .text.Paint_DrawBitMap_Paste:00000000 $t
C:\Users\upo\AppData\Local\Temp\ccEC4369.s:7245   .text.Paint_DrawBitMap_Paste:00000000 Paint_DrawBitMap_Paste
C:\Users\upo\AppData\Local\Temp\ccEC4369.s:7959   .text.Paint_DrawBitMap_Paste:000002cc $d
C:\Users\upo\AppData\Local\Temp\ccEC4369.s:7964   .text.Paint_DrawBitMap_Block:00000000 $t
C:\Users\upo\AppData\Local\Temp\ccEC4369.s:7971   .text.Paint_DrawBitMap_Block:00000000 Paint_DrawBitMap_Block
C:\Users\upo\AppData\Local\Temp\ccEC4369.s:8097   .text.Paint_DrawBitMap_Block:00000058 $d
C:\Users\upo\AppData\Local\Temp\ccEC4369.s:8103   .bss.Paint:00000000 $d

UNDEFINED SYMBOLS
__aeabi_uidivmod
printf_
__aeabi_idivmod
__aeabi_idiv
memset
__aeabi_uidiv
