ARM GAS  C:\Users\upo\AppData\Local\Temp\ccEC4369.s 			page 1


   1              		.cpu cortex-m0plus
   2              		.arch armv6s-m
   3              		.fpu softvfp
   4              		.eabi_attribute 20, 1
   5              		.eabi_attribute 21, 1
   6              		.eabi_attribute 23, 3
   7              		.eabi_attribute 24, 1
   8              		.eabi_attribute 25, 1
   9              		.eabi_attribute 26, 1
  10              		.eabi_attribute 30, 2
  11              		.eabi_attribute 34, 0
  12              		.eabi_attribute 18, 4
  13              		.file	"GUI_Paint.c"
  14              		.text
  15              	.Ltext0:
  16              		.cfi_sections	.debug_frame
  17              		.file 1 "User/e-Paper/GUI_Paint.c"
  18              		.section	.text.Paint_SetPixel.part.0,"ax",%progbits
  19              		.align	1
  20              		.p2align 2,,3
  21              		.syntax unified
  22              		.code	16
  23              		.thumb_func
  25              	Paint_SetPixel.part.0:
  26              	.LVL0:
  27              	.LFB1444:
   1:User/e-Paper/GUI_Paint.c **** /******************************************************************************
   2:User/e-Paper/GUI_Paint.c ****  * | File      	:   GUI_Paint.c
   3:User/e-Paper/GUI_Paint.c ****  * | Author      :   Waveshare electronics
   4:User/e-Paper/GUI_Paint.c ****  * | Function    :	Achieve drawing: draw points, lines, boxes, circles and
   5:User/e-Paper/GUI_Paint.c ****  *                   their size, solid dotted line, solid rectangle hollow
   6:User/e-Paper/GUI_Paint.c ****  *                   rectangle, solid circle hollow circle.
   7:User/e-Paper/GUI_Paint.c ****  * | Info        :
   8:User/e-Paper/GUI_Paint.c ****  *   Achieve display characters: Display a single character, string, number
   9:User/e-Paper/GUI_Paint.c ****  *   Achieve time display: adaptive size display time minutes and seconds
  10:User/e-Paper/GUI_Paint.c ****  *----------------
  11:User/e-Paper/GUI_Paint.c ****  * |	This version:   V3.1
  12:User/e-Paper/GUI_Paint.c ****  * | Date        :   2020-07-08
  13:User/e-Paper/GUI_Paint.c ****  * | Info        :
  14:User/e-Paper/GUI_Paint.c ****  * -----------------------------------------------------------------------------
  15:User/e-Paper/GUI_Paint.c ****  * V3.1(2020-07-08):
  16:User/e-Paper/GUI_Paint.c ****  * 1.Change: Paint_SetScale(UBYTE scale)
  17:User/e-Paper/GUI_Paint.c ****  *		 Add scale 7 for 5.65f e-Parper
  18:User/e-Paper/GUI_Paint.c ****  * 2.Change: Paint_SetPixel(UWORD Xpoint, UWORD Ypoint, UWORD Color)
  19:User/e-Paper/GUI_Paint.c ****  *		 Add the branch for scale 7
  20:User/e-Paper/GUI_Paint.c ****  * 3.Change: Paint_Clear(UWORD Color)
  21:User/e-Paper/GUI_Paint.c ****  *		 Add the branch for scale 7
  22:User/e-Paper/GUI_Paint.c ****  *
  23:User/e-Paper/GUI_Paint.c ****  * -----------------------------------------------------------------------------
  24:User/e-Paper/GUI_Paint.c ****  * V3.0(2019-04-18):
  25:User/e-Paper/GUI_Paint.c ****  * 1.Change:
  26:User/e-Paper/GUI_Paint.c ****  *    Paint_DrawPoint(..., DOT_STYLE DOT_STYLE)
  27:User/e-Paper/GUI_Paint.c ****  * => Paint_DrawPoint(..., DOT_STYLE Dot_Style)
  28:User/e-Paper/GUI_Paint.c ****  *    Paint_DrawLine(..., LINE_STYLE Line_Style, DOT_PIXEL Dot_Pixel)
  29:User/e-Paper/GUI_Paint.c ****  * => Paint_DrawLine(..., DOT_PIXEL Line_width, LINE_STYLE Line_Style)
  30:User/e-Paper/GUI_Paint.c ****  *    Paint_DrawRectangle(..., DRAW_FILL Filled, DOT_PIXEL Dot_Pixel)
  31:User/e-Paper/GUI_Paint.c ****  * => Paint_DrawRectangle(..., DOT_PIXEL Line_width, DRAW_FILL Draw_Fill)
ARM GAS  C:\Users\upo\AppData\Local\Temp\ccEC4369.s 			page 2


  32:User/e-Paper/GUI_Paint.c ****  *    Paint_DrawCircle(..., DRAW_FILL Draw_Fill, DOT_PIXEL Dot_Pixel)
  33:User/e-Paper/GUI_Paint.c ****  * => Paint_DrawCircle(..., DOT_PIXEL Line_width, DRAW_FILL Draw_Filll)
  34:User/e-Paper/GUI_Paint.c ****  *
  35:User/e-Paper/GUI_Paint.c ****  * -----------------------------------------------------------------------------
  36:User/e-Paper/GUI_Paint.c ****  * V2.0(2018-11-15):
  37:User/e-Paper/GUI_Paint.c ****  * 1.add: Paint_NewImage()
  38:User/e-Paper/GUI_Paint.c ****  *    Create an image's properties
  39:User/e-Paper/GUI_Paint.c ****  * 2.add: Paint_SelectImage()
  40:User/e-Paper/GUI_Paint.c ****  *    Select the picture to be drawn
  41:User/e-Paper/GUI_Paint.c ****  * 3.add: Paint_SetRotate()
  42:User/e-Paper/GUI_Paint.c ****  *    Set the direction of the cache
  43:User/e-Paper/GUI_Paint.c ****  * 4.add: Paint_RotateImage()
  44:User/e-Paper/GUI_Paint.c ****  *    Can flip the picture, Support 0-360 degrees,
  45:User/e-Paper/GUI_Paint.c ****  *    but only 90.180.270 rotation is better
  46:User/e-Paper/GUI_Paint.c ****  * 4.add: Paint_SetMirroring()
  47:User/e-Paper/GUI_Paint.c ****  *    Can Mirroring the picture, horizontal, vertical, origin
  48:User/e-Paper/GUI_Paint.c ****  * 5.add: Paint_DrawString_CN()
  49:User/e-Paper/GUI_Paint.c ****  *    Can display Chinese(GB1312)
  50:User/e-Paper/GUI_Paint.c ****  *
  51:User/e-Paper/GUI_Paint.c ****  * -----------------------------------------------------------------------------
  52:User/e-Paper/GUI_Paint.c ****  * V1.0(2018-07-17):
  53:User/e-Paper/GUI_Paint.c ****  *   Create library
  54:User/e-Paper/GUI_Paint.c ****  *
  55:User/e-Paper/GUI_Paint.c ****  * Permission is hereby granted, free of charge, to any person obtaining a copy
  56:User/e-Paper/GUI_Paint.c ****  * of this software and associated documnetation files (the "Software"), to deal
  57:User/e-Paper/GUI_Paint.c ****  * in the Software without restriction, including without limitation the rights
  58:User/e-Paper/GUI_Paint.c ****  * to use, copy, modify, merge, publish, distribute, sublicense, and/or sell
  59:User/e-Paper/GUI_Paint.c ****  * copies of the Software, and to permit persons to  whom the Software is
  60:User/e-Paper/GUI_Paint.c ****  * furished to do so, subject to the following conditions:
  61:User/e-Paper/GUI_Paint.c ****  *
  62:User/e-Paper/GUI_Paint.c ****  * The above copyright notice and this permission notice shall be included in
  63:User/e-Paper/GUI_Paint.c ****  * all copies or substantial portions of the Software.
  64:User/e-Paper/GUI_Paint.c ****  *
  65:User/e-Paper/GUI_Paint.c ****  * THE SOFTWARE IS PROVIDED "AS IS", WITHOUT WARRANTY OF ANY KIND, EXPRESS OR
  66:User/e-Paper/GUI_Paint.c ****  * IMPLIED, INCLUDING BUT NOT LIMITED TO THE WARRANTIES OF MERCHANTABILITY,
  67:User/e-Paper/GUI_Paint.c ****  * FITNESS OR A PARTICULAR PURPOSE AND NONINFRINGEMENT. IN NO EVENT SHALL THE
  68:User/e-Paper/GUI_Paint.c ****  * AUTHORS OR COPYRIGHT HOLDERS BE LIABLE FOR ANY CLAIM, DAMAGES OR OTHER
  69:User/e-Paper/GUI_Paint.c ****  * LIABILITY WHETHER IN AN ACTION OF CONTRACT, TORT OR OTHERWISE, ARISING FROM,
  70:User/e-Paper/GUI_Paint.c ****  * OUT OF OR IN CONNECTION WITH THE SOFTWARE OR THE USE OR OTHER DEALINGS IN
  71:User/e-Paper/GUI_Paint.c ****  * THE SOFTWARE.
  72:User/e-Paper/GUI_Paint.c ****  *
  73:User/e-Paper/GUI_Paint.c ****  ******************************************************************************/
  74:User/e-Paper/GUI_Paint.c **** #include "GUI_Paint.h"
  75:User/e-Paper/GUI_Paint.c **** #include "DEV_Config.h"
  76:User/e-Paper/GUI_Paint.c **** #include "Debug.h"
  77:User/e-Paper/GUI_Paint.c **** #include <stdint.h>
  78:User/e-Paper/GUI_Paint.c **** #include <stdlib.h>
  79:User/e-Paper/GUI_Paint.c **** #include <string.h> //memset()
  80:User/e-Paper/GUI_Paint.c **** #include <math.h>
  81:User/e-Paper/GUI_Paint.c **** #include "fonts.h"
  82:User/e-Paper/GUI_Paint.c **** PAINT Paint;
  83:User/e-Paper/GUI_Paint.c **** 
  84:User/e-Paper/GUI_Paint.c **** /******************************************************************************
  85:User/e-Paper/GUI_Paint.c **** function: Create Image
  86:User/e-Paper/GUI_Paint.c **** parameter:
  87:User/e-Paper/GUI_Paint.c ****     image   :   Pointer to the image cache
  88:User/e-Paper/GUI_Paint.c ****     width   :   The width of the picture
ARM GAS  C:\Users\upo\AppData\Local\Temp\ccEC4369.s 			page 3


  89:User/e-Paper/GUI_Paint.c ****     Height  :   The height of the picture
  90:User/e-Paper/GUI_Paint.c ****     Color   :   Whether the picture is inverted
  91:User/e-Paper/GUI_Paint.c **** ******************************************************************************/
  92:User/e-Paper/GUI_Paint.c **** void Paint_NewImage(UBYTE *image, UWORD Width, UWORD Height, UWORD Rotate, UWORD Color)
  93:User/e-Paper/GUI_Paint.c **** {
  94:User/e-Paper/GUI_Paint.c ****     Paint.Image = NULL;
  95:User/e-Paper/GUI_Paint.c ****     Paint.Image = image;
  96:User/e-Paper/GUI_Paint.c **** 
  97:User/e-Paper/GUI_Paint.c ****     Paint.WidthMemory = Width;
  98:User/e-Paper/GUI_Paint.c ****     Paint.HeightMemory = Height;
  99:User/e-Paper/GUI_Paint.c ****     Paint.Color = Color;
 100:User/e-Paper/GUI_Paint.c ****     Paint.Scale = 2;
 101:User/e-Paper/GUI_Paint.c **** 
 102:User/e-Paper/GUI_Paint.c ****     Paint.WidthByte = (Width % 8 == 0) ? (Width / 8) : (Width / 8 + 1);
 103:User/e-Paper/GUI_Paint.c ****     Paint.HeightByte = Height;
 104:User/e-Paper/GUI_Paint.c ****     //    printf("WidthByte = %d, HeightByte = %d\r\n", Paint.WidthByte, Paint.HeightByte);
 105:User/e-Paper/GUI_Paint.c ****     //    printf(" EPD_WIDTH / 8 = %d\r\n",  122 / 8);
 106:User/e-Paper/GUI_Paint.c **** 
 107:User/e-Paper/GUI_Paint.c ****     Paint.Rotate = Rotate;
 108:User/e-Paper/GUI_Paint.c ****     Paint.Mirror = MIRROR_NONE;
 109:User/e-Paper/GUI_Paint.c **** 
 110:User/e-Paper/GUI_Paint.c ****     if (Rotate == ROTATE_0 || Rotate == ROTATE_180)
 111:User/e-Paper/GUI_Paint.c ****     {
 112:User/e-Paper/GUI_Paint.c ****         Paint.Width = Width;
 113:User/e-Paper/GUI_Paint.c ****         Paint.Height = Height;
 114:User/e-Paper/GUI_Paint.c ****     }
 115:User/e-Paper/GUI_Paint.c ****     else
 116:User/e-Paper/GUI_Paint.c ****     {
 117:User/e-Paper/GUI_Paint.c ****         Paint.Width = Height;
 118:User/e-Paper/GUI_Paint.c ****         Paint.Height = Width;
 119:User/e-Paper/GUI_Paint.c ****     }
 120:User/e-Paper/GUI_Paint.c **** }
 121:User/e-Paper/GUI_Paint.c **** 
 122:User/e-Paper/GUI_Paint.c **** /******************************************************************************
 123:User/e-Paper/GUI_Paint.c **** function: Select Image
 124:User/e-Paper/GUI_Paint.c **** parameter:
 125:User/e-Paper/GUI_Paint.c ****     image : Pointer to the image cache
 126:User/e-Paper/GUI_Paint.c **** ******************************************************************************/
 127:User/e-Paper/GUI_Paint.c **** void Paint_SelectImage(UBYTE *image)
 128:User/e-Paper/GUI_Paint.c **** {
 129:User/e-Paper/GUI_Paint.c ****     Paint.Image = image;
 130:User/e-Paper/GUI_Paint.c **** }
 131:User/e-Paper/GUI_Paint.c **** 
 132:User/e-Paper/GUI_Paint.c **** /******************************************************************************
 133:User/e-Paper/GUI_Paint.c **** function: Select Image Rotate
 134:User/e-Paper/GUI_Paint.c **** parameter:
 135:User/e-Paper/GUI_Paint.c ****     Rotate : 0,90,180,270
 136:User/e-Paper/GUI_Paint.c **** ******************************************************************************/
 137:User/e-Paper/GUI_Paint.c **** void Paint_SetRotate(UWORD Rotate)
 138:User/e-Paper/GUI_Paint.c **** {
 139:User/e-Paper/GUI_Paint.c ****     if (Rotate == ROTATE_0 || Rotate == ROTATE_90 || Rotate == ROTATE_180 || Rotate == ROTATE_270)
 140:User/e-Paper/GUI_Paint.c ****     {
 141:User/e-Paper/GUI_Paint.c ****         DE_BUG("Set image Rotate %d\r\n", Rotate);
 142:User/e-Paper/GUI_Paint.c ****         Paint.Rotate = Rotate;
 143:User/e-Paper/GUI_Paint.c ****     }
 144:User/e-Paper/GUI_Paint.c ****     else
 145:User/e-Paper/GUI_Paint.c ****     {
ARM GAS  C:\Users\upo\AppData\Local\Temp\ccEC4369.s 			page 4


 146:User/e-Paper/GUI_Paint.c ****         DE_BUG("rotate = 0, 90, 180, 270\r\n");
 147:User/e-Paper/GUI_Paint.c ****     }
 148:User/e-Paper/GUI_Paint.c **** }
 149:User/e-Paper/GUI_Paint.c **** 
 150:User/e-Paper/GUI_Paint.c **** void Paint_SetScale(UBYTE scale)
 151:User/e-Paper/GUI_Paint.c **** {
 152:User/e-Paper/GUI_Paint.c ****     if (scale == 2)
 153:User/e-Paper/GUI_Paint.c ****     {
 154:User/e-Paper/GUI_Paint.c ****         Paint.Scale = scale;
 155:User/e-Paper/GUI_Paint.c ****         Paint.WidthByte = (Paint.WidthMemory % 8 == 0) ? (Paint.WidthMemory / 8) : (Paint.WidthMemo
 156:User/e-Paper/GUI_Paint.c ****     }
 157:User/e-Paper/GUI_Paint.c ****     else if (scale == 4)
 158:User/e-Paper/GUI_Paint.c ****     {
 159:User/e-Paper/GUI_Paint.c ****         Paint.Scale = scale;
 160:User/e-Paper/GUI_Paint.c ****         Paint.WidthByte = (Paint.WidthMemory % 4 == 0) ? (Paint.WidthMemory / 4) : (Paint.WidthMemo
 161:User/e-Paper/GUI_Paint.c ****     }
 162:User/e-Paper/GUI_Paint.c ****     else if (scale == 7)
 163:User/e-Paper/GUI_Paint.c ****     { // Only applicable with 5in65 e-Paper
 164:User/e-Paper/GUI_Paint.c ****         Paint.Scale = scale;
 165:User/e-Paper/GUI_Paint.c ****         Paint.WidthByte = (Paint.WidthMemory % 2 == 0) ? (Paint.WidthMemory / 2) : (Paint.WidthMemo
 166:User/e-Paper/GUI_Paint.c ****     }
 167:User/e-Paper/GUI_Paint.c ****     else
 168:User/e-Paper/GUI_Paint.c ****     {
 169:User/e-Paper/GUI_Paint.c ****         DE_BUG("Set Scale Input parameter error\r\n");
 170:User/e-Paper/GUI_Paint.c ****         DE_BUG("Scale Only support: 2 4 7\r\n");
 171:User/e-Paper/GUI_Paint.c ****     }
 172:User/e-Paper/GUI_Paint.c **** }
 173:User/e-Paper/GUI_Paint.c **** /******************************************************************************
 174:User/e-Paper/GUI_Paint.c **** function:	Select Image mirror
 175:User/e-Paper/GUI_Paint.c **** parameter:
 176:User/e-Paper/GUI_Paint.c ****     mirror   :Not mirror,Horizontal mirror,Vertical mirror,Origin mirror
 177:User/e-Paper/GUI_Paint.c **** ******************************************************************************/
 178:User/e-Paper/GUI_Paint.c **** void Paint_SetMirroring(UBYTE mirror)
 179:User/e-Paper/GUI_Paint.c **** {
 180:User/e-Paper/GUI_Paint.c ****     if (mirror == MIRROR_NONE || mirror == MIRROR_HORIZONTAL ||
 181:User/e-Paper/GUI_Paint.c ****         mirror == MIRROR_VERTICAL || mirror == MIRROR_ORIGIN)
 182:User/e-Paper/GUI_Paint.c ****     {
 183:User/e-Paper/GUI_Paint.c ****         DE_BUG("mirror image x:%s, y:%s\r\n", (mirror & 0x01) ? "mirror" : "none", ((mirror >> 1) &
 184:User/e-Paper/GUI_Paint.c ****         Paint.Mirror = mirror;
 185:User/e-Paper/GUI_Paint.c ****     }
 186:User/e-Paper/GUI_Paint.c ****     else
 187:User/e-Paper/GUI_Paint.c ****     {
 188:User/e-Paper/GUI_Paint.c ****         DE_BUG("mirror should be MIRROR_NONE, MIRROR_HORIZONTAL, \
 189:User/e-Paper/GUI_Paint.c ****         MIRROR_VERTICAL or MIRROR_ORIGIN\r\n");
 190:User/e-Paper/GUI_Paint.c ****     }
 191:User/e-Paper/GUI_Paint.c **** }
 192:User/e-Paper/GUI_Paint.c **** 
 193:User/e-Paper/GUI_Paint.c **** /******************************************************************************
 194:User/e-Paper/GUI_Paint.c **** function: Draw Pixels
 195:User/e-Paper/GUI_Paint.c **** parameter:
 196:User/e-Paper/GUI_Paint.c ****     Xpoint : At point X
 197:User/e-Paper/GUI_Paint.c ****     Ypoint : At point Y
 198:User/e-Paper/GUI_Paint.c ****     Color  : Painted colors
 199:User/e-Paper/GUI_Paint.c **** ******************************************************************************/
 200:User/e-Paper/GUI_Paint.c **** void Paint_SetPixel(UWORD Xpoint, UWORD Ypoint, UWORD Color)
  28              		.loc 1 200 6 view -0
  29              		.cfi_startproc
ARM GAS  C:\Users\upo\AppData\Local\Temp\ccEC4369.s 			page 5


  30              		@ args = 0, pretend = 0, frame = 0
  31              		@ frame_needed = 0, uses_anonymous_args = 0
 201:User/e-Paper/GUI_Paint.c **** {
 202:User/e-Paper/GUI_Paint.c ****     if (Xpoint > Paint.Width || Ypoint > Paint.Height)
 203:User/e-Paper/GUI_Paint.c ****     {
 204:User/e-Paper/GUI_Paint.c ****         DE_BUG("Exceeding display boundaries\r\n");
 205:User/e-Paper/GUI_Paint.c ****         return;
 206:User/e-Paper/GUI_Paint.c ****     }
 207:User/e-Paper/GUI_Paint.c ****     UWORD X, Y;
  32              		.loc 1 207 5 view .LVU1
 208:User/e-Paper/GUI_Paint.c **** 
 209:User/e-Paper/GUI_Paint.c ****     switch (Paint.Rotate)
  33              		.loc 1 209 5 view .LVU2
 200:User/e-Paper/GUI_Paint.c **** {
  34              		.loc 1 200 6 is_stmt 0 view .LVU3
  35 0000 70B5     		push	{r4, r5, r6, lr}
  36              	.LCFI0:
  37              		.cfi_def_cfa_offset 16
  38              		.cfi_offset 4, -16
  39              		.cfi_offset 5, -12
  40              		.cfi_offset 6, -8
  41              		.cfi_offset 14, -4
  42              		.loc 1 209 18 view .LVU4
  43 0002 444D     		ldr	r5, .L28
  44 0004 EB89     		ldrh	r3, [r5, #14]
  45              		.loc 1 209 5 view .LVU5
  46 0006 B42B     		cmp	r3, #180
  47 0008 42D0     		beq	.L2
  48 000a 2DD8     		bhi	.L3
  49 000c 002B     		cmp	r3, #0
  50 000e 06D0     		beq	.L4
  51 0010 5A2B     		cmp	r3, #90
  52 0012 1BD1     		bne	.L1
 210:User/e-Paper/GUI_Paint.c ****     {
 211:User/e-Paper/GUI_Paint.c ****     case 0:
 212:User/e-Paper/GUI_Paint.c ****         X = Xpoint;
 213:User/e-Paper/GUI_Paint.c ****         Y = Ypoint;
 214:User/e-Paper/GUI_Paint.c ****         break;
 215:User/e-Paper/GUI_Paint.c ****     case 90:
 216:User/e-Paper/GUI_Paint.c ****         X = Paint.WidthMemory - Ypoint - 1;
  53              		.loc 1 216 9 is_stmt 1 view .LVU6
  54              		.loc 1 216 11 is_stmt 0 view .LVU7
  55 0014 2B89     		ldrh	r3, [r5, #8]
  56 0016 013B     		subs	r3, r3, #1
  57 0018 5B1A     		subs	r3, r3, r1
  58              	.LVL1:
 217:User/e-Paper/GUI_Paint.c ****         Y = Xpoint;
  59              		.loc 1 217 9 is_stmt 1 view .LVU8
 218:User/e-Paper/GUI_Paint.c ****         break;
  60              		.loc 1 218 9 view .LVU9
 217:User/e-Paper/GUI_Paint.c ****         Y = Xpoint;
  61              		.loc 1 217 11 is_stmt 0 view .LVU10
  62 001a 0100     		movs	r1, r0
  63              	.LVL2:
 216:User/e-Paper/GUI_Paint.c ****         Y = Xpoint;
  64              		.loc 1 216 11 view .LVU11
  65 001c 98B2     		uxth	r0, r3
ARM GAS  C:\Users\upo\AppData\Local\Temp\ccEC4369.s 			page 6


  66              	.LVL3:
  67              	.L4:
 219:User/e-Paper/GUI_Paint.c ****     case 180:
 220:User/e-Paper/GUI_Paint.c ****         X = Paint.WidthMemory - Xpoint - 1;
 221:User/e-Paper/GUI_Paint.c ****         Y = Paint.HeightMemory - Ypoint - 1;
 222:User/e-Paper/GUI_Paint.c ****         break;
 223:User/e-Paper/GUI_Paint.c ****     case 270:
 224:User/e-Paper/GUI_Paint.c ****         X = Ypoint;
 225:User/e-Paper/GUI_Paint.c ****         Y = Paint.HeightMemory - Xpoint - 1;
 226:User/e-Paper/GUI_Paint.c ****         break;
 227:User/e-Paper/GUI_Paint.c ****     default:
 228:User/e-Paper/GUI_Paint.c ****         return;
 229:User/e-Paper/GUI_Paint.c ****     }
 230:User/e-Paper/GUI_Paint.c **** 
 231:User/e-Paper/GUI_Paint.c ****     switch (Paint.Mirror)
  68              		.loc 1 231 5 is_stmt 1 view .LVU12
  69              		.loc 1 231 18 is_stmt 0 view .LVU13
  70 001e 2B8A     		ldrh	r3, [r5, #16]
  71              		.loc 1 231 5 view .LVU14
  72 0020 022B     		cmp	r3, #2
  73 0022 2DD0     		beq	.L8
  74              	.L27:
  75              		.loc 1 231 5 view .LVU15
  76 0024 022B     		cmp	r3, #2
  77 0026 12D8     		bhi	.L9
  78 0028 002B     		cmp	r3, #0
  79 002a 2DD0     		beq	.L21
 232:User/e-Paper/GUI_Paint.c ****     {
 233:User/e-Paper/GUI_Paint.c ****     case MIRROR_NONE:
 234:User/e-Paper/GUI_Paint.c ****         break;
 235:User/e-Paper/GUI_Paint.c ****     case MIRROR_HORIZONTAL:
 236:User/e-Paper/GUI_Paint.c ****         X = Paint.WidthMemory - X - 1;
  80              		.loc 1 236 9 is_stmt 1 view .LVU16
  81              		.loc 1 236 18 is_stmt 0 view .LVU17
  82 002c 2B89     		ldrh	r3, [r5, #8]
  83              		.loc 1 236 11 view .LVU18
  84 002e 5C1E     		subs	r4, r3, #1
  85 0030 201A     		subs	r0, r4, r0
  86              	.LVL4:
  87              		.loc 1 236 11 view .LVU19
  88 0032 80B2     		uxth	r0, r0
  89              	.LVL5:
 237:User/e-Paper/GUI_Paint.c ****         break;
  90              		.loc 1 237 9 is_stmt 1 view .LVU20
 238:User/e-Paper/GUI_Paint.c ****     case MIRROR_VERTICAL:
 239:User/e-Paper/GUI_Paint.c ****         Y = Paint.HeightMemory - Y - 1;
 240:User/e-Paper/GUI_Paint.c ****         break;
 241:User/e-Paper/GUI_Paint.c ****     case MIRROR_ORIGIN:
 242:User/e-Paper/GUI_Paint.c ****         X = Paint.WidthMemory - X - 1;
 243:User/e-Paper/GUI_Paint.c ****         Y = Paint.HeightMemory - Y - 1;
 244:User/e-Paper/GUI_Paint.c ****         break;
 245:User/e-Paper/GUI_Paint.c ****     default:
 246:User/e-Paper/GUI_Paint.c ****         return;
 247:User/e-Paper/GUI_Paint.c ****     }
 248:User/e-Paper/GUI_Paint.c **** 
 249:User/e-Paper/GUI_Paint.c ****     if (X > Paint.WidthMemory || Y > Paint.HeightMemory)
  91              		.loc 1 249 5 view .LVU21
ARM GAS  C:\Users\upo\AppData\Local\Temp\ccEC4369.s 			page 7


  92              		.loc 1 249 8 is_stmt 0 view .LVU22
  93 0034 8342     		cmp	r3, r0
  94 0036 09D3     		bcc	.L1
  95              	.L26:
  96              		.loc 1 249 31 view .LVU23
  97 0038 6B89     		ldrh	r3, [r5, #10]
  98 003a 8B42     		cmp	r3, r1
  99 003c 06D3     		bcc	.L1
 250:User/e-Paper/GUI_Paint.c ****     {
 251:User/e-Paper/GUI_Paint.c ****         DE_BUG("Exceeding display boundaries\r\n");
 252:User/e-Paper/GUI_Paint.c ****         return;
 253:User/e-Paper/GUI_Paint.c ****     }
 254:User/e-Paper/GUI_Paint.c **** 
 255:User/e-Paper/GUI_Paint.c ****     if (Paint.Scale == 2)
 100              		.loc 1 255 5 is_stmt 1 view .LVU24
 101              		.loc 1 255 14 is_stmt 0 view .LVU25
 102 003e EB8A     		ldrh	r3, [r5, #22]
 103              		.loc 1 255 8 view .LVU26
 104 0040 022B     		cmp	r3, #2
 105 0042 2ED0     		beq	.L23
 256:User/e-Paper/GUI_Paint.c ****     {
 257:User/e-Paper/GUI_Paint.c ****         UDOUBLE Addr = X / 8 + Y * Paint.WidthByte;
 258:User/e-Paper/GUI_Paint.c ****         UBYTE Rdata = Paint.Image[Addr];
 259:User/e-Paper/GUI_Paint.c ****         if (Color == BLACK)
 260:User/e-Paper/GUI_Paint.c ****             Paint.Image[Addr] = Rdata & ~(0x80 >> (X % 8));
 261:User/e-Paper/GUI_Paint.c ****         else
 262:User/e-Paper/GUI_Paint.c ****             Paint.Image[Addr] = Rdata | (0x80 >> (X % 8));
 263:User/e-Paper/GUI_Paint.c ****     }
 264:User/e-Paper/GUI_Paint.c ****     else if (Paint.Scale == 4)
 106              		.loc 1 264 10 is_stmt 1 view .LVU27
 107              		.loc 1 264 13 is_stmt 0 view .LVU28
 108 0044 042B     		cmp	r3, #4
 109 0046 3DD0     		beq	.L24
 265:User/e-Paper/GUI_Paint.c ****     {
 266:User/e-Paper/GUI_Paint.c ****         UDOUBLE Addr = X / 4 + Y * Paint.WidthByte;
 267:User/e-Paper/GUI_Paint.c ****         Color = Color % 4; // Guaranteed color scale is 4  --- 0~3
 268:User/e-Paper/GUI_Paint.c ****         UBYTE Rdata = Paint.Image[Addr];
 269:User/e-Paper/GUI_Paint.c **** 
 270:User/e-Paper/GUI_Paint.c ****         Rdata = Rdata & (~(0xC0 >> ((X % 4) * 2)));
 271:User/e-Paper/GUI_Paint.c ****         Paint.Image[Addr] = Rdata | ((Color << 6) >> ((X % 4) * 2));
 272:User/e-Paper/GUI_Paint.c ****     }
 273:User/e-Paper/GUI_Paint.c ****     else if (Paint.Scale == 7)
 110              		.loc 1 273 10 is_stmt 1 view .LVU29
 111              		.loc 1 273 13 is_stmt 0 view .LVU30
 112 0048 072B     		cmp	r3, #7
 113 004a 51D0     		beq	.L25
 114              	.LVL6:
 115              	.L1:
 274:User/e-Paper/GUI_Paint.c ****     {
 275:User/e-Paper/GUI_Paint.c ****         UDOUBLE Addr = X / 2 + Y * Paint.WidthByte;
 276:User/e-Paper/GUI_Paint.c ****         UBYTE Rdata = Paint.Image[Addr];
 277:User/e-Paper/GUI_Paint.c ****         Rdata = Rdata & (~(0xF0 >> ((X % 2) * 4))); // Clear first, then set value
 278:User/e-Paper/GUI_Paint.c ****         Paint.Image[Addr] = Rdata | ((Color << 4) >> ((X % 2) * 4));
 279:User/e-Paper/GUI_Paint.c ****         // printf("Add =  %d ,data = %d\r\n",Addr,Rdata);
 280:User/e-Paper/GUI_Paint.c ****     }
 281:User/e-Paper/GUI_Paint.c **** }
 116              		.loc 1 281 1 view .LVU31
ARM GAS  C:\Users\upo\AppData\Local\Temp\ccEC4369.s 			page 8


 117              		@ sp needed
 118 004c 70BD     		pop	{r4, r5, r6, pc}
 119              	.LVL7:
 120              	.L9:
 231:User/e-Paper/GUI_Paint.c ****     {
 121              		.loc 1 231 5 view .LVU32
 122 004e 032B     		cmp	r3, #3
 123 0050 FCD1     		bne	.L1
 242:User/e-Paper/GUI_Paint.c ****         Y = Paint.HeightMemory - Y - 1;
 124              		.loc 1 242 9 is_stmt 1 view .LVU33
 242:User/e-Paper/GUI_Paint.c ****         Y = Paint.HeightMemory - Y - 1;
 125              		.loc 1 242 18 is_stmt 0 view .LVU34
 126 0052 2B89     		ldrh	r3, [r5, #8]
 242:User/e-Paper/GUI_Paint.c ****         Y = Paint.HeightMemory - Y - 1;
 127              		.loc 1 242 11 view .LVU35
 128 0054 5C1E     		subs	r4, r3, #1
 129 0056 201A     		subs	r0, r4, r0
 130              	.LVL8:
 243:User/e-Paper/GUI_Paint.c ****         break;
 131              		.loc 1 243 11 view .LVU36
 132 0058 6C89     		ldrh	r4, [r5, #10]
 242:User/e-Paper/GUI_Paint.c ****         Y = Paint.HeightMemory - Y - 1;
 133              		.loc 1 242 11 view .LVU37
 134 005a 80B2     		uxth	r0, r0
 135              	.LVL9:
 243:User/e-Paper/GUI_Paint.c ****         break;
 136              		.loc 1 243 9 is_stmt 1 view .LVU38
 243:User/e-Paper/GUI_Paint.c ****         break;
 137              		.loc 1 243 11 is_stmt 0 view .LVU39
 138 005c 013C     		subs	r4, r4, #1
 139 005e 611A     		subs	r1, r4, r1
 140              	.LVL10:
 243:User/e-Paper/GUI_Paint.c ****         break;
 141              		.loc 1 243 11 view .LVU40
 142 0060 89B2     		uxth	r1, r1
 143              	.LVL11:
 244:User/e-Paper/GUI_Paint.c ****     default:
 144              		.loc 1 244 9 is_stmt 1 view .LVU41
 249:User/e-Paper/GUI_Paint.c ****     {
 145              		.loc 1 249 5 view .LVU42
 249:User/e-Paper/GUI_Paint.c ****     {
 146              		.loc 1 249 8 is_stmt 0 view .LVU43
 147 0062 8342     		cmp	r3, r0
 148 0064 E8D2     		bcs	.L26
 149 0066 F1E7     		b	.L1
 150              	.LVL12:
 151              	.L3:
 209:User/e-Paper/GUI_Paint.c ****     {
 152              		.loc 1 209 5 view .LVU44
 153 0068 8724     		movs	r4, #135
 154 006a 6400     		lsls	r4, r4, #1
 155 006c A342     		cmp	r3, r4
 156 006e EDD1     		bne	.L1
 224:User/e-Paper/GUI_Paint.c ****         Y = Paint.HeightMemory - Xpoint - 1;
 157              		.loc 1 224 9 is_stmt 1 view .LVU45
 158              	.LVL13:
 225:User/e-Paper/GUI_Paint.c ****         break;
ARM GAS  C:\Users\upo\AppData\Local\Temp\ccEC4369.s 			page 9


 159              		.loc 1 225 9 view .LVU46
 225:User/e-Paper/GUI_Paint.c ****         break;
 160              		.loc 1 225 11 is_stmt 0 view .LVU47
 161 0070 6B89     		ldrh	r3, [r5, #10]
 162 0072 013B     		subs	r3, r3, #1
 163 0074 1B1A     		subs	r3, r3, r0
 164              	.LVL14:
 226:User/e-Paper/GUI_Paint.c ****     default:
 165              		.loc 1 226 9 is_stmt 1 view .LVU48
 224:User/e-Paper/GUI_Paint.c ****         Y = Paint.HeightMemory - Xpoint - 1;
 166              		.loc 1 224 11 is_stmt 0 view .LVU49
 167 0076 0800     		movs	r0, r1
 168              	.LVL15:
 225:User/e-Paper/GUI_Paint.c ****         break;
 169              		.loc 1 225 11 view .LVU50
 170 0078 99B2     		uxth	r1, r3
 171              	.LVL16:
 231:User/e-Paper/GUI_Paint.c ****     {
 172              		.loc 1 231 5 is_stmt 1 view .LVU51
 231:User/e-Paper/GUI_Paint.c ****     {
 173              		.loc 1 231 18 is_stmt 0 view .LVU52
 174 007a 2B8A     		ldrh	r3, [r5, #16]
 231:User/e-Paper/GUI_Paint.c ****     {
 175              		.loc 1 231 5 view .LVU53
 176 007c 022B     		cmp	r3, #2
 177 007e D1D1     		bne	.L27
 178              	.L8:
 239:User/e-Paper/GUI_Paint.c ****         break;
 179              		.loc 1 239 9 is_stmt 1 view .LVU54
 239:User/e-Paper/GUI_Paint.c ****         break;
 180              		.loc 1 239 11 is_stmt 0 view .LVU55
 181 0080 6B89     		ldrh	r3, [r5, #10]
 182 0082 013B     		subs	r3, r3, #1
 183 0084 591A     		subs	r1, r3, r1
 184              	.LVL17:
 239:User/e-Paper/GUI_Paint.c ****         break;
 185              		.loc 1 239 11 view .LVU56
 186 0086 89B2     		uxth	r1, r1
 187              	.LVL18:
 188              	.L21:
 240:User/e-Paper/GUI_Paint.c ****     case MIRROR_ORIGIN:
 189              		.loc 1 240 9 is_stmt 1 view .LVU57
 216:User/e-Paper/GUI_Paint.c ****         Y = Xpoint;
 190              		.loc 1 216 18 is_stmt 0 view .LVU58
 191 0088 2B89     		ldrh	r3, [r5, #8]
 249:User/e-Paper/GUI_Paint.c ****     {
 192              		.loc 1 249 5 is_stmt 1 view .LVU59
 249:User/e-Paper/GUI_Paint.c ****     {
 193              		.loc 1 249 8 is_stmt 0 view .LVU60
 194 008a 8342     		cmp	r3, r0
 195 008c D4D2     		bcs	.L26
 249:User/e-Paper/GUI_Paint.c ****     {
 196              		.loc 1 249 8 view .LVU61
 197 008e DDE7     		b	.L1
 198              	.LVL19:
 199              	.L2:
 220:User/e-Paper/GUI_Paint.c ****         Y = Paint.HeightMemory - Ypoint - 1;
ARM GAS  C:\Users\upo\AppData\Local\Temp\ccEC4369.s 			page 10


 200              		.loc 1 220 9 is_stmt 1 view .LVU62
 220:User/e-Paper/GUI_Paint.c ****         Y = Paint.HeightMemory - Ypoint - 1;
 201              		.loc 1 220 11 is_stmt 0 view .LVU63
 202 0090 2B89     		ldrh	r3, [r5, #8]
 203 0092 013B     		subs	r3, r3, #1
 204 0094 181A     		subs	r0, r3, r0
 205              	.LVL20:
 221:User/e-Paper/GUI_Paint.c ****         break;
 206              		.loc 1 221 11 view .LVU64
 207 0096 6B89     		ldrh	r3, [r5, #10]
 220:User/e-Paper/GUI_Paint.c ****         Y = Paint.HeightMemory - Ypoint - 1;
 208              		.loc 1 220 11 view .LVU65
 209 0098 80B2     		uxth	r0, r0
 210              	.LVL21:
 221:User/e-Paper/GUI_Paint.c ****         break;
 211              		.loc 1 221 9 is_stmt 1 view .LVU66
 221:User/e-Paper/GUI_Paint.c ****         break;
 212              		.loc 1 221 11 is_stmt 0 view .LVU67
 213 009a 013B     		subs	r3, r3, #1
 214 009c 591A     		subs	r1, r3, r1
 215              	.LVL22:
 221:User/e-Paper/GUI_Paint.c ****         break;
 216              		.loc 1 221 11 view .LVU68
 217 009e 89B2     		uxth	r1, r1
 218              	.LVL23:
 222:User/e-Paper/GUI_Paint.c ****     case 270:
 219              		.loc 1 222 9 is_stmt 1 view .LVU69
 220 00a0 BDE7     		b	.L4
 221              	.L23:
 222              	.LBB50:
 257:User/e-Paper/GUI_Paint.c ****         UBYTE Rdata = Paint.Image[Addr];
 223              		.loc 1 257 9 view .LVU70
 224              	.LVL24:
 258:User/e-Paper/GUI_Paint.c ****         if (Color == BLACK)
 225              		.loc 1 258 9 view .LVU71
 257:User/e-Paper/GUI_Paint.c ****         UBYTE Rdata = Paint.Image[Addr];
 226              		.loc 1 257 41 is_stmt 0 view .LVU72
 227 00a2 6B8A     		ldrh	r3, [r5, #18]
 257:User/e-Paper/GUI_Paint.c ****         UBYTE Rdata = Paint.Image[Addr];
 228              		.loc 1 257 34 view .LVU73
 229 00a4 4B43     		muls	r3, r1
 257:User/e-Paper/GUI_Paint.c ****         UBYTE Rdata = Paint.Image[Addr];
 230              		.loc 1 257 26 view .LVU74
 231 00a6 C108     		lsrs	r1, r0, #3
 232              	.LVL25:
 257:User/e-Paper/GUI_Paint.c ****         UBYTE Rdata = Paint.Image[Addr];
 233              		.loc 1 257 26 view .LVU75
 234 00a8 89B2     		uxth	r1, r1
 257:User/e-Paper/GUI_Paint.c ****         UBYTE Rdata = Paint.Image[Addr];
 235              		.loc 1 257 30 view .LVU76
 236 00aa 5B18     		adds	r3, r3, r1
 258:User/e-Paper/GUI_Paint.c ****         if (Color == BLACK)
 237              		.loc 1 258 34 view .LVU77
 238 00ac 2968     		ldr	r1, [r5]
 239 00ae CC18     		adds	r4, r1, r3
 258:User/e-Paper/GUI_Paint.c ****         if (Color == BLACK)
 240              		.loc 1 258 15 view .LVU78
ARM GAS  C:\Users\upo\AppData\Local\Temp\ccEC4369.s 			page 11


 241 00b0 CB5C     		ldrb	r3, [r1, r3]
 242              	.LVL26:
 259:User/e-Paper/GUI_Paint.c ****             Paint.Image[Addr] = Rdata & ~(0x80 >> (X % 8));
 243              		.loc 1 259 9 is_stmt 1 view .LVU79
 260:User/e-Paper/GUI_Paint.c ****         else
 244              		.loc 1 260 54 is_stmt 0 view .LVU80
 245 00b2 0721     		movs	r1, #7
 246 00b4 0840     		ands	r0, r1
 247              	.LVL27:
 260:User/e-Paper/GUI_Paint.c ****         else
 248              		.loc 1 260 48 view .LVU81
 249 00b6 7931     		adds	r1, r1, #121
 250 00b8 0141     		asrs	r1, r1, r0
 259:User/e-Paper/GUI_Paint.c ****             Paint.Image[Addr] = Rdata & ~(0x80 >> (X % 8));
 251              		.loc 1 259 12 view .LVU82
 252 00ba 002A     		cmp	r2, #0
 253 00bc 15D1     		bne	.L15
 260:User/e-Paper/GUI_Paint.c ****         else
 254              		.loc 1 260 13 is_stmt 1 view .LVU83
 260:User/e-Paper/GUI_Paint.c ****         else
 255              		.loc 1 260 39 is_stmt 0 view .LVU84
 256 00be 8B43     		bics	r3, r1
 257              	.LVL28:
 260:User/e-Paper/GUI_Paint.c ****         else
 258              		.loc 1 260 31 view .LVU85
 259 00c0 2370     		strb	r3, [r4]
 260              	.LVL29:
 260:User/e-Paper/GUI_Paint.c ****         else
 261              		.loc 1 260 31 view .LVU86
 262 00c2 C3E7     		b	.L1
 263              	.LVL30:
 264              	.L24:
 260:User/e-Paper/GUI_Paint.c ****         else
 265              		.loc 1 260 31 view .LVU87
 266              	.LBE50:
 267              	.LBB51:
 266:User/e-Paper/GUI_Paint.c ****         Color = Color % 4; // Guaranteed color scale is 4  --- 0~3
 268              		.loc 1 266 9 is_stmt 1 view .LVU88
 267:User/e-Paper/GUI_Paint.c ****         UBYTE Rdata = Paint.Image[Addr];
 269              		.loc 1 267 9 view .LVU89
 268:User/e-Paper/GUI_Paint.c **** 
 270              		.loc 1 268 9 view .LVU90
 266:User/e-Paper/GUI_Paint.c ****         Color = Color % 4; // Guaranteed color scale is 4  --- 0~3
 271              		.loc 1 266 41 is_stmt 0 view .LVU91
 272 00c4 6B8A     		ldrh	r3, [r5, #18]
 270:User/e-Paper/GUI_Paint.c ****         Paint.Image[Addr] = Rdata | ((Color << 6) >> ((X % 4) * 2));
 273              		.loc 1 270 33 view .LVU92
 274 00c6 C026     		movs	r6, #192
 266:User/e-Paper/GUI_Paint.c ****         Color = Color % 4; // Guaranteed color scale is 4  --- 0~3
 275              		.loc 1 266 34 view .LVU93
 276 00c8 5943     		muls	r1, r3
 277              	.LVL31:
 266:User/e-Paper/GUI_Paint.c ****         Color = Color % 4; // Guaranteed color scale is 4  --- 0~3
 278              		.loc 1 266 26 view .LVU94
 279 00ca 8308     		lsrs	r3, r0, #2
 280 00cc 9BB2     		uxth	r3, r3
 266:User/e-Paper/GUI_Paint.c ****         Color = Color % 4; // Guaranteed color scale is 4  --- 0~3
ARM GAS  C:\Users\upo\AppData\Local\Temp\ccEC4369.s 			page 12


 281              		.loc 1 266 30 view .LVU95
 282 00ce C918     		adds	r1, r1, r3
 270:User/e-Paper/GUI_Paint.c ****         Paint.Image[Addr] = Rdata | ((Color << 6) >> ((X % 4) * 2));
 283              		.loc 1 270 40 view .LVU96
 284 00d0 0323     		movs	r3, #3
 285 00d2 1840     		ands	r0, r3
 286              	.LVL32:
 270:User/e-Paper/GUI_Paint.c ****         Paint.Image[Addr] = Rdata | ((Color << 6) >> ((X % 4) * 2));
 287              		.loc 1 270 45 view .LVU97
 288 00d4 4000     		lsls	r0, r0, #1
 271:User/e-Paper/GUI_Paint.c ****     }
 289              		.loc 1 271 45 view .LVU98
 290 00d6 1340     		ands	r3, r2
 270:User/e-Paper/GUI_Paint.c ****         Paint.Image[Addr] = Rdata | ((Color << 6) >> ((X % 4) * 2));
 291              		.loc 1 270 33 view .LVU99
 292 00d8 0641     		asrs	r6, r6, r0
 271:User/e-Paper/GUI_Paint.c ****     }
 293              		.loc 1 271 45 view .LVU100
 294 00da 9B01     		lsls	r3, r3, #6
 271:User/e-Paper/GUI_Paint.c ****     }
 295              		.loc 1 271 51 view .LVU101
 296 00dc 0341     		asrs	r3, r3, r0
 268:User/e-Paper/GUI_Paint.c **** 
 297              		.loc 1 268 34 view .LVU102
 298 00de 2D68     		ldr	r5, [r5]
 299              	.LVL33:
 270:User/e-Paper/GUI_Paint.c ****         Paint.Image[Addr] = Rdata | ((Color << 6) >> ((X % 4) * 2));
 300              		.loc 1 270 9 is_stmt 1 view .LVU103
 271:User/e-Paper/GUI_Paint.c ****     }
 301              		.loc 1 271 9 view .LVU104
 270:User/e-Paper/GUI_Paint.c ****         Paint.Image[Addr] = Rdata | ((Color << 6) >> ((X % 4) * 2));
 302              		.loc 1 270 23 is_stmt 0 view .LVU105
 303 00e0 6C5C     		ldrb	r4, [r5, r1]
 304 00e2 B443     		bics	r4, r6
 271:User/e-Paper/GUI_Paint.c ****     }
 305              		.loc 1 271 35 view .LVU106
 306 00e4 2343     		orrs	r3, r4
 271:User/e-Paper/GUI_Paint.c ****     }
 307              		.loc 1 271 27 view .LVU107
 308 00e6 6B54     		strb	r3, [r5, r1]
 309              	.LVL34:
 271:User/e-Paper/GUI_Paint.c ****     }
 310              		.loc 1 271 27 view .LVU108
 311              	.LBE51:
 312 00e8 B0E7     		b	.L1
 313              	.LVL35:
 314              	.L15:
 315              	.LBB52:
 262:User/e-Paper/GUI_Paint.c ****     }
 316              		.loc 1 262 13 is_stmt 1 view .LVU109
 262:User/e-Paper/GUI_Paint.c ****     }
 317              		.loc 1 262 39 is_stmt 0 view .LVU110
 318 00ea 0B43     		orrs	r3, r1
 319              	.LVL36:
 262:User/e-Paper/GUI_Paint.c ****     }
 320              		.loc 1 262 31 view .LVU111
 321 00ec 2370     		strb	r3, [r4]
ARM GAS  C:\Users\upo\AppData\Local\Temp\ccEC4369.s 			page 13


 322              	.LVL37:
 262:User/e-Paper/GUI_Paint.c ****     }
 323              		.loc 1 262 31 view .LVU112
 324 00ee ADE7     		b	.L1
 325              	.LVL38:
 326              	.L25:
 262:User/e-Paper/GUI_Paint.c ****     }
 327              		.loc 1 262 31 view .LVU113
 328              	.LBE52:
 329              	.LBB53:
 275:User/e-Paper/GUI_Paint.c ****         UBYTE Rdata = Paint.Image[Addr];
 330              		.loc 1 275 9 is_stmt 1 view .LVU114
 276:User/e-Paper/GUI_Paint.c ****         Rdata = Rdata & (~(0xF0 >> ((X % 2) * 4))); // Clear first, then set value
 331              		.loc 1 276 9 view .LVU115
 275:User/e-Paper/GUI_Paint.c ****         UBYTE Rdata = Paint.Image[Addr];
 332              		.loc 1 275 41 is_stmt 0 view .LVU116
 333 00f0 6B8A     		ldrh	r3, [r5, #18]
 277:User/e-Paper/GUI_Paint.c ****         Paint.Image[Addr] = Rdata | ((Color << 4) >> ((X % 2) * 4));
 334              		.loc 1 277 33 view .LVU117
 335 00f2 F024     		movs	r4, #240
 275:User/e-Paper/GUI_Paint.c ****         UBYTE Rdata = Paint.Image[Addr];
 336              		.loc 1 275 34 view .LVU118
 337 00f4 5943     		muls	r1, r3
 338              	.LVL39:
 275:User/e-Paper/GUI_Paint.c ****         UBYTE Rdata = Paint.Image[Addr];
 339              		.loc 1 275 26 view .LVU119
 340 00f6 4308     		lsrs	r3, r0, #1
 341 00f8 9BB2     		uxth	r3, r3
 275:User/e-Paper/GUI_Paint.c ****         UBYTE Rdata = Paint.Image[Addr];
 342              		.loc 1 275 30 view .LVU120
 343 00fa C918     		adds	r1, r1, r3
 277:User/e-Paper/GUI_Paint.c ****         Paint.Image[Addr] = Rdata | ((Color << 4) >> ((X % 2) * 4));
 344              		.loc 1 277 40 view .LVU121
 345 00fc 0123     		movs	r3, #1
 346 00fe 0340     		ands	r3, r0
 277:User/e-Paper/GUI_Paint.c ****         Paint.Image[Addr] = Rdata | ((Color << 4) >> ((X % 2) * 4));
 347              		.loc 1 277 45 view .LVU122
 348 0100 9B00     		lsls	r3, r3, #2
 277:User/e-Paper/GUI_Paint.c ****         Paint.Image[Addr] = Rdata | ((Color << 4) >> ((X % 2) * 4));
 349              		.loc 1 277 33 view .LVU123
 350 0102 1C41     		asrs	r4, r4, r3
 278:User/e-Paper/GUI_Paint.c ****         // printf("Add =  %d ,data = %d\r\n",Addr,Rdata);
 351              		.loc 1 278 45 view .LVU124
 352 0104 1201     		lsls	r2, r2, #4
 353              	.LVL40:
 278:User/e-Paper/GUI_Paint.c ****         // printf("Add =  %d ,data = %d\r\n",Addr,Rdata);
 354              		.loc 1 278 51 view .LVU125
 355 0106 1A41     		asrs	r2, r2, r3
 276:User/e-Paper/GUI_Paint.c ****         Rdata = Rdata & (~(0xF0 >> ((X % 2) * 4))); // Clear first, then set value
 356              		.loc 1 276 34 view .LVU126
 357 0108 2D68     		ldr	r5, [r5]
 358              	.LVL41:
 277:User/e-Paper/GUI_Paint.c ****         Paint.Image[Addr] = Rdata | ((Color << 4) >> ((X % 2) * 4));
 359              		.loc 1 277 9 is_stmt 1 view .LVU127
 278:User/e-Paper/GUI_Paint.c ****         // printf("Add =  %d ,data = %d\r\n",Addr,Rdata);
 360              		.loc 1 278 9 view .LVU128
 277:User/e-Paper/GUI_Paint.c ****         Paint.Image[Addr] = Rdata | ((Color << 4) >> ((X % 2) * 4));
ARM GAS  C:\Users\upo\AppData\Local\Temp\ccEC4369.s 			page 14


 361              		.loc 1 277 23 is_stmt 0 view .LVU129
 362 010a 685C     		ldrb	r0, [r5, r1]
 363              	.LVL42:
 277:User/e-Paper/GUI_Paint.c ****         Paint.Image[Addr] = Rdata | ((Color << 4) >> ((X % 2) * 4));
 364              		.loc 1 277 23 view .LVU130
 365 010c A043     		bics	r0, r4
 278:User/e-Paper/GUI_Paint.c ****         // printf("Add =  %d ,data = %d\r\n",Addr,Rdata);
 366              		.loc 1 278 35 view .LVU131
 367 010e 0243     		orrs	r2, r0
 278:User/e-Paper/GUI_Paint.c ****         // printf("Add =  %d ,data = %d\r\n",Addr,Rdata);
 368              		.loc 1 278 27 view .LVU132
 369 0110 6A54     		strb	r2, [r5, r1]
 370              	.LVL43:
 278:User/e-Paper/GUI_Paint.c ****         // printf("Add =  %d ,data = %d\r\n",Addr,Rdata);
 371              		.loc 1 278 27 view .LVU133
 372 0112 9BE7     		b	.L1
 373              	.L29:
 374              		.align	2
 375              	.L28:
 376 0114 00000000 		.word	Paint
 377              	.LBE53:
 378              		.cfi_endproc
 379              	.LFE1444:
 381              		.section	.text.Paint_DrawChar.part.0.isra.0,"ax",%progbits
 382              		.align	1
 383              		.p2align 2,,3
 384              		.syntax unified
 385              		.code	16
 386              		.thumb_func
 388              	Paint_DrawChar.part.0.isra.0:
 389              	.LVL44:
 390              	.LFB1450:
 282:User/e-Paper/GUI_Paint.c **** 
 283:User/e-Paper/GUI_Paint.c **** /******************************************************************************
 284:User/e-Paper/GUI_Paint.c **** function: Clear the color of the picture
 285:User/e-Paper/GUI_Paint.c **** parameter:
 286:User/e-Paper/GUI_Paint.c ****     Color : Painted colors
 287:User/e-Paper/GUI_Paint.c **** ******************************************************************************/
 288:User/e-Paper/GUI_Paint.c **** void Paint_Clear(UWORD Color)
 289:User/e-Paper/GUI_Paint.c **** {
 290:User/e-Paper/GUI_Paint.c ****     if (Paint.Scale == 2 || Paint.Scale == 4)
 291:User/e-Paper/GUI_Paint.c ****     {
 292:User/e-Paper/GUI_Paint.c ****         for (UWORD Y = 0; Y < Paint.HeightByte; Y++)
 293:User/e-Paper/GUI_Paint.c ****         {
 294:User/e-Paper/GUI_Paint.c ****             for (UWORD X = 0; X < Paint.WidthByte; X++)
 295:User/e-Paper/GUI_Paint.c ****             { // 8 pixel =  1 byte
 296:User/e-Paper/GUI_Paint.c ****                 UDOUBLE Addr = X + Y * Paint.WidthByte;
 297:User/e-Paper/GUI_Paint.c ****                 Paint.Image[Addr] = Color;
 298:User/e-Paper/GUI_Paint.c ****             }
 299:User/e-Paper/GUI_Paint.c ****         }
 300:User/e-Paper/GUI_Paint.c ****     }
 301:User/e-Paper/GUI_Paint.c ****     else if (Paint.Scale == 7)
 302:User/e-Paper/GUI_Paint.c ****     {
 303:User/e-Paper/GUI_Paint.c ****         for (UWORD Y = 0; Y < Paint.HeightByte; Y++)
 304:User/e-Paper/GUI_Paint.c ****         {
 305:User/e-Paper/GUI_Paint.c ****             for (UWORD X = 0; X < Paint.WidthByte; X++)
 306:User/e-Paper/GUI_Paint.c ****             {
ARM GAS  C:\Users\upo\AppData\Local\Temp\ccEC4369.s 			page 15


 307:User/e-Paper/GUI_Paint.c ****                 UDOUBLE Addr = X + Y * Paint.WidthByte;
 308:User/e-Paper/GUI_Paint.c ****                 Paint.Image[Addr] = (Color << 4) | Color;
 309:User/e-Paper/GUI_Paint.c ****             }
 310:User/e-Paper/GUI_Paint.c ****         }
 311:User/e-Paper/GUI_Paint.c ****     }
 312:User/e-Paper/GUI_Paint.c **** }
 313:User/e-Paper/GUI_Paint.c **** 
 314:User/e-Paper/GUI_Paint.c **** /******************************************************************************
 315:User/e-Paper/GUI_Paint.c **** function: Clear the color of a window
 316:User/e-Paper/GUI_Paint.c **** parameter:
 317:User/e-Paper/GUI_Paint.c ****     Xstart : x starting point
 318:User/e-Paper/GUI_Paint.c ****     Ystart : Y starting point
 319:User/e-Paper/GUI_Paint.c ****     Xend   : x end point
 320:User/e-Paper/GUI_Paint.c ****     Yend   : y end point
 321:User/e-Paper/GUI_Paint.c ****     Color  : Painted colors
 322:User/e-Paper/GUI_Paint.c **** ******************************************************************************/
 323:User/e-Paper/GUI_Paint.c **** void Paint_ClearWindows(UWORD Xstart, UWORD Ystart, UWORD Xend, UWORD Yend, UWORD Color)
 324:User/e-Paper/GUI_Paint.c **** {
 325:User/e-Paper/GUI_Paint.c ****     UWORD X, Y;
 326:User/e-Paper/GUI_Paint.c ****     for (Y = Ystart; Y < Yend; Y++)
 327:User/e-Paper/GUI_Paint.c ****     {
 328:User/e-Paper/GUI_Paint.c ****         for (X = Xstart; X < Xend; X++)
 329:User/e-Paper/GUI_Paint.c ****         { // 8 pixel =  1 byte
 330:User/e-Paper/GUI_Paint.c ****             Paint_SetPixel(X, Y, Color);
 331:User/e-Paper/GUI_Paint.c ****         }
 332:User/e-Paper/GUI_Paint.c ****     }
 333:User/e-Paper/GUI_Paint.c **** }
 334:User/e-Paper/GUI_Paint.c **** 
 335:User/e-Paper/GUI_Paint.c **** /******************************************************************************
 336:User/e-Paper/GUI_Paint.c **** function: Draw Point(Xpoint, Ypoint) Fill the color
 337:User/e-Paper/GUI_Paint.c **** parameter:
 338:User/e-Paper/GUI_Paint.c ****     Xpoint		: The Xpoint coordinate of the point
 339:User/e-Paper/GUI_Paint.c ****     Ypoint		: The Ypoint coordinate of the point
 340:User/e-Paper/GUI_Paint.c ****     Color		: Painted color
 341:User/e-Paper/GUI_Paint.c ****     Dot_Pixel	: point size
 342:User/e-Paper/GUI_Paint.c ****     Dot_Style	: point Style
 343:User/e-Paper/GUI_Paint.c **** ******************************************************************************/
 344:User/e-Paper/GUI_Paint.c **** void Paint_DrawPoint(UWORD Xpoint, UWORD Ypoint, UWORD Color,
 345:User/e-Paper/GUI_Paint.c ****                      DOT_PIXEL Dot_Pixel, DOT_STYLE Dot_Style)
 346:User/e-Paper/GUI_Paint.c **** {
 347:User/e-Paper/GUI_Paint.c ****     if (Xpoint > Paint.Width || Ypoint > Paint.Height)
 348:User/e-Paper/GUI_Paint.c ****     {
 349:User/e-Paper/GUI_Paint.c ****         DE_BUG("Paint_DrawPoint Input exceeds the normal display range\r\n");
 350:User/e-Paper/GUI_Paint.c ****         printf("Xpoint = %d , Paint.Width = %d  \r\n ", Xpoint, Paint.Width);
 351:User/e-Paper/GUI_Paint.c ****         printf("Ypoint = %d , Paint.Height = %d  \r\n ", Ypoint, Paint.Height);
 352:User/e-Paper/GUI_Paint.c ****         return;
 353:User/e-Paper/GUI_Paint.c ****     }
 354:User/e-Paper/GUI_Paint.c **** 
 355:User/e-Paper/GUI_Paint.c ****     int16_t XDir_Num, YDir_Num;
 356:User/e-Paper/GUI_Paint.c ****     if (Dot_Style == DOT_FILL_AROUND)
 357:User/e-Paper/GUI_Paint.c ****     {
 358:User/e-Paper/GUI_Paint.c ****         for (XDir_Num = 0; XDir_Num < 2 * Dot_Pixel - 1; XDir_Num++)
 359:User/e-Paper/GUI_Paint.c ****         {
 360:User/e-Paper/GUI_Paint.c ****             for (YDir_Num = 0; YDir_Num < 2 * Dot_Pixel - 1; YDir_Num++)
 361:User/e-Paper/GUI_Paint.c ****             {
 362:User/e-Paper/GUI_Paint.c ****                 if (Xpoint + XDir_Num - Dot_Pixel < 0 || Ypoint + YDir_Num - Dot_Pixel < 0)
 363:User/e-Paper/GUI_Paint.c ****                     break;
ARM GAS  C:\Users\upo\AppData\Local\Temp\ccEC4369.s 			page 16


 364:User/e-Paper/GUI_Paint.c ****                 // printf("x = %d, y = %d\r\n", Xpoint + XDir_Num - Dot_Pixel, Ypoint + YDir_Num - 
 365:User/e-Paper/GUI_Paint.c ****                 Paint_SetPixel(Xpoint + XDir_Num - Dot_Pixel, Ypoint + YDir_Num - Dot_Pixel, Color)
 366:User/e-Paper/GUI_Paint.c ****             }
 367:User/e-Paper/GUI_Paint.c ****         }
 368:User/e-Paper/GUI_Paint.c ****     }
 369:User/e-Paper/GUI_Paint.c ****     else
 370:User/e-Paper/GUI_Paint.c ****     {
 371:User/e-Paper/GUI_Paint.c ****         for (XDir_Num = 0; XDir_Num < Dot_Pixel; XDir_Num++)
 372:User/e-Paper/GUI_Paint.c ****         {
 373:User/e-Paper/GUI_Paint.c ****             for (YDir_Num = 0; YDir_Num < Dot_Pixel; YDir_Num++)
 374:User/e-Paper/GUI_Paint.c ****             {
 375:User/e-Paper/GUI_Paint.c ****                 Paint_SetPixel(Xpoint + XDir_Num - 1, Ypoint + YDir_Num - 1, Color);
 376:User/e-Paper/GUI_Paint.c ****             }
 377:User/e-Paper/GUI_Paint.c ****         }
 378:User/e-Paper/GUI_Paint.c ****     }
 379:User/e-Paper/GUI_Paint.c **** }
 380:User/e-Paper/GUI_Paint.c **** 
 381:User/e-Paper/GUI_Paint.c **** /******************************************************************************
 382:User/e-Paper/GUI_Paint.c **** function: Draw a line of arbitrary slope
 383:User/e-Paper/GUI_Paint.c **** parameter:
 384:User/e-Paper/GUI_Paint.c ****     Xstart ：Starting Xpoint point coordinates
 385:User/e-Paper/GUI_Paint.c ****     Ystart ：Starting Xpoint point coordinates
 386:User/e-Paper/GUI_Paint.c ****     Xend   ：End point Xpoint coordinate
 387:User/e-Paper/GUI_Paint.c ****     Yend   ：End point Ypoint coordinate
 388:User/e-Paper/GUI_Paint.c ****     Color  ：The color of the line segment
 389:User/e-Paper/GUI_Paint.c ****     Line_width : Line width
 390:User/e-Paper/GUI_Paint.c ****     Line_Style: Solid and dotted lines
 391:User/e-Paper/GUI_Paint.c **** ******************************************************************************/
 392:User/e-Paper/GUI_Paint.c **** void Paint_DrawLine(UWORD Xstart, UWORD Ystart, UWORD Xend, UWORD Yend,
 393:User/e-Paper/GUI_Paint.c ****                     UWORD Color, DOT_PIXEL Line_width, LINE_STYLE Line_Style)
 394:User/e-Paper/GUI_Paint.c **** {
 395:User/e-Paper/GUI_Paint.c ****     if (Xstart > Paint.Width || Ystart > Paint.Height ||
 396:User/e-Paper/GUI_Paint.c ****         Xend > Paint.Width || Yend > Paint.Height)
 397:User/e-Paper/GUI_Paint.c ****     {
 398:User/e-Paper/GUI_Paint.c ****         DE_BUG("Paint_DrawLine Input exceeds the normal display range\r\n");
 399:User/e-Paper/GUI_Paint.c ****         return;
 400:User/e-Paper/GUI_Paint.c ****     }
 401:User/e-Paper/GUI_Paint.c **** 
 402:User/e-Paper/GUI_Paint.c ****     UWORD Xpoint = Xstart;
 403:User/e-Paper/GUI_Paint.c ****     UWORD Ypoint = Ystart;
 404:User/e-Paper/GUI_Paint.c ****     int dx = (int)Xend - (int)Xstart >= 0 ? Xend - Xstart : Xstart - Xend;
 405:User/e-Paper/GUI_Paint.c ****     int dy = (int)Yend - (int)Ystart <= 0 ? Yend - Ystart : Ystart - Yend;
 406:User/e-Paper/GUI_Paint.c **** 
 407:User/e-Paper/GUI_Paint.c ****     // Increment direction, 1 is positive, -1 is counter;
 408:User/e-Paper/GUI_Paint.c ****     int XAddway = Xstart < Xend ? 1 : -1;
 409:User/e-Paper/GUI_Paint.c ****     int YAddway = Ystart < Yend ? 1 : -1;
 410:User/e-Paper/GUI_Paint.c **** 
 411:User/e-Paper/GUI_Paint.c ****     // Cumulative error
 412:User/e-Paper/GUI_Paint.c ****     int Esp = dx + dy;
 413:User/e-Paper/GUI_Paint.c ****     char Dotted_Len = 0;
 414:User/e-Paper/GUI_Paint.c **** 
 415:User/e-Paper/GUI_Paint.c ****     for (;;)
 416:User/e-Paper/GUI_Paint.c ****     {
 417:User/e-Paper/GUI_Paint.c ****         Dotted_Len++;
 418:User/e-Paper/GUI_Paint.c ****         // Painted dotted line, 2 point is really virtual
 419:User/e-Paper/GUI_Paint.c ****         if (Line_Style == LINE_STYLE_DOTTED && Dotted_Len % 3 == 0)
 420:User/e-Paper/GUI_Paint.c ****         {
ARM GAS  C:\Users\upo\AppData\Local\Temp\ccEC4369.s 			page 17


 421:User/e-Paper/GUI_Paint.c ****             // DE_BUG("LINE_DOTTED\r\n");
 422:User/e-Paper/GUI_Paint.c ****             Paint_DrawPoint(Xpoint, Ypoint, IMAGE_BACKGROUND, Line_width, DOT_STYLE_DFT);
 423:User/e-Paper/GUI_Paint.c ****             Dotted_Len = 0;
 424:User/e-Paper/GUI_Paint.c ****         }
 425:User/e-Paper/GUI_Paint.c ****         else
 426:User/e-Paper/GUI_Paint.c ****         {
 427:User/e-Paper/GUI_Paint.c ****             Paint_DrawPoint(Xpoint, Ypoint, Color, Line_width, DOT_STYLE_DFT);
 428:User/e-Paper/GUI_Paint.c ****         }
 429:User/e-Paper/GUI_Paint.c ****         if (2 * Esp >= dy)
 430:User/e-Paper/GUI_Paint.c ****         {
 431:User/e-Paper/GUI_Paint.c ****             if (Xpoint == Xend)
 432:User/e-Paper/GUI_Paint.c ****                 break;
 433:User/e-Paper/GUI_Paint.c ****             Esp += dy;
 434:User/e-Paper/GUI_Paint.c ****             Xpoint += XAddway;
 435:User/e-Paper/GUI_Paint.c ****         }
 436:User/e-Paper/GUI_Paint.c ****         if (2 * Esp <= dx)
 437:User/e-Paper/GUI_Paint.c ****         {
 438:User/e-Paper/GUI_Paint.c ****             if (Ypoint == Yend)
 439:User/e-Paper/GUI_Paint.c ****                 break;
 440:User/e-Paper/GUI_Paint.c ****             Esp += dx;
 441:User/e-Paper/GUI_Paint.c ****             Ypoint += YAddway;
 442:User/e-Paper/GUI_Paint.c ****         }
 443:User/e-Paper/GUI_Paint.c ****     }
 444:User/e-Paper/GUI_Paint.c **** }
 445:User/e-Paper/GUI_Paint.c **** 
 446:User/e-Paper/GUI_Paint.c **** /******************************************************************************
 447:User/e-Paper/GUI_Paint.c **** function: Draw a rectangle
 448:User/e-Paper/GUI_Paint.c **** parameter:
 449:User/e-Paper/GUI_Paint.c ****     Xstart ：Rectangular  Starting Xpoint point coordinates
 450:User/e-Paper/GUI_Paint.c ****     Ystart ：Rectangular  Starting Xpoint point coordinates
 451:User/e-Paper/GUI_Paint.c ****     Xend   ：Rectangular  End point Xpoint coordinate
 452:User/e-Paper/GUI_Paint.c ****     Yend   ：Rectangular  End point Ypoint coordinate
 453:User/e-Paper/GUI_Paint.c ****     Color  ：The color of the Rectangular segment
 454:User/e-Paper/GUI_Paint.c ****     Line_width: Line width
 455:User/e-Paper/GUI_Paint.c ****     Draw_Fill : Whether to fill the inside of the rectangle
 456:User/e-Paper/GUI_Paint.c **** ******************************************************************************/
 457:User/e-Paper/GUI_Paint.c **** void Paint_DrawRectangle(UWORD Xstart, UWORD Ystart, UWORD Xend, UWORD Yend,
 458:User/e-Paper/GUI_Paint.c ****                          UWORD Color, DOT_PIXEL Line_width, DRAW_FILL Draw_Fill)
 459:User/e-Paper/GUI_Paint.c **** {
 460:User/e-Paper/GUI_Paint.c ****     if (Xstart > Paint.Width || Ystart > Paint.Height ||
 461:User/e-Paper/GUI_Paint.c ****         Xend > Paint.Width || Yend > Paint.Height)
 462:User/e-Paper/GUI_Paint.c ****     {
 463:User/e-Paper/GUI_Paint.c ****         DE_BUG("Input exceeds the normal display range\r\n");
 464:User/e-Paper/GUI_Paint.c ****         return;
 465:User/e-Paper/GUI_Paint.c ****     }
 466:User/e-Paper/GUI_Paint.c **** 
 467:User/e-Paper/GUI_Paint.c ****     if (Draw_Fill)
 468:User/e-Paper/GUI_Paint.c ****     {
 469:User/e-Paper/GUI_Paint.c ****         UWORD Ypoint;
 470:User/e-Paper/GUI_Paint.c ****         for (Ypoint = Ystart; Ypoint < Yend; Ypoint++)
 471:User/e-Paper/GUI_Paint.c ****         {
 472:User/e-Paper/GUI_Paint.c ****             Paint_DrawLine(Xstart, Ypoint, Xend, Ypoint, Color, Line_width, LINE_STYLE_SOLID);
 473:User/e-Paper/GUI_Paint.c ****         }
 474:User/e-Paper/GUI_Paint.c ****     }
 475:User/e-Paper/GUI_Paint.c ****     else
 476:User/e-Paper/GUI_Paint.c ****     {
 477:User/e-Paper/GUI_Paint.c ****         Paint_DrawLine(Xstart, Ystart, Xend, Ystart, Color, Line_width, LINE_STYLE_SOLID);
ARM GAS  C:\Users\upo\AppData\Local\Temp\ccEC4369.s 			page 18


 478:User/e-Paper/GUI_Paint.c ****         Paint_DrawLine(Xstart, Ystart, Xstart, Yend, Color, Line_width, LINE_STYLE_SOLID);
 479:User/e-Paper/GUI_Paint.c ****         Paint_DrawLine(Xend, Yend, Xend, Ystart, Color, Line_width, LINE_STYLE_SOLID);
 480:User/e-Paper/GUI_Paint.c ****         Paint_DrawLine(Xend, Yend, Xstart, Yend, Color, Line_width, LINE_STYLE_SOLID);
 481:User/e-Paper/GUI_Paint.c ****     }
 482:User/e-Paper/GUI_Paint.c **** }
 483:User/e-Paper/GUI_Paint.c **** 
 484:User/e-Paper/GUI_Paint.c **** /******************************************************************************
 485:User/e-Paper/GUI_Paint.c **** function: Use the 8-point method to draw a circle of the
 486:User/e-Paper/GUI_Paint.c ****             specified size at the specified position->
 487:User/e-Paper/GUI_Paint.c **** parameter:
 488:User/e-Paper/GUI_Paint.c ****     X_Center  ：Center X coordinate
 489:User/e-Paper/GUI_Paint.c ****     Y_Center  ：Center Y coordinate
 490:User/e-Paper/GUI_Paint.c ****     Radius    ：circle Radius
 491:User/e-Paper/GUI_Paint.c ****     Color     ：The color of the ：circle segment
 492:User/e-Paper/GUI_Paint.c ****     Line_width: Line width
 493:User/e-Paper/GUI_Paint.c ****     Draw_Fill : Whether to fill the inside of the Circle
 494:User/e-Paper/GUI_Paint.c **** ******************************************************************************/
 495:User/e-Paper/GUI_Paint.c **** void Paint_DrawCircle(UWORD X_Center, UWORD Y_Center, UWORD Radius,
 496:User/e-Paper/GUI_Paint.c ****                       UWORD Color, DOT_PIXEL Line_width, DRAW_FILL Draw_Fill)
 497:User/e-Paper/GUI_Paint.c **** {
 498:User/e-Paper/GUI_Paint.c ****     if (X_Center > Paint.Width || Y_Center >= Paint.Height)
 499:User/e-Paper/GUI_Paint.c ****     {
 500:User/e-Paper/GUI_Paint.c ****         DE_BUG("Paint_DrawCircle Input exceeds the normal display range\r\n");
 501:User/e-Paper/GUI_Paint.c ****         return;
 502:User/e-Paper/GUI_Paint.c ****     }
 503:User/e-Paper/GUI_Paint.c **** 
 504:User/e-Paper/GUI_Paint.c ****     // Draw a circle from(0, R) as a starting point
 505:User/e-Paper/GUI_Paint.c ****     int16_t XCurrent, YCurrent;
 506:User/e-Paper/GUI_Paint.c ****     XCurrent = 0;
 507:User/e-Paper/GUI_Paint.c ****     YCurrent = Radius;
 508:User/e-Paper/GUI_Paint.c **** 
 509:User/e-Paper/GUI_Paint.c ****     // Cumulative error,judge the next point of the logo
 510:User/e-Paper/GUI_Paint.c ****     int16_t Esp = 3 - (Radius << 1);
 511:User/e-Paper/GUI_Paint.c **** 
 512:User/e-Paper/GUI_Paint.c ****     int16_t sCountY;
 513:User/e-Paper/GUI_Paint.c ****     if (Draw_Fill == DRAW_FILL_FULL)
 514:User/e-Paper/GUI_Paint.c ****     {
 515:User/e-Paper/GUI_Paint.c ****         while (XCurrent <= YCurrent)
 516:User/e-Paper/GUI_Paint.c ****         { // Realistic circles
 517:User/e-Paper/GUI_Paint.c ****             for (sCountY = XCurrent; sCountY <= YCurrent; sCountY++)
 518:User/e-Paper/GUI_Paint.c ****             {
 519:User/e-Paper/GUI_Paint.c ****                 Paint_DrawPoint(X_Center + XCurrent, Y_Center + sCountY, Color, DOT_PIXEL_DFT, DOT_
 520:User/e-Paper/GUI_Paint.c ****                 Paint_DrawPoint(X_Center - XCurrent, Y_Center + sCountY, Color, DOT_PIXEL_DFT, DOT_
 521:User/e-Paper/GUI_Paint.c ****                 Paint_DrawPoint(X_Center - sCountY, Y_Center + XCurrent, Color, DOT_PIXEL_DFT, DOT_
 522:User/e-Paper/GUI_Paint.c ****                 Paint_DrawPoint(X_Center - sCountY, Y_Center - XCurrent, Color, DOT_PIXEL_DFT, DOT_
 523:User/e-Paper/GUI_Paint.c ****                 Paint_DrawPoint(X_Center - XCurrent, Y_Center - sCountY, Color, DOT_PIXEL_DFT, DOT_
 524:User/e-Paper/GUI_Paint.c ****                 Paint_DrawPoint(X_Center + XCurrent, Y_Center - sCountY, Color, DOT_PIXEL_DFT, DOT_
 525:User/e-Paper/GUI_Paint.c ****                 Paint_DrawPoint(X_Center + sCountY, Y_Center - XCurrent, Color, DOT_PIXEL_DFT, DOT_
 526:User/e-Paper/GUI_Paint.c ****                 Paint_DrawPoint(X_Center + sCountY, Y_Center + XCurrent, Color, DOT_PIXEL_DFT, DOT_
 527:User/e-Paper/GUI_Paint.c ****             }
 528:User/e-Paper/GUI_Paint.c ****             if (Esp < 0)
 529:User/e-Paper/GUI_Paint.c ****                 Esp += 4 * XCurrent + 6;
 530:User/e-Paper/GUI_Paint.c ****             else
 531:User/e-Paper/GUI_Paint.c ****             {
 532:User/e-Paper/GUI_Paint.c ****                 Esp += 10 + 4 * (XCurrent - YCurrent);
 533:User/e-Paper/GUI_Paint.c ****                 YCurrent--;
 534:User/e-Paper/GUI_Paint.c ****             }
ARM GAS  C:\Users\upo\AppData\Local\Temp\ccEC4369.s 			page 19


 535:User/e-Paper/GUI_Paint.c ****             XCurrent++;
 536:User/e-Paper/GUI_Paint.c ****         }
 537:User/e-Paper/GUI_Paint.c ****     }
 538:User/e-Paper/GUI_Paint.c ****     else
 539:User/e-Paper/GUI_Paint.c ****     { // Draw a hollow circle
 540:User/e-Paper/GUI_Paint.c ****         while (XCurrent <= YCurrent)
 541:User/e-Paper/GUI_Paint.c ****         {
 542:User/e-Paper/GUI_Paint.c ****             Paint_DrawPoint(X_Center + XCurrent, Y_Center + YCurrent, Color, Line_width, DOT_STYLE_
 543:User/e-Paper/GUI_Paint.c ****             Paint_DrawPoint(X_Center - XCurrent, Y_Center + YCurrent, Color, Line_width, DOT_STYLE_
 544:User/e-Paper/GUI_Paint.c ****             Paint_DrawPoint(X_Center - YCurrent, Y_Center + XCurrent, Color, Line_width, DOT_STYLE_
 545:User/e-Paper/GUI_Paint.c ****             Paint_DrawPoint(X_Center - YCurrent, Y_Center - XCurrent, Color, Line_width, DOT_STYLE_
 546:User/e-Paper/GUI_Paint.c ****             Paint_DrawPoint(X_Center - XCurrent, Y_Center - YCurrent, Color, Line_width, DOT_STYLE_
 547:User/e-Paper/GUI_Paint.c ****             Paint_DrawPoint(X_Center + XCurrent, Y_Center - YCurrent, Color, Line_width, DOT_STYLE_
 548:User/e-Paper/GUI_Paint.c ****             Paint_DrawPoint(X_Center + YCurrent, Y_Center - XCurrent, Color, Line_width, DOT_STYLE_
 549:User/e-Paper/GUI_Paint.c ****             Paint_DrawPoint(X_Center + YCurrent, Y_Center + XCurrent, Color, Line_width, DOT_STYLE_
 550:User/e-Paper/GUI_Paint.c **** 
 551:User/e-Paper/GUI_Paint.c ****             if (Esp < 0)
 552:User/e-Paper/GUI_Paint.c ****                 Esp += 4 * XCurrent + 6;
 553:User/e-Paper/GUI_Paint.c ****             else
 554:User/e-Paper/GUI_Paint.c ****             {
 555:User/e-Paper/GUI_Paint.c ****                 Esp += 10 + 4 * (XCurrent - YCurrent);
 556:User/e-Paper/GUI_Paint.c ****                 YCurrent--;
 557:User/e-Paper/GUI_Paint.c ****             }
 558:User/e-Paper/GUI_Paint.c ****             XCurrent++;
 559:User/e-Paper/GUI_Paint.c ****         }
 560:User/e-Paper/GUI_Paint.c ****     }
 561:User/e-Paper/GUI_Paint.c **** }
 562:User/e-Paper/GUI_Paint.c **** 
 563:User/e-Paper/GUI_Paint.c **** /******************************************************************************
 564:User/e-Paper/GUI_Paint.c **** function: Show English characters
 565:User/e-Paper/GUI_Paint.c **** parameter:
 566:User/e-Paper/GUI_Paint.c ****     Xpoint           ：X coordinate
 567:User/e-Paper/GUI_Paint.c ****     Ypoint           ：Y coordinate
 568:User/e-Paper/GUI_Paint.c ****     Acsii_Char       ：To display the English characters
 569:User/e-Paper/GUI_Paint.c ****     Font             ：A structure pointer that displays a character size
 570:User/e-Paper/GUI_Paint.c ****     Color_Foreground : Select the foreground color
 571:User/e-Paper/GUI_Paint.c ****     Color_Background : Select the background color
 572:User/e-Paper/GUI_Paint.c **** ******************************************************************************/
 573:User/e-Paper/GUI_Paint.c **** void Paint_DrawChar(UWORD Xpoint, UWORD Ypoint, const char Acsii_Char,
 391              		.loc 1 573 6 is_stmt 1 view -0
 392              		.cfi_startproc
 393              		@ args = 8, pretend = 0, frame = 24
 394              		@ frame_needed = 0, uses_anonymous_args = 0
 574:User/e-Paper/GUI_Paint.c ****                     tFont *Font, UWORD Color_Foreground, UWORD Color_Background)
 575:User/e-Paper/GUI_Paint.c **** {
 576:User/e-Paper/GUI_Paint.c ****     UWORD Page, Column;
 577:User/e-Paper/GUI_Paint.c **** 
 578:User/e-Paper/GUI_Paint.c ****     if (Xpoint > Paint.Width || Ypoint > Paint.Height)
 579:User/e-Paper/GUI_Paint.c ****     {
 580:User/e-Paper/GUI_Paint.c ****         DE_BUG("Paint_DrawChar Input exceeds the normal display range\r\n");
 581:User/e-Paper/GUI_Paint.c ****         return;
 582:User/e-Paper/GUI_Paint.c ****     }
 583:User/e-Paper/GUI_Paint.c ****     uint32_t font_Width = (*Font).chars[Acsii_Char - ' '].image->width;
 395              		.loc 1 583 5 view .LVU135
 573:User/e-Paper/GUI_Paint.c ****                     tFont *Font, UWORD Color_Foreground, UWORD Color_Background)
 396              		.loc 1 573 6 is_stmt 0 view .LVU136
 397 0000 F0B5     		push	{r4, r5, r6, r7, lr}
ARM GAS  C:\Users\upo\AppData\Local\Temp\ccEC4369.s 			page 20


 398              	.LCFI1:
 399              		.cfi_def_cfa_offset 20
 400              		.cfi_offset 4, -20
 401              		.cfi_offset 5, -16
 402              		.cfi_offset 6, -12
 403              		.cfi_offset 7, -8
 404              		.cfi_offset 14, -4
 405 0002 5746     		mov	r7, r10
 406 0004 4546     		mov	r5, r8
 407 0006 DE46     		mov	lr, fp
 408 0008 4E46     		mov	r6, r9
 409 000a E0B5     		push	{r5, r6, r7, lr}
 410              	.LCFI2:
 411              		.cfi_def_cfa_offset 36
 412              		.cfi_offset 8, -36
 413              		.cfi_offset 9, -32
 414              		.cfi_offset 10, -28
 415              		.cfi_offset 11, -24
 416 000c 87B0     		sub	sp, sp, #28
 417              	.LCFI3:
 418              		.cfi_def_cfa_offset 64
 573:User/e-Paper/GUI_Paint.c ****                     tFont *Font, UWORD Color_Foreground, UWORD Color_Background)
 419              		.loc 1 573 6 view .LVU137
 420 000e 0091     		str	r1, [sp]
 421 0010 0C00     		movs	r4, r1
 422 0012 10A9     		add	r1, sp, #64
 423              	.LVL45:
 573:User/e-Paper/GUI_Paint.c ****                     tFont *Font, UWORD Color_Foreground, UWORD Color_Background)
 424              		.loc 1 573 6 view .LVU138
 425 0014 0490     		str	r0, [sp, #16]
 426 0016 0888     		ldrh	r0, [r1]
 427              	.LVL46:
 573:User/e-Paper/GUI_Paint.c ****                     tFont *Font, UWORD Color_Foreground, UWORD Color_Background)
 428              		.loc 1 573 6 view .LVU139
 429 0018 11A9     		add	r1, sp, #68
 430              	.LVL47:
 573:User/e-Paper/GUI_Paint.c ****                     tFont *Font, UWORD Color_Foreground, UWORD Color_Background)
 431              		.loc 1 573 6 view .LVU140
 432 001a 0390     		str	r0, [sp, #12]
 433 001c 0888     		ldrh	r0, [r1]
 434 001e 0190     		str	r0, [sp, #4]
 435              		.loc 1 583 40 view .LVU141
 436 0020 4448     		ldr	r0, .L59
 437 0022 8446     		mov	ip, r0
 438 0024 6244     		add	r2, r2, ip
 439              	.LVL48:
 440              		.loc 1 583 58 view .LVU142
 441 0026 D200     		lsls	r2, r2, #3
 442 0028 9B18     		adds	r3, r3, r2
 443 002a 5A68     		ldr	r2, [r3, #4]
 444              		.loc 1 583 64 view .LVU143
 445 002c 9388     		ldrh	r3, [r2, #4]
 584:User/e-Paper/GUI_Paint.c ****     uint32_t font_Height = (*Font).chars[Acsii_Char - ' '].image->height;
 585:User/e-Paper/GUI_Paint.c **** 
 586:User/e-Paper/GUI_Paint.c ****     //   uint32_t Char_Offset = (Acsii_Char - ' ') * Font->Height * (Font->Width / 8 + (Font->Width
 587:User/e-Paper/GUI_Paint.c ****     const unsigned char *ptr = (*Font).chars[Acsii_Char - ' '].image->data;
 446              		.loc 1 587 26 view .LVU144
ARM GAS  C:\Users\upo\AppData\Local\Temp\ccEC4369.s 			page 21


 447 002e 1768     		ldr	r7, [r2]
 583:User/e-Paper/GUI_Paint.c ****     uint32_t font_Height = (*Font).chars[Acsii_Char - ' '].image->height;
 448              		.loc 1 583 64 view .LVU145
 449 0030 9846     		mov	r8, r3
 450              	.LVL49:
 584:User/e-Paper/GUI_Paint.c ****     uint32_t font_Height = (*Font).chars[Acsii_Char - ' '].image->height;
 451              		.loc 1 584 5 is_stmt 1 view .LVU146
 584:User/e-Paper/GUI_Paint.c ****     uint32_t font_Height = (*Font).chars[Acsii_Char - ' '].image->height;
 452              		.loc 1 584 65 is_stmt 0 view .LVU147
 453 0032 D388     		ldrh	r3, [r2, #6]
 454              	.LVL50:
 455              		.loc 1 587 5 is_stmt 1 view .LVU148
 588:User/e-Paper/GUI_Paint.c **** 
 589:User/e-Paper/GUI_Paint.c ****     for (Page = 0; Page < font_Height; Page++)
 456              		.loc 1 589 5 view .LVU149
 457              		.loc 1 589 25 view .LVU150
 458 0034 002B     		cmp	r3, #0
 459 0036 75D0     		beq	.L30
 460 0038 A446     		mov	ip, r4
 461 003a 0722     		movs	r2, #7
 462 003c 4046     		mov	r0, r8
 463 003e 6344     		add	r3, r3, ip
 464              	.LVL51:
 465              		.loc 1 589 25 is_stmt 0 view .LVU151
 466 0040 9BB2     		uxth	r3, r3
 467 0042 0293     		str	r3, [sp, #8]
 468              	.LBB60:
 469              	.LBB61:
 202:User/e-Paper/GUI_Paint.c ****     {
 470              		.loc 1 202 23 view .LVU152
 471 0044 3C4B     		ldr	r3, .L59+4
 472 0046 1040     		ands	r0, r2
 473 0048 9946     		mov	r9, r3
 474 004a 0590     		str	r0, [sp, #20]
 475 004c 06E0     		b	.L32
 476              	.LVL52:
 477              	.L41:
 202:User/e-Paper/GUI_Paint.c ****     {
 478              		.loc 1 202 23 view .LVU153
 479              	.LBE61:
 480              	.LBE60:
 481              		.loc 1 589 44 is_stmt 1 view .LVU154
 482              		.loc 1 589 25 view .LVU155
 483 004e 009C     		ldr	r4, [sp]
 484 0050 029A     		ldr	r2, [sp, #8]
 485 0052 0134     		adds	r4, r4, #1
 486 0054 A3B2     		uxth	r3, r4
 487 0056 0093     		str	r3, [sp]
 488 0058 9A42     		cmp	r2, r3
 489 005a 63D0     		beq	.L30
 490              	.LVL53:
 491              	.L32:
 590:User/e-Paper/GUI_Paint.c ****     {
 591:User/e-Paper/GUI_Paint.c ****         for (Column = 0; Column < font_Width; Column++)
 492              		.loc 1 591 33 view .LVU156
 493 005c 4346     		mov	r3, r8
 494 005e 002B     		cmp	r3, #0
ARM GAS  C:\Users\upo\AppData\Local\Temp\ccEC4369.s 			page 22


 495 0060 F5D0     		beq	.L41
 496              	.LVL54:
 497              	.L42:
 498              		.loc 1 591 33 is_stmt 0 view .LVU157
 499 0062 019B     		ldr	r3, [sp, #4]
 500              		.loc 1 591 21 view .LVU158
 501 0064 0025     		movs	r5, #0
 573:User/e-Paper/GUI_Paint.c ****                     tFont *Font, UWORD Color_Foreground, UWORD Color_Background)
 502              		.loc 1 573 6 view .LVU159
 503 0066 049E     		ldr	r6, [sp, #16]
 504 0068 FF2B     		cmp	r3, #255
 505 006a 2ED0     		beq	.L43
 506 006c 0723     		movs	r3, #7
 507 006e 9B46     		mov	fp, r3
 592:User/e-Paper/GUI_Paint.c ****         {
 593:User/e-Paper/GUI_Paint.c **** 
 594:User/e-Paper/GUI_Paint.c ****             // To determine whether the font background color and screen background color is consis
 595:User/e-Paper/GUI_Paint.c ****             if (FONT_BACKGROUND == Color_Background)
 596:User/e-Paper/GUI_Paint.c ****             { // this process is to speed up the scan
 597:User/e-Paper/GUI_Paint.c ****                 if (*ptr & (0x80 >> (Column % 8)))
 508              		.loc 1 597 34 view .LVU160
 509 0070 7933     		adds	r3, r3, #121
 510 0072 9A46     		mov	r10, r3
 511 0074 14E0     		b	.L37
 512              	.LVL55:
 513              	.L58:
 598:User/e-Paper/GUI_Paint.c ****                     Paint_SetPixel(Xpoint + Column, Ypoint + Page, Color_Foreground);
 599:User/e-Paper/GUI_Paint.c ****             }
 600:User/e-Paper/GUI_Paint.c ****             else
 601:User/e-Paper/GUI_Paint.c ****             {
 602:User/e-Paper/GUI_Paint.c ****                 if (*ptr & (0x80 >> (Column % 8)))
 603:User/e-Paper/GUI_Paint.c ****                 {
 604:User/e-Paper/GUI_Paint.c ****                     Paint_SetPixel(Xpoint + Column, Ypoint + Page, Color_Foreground);
 605:User/e-Paper/GUI_Paint.c ****                 }
 606:User/e-Paper/GUI_Paint.c ****                 else
 607:User/e-Paper/GUI_Paint.c ****                 {
 608:User/e-Paper/GUI_Paint.c ****                     Paint_SetPixel(Xpoint + Column, Ypoint + Page, Color_Background);
 514              		.loc 1 608 21 is_stmt 1 view .LVU161
 515              	.LBB64:
 516              	.LBI64:
 200:User/e-Paper/GUI_Paint.c **** {
 517              		.loc 1 200 6 view .LVU162
 518              	.LBB65:
 202:User/e-Paper/GUI_Paint.c ****     {
 519              		.loc 1 202 5 view .LVU163
 202:User/e-Paper/GUI_Paint.c ****     {
 520              		.loc 1 202 8 is_stmt 0 view .LVU164
 521 0076 8E42     		cmp	r6, r1
 522 0078 08D8     		bhi	.L35
 202:User/e-Paper/GUI_Paint.c ****     {
 523              		.loc 1 202 30 view .LVU165
 524 007a 4B46     		mov	r3, r9
 525 007c 0099     		ldr	r1, [sp]
 526 007e DB88     		ldrh	r3, [r3, #6]
 527 0080 8B42     		cmp	r3, r1
 528 0082 03D3     		bcc	.L35
 529 0084 3000     		movs	r0, r6
ARM GAS  C:\Users\upo\AppData\Local\Temp\ccEC4369.s 			page 23


 530 0086 019A     		ldr	r2, [sp, #4]
 531 0088 FFF7FEFF 		bl	Paint_SetPixel.part.0
 532              	.LVL56:
 533              	.L35:
 202:User/e-Paper/GUI_Paint.c ****     {
 534              		.loc 1 202 30 view .LVU166
 535              	.LBE65:
 536              	.LBE64:
 609:User/e-Paper/GUI_Paint.c ****                 }
 610:User/e-Paper/GUI_Paint.c ****             }
 611:User/e-Paper/GUI_Paint.c ****             // One pixel is 8 bits
 612:User/e-Paper/GUI_Paint.c ****             if (Column % 8 == 7)
 537              		.loc 1 612 13 is_stmt 1 view .LVU167
 613:User/e-Paper/GUI_Paint.c ****                 ptr++;
 538              		.loc 1 613 20 is_stmt 0 view .LVU168
 539 008c 073C     		subs	r4, r4, #7
 540 008e 6342     		rsbs	r3, r4, #0
 541 0090 5C41     		adcs	r4, r4, r3
 591:User/e-Paper/GUI_Paint.c ****         {
 542              		.loc 1 591 53 view .LVU169
 543 0092 0135     		adds	r5, r5, #1
 544              	.LVL57:
 591:User/e-Paper/GUI_Paint.c ****         {
 545              		.loc 1 591 33 view .LVU170
 546 0094 0136     		adds	r6, r6, #1
 591:User/e-Paper/GUI_Paint.c ****         {
 547              		.loc 1 591 53 view .LVU171
 548 0096 ADB2     		uxth	r5, r5
 549              		.loc 1 613 20 view .LVU172
 550 0098 3F19     		adds	r7, r7, r4
 551              	.LVL58:
 591:User/e-Paper/GUI_Paint.c ****         {
 552              		.loc 1 591 53 is_stmt 1 view .LVU173
 591:User/e-Paper/GUI_Paint.c ****         {
 553              		.loc 1 591 33 view .LVU174
 554 009a B6B2     		uxth	r6, r6
 555 009c A845     		cmp	r8, r5
 556 009e 36D0     		beq	.L38
 557              	.LVL59:
 558              	.L37:
 595:User/e-Paper/GUI_Paint.c ****             { // this process is to speed up the scan
 559              		.loc 1 595 13 view .LVU175
 560              	.LBB66:
 561              	.LBB62:
 202:User/e-Paper/GUI_Paint.c ****     {
 562              		.loc 1 202 23 is_stmt 0 view .LVU176
 563 00a0 4B46     		mov	r3, r9
 564 00a2 5C46     		mov	r4, fp
 565 00a4 9988     		ldrh	r1, [r3, #4]
 566              	.LBE62:
 567              	.LBE66:
 597:User/e-Paper/GUI_Paint.c ****                     Paint_SetPixel(Xpoint + Column, Ypoint + Page, Color_Foreground);
 568              		.loc 1 597 34 view .LVU177
 569 00a6 5346     		mov	r3, r10
 570 00a8 2C40     		ands	r4, r5
 602:User/e-Paper/GUI_Paint.c ****                 {
 571              		.loc 1 602 17 is_stmt 1 view .LVU178
ARM GAS  C:\Users\upo\AppData\Local\Temp\ccEC4369.s 			page 24


 597:User/e-Paper/GUI_Paint.c ****                     Paint_SetPixel(Xpoint + Column, Ypoint + Page, Color_Foreground);
 572              		.loc 1 597 34 is_stmt 0 view .LVU179
 573 00aa 2341     		asrs	r3, r3, r4
 597:User/e-Paper/GUI_Paint.c ****                     Paint_SetPixel(Xpoint + Column, Ypoint + Page, Color_Foreground);
 574              		.loc 1 597 21 view .LVU180
 575 00ac 3A78     		ldrb	r2, [r7]
 602:User/e-Paper/GUI_Paint.c ****                 {
 576              		.loc 1 602 20 view .LVU181
 577 00ae 1A42     		tst	r2, r3
 578 00b0 E1D0     		beq	.L58
 604:User/e-Paper/GUI_Paint.c ****                 }
 579              		.loc 1 604 21 is_stmt 1 view .LVU182
 580              	.LVL60:
 581              	.LBB67:
 582              	.LBI67:
 200:User/e-Paper/GUI_Paint.c **** {
 583              		.loc 1 200 6 view .LVU183
 584              	.LBB68:
 202:User/e-Paper/GUI_Paint.c ****     {
 585              		.loc 1 202 5 view .LVU184
 202:User/e-Paper/GUI_Paint.c ****     {
 586              		.loc 1 202 8 is_stmt 0 view .LVU185
 587 00b2 8E42     		cmp	r6, r1
 588 00b4 EAD8     		bhi	.L35
 202:User/e-Paper/GUI_Paint.c ****     {
 589              		.loc 1 202 30 view .LVU186
 590 00b6 4B46     		mov	r3, r9
 591 00b8 0099     		ldr	r1, [sp]
 592 00ba DB88     		ldrh	r3, [r3, #6]
 593 00bc 8B42     		cmp	r3, r1
 594 00be E5D3     		bcc	.L35
 595 00c0 3000     		movs	r0, r6
 596 00c2 039A     		ldr	r2, [sp, #12]
 597 00c4 FFF7FEFF 		bl	Paint_SetPixel.part.0
 598              	.LVL61:
 599 00c8 E0E7     		b	.L35
 600              	.LVL62:
 601              	.L43:
 202:User/e-Paper/GUI_Paint.c ****     {
 602              		.loc 1 202 30 view .LVU187
 603 00ca 0723     		movs	r3, #7
 604 00cc 9B46     		mov	fp, r3
 605              	.LBE68:
 606              	.LBE67:
 597:User/e-Paper/GUI_Paint.c ****                     Paint_SetPixel(Xpoint + Column, Ypoint + Page, Color_Foreground);
 607              		.loc 1 597 34 view .LVU188
 608 00ce 7933     		adds	r3, r3, #121
 609 00d0 9A46     		mov	r10, r3
 610              	.L33:
 611              	.LVL63:
 595:User/e-Paper/GUI_Paint.c ****             { // this process is to speed up the scan
 612              		.loc 1 595 13 is_stmt 1 view .LVU189
 613 00d2 5C46     		mov	r4, fp
 597:User/e-Paper/GUI_Paint.c ****                     Paint_SetPixel(Xpoint + Column, Ypoint + Page, Color_Foreground);
 614              		.loc 1 597 34 is_stmt 0 view .LVU190
 615 00d4 5246     		mov	r2, r10
 616 00d6 2C40     		ands	r4, r5
ARM GAS  C:\Users\upo\AppData\Local\Temp\ccEC4369.s 			page 25


 597:User/e-Paper/GUI_Paint.c ****                     Paint_SetPixel(Xpoint + Column, Ypoint + Page, Color_Foreground);
 617              		.loc 1 597 17 is_stmt 1 view .LVU191
 597:User/e-Paper/GUI_Paint.c ****                     Paint_SetPixel(Xpoint + Column, Ypoint + Page, Color_Foreground);
 618              		.loc 1 597 34 is_stmt 0 view .LVU192
 619 00d8 2241     		asrs	r2, r2, r4
 597:User/e-Paper/GUI_Paint.c ****                     Paint_SetPixel(Xpoint + Column, Ypoint + Page, Color_Foreground);
 620              		.loc 1 597 21 view .LVU193
 621 00da 3B78     		ldrb	r3, [r7]
 597:User/e-Paper/GUI_Paint.c ****                     Paint_SetPixel(Xpoint + Column, Ypoint + Page, Color_Foreground);
 622              		.loc 1 597 20 view .LVU194
 623 00dc 1A42     		tst	r2, r3
 624 00de 0CD0     		beq	.L39
 598:User/e-Paper/GUI_Paint.c ****             }
 625              		.loc 1 598 21 is_stmt 1 view .LVU195
 626              	.LVL64:
 627              	.LBB69:
 628              	.LBI60:
 200:User/e-Paper/GUI_Paint.c **** {
 629              		.loc 1 200 6 view .LVU196
 630              	.LBB63:
 202:User/e-Paper/GUI_Paint.c ****     {
 631              		.loc 1 202 5 view .LVU197
 202:User/e-Paper/GUI_Paint.c ****     {
 632              		.loc 1 202 8 is_stmt 0 view .LVU198
 633 00e0 4B46     		mov	r3, r9
 634 00e2 9B88     		ldrh	r3, [r3, #4]
 635 00e4 B342     		cmp	r3, r6
 636 00e6 08D3     		bcc	.L39
 202:User/e-Paper/GUI_Paint.c ****     {
 637              		.loc 1 202 30 view .LVU199
 638 00e8 4B46     		mov	r3, r9
 639 00ea 0099     		ldr	r1, [sp]
 640 00ec DB88     		ldrh	r3, [r3, #6]
 641 00ee 8B42     		cmp	r3, r1
 642 00f0 03D3     		bcc	.L39
 643 00f2 3000     		movs	r0, r6
 644 00f4 039A     		ldr	r2, [sp, #12]
 645 00f6 FFF7FEFF 		bl	Paint_SetPixel.part.0
 646              	.LVL65:
 647              	.L39:
 202:User/e-Paper/GUI_Paint.c ****     {
 648              		.loc 1 202 30 view .LVU200
 649              	.LBE63:
 650              	.LBE69:
 612:User/e-Paper/GUI_Paint.c ****                 ptr++;
 651              		.loc 1 612 13 is_stmt 1 view .LVU201
 652              		.loc 1 613 20 is_stmt 0 view .LVU202
 653 00fa 073C     		subs	r4, r4, #7
 654 00fc 6342     		rsbs	r3, r4, #0
 655 00fe 5C41     		adcs	r4, r4, r3
 591:User/e-Paper/GUI_Paint.c ****         {
 656              		.loc 1 591 53 view .LVU203
 657 0100 0135     		adds	r5, r5, #1
 658              	.LVL66:
 591:User/e-Paper/GUI_Paint.c ****         {
 659              		.loc 1 591 33 view .LVU204
 660 0102 0136     		adds	r6, r6, #1
ARM GAS  C:\Users\upo\AppData\Local\Temp\ccEC4369.s 			page 26


 591:User/e-Paper/GUI_Paint.c ****         {
 661              		.loc 1 591 53 view .LVU205
 662 0104 ADB2     		uxth	r5, r5
 663              		.loc 1 613 20 view .LVU206
 664 0106 3F19     		adds	r7, r7, r4
 665              	.LVL67:
 591:User/e-Paper/GUI_Paint.c ****         {
 666              		.loc 1 591 53 is_stmt 1 view .LVU207
 591:User/e-Paper/GUI_Paint.c ****         {
 667              		.loc 1 591 33 view .LVU208
 668 0108 B6B2     		uxth	r6, r6
 669 010a A845     		cmp	r8, r5
 670 010c E1D1     		bne	.L33
 671              	.L38:
 614:User/e-Paper/GUI_Paint.c ****         } // Write a line
 615:User/e-Paper/GUI_Paint.c ****         if (font_Width % 8 != 0)
 672              		.loc 1 615 9 view .LVU209
 673              		.loc 1 615 12 is_stmt 0 view .LVU210
 674 010e 059B     		ldr	r3, [sp, #20]
 675 0110 002B     		cmp	r3, #0
 676 0112 9CD0     		beq	.L41
 616:User/e-Paper/GUI_Paint.c ****             ptr++;
 677              		.loc 1 616 13 is_stmt 1 view .LVU211
 589:User/e-Paper/GUI_Paint.c ****     {
 678              		.loc 1 589 25 is_stmt 0 view .LVU212
 679 0114 009B     		ldr	r3, [sp]
 680 0116 029A     		ldr	r2, [sp, #8]
 681 0118 0133     		adds	r3, r3, #1
 682 011a 9BB2     		uxth	r3, r3
 683              		.loc 1 616 16 view .LVU213
 684 011c 0137     		adds	r7, r7, #1
 685              	.LVL68:
 589:User/e-Paper/GUI_Paint.c ****     {
 686              		.loc 1 589 44 is_stmt 1 view .LVU214
 589:User/e-Paper/GUI_Paint.c ****     {
 687              		.loc 1 589 25 view .LVU215
 688 011e 0093     		str	r3, [sp]
 689 0120 9A42     		cmp	r2, r3
 690 0122 9ED1     		bne	.L42
 691              	.LVL69:
 692              	.L30:
 617:User/e-Paper/GUI_Paint.c ****     } // Write all
 618:User/e-Paper/GUI_Paint.c **** }
 693              		.loc 1 618 1 is_stmt 0 view .LVU216
 694 0124 07B0     		add	sp, sp, #28
 695              		@ sp needed
 696              	.LVL70:
 697              	.LVL71:
 698              		.loc 1 618 1 view .LVU217
 699 0126 F0BC     		pop	{r4, r5, r6, r7}
 700 0128 BB46     		mov	fp, r7
 701 012a B246     		mov	r10, r6
 702 012c A946     		mov	r9, r5
 703 012e A046     		mov	r8, r4
 704 0130 F0BD     		pop	{r4, r5, r6, r7, pc}
 705              	.L60:
 706 0132 C046     		.align	2
ARM GAS  C:\Users\upo\AppData\Local\Temp\ccEC4369.s 			page 27


 707              	.L59:
 708 0134 E0FFFF1F 		.word	536870880
 709 0138 00000000 		.word	Paint
 710              		.cfi_endproc
 711              	.LFE1450:
 713              		.global	__aeabi_uidivmod
 714              		.section	.rodata.Paint_DrawLine.part.0.str1.4,"aMS",%progbits,1
 715              		.align	2
 716              	.LC3:
 717 0000 58706F69 		.ascii	"Xpoint = %d , Paint.Width = %d  \015\012 \000"
 717      6E74203D 
 717      20256420 
 717      2C205061 
 717      696E742E 
 718              		.align	2
 719              	.LC5:
 720 0024 59706F69 		.ascii	"Ypoint = %d , Paint.Height = %d  \015\012 \000"
 720      6E74203D 
 720      20256420 
 720      2C205061 
 720      696E742E 
 721              		.section	.text.Paint_DrawLine.part.0,"ax",%progbits
 722              		.align	1
 723              		.p2align 2,,3
 724              		.syntax unified
 725              		.code	16
 726              		.thumb_func
 728              	Paint_DrawLine.part.0:
 729              	.LVL72:
 730              	.LFB1446:
 392:User/e-Paper/GUI_Paint.c ****                     UWORD Color, DOT_PIXEL Line_width, LINE_STYLE Line_Style)
 731              		.loc 1 392 6 is_stmt 1 view -0
 732              		.cfi_startproc
 733              		@ args = 12, pretend = 0, frame = 80
 734              		@ frame_needed = 0, uses_anonymous_args = 0
 402:User/e-Paper/GUI_Paint.c ****     UWORD Ypoint = Ystart;
 735              		.loc 1 402 5 view .LVU219
 403:User/e-Paper/GUI_Paint.c ****     int dx = (int)Xend - (int)Xstart >= 0 ? Xend - Xstart : Xstart - Xend;
 736              		.loc 1 403 5 view .LVU220
 392:User/e-Paper/GUI_Paint.c ****                     UWORD Color, DOT_PIXEL Line_width, LINE_STYLE Line_Style)
 737              		.loc 1 392 6 is_stmt 0 view .LVU221
 738 0000 F0B5     		push	{r4, r5, r6, r7, lr}
 739              	.LCFI4:
 740              		.cfi_def_cfa_offset 20
 741              		.cfi_offset 4, -20
 742              		.cfi_offset 5, -16
 743              		.cfi_offset 6, -12
 744              		.cfi_offset 7, -8
 745              		.cfi_offset 14, -4
 746 0002 5746     		mov	r7, r10
 747 0004 4E46     		mov	r6, r9
 748 0006 4546     		mov	r5, r8
 749 0008 DE46     		mov	lr, fp
 750 000a 8846     		mov	r8, r1
 751              	.LVL73:
 404:User/e-Paper/GUI_Paint.c ****     int dy = (int)Yend - (int)Ystart <= 0 ? Yend - Ystart : Ystart - Yend;
 752              		.loc 1 404 5 is_stmt 1 view .LVU222
ARM GAS  C:\Users\upo\AppData\Local\Temp\ccEC4369.s 			page 28


 392:User/e-Paper/GUI_Paint.c ****                     UWORD Color, DOT_PIXEL Line_width, LINE_STYLE Line_Style)
 753              		.loc 1 392 6 is_stmt 0 view .LVU223
 754 000c E0B5     		push	{r5, r6, r7, lr}
 755              	.LCFI5:
 756              		.cfi_def_cfa_offset 36
 757              		.cfi_offset 8, -36
 758              		.cfi_offset 9, -32
 759              		.cfi_offset 10, -28
 760              		.cfi_offset 11, -24
 761 000e 95B0     		sub	sp, sp, #84
 762              	.LCFI6:
 763              		.cfi_def_cfa_offset 120
 392:User/e-Paper/GUI_Paint.c ****                     UWORD Color, DOT_PIXEL Line_width, LINE_STYLE Line_Style)
 764              		.loc 1 392 6 view .LVU224
 765 0010 1D00     		movs	r5, r3
 766 0012 1093     		str	r3, [sp, #64]
 767 0014 1EAB     		add	r3, sp, #120
 768              	.LVL74:
 392:User/e-Paper/GUI_Paint.c ****                     UWORD Color, DOT_PIXEL Line_width, LINE_STYLE Line_Style)
 769              		.loc 1 392 6 view .LVU225
 770 0016 1C88     		ldrh	r4, [r3]
 771 0018 1FAB     		add	r3, sp, #124
 772              	.LVL75:
 392:User/e-Paper/GUI_Paint.c ****                     UWORD Color, DOT_PIXEL Line_width, LINE_STYLE Line_Style)
 773              		.loc 1 392 6 view .LVU226
 774 001a 0194     		str	r4, [sp, #4]
 775 001c 1C78     		ldrb	r4, [r3]
 776 001e 20AB     		add	r3, sp, #128
 777              	.LVL76:
 392:User/e-Paper/GUI_Paint.c ****                     UWORD Color, DOT_PIXEL Line_width, LINE_STYLE Line_Style)
 778              		.loc 1 392 6 view .LVU227
 779 0020 A146     		mov	r9, r4
 780 0022 1C78     		ldrb	r4, [r3]
 404:User/e-Paper/GUI_Paint.c ****     int dy = (int)Yend - (int)Ystart <= 0 ? Yend - Ystart : Ystart - Yend;
 781              		.loc 1 404 50 view .LVU228
 782 0024 131A     		subs	r3, r2, r0
 783              	.LVL77:
 392:User/e-Paper/GUI_Paint.c ****                     UWORD Color, DOT_PIXEL Line_width, LINE_STYLE Line_Style)
 784              		.loc 1 392 6 view .LVU229
 785 0026 1100     		movs	r1, r2
 786              	.LVL78:
 392:User/e-Paper/GUI_Paint.c ****                     UWORD Color, DOT_PIXEL Line_width, LINE_STYLE Line_Style)
 787              		.loc 1 392 6 view .LVU230
 788 0028 0F92     		str	r2, [sp, #60]
 404:User/e-Paper/GUI_Paint.c ****     int dy = (int)Yend - (int)Ystart <= 0 ? Yend - Ystart : Ystart - Yend;
 789              		.loc 1 404 9 view .LVU231
 790 002a DA17     		asrs	r2, r3, #31
 791              	.LVL79:
 392:User/e-Paper/GUI_Paint.c ****                     UWORD Color, DOT_PIXEL Line_width, LINE_STYLE Line_Style)
 792              		.loc 1 392 6 view .LVU232
 793 002c 0A94     		str	r4, [sp, #40]
 404:User/e-Paper/GUI_Paint.c ****     int dy = (int)Yend - (int)Ystart <= 0 ? Yend - Ystart : Ystart - Yend;
 794              		.loc 1 404 9 view .LVU233
 795 002e 9C18     		adds	r4, r3, r2
 405:User/e-Paper/GUI_Paint.c **** 
 796              		.loc 1 405 50 view .LVU234
 797 0030 4346     		mov	r3, r8
ARM GAS  C:\Users\upo\AppData\Local\Temp\ccEC4369.s 			page 29


 408:User/e-Paper/GUI_Paint.c ****     int YAddway = Ystart < Yend ? 1 : -1;
 798              		.loc 1 408 37 view .LVU235
 799 0032 8446     		mov	ip, r0
 405:User/e-Paper/GUI_Paint.c **** 
 800              		.loc 1 405 50 view .LVU236
 801 0034 EB1A     		subs	r3, r5, r3
 404:User/e-Paper/GUI_Paint.c ****     int dy = (int)Yend - (int)Ystart <= 0 ? Yend - Ystart : Ystart - Yend;
 802              		.loc 1 404 9 view .LVU237
 803 0036 5440     		eors	r4, r2
 405:User/e-Paper/GUI_Paint.c **** 
 804              		.loc 1 405 59 view .LVU238
 805 0038 DA17     		asrs	r2, r3, #31
 806 003a 9E18     		adds	r6, r3, r2
 807 003c 5640     		eors	r6, r2
 808 003e DA17     		asrs	r2, r3, #31
 809 0040 D31A     		subs	r3, r2, r3
 810 0042 5340     		eors	r3, r2
 408:User/e-Paper/GUI_Paint.c ****     int YAddway = Ystart < Yend ? 1 : -1;
 811              		.loc 1 408 37 view .LVU239
 812 0044 8C45     		cmp	ip, r1
 813 0046 9241     		sbcs	r2, r2, r2
 405:User/e-Paper/GUI_Paint.c **** 
 814              		.loc 1 405 59 view .LVU240
 815 0048 0993     		str	r3, [sp, #36]
 408:User/e-Paper/GUI_Paint.c ****     int YAddway = Ystart < Yend ? 1 : -1;
 816              		.loc 1 408 37 view .LVU241
 817 004a 7D4B     		ldr	r3, .L95
 392:User/e-Paper/GUI_Paint.c ****                     UWORD Color, DOT_PIXEL Line_width, LINE_STYLE Line_Style)
 818              		.loc 1 392 6 view .LVU242
 819 004c 0390     		str	r0, [sp, #12]
 408:User/e-Paper/GUI_Paint.c ****     int YAddway = Ystart < Yend ? 1 : -1;
 820              		.loc 1 408 37 view .LVU243
 821 004e 1A40     		ands	r2, r3
 822 0050 1300     		movs	r3, r2
 823 0052 7C4A     		ldr	r2, .L95+4
 404:User/e-Paper/GUI_Paint.c ****     int dy = (int)Yend - (int)Ystart <= 0 ? Yend - Ystart : Ystart - Yend;
 824              		.loc 1 404 9 view .LVU244
 825 0054 0B94     		str	r4, [sp, #44]
 826              	.LVL80:
 405:User/e-Paper/GUI_Paint.c **** 
 827              		.loc 1 405 5 is_stmt 1 view .LVU245
 408:User/e-Paper/GUI_Paint.c ****     int YAddway = Ystart < Yend ? 1 : -1;
 828              		.loc 1 408 5 view .LVU246
 408:User/e-Paper/GUI_Paint.c ****     int YAddway = Ystart < Yend ? 1 : -1;
 829              		.loc 1 408 37 is_stmt 0 view .LVU247
 830 0056 9446     		mov	ip, r2
 831 0058 6344     		add	r3, r3, ip
 409:User/e-Paper/GUI_Paint.c **** 
 832              		.loc 1 409 37 view .LVU248
 833 005a 0222     		movs	r2, #2
 408:User/e-Paper/GUI_Paint.c ****     int YAddway = Ystart < Yend ? 1 : -1;
 834              		.loc 1 408 37 view .LVU249
 835 005c 0E93     		str	r3, [sp, #56]
 409:User/e-Paper/GUI_Paint.c **** 
 836              		.loc 1 409 5 is_stmt 1 view .LVU250
 409:User/e-Paper/GUI_Paint.c **** 
 837              		.loc 1 409 37 is_stmt 0 view .LVU251
ARM GAS  C:\Users\upo\AppData\Local\Temp\ccEC4369.s 			page 30


 838 005e A845     		cmp	r8, r5
 839 0060 9B41     		sbcs	r3, r3, r3
 840 0062 1A40     		ands	r2, r3
 841 0064 531E     		subs	r3, r2, #1
 842 0066 1193     		str	r3, [sp, #68]
 843              	.LVL81:
 412:User/e-Paper/GUI_Paint.c ****     char Dotted_Len = 0;
 844              		.loc 1 412 5 is_stmt 1 view .LVU252
 845              	.LBB90:
 846              	.LBB91:
 847              	.LBB92:
 848              	.LBB93:
 358:User/e-Paper/GUI_Paint.c ****         {
 849              		.loc 1 358 41 is_stmt 0 view .LVU253
 850 0068 4B46     		mov	r3, r9
 851              	.LVL82:
 358:User/e-Paper/GUI_Paint.c ****         {
 852              		.loc 1 358 41 view .LVU254
 853 006a 5B00     		lsls	r3, r3, #1
 358:User/e-Paper/GUI_Paint.c ****         {
 854              		.loc 1 358 53 view .LVU255
 855 006c 013B     		subs	r3, r3, #1
 856 006e 9A46     		mov	r10, r3
 857              	.LBE93:
 858              	.LBE92:
 859              	.LBE91:
 860              	.LBE90:
 413:User/e-Paper/GUI_Paint.c **** 
 861              		.loc 1 413 10 view .LVU256
 862 0070 0023     		movs	r3, #0
 863 0072 0293     		str	r3, [sp, #8]
 864 0074 744B     		ldr	r3, .L95+8
 412:User/e-Paper/GUI_Paint.c ****     char Dotted_Len = 0;
 865              		.loc 1 412 9 view .LVU257
 866 0076 A21B     		subs	r2, r4, r6
 867 0078 9B46     		mov	fp, r3
 868 007a 5300     		lsls	r3, r2, #1
 869 007c 0793     		str	r3, [sp, #28]
 870              	.LBB103:
 871              	.LBB98:
 350:User/e-Paper/GUI_Paint.c ****         printf("Ypoint = %d , Paint.Height = %d  \r\n ", Ypoint, Paint.Height);
 872              		.loc 1 350 9 view .LVU258
 873 007e 734B     		ldr	r3, .L95+12
 351:User/e-Paper/GUI_Paint.c ****         return;
 874              		.loc 1 351 9 view .LVU259
 875 0080 5F46     		mov	r7, fp
 350:User/e-Paper/GUI_Paint.c ****         printf("Ypoint = %d , Paint.Height = %d  \r\n ", Ypoint, Paint.Height);
 876              		.loc 1 350 9 view .LVU260
 877 0082 1293     		str	r3, [sp, #72]
 351:User/e-Paper/GUI_Paint.c ****         return;
 878              		.loc 1 351 9 view .LVU261
 879 0084 724B     		ldr	r3, .L95+16
 880              	.LBE98:
 881              	.LBE103:
 405:User/e-Paper/GUI_Paint.c **** 
 882              		.loc 1 405 59 view .LVU262
 883 0086 0D96     		str	r6, [sp, #52]
ARM GAS  C:\Users\upo\AppData\Local\Temp\ccEC4369.s 			page 31


 884              	.LBB104:
 885              	.LBB99:
 351:User/e-Paper/GUI_Paint.c ****         return;
 886              		.loc 1 351 9 view .LVU263
 887 0088 1393     		str	r3, [sp, #76]
 888 008a 4346     		mov	r3, r8
 889              	.LBE99:
 890              	.LBE104:
 412:User/e-Paper/GUI_Paint.c ****     char Dotted_Len = 0;
 891              		.loc 1 412 9 view .LVU264
 892 008c 0892     		str	r2, [sp, #32]
 893              	.LVL83:
 413:User/e-Paper/GUI_Paint.c **** 
 894              		.loc 1 413 5 is_stmt 1 view .LVU265
 895              	.LBB105:
 896              	.LBB100:
 351:User/e-Paper/GUI_Paint.c ****         return;
 897              		.loc 1 351 9 is_stmt 0 view .LVU266
 898 008e 0693     		str	r3, [sp, #24]
 899              	.LVL84:
 900              	.L64:
 351:User/e-Paper/GUI_Paint.c ****         return;
 901              		.loc 1 351 9 view .LVU267
 902              	.LBE100:
 903              	.LBE105:
 415:User/e-Paper/GUI_Paint.c ****     {
 904              		.loc 1 415 5 is_stmt 1 view .LVU268
 417:User/e-Paper/GUI_Paint.c ****         // Painted dotted line, 2 point is really virtual
 905              		.loc 1 417 9 view .LVU269
 417:User/e-Paper/GUI_Paint.c ****         // Painted dotted line, 2 point is really virtual
 906              		.loc 1 417 19 is_stmt 0 view .LVU270
 907 0090 029B     		ldr	r3, [sp, #8]
 908              	.LBB106:
 909              	.LBB107:
 347:User/e-Paper/GUI_Paint.c ****     {
 910              		.loc 1 347 23 view .LVU271
 911 0092 BC88     		ldrh	r4, [r7, #4]
 912              	.LBE107:
 913              	.LBE106:
 417:User/e-Paper/GUI_Paint.c ****         // Painted dotted line, 2 point is really virtual
 914              		.loc 1 417 19 view .LVU272
 915 0094 0133     		adds	r3, r3, #1
 916 0096 DEB2     		uxtb	r6, r3
 917              	.LVL85:
 419:User/e-Paper/GUI_Paint.c ****         {
 918              		.loc 1 419 9 is_stmt 1 view .LVU273
 419:User/e-Paper/GUI_Paint.c ****         {
 919              		.loc 1 419 12 is_stmt 0 view .LVU274
 920 0098 0A9B     		ldr	r3, [sp, #40]
 921 009a 012B     		cmp	r3, #1
 922 009c 07D1     		bne	.L65
 419:User/e-Paper/GUI_Paint.c ****         {
 923              		.loc 1 419 63 view .LVU275
 924 009e 0321     		movs	r1, #3
 925 00a0 3000     		movs	r0, r6
 926 00a2 FFF7FEFF 		bl	__aeabi_uidivmod
 927              	.LVL86:
ARM GAS  C:\Users\upo\AppData\Local\Temp\ccEC4369.s 			page 32


 928 00a6 CBB2     		uxtb	r3, r1
 929 00a8 0293     		str	r3, [sp, #8]
 419:User/e-Paper/GUI_Paint.c ****         {
 930              		.loc 1 419 45 view .LVU276
 931 00aa 002B     		cmp	r3, #0
 932 00ac 74D0     		beq	.L94
 933              	.L65:
 427:User/e-Paper/GUI_Paint.c ****         }
 934              		.loc 1 427 13 is_stmt 1 view .LVU277
 935              	.LVL87:
 936              	.LBB113:
 937              	.LBI90:
 344:User/e-Paper/GUI_Paint.c ****                      DOT_PIXEL Dot_Pixel, DOT_STYLE Dot_Style)
 938              		.loc 1 344 6 view .LVU278
 939              	.LBB101:
 347:User/e-Paper/GUI_Paint.c ****     {
 940              		.loc 1 347 5 view .LVU279
 347:User/e-Paper/GUI_Paint.c ****     {
 941              		.loc 1 347 8 is_stmt 0 view .LVU280
 942 00ae 039A     		ldr	r2, [sp, #12]
 943 00b0 A242     		cmp	r2, r4
 944 00b2 66D8     		bhi	.L75
 347:User/e-Paper/GUI_Paint.c ****     {
 945              		.loc 1 347 30 view .LVU281
 946 00b4 FB88     		ldrh	r3, [r7, #6]
 947 00b6 0699     		ldr	r1, [sp, #24]
 948 00b8 8B42     		cmp	r3, r1
 949 00ba 62D3     		bcc	.L75
 950              	.LVL88:
 951              	.LBB97:
 952              	.LBB96:
 358:User/e-Paper/GUI_Paint.c ****         {
 953              		.loc 1 358 37 is_stmt 1 view .LVU282
 954 00bc 5346     		mov	r3, r10
 955 00be 002B     		cmp	r3, #0
 956 00c0 37DD     		ble	.L79
 362:User/e-Paper/GUI_Paint.c ****                     break;
 957              		.loc 1 362 76 is_stmt 0 view .LVU283
 958 00c2 4B46     		mov	r3, r9
 959 00c4 C81A     		subs	r0, r1, r3
 960 00c6 D51A     		subs	r5, r2, r3
 961 00c8 82B2     		uxth	r2, r0
 962 00ca 0592     		str	r2, [sp, #20]
 963 00cc 4A46     		mov	r2, r9
 964 00ce 521A     		subs	r2, r2, r1
 358:User/e-Paper/GUI_Paint.c ****         {
 965              		.loc 1 358 23 view .LVU284
 966 00d0 0023     		movs	r3, #0
 360:User/e-Paper/GUI_Paint.c ****             {
 967              		.loc 1 360 70 view .LVU285
 968 00d2 0132     		adds	r2, r2, #1
 969 00d4 9346     		mov	fp, r2
 970 00d6 8846     		mov	r8, r1
 362:User/e-Paper/GUI_Paint.c ****                     break;
 971              		.loc 1 362 76 view .LVU286
 972 00d8 0490     		str	r0, [sp, #16]
 973 00da ADB2     		uxth	r5, r5
ARM GAS  C:\Users\upo\AppData\Local\Temp\ccEC4369.s 			page 33


 974 00dc 0C96     		str	r6, [sp, #48]
 975 00de 0293     		str	r3, [sp, #8]
 976              	.LVL89:
 977              	.L77:
 360:User/e-Paper/GUI_Paint.c ****             {
 978              		.loc 1 360 41 is_stmt 1 view .LVU287
 362:User/e-Paper/GUI_Paint.c ****                     break;
 979              		.loc 1 362 17 view .LVU288
 362:User/e-Paper/GUI_Paint.c ****                     break;
 980              		.loc 1 362 28 is_stmt 0 view .LVU289
 981 00e0 039A     		ldr	r2, [sp, #12]
 982 00e2 9446     		mov	ip, r2
 983 00e4 6344     		add	r3, r3, ip
 362:User/e-Paper/GUI_Paint.c ****                     break;
 984              		.loc 1 362 20 view .LVU290
 985 00e6 4B45     		cmp	r3, r9
 986 00e8 1ADB     		blt	.L80
 362:User/e-Paper/GUI_Paint.c ****                     break;
 987              		.loc 1 362 55 view .LVU291
 988 00ea 049B     		ldr	r3, [sp, #16]
 989 00ec 002B     		cmp	r3, #0
 990 00ee 17DB     		blt	.L80
 991 00f0 059C     		ldr	r4, [sp, #20]
 992              	.LVL90:
 993              	.L83:
 365:User/e-Paper/GUI_Paint.c ****             }
 994              		.loc 1 365 17 is_stmt 1 view .LVU292
 995              	.LBB94:
 996              	.LBI94:
 200:User/e-Paper/GUI_Paint.c **** {
 997              		.loc 1 200 6 view .LVU293
 998              	.LBB95:
 202:User/e-Paper/GUI_Paint.c ****     {
 999              		.loc 1 202 5 view .LVU294
 202:User/e-Paper/GUI_Paint.c ****     {
 1000              		.loc 1 202 23 is_stmt 0 view .LVU295
 1001 00f2 BE88     		ldrh	r6, [r7, #4]
 202:User/e-Paper/GUI_Paint.c ****     {
 1002              		.loc 1 202 8 view .LVU296
 1003 00f4 B542     		cmp	r5, r6
 1004 00f6 07D8     		bhi	.L81
 202:User/e-Paper/GUI_Paint.c ****     {
 1005              		.loc 1 202 30 view .LVU297
 1006 00f8 FB88     		ldrh	r3, [r7, #6]
 1007 00fa A342     		cmp	r3, r4
 1008 00fc 04D3     		bcc	.L81
 1009 00fe 2100     		movs	r1, r4
 1010 0100 2800     		movs	r0, r5
 1011 0102 019A     		ldr	r2, [sp, #4]
 1012 0104 FFF7FEFF 		bl	Paint_SetPixel.part.0
 1013              	.LVL91:
 1014              	.L81:
 202:User/e-Paper/GUI_Paint.c ****     {
 1015              		.loc 1 202 30 view .LVU298
 1016              	.LBE95:
 1017              	.LBE94:
 360:User/e-Paper/GUI_Paint.c ****             {
ARM GAS  C:\Users\upo\AppData\Local\Temp\ccEC4369.s 			page 34


 1018              		.loc 1 360 70 is_stmt 1 view .LVU299
 360:User/e-Paper/GUI_Paint.c ****             {
 1019              		.loc 1 360 41 view .LVU300
 360:User/e-Paper/GUI_Paint.c ****             {
 1020              		.loc 1 360 70 is_stmt 0 view .LVU301
 1021 0108 5B46     		mov	r3, fp
 1022 010a E318     		adds	r3, r4, r3
 360:User/e-Paper/GUI_Paint.c ****             {
 1023              		.loc 1 360 41 view .LVU302
 1024 010c 1BB2     		sxth	r3, r3
 1025 010e 9A45     		cmp	r10, r3
 1026 0110 06DD     		ble	.L80
 362:User/e-Paper/GUI_Paint.c ****                     break;
 1027              		.loc 1 362 17 is_stmt 1 view .LVU303
 362:User/e-Paper/GUI_Paint.c ****                     break;
 1028              		.loc 1 362 65 is_stmt 0 view .LVU304
 1029 0112 4344     		add	r3, r3, r8
 362:User/e-Paper/GUI_Paint.c ****                     break;
 1030              		.loc 1 362 55 view .LVU305
 1031 0114 4B45     		cmp	r3, r9
 1032 0116 03DB     		blt	.L80
 1033 0118 0134     		adds	r4, r4, #1
 1034              	.LVL92:
 362:User/e-Paper/GUI_Paint.c ****                     break;
 1035              		.loc 1 362 55 view .LVU306
 1036 011a A4B2     		uxth	r4, r4
 1037 011c B542     		cmp	r5, r6
 1038 011e E8D9     		bls	.L83
 1039              	.LVL93:
 1040              	.L80:
 358:User/e-Paper/GUI_Paint.c ****         {
 1041              		.loc 1 358 66 is_stmt 1 view .LVU307
 1042 0120 029E     		ldr	r6, [sp, #8]
 358:User/e-Paper/GUI_Paint.c ****         {
 1043              		.loc 1 358 37 is_stmt 0 view .LVU308
 1044 0122 0135     		adds	r5, r5, #1
 1045 0124 0136     		adds	r6, r6, #1
 358:User/e-Paper/GUI_Paint.c ****         {
 1046              		.loc 1 358 66 view .LVU309
 1047 0126 33B2     		sxth	r3, r6
 1048 0128 0293     		str	r3, [sp, #8]
 1049              	.LVL94:
 358:User/e-Paper/GUI_Paint.c ****         {
 1050              		.loc 1 358 37 is_stmt 1 view .LVU310
 1051 012a ADB2     		uxth	r5, r5
 1052 012c 9A45     		cmp	r10, r3
 1053 012e D7DC     		bgt	.L77
 1054 0130 0C9E     		ldr	r6, [sp, #48]
 1055              	.LVL95:
 1056              	.L79:
 358:User/e-Paper/GUI_Paint.c ****         {
 1057              		.loc 1 358 37 is_stmt 0 view .LVU311
 1058              	.LBE96:
 1059              	.LBE97:
 1060              	.LBE101:
 1061              	.LBE113:
 417:User/e-Paper/GUI_Paint.c ****         // Painted dotted line, 2 point is really virtual
ARM GAS  C:\Users\upo\AppData\Local\Temp\ccEC4369.s 			page 35


 1062              		.loc 1 417 19 view .LVU312
 1063 0132 0296     		str	r6, [sp, #8]
 1064              	.LVL96:
 1065              	.L69:
 429:User/e-Paper/GUI_Paint.c ****         {
 1066              		.loc 1 429 9 is_stmt 1 view .LVU313
 429:User/e-Paper/GUI_Paint.c ****         {
 1067              		.loc 1 429 12 is_stmt 0 view .LVU314
 1068 0134 099B     		ldr	r3, [sp, #36]
 1069 0136 079A     		ldr	r2, [sp, #28]
 1070 0138 9342     		cmp	r3, r2
 1071 013a 11DC     		bgt	.L85
 431:User/e-Paper/GUI_Paint.c ****                 break;
 1072              		.loc 1 431 13 is_stmt 1 view .LVU315
 431:User/e-Paper/GUI_Paint.c ****                 break;
 1073              		.loc 1 431 16 is_stmt 0 view .LVU316
 1074 013c 0F9A     		ldr	r2, [sp, #60]
 1075 013e 039B     		ldr	r3, [sp, #12]
 1076 0140 9A42     		cmp	r2, r3
 1077 0142 75D0     		beq	.L61
 433:User/e-Paper/GUI_Paint.c ****             Xpoint += XAddway;
 1078              		.loc 1 433 13 is_stmt 1 view .LVU317
 1079 0144 089A     		ldr	r2, [sp, #32]
 1080 0146 0D99     		ldr	r1, [sp, #52]
 1081 0148 521A     		subs	r2, r2, r1
 434:User/e-Paper/GUI_Paint.c ****         }
 1082              		.loc 1 434 20 is_stmt 0 view .LVU318
 1083 014a 0E99     		ldr	r1, [sp, #56]
 1084 014c 0892     		str	r2, [sp, #32]
 1085              	.LVL97:
 434:User/e-Paper/GUI_Paint.c ****         }
 1086              		.loc 1 434 13 is_stmt 1 view .LVU319
 434:User/e-Paper/GUI_Paint.c ****         }
 1087              		.loc 1 434 20 is_stmt 0 view .LVU320
 1088 014e 8C46     		mov	ip, r1
 1089 0150 6344     		add	r3, r3, ip
 1090 0152 9BB2     		uxth	r3, r3
 1091 0154 0393     		str	r3, [sp, #12]
 1092              	.LVL98:
 436:User/e-Paper/GUI_Paint.c ****         {
 1093              		.loc 1 436 9 is_stmt 1 view .LVU321
 436:User/e-Paper/GUI_Paint.c ****         {
 1094              		.loc 1 436 15 is_stmt 0 view .LVU322
 1095 0156 5300     		lsls	r3, r2, #1
 436:User/e-Paper/GUI_Paint.c ****         {
 1096              		.loc 1 436 12 view .LVU323
 1097 0158 0B9A     		ldr	r2, [sp, #44]
 1098              	.LVL99:
 436:User/e-Paper/GUI_Paint.c ****         {
 1099              		.loc 1 436 15 view .LVU324
 1100 015a 0793     		str	r3, [sp, #28]
 436:User/e-Paper/GUI_Paint.c ****         {
 1101              		.loc 1 436 12 view .LVU325
 1102 015c 9A42     		cmp	r2, r3
 1103 015e 97DB     		blt	.L64
 1104              	.L85:
 1105              	.LVL100:
ARM GAS  C:\Users\upo\AppData\Local\Temp\ccEC4369.s 			page 36


 438:User/e-Paper/GUI_Paint.c ****                 break;
 1106              		.loc 1 438 13 is_stmt 1 view .LVU326
 438:User/e-Paper/GUI_Paint.c ****                 break;
 1107              		.loc 1 438 16 is_stmt 0 view .LVU327
 1108 0160 109A     		ldr	r2, [sp, #64]
 1109 0162 069B     		ldr	r3, [sp, #24]
 1110 0164 9A42     		cmp	r2, r3
 1111 0166 63D0     		beq	.L61
 440:User/e-Paper/GUI_Paint.c ****             Ypoint += YAddway;
 1112              		.loc 1 440 13 is_stmt 1 view .LVU328
 440:User/e-Paper/GUI_Paint.c ****             Ypoint += YAddway;
 1113              		.loc 1 440 17 is_stmt 0 view .LVU329
 1114 0168 0B99     		ldr	r1, [sp, #44]
 1115 016a 089A     		ldr	r2, [sp, #32]
 1116 016c 8C46     		mov	ip, r1
 441:User/e-Paper/GUI_Paint.c ****         }
 1117              		.loc 1 441 20 view .LVU330
 1118 016e 1199     		ldr	r1, [sp, #68]
 440:User/e-Paper/GUI_Paint.c ****             Ypoint += YAddway;
 1119              		.loc 1 440 17 view .LVU331
 1120 0170 6244     		add	r2, r2, ip
 441:User/e-Paper/GUI_Paint.c ****         }
 1121              		.loc 1 441 20 view .LVU332
 1122 0172 8C46     		mov	ip, r1
 1123 0174 6344     		add	r3, r3, ip
 1124 0176 9BB2     		uxth	r3, r3
 1125 0178 0693     		str	r3, [sp, #24]
 1126              	.LVL101:
 441:User/e-Paper/GUI_Paint.c ****         }
 1127              		.loc 1 441 20 view .LVU333
 1128 017a 5300     		lsls	r3, r2, #1
 440:User/e-Paper/GUI_Paint.c ****             Ypoint += YAddway;
 1129              		.loc 1 440 17 view .LVU334
 1130 017c 0892     		str	r2, [sp, #32]
 1131              	.LVL102:
 441:User/e-Paper/GUI_Paint.c ****         }
 1132              		.loc 1 441 13 is_stmt 1 view .LVU335
 441:User/e-Paper/GUI_Paint.c ****         }
 1133              		.loc 1 441 13 is_stmt 0 view .LVU336
 1134 017e 0793     		str	r3, [sp, #28]
 1135 0180 86E7     		b	.L64
 1136              	.LVL103:
 1137              	.L75:
 1138              	.LBB114:
 1139              	.LBB102:
 349:User/e-Paper/GUI_Paint.c ****         printf("Xpoint = %d , Paint.Width = %d  \r\n ", Xpoint, Paint.Width);
 1140              		.loc 1 349 77 is_stmt 1 view .LVU337
 350:User/e-Paper/GUI_Paint.c ****         printf("Ypoint = %d , Paint.Height = %d  \r\n ", Ypoint, Paint.Height);
 1141              		.loc 1 350 9 view .LVU338
 1142 0182 2200     		movs	r2, r4
 1143 0184 0399     		ldr	r1, [sp, #12]
 1144 0186 1298     		ldr	r0, [sp, #72]
 1145 0188 FFF7FEFF 		bl	printf_
 1146              	.LVL104:
 351:User/e-Paper/GUI_Paint.c ****         return;
 1147              		.loc 1 351 9 view .LVU339
 1148 018c FA88     		ldrh	r2, [r7, #6]
ARM GAS  C:\Users\upo\AppData\Local\Temp\ccEC4369.s 			page 37


 1149 018e 0699     		ldr	r1, [sp, #24]
 1150 0190 1398     		ldr	r0, [sp, #76]
 1151 0192 FFF7FEFF 		bl	printf_
 1152              	.LVL105:
 352:User/e-Paper/GUI_Paint.c ****     }
 1153              		.loc 1 352 9 view .LVU340
 1154 0196 CCE7     		b	.L79
 1155              	.LVL106:
 1156              	.L94:
 352:User/e-Paper/GUI_Paint.c ****     }
 1157              		.loc 1 352 9 is_stmt 0 view .LVU341
 1158              	.LBE102:
 1159              	.LBE114:
 422:User/e-Paper/GUI_Paint.c ****             Dotted_Len = 0;
 1160              		.loc 1 422 13 is_stmt 1 view .LVU342
 1161              	.LBB115:
 1162              	.LBI106:
 344:User/e-Paper/GUI_Paint.c ****                      DOT_PIXEL Dot_Pixel, DOT_STYLE Dot_Style)
 1163              		.loc 1 344 6 view .LVU343
 1164              	.LBB112:
 347:User/e-Paper/GUI_Paint.c ****     {
 1165              		.loc 1 347 5 view .LVU344
 347:User/e-Paper/GUI_Paint.c ****     {
 1166              		.loc 1 347 8 is_stmt 0 view .LVU345
 1167 0198 039A     		ldr	r2, [sp, #12]
 1168 019a A242     		cmp	r2, r4
 1169 019c 3DD8     		bhi	.L66
 347:User/e-Paper/GUI_Paint.c ****     {
 1170              		.loc 1 347 30 view .LVU346
 1171 019e FB88     		ldrh	r3, [r7, #6]
 1172 01a0 0699     		ldr	r1, [sp, #24]
 1173 01a2 8B42     		cmp	r3, r1
 1174 01a4 39D3     		bcc	.L66
 1175              	.LVL107:
 1176              	.LBB108:
 1177              	.LBB109:
 358:User/e-Paper/GUI_Paint.c ****         {
 1178              		.loc 1 358 37 is_stmt 1 view .LVU347
 1179 01a6 5346     		mov	r3, r10
 1180 01a8 002B     		cmp	r3, #0
 1181 01aa C3DD     		ble	.L69
 362:User/e-Paper/GUI_Paint.c ****                     break;
 1182              		.loc 1 362 76 is_stmt 0 view .LVU348
 1183 01ac 4B46     		mov	r3, r9
 1184 01ae C81A     		subs	r0, r1, r3
 1185 01b0 D51A     		subs	r5, r2, r3
 1186 01b2 82B2     		uxth	r2, r0
 1187 01b4 0C92     		str	r2, [sp, #48]
 1188 01b6 4A46     		mov	r2, r9
 1189 01b8 521A     		subs	r2, r2, r1
 358:User/e-Paper/GUI_Paint.c ****         {
 1190              		.loc 1 358 23 view .LVU349
 1191 01ba 0023     		movs	r3, #0
 360:User/e-Paper/GUI_Paint.c ****             {
 1192              		.loc 1 360 70 view .LVU350
 1193 01bc 0132     		adds	r2, r2, #1
 1194 01be 9046     		mov	r8, r2
ARM GAS  C:\Users\upo\AppData\Local\Temp\ccEC4369.s 			page 38


 1195 01c0 8B46     		mov	fp, r1
 362:User/e-Paper/GUI_Paint.c ****                     break;
 1196              		.loc 1 362 76 view .LVU351
 1197 01c2 0490     		str	r0, [sp, #16]
 1198 01c4 ADB2     		uxth	r5, r5
 1199 01c6 0593     		str	r3, [sp, #20]
 1200              	.LVL108:
 1201              	.L68:
 360:User/e-Paper/GUI_Paint.c ****             {
 1202              		.loc 1 360 41 is_stmt 1 view .LVU352
 362:User/e-Paper/GUI_Paint.c ****                     break;
 1203              		.loc 1 362 17 view .LVU353
 362:User/e-Paper/GUI_Paint.c ****                     break;
 1204              		.loc 1 362 28 is_stmt 0 view .LVU354
 1205 01c8 039A     		ldr	r2, [sp, #12]
 1206 01ca 9446     		mov	ip, r2
 1207 01cc 6344     		add	r3, r3, ip
 362:User/e-Paper/GUI_Paint.c ****                     break;
 1208              		.loc 1 362 20 view .LVU355
 1209 01ce 4B45     		cmp	r3, r9
 1210 01d0 1ADB     		blt	.L71
 362:User/e-Paper/GUI_Paint.c ****                     break;
 1211              		.loc 1 362 55 view .LVU356
 1212 01d2 049B     		ldr	r3, [sp, #16]
 1213 01d4 002B     		cmp	r3, #0
 1214 01d6 17DB     		blt	.L71
 1215 01d8 0C9C     		ldr	r4, [sp, #48]
 1216              	.LVL109:
 1217              	.L74:
 365:User/e-Paper/GUI_Paint.c ****             }
 1218              		.loc 1 365 17 is_stmt 1 view .LVU357
 1219              	.LBB110:
 1220              	.LBI110:
 200:User/e-Paper/GUI_Paint.c **** {
 1221              		.loc 1 200 6 view .LVU358
 1222              	.LBB111:
 202:User/e-Paper/GUI_Paint.c ****     {
 1223              		.loc 1 202 5 view .LVU359
 202:User/e-Paper/GUI_Paint.c ****     {
 1224              		.loc 1 202 23 is_stmt 0 view .LVU360
 1225 01da BE88     		ldrh	r6, [r7, #4]
 202:User/e-Paper/GUI_Paint.c ****     {
 1226              		.loc 1 202 8 view .LVU361
 1227 01dc AE42     		cmp	r6, r5
 1228 01de 07D3     		bcc	.L72
 202:User/e-Paper/GUI_Paint.c ****     {
 1229              		.loc 1 202 30 view .LVU362
 1230 01e0 FB88     		ldrh	r3, [r7, #6]
 1231 01e2 A342     		cmp	r3, r4
 1232 01e4 04D3     		bcc	.L72
 1233 01e6 FF22     		movs	r2, #255
 1234 01e8 2100     		movs	r1, r4
 1235 01ea 2800     		movs	r0, r5
 1236 01ec FFF7FEFF 		bl	Paint_SetPixel.part.0
 1237              	.LVL110:
 1238              	.L72:
 202:User/e-Paper/GUI_Paint.c ****     {
ARM GAS  C:\Users\upo\AppData\Local\Temp\ccEC4369.s 			page 39


 1239              		.loc 1 202 30 view .LVU363
 1240              	.LBE111:
 1241              	.LBE110:
 360:User/e-Paper/GUI_Paint.c ****             {
 1242              		.loc 1 360 70 is_stmt 1 view .LVU364
 360:User/e-Paper/GUI_Paint.c ****             {
 1243              		.loc 1 360 41 view .LVU365
 360:User/e-Paper/GUI_Paint.c ****             {
 1244              		.loc 1 360 70 is_stmt 0 view .LVU366
 1245 01f0 4346     		mov	r3, r8
 1246 01f2 E318     		adds	r3, r4, r3
 360:User/e-Paper/GUI_Paint.c ****             {
 1247              		.loc 1 360 41 view .LVU367
 1248 01f4 1BB2     		sxth	r3, r3
 1249 01f6 5345     		cmp	r3, r10
 1250 01f8 06DA     		bge	.L71
 362:User/e-Paper/GUI_Paint.c ****                     break;
 1251              		.loc 1 362 17 is_stmt 1 view .LVU368
 362:User/e-Paper/GUI_Paint.c ****                     break;
 1252              		.loc 1 362 65 is_stmt 0 view .LVU369
 1253 01fa 5B44     		add	r3, r3, fp
 362:User/e-Paper/GUI_Paint.c ****                     break;
 1254              		.loc 1 362 55 view .LVU370
 1255 01fc 4B45     		cmp	r3, r9
 1256 01fe 03DB     		blt	.L71
 1257 0200 0134     		adds	r4, r4, #1
 1258              	.LVL111:
 362:User/e-Paper/GUI_Paint.c ****                     break;
 1259              		.loc 1 362 55 view .LVU371
 1260 0202 A4B2     		uxth	r4, r4
 1261 0204 AE42     		cmp	r6, r5
 1262 0206 E8D2     		bcs	.L74
 1263              	.LVL112:
 1264              	.L71:
 358:User/e-Paper/GUI_Paint.c ****         {
 1265              		.loc 1 358 66 is_stmt 1 view .LVU372
 1266 0208 059E     		ldr	r6, [sp, #20]
 358:User/e-Paper/GUI_Paint.c ****         {
 1267              		.loc 1 358 37 is_stmt 0 view .LVU373
 1268 020a 0135     		adds	r5, r5, #1
 1269 020c 0136     		adds	r6, r6, #1
 358:User/e-Paper/GUI_Paint.c ****         {
 1270              		.loc 1 358 66 view .LVU374
 1271 020e 33B2     		sxth	r3, r6
 1272 0210 0593     		str	r3, [sp, #20]
 1273              	.LVL113:
 358:User/e-Paper/GUI_Paint.c ****         {
 1274              		.loc 1 358 37 is_stmt 1 view .LVU375
 1275 0212 ADB2     		uxth	r5, r5
 1276 0214 5345     		cmp	r3, r10
 1277 0216 D7DB     		blt	.L68
 1278 0218 8CE7     		b	.L69
 1279              	.LVL114:
 1280              	.L66:
 358:User/e-Paper/GUI_Paint.c ****         {
 1281              		.loc 1 358 37 is_stmt 0 view .LVU376
 1282              	.LBE109:
ARM GAS  C:\Users\upo\AppData\Local\Temp\ccEC4369.s 			page 40


 1283              	.LBE108:
 349:User/e-Paper/GUI_Paint.c ****         printf("Xpoint = %d , Paint.Width = %d  \r\n ", Xpoint, Paint.Width);
 1284              		.loc 1 349 77 is_stmt 1 view .LVU377
 350:User/e-Paper/GUI_Paint.c ****         printf("Ypoint = %d , Paint.Height = %d  \r\n ", Ypoint, Paint.Height);
 1285              		.loc 1 350 9 view .LVU378
 1286 021a 2200     		movs	r2, r4
 1287 021c 0399     		ldr	r1, [sp, #12]
 1288 021e 1298     		ldr	r0, [sp, #72]
 1289 0220 FFF7FEFF 		bl	printf_
 1290              	.LVL115:
 351:User/e-Paper/GUI_Paint.c ****         return;
 1291              		.loc 1 351 9 view .LVU379
 1292 0224 FA88     		ldrh	r2, [r7, #6]
 1293 0226 0699     		ldr	r1, [sp, #24]
 1294 0228 0948     		ldr	r0, .L95+16
 1295 022a FFF7FEFF 		bl	printf_
 1296              	.LVL116:
 352:User/e-Paper/GUI_Paint.c ****     }
 1297              		.loc 1 352 9 view .LVU380
 1298 022e 81E7     		b	.L69
 1299              	.LVL117:
 1300              	.L61:
 352:User/e-Paper/GUI_Paint.c ****     }
 1301              		.loc 1 352 9 is_stmt 0 view .LVU381
 1302              	.LBE112:
 1303              	.LBE115:
 444:User/e-Paper/GUI_Paint.c **** 
 1304              		.loc 1 444 1 view .LVU382
 1305 0230 15B0     		add	sp, sp, #84
 1306              		@ sp needed
 1307 0232 F0BC     		pop	{r4, r5, r6, r7}
 1308 0234 BB46     		mov	fp, r7
 1309 0236 B246     		mov	r10, r6
 1310 0238 A946     		mov	r9, r5
 1311 023a A046     		mov	r8, r4
 1312 023c F0BD     		pop	{r4, r5, r6, r7, pc}
 1313              	.L96:
 1314 023e C046     		.align	2
 1315              	.L95:
 1316 0240 0200FFFF 		.word	-65534
 1317 0244 FFFF0000 		.word	65535
 1318 0248 00000000 		.word	Paint
 1319 024c 00000000 		.word	.LC3
 1320 0250 24000000 		.word	.LC5
 1321              		.cfi_endproc
 1322              	.LFE1446:
 1324              		.section	.text.Paint_DrawPoint.constprop.0,"ax",%progbits
 1325              		.align	1
 1326              		.p2align 2,,3
 1327              		.syntax unified
 1328              		.code	16
 1329              		.thumb_func
 1331              	Paint_DrawPoint.constprop.0:
 1332              	.LVL118:
 1333              	.LFB1453:
 344:User/e-Paper/GUI_Paint.c ****                      DOT_PIXEL Dot_Pixel, DOT_STYLE Dot_Style)
 1334              		.loc 1 344 6 is_stmt 1 view -0
ARM GAS  C:\Users\upo\AppData\Local\Temp\ccEC4369.s 			page 41


 1335              		.cfi_startproc
 1336              		@ args = 0, pretend = 0, frame = 0
 1337              		@ frame_needed = 0, uses_anonymous_args = 0
 347:User/e-Paper/GUI_Paint.c ****     {
 1338              		.loc 1 347 5 view .LVU384
 344:User/e-Paper/GUI_Paint.c ****                      DOT_PIXEL Dot_Pixel, DOT_STYLE Dot_Style)
 1339              		.loc 1 344 6 is_stmt 0 view .LVU385
 1340 0000 70B5     		push	{r4, r5, r6, lr}
 1341              	.LCFI7:
 1342              		.cfi_def_cfa_offset 16
 1343              		.cfi_offset 4, -16
 1344              		.cfi_offset 5, -12
 1345              		.cfi_offset 6, -8
 1346              		.cfi_offset 14, -4
 347:User/e-Paper/GUI_Paint.c ****     {
 1347              		.loc 1 347 23 view .LVU386
 1348 0002 4D4D     		ldr	r5, .L127
 344:User/e-Paper/GUI_Paint.c ****                      DOT_PIXEL Dot_Pixel, DOT_STYLE Dot_Style)
 1349              		.loc 1 344 6 view .LVU387
 1350 0004 1300     		movs	r3, r2
 347:User/e-Paper/GUI_Paint.c ****     {
 1351              		.loc 1 347 23 view .LVU388
 1352 0006 AA88     		ldrh	r2, [r5, #4]
 1353              	.LVL119:
 344:User/e-Paper/GUI_Paint.c ****                      DOT_PIXEL Dot_Pixel, DOT_STYLE Dot_Style)
 1354              		.loc 1 344 6 view .LVU389
 1355 0008 0C00     		movs	r4, r1
 347:User/e-Paper/GUI_Paint.c ****     {
 1356              		.loc 1 347 8 view .LVU390
 1357 000a 8242     		cmp	r2, r0
 1358 000c 49D3     		bcc	.L98
 347:User/e-Paper/GUI_Paint.c ****     {
 1359              		.loc 1 347 30 view .LVU391
 1360 000e E988     		ldrh	r1, [r5, #6]
 1361              	.LVL120:
 347:User/e-Paper/GUI_Paint.c ****     {
 1362              		.loc 1 347 30 view .LVU392
 1363 0010 A142     		cmp	r1, r4
 1364 0012 46D3     		bcc	.L98
 1365              	.LVL121:
 1366              	.LBB131:
 1367              	.LBB132:
 358:User/e-Paper/GUI_Paint.c ****         {
 1368              		.loc 1 358 37 is_stmt 1 view .LVU393
 360:User/e-Paper/GUI_Paint.c ****             {
 1369              		.loc 1 360 41 view .LVU394
 362:User/e-Paper/GUI_Paint.c ****                     break;
 1370              		.loc 1 362 17 view .LVU395
 362:User/e-Paper/GUI_Paint.c ****                     break;
 1371              		.loc 1 362 20 is_stmt 0 view .LVU396
 1372 0014 0028     		cmp	r0, #0
 1373 0016 3AD0     		beq	.L97
 362:User/e-Paper/GUI_Paint.c ****                     break;
 1374              		.loc 1 362 55 view .LVU397
 1375 0018 002C     		cmp	r4, #0
 1376 001a 38D0     		beq	.L97
 365:User/e-Paper/GUI_Paint.c ****             }
ARM GAS  C:\Users\upo\AppData\Local\Temp\ccEC4369.s 			page 42


 1377              		.loc 1 365 17 is_stmt 1 view .LVU398
 1378              	.LVL122:
 1379              	.LBB133:
 1380              	.LBI133:
 200:User/e-Paper/GUI_Paint.c **** {
 1381              		.loc 1 200 6 view .LVU399
 1382              	.LBB134:
 202:User/e-Paper/GUI_Paint.c ****     {
 1383              		.loc 1 202 5 view .LVU400
 1384              	.LBB135:
 1385              	.LBI135:
 200:User/e-Paper/GUI_Paint.c **** {
 1386              		.loc 1 200 6 view .LVU401
 1387              	.LBB136:
 207:User/e-Paper/GUI_Paint.c **** 
 1388              		.loc 1 207 5 view .LVU402
 209:User/e-Paper/GUI_Paint.c ****     {
 1389              		.loc 1 209 5 view .LVU403
 209:User/e-Paper/GUI_Paint.c ****     {
 1390              		.loc 1 209 18 is_stmt 0 view .LVU404
 1391 001c EA89     		ldrh	r2, [r5, #14]
 209:User/e-Paper/GUI_Paint.c ****     {
 1392              		.loc 1 209 5 view .LVU405
 1393 001e B42A     		cmp	r2, #180
 1394 0020 00D1     		bne	.LCB1364
 1395 0022 6BE0     		b	.L100	@long jump
 1396              	.LCB1364:
 1397              	.LBE136:
 1398              	.LBE135:
 1399              	.LBE134:
 1400              	.LBE133:
 365:User/e-Paper/GUI_Paint.c ****             }
 1401              		.loc 1 365 17 view .LVU406
 1402 0024 661E     		subs	r6, r4, #1
 1403 0026 B6B2     		uxth	r6, r6
 1404              	.LBB153:
 1405              	.LBB149:
 1406              	.LBB145:
 1407              	.LBB141:
 209:User/e-Paper/GUI_Paint.c ****     {
 1408              		.loc 1 209 5 view .LVU407
 1409 0028 B42A     		cmp	r2, #180
 1410 002a 31D8     		bhi	.L101
 1411              	.LBE141:
 1412              	.LBE145:
 1413              	.LBE149:
 1414              	.LBE153:
 365:User/e-Paper/GUI_Paint.c ****             }
 1415              		.loc 1 365 17 view .LVU408
 1416 002c 0138     		subs	r0, r0, #1
 1417              	.LVL123:
 365:User/e-Paper/GUI_Paint.c ****             }
 1418              		.loc 1 365 17 view .LVU409
 1419 002e 81B2     		uxth	r1, r0
 1420              	.LBB154:
 1421              	.LBB150:
 1422              	.LBB146:
ARM GAS  C:\Users\upo\AppData\Local\Temp\ccEC4369.s 			page 43


 1423              	.LBB142:
 209:User/e-Paper/GUI_Paint.c ****     {
 1424              		.loc 1 209 5 view .LVU410
 1425 0030 002A     		cmp	r2, #0
 1426 0032 05D0     		beq	.L102
 1427 0034 5A2A     		cmp	r2, #90
 1428 0036 2AD1     		bne	.L97
 216:User/e-Paper/GUI_Paint.c ****         Y = Xpoint;
 1429              		.loc 1 216 9 is_stmt 1 view .LVU411
 216:User/e-Paper/GUI_Paint.c ****         Y = Xpoint;
 1430              		.loc 1 216 11 is_stmt 0 view .LVU412
 1431 0038 2A89     		ldrh	r2, [r5, #8]
 1432 003a 0E00     		movs	r6, r1
 1433 003c 121B     		subs	r2, r2, r4
 1434              	.LVL124:
 217:User/e-Paper/GUI_Paint.c ****         break;
 1435              		.loc 1 217 9 is_stmt 1 view .LVU413
 218:User/e-Paper/GUI_Paint.c ****     case 180:
 1436              		.loc 1 218 9 view .LVU414
 216:User/e-Paper/GUI_Paint.c ****         Y = Xpoint;
 1437              		.loc 1 216 11 is_stmt 0 view .LVU415
 1438 003e 91B2     		uxth	r1, r2
 1439              	.LVL125:
 1440              	.L102:
 231:User/e-Paper/GUI_Paint.c ****     {
 1441              		.loc 1 231 5 is_stmt 1 view .LVU416
 231:User/e-Paper/GUI_Paint.c ****     {
 1442              		.loc 1 231 18 is_stmt 0 view .LVU417
 1443 0040 2A8A     		ldrh	r2, [r5, #16]
 231:User/e-Paper/GUI_Paint.c ****     {
 1444              		.loc 1 231 5 view .LVU418
 1445 0042 022A     		cmp	r2, #2
 1446 0044 43D0     		beq	.L105
 1447 0046 37D8     		bhi	.L106
 1448 0048 002A     		cmp	r2, #0
 1449 004a 44D0     		beq	.L124
 236:User/e-Paper/GUI_Paint.c ****         break;
 1450              		.loc 1 236 9 is_stmt 1 view .LVU419
 236:User/e-Paper/GUI_Paint.c ****         break;
 1451              		.loc 1 236 18 is_stmt 0 view .LVU420
 1452 004c 2A89     		ldrh	r2, [r5, #8]
 236:User/e-Paper/GUI_Paint.c ****         break;
 1453              		.loc 1 236 11 view .LVU421
 1454 004e 501E     		subs	r0, r2, #1
 1455 0050 411A     		subs	r1, r0, r1
 1456              	.LVL126:
 236:User/e-Paper/GUI_Paint.c ****         break;
 1457              		.loc 1 236 11 view .LVU422
 1458 0052 89B2     		uxth	r1, r1
 1459              	.LVL127:
 237:User/e-Paper/GUI_Paint.c ****     case MIRROR_VERTICAL:
 1460              		.loc 1 237 9 is_stmt 1 view .LVU423
 1461              	.L110:
 249:User/e-Paper/GUI_Paint.c ****     {
 1462              		.loc 1 249 5 view .LVU424
 249:User/e-Paper/GUI_Paint.c ****     {
 1463              		.loc 1 249 8 is_stmt 0 view .LVU425
ARM GAS  C:\Users\upo\AppData\Local\Temp\ccEC4369.s 			page 44


 1464 0054 8A42     		cmp	r2, r1
 1465 0056 1AD3     		bcc	.L97
 249:User/e-Paper/GUI_Paint.c ****     {
 1466              		.loc 1 249 31 view .LVU426
 1467 0058 6A89     		ldrh	r2, [r5, #10]
 1468 005a B242     		cmp	r2, r6
 1469 005c 17D3     		bcc	.L97
 255:User/e-Paper/GUI_Paint.c ****     {
 1470              		.loc 1 255 5 is_stmt 1 view .LVU427
 255:User/e-Paper/GUI_Paint.c ****     {
 1471              		.loc 1 255 14 is_stmt 0 view .LVU428
 1472 005e EA8A     		ldrh	r2, [r5, #22]
 255:User/e-Paper/GUI_Paint.c ****     {
 1473              		.loc 1 255 8 view .LVU429
 1474 0060 022A     		cmp	r2, #2
 1475 0062 3AD0     		beq	.L125
 264:User/e-Paper/GUI_Paint.c ****     {
 1476              		.loc 1 264 10 is_stmt 1 view .LVU430
 264:User/e-Paper/GUI_Paint.c ****     {
 1477              		.loc 1 264 13 is_stmt 0 view .LVU431
 1478 0064 042A     		cmp	r2, #4
 1479 0066 53D0     		beq	.L126
 273:User/e-Paper/GUI_Paint.c ****     {
 1480              		.loc 1 273 10 is_stmt 1 view .LVU432
 273:User/e-Paper/GUI_Paint.c ****     {
 1481              		.loc 1 273 13 is_stmt 0 view .LVU433
 1482 0068 072A     		cmp	r2, #7
 1483 006a 10D1     		bne	.L97
 1484              	.LBB137:
 275:User/e-Paper/GUI_Paint.c ****         UBYTE Rdata = Paint.Image[Addr];
 1485              		.loc 1 275 9 is_stmt 1 view .LVU434
 1486              	.LVL128:
 276:User/e-Paper/GUI_Paint.c ****         Rdata = Rdata & (~(0xF0 >> ((X % 2) * 4))); // Clear first, then set value
 1487              		.loc 1 276 9 view .LVU435
 275:User/e-Paper/GUI_Paint.c ****         UBYTE Rdata = Paint.Image[Addr];
 1488              		.loc 1 275 41 is_stmt 0 view .LVU436
 1489 006c 6A8A     		ldrh	r2, [r5, #18]
 277:User/e-Paper/GUI_Paint.c ****         Paint.Image[Addr] = Rdata | ((Color << 4) >> ((X % 2) * 4));
 1490              		.loc 1 277 33 view .LVU437
 1491 006e F020     		movs	r0, #240
 275:User/e-Paper/GUI_Paint.c ****         UBYTE Rdata = Paint.Image[Addr];
 1492              		.loc 1 275 34 view .LVU438
 1493 0070 5643     		muls	r6, r2
 1494              	.LVL129:
 275:User/e-Paper/GUI_Paint.c ****         UBYTE Rdata = Paint.Image[Addr];
 1495              		.loc 1 275 26 view .LVU439
 1496 0072 4A08     		lsrs	r2, r1, #1
 1497 0074 92B2     		uxth	r2, r2
 275:User/e-Paper/GUI_Paint.c ****         UBYTE Rdata = Paint.Image[Addr];
 1498              		.loc 1 275 30 view .LVU440
 1499 0076 B618     		adds	r6, r6, r2
 277:User/e-Paper/GUI_Paint.c ****         Paint.Image[Addr] = Rdata | ((Color << 4) >> ((X % 2) * 4));
 1500              		.loc 1 277 40 view .LVU441
 1501 0078 0122     		movs	r2, #1
 1502 007a 0A40     		ands	r2, r1
 277:User/e-Paper/GUI_Paint.c ****         Paint.Image[Addr] = Rdata | ((Color << 4) >> ((X % 2) * 4));
 1503              		.loc 1 277 45 view .LVU442
ARM GAS  C:\Users\upo\AppData\Local\Temp\ccEC4369.s 			page 45


 1504 007c 9200     		lsls	r2, r2, #2
 277:User/e-Paper/GUI_Paint.c ****         Paint.Image[Addr] = Rdata | ((Color << 4) >> ((X % 2) * 4));
 1505              		.loc 1 277 33 view .LVU443
 1506 007e 1041     		asrs	r0, r0, r2
 278:User/e-Paper/GUI_Paint.c ****         // printf("Add =  %d ,data = %d\r\n",Addr,Rdata);
 1507              		.loc 1 278 45 view .LVU444
 1508 0080 1B01     		lsls	r3, r3, #4
 1509              	.LVL130:
 278:User/e-Paper/GUI_Paint.c ****         // printf("Add =  %d ,data = %d\r\n",Addr,Rdata);
 1510              		.loc 1 278 51 view .LVU445
 1511 0082 1341     		asrs	r3, r3, r2
 276:User/e-Paper/GUI_Paint.c ****         Rdata = Rdata & (~(0xF0 >> ((X % 2) * 4))); // Clear first, then set value
 1512              		.loc 1 276 34 view .LVU446
 1513 0084 2C68     		ldr	r4, [r5]
 1514              	.LVL131:
 277:User/e-Paper/GUI_Paint.c ****         Paint.Image[Addr] = Rdata | ((Color << 4) >> ((X % 2) * 4));
 1515              		.loc 1 277 9 is_stmt 1 view .LVU447
 278:User/e-Paper/GUI_Paint.c ****         // printf("Add =  %d ,data = %d\r\n",Addr,Rdata);
 1516              		.loc 1 278 9 view .LVU448
 277:User/e-Paper/GUI_Paint.c ****         Paint.Image[Addr] = Rdata | ((Color << 4) >> ((X % 2) * 4));
 1517              		.loc 1 277 23 is_stmt 0 view .LVU449
 1518 0086 A15D     		ldrb	r1, [r4, r6]
 1519              	.LVL132:
 277:User/e-Paper/GUI_Paint.c ****         Paint.Image[Addr] = Rdata | ((Color << 4) >> ((X % 2) * 4));
 1520              		.loc 1 277 23 view .LVU450
 1521 0088 8143     		bics	r1, r0
 278:User/e-Paper/GUI_Paint.c ****         // printf("Add =  %d ,data = %d\r\n",Addr,Rdata);
 1522              		.loc 1 278 35 view .LVU451
 1523 008a 0B43     		orrs	r3, r1
 278:User/e-Paper/GUI_Paint.c ****         // printf("Add =  %d ,data = %d\r\n",Addr,Rdata);
 1524              		.loc 1 278 27 view .LVU452
 1525 008c A355     		strb	r3, [r4, r6]
 1526              	.LVL133:
 1527              	.L97:
 278:User/e-Paper/GUI_Paint.c ****         // printf("Add =  %d ,data = %d\r\n",Addr,Rdata);
 1528              		.loc 1 278 27 view .LVU453
 1529              	.LBE137:
 1530              	.LBE142:
 1531              	.LBE146:
 1532              	.LBE150:
 1533              	.LBE154:
 1534              	.LBE132:
 1535              	.LBE131:
 379:User/e-Paper/GUI_Paint.c **** 
 1536              		.loc 1 379 1 view .LVU454
 1537              		@ sp needed
 1538 008e 70BD     		pop	{r4, r5, r6, pc}
 1539              	.LVL134:
 1540              	.L101:
 1541              	.LBB159:
 1542              	.LBB157:
 1543              	.LBB155:
 1544              	.LBB151:
 1545              	.LBB147:
 1546              	.LBB143:
 209:User/e-Paper/GUI_Paint.c ****     {
 1547              		.loc 1 209 5 view .LVU455
ARM GAS  C:\Users\upo\AppData\Local\Temp\ccEC4369.s 			page 46


 1548 0090 8721     		movs	r1, #135
 1549 0092 4900     		lsls	r1, r1, #1
 1550 0094 8A42     		cmp	r2, r1
 1551 0096 FAD1     		bne	.L97
 224:User/e-Paper/GUI_Paint.c ****         Y = Paint.HeightMemory - Xpoint - 1;
 1552              		.loc 1 224 9 is_stmt 1 view .LVU456
 1553              	.LVL135:
 225:User/e-Paper/GUI_Paint.c ****         break;
 1554              		.loc 1 225 9 view .LVU457
 225:User/e-Paper/GUI_Paint.c ****         break;
 1555              		.loc 1 225 11 is_stmt 0 view .LVU458
 1556 0098 6A89     		ldrh	r2, [r5, #10]
 1557 009a 3100     		movs	r1, r6
 1558 009c 121A     		subs	r2, r2, r0
 1559              	.LVL136:
 226:User/e-Paper/GUI_Paint.c ****     default:
 1560              		.loc 1 226 9 is_stmt 1 view .LVU459
 225:User/e-Paper/GUI_Paint.c ****         break;
 1561              		.loc 1 225 11 is_stmt 0 view .LVU460
 1562 009e 96B2     		uxth	r6, r2
 1563 00a0 CEE7     		b	.L102
 1564              	.LVL137:
 1565              	.L98:
 225:User/e-Paper/GUI_Paint.c ****         break;
 1566              		.loc 1 225 11 view .LVU461
 1567              	.LBE143:
 1568              	.LBE147:
 1569              	.LBE151:
 1570              	.LBE155:
 1571              	.LBE157:
 1572              	.LBE159:
 349:User/e-Paper/GUI_Paint.c ****         printf("Xpoint = %d , Paint.Width = %d  \r\n ", Xpoint, Paint.Width);
 1573              		.loc 1 349 77 is_stmt 1 view .LVU462
 350:User/e-Paper/GUI_Paint.c ****         printf("Ypoint = %d , Paint.Height = %d  \r\n ", Ypoint, Paint.Height);
 1574              		.loc 1 350 9 view .LVU463
 1575 00a2 264B     		ldr	r3, .L127+4
 1576 00a4 0100     		movs	r1, r0
 1577 00a6 1800     		movs	r0, r3
 1578              	.LVL138:
 350:User/e-Paper/GUI_Paint.c ****         printf("Ypoint = %d , Paint.Height = %d  \r\n ", Ypoint, Paint.Height);
 1579              		.loc 1 350 9 is_stmt 0 view .LVU464
 1580 00a8 FFF7FEFF 		bl	printf_
 1581              	.LVL139:
 351:User/e-Paper/GUI_Paint.c ****         return;
 1582              		.loc 1 351 9 is_stmt 1 view .LVU465
 1583 00ac 2100     		movs	r1, r4
 1584 00ae EA88     		ldrh	r2, [r5, #6]
 1585 00b0 2348     		ldr	r0, .L127+8
 1586 00b2 FFF7FEFF 		bl	printf_
 1587              	.LVL140:
 352:User/e-Paper/GUI_Paint.c ****     }
 1588              		.loc 1 352 9 view .LVU466
 1589 00b6 EAE7     		b	.L97
 1590              	.LVL141:
 1591              	.L106:
 1592              	.LBB160:
 1593              	.LBB158:
ARM GAS  C:\Users\upo\AppData\Local\Temp\ccEC4369.s 			page 47


 1594              	.LBB156:
 1595              	.LBB152:
 1596              	.LBB148:
 1597              	.LBB144:
 231:User/e-Paper/GUI_Paint.c ****     {
 1598              		.loc 1 231 5 is_stmt 0 view .LVU467
 1599 00b8 032A     		cmp	r2, #3
 1600 00ba E8D1     		bne	.L97
 242:User/e-Paper/GUI_Paint.c ****         Y = Paint.HeightMemory - Y - 1;
 1601              		.loc 1 242 9 is_stmt 1 view .LVU468
 242:User/e-Paper/GUI_Paint.c ****         Y = Paint.HeightMemory - Y - 1;
 1602              		.loc 1 242 18 is_stmt 0 view .LVU469
 1603 00bc 2A89     		ldrh	r2, [r5, #8]
 242:User/e-Paper/GUI_Paint.c ****         Y = Paint.HeightMemory - Y - 1;
 1604              		.loc 1 242 11 view .LVU470
 1605 00be 501E     		subs	r0, r2, #1
 1606 00c0 411A     		subs	r1, r0, r1
 1607              	.LVL142:
 243:User/e-Paper/GUI_Paint.c ****         break;
 1608              		.loc 1 243 11 view .LVU471
 1609 00c2 6889     		ldrh	r0, [r5, #10]
 242:User/e-Paper/GUI_Paint.c ****         Y = Paint.HeightMemory - Y - 1;
 1610              		.loc 1 242 11 view .LVU472
 1611 00c4 89B2     		uxth	r1, r1
 1612              	.LVL143:
 243:User/e-Paper/GUI_Paint.c ****         break;
 1613              		.loc 1 243 9 is_stmt 1 view .LVU473
 243:User/e-Paper/GUI_Paint.c ****         break;
 1614              		.loc 1 243 11 is_stmt 0 view .LVU474
 1615 00c6 0138     		subs	r0, r0, #1
 1616 00c8 861B     		subs	r6, r0, r6
 1617              	.LVL144:
 243:User/e-Paper/GUI_Paint.c ****         break;
 1618              		.loc 1 243 11 view .LVU475
 1619 00ca B6B2     		uxth	r6, r6
 1620              	.LVL145:
 244:User/e-Paper/GUI_Paint.c ****     default:
 1621              		.loc 1 244 9 is_stmt 1 view .LVU476
 1622 00cc C2E7     		b	.L110
 1623              	.L105:
 239:User/e-Paper/GUI_Paint.c ****         break;
 1624              		.loc 1 239 9 view .LVU477
 239:User/e-Paper/GUI_Paint.c ****         break;
 1625              		.loc 1 239 11 is_stmt 0 view .LVU478
 1626 00ce 6A89     		ldrh	r2, [r5, #10]
 1627 00d0 013A     		subs	r2, r2, #1
 1628 00d2 961B     		subs	r6, r2, r6
 1629              	.LVL146:
 239:User/e-Paper/GUI_Paint.c ****         break;
 1630              		.loc 1 239 11 view .LVU479
 1631 00d4 B6B2     		uxth	r6, r6
 1632              	.L124:
 1633              	.LVL147:
 240:User/e-Paper/GUI_Paint.c ****     case MIRROR_ORIGIN:
 1634              		.loc 1 240 9 is_stmt 1 view .LVU480
 216:User/e-Paper/GUI_Paint.c ****         Y = Xpoint;
 1635              		.loc 1 216 18 is_stmt 0 view .LVU481
ARM GAS  C:\Users\upo\AppData\Local\Temp\ccEC4369.s 			page 48


 1636 00d6 2A89     		ldrh	r2, [r5, #8]
 1637 00d8 BCE7     		b	.L110
 1638              	.L125:
 1639              	.LBB138:
 257:User/e-Paper/GUI_Paint.c ****         UBYTE Rdata = Paint.Image[Addr];
 1640              		.loc 1 257 9 is_stmt 1 view .LVU482
 1641              	.LVL148:
 258:User/e-Paper/GUI_Paint.c ****         if (Color == BLACK)
 1642              		.loc 1 258 9 view .LVU483
 257:User/e-Paper/GUI_Paint.c ****         UBYTE Rdata = Paint.Image[Addr];
 1643              		.loc 1 257 41 is_stmt 0 view .LVU484
 1644 00da 6A8A     		ldrh	r2, [r5, #18]
 257:User/e-Paper/GUI_Paint.c ****         UBYTE Rdata = Paint.Image[Addr];
 1645              		.loc 1 257 26 view .LVU485
 1646 00dc C808     		lsrs	r0, r1, #3
 257:User/e-Paper/GUI_Paint.c ****         UBYTE Rdata = Paint.Image[Addr];
 1647              		.loc 1 257 34 view .LVU486
 1648 00de 7243     		muls	r2, r6
 257:User/e-Paper/GUI_Paint.c ****         UBYTE Rdata = Paint.Image[Addr];
 1649              		.loc 1 257 26 view .LVU487
 1650 00e0 80B2     		uxth	r0, r0
 257:User/e-Paper/GUI_Paint.c ****         UBYTE Rdata = Paint.Image[Addr];
 1651              		.loc 1 257 30 view .LVU488
 1652 00e2 1218     		adds	r2, r2, r0
 258:User/e-Paper/GUI_Paint.c ****         if (Color == BLACK)
 1653              		.loc 1 258 34 view .LVU489
 1654 00e4 2868     		ldr	r0, [r5]
 1655 00e6 8418     		adds	r4, r0, r2
 1656              	.LVL149:
 258:User/e-Paper/GUI_Paint.c ****         if (Color == BLACK)
 1657              		.loc 1 258 15 view .LVU490
 1658 00e8 825C     		ldrb	r2, [r0, r2]
 1659              	.LVL150:
 259:User/e-Paper/GUI_Paint.c ****             Paint.Image[Addr] = Rdata & ~(0x80 >> (X % 8));
 1660              		.loc 1 259 9 is_stmt 1 view .LVU491
 260:User/e-Paper/GUI_Paint.c ****         else
 1661              		.loc 1 260 54 is_stmt 0 view .LVU492
 1662 00ea 0720     		movs	r0, #7
 1663 00ec 0840     		ands	r0, r1
 260:User/e-Paper/GUI_Paint.c ****         else
 1664              		.loc 1 260 48 view .LVU493
 1665 00ee 8021     		movs	r1, #128
 1666              	.LVL151:
 260:User/e-Paper/GUI_Paint.c ****         else
 1667              		.loc 1 260 48 view .LVU494
 1668 00f0 0141     		asrs	r1, r1, r0
 259:User/e-Paper/GUI_Paint.c ****             Paint.Image[Addr] = Rdata & ~(0x80 >> (X % 8));
 1669              		.loc 1 259 12 view .LVU495
 1670 00f2 002B     		cmp	r3, #0
 1671 00f4 09D1     		bne	.L112
 260:User/e-Paper/GUI_Paint.c ****         else
 1672              		.loc 1 260 13 is_stmt 1 view .LVU496
 260:User/e-Paper/GUI_Paint.c ****         else
 1673              		.loc 1 260 39 is_stmt 0 view .LVU497
 1674 00f6 8A43     		bics	r2, r1
 1675              	.LVL152:
 260:User/e-Paper/GUI_Paint.c ****         else
ARM GAS  C:\Users\upo\AppData\Local\Temp\ccEC4369.s 			page 49


 1676              		.loc 1 260 31 view .LVU498
 1677 00f8 2270     		strb	r2, [r4]
 1678              	.LVL153:
 260:User/e-Paper/GUI_Paint.c ****         else
 1679              		.loc 1 260 31 view .LVU499
 1680 00fa C8E7     		b	.L97
 1681              	.LVL154:
 1682              	.L100:
 260:User/e-Paper/GUI_Paint.c ****         else
 1683              		.loc 1 260 31 view .LVU500
 1684              	.LBE138:
 220:User/e-Paper/GUI_Paint.c ****         Y = Paint.HeightMemory - Ypoint - 1;
 1685              		.loc 1 220 9 is_stmt 1 view .LVU501
 220:User/e-Paper/GUI_Paint.c ****         Y = Paint.HeightMemory - Ypoint - 1;
 1686              		.loc 1 220 11 is_stmt 0 view .LVU502
 1687 00fc 2989     		ldrh	r1, [r5, #8]
 221:User/e-Paper/GUI_Paint.c ****         break;
 1688              		.loc 1 221 11 view .LVU503
 1689 00fe 6E89     		ldrh	r6, [r5, #10]
 220:User/e-Paper/GUI_Paint.c ****         Y = Paint.HeightMemory - Ypoint - 1;
 1690              		.loc 1 220 11 view .LVU504
 1691 0100 091A     		subs	r1, r1, r0
 221:User/e-Paper/GUI_Paint.c ****         break;
 1692              		.loc 1 221 11 view .LVU505
 1693 0102 361B     		subs	r6, r6, r4
 220:User/e-Paper/GUI_Paint.c ****         Y = Paint.HeightMemory - Ypoint - 1;
 1694              		.loc 1 220 11 view .LVU506
 1695 0104 89B2     		uxth	r1, r1
 1696              	.LVL155:
 221:User/e-Paper/GUI_Paint.c ****         break;
 1697              		.loc 1 221 9 is_stmt 1 view .LVU507
 221:User/e-Paper/GUI_Paint.c ****         break;
 1698              		.loc 1 221 11 is_stmt 0 view .LVU508
 1699 0106 B6B2     		uxth	r6, r6
 1700              	.LVL156:
 222:User/e-Paper/GUI_Paint.c ****     case 270:
 1701              		.loc 1 222 9 is_stmt 1 view .LVU509
 1702 0108 9AE7     		b	.L102
 1703              	.LVL157:
 1704              	.L112:
 1705              	.LBB139:
 262:User/e-Paper/GUI_Paint.c ****     }
 1706              		.loc 1 262 13 view .LVU510
 262:User/e-Paper/GUI_Paint.c ****     }
 1707              		.loc 1 262 39 is_stmt 0 view .LVU511
 1708 010a 0A43     		orrs	r2, r1
 1709              	.LVL158:
 262:User/e-Paper/GUI_Paint.c ****     }
 1710              		.loc 1 262 31 view .LVU512
 1711 010c 2270     		strb	r2, [r4]
 1712              	.LVL159:
 262:User/e-Paper/GUI_Paint.c ****     }
 1713              		.loc 1 262 31 view .LVU513
 1714 010e BEE7     		b	.L97
 1715              	.LVL160:
 1716              	.L126:
 262:User/e-Paper/GUI_Paint.c ****     }
ARM GAS  C:\Users\upo\AppData\Local\Temp\ccEC4369.s 			page 50


 1717              		.loc 1 262 31 view .LVU514
 1718              	.LBE139:
 1719              	.LBB140:
 266:User/e-Paper/GUI_Paint.c ****         Color = Color % 4; // Guaranteed color scale is 4  --- 0~3
 1720              		.loc 1 266 9 is_stmt 1 view .LVU515
 267:User/e-Paper/GUI_Paint.c ****         UBYTE Rdata = Paint.Image[Addr];
 1721              		.loc 1 267 9 view .LVU516
 268:User/e-Paper/GUI_Paint.c **** 
 1722              		.loc 1 268 9 view .LVU517
 266:User/e-Paper/GUI_Paint.c ****         Color = Color % 4; // Guaranteed color scale is 4  --- 0~3
 1723              		.loc 1 266 41 is_stmt 0 view .LVU518
 1724 0110 688A     		ldrh	r0, [r5, #18]
 266:User/e-Paper/GUI_Paint.c ****         Color = Color % 4; // Guaranteed color scale is 4  --- 0~3
 1725              		.loc 1 266 26 view .LVU519
 1726 0112 8A08     		lsrs	r2, r1, #2
 266:User/e-Paper/GUI_Paint.c ****         Color = Color % 4; // Guaranteed color scale is 4  --- 0~3
 1727              		.loc 1 266 34 view .LVU520
 1728 0114 7043     		muls	r0, r6
 266:User/e-Paper/GUI_Paint.c ****         Color = Color % 4; // Guaranteed color scale is 4  --- 0~3
 1729              		.loc 1 266 26 view .LVU521
 1730 0116 92B2     		uxth	r2, r2
 266:User/e-Paper/GUI_Paint.c ****         Color = Color % 4; // Guaranteed color scale is 4  --- 0~3
 1731              		.loc 1 266 30 view .LVU522
 1732 0118 8018     		adds	r0, r0, r2
 270:User/e-Paper/GUI_Paint.c ****         Paint.Image[Addr] = Rdata | ((Color << 6) >> ((X % 4) * 2));
 1733              		.loc 1 270 40 view .LVU523
 1734 011a 0322     		movs	r2, #3
 270:User/e-Paper/GUI_Paint.c ****         Paint.Image[Addr] = Rdata | ((Color << 6) >> ((X % 4) * 2));
 1735              		.loc 1 270 33 view .LVU524
 1736 011c C026     		movs	r6, #192
 1737              	.LVL161:
 270:User/e-Paper/GUI_Paint.c ****         Paint.Image[Addr] = Rdata | ((Color << 6) >> ((X % 4) * 2));
 1738              		.loc 1 270 40 view .LVU525
 1739 011e 1140     		ands	r1, r2
 1740              	.LVL162:
 270:User/e-Paper/GUI_Paint.c ****         Paint.Image[Addr] = Rdata | ((Color << 6) >> ((X % 4) * 2));
 1741              		.loc 1 270 45 view .LVU526
 1742 0120 4900     		lsls	r1, r1, #1
 271:User/e-Paper/GUI_Paint.c ****     }
 1743              		.loc 1 271 45 view .LVU527
 1744 0122 1340     		ands	r3, r2
 1745              	.LVL163:
 270:User/e-Paper/GUI_Paint.c ****         Paint.Image[Addr] = Rdata | ((Color << 6) >> ((X % 4) * 2));
 1746              		.loc 1 270 33 view .LVU528
 1747 0124 0E41     		asrs	r6, r6, r1
 271:User/e-Paper/GUI_Paint.c ****     }
 1748              		.loc 1 271 45 view .LVU529
 1749 0126 9B01     		lsls	r3, r3, #6
 271:User/e-Paper/GUI_Paint.c ****     }
 1750              		.loc 1 271 51 view .LVU530
 1751 0128 0B41     		asrs	r3, r3, r1
 268:User/e-Paper/GUI_Paint.c **** 
 1752              		.loc 1 268 34 view .LVU531
 1753 012a 2D68     		ldr	r5, [r5]
 1754              	.LVL164:
 270:User/e-Paper/GUI_Paint.c ****         Paint.Image[Addr] = Rdata | ((Color << 6) >> ((X % 4) * 2));
 1755              		.loc 1 270 9 is_stmt 1 view .LVU532
ARM GAS  C:\Users\upo\AppData\Local\Temp\ccEC4369.s 			page 51


 271:User/e-Paper/GUI_Paint.c ****     }
 1756              		.loc 1 271 9 view .LVU533
 270:User/e-Paper/GUI_Paint.c ****         Paint.Image[Addr] = Rdata | ((Color << 6) >> ((X % 4) * 2));
 1757              		.loc 1 270 23 is_stmt 0 view .LVU534
 1758 012c 2C5C     		ldrb	r4, [r5, r0]
 1759              	.LVL165:
 270:User/e-Paper/GUI_Paint.c ****         Paint.Image[Addr] = Rdata | ((Color << 6) >> ((X % 4) * 2));
 1760              		.loc 1 270 23 view .LVU535
 1761 012e B443     		bics	r4, r6
 271:User/e-Paper/GUI_Paint.c ****     }
 1762              		.loc 1 271 35 view .LVU536
 1763 0130 2343     		orrs	r3, r4
 271:User/e-Paper/GUI_Paint.c ****     }
 1764              		.loc 1 271 27 view .LVU537
 1765 0132 2B54     		strb	r3, [r5, r0]
 1766              	.LVL166:
 271:User/e-Paper/GUI_Paint.c ****     }
 1767              		.loc 1 271 27 view .LVU538
 1768 0134 ABE7     		b	.L97
 1769              	.L128:
 1770 0136 C046     		.align	2
 1771              	.L127:
 1772 0138 00000000 		.word	Paint
 1773 013c 00000000 		.word	.LC3
 1774 0140 24000000 		.word	.LC5
 1775              	.LBE140:
 1776              	.LBE144:
 1777              	.LBE148:
 1778              	.LBE152:
 1779              	.LBE156:
 1780              	.LBE158:
 1781              	.LBE160:
 1782              		.cfi_endproc
 1783              	.LFE1453:
 1785              		.section	.text.Paint_DrawPoint.constprop.1,"ax",%progbits
 1786              		.align	1
 1787              		.p2align 2,,3
 1788              		.syntax unified
 1789              		.code	16
 1790              		.thumb_func
 1792              	Paint_DrawPoint.constprop.1:
 1793              	.LVL167:
 1794              	.LFB1452:
 344:User/e-Paper/GUI_Paint.c ****                      DOT_PIXEL Dot_Pixel, DOT_STYLE Dot_Style)
 1795              		.loc 1 344 6 is_stmt 1 view -0
 1796              		.cfi_startproc
 1797              		@ args = 0, pretend = 0, frame = 32
 1798              		@ frame_needed = 0, uses_anonymous_args = 0
 344:User/e-Paper/GUI_Paint.c ****                      DOT_PIXEL Dot_Pixel, DOT_STYLE Dot_Style)
 1799              		.loc 1 344 6 is_stmt 0 view .LVU540
 1800 0000 F0B5     		push	{r4, r5, r6, r7, lr}
 1801              	.LCFI8:
 1802              		.cfi_def_cfa_offset 20
 1803              		.cfi_offset 4, -20
 1804              		.cfi_offset 5, -16
 1805              		.cfi_offset 6, -12
 1806              		.cfi_offset 7, -8
ARM GAS  C:\Users\upo\AppData\Local\Temp\ccEC4369.s 			page 52


 1807              		.cfi_offset 14, -4
 1808 0002 DE46     		mov	lr, fp
 1809 0004 4546     		mov	r5, r8
 1810 0006 5746     		mov	r7, r10
 1811 0008 4E46     		mov	r6, r9
 1812 000a 8346     		mov	fp, r0
 1813 000c E0B5     		push	{r5, r6, r7, lr}
 1814              	.LCFI9:
 1815              		.cfi_def_cfa_offset 36
 1816              		.cfi_offset 8, -36
 1817              		.cfi_offset 9, -32
 1818              		.cfi_offset 10, -28
 1819              		.cfi_offset 11, -24
 347:User/e-Paper/GUI_Paint.c ****     {
 1820              		.loc 1 347 23 view .LVU541
 1821 000e 9B4C     		ldr	r4, .L163
 344:User/e-Paper/GUI_Paint.c ****                      DOT_PIXEL Dot_Pixel, DOT_STYLE Dot_Style)
 1822              		.loc 1 344 6 view .LVU542
 1823 0010 89B0     		sub	sp, sp, #36
 1824              	.LCFI10:
 1825              		.cfi_def_cfa_offset 72
 344:User/e-Paper/GUI_Paint.c ****                      DOT_PIXEL Dot_Pixel, DOT_STYLE Dot_Style)
 1826              		.loc 1 344 6 view .LVU543
 1827 0012 0592     		str	r2, [sp, #20]
 1828              	.LVL168:
 347:User/e-Paper/GUI_Paint.c ****     {
 1829              		.loc 1 347 5 is_stmt 1 view .LVU544
 344:User/e-Paper/GUI_Paint.c ****                      DOT_PIXEL Dot_Pixel, DOT_STYLE Dot_Style)
 1830              		.loc 1 344 6 is_stmt 0 view .LVU545
 1831 0014 1000     		movs	r0, r2
 1832              	.LVL169:
 347:User/e-Paper/GUI_Paint.c ****     {
 1833              		.loc 1 347 23 view .LVU546
 1834 0016 A288     		ldrh	r2, [r4, #4]
 1835              	.LVL170:
 344:User/e-Paper/GUI_Paint.c ****                      DOT_PIXEL Dot_Pixel, DOT_STYLE Dot_Style)
 1836              		.loc 1 344 6 view .LVU547
 1837 0018 8846     		mov	r8, r1
 347:User/e-Paper/GUI_Paint.c ****     {
 1838              		.loc 1 347 8 view .LVU548
 1839 001a 5A45     		cmp	r2, fp
 1840 001c 00D2     		bcs	.LCB1827
 1841 001e 22E1     		b	.L130	@long jump
 1842              	.LCB1827:
 347:User/e-Paper/GUI_Paint.c ****     {
 1843              		.loc 1 347 30 view .LVU549
 1844 0020 E188     		ldrh	r1, [r4, #6]
 1845              	.LVL171:
 347:User/e-Paper/GUI_Paint.c ****     {
 1846              		.loc 1 347 30 view .LVU550
 1847 0022 4145     		cmp	r1, r8
 1848 0024 00D2     		bcs	.LCB1831
 1849 0026 1EE1     		b	.L130	@long jump
 1850              	.LCB1831:
 1851              	.LVL172:
 1852              	.LBB172:
 1853              	.LBB173:
ARM GAS  C:\Users\upo\AppData\Local\Temp\ccEC4369.s 			page 53


 358:User/e-Paper/GUI_Paint.c ****         {
 1854              		.loc 1 358 37 is_stmt 1 view .LVU551
 358:User/e-Paper/GUI_Paint.c ****         {
 1855              		.loc 1 358 41 is_stmt 0 view .LVU552
 1856 0028 5F00     		lsls	r7, r3, #1
 358:User/e-Paper/GUI_Paint.c ****         {
 1857              		.loc 1 358 53 view .LVU553
 1858 002a 013F     		subs	r7, r7, #1
 358:User/e-Paper/GUI_Paint.c ****         {
 1859              		.loc 1 358 37 view .LVU554
 1860 002c 002F     		cmp	r7, #0
 1861 002e 00DC     		bgt	.LCB1839
 1862 0030 92E0     		b	.L129	@long jump
 1863              	.LCB1839:
 362:User/e-Paper/GUI_Paint.c ****                     break;
 1864              		.loc 1 362 76 view .LVU555
 1865 0032 4146     		mov	r1, r8
 1866 0034 C91A     		subs	r1, r1, r3
 1867 0036 8A46     		mov	r10, r1
 1868 0038 5946     		mov	r1, fp
 358:User/e-Paper/GUI_Paint.c ****         {
 1869              		.loc 1 358 37 view .LVU556
 1870 003a 0022     		movs	r2, #0
 1871 003c CE1A     		subs	r6, r1, r3
 1872 003e 5146     		mov	r1, r10
 1873 0040 0092     		str	r2, [sp]
 1874 0042 89B2     		uxth	r1, r1
 1875 0044 5A46     		mov	r2, fp
 358:User/e-Paper/GUI_Paint.c ****         {
 1876              		.loc 1 358 23 view .LVU557
 1877 0046 0025     		movs	r5, #0
 1878 0048 8946     		mov	r9, r1
 1879              	.LBB174:
 1880              	.LBB175:
 1881              	.LBB176:
 1882              	.LBB177:
 1883              	.LBB178:
 271:User/e-Paper/GUI_Paint.c ****     }
 1884              		.loc 1 271 45 view .LVU558
 1885 004a 0321     		movs	r1, #3
 1886 004c 0392     		str	r2, [sp, #12]
 1887 004e 5246     		mov	r2, r10
 1888 0050 0140     		ands	r1, r0
 1889 0052 BC46     		mov	ip, r7
 1890 0054 2800     		movs	r0, r5
 1891 0056 4746     		mov	r7, r8
 1892 0058 4D46     		mov	r5, r9
 1893 005a 8901     		lsls	r1, r1, #6
 1894 005c B6B2     		uxth	r6, r6
 1895 005e 0791     		str	r1, [sp, #28]
 1896 0060 0492     		str	r2, [sp, #16]
 1897              	.LVL173:
 1898              	.L132:
 271:User/e-Paper/GUI_Paint.c ****     }
 1899              		.loc 1 271 45 view .LVU559
 1900              	.LBE178:
 1901              	.LBE177:
ARM GAS  C:\Users\upo\AppData\Local\Temp\ccEC4369.s 			page 54


 1902              	.LBE176:
 1903              	.LBE175:
 1904              	.LBE174:
 360:User/e-Paper/GUI_Paint.c ****             {
 1905              		.loc 1 360 41 is_stmt 1 view .LVU560
 362:User/e-Paper/GUI_Paint.c ****                     break;
 1906              		.loc 1 362 17 view .LVU561
 362:User/e-Paper/GUI_Paint.c ****                     break;
 1907              		.loc 1 362 28 is_stmt 0 view .LVU562
 1908 0062 0399     		ldr	r1, [sp, #12]
 1909 0064 009A     		ldr	r2, [sp]
 1910 0066 8846     		mov	r8, r1
 1911 0068 4244     		add	r2, r2, r8
 362:User/e-Paper/GUI_Paint.c ****                     break;
 1912              		.loc 1 362 20 view .LVU563
 1913 006a 9A42     		cmp	r2, r3
 1914 006c 6CDB     		blt	.L135
 362:User/e-Paper/GUI_Paint.c ****                     break;
 1915              		.loc 1 362 55 view .LVU564
 1916 006e 049A     		ldr	r2, [sp, #16]
 1917 0070 002A     		cmp	r2, #0
 1918 0072 69DB     		blt	.L135
 365:User/e-Paper/GUI_Paint.c ****             }
 1919              		.loc 1 365 39 view .LVU565
 1920 0074 0A18     		adds	r2, r1, r0
 1921 0076 92B2     		uxth	r2, r2
 1922 0078 0292     		str	r2, [sp, #8]
 1923 007a 2900     		movs	r1, r5
 360:User/e-Paper/GUI_Paint.c ****             {
 1924              		.loc 1 360 27 view .LVU566
 1925 007c 0022     		movs	r2, #0
 1926 007e 9846     		mov	r8, r3
 1927 0080 AB46     		mov	fp, r5
 1928 0082 0190     		str	r0, [sp, #4]
 1929 0084 0097     		str	r7, [sp]
 1930              	.LVL174:
 1931              	.L152:
 365:User/e-Paper/GUI_Paint.c ****             }
 1932              		.loc 1 365 17 is_stmt 1 view .LVU567
 1933              	.LBB199:
 1934              	.LBI174:
 200:User/e-Paper/GUI_Paint.c **** {
 1935              		.loc 1 200 6 view .LVU568
 1936              	.LBB193:
 202:User/e-Paper/GUI_Paint.c ****     {
 1937              		.loc 1 202 5 view .LVU569
 202:User/e-Paper/GUI_Paint.c ****     {
 1938              		.loc 1 202 23 is_stmt 0 view .LVU570
 1939 0086 A588     		ldrh	r5, [r4, #4]
 202:User/e-Paper/GUI_Paint.c ****     {
 1940              		.loc 1 202 8 view .LVU571
 1941 0088 B542     		cmp	r5, r6
 1942 008a 49D3     		bcc	.L136
 202:User/e-Paper/GUI_Paint.c ****     {
 1943              		.loc 1 202 30 view .LVU572
 1944 008c E388     		ldrh	r3, [r4, #6]
 1945 008e 8B42     		cmp	r3, r1
ARM GAS  C:\Users\upo\AppData\Local\Temp\ccEC4369.s 			page 55


 1946 0090 46D3     		bcc	.L136
 1947              	.LBE193:
 1948              	.LBE199:
 365:User/e-Paper/GUI_Paint.c ****             }
 1949              		.loc 1 365 70 view .LVU573
 1950 0092 009B     		ldr	r3, [sp]
 1951              	.LBB200:
 1952              	.LBB194:
 1953              	.LBB188:
 1954              	.LBB183:
 209:User/e-Paper/GUI_Paint.c ****     {
 1955              		.loc 1 209 18 view .LVU574
 1956 0094 E089     		ldrh	r0, [r4, #14]
 1957              	.LBE183:
 1958              	.LBE188:
 1959              	.LBE194:
 1960              	.LBE200:
 365:User/e-Paper/GUI_Paint.c ****             }
 1961              		.loc 1 365 70 view .LVU575
 1962 0096 9B18     		adds	r3, r3, r2
 1963 0098 9BB2     		uxth	r3, r3
 1964              	.LVL175:
 1965              	.LBB201:
 1966              	.LBB195:
 1967              	.LBB189:
 1968              	.LBI176:
 200:User/e-Paper/GUI_Paint.c **** {
 1969              		.loc 1 200 6 is_stmt 1 view .LVU576
 1970              	.LBB184:
 207:User/e-Paper/GUI_Paint.c **** 
 1971              		.loc 1 207 5 view .LVU577
 209:User/e-Paper/GUI_Paint.c ****     {
 1972              		.loc 1 209 5 view .LVU578
 1973 009a B428     		cmp	r0, #180
 1974 009c 00D1     		bne	.LCB1949
 1975 009e 8BE0     		b	.L137	@long jump
 1976              	.LCB1949:
 1977 00a0 61D8     		bhi	.L138
 1978 00a2 0028     		cmp	r0, #0
 1979 00a4 00D1     		bne	.LCB1953
 1980 00a6 84E0     		b	.L153	@long jump
 1981              	.LCB1953:
 1982 00a8 5A28     		cmp	r0, #90
 1983 00aa 39D1     		bne	.L136
 216:User/e-Paper/GUI_Paint.c ****         Y = Xpoint;
 1984              		.loc 1 216 9 view .LVU579
 216:User/e-Paper/GUI_Paint.c ****         Y = Xpoint;
 1985              		.loc 1 216 11 is_stmt 0 view .LVU580
 1986 00ac 2089     		ldrh	r0, [r4, #8]
 1987 00ae 0138     		subs	r0, r0, #1
 1988 00b0 4044     		add	r0, r0, r8
 1989 00b2 C01A     		subs	r0, r0, r3
 218:User/e-Paper/GUI_Paint.c ****     case 180:
 1990              		.loc 1 218 9 view .LVU581
 1991 00b4 3300     		movs	r3, r6
 216:User/e-Paper/GUI_Paint.c ****         Y = Xpoint;
 1992              		.loc 1 216 11 view .LVU582
ARM GAS  C:\Users\upo\AppData\Local\Temp\ccEC4369.s 			page 56


 1993 00b6 80B2     		uxth	r0, r0
 1994              	.LVL176:
 217:User/e-Paper/GUI_Paint.c ****         break;
 1995              		.loc 1 217 9 is_stmt 1 view .LVU583
 218:User/e-Paper/GUI_Paint.c ****     case 180:
 1996              		.loc 1 218 9 view .LVU584
 1997              	.L139:
 231:User/e-Paper/GUI_Paint.c ****     {
 1998              		.loc 1 231 5 view .LVU585
 231:User/e-Paper/GUI_Paint.c ****     {
 1999              		.loc 1 231 18 is_stmt 0 view .LVU586
 2000 00b8 278A     		ldrh	r7, [r4, #16]
 231:User/e-Paper/GUI_Paint.c ****     {
 2001              		.loc 1 231 5 view .LVU587
 2002 00ba 022F     		cmp	r7, #2
 2003 00bc 61D0     		beq	.L142
 2004              	.L162:
 231:User/e-Paper/GUI_Paint.c ****     {
 2005              		.loc 1 231 5 view .LVU588
 2006 00be 022F     		cmp	r7, #2
 2007 00c0 00D9     		bls	.LCB1983
 2008 00c2 6AE0     		b	.L143	@long jump
 2009              	.LCB1983:
 2010 00c4 002F     		cmp	r7, #0
 2011 00c6 65D0     		beq	.L157
 236:User/e-Paper/GUI_Paint.c ****         break;
 2012              		.loc 1 236 9 is_stmt 1 view .LVU589
 236:User/e-Paper/GUI_Paint.c ****         break;
 2013              		.loc 1 236 18 is_stmt 0 view .LVU590
 2014 00c8 2789     		ldrh	r7, [r4, #8]
 2015 00ca B946     		mov	r9, r7
 236:User/e-Paper/GUI_Paint.c ****         break;
 2016              		.loc 1 236 11 view .LVU591
 2017 00cc 013F     		subs	r7, r7, #1
 2018 00ce 381A     		subs	r0, r7, r0
 2019              	.LVL177:
 236:User/e-Paper/GUI_Paint.c ****         break;
 2020              		.loc 1 236 11 view .LVU592
 2021 00d0 80B2     		uxth	r0, r0
 2022              	.LVL178:
 237:User/e-Paper/GUI_Paint.c ****     case MIRROR_VERTICAL:
 2023              		.loc 1 237 9 is_stmt 1 view .LVU593
 2024              	.L147:
 249:User/e-Paper/GUI_Paint.c ****     {
 2025              		.loc 1 249 5 view .LVU594
 249:User/e-Paper/GUI_Paint.c ****     {
 2026              		.loc 1 249 8 is_stmt 0 view .LVU595
 2027 00d2 4845     		cmp	r0, r9
 2028 00d4 24D8     		bhi	.L136
 249:User/e-Paper/GUI_Paint.c ****     {
 2029              		.loc 1 249 31 view .LVU596
 2030 00d6 6789     		ldrh	r7, [r4, #10]
 2031 00d8 9F42     		cmp	r7, r3
 2032 00da 21D3     		bcc	.L136
 255:User/e-Paper/GUI_Paint.c ****     {
 2033              		.loc 1 255 5 is_stmt 1 view .LVU597
 255:User/e-Paper/GUI_Paint.c ****     {
ARM GAS  C:\Users\upo\AppData\Local\Temp\ccEC4369.s 			page 57


 2034              		.loc 1 255 14 is_stmt 0 view .LVU598
 2035 00dc E78A     		ldrh	r7, [r4, #22]
 255:User/e-Paper/GUI_Paint.c ****     {
 2036              		.loc 1 255 8 view .LVU599
 2037 00de 022F     		cmp	r7, #2
 2038 00e0 00D1     		bne	.LCB2013
 2039 00e2 7AE0     		b	.L158	@long jump
 2040              	.LCB2013:
 264:User/e-Paper/GUI_Paint.c ****     {
 2041              		.loc 1 264 10 is_stmt 1 view .LVU600
 264:User/e-Paper/GUI_Paint.c ****     {
 2042              		.loc 1 264 13 is_stmt 0 view .LVU601
 2043 00e4 042F     		cmp	r7, #4
 2044 00e6 00D1     		bne	.LCB2016
 2045 00e8 99E0     		b	.L159	@long jump
 2046              	.LCB2016:
 273:User/e-Paper/GUI_Paint.c ****     {
 2047              		.loc 1 273 10 is_stmt 1 view .LVU602
 273:User/e-Paper/GUI_Paint.c ****     {
 2048              		.loc 1 273 13 is_stmt 0 view .LVU603
 2049 00ea 072F     		cmp	r7, #7
 2050 00ec 18D1     		bne	.L136
 2051              	.LBB179:
 275:User/e-Paper/GUI_Paint.c ****         UBYTE Rdata = Paint.Image[Addr];
 2052              		.loc 1 275 9 is_stmt 1 view .LVU604
 2053              	.LVL179:
 276:User/e-Paper/GUI_Paint.c ****         Rdata = Rdata & (~(0xF0 >> ((X % 2) * 4))); // Clear first, then set value
 2054              		.loc 1 276 9 view .LVU605
 275:User/e-Paper/GUI_Paint.c ****         UBYTE Rdata = Paint.Image[Addr];
 2055              		.loc 1 275 41 is_stmt 0 view .LVU606
 2056 00ee 678A     		ldrh	r7, [r4, #18]
 275:User/e-Paper/GUI_Paint.c ****         UBYTE Rdata = Paint.Image[Addr];
 2057              		.loc 1 275 34 view .LVU607
 2058 00f0 5F43     		muls	r7, r3
 2059 00f2 B946     		mov	r9, r7
 275:User/e-Paper/GUI_Paint.c ****         UBYTE Rdata = Paint.Image[Addr];
 2060              		.loc 1 275 26 view .LVU608
 2061 00f4 4308     		lsrs	r3, r0, #1
 2062              	.LVL180:
 275:User/e-Paper/GUI_Paint.c ****         UBYTE Rdata = Paint.Image[Addr];
 2063              		.loc 1 275 26 view .LVU609
 2064 00f6 9BB2     		uxth	r3, r3
 275:User/e-Paper/GUI_Paint.c ****         UBYTE Rdata = Paint.Image[Addr];
 2065              		.loc 1 275 30 view .LVU610
 2066 00f8 9944     		add	r9, r9, r3
 277:User/e-Paper/GUI_Paint.c ****         Paint.Image[Addr] = Rdata | ((Color << 4) >> ((X % 2) * 4));
 2067              		.loc 1 277 40 view .LVU611
 2068 00fa 0123     		movs	r3, #1
 2069 00fc 0340     		ands	r3, r0
 277:User/e-Paper/GUI_Paint.c ****         Paint.Image[Addr] = Rdata | ((Color << 4) >> ((X % 2) * 4));
 2070              		.loc 1 277 33 view .LVU612
 2071 00fe F020     		movs	r0, #240
 2072              	.LVL181:
 277:User/e-Paper/GUI_Paint.c ****         Paint.Image[Addr] = Rdata | ((Color << 4) >> ((X % 2) * 4));
 2073              		.loc 1 277 45 view .LVU613
 2074 0100 9B00     		lsls	r3, r3, #2
 277:User/e-Paper/GUI_Paint.c ****         Paint.Image[Addr] = Rdata | ((Color << 4) >> ((X % 2) * 4));
ARM GAS  C:\Users\upo\AppData\Local\Temp\ccEC4369.s 			page 58


 2075              		.loc 1 277 33 view .LVU614
 2076 0102 1841     		asrs	r0, r0, r3
 2077 0104 0693     		str	r3, [sp, #24]
 277:User/e-Paper/GUI_Paint.c ****         Paint.Image[Addr] = Rdata | ((Color << 4) >> ((X % 2) * 4));
 2078              		.loc 1 277 23 view .LVU615
 2079 0106 4B46     		mov	r3, r9
 276:User/e-Paper/GUI_Paint.c ****         Rdata = Rdata & (~(0xF0 >> ((X % 2) * 4))); // Clear first, then set value
 2080              		.loc 1 276 34 view .LVU616
 2081 0108 2768     		ldr	r7, [r4]
 2082              	.LVL182:
 277:User/e-Paper/GUI_Paint.c ****         Paint.Image[Addr] = Rdata | ((Color << 4) >> ((X % 2) * 4));
 2083              		.loc 1 277 9 is_stmt 1 view .LVU617
 278:User/e-Paper/GUI_Paint.c ****         // printf("Add =  %d ,data = %d\r\n",Addr,Rdata);
 2084              		.loc 1 278 9 view .LVU618
 277:User/e-Paper/GUI_Paint.c ****         Paint.Image[Addr] = Rdata | ((Color << 4) >> ((X % 2) * 4));
 2085              		.loc 1 277 23 is_stmt 0 view .LVU619
 2086 010a FB5C     		ldrb	r3, [r7, r3]
 2087 010c 8343     		bics	r3, r0
 2088 010e 9A46     		mov	r10, r3
 278:User/e-Paper/GUI_Paint.c ****         // printf("Add =  %d ,data = %d\r\n",Addr,Rdata);
 2089              		.loc 1 278 45 view .LVU620
 2090 0110 0598     		ldr	r0, [sp, #20]
 278:User/e-Paper/GUI_Paint.c ****         // printf("Add =  %d ,data = %d\r\n",Addr,Rdata);
 2091              		.loc 1 278 51 view .LVU621
 2092 0112 069B     		ldr	r3, [sp, #24]
 278:User/e-Paper/GUI_Paint.c ****         // printf("Add =  %d ,data = %d\r\n",Addr,Rdata);
 2093              		.loc 1 278 45 view .LVU622
 2094 0114 0001     		lsls	r0, r0, #4
 278:User/e-Paper/GUI_Paint.c ****         // printf("Add =  %d ,data = %d\r\n",Addr,Rdata);
 2095              		.loc 1 278 51 view .LVU623
 2096 0116 1841     		asrs	r0, r0, r3
 278:User/e-Paper/GUI_Paint.c ****         // printf("Add =  %d ,data = %d\r\n",Addr,Rdata);
 2097              		.loc 1 278 35 view .LVU624
 2098 0118 5346     		mov	r3, r10
 2099 011a 0343     		orrs	r3, r0
 278:User/e-Paper/GUI_Paint.c ****         // printf("Add =  %d ,data = %d\r\n",Addr,Rdata);
 2100              		.loc 1 278 27 view .LVU625
 2101 011c 4846     		mov	r0, r9
 2102 011e 3B54     		strb	r3, [r7, r0]
 2103              	.LVL183:
 2104              	.L136:
 278:User/e-Paper/GUI_Paint.c ****         // printf("Add =  %d ,data = %d\r\n",Addr,Rdata);
 2105              		.loc 1 278 27 view .LVU626
 2106              	.LBE179:
 2107              	.LBE184:
 2108              	.LBE189:
 2109              	.LBE195:
 2110              	.LBE201:
 360:User/e-Paper/GUI_Paint.c ****             {
 2111              		.loc 1 360 70 is_stmt 1 view .LVU627
 2112 0120 0132     		adds	r2, r2, #1
 2113              	.LVL184:
 360:User/e-Paper/GUI_Paint.c ****             {
 2114              		.loc 1 360 70 is_stmt 0 view .LVU628
 2115 0122 93B2     		uxth	r3, r2
 2116 0124 12B2     		sxth	r2, r2
 2117              	.LVL185:
ARM GAS  C:\Users\upo\AppData\Local\Temp\ccEC4369.s 			page 59


 360:User/e-Paper/GUI_Paint.c ****             {
 2118              		.loc 1 360 41 is_stmt 1 view .LVU629
 2119 0126 6345     		cmp	r3, ip
 2120 0128 00DB     		blt	.LCB2093
 2121 012a 73E0     		b	.L160	@long jump
 2122              	.LCB2093:
 2123              	.L151:
 362:User/e-Paper/GUI_Paint.c ****                     break;
 2124              		.loc 1 362 17 view .LVU630
 362:User/e-Paper/GUI_Paint.c ****                     break;
 2125              		.loc 1 362 65 is_stmt 0 view .LVU631
 2126 012c 0098     		ldr	r0, [sp]
 2127 012e 8146     		mov	r9, r0
 2128 0130 4B44     		add	r3, r3, r9
 362:User/e-Paper/GUI_Paint.c ****                     break;
 2129              		.loc 1 362 55 view .LVU632
 2130 0132 4345     		cmp	r3, r8
 2131 0134 00DA     		bge	.LCB2101
 2132 0136 8DE0     		b	.L161	@long jump
 2133              	.LCB2101:
 2134 0138 0131     		adds	r1, r1, #1
 2135 013a 89B2     		uxth	r1, r1
 2136 013c B542     		cmp	r5, r6
 2137 013e A2D2     		bcs	.L152
 2138 0140 4346     		mov	r3, r8
 2139 0142 5D46     		mov	r5, fp
 2140 0144 0700     		movs	r7, r0
 2141 0146 0198     		ldr	r0, [sp, #4]
 2142              	.LVL186:
 2143              	.L135:
 358:User/e-Paper/GUI_Paint.c ****         {
 2144              		.loc 1 358 66 is_stmt 1 view .LVU633
 2145 0148 0130     		adds	r0, r0, #1
 2146 014a 00B2     		sxth	r0, r0
 2147              	.LVL187:
 358:User/e-Paper/GUI_Paint.c ****         {
 2148              		.loc 1 358 37 view .LVU634
 2149 014c 0136     		adds	r6, r6, #1
 2150 014e 0090     		str	r0, [sp]
 2151 0150 B6B2     		uxth	r6, r6
 2152 0152 6045     		cmp	r0, ip
 2153 0154 00DA     		bge	.LCB2123
 2154 0156 84E7     		b	.L132	@long jump
 2155              	.LCB2123:
 2156              	.LVL188:
 2157              	.L129:
 358:User/e-Paper/GUI_Paint.c ****         {
 2158              		.loc 1 358 37 is_stmt 0 view .LVU635
 2159              	.LBE173:
 2160              	.LBE172:
 379:User/e-Paper/GUI_Paint.c **** 
 2161              		.loc 1 379 1 view .LVU636
 2162 0158 09B0     		add	sp, sp, #36
 2163              		@ sp needed
 2164 015a F0BC     		pop	{r4, r5, r6, r7}
 2165 015c BB46     		mov	fp, r7
 2166 015e B246     		mov	r10, r6
ARM GAS  C:\Users\upo\AppData\Local\Temp\ccEC4369.s 			page 60


 2167 0160 A946     		mov	r9, r5
 2168 0162 A046     		mov	r8, r4
 2169 0164 F0BD     		pop	{r4, r5, r6, r7, pc}
 2170              	.LVL189:
 2171              	.L138:
 2172              	.LBB206:
 2173              	.LBB205:
 2174              	.LBB202:
 2175              	.LBB196:
 2176              	.LBB190:
 2177              	.LBB185:
 209:User/e-Paper/GUI_Paint.c ****     {
 2178              		.loc 1 209 5 view .LVU637
 2179 0166 8723     		movs	r3, #135
 2180 0168 5B00     		lsls	r3, r3, #1
 2181 016a 9842     		cmp	r0, r3
 2182 016c D8D1     		bne	.L136
 224:User/e-Paper/GUI_Paint.c ****         Y = Paint.HeightMemory - Xpoint - 1;
 2183              		.loc 1 224 9 is_stmt 1 view .LVU638
 2184              	.LVL190:
 225:User/e-Paper/GUI_Paint.c ****         break;
 2185              		.loc 1 225 9 view .LVU639
 225:User/e-Paper/GUI_Paint.c ****         break;
 2186              		.loc 1 225 11 is_stmt 0 view .LVU640
 2187 016e 6389     		ldrh	r3, [r4, #10]
 2188 0170 0298     		ldr	r0, [sp, #8]
 2189 0172 013B     		subs	r3, r3, #1
 2190 0174 4344     		add	r3, r3, r8
 231:User/e-Paper/GUI_Paint.c ****     {
 2191              		.loc 1 231 18 view .LVU641
 2192 0176 278A     		ldrh	r7, [r4, #16]
 225:User/e-Paper/GUI_Paint.c ****         break;
 2193              		.loc 1 225 11 view .LVU642
 2194 0178 1B1A     		subs	r3, r3, r0
 2195 017a 9BB2     		uxth	r3, r3
 2196              	.LVL191:
 226:User/e-Paper/GUI_Paint.c ****     default:
 2197              		.loc 1 226 9 is_stmt 1 view .LVU643
 2198              	.LBE185:
 2199              	.LBE190:
 2200              	.LBE196:
 2201              	.LBE202:
 365:User/e-Paper/GUI_Paint.c ****             }
 2202              		.loc 1 365 17 is_stmt 0 view .LVU644
 2203 017c 0800     		movs	r0, r1
 2204              	.LVL192:
 2205              	.LBB203:
 2206              	.LBB197:
 2207              	.LBB191:
 2208              	.LBB186:
 231:User/e-Paper/GUI_Paint.c ****     {
 2209              		.loc 1 231 5 is_stmt 1 view .LVU645
 2210 017e 022F     		cmp	r7, #2
 2211 0180 9DD1     		bne	.L162
 2212              	.L142:
 239:User/e-Paper/GUI_Paint.c ****         break;
 2213              		.loc 1 239 9 view .LVU646
ARM GAS  C:\Users\upo\AppData\Local\Temp\ccEC4369.s 			page 61


 239:User/e-Paper/GUI_Paint.c ****         break;
 2214              		.loc 1 239 11 is_stmt 0 view .LVU647
 2215 0182 6789     		ldrh	r7, [r4, #10]
 2216 0184 B946     		mov	r9, r7
 2217 0186 0127     		movs	r7, #1
 2218 0188 7F42     		rsbs	r7, r7, #0
 2219 018a BA46     		mov	r10, r7
 2220 018c D144     		add	r9, r9, r10
 2221 018e 4F46     		mov	r7, r9
 2222 0190 FB1A     		subs	r3, r7, r3
 2223              	.LVL193:
 239:User/e-Paper/GUI_Paint.c ****         break;
 2224              		.loc 1 239 11 view .LVU648
 2225 0192 9BB2     		uxth	r3, r3
 2226              	.LVL194:
 2227              	.L157:
 240:User/e-Paper/GUI_Paint.c ****     case MIRROR_ORIGIN:
 2228              		.loc 1 240 9 is_stmt 1 view .LVU649
 216:User/e-Paper/GUI_Paint.c ****         Y = Xpoint;
 2229              		.loc 1 216 18 is_stmt 0 view .LVU650
 2230 0194 2789     		ldrh	r7, [r4, #8]
 2231 0196 B946     		mov	r9, r7
 240:User/e-Paper/GUI_Paint.c ****     case MIRROR_ORIGIN:
 2232              		.loc 1 240 9 view .LVU651
 2233 0198 9BE7     		b	.L147
 2234              	.L143:
 231:User/e-Paper/GUI_Paint.c ****     {
 2235              		.loc 1 231 5 view .LVU652
 2236 019a 032F     		cmp	r7, #3
 2237 019c C0D1     		bne	.L136
 242:User/e-Paper/GUI_Paint.c ****         Y = Paint.HeightMemory - Y - 1;
 2238              		.loc 1 242 9 is_stmt 1 view .LVU653
 242:User/e-Paper/GUI_Paint.c ****         Y = Paint.HeightMemory - Y - 1;
 2239              		.loc 1 242 18 is_stmt 0 view .LVU654
 2240 019e 2789     		ldrh	r7, [r4, #8]
 2241 01a0 B946     		mov	r9, r7
 242:User/e-Paper/GUI_Paint.c ****         Y = Paint.HeightMemory - Y - 1;
 2242              		.loc 1 242 11 view .LVU655
 2243 01a2 013F     		subs	r7, r7, #1
 2244 01a4 381A     		subs	r0, r7, r0
 2245              	.LVL195:
 243:User/e-Paper/GUI_Paint.c ****         break;
 2246              		.loc 1 243 11 view .LVU656
 2247 01a6 6789     		ldrh	r7, [r4, #10]
 242:User/e-Paper/GUI_Paint.c ****         Y = Paint.HeightMemory - Y - 1;
 2248              		.loc 1 242 11 view .LVU657
 2249 01a8 80B2     		uxth	r0, r0
 2250              	.LVL196:
 243:User/e-Paper/GUI_Paint.c ****         break;
 2251              		.loc 1 243 9 is_stmt 1 view .LVU658
 243:User/e-Paper/GUI_Paint.c ****         break;
 2252              		.loc 1 243 11 is_stmt 0 view .LVU659
 2253 01aa 013F     		subs	r7, r7, #1
 2254 01ac FB1A     		subs	r3, r7, r3
 2255              	.LVL197:
 243:User/e-Paper/GUI_Paint.c ****         break;
 2256              		.loc 1 243 11 view .LVU660
ARM GAS  C:\Users\upo\AppData\Local\Temp\ccEC4369.s 			page 62


 2257 01ae 9BB2     		uxth	r3, r3
 2258              	.LVL198:
 244:User/e-Paper/GUI_Paint.c ****     default:
 2259              		.loc 1 244 9 is_stmt 1 view .LVU661
 2260 01b0 8FE7     		b	.L147
 2261              	.LVL199:
 2262              	.L153:
 209:User/e-Paper/GUI_Paint.c ****     {
 2263              		.loc 1 209 5 is_stmt 0 view .LVU662
 2264 01b2 0B00     		movs	r3, r1
 2265 01b4 3000     		movs	r0, r6
 2266 01b6 7FE7     		b	.L139
 2267              	.L137:
 220:User/e-Paper/GUI_Paint.c ****         Y = Paint.HeightMemory - Ypoint - 1;
 2268              		.loc 1 220 9 is_stmt 1 view .LVU663
 220:User/e-Paper/GUI_Paint.c ****         Y = Paint.HeightMemory - Ypoint - 1;
 2269              		.loc 1 220 11 is_stmt 0 view .LVU664
 2270 01b8 2089     		ldrh	r0, [r4, #8]
 2271 01ba 029F     		ldr	r7, [sp, #8]
 2272 01bc 0138     		subs	r0, r0, #1
 2273 01be 4044     		add	r0, r0, r8
 2274 01c0 C01B     		subs	r0, r0, r7
 221:User/e-Paper/GUI_Paint.c ****         break;
 2275              		.loc 1 221 11 view .LVU665
 2276 01c2 6789     		ldrh	r7, [r4, #10]
 220:User/e-Paper/GUI_Paint.c ****         Y = Paint.HeightMemory - Ypoint - 1;
 2277              		.loc 1 220 11 view .LVU666
 2278 01c4 80B2     		uxth	r0, r0
 2279              	.LVL200:
 221:User/e-Paper/GUI_Paint.c ****         break;
 2280              		.loc 1 221 9 is_stmt 1 view .LVU667
 221:User/e-Paper/GUI_Paint.c ****         break;
 2281              		.loc 1 221 11 is_stmt 0 view .LVU668
 2282 01c6 B946     		mov	r9, r7
 2283 01c8 0127     		movs	r7, #1
 2284 01ca 7F42     		rsbs	r7, r7, #0
 2285 01cc BA46     		mov	r10, r7
 2286 01ce D144     		add	r9, r9, r10
 2287 01d0 C144     		add	r9, r9, r8
 2288 01d2 4F46     		mov	r7, r9
 2289 01d4 FB1A     		subs	r3, r7, r3
 2290 01d6 9BB2     		uxth	r3, r3
 2291              	.LVL201:
 222:User/e-Paper/GUI_Paint.c ****     case 270:
 2292              		.loc 1 222 9 is_stmt 1 view .LVU669
 2293 01d8 6EE7     		b	.L139
 2294              	.L158:
 2295              	.LBB180:
 257:User/e-Paper/GUI_Paint.c ****         UBYTE Rdata = Paint.Image[Addr];
 2296              		.loc 1 257 9 view .LVU670
 2297              	.LVL202:
 258:User/e-Paper/GUI_Paint.c ****         if (Color == BLACK)
 2298              		.loc 1 258 9 view .LVU671
 257:User/e-Paper/GUI_Paint.c ****         UBYTE Rdata = Paint.Image[Addr];
 2299              		.loc 1 257 41 is_stmt 0 view .LVU672
 2300 01da 678A     		ldrh	r7, [r4, #18]
 257:User/e-Paper/GUI_Paint.c ****         UBYTE Rdata = Paint.Image[Addr];
ARM GAS  C:\Users\upo\AppData\Local\Temp\ccEC4369.s 			page 63


 2301              		.loc 1 257 34 view .LVU673
 2302 01dc 5F43     		muls	r7, r3
 2303 01de B946     		mov	r9, r7
 257:User/e-Paper/GUI_Paint.c ****         UBYTE Rdata = Paint.Image[Addr];
 2304              		.loc 1 257 26 view .LVU674
 2305 01e0 C308     		lsrs	r3, r0, #3
 2306              	.LVL203:
 258:User/e-Paper/GUI_Paint.c ****         if (Color == BLACK)
 2307              		.loc 1 258 34 view .LVU675
 2308 01e2 2768     		ldr	r7, [r4]
 257:User/e-Paper/GUI_Paint.c ****         UBYTE Rdata = Paint.Image[Addr];
 2309              		.loc 1 257 26 view .LVU676
 2310 01e4 9BB2     		uxth	r3, r3
 257:User/e-Paper/GUI_Paint.c ****         UBYTE Rdata = Paint.Image[Addr];
 2311              		.loc 1 257 30 view .LVU677
 2312 01e6 4B44     		add	r3, r3, r9
 258:User/e-Paper/GUI_Paint.c ****         if (Color == BLACK)
 2313              		.loc 1 258 34 view .LVU678
 2314 01e8 B946     		mov	r9, r7
 2315 01ea 1F00     		movs	r7, r3
 2316 01ec 4F44     		add	r7, r7, r9
 2317 01ee BA46     		mov	r10, r7
 258:User/e-Paper/GUI_Paint.c ****         if (Color == BLACK)
 2318              		.loc 1 258 15 view .LVU679
 2319 01f0 4F46     		mov	r7, r9
 2320 01f2 FB5C     		ldrb	r3, [r7, r3]
 2321              	.LVL204:
 259:User/e-Paper/GUI_Paint.c ****             Paint.Image[Addr] = Rdata & ~(0x80 >> (X % 8));
 2322              		.loc 1 259 9 is_stmt 1 view .LVU680
 260:User/e-Paper/GUI_Paint.c ****         else
 2323              		.loc 1 260 54 is_stmt 0 view .LVU681
 2324 01f4 0727     		movs	r7, #7
 2325 01f6 0740     		ands	r7, r0
 260:User/e-Paper/GUI_Paint.c ****         else
 2326              		.loc 1 260 48 view .LVU682
 2327 01f8 8020     		movs	r0, #128
 2328              	.LVL205:
 260:User/e-Paper/GUI_Paint.c ****         else
 2329              		.loc 1 260 48 view .LVU683
 2330 01fa 3841     		asrs	r0, r0, r7
 259:User/e-Paper/GUI_Paint.c ****             Paint.Image[Addr] = Rdata & ~(0x80 >> (X % 8));
 2331              		.loc 1 259 12 view .LVU684
 2332 01fc 059F     		ldr	r7, [sp, #20]
 2333 01fe 002F     		cmp	r7, #0
 2334 0200 2DD1     		bne	.L149
 260:User/e-Paper/GUI_Paint.c ****         else
 2335              		.loc 1 260 13 is_stmt 1 view .LVU685
 260:User/e-Paper/GUI_Paint.c ****         else
 2336              		.loc 1 260 31 is_stmt 0 view .LVU686
 2337 0202 5746     		mov	r7, r10
 260:User/e-Paper/GUI_Paint.c ****         else
 2338              		.loc 1 260 39 view .LVU687
 2339 0204 8343     		bics	r3, r0
 2340              	.LVL206:
 260:User/e-Paper/GUI_Paint.c ****         else
 2341              		.loc 1 260 39 view .LVU688
 2342 0206 0132     		adds	r2, r2, #1
ARM GAS  C:\Users\upo\AppData\Local\Temp\ccEC4369.s 			page 64


 2343              	.LVL207:
 260:User/e-Paper/GUI_Paint.c ****         else
 2344              		.loc 1 260 31 view .LVU689
 2345 0208 3B70     		strb	r3, [r7]
 2346              	.LVL208:
 260:User/e-Paper/GUI_Paint.c ****         else
 2347              		.loc 1 260 31 view .LVU690
 2348              	.LBE180:
 2349              	.LBE186:
 2350              	.LBE191:
 2351              	.LBE197:
 2352              	.LBE203:
 360:User/e-Paper/GUI_Paint.c ****             {
 2353              		.loc 1 360 70 is_stmt 1 view .LVU691
 2354 020a 93B2     		uxth	r3, r2
 2355 020c 12B2     		sxth	r2, r2
 2356              	.LVL209:
 360:User/e-Paper/GUI_Paint.c ****             {
 2357              		.loc 1 360 41 view .LVU692
 2358 020e 6345     		cmp	r3, ip
 2359 0210 00DA     		bge	.LCB2345
 2360 0212 8BE7     		b	.L151	@long jump
 2361              	.LCB2345:
 2362              	.L160:
 360:User/e-Paper/GUI_Paint.c ****             {
 2363              		.loc 1 360 41 is_stmt 0 view .LVU693
 2364 0214 4346     		mov	r3, r8
 2365 0216 5D46     		mov	r5, fp
 2366 0218 0198     		ldr	r0, [sp, #4]
 2367 021a 009F     		ldr	r7, [sp]
 2368 021c 94E7     		b	.L135
 2369              	.LVL210:
 2370              	.L159:
 2371              	.LBB204:
 2372              	.LBB198:
 2373              	.LBB192:
 2374              	.LBB187:
 2375              	.LBB181:
 266:User/e-Paper/GUI_Paint.c ****         Color = Color % 4; // Guaranteed color scale is 4  --- 0~3
 2376              		.loc 1 266 9 is_stmt 1 view .LVU694
 267:User/e-Paper/GUI_Paint.c ****         UBYTE Rdata = Paint.Image[Addr];
 2377              		.loc 1 267 9 view .LVU695
 268:User/e-Paper/GUI_Paint.c **** 
 2378              		.loc 1 268 9 view .LVU696
 266:User/e-Paper/GUI_Paint.c ****         Color = Color % 4; // Guaranteed color scale is 4  --- 0~3
 2379              		.loc 1 266 41 is_stmt 0 view .LVU697
 2380 021e 678A     		ldrh	r7, [r4, #18]
 266:User/e-Paper/GUI_Paint.c ****         Color = Color % 4; // Guaranteed color scale is 4  --- 0~3
 2381              		.loc 1 266 34 view .LVU698
 2382 0220 5F43     		muls	r7, r3
 2383 0222 B946     		mov	r9, r7
 266:User/e-Paper/GUI_Paint.c ****         Color = Color % 4; // Guaranteed color scale is 4  --- 0~3
 2384              		.loc 1 266 26 view .LVU699
 2385 0224 8308     		lsrs	r3, r0, #2
 2386              	.LVL211:
 266:User/e-Paper/GUI_Paint.c ****         Color = Color % 4; // Guaranteed color scale is 4  --- 0~3
 2387              		.loc 1 266 26 view .LVU700
ARM GAS  C:\Users\upo\AppData\Local\Temp\ccEC4369.s 			page 65


 2388 0226 9BB2     		uxth	r3, r3
 266:User/e-Paper/GUI_Paint.c ****         Color = Color % 4; // Guaranteed color scale is 4  --- 0~3
 2389              		.loc 1 266 30 view .LVU701
 2390 0228 9944     		add	r9, r9, r3
 270:User/e-Paper/GUI_Paint.c ****         Paint.Image[Addr] = Rdata | ((Color << 6) >> ((X % 4) * 2));
 2391              		.loc 1 270 40 view .LVU702
 2392 022a 0323     		movs	r3, #3
 2393 022c 1840     		ands	r0, r3
 2394              	.LVL212:
 270:User/e-Paper/GUI_Paint.c ****         Paint.Image[Addr] = Rdata | ((Color << 6) >> ((X % 4) * 2));
 2395              		.loc 1 270 45 view .LVU703
 2396 022e 4300     		lsls	r3, r0, #1
 2397 0230 9A46     		mov	r10, r3
 270:User/e-Paper/GUI_Paint.c ****         Paint.Image[Addr] = Rdata | ((Color << 6) >> ((X % 4) * 2));
 2398              		.loc 1 270 33 view .LVU704
 2399 0232 C023     		movs	r3, #192
 2400 0234 5046     		mov	r0, r10
 2401 0236 0341     		asrs	r3, r3, r0
 2402 0238 1800     		movs	r0, r3
 270:User/e-Paper/GUI_Paint.c ****         Paint.Image[Addr] = Rdata | ((Color << 6) >> ((X % 4) * 2));
 2403              		.loc 1 270 23 view .LVU705
 2404 023a 4B46     		mov	r3, r9
 268:User/e-Paper/GUI_Paint.c **** 
 2405              		.loc 1 268 34 view .LVU706
 2406 023c 2768     		ldr	r7, [r4]
 2407              	.LVL213:
 270:User/e-Paper/GUI_Paint.c ****         Paint.Image[Addr] = Rdata | ((Color << 6) >> ((X % 4) * 2));
 2408              		.loc 1 270 9 is_stmt 1 view .LVU707
 271:User/e-Paper/GUI_Paint.c ****     }
 2409              		.loc 1 271 9 view .LVU708
 270:User/e-Paper/GUI_Paint.c ****         Paint.Image[Addr] = Rdata | ((Color << 6) >> ((X % 4) * 2));
 2410              		.loc 1 270 23 is_stmt 0 view .LVU709
 2411 023e FB5C     		ldrb	r3, [r7, r3]
 2412              	.LVL214:
 270:User/e-Paper/GUI_Paint.c ****         Paint.Image[Addr] = Rdata | ((Color << 6) >> ((X % 4) * 2));
 2413              		.loc 1 270 23 view .LVU710
 2414 0240 8343     		bics	r3, r0
 2415 0242 0693     		str	r3, [sp, #24]
 271:User/e-Paper/GUI_Paint.c ****     }
 2416              		.loc 1 271 51 view .LVU711
 2417 0244 5346     		mov	r3, r10
 2418 0246 0798     		ldr	r0, [sp, #28]
 2419 0248 1841     		asrs	r0, r0, r3
 271:User/e-Paper/GUI_Paint.c ****     }
 2420              		.loc 1 271 35 view .LVU712
 2421 024a 069B     		ldr	r3, [sp, #24]
 2422 024c 0343     		orrs	r3, r0
 271:User/e-Paper/GUI_Paint.c ****     }
 2423              		.loc 1 271 27 view .LVU713
 2424 024e 4846     		mov	r0, r9
 2425 0250 3B54     		strb	r3, [r7, r0]
 2426              	.LVL215:
 271:User/e-Paper/GUI_Paint.c ****     }
 2427              		.loc 1 271 27 view .LVU714
 2428              	.LBE181:
 2429 0252 65E7     		b	.L136
 2430              	.LVL216:
ARM GAS  C:\Users\upo\AppData\Local\Temp\ccEC4369.s 			page 66


 2431              	.L161:
 271:User/e-Paper/GUI_Paint.c ****     }
 2432              		.loc 1 271 27 view .LVU715
 2433 0254 4F46     		mov	r7, r9
 2434 0256 4346     		mov	r3, r8
 2435 0258 5D46     		mov	r5, fp
 2436 025a 0198     		ldr	r0, [sp, #4]
 2437 025c 74E7     		b	.L135
 2438              	.LVL217:
 2439              	.L149:
 2440              	.LBB182:
 262:User/e-Paper/GUI_Paint.c ****     }
 2441              		.loc 1 262 13 is_stmt 1 view .LVU716
 262:User/e-Paper/GUI_Paint.c ****     }
 2442              		.loc 1 262 39 is_stmt 0 view .LVU717
 2443 025e 0343     		orrs	r3, r0
 2444              	.LVL218:
 262:User/e-Paper/GUI_Paint.c ****     }
 2445              		.loc 1 262 31 view .LVU718
 2446 0260 5046     		mov	r0, r10
 2447 0262 0370     		strb	r3, [r0]
 2448              	.LVL219:
 262:User/e-Paper/GUI_Paint.c ****     }
 2449              		.loc 1 262 31 view .LVU719
 2450 0264 5CE7     		b	.L136
 2451              	.LVL220:
 2452              	.L130:
 262:User/e-Paper/GUI_Paint.c ****     }
 2453              		.loc 1 262 31 view .LVU720
 2454              	.LBE182:
 2455              	.LBE187:
 2456              	.LBE192:
 2457              	.LBE198:
 2458              	.LBE204:
 2459              	.LBE205:
 2460              	.LBE206:
 349:User/e-Paper/GUI_Paint.c ****         printf("Xpoint = %d , Paint.Width = %d  \r\n ", Xpoint, Paint.Width);
 2461              		.loc 1 349 77 is_stmt 1 view .LVU721
 350:User/e-Paper/GUI_Paint.c ****         printf("Ypoint = %d , Paint.Height = %d  \r\n ", Ypoint, Paint.Height);
 2462              		.loc 1 350 9 view .LVU722
 2463 0266 5946     		mov	r1, fp
 2464 0268 0548     		ldr	r0, .L163+4
 2465 026a FFF7FEFF 		bl	printf_
 2466              	.LVL221:
 351:User/e-Paper/GUI_Paint.c ****         return;
 2467              		.loc 1 351 9 view .LVU723
 2468 026e 4146     		mov	r1, r8
 2469 0270 E288     		ldrh	r2, [r4, #6]
 2470 0272 0448     		ldr	r0, .L163+8
 2471 0274 FFF7FEFF 		bl	printf_
 2472              	.LVL222:
 352:User/e-Paper/GUI_Paint.c ****     }
 2473              		.loc 1 352 9 view .LVU724
 2474 0278 6EE7     		b	.L129
 2475              	.L164:
 2476 027a C046     		.align	2
 2477              	.L163:
ARM GAS  C:\Users\upo\AppData\Local\Temp\ccEC4369.s 			page 67


 2478 027c 00000000 		.word	Paint
 2479 0280 00000000 		.word	.LC3
 2480 0284 24000000 		.word	.LC5
 2481              		.cfi_endproc
 2482              	.LFE1452:
 2484              		.section	.text.Paint_NewImage,"ax",%progbits
 2485              		.align	1
 2486              		.p2align 2,,3
 2487              		.global	Paint_NewImage
 2488              		.syntax unified
 2489              		.code	16
 2490              		.thumb_func
 2492              	Paint_NewImage:
 2493              	.LVL223:
 2494              	.LFB1425:
  93:User/e-Paper/GUI_Paint.c ****     Paint.Image = NULL;
 2495              		.loc 1 93 1 view -0
 2496              		.cfi_startproc
 2497              		@ args = 4, pretend = 0, frame = 0
 2498              		@ frame_needed = 0, uses_anonymous_args = 0
  94:User/e-Paper/GUI_Paint.c ****     Paint.Image = image;
 2499              		.loc 1 94 5 view .LVU726
  95:User/e-Paper/GUI_Paint.c **** 
 2500              		.loc 1 95 5 view .LVU727
  93:User/e-Paper/GUI_Paint.c ****     Paint.Image = NULL;
 2501              		.loc 1 93 1 is_stmt 0 view .LVU728
 2502 0000 30B5     		push	{r4, r5, lr}
 2503              	.LCFI11:
 2504              		.cfi_def_cfa_offset 12
 2505              		.cfi_offset 4, -12
 2506              		.cfi_offset 5, -8
 2507              		.cfi_offset 14, -4
  93:User/e-Paper/GUI_Paint.c ****     Paint.Image = NULL;
 2508              		.loc 1 93 1 view .LVU729
 2509 0002 03AC     		add	r4, sp, #12
 2510              	.LVL224:
  93:User/e-Paper/GUI_Paint.c ****     Paint.Image = NULL;
 2511              		.loc 1 93 1 view .LVU730
 2512 0004 2588     		ldrh	r5, [r4]
  95:User/e-Paper/GUI_Paint.c **** 
 2513              		.loc 1 95 17 view .LVU731
 2514 0006 0D4C     		ldr	r4, .L176
 2515              	.LVL225:
  95:User/e-Paper/GUI_Paint.c **** 
 2516              		.loc 1 95 17 view .LVU732
 2517 0008 2060     		str	r0, [r4]
  97:User/e-Paper/GUI_Paint.c ****     Paint.HeightMemory = Height;
 2518              		.loc 1 97 5 is_stmt 1 view .LVU733
 100:User/e-Paper/GUI_Paint.c **** 
 2519              		.loc 1 100 17 is_stmt 0 view .LVU734
 2520 000a 0220     		movs	r0, #2
 2521              	.LVL226:
  97:User/e-Paper/GUI_Paint.c ****     Paint.HeightMemory = Height;
 2522              		.loc 1 97 23 view .LVU735
 2523 000c 2181     		strh	r1, [r4, #8]
  98:User/e-Paper/GUI_Paint.c ****     Paint.Color = Color;
 2524              		.loc 1 98 5 is_stmt 1 view .LVU736
ARM GAS  C:\Users\upo\AppData\Local\Temp\ccEC4369.s 			page 68


 100:User/e-Paper/GUI_Paint.c **** 
 2525              		.loc 1 100 17 is_stmt 0 view .LVU737
 2526 000e E082     		strh	r0, [r4, #22]
  98:User/e-Paper/GUI_Paint.c ****     Paint.Color = Color;
 2527              		.loc 1 98 24 view .LVU738
 2528 0010 6281     		strh	r2, [r4, #10]
  99:User/e-Paper/GUI_Paint.c ****     Paint.Scale = 2;
 2529              		.loc 1 99 5 is_stmt 1 view .LVU739
  99:User/e-Paper/GUI_Paint.c ****     Paint.Scale = 2;
 2530              		.loc 1 99 17 is_stmt 0 view .LVU740
 2531 0012 A581     		strh	r5, [r4, #12]
 100:User/e-Paper/GUI_Paint.c **** 
 2532              		.loc 1 100 5 is_stmt 1 view .LVU741
 102:User/e-Paper/GUI_Paint.c ****     Paint.HeightByte = Height;
 2533              		.loc 1 102 5 view .LVU742
 102:User/e-Paper/GUI_Paint.c ****     Paint.HeightByte = Height;
 2534              		.loc 1 102 21 is_stmt 0 view .LVU743
 2535 0014 C808     		lsrs	r0, r1, #3
 2536 0016 4D07     		lsls	r5, r1, #29
 2537 0018 00D0     		beq	.L166
 102:User/e-Paper/GUI_Paint.c ****     Paint.HeightByte = Height;
 2538              		.loc 1 102 21 discriminator 2 view .LVU744
 2539 001a 0130     		adds	r0, r0, #1
 2540              	.L166:
 102:User/e-Paper/GUI_Paint.c ****     Paint.HeightByte = Height;
 2541              		.loc 1 102 21 discriminator 4 view .LVU745
 2542 001c 6082     		strh	r0, [r4, #18]
 103:User/e-Paper/GUI_Paint.c ****     //    printf("WidthByte = %d, HeightByte = %d\r\n", Paint.WidthByte, Paint.HeightByte);
 2543              		.loc 1 103 5 is_stmt 1 discriminator 4 view .LVU746
 108:User/e-Paper/GUI_Paint.c **** 
 2544              		.loc 1 108 18 is_stmt 0 discriminator 4 view .LVU747
 2545 001e 0020     		movs	r0, #0
 103:User/e-Paper/GUI_Paint.c ****     //    printf("WidthByte = %d, HeightByte = %d\r\n", Paint.WidthByte, Paint.HeightByte);
 2546              		.loc 1 103 22 discriminator 4 view .LVU748
 2547 0020 A282     		strh	r2, [r4, #20]
 107:User/e-Paper/GUI_Paint.c ****     Paint.Mirror = MIRROR_NONE;
 2548              		.loc 1 107 5 is_stmt 1 discriminator 4 view .LVU749
 107:User/e-Paper/GUI_Paint.c ****     Paint.Mirror = MIRROR_NONE;
 2549              		.loc 1 107 18 is_stmt 0 discriminator 4 view .LVU750
 2550 0022 E381     		strh	r3, [r4, #14]
 108:User/e-Paper/GUI_Paint.c **** 
 2551              		.loc 1 108 5 is_stmt 1 discriminator 4 view .LVU751
 108:User/e-Paper/GUI_Paint.c **** 
 2552              		.loc 1 108 18 is_stmt 0 discriminator 4 view .LVU752
 2553 0024 2082     		strh	r0, [r4, #16]
 110:User/e-Paper/GUI_Paint.c ****     {
 2554              		.loc 1 110 5 is_stmt 1 discriminator 4 view .LVU753
 110:User/e-Paper/GUI_Paint.c ****     {
 2555              		.loc 1 110 8 is_stmt 0 discriminator 4 view .LVU754
 2556 0026 002B     		cmp	r3, #0
 2557 0028 04D0     		beq	.L167
 110:User/e-Paper/GUI_Paint.c ****     {
 2558              		.loc 1 110 28 discriminator 1 view .LVU755
 2559 002a B42B     		cmp	r3, #180
 2560 002c 02D0     		beq	.L167
 2561 002e 0B00     		movs	r3, r1
 2562              	.LVL227:
ARM GAS  C:\Users\upo\AppData\Local\Temp\ccEC4369.s 			page 69


 117:User/e-Paper/GUI_Paint.c ****         Paint.Height = Width;
 2563              		.loc 1 117 21 view .LVU756
 2564 0030 1100     		movs	r1, r2
 2565              	.LVL228:
 118:User/e-Paper/GUI_Paint.c ****     }
 2566              		.loc 1 118 22 view .LVU757
 2567 0032 1A00     		movs	r2, r3
 2568              	.LVL229:
 2569              	.L167:
 120:User/e-Paper/GUI_Paint.c **** 
 2570              		.loc 1 120 1 view .LVU758
 2571              		@ sp needed
 2572 0034 E280     		strh	r2, [r4, #6]
 2573 0036 A180     		strh	r1, [r4, #4]
 120:User/e-Paper/GUI_Paint.c **** 
 2574              		.loc 1 120 1 view .LVU759
 2575 0038 30BD     		pop	{r4, r5, pc}
 2576              	.L177:
 2577 003a C046     		.align	2
 2578              	.L176:
 2579 003c 00000000 		.word	Paint
 2580              		.cfi_endproc
 2581              	.LFE1425:
 2583              		.section	.text.Paint_SelectImage,"ax",%progbits
 2584              		.align	1
 2585              		.p2align 2,,3
 2586              		.global	Paint_SelectImage
 2587              		.syntax unified
 2588              		.code	16
 2589              		.thumb_func
 2591              	Paint_SelectImage:
 2592              	.LVL230:
 2593              	.LFB1426:
 128:User/e-Paper/GUI_Paint.c ****     Paint.Image = image;
 2594              		.loc 1 128 1 is_stmt 1 view -0
 2595              		.cfi_startproc
 2596              		@ args = 0, pretend = 0, frame = 0
 2597              		@ frame_needed = 0, uses_anonymous_args = 0
 2598              		@ link register save eliminated.
 129:User/e-Paper/GUI_Paint.c **** }
 2599              		.loc 1 129 5 view .LVU761
 129:User/e-Paper/GUI_Paint.c **** }
 2600              		.loc 1 129 17 is_stmt 0 view .LVU762
 2601 0000 014B     		ldr	r3, .L179
 130:User/e-Paper/GUI_Paint.c **** 
 2602              		.loc 1 130 1 view .LVU763
 2603              		@ sp needed
 129:User/e-Paper/GUI_Paint.c **** }
 2604              		.loc 1 129 17 view .LVU764
 2605 0002 1860     		str	r0, [r3]
 130:User/e-Paper/GUI_Paint.c **** 
 2606              		.loc 1 130 1 view .LVU765
 2607 0004 7047     		bx	lr
 2608              	.L180:
 2609 0006 C046     		.align	2
 2610              	.L179:
 2611 0008 00000000 		.word	Paint
ARM GAS  C:\Users\upo\AppData\Local\Temp\ccEC4369.s 			page 70


 2612              		.cfi_endproc
 2613              	.LFE1426:
 2615              		.section	.text.Paint_SetRotate,"ax",%progbits
 2616              		.align	1
 2617              		.p2align 2,,3
 2618              		.global	Paint_SetRotate
 2619              		.syntax unified
 2620              		.code	16
 2621              		.thumb_func
 2623              	Paint_SetRotate:
 2624              	.LVL231:
 2625              	.LFB1427:
 138:User/e-Paper/GUI_Paint.c ****     if (Rotate == ROTATE_0 || Rotate == ROTATE_90 || Rotate == ROTATE_180 || Rotate == ROTATE_270)
 2626              		.loc 1 138 1 is_stmt 1 view -0
 2627              		.cfi_startproc
 2628              		@ args = 0, pretend = 0, frame = 0
 2629              		@ frame_needed = 0, uses_anonymous_args = 0
 2630              		@ link register save eliminated.
 139:User/e-Paper/GUI_Paint.c ****     {
 2631              		.loc 1 139 5 view .LVU767
 139:User/e-Paper/GUI_Paint.c ****     {
 2632              		.loc 1 139 8 is_stmt 0 view .LVU768
 2633 0000 0028     		cmp	r0, #0
 2634 0002 07D0     		beq	.L182
 139:User/e-Paper/GUI_Paint.c ****     {
 2635              		.loc 1 139 28 discriminator 1 view .LVU769
 2636 0004 5A28     		cmp	r0, #90
 2637 0006 05D0     		beq	.L182
 139:User/e-Paper/GUI_Paint.c ****     {
 2638              		.loc 1 139 51 discriminator 2 view .LVU770
 2639 0008 B428     		cmp	r0, #180
 2640 000a 03D0     		beq	.L182
 139:User/e-Paper/GUI_Paint.c ****     {
 2641              		.loc 1 139 75 discriminator 3 view .LVU771
 2642 000c 8723     		movs	r3, #135
 2643 000e 5B00     		lsls	r3, r3, #1
 2644 0010 9842     		cmp	r0, r3
 2645 0012 01D1     		bne	.L181
 2646              	.L182:
 141:User/e-Paper/GUI_Paint.c ****         Paint.Rotate = Rotate;
 2647              		.loc 1 141 50 is_stmt 1 view .LVU772
 142:User/e-Paper/GUI_Paint.c ****     }
 2648              		.loc 1 142 9 view .LVU773
 142:User/e-Paper/GUI_Paint.c ****     }
 2649              		.loc 1 142 22 is_stmt 0 view .LVU774
 2650 0014 014B     		ldr	r3, .L193
 2651 0016 D881     		strh	r0, [r3, #14]
 2652              	.L181:
 148:User/e-Paper/GUI_Paint.c **** 
 2653              		.loc 1 148 1 view .LVU775
 2654              		@ sp needed
 2655 0018 7047     		bx	lr
 2656              	.L194:
 2657 001a C046     		.align	2
 2658              	.L193:
 2659 001c 00000000 		.word	Paint
 2660              		.cfi_endproc
ARM GAS  C:\Users\upo\AppData\Local\Temp\ccEC4369.s 			page 71


 2661              	.LFE1427:
 2663              		.section	.text.Paint_SetScale,"ax",%progbits
 2664              		.align	1
 2665              		.p2align 2,,3
 2666              		.global	Paint_SetScale
 2667              		.syntax unified
 2668              		.code	16
 2669              		.thumb_func
 2671              	Paint_SetScale:
 2672              	.LVL232:
 2673              	.LFB1428:
 151:User/e-Paper/GUI_Paint.c ****     if (scale == 2)
 2674              		.loc 1 151 1 is_stmt 1 view -0
 2675              		.cfi_startproc
 2676              		@ args = 0, pretend = 0, frame = 0
 2677              		@ frame_needed = 0, uses_anonymous_args = 0
 2678              		@ link register save eliminated.
 152:User/e-Paper/GUI_Paint.c ****     {
 2679              		.loc 1 152 5 view .LVU777
 152:User/e-Paper/GUI_Paint.c ****     {
 2680              		.loc 1 152 8 is_stmt 0 view .LVU778
 2681 0000 0228     		cmp	r0, #2
 2682 0002 0CD0     		beq	.L216
 157:User/e-Paper/GUI_Paint.c ****     {
 2683              		.loc 1 157 10 is_stmt 1 view .LVU779
 157:User/e-Paper/GUI_Paint.c ****     {
 2684              		.loc 1 157 13 is_stmt 0 view .LVU780
 2685 0004 0428     		cmp	r0, #4
 2686 0006 02D0     		beq	.L217
 162:User/e-Paper/GUI_Paint.c ****     { // Only applicable with 5in65 e-Paper
 2687              		.loc 1 162 10 is_stmt 1 view .LVU781
 162:User/e-Paper/GUI_Paint.c ****     { // Only applicable with 5in65 e-Paper
 2688              		.loc 1 162 13 is_stmt 0 view .LVU782
 2689 0008 0728     		cmp	r0, #7
 2690 000a 11D0     		beq	.L218
 2691              	.L195:
 172:User/e-Paper/GUI_Paint.c **** /******************************************************************************
 2692              		.loc 1 172 1 view .LVU783
 2693              		@ sp needed
 2694 000c 7047     		bx	lr
 2695              	.L217:
 159:User/e-Paper/GUI_Paint.c ****         Paint.WidthByte = (Paint.WidthMemory % 4 == 0) ? (Paint.WidthMemory / 4) : (Paint.WidthMemo
 2696              		.loc 1 159 9 is_stmt 1 view .LVU784
 159:User/e-Paper/GUI_Paint.c ****         Paint.WidthByte = (Paint.WidthMemory % 4 == 0) ? (Paint.WidthMemory / 4) : (Paint.WidthMemo
 2697              		.loc 1 159 21 is_stmt 0 view .LVU785
 2698 000e 0C4B     		ldr	r3, .L219
 160:User/e-Paper/GUI_Paint.c ****     }
 2699              		.loc 1 160 33 view .LVU786
 2700 0010 1A89     		ldrh	r2, [r3, #8]
 159:User/e-Paper/GUI_Paint.c ****         Paint.WidthByte = (Paint.WidthMemory % 4 == 0) ? (Paint.WidthMemory / 4) : (Paint.WidthMemo
 2701              		.loc 1 159 21 view .LVU787
 2702 0012 D882     		strh	r0, [r3, #22]
 160:User/e-Paper/GUI_Paint.c ****     }
 2703              		.loc 1 160 9 is_stmt 1 view .LVU788
 160:User/e-Paper/GUI_Paint.c ****     }
 2704              		.loc 1 160 25 is_stmt 0 view .LVU789
 2705 0014 9108     		lsrs	r1, r2, #2
ARM GAS  C:\Users\upo\AppData\Local\Temp\ccEC4369.s 			page 72


 2706 0016 9207     		lsls	r2, r2, #30
 2707 0018 07D1     		bne	.L214
 2708              	.L201:
 165:User/e-Paper/GUI_Paint.c ****     }
 2709              		.loc 1 165 25 discriminator 4 view .LVU790
 2710 001a 5982     		strh	r1, [r3, #18]
 169:User/e-Paper/GUI_Paint.c ****         DE_BUG("Scale Only support: 2 4 7\r\n");
 2711              		.loc 1 169 54 is_stmt 1 discriminator 4 view .LVU791
 170:User/e-Paper/GUI_Paint.c ****     }
 2712              		.loc 1 170 48 discriminator 4 view .LVU792
 172:User/e-Paper/GUI_Paint.c **** /******************************************************************************
 2713              		.loc 1 172 1 is_stmt 0 discriminator 4 view .LVU793
 2714 001c F6E7     		b	.L195
 2715              	.L216:
 154:User/e-Paper/GUI_Paint.c ****         Paint.WidthByte = (Paint.WidthMemory % 8 == 0) ? (Paint.WidthMemory / 8) : (Paint.WidthMemo
 2716              		.loc 1 154 9 is_stmt 1 view .LVU794
 154:User/e-Paper/GUI_Paint.c ****         Paint.WidthByte = (Paint.WidthMemory % 8 == 0) ? (Paint.WidthMemory / 8) : (Paint.WidthMemo
 2717              		.loc 1 154 21 is_stmt 0 view .LVU795
 2718 001e 084B     		ldr	r3, .L219
 155:User/e-Paper/GUI_Paint.c ****     }
 2719              		.loc 1 155 33 view .LVU796
 2720 0020 1A89     		ldrh	r2, [r3, #8]
 154:User/e-Paper/GUI_Paint.c ****         Paint.WidthByte = (Paint.WidthMemory % 8 == 0) ? (Paint.WidthMemory / 8) : (Paint.WidthMemo
 2721              		.loc 1 154 21 view .LVU797
 2722 0022 D882     		strh	r0, [r3, #22]
 155:User/e-Paper/GUI_Paint.c ****     }
 2723              		.loc 1 155 9 is_stmt 1 view .LVU798
 155:User/e-Paper/GUI_Paint.c ****     }
 2724              		.loc 1 155 25 is_stmt 0 view .LVU799
 2725 0024 D108     		lsrs	r1, r2, #3
 2726 0026 5207     		lsls	r2, r2, #29
 2727 0028 F7D0     		beq	.L201
 2728              	.L214:
 165:User/e-Paper/GUI_Paint.c ****     }
 2729              		.loc 1 165 25 discriminator 2 view .LVU800
 2730 002a 0131     		adds	r1, r1, #1
 2731 002c 5982     		strh	r1, [r3, #18]
 169:User/e-Paper/GUI_Paint.c ****         DE_BUG("Scale Only support: 2 4 7\r\n");
 2732              		.loc 1 169 54 is_stmt 1 discriminator 2 view .LVU801
 170:User/e-Paper/GUI_Paint.c ****     }
 2733              		.loc 1 170 48 discriminator 2 view .LVU802
 2734 002e EDE7     		b	.L195
 2735              	.L218:
 164:User/e-Paper/GUI_Paint.c ****         Paint.WidthByte = (Paint.WidthMemory % 2 == 0) ? (Paint.WidthMemory / 2) : (Paint.WidthMemo
 2736              		.loc 1 164 9 view .LVU803
 164:User/e-Paper/GUI_Paint.c ****         Paint.WidthByte = (Paint.WidthMemory % 2 == 0) ? (Paint.WidthMemory / 2) : (Paint.WidthMemo
 2737              		.loc 1 164 21 is_stmt 0 view .LVU804
 2738 0030 034B     		ldr	r3, .L219
 165:User/e-Paper/GUI_Paint.c ****     }
 2739              		.loc 1 165 33 view .LVU805
 2740 0032 1A89     		ldrh	r2, [r3, #8]
 164:User/e-Paper/GUI_Paint.c ****         Paint.WidthByte = (Paint.WidthMemory % 2 == 0) ? (Paint.WidthMemory / 2) : (Paint.WidthMemo
 2741              		.loc 1 164 21 view .LVU806
 2742 0034 D882     		strh	r0, [r3, #22]
 165:User/e-Paper/GUI_Paint.c ****     }
 2743              		.loc 1 165 9 is_stmt 1 view .LVU807
 165:User/e-Paper/GUI_Paint.c ****     }
ARM GAS  C:\Users\upo\AppData\Local\Temp\ccEC4369.s 			page 73


 2744              		.loc 1 165 25 is_stmt 0 view .LVU808
 2745 0036 5108     		lsrs	r1, r2, #1
 2746 0038 D207     		lsls	r2, r2, #31
 2747 003a F6D4     		bmi	.L214
 2748 003c 5982     		strh	r1, [r3, #18]
 169:User/e-Paper/GUI_Paint.c ****         DE_BUG("Scale Only support: 2 4 7\r\n");
 2749              		.loc 1 169 54 is_stmt 1 view .LVU809
 170:User/e-Paper/GUI_Paint.c ****     }
 2750              		.loc 1 170 48 view .LVU810
 2751 003e E5E7     		b	.L195
 2752              	.L220:
 2753              		.align	2
 2754              	.L219:
 2755 0040 00000000 		.word	Paint
 2756              		.cfi_endproc
 2757              	.LFE1428:
 2759              		.section	.text.Paint_SetMirroring,"ax",%progbits
 2760              		.align	1
 2761              		.p2align 2,,3
 2762              		.global	Paint_SetMirroring
 2763              		.syntax unified
 2764              		.code	16
 2765              		.thumb_func
 2767              	Paint_SetMirroring:
 2768              	.LVL233:
 2769              	.LFB1429:
 179:User/e-Paper/GUI_Paint.c ****     if (mirror == MIRROR_NONE || mirror == MIRROR_HORIZONTAL ||
 2770              		.loc 1 179 1 view -0
 2771              		.cfi_startproc
 2772              		@ args = 0, pretend = 0, frame = 0
 2773              		@ frame_needed = 0, uses_anonymous_args = 0
 2774              		@ link register save eliminated.
 180:User/e-Paper/GUI_Paint.c ****         mirror == MIRROR_VERTICAL || mirror == MIRROR_ORIGIN)
 2775              		.loc 1 180 5 view .LVU812
 180:User/e-Paper/GUI_Paint.c ****         mirror == MIRROR_VERTICAL || mirror == MIRROR_ORIGIN)
 2776              		.loc 1 180 8 is_stmt 0 view .LVU813
 2777 0000 0328     		cmp	r0, #3
 2778 0002 01D8     		bhi	.L221
 183:User/e-Paper/GUI_Paint.c ****         Paint.Mirror = mirror;
 2779              		.loc 1 183 127 is_stmt 1 view .LVU814
 184:User/e-Paper/GUI_Paint.c ****     }
 2780              		.loc 1 184 9 view .LVU815
 184:User/e-Paper/GUI_Paint.c ****     }
 2781              		.loc 1 184 22 is_stmt 0 view .LVU816
 2782 0004 014B     		ldr	r3, .L223
 2783 0006 1882     		strh	r0, [r3, #16]
 189:User/e-Paper/GUI_Paint.c ****     }
 2784              		.loc 1 189 47 is_stmt 1 view .LVU817
 2785              	.L221:
 191:User/e-Paper/GUI_Paint.c **** 
 2786              		.loc 1 191 1 is_stmt 0 view .LVU818
 2787              		@ sp needed
 2788 0008 7047     		bx	lr
 2789              	.L224:
 2790 000a C046     		.align	2
 2791              	.L223:
 2792 000c 00000000 		.word	Paint
ARM GAS  C:\Users\upo\AppData\Local\Temp\ccEC4369.s 			page 74


 2793              		.cfi_endproc
 2794              	.LFE1429:
 2796              		.section	.text.Paint_SetPixel,"ax",%progbits
 2797              		.align	1
 2798              		.p2align 2,,3
 2799              		.global	Paint_SetPixel
 2800              		.syntax unified
 2801              		.code	16
 2802              		.thumb_func
 2804              	Paint_SetPixel:
 2805              	.LVL234:
 2806              	.LFB1430:
 201:User/e-Paper/GUI_Paint.c ****     if (Xpoint > Paint.Width || Ypoint > Paint.Height)
 2807              		.loc 1 201 1 is_stmt 1 view -0
 2808              		.cfi_startproc
 2809              		@ args = 0, pretend = 0, frame = 0
 2810              		@ frame_needed = 0, uses_anonymous_args = 0
 202:User/e-Paper/GUI_Paint.c ****     {
 2811              		.loc 1 202 5 view .LVU820
 201:User/e-Paper/GUI_Paint.c ****     if (Xpoint > Paint.Width || Ypoint > Paint.Height)
 2812              		.loc 1 201 1 is_stmt 0 view .LVU821
 2813 0000 70B5     		push	{r4, r5, r6, lr}
 2814              	.LCFI12:
 2815              		.cfi_def_cfa_offset 16
 2816              		.cfi_offset 4, -16
 2817              		.cfi_offset 5, -12
 2818              		.cfi_offset 6, -8
 2819              		.cfi_offset 14, -4
 202:User/e-Paper/GUI_Paint.c ****     {
 2820              		.loc 1 202 23 view .LVU822
 2821 0002 454B     		ldr	r3, .L250
 202:User/e-Paper/GUI_Paint.c ****     {
 2822              		.loc 1 202 8 view .LVU823
 2823 0004 9C88     		ldrh	r4, [r3, #4]
 2824 0006 8442     		cmp	r4, r0
 2825 0008 25D3     		bcc	.L225
 202:User/e-Paper/GUI_Paint.c ****     {
 2826              		.loc 1 202 30 discriminator 1 view .LVU824
 2827 000a DC88     		ldrh	r4, [r3, #6]
 2828 000c 8C42     		cmp	r4, r1
 2829 000e 22D3     		bcc	.L225
 2830              	.LVL235:
 2831              	.LBB212:
 2832              	.LBI212:
 200:User/e-Paper/GUI_Paint.c **** {
 2833              		.loc 1 200 6 is_stmt 1 view .LVU825
 2834              	.LBB213:
 207:User/e-Paper/GUI_Paint.c **** 
 2835              		.loc 1 207 5 view .LVU826
 209:User/e-Paper/GUI_Paint.c ****     {
 2836              		.loc 1 209 5 view .LVU827
 209:User/e-Paper/GUI_Paint.c ****     {
 2837              		.loc 1 209 18 is_stmt 0 view .LVU828
 2838 0010 DC89     		ldrh	r4, [r3, #14]
 209:User/e-Paper/GUI_Paint.c ****     {
 2839              		.loc 1 209 5 view .LVU829
 2840 0012 B42C     		cmp	r4, #180
ARM GAS  C:\Users\upo\AppData\Local\Temp\ccEC4369.s 			page 75


 2841 0014 3DD0     		beq	.L227
 2842 0016 2AD8     		bhi	.L228
 2843 0018 002C     		cmp	r4, #0
 2844 001a 06D0     		beq	.L229
 2845 001c 5A2C     		cmp	r4, #90
 2846 001e 1AD1     		bne	.L225
 216:User/e-Paper/GUI_Paint.c ****         Y = Xpoint;
 2847              		.loc 1 216 9 is_stmt 1 view .LVU830
 216:User/e-Paper/GUI_Paint.c ****         Y = Xpoint;
 2848              		.loc 1 216 11 is_stmt 0 view .LVU831
 2849 0020 1C89     		ldrh	r4, [r3, #8]
 2850 0022 013C     		subs	r4, r4, #1
 2851 0024 641A     		subs	r4, r4, r1
 2852              	.LVL236:
 217:User/e-Paper/GUI_Paint.c ****         break;
 2853              		.loc 1 217 9 is_stmt 1 view .LVU832
 218:User/e-Paper/GUI_Paint.c ****     case 180:
 2854              		.loc 1 218 9 view .LVU833
 2855 0026 0100     		movs	r1, r0
 2856              	.LVL237:
 216:User/e-Paper/GUI_Paint.c ****         Y = Xpoint;
 2857              		.loc 1 216 11 is_stmt 0 view .LVU834
 2858 0028 A0B2     		uxth	r0, r4
 2859              	.LVL238:
 2860              	.L229:
 231:User/e-Paper/GUI_Paint.c ****     {
 2861              		.loc 1 231 5 is_stmt 1 view .LVU835
 231:User/e-Paper/GUI_Paint.c ****     {
 2862              		.loc 1 231 18 is_stmt 0 view .LVU836
 2863 002a 1C8A     		ldrh	r4, [r3, #16]
 231:User/e-Paper/GUI_Paint.c ****     {
 2864              		.loc 1 231 5 view .LVU837
 2865 002c 022C     		cmp	r4, #2
 2866 002e 28D0     		beq	.L232
 2867 0030 12D8     		bhi	.L233
 2868 0032 002C     		cmp	r4, #0
 2869 0034 29D0     		beq	.L245
 236:User/e-Paper/GUI_Paint.c ****         break;
 2870              		.loc 1 236 9 is_stmt 1 view .LVU838
 236:User/e-Paper/GUI_Paint.c ****         break;
 2871              		.loc 1 236 18 is_stmt 0 view .LVU839
 2872 0036 1C89     		ldrh	r4, [r3, #8]
 236:User/e-Paper/GUI_Paint.c ****         break;
 2873              		.loc 1 236 11 view .LVU840
 2874 0038 651E     		subs	r5, r4, #1
 2875 003a 281A     		subs	r0, r5, r0
 2876              	.LVL239:
 236:User/e-Paper/GUI_Paint.c ****         break;
 2877              		.loc 1 236 11 view .LVU841
 2878 003c 80B2     		uxth	r0, r0
 2879              	.LVL240:
 237:User/e-Paper/GUI_Paint.c ****     case MIRROR_VERTICAL:
 2880              		.loc 1 237 9 is_stmt 1 view .LVU842
 2881              	.L237:
 249:User/e-Paper/GUI_Paint.c ****     {
 2882              		.loc 1 249 5 view .LVU843
 249:User/e-Paper/GUI_Paint.c ****     {
ARM GAS  C:\Users\upo\AppData\Local\Temp\ccEC4369.s 			page 76


 2883              		.loc 1 249 8 is_stmt 0 view .LVU844
 2884 003e 8442     		cmp	r4, r0
 2885 0040 09D3     		bcc	.L225
 2886              	.L249:
 249:User/e-Paper/GUI_Paint.c ****     {
 2887              		.loc 1 249 31 view .LVU845
 2888 0042 5C89     		ldrh	r4, [r3, #10]
 2889 0044 8C42     		cmp	r4, r1
 2890 0046 06D3     		bcc	.L225
 255:User/e-Paper/GUI_Paint.c ****     {
 2891              		.loc 1 255 5 is_stmt 1 view .LVU846
 255:User/e-Paper/GUI_Paint.c ****     {
 2892              		.loc 1 255 14 is_stmt 0 view .LVU847
 2893 0048 DC8A     		ldrh	r4, [r3, #22]
 255:User/e-Paper/GUI_Paint.c ****     {
 2894              		.loc 1 255 8 view .LVU848
 2895 004a 022C     		cmp	r4, #2
 2896 004c 3CD0     		beq	.L246
 264:User/e-Paper/GUI_Paint.c ****     {
 2897              		.loc 1 264 10 is_stmt 1 view .LVU849
 264:User/e-Paper/GUI_Paint.c ****     {
 2898              		.loc 1 264 13 is_stmt 0 view .LVU850
 2899 004e 042C     		cmp	r4, #4
 2900 0050 4BD0     		beq	.L247
 273:User/e-Paper/GUI_Paint.c ****     {
 2901              		.loc 1 273 10 is_stmt 1 view .LVU851
 273:User/e-Paper/GUI_Paint.c ****     {
 2902              		.loc 1 273 13 is_stmt 0 view .LVU852
 2903 0052 072C     		cmp	r4, #7
 2904 0054 26D0     		beq	.L248
 2905              	.LVL241:
 2906              	.L225:
 273:User/e-Paper/GUI_Paint.c ****     {
 2907              		.loc 1 273 13 view .LVU853
 2908              	.LBE213:
 2909              	.LBE212:
 281:User/e-Paper/GUI_Paint.c **** 
 2910              		.loc 1 281 1 view .LVU854
 2911              		@ sp needed
 2912 0056 70BD     		pop	{r4, r5, r6, pc}
 2913              	.LVL242:
 2914              	.L233:
 2915              	.LBB219:
 2916              	.LBB218:
 231:User/e-Paper/GUI_Paint.c ****     {
 2917              		.loc 1 231 5 view .LVU855
 2918 0058 032C     		cmp	r4, #3
 2919 005a FCD1     		bne	.L225
 242:User/e-Paper/GUI_Paint.c ****         Y = Paint.HeightMemory - Y - 1;
 2920              		.loc 1 242 9 is_stmt 1 view .LVU856
 242:User/e-Paper/GUI_Paint.c ****         Y = Paint.HeightMemory - Y - 1;
 2921              		.loc 1 242 18 is_stmt 0 view .LVU857
 2922 005c 1C89     		ldrh	r4, [r3, #8]
 242:User/e-Paper/GUI_Paint.c ****         Y = Paint.HeightMemory - Y - 1;
 2923              		.loc 1 242 11 view .LVU858
 2924 005e 651E     		subs	r5, r4, #1
 2925 0060 281A     		subs	r0, r5, r0
ARM GAS  C:\Users\upo\AppData\Local\Temp\ccEC4369.s 			page 77


 2926              	.LVL243:
 243:User/e-Paper/GUI_Paint.c ****         break;
 2927              		.loc 1 243 11 view .LVU859
 2928 0062 5D89     		ldrh	r5, [r3, #10]
 242:User/e-Paper/GUI_Paint.c ****         Y = Paint.HeightMemory - Y - 1;
 2929              		.loc 1 242 11 view .LVU860
 2930 0064 80B2     		uxth	r0, r0
 2931              	.LVL244:
 243:User/e-Paper/GUI_Paint.c ****         break;
 2932              		.loc 1 243 9 is_stmt 1 view .LVU861
 243:User/e-Paper/GUI_Paint.c ****         break;
 2933              		.loc 1 243 11 is_stmt 0 view .LVU862
 2934 0066 013D     		subs	r5, r5, #1
 2935 0068 691A     		subs	r1, r5, r1
 2936              	.LVL245:
 243:User/e-Paper/GUI_Paint.c ****         break;
 2937              		.loc 1 243 11 view .LVU863
 2938 006a 89B2     		uxth	r1, r1
 2939              	.LVL246:
 244:User/e-Paper/GUI_Paint.c ****     default:
 2940              		.loc 1 244 9 is_stmt 1 view .LVU864
 2941 006c E7E7     		b	.L237
 2942              	.LVL247:
 2943              	.L228:
 209:User/e-Paper/GUI_Paint.c ****     {
 2944              		.loc 1 209 5 is_stmt 0 view .LVU865
 2945 006e 8725     		movs	r5, #135
 2946 0070 6D00     		lsls	r5, r5, #1
 2947 0072 AC42     		cmp	r4, r5
 2948 0074 EFD1     		bne	.L225
 224:User/e-Paper/GUI_Paint.c ****         Y = Paint.HeightMemory - Xpoint - 1;
 2949              		.loc 1 224 9 is_stmt 1 view .LVU866
 2950              	.LVL248:
 225:User/e-Paper/GUI_Paint.c ****         break;
 2951              		.loc 1 225 9 view .LVU867
 225:User/e-Paper/GUI_Paint.c ****         break;
 2952              		.loc 1 225 11 is_stmt 0 view .LVU868
 2953 0076 5C89     		ldrh	r4, [r3, #10]
 2954 0078 013C     		subs	r4, r4, #1
 2955 007a 241A     		subs	r4, r4, r0
 2956              	.LVL249:
 226:User/e-Paper/GUI_Paint.c ****     default:
 2957              		.loc 1 226 9 is_stmt 1 view .LVU869
 2958 007c 0800     		movs	r0, r1
 2959              	.LVL250:
 225:User/e-Paper/GUI_Paint.c ****         break;
 2960              		.loc 1 225 11 is_stmt 0 view .LVU870
 2961 007e A1B2     		uxth	r1, r4
 2962              	.LVL251:
 226:User/e-Paper/GUI_Paint.c ****     default:
 2963              		.loc 1 226 9 view .LVU871
 2964 0080 D3E7     		b	.L229
 2965              	.LVL252:
 2966              	.L232:
 239:User/e-Paper/GUI_Paint.c ****         break;
 2967              		.loc 1 239 9 is_stmt 1 view .LVU872
 239:User/e-Paper/GUI_Paint.c ****         break;
ARM GAS  C:\Users\upo\AppData\Local\Temp\ccEC4369.s 			page 78


 2968              		.loc 1 239 11 is_stmt 0 view .LVU873
 2969 0082 5C89     		ldrh	r4, [r3, #10]
 2970 0084 013C     		subs	r4, r4, #1
 2971 0086 611A     		subs	r1, r4, r1
 2972              	.LVL253:
 239:User/e-Paper/GUI_Paint.c ****         break;
 2973              		.loc 1 239 11 view .LVU874
 2974 0088 89B2     		uxth	r1, r1
 2975              	.L245:
 2976              	.LVL254:
 240:User/e-Paper/GUI_Paint.c ****     case MIRROR_ORIGIN:
 2977              		.loc 1 240 9 is_stmt 1 view .LVU875
 216:User/e-Paper/GUI_Paint.c ****         Y = Xpoint;
 2978              		.loc 1 216 18 is_stmt 0 view .LVU876
 2979 008a 1C89     		ldrh	r4, [r3, #8]
 249:User/e-Paper/GUI_Paint.c ****     {
 2980              		.loc 1 249 5 is_stmt 1 view .LVU877
 249:User/e-Paper/GUI_Paint.c ****     {
 2981              		.loc 1 249 8 is_stmt 0 view .LVU878
 2982 008c 8442     		cmp	r4, r0
 2983 008e D8D2     		bcs	.L249
 2984 0090 E1E7     		b	.L225
 2985              	.LVL255:
 2986              	.L227:
 220:User/e-Paper/GUI_Paint.c ****         Y = Paint.HeightMemory - Ypoint - 1;
 2987              		.loc 1 220 9 is_stmt 1 view .LVU879
 220:User/e-Paper/GUI_Paint.c ****         Y = Paint.HeightMemory - Ypoint - 1;
 2988              		.loc 1 220 11 is_stmt 0 view .LVU880
 2989 0092 1C89     		ldrh	r4, [r3, #8]
 2990 0094 013C     		subs	r4, r4, #1
 2991 0096 201A     		subs	r0, r4, r0
 2992              	.LVL256:
 221:User/e-Paper/GUI_Paint.c ****         break;
 2993              		.loc 1 221 11 view .LVU881
 2994 0098 5C89     		ldrh	r4, [r3, #10]
 220:User/e-Paper/GUI_Paint.c ****         Y = Paint.HeightMemory - Ypoint - 1;
 2995              		.loc 1 220 11 view .LVU882
 2996 009a 80B2     		uxth	r0, r0
 2997              	.LVL257:
 221:User/e-Paper/GUI_Paint.c ****         break;
 2998              		.loc 1 221 9 is_stmt 1 view .LVU883
 221:User/e-Paper/GUI_Paint.c ****         break;
 2999              		.loc 1 221 11 is_stmt 0 view .LVU884
 3000 009c 013C     		subs	r4, r4, #1
 3001 009e 611A     		subs	r1, r4, r1
 3002              	.LVL258:
 221:User/e-Paper/GUI_Paint.c ****         break;
 3003              		.loc 1 221 11 view .LVU885
 3004 00a0 89B2     		uxth	r1, r1
 3005              	.LVL259:
 222:User/e-Paper/GUI_Paint.c ****     case 270:
 3006              		.loc 1 222 9 is_stmt 1 view .LVU886
 3007 00a2 C2E7     		b	.L229
 3008              	.L248:
 3009              	.LBB214:
 275:User/e-Paper/GUI_Paint.c ****         UBYTE Rdata = Paint.Image[Addr];
 3010              		.loc 1 275 9 view .LVU887
ARM GAS  C:\Users\upo\AppData\Local\Temp\ccEC4369.s 			page 79


 3011              	.LVL260:
 276:User/e-Paper/GUI_Paint.c ****         Rdata = Rdata & (~(0xF0 >> ((X % 2) * 4))); // Clear first, then set value
 3012              		.loc 1 276 9 view .LVU888
 275:User/e-Paper/GUI_Paint.c ****         UBYTE Rdata = Paint.Image[Addr];
 3013              		.loc 1 275 41 is_stmt 0 view .LVU889
 3014 00a4 5C8A     		ldrh	r4, [r3, #18]
 276:User/e-Paper/GUI_Paint.c ****         Rdata = Rdata & (~(0xF0 >> ((X % 2) * 4))); // Clear first, then set value
 3015              		.loc 1 276 34 view .LVU890
 3016 00a6 1D68     		ldr	r5, [r3]
 275:User/e-Paper/GUI_Paint.c ****         UBYTE Rdata = Paint.Image[Addr];
 3017              		.loc 1 275 34 view .LVU891
 3018 00a8 6143     		muls	r1, r4
 3019              	.LVL261:
 277:User/e-Paper/GUI_Paint.c ****         Paint.Image[Addr] = Rdata | ((Color << 4) >> ((X % 2) * 4));
 3020              		.loc 1 277 40 view .LVU892
 3021 00aa 0123     		movs	r3, #1
 275:User/e-Paper/GUI_Paint.c ****         UBYTE Rdata = Paint.Image[Addr];
 3022              		.loc 1 275 26 view .LVU893
 3023 00ac 4408     		lsrs	r4, r0, #1
 3024 00ae A4B2     		uxth	r4, r4
 275:User/e-Paper/GUI_Paint.c ****         UBYTE Rdata = Paint.Image[Addr];
 3025              		.loc 1 275 30 view .LVU894
 3026 00b0 0919     		adds	r1, r1, r4
 3027              	.LVL262:
 277:User/e-Paper/GUI_Paint.c ****         Paint.Image[Addr] = Rdata | ((Color << 4) >> ((X % 2) * 4));
 3028              		.loc 1 277 9 is_stmt 1 view .LVU895
 277:User/e-Paper/GUI_Paint.c ****         Paint.Image[Addr] = Rdata | ((Color << 4) >> ((X % 2) * 4));
 3029              		.loc 1 277 33 is_stmt 0 view .LVU896
 3030 00b2 F024     		movs	r4, #240
 277:User/e-Paper/GUI_Paint.c ****         Paint.Image[Addr] = Rdata | ((Color << 4) >> ((X % 2) * 4));
 3031              		.loc 1 277 40 view .LVU897
 3032 00b4 0340     		ands	r3, r0
 277:User/e-Paper/GUI_Paint.c ****         Paint.Image[Addr] = Rdata | ((Color << 4) >> ((X % 2) * 4));
 3033              		.loc 1 277 45 view .LVU898
 3034 00b6 9B00     		lsls	r3, r3, #2
 3035              	.LVL263:
 278:User/e-Paper/GUI_Paint.c ****         // printf("Add =  %d ,data = %d\r\n",Addr,Rdata);
 3036              		.loc 1 278 9 is_stmt 1 view .LVU899
 277:User/e-Paper/GUI_Paint.c ****         Paint.Image[Addr] = Rdata | ((Color << 4) >> ((X % 2) * 4));
 3037              		.loc 1 277 33 is_stmt 0 view .LVU900
 3038 00b8 1C41     		asrs	r4, r4, r3
 278:User/e-Paper/GUI_Paint.c ****         // printf("Add =  %d ,data = %d\r\n",Addr,Rdata);
 3039              		.loc 1 278 45 view .LVU901
 3040 00ba 1201     		lsls	r2, r2, #4
 3041              	.LVL264:
 278:User/e-Paper/GUI_Paint.c ****         // printf("Add =  %d ,data = %d\r\n",Addr,Rdata);
 3042              		.loc 1 278 51 view .LVU902
 3043 00bc 1A41     		asrs	r2, r2, r3
 277:User/e-Paper/GUI_Paint.c ****         Paint.Image[Addr] = Rdata | ((Color << 4) >> ((X % 2) * 4));
 3044              		.loc 1 277 23 view .LVU903
 3045 00be 685C     		ldrb	r0, [r5, r1]
 3046              	.LVL265:
 277:User/e-Paper/GUI_Paint.c ****         Paint.Image[Addr] = Rdata | ((Color << 4) >> ((X % 2) * 4));
 3047              		.loc 1 277 23 view .LVU904
 3048 00c0 A043     		bics	r0, r4
 278:User/e-Paper/GUI_Paint.c ****         // printf("Add =  %d ,data = %d\r\n",Addr,Rdata);
 3049              		.loc 1 278 35 view .LVU905
ARM GAS  C:\Users\upo\AppData\Local\Temp\ccEC4369.s 			page 80


 3050 00c2 0243     		orrs	r2, r0
 278:User/e-Paper/GUI_Paint.c ****         // printf("Add =  %d ,data = %d\r\n",Addr,Rdata);
 3051              		.loc 1 278 27 view .LVU906
 3052 00c4 6A54     		strb	r2, [r5, r1]
 3053              	.LVL266:
 278:User/e-Paper/GUI_Paint.c ****         // printf("Add =  %d ,data = %d\r\n",Addr,Rdata);
 3054              		.loc 1 278 27 view .LVU907
 3055 00c6 C6E7     		b	.L225
 3056              	.LVL267:
 3057              	.L246:
 278:User/e-Paper/GUI_Paint.c ****         // printf("Add =  %d ,data = %d\r\n",Addr,Rdata);
 3058              		.loc 1 278 27 view .LVU908
 3059              	.LBE214:
 3060              	.LBB215:
 257:User/e-Paper/GUI_Paint.c ****         UBYTE Rdata = Paint.Image[Addr];
 3061              		.loc 1 257 9 is_stmt 1 view .LVU909
 258:User/e-Paper/GUI_Paint.c ****         if (Color == BLACK)
 3062              		.loc 1 258 9 view .LVU910
 257:User/e-Paper/GUI_Paint.c ****         UBYTE Rdata = Paint.Image[Addr];
 3063              		.loc 1 257 41 is_stmt 0 view .LVU911
 3064 00c8 5C8A     		ldrh	r4, [r3, #18]
 258:User/e-Paper/GUI_Paint.c ****         if (Color == BLACK)
 3065              		.loc 1 258 34 view .LVU912
 3066 00ca 1B68     		ldr	r3, [r3]
 257:User/e-Paper/GUI_Paint.c ****         UBYTE Rdata = Paint.Image[Addr];
 3067              		.loc 1 257 34 view .LVU913
 3068 00cc 6143     		muls	r1, r4
 3069              	.LVL268:
 257:User/e-Paper/GUI_Paint.c ****         UBYTE Rdata = Paint.Image[Addr];
 3070              		.loc 1 257 26 view .LVU914
 3071 00ce C408     		lsrs	r4, r0, #3
 3072 00d0 A4B2     		uxth	r4, r4
 257:User/e-Paper/GUI_Paint.c ****         UBYTE Rdata = Paint.Image[Addr];
 3073              		.loc 1 257 30 view .LVU915
 3074 00d2 0919     		adds	r1, r1, r4
 258:User/e-Paper/GUI_Paint.c ****         if (Color == BLACK)
 3075              		.loc 1 258 15 view .LVU916
 3076 00d4 5C5C     		ldrb	r4, [r3, r1]
 3077              	.LVL269:
 259:User/e-Paper/GUI_Paint.c ****             Paint.Image[Addr] = Rdata & ~(0x80 >> (X % 8));
 3078              		.loc 1 259 9 is_stmt 1 view .LVU917
 258:User/e-Paper/GUI_Paint.c ****         if (Color == BLACK)
 3079              		.loc 1 258 34 is_stmt 0 view .LVU918
 3080 00d6 5D18     		adds	r5, r3, r1
 260:User/e-Paper/GUI_Paint.c ****         else
 3081              		.loc 1 260 54 view .LVU919
 3082 00d8 0723     		movs	r3, #7
 260:User/e-Paper/GUI_Paint.c ****         else
 3083              		.loc 1 260 48 view .LVU920
 3084 00da 8021     		movs	r1, #128
 260:User/e-Paper/GUI_Paint.c ****         else
 3085              		.loc 1 260 54 view .LVU921
 3086 00dc 0340     		ands	r3, r0
 260:User/e-Paper/GUI_Paint.c ****         else
 3087              		.loc 1 260 48 view .LVU922
 3088 00de 1941     		asrs	r1, r1, r3
 259:User/e-Paper/GUI_Paint.c ****             Paint.Image[Addr] = Rdata & ~(0x80 >> (X % 8));
ARM GAS  C:\Users\upo\AppData\Local\Temp\ccEC4369.s 			page 81


 3089              		.loc 1 259 12 view .LVU923
 3090 00e0 002A     		cmp	r2, #0
 3091 00e2 15D1     		bne	.L239
 260:User/e-Paper/GUI_Paint.c ****         else
 3092              		.loc 1 260 13 is_stmt 1 view .LVU924
 260:User/e-Paper/GUI_Paint.c ****         else
 3093              		.loc 1 260 39 is_stmt 0 view .LVU925
 3094 00e4 8C43     		bics	r4, r1
 3095              	.LVL270:
 260:User/e-Paper/GUI_Paint.c ****         else
 3096              		.loc 1 260 31 view .LVU926
 3097 00e6 2C70     		strb	r4, [r5]
 3098              	.LVL271:
 260:User/e-Paper/GUI_Paint.c ****         else
 3099              		.loc 1 260 31 view .LVU927
 3100 00e8 B5E7     		b	.L225
 3101              	.LVL272:
 3102              	.L247:
 260:User/e-Paper/GUI_Paint.c ****         else
 3103              		.loc 1 260 31 view .LVU928
 3104              	.LBE215:
 3105              	.LBB216:
 266:User/e-Paper/GUI_Paint.c ****         Color = Color % 4; // Guaranteed color scale is 4  --- 0~3
 3106              		.loc 1 266 9 is_stmt 1 view .LVU929
 267:User/e-Paper/GUI_Paint.c ****         UBYTE Rdata = Paint.Image[Addr];
 3107              		.loc 1 267 9 view .LVU930
 268:User/e-Paper/GUI_Paint.c **** 
 3108              		.loc 1 268 9 view .LVU931
 266:User/e-Paper/GUI_Paint.c ****         Color = Color % 4; // Guaranteed color scale is 4  --- 0~3
 3109              		.loc 1 266 41 is_stmt 0 view .LVU932
 3110 00ea 5C8A     		ldrh	r4, [r3, #18]
 268:User/e-Paper/GUI_Paint.c **** 
 3111              		.loc 1 268 34 view .LVU933
 3112 00ec 1D68     		ldr	r5, [r3]
 270:User/e-Paper/GUI_Paint.c ****         Paint.Image[Addr] = Rdata | ((Color << 6) >> ((X % 4) * 2));
 3113              		.loc 1 270 40 view .LVU934
 3114 00ee 0323     		movs	r3, #3
 270:User/e-Paper/GUI_Paint.c ****         Paint.Image[Addr] = Rdata | ((Color << 6) >> ((X % 4) * 2));
 3115              		.loc 1 270 33 view .LVU935
 3116 00f0 C026     		movs	r6, #192
 266:User/e-Paper/GUI_Paint.c ****         Color = Color % 4; // Guaranteed color scale is 4  --- 0~3
 3117              		.loc 1 266 34 view .LVU936
 3118 00f2 6143     		muls	r1, r4
 3119              	.LVL273:
 266:User/e-Paper/GUI_Paint.c ****         Color = Color % 4; // Guaranteed color scale is 4  --- 0~3
 3120              		.loc 1 266 26 view .LVU937
 3121 00f4 8408     		lsrs	r4, r0, #2
 270:User/e-Paper/GUI_Paint.c ****         Paint.Image[Addr] = Rdata | ((Color << 6) >> ((X % 4) * 2));
 3122              		.loc 1 270 40 view .LVU938
 3123 00f6 1840     		ands	r0, r3
 3124              	.LVL274:
 270:User/e-Paper/GUI_Paint.c ****         Paint.Image[Addr] = Rdata | ((Color << 6) >> ((X % 4) * 2));
 3125              		.loc 1 270 45 view .LVU939
 3126 00f8 4000     		lsls	r0, r0, #1
 271:User/e-Paper/GUI_Paint.c ****     }
 3127              		.loc 1 271 45 view .LVU940
 3128 00fa 1340     		ands	r3, r2
ARM GAS  C:\Users\upo\AppData\Local\Temp\ccEC4369.s 			page 82


 270:User/e-Paper/GUI_Paint.c ****         Paint.Image[Addr] = Rdata | ((Color << 6) >> ((X % 4) * 2));
 3129              		.loc 1 270 33 view .LVU941
 3130 00fc 0641     		asrs	r6, r6, r0
 271:User/e-Paper/GUI_Paint.c ****     }
 3131              		.loc 1 271 45 view .LVU942
 3132 00fe 9B01     		lsls	r3, r3, #6
 271:User/e-Paper/GUI_Paint.c ****     }
 3133              		.loc 1 271 51 view .LVU943
 3134 0100 0341     		asrs	r3, r3, r0
 266:User/e-Paper/GUI_Paint.c ****         Color = Color % 4; // Guaranteed color scale is 4  --- 0~3
 3135              		.loc 1 266 26 view .LVU944
 3136 0102 A4B2     		uxth	r4, r4
 266:User/e-Paper/GUI_Paint.c ****         Color = Color % 4; // Guaranteed color scale is 4  --- 0~3
 3137              		.loc 1 266 30 view .LVU945
 3138 0104 0919     		adds	r1, r1, r4
 3139              	.LVL275:
 270:User/e-Paper/GUI_Paint.c ****         Paint.Image[Addr] = Rdata | ((Color << 6) >> ((X % 4) * 2));
 3140              		.loc 1 270 9 is_stmt 1 view .LVU946
 271:User/e-Paper/GUI_Paint.c ****     }
 3141              		.loc 1 271 9 view .LVU947
 270:User/e-Paper/GUI_Paint.c ****         Paint.Image[Addr] = Rdata | ((Color << 6) >> ((X % 4) * 2));
 3142              		.loc 1 270 23 is_stmt 0 view .LVU948
 3143 0106 6C5C     		ldrb	r4, [r5, r1]
 3144 0108 B443     		bics	r4, r6
 271:User/e-Paper/GUI_Paint.c ****     }
 3145              		.loc 1 271 35 view .LVU949
 3146 010a 2343     		orrs	r3, r4
 271:User/e-Paper/GUI_Paint.c ****     }
 3147              		.loc 1 271 27 view .LVU950
 3148 010c 6B54     		strb	r3, [r5, r1]
 3149              	.LVL276:
 271:User/e-Paper/GUI_Paint.c ****     }
 3150              		.loc 1 271 27 view .LVU951
 3151              	.LBE216:
 3152 010e A2E7     		b	.L225
 3153              	.LVL277:
 3154              	.L239:
 3155              	.LBB217:
 262:User/e-Paper/GUI_Paint.c ****     }
 3156              		.loc 1 262 13 is_stmt 1 view .LVU952
 262:User/e-Paper/GUI_Paint.c ****     }
 3157              		.loc 1 262 39 is_stmt 0 view .LVU953
 3158 0110 0C43     		orrs	r4, r1
 3159              	.LVL278:
 262:User/e-Paper/GUI_Paint.c ****     }
 3160              		.loc 1 262 31 view .LVU954
 3161 0112 2C70     		strb	r4, [r5]
 3162              	.LVL279:
 262:User/e-Paper/GUI_Paint.c ****     }
 3163              		.loc 1 262 31 view .LVU955
 3164 0114 9FE7     		b	.L225
 3165              	.L251:
 3166 0116 C046     		.align	2
 3167              	.L250:
 3168 0118 00000000 		.word	Paint
 3169              	.LBE217:
 3170              	.LBE218:
ARM GAS  C:\Users\upo\AppData\Local\Temp\ccEC4369.s 			page 83


 3171              	.LBE219:
 3172              		.cfi_endproc
 3173              	.LFE1430:
 3175              		.section	.text.Paint_Clear,"ax",%progbits
 3176              		.align	1
 3177              		.p2align 2,,3
 3178              		.global	Paint_Clear
 3179              		.syntax unified
 3180              		.code	16
 3181              		.thumb_func
 3183              	Paint_Clear:
 3184              	.LVL280:
 3185              	.LFB1431:
 289:User/e-Paper/GUI_Paint.c ****     if (Paint.Scale == 2 || Paint.Scale == 4)
 3186              		.loc 1 289 1 is_stmt 1 view -0
 3187              		.cfi_startproc
 3188              		@ args = 0, pretend = 0, frame = 0
 3189              		@ frame_needed = 0, uses_anonymous_args = 0
 290:User/e-Paper/GUI_Paint.c ****     {
 3190              		.loc 1 290 5 view .LVU957
 289:User/e-Paper/GUI_Paint.c ****     if (Paint.Scale == 2 || Paint.Scale == 4)
 3191              		.loc 1 289 1 is_stmt 0 view .LVU958
 3192 0000 30B5     		push	{r4, r5, lr}
 3193              	.LCFI13:
 3194              		.cfi_def_cfa_offset 12
 3195              		.cfi_offset 4, -12
 3196              		.cfi_offset 5, -8
 3197              		.cfi_offset 14, -4
 290:User/e-Paper/GUI_Paint.c ****     {
 3198              		.loc 1 290 14 view .LVU959
 3199 0002 1D4C     		ldr	r4, .L271
 290:User/e-Paper/GUI_Paint.c ****     {
 3200              		.loc 1 290 8 view .LVU960
 3201 0004 1D4A     		ldr	r2, .L271+4
 290:User/e-Paper/GUI_Paint.c ****     {
 3202              		.loc 1 290 14 view .LVU961
 3203 0006 E38A     		ldrh	r3, [r4, #22]
 290:User/e-Paper/GUI_Paint.c ****     {
 3204              		.loc 1 290 8 view .LVU962
 3205 0008 991E     		subs	r1, r3, #2
 3206 000a 1142     		tst	r1, r2
 3207 000c 02D0     		beq	.L269
 301:User/e-Paper/GUI_Paint.c ****     {
 3208              		.loc 1 301 10 is_stmt 1 view .LVU963
 301:User/e-Paper/GUI_Paint.c ****     {
 3209              		.loc 1 301 13 is_stmt 0 view .LVU964
 3210 000e 072B     		cmp	r3, #7
 3211 0010 18D0     		beq	.L270
 3212              	.LVL281:
 3213              	.L252:
 312:User/e-Paper/GUI_Paint.c **** 
 3214              		.loc 1 312 1 view .LVU965
 3215              		@ sp needed
 3216 0012 30BD     		pop	{r4, r5, pc}
 3217              	.LVL282:
 3218              	.L269:
 3219              	.LBB220:
ARM GAS  C:\Users\upo\AppData\Local\Temp\ccEC4369.s 			page 84


 292:User/e-Paper/GUI_Paint.c ****         {
 3220              		.loc 1 292 29 is_stmt 1 discriminator 1 view .LVU966
 3221 0014 A38A     		ldrh	r3, [r4, #20]
 3222 0016 002B     		cmp	r3, #0
 3223 0018 FBD0     		beq	.L252
 3224              	.LBE220:
 3225              	.LBB224:
 3226              	.LBB225:
 305:User/e-Paper/GUI_Paint.c ****             {
 3227              		.loc 1 305 40 is_stmt 0 view .LVU967
 3228 001a 0025     		movs	r5, #0
 3229 001c 628A     		ldrh	r2, [r4, #18]
 3230              	.LBE225:
 3231              	.LBE224:
 3232              	.LBB231:
 3233              	.LBB221:
 3234              	.LBB222:
 297:User/e-Paper/GUI_Paint.c ****             }
 3235              		.loc 1 297 35 view .LVU968
 3236 001e C0B2     		uxtb	r0, r0
 3237              	.LVL283:
 3238              	.L255:
 297:User/e-Paper/GUI_Paint.c ****             }
 3239              		.loc 1 297 35 view .LVU969
 3240              	.LBE222:
 294:User/e-Paper/GUI_Paint.c ****             { // 8 pixel =  1 byte
 3241              		.loc 1 294 33 is_stmt 1 view .LVU970
 3242 0020 002A     		cmp	r2, #0
 3243 0022 F6D0     		beq	.L252
 294:User/e-Paper/GUI_Paint.c ****             { // 8 pixel =  1 byte
 3244              		.loc 1 294 24 is_stmt 0 view .LVU971
 3245 0024 0023     		movs	r3, #0
 3246              	.LVL284:
 3247              	.L256:
 3248              	.LBB223:
 296:User/e-Paper/GUI_Paint.c ****                 Paint.Image[Addr] = Color;
 3249              		.loc 1 296 17 is_stmt 1 discriminator 3 view .LVU972
 297:User/e-Paper/GUI_Paint.c ****             }
 3250              		.loc 1 297 17 discriminator 3 view .LVU973
 296:User/e-Paper/GUI_Paint.c ****                 Paint.Image[Addr] = Color;
 3251              		.loc 1 296 38 is_stmt 0 discriminator 3 view .LVU974
 3252 0026 6A43     		muls	r2, r5
 3253              	.LVL285:
 297:User/e-Paper/GUI_Paint.c ****             }
 3254              		.loc 1 297 35 discriminator 3 view .LVU975
 3255 0028 2168     		ldr	r1, [r4]
 3256 002a C918     		adds	r1, r1, r3
 3257 002c 8854     		strb	r0, [r1, r2]
 3258              	.LBE223:
 294:User/e-Paper/GUI_Paint.c ****             { // 8 pixel =  1 byte
 3259              		.loc 1 294 53 is_stmt 1 discriminator 3 view .LVU976
 3260 002e 0133     		adds	r3, r3, #1
 3261              	.LVL286:
 294:User/e-Paper/GUI_Paint.c ****             { // 8 pixel =  1 byte
 3262              		.loc 1 294 40 is_stmt 0 discriminator 3 view .LVU977
 3263 0030 628A     		ldrh	r2, [r4, #18]
 294:User/e-Paper/GUI_Paint.c ****             { // 8 pixel =  1 byte
ARM GAS  C:\Users\upo\AppData\Local\Temp\ccEC4369.s 			page 85


 3264              		.loc 1 294 53 discriminator 3 view .LVU978
 3265 0032 9BB2     		uxth	r3, r3
 3266              	.LVL287:
 294:User/e-Paper/GUI_Paint.c ****             { // 8 pixel =  1 byte
 3267              		.loc 1 294 33 is_stmt 1 discriminator 3 view .LVU979
 3268 0034 9A42     		cmp	r2, r3
 3269 0036 F6D8     		bhi	.L256
 3270              	.LBE221:
 292:User/e-Paper/GUI_Paint.c ****         {
 3271              		.loc 1 292 50 view .LVU980
 3272 0038 0135     		adds	r5, r5, #1
 3273              	.LVL288:
 292:User/e-Paper/GUI_Paint.c ****         {
 3274              		.loc 1 292 29 is_stmt 0 view .LVU981
 3275 003a A38A     		ldrh	r3, [r4, #20]
 3276              	.LVL289:
 292:User/e-Paper/GUI_Paint.c ****         {
 3277              		.loc 1 292 50 view .LVU982
 3278 003c ADB2     		uxth	r5, r5
 3279              	.LVL290:
 292:User/e-Paper/GUI_Paint.c ****         {
 3280              		.loc 1 292 29 is_stmt 1 view .LVU983
 3281 003e AB42     		cmp	r3, r5
 3282 0040 EED8     		bhi	.L255
 3283 0042 E6E7     		b	.L252
 3284              	.LVL291:
 3285              	.L270:
 292:User/e-Paper/GUI_Paint.c ****         {
 3286              		.loc 1 292 29 is_stmt 0 view .LVU984
 3287              	.LBE231:
 3288              	.LBB232:
 303:User/e-Paper/GUI_Paint.c ****         {
 3289              		.loc 1 303 29 is_stmt 1 view .LVU985
 3290 0044 A38A     		ldrh	r3, [r4, #20]
 3291 0046 002B     		cmp	r3, #0
 3292 0048 E3D0     		beq	.L252
 3293              	.LBB229:
 3294              	.LBB226:
 308:User/e-Paper/GUI_Paint.c ****             }
 3295              		.loc 1 308 44 is_stmt 0 view .LVU986
 3296 004a 0501     		lsls	r5, r0, #4
 308:User/e-Paper/GUI_Paint.c ****             }
 3297              		.loc 1 308 50 view .LVU987
 3298 004c 0543     		orrs	r5, r0
 3299              	.LBE226:
 3300              	.LBE229:
 303:User/e-Paper/GUI_Paint.c ****         {
 3301              		.loc 1 303 20 view .LVU988
 3302 004e 0020     		movs	r0, #0
 3303              	.LVL292:
 3304              	.LBB230:
 305:User/e-Paper/GUI_Paint.c ****             {
 3305              		.loc 1 305 40 view .LVU989
 3306 0050 628A     		ldrh	r2, [r4, #18]
 3307              	.LBB227:
 308:User/e-Paper/GUI_Paint.c ****             }
 3308              		.loc 1 308 50 view .LVU990
ARM GAS  C:\Users\upo\AppData\Local\Temp\ccEC4369.s 			page 86


 3309 0052 EDB2     		uxtb	r5, r5
 3310              	.LVL293:
 3311              	.L258:
 308:User/e-Paper/GUI_Paint.c ****             }
 3312              		.loc 1 308 50 view .LVU991
 3313              	.LBE227:
 305:User/e-Paper/GUI_Paint.c ****             {
 3314              		.loc 1 305 33 is_stmt 1 view .LVU992
 3315 0054 002A     		cmp	r2, #0
 3316 0056 DCD0     		beq	.L252
 305:User/e-Paper/GUI_Paint.c ****             {
 3317              		.loc 1 305 24 is_stmt 0 view .LVU993
 3318 0058 0023     		movs	r3, #0
 3319              	.LVL294:
 3320              	.L259:
 3321              	.LBB228:
 307:User/e-Paper/GUI_Paint.c ****                 Paint.Image[Addr] = (Color << 4) | Color;
 3322              		.loc 1 307 17 is_stmt 1 discriminator 3 view .LVU994
 308:User/e-Paper/GUI_Paint.c ****             }
 3323              		.loc 1 308 17 discriminator 3 view .LVU995
 307:User/e-Paper/GUI_Paint.c ****                 Paint.Image[Addr] = (Color << 4) | Color;
 3324              		.loc 1 307 38 is_stmt 0 discriminator 3 view .LVU996
 3325 005a 4243     		muls	r2, r0
 3326              	.LVL295:
 308:User/e-Paper/GUI_Paint.c ****             }
 3327              		.loc 1 308 35 discriminator 3 view .LVU997
 3328 005c 2168     		ldr	r1, [r4]
 3329 005e C918     		adds	r1, r1, r3
 3330 0060 8D54     		strb	r5, [r1, r2]
 3331              	.LBE228:
 305:User/e-Paper/GUI_Paint.c ****             {
 3332              		.loc 1 305 53 is_stmt 1 discriminator 3 view .LVU998
 3333 0062 0133     		adds	r3, r3, #1
 3334              	.LVL296:
 305:User/e-Paper/GUI_Paint.c ****             {
 3335              		.loc 1 305 40 is_stmt 0 discriminator 3 view .LVU999
 3336 0064 628A     		ldrh	r2, [r4, #18]
 305:User/e-Paper/GUI_Paint.c ****             {
 3337              		.loc 1 305 53 discriminator 3 view .LVU1000
 3338 0066 9BB2     		uxth	r3, r3
 3339              	.LVL297:
 305:User/e-Paper/GUI_Paint.c ****             {
 3340              		.loc 1 305 33 is_stmt 1 discriminator 3 view .LVU1001
 3341 0068 9A42     		cmp	r2, r3
 3342 006a F6D8     		bhi	.L259
 3343              	.LBE230:
 303:User/e-Paper/GUI_Paint.c ****         {
 3344              		.loc 1 303 50 view .LVU1002
 3345 006c 0130     		adds	r0, r0, #1
 3346              	.LVL298:
 303:User/e-Paper/GUI_Paint.c ****         {
 3347              		.loc 1 303 29 is_stmt 0 view .LVU1003
 3348 006e A38A     		ldrh	r3, [r4, #20]
 3349              	.LVL299:
 303:User/e-Paper/GUI_Paint.c ****         {
 3350              		.loc 1 303 50 view .LVU1004
 3351 0070 80B2     		uxth	r0, r0
ARM GAS  C:\Users\upo\AppData\Local\Temp\ccEC4369.s 			page 87


 3352              	.LVL300:
 303:User/e-Paper/GUI_Paint.c ****         {
 3353              		.loc 1 303 29 is_stmt 1 view .LVU1005
 3354 0072 8342     		cmp	r3, r0
 3355 0074 EED8     		bhi	.L258
 3356 0076 CCE7     		b	.L252
 3357              	.L272:
 3358              		.align	2
 3359              	.L271:
 3360 0078 00000000 		.word	Paint
 3361 007c FDFF0000 		.word	65533
 3362              	.LBE232:
 3363              		.cfi_endproc
 3364              	.LFE1431:
 3366              		.section	.text.Paint_ClearWindows,"ax",%progbits
 3367              		.align	1
 3368              		.p2align 2,,3
 3369              		.global	Paint_ClearWindows
 3370              		.syntax unified
 3371              		.code	16
 3372              		.thumb_func
 3374              	Paint_ClearWindows:
 3375              	.LVL301:
 3376              	.LFB1432:
 324:User/e-Paper/GUI_Paint.c ****     UWORD X, Y;
 3377              		.loc 1 324 1 view -0
 3378              		.cfi_startproc
 3379              		@ args = 4, pretend = 0, frame = 16
 3380              		@ frame_needed = 0, uses_anonymous_args = 0
 325:User/e-Paper/GUI_Paint.c ****     for (Y = Ystart; Y < Yend; Y++)
 3381              		.loc 1 325 5 view .LVU1007
 326:User/e-Paper/GUI_Paint.c ****     {
 3382              		.loc 1 326 5 view .LVU1008
 326:User/e-Paper/GUI_Paint.c ****     {
 3383              		.loc 1 326 24 view .LVU1009
 324:User/e-Paper/GUI_Paint.c ****     UWORD X, Y;
 3384              		.loc 1 324 1 is_stmt 0 view .LVU1010
 3385 0000 F0B5     		push	{r4, r5, r6, r7, lr}
 3386              	.LCFI14:
 3387              		.cfi_def_cfa_offset 20
 3388              		.cfi_offset 4, -20
 3389              		.cfi_offset 5, -16
 3390              		.cfi_offset 6, -12
 3391              		.cfi_offset 7, -8
 3392              		.cfi_offset 14, -4
 3393 0002 5746     		mov	r7, r10
 3394 0004 4E46     		mov	r6, r9
 3395 0006 4546     		mov	r5, r8
 3396 0008 DE46     		mov	lr, fp
 3397 000a E0B5     		push	{r5, r6, r7, lr}
 3398              	.LCFI15:
 3399              		.cfi_def_cfa_offset 36
 3400              		.cfi_offset 8, -36
 3401              		.cfi_offset 9, -32
 3402              		.cfi_offset 10, -28
 3403              		.cfi_offset 11, -24
 3404 000c 85B0     		sub	sp, sp, #20
ARM GAS  C:\Users\upo\AppData\Local\Temp\ccEC4369.s 			page 88


 3405              	.LCFI16:
 3406              		.cfi_def_cfa_offset 56
 324:User/e-Paper/GUI_Paint.c ****     UWORD X, Y;
 3407              		.loc 1 324 1 view .LVU1011
 3408 000e 1E00     		movs	r6, r3
 3409 0010 0EAB     		add	r3, sp, #56
 3410              	.LVL302:
 324:User/e-Paper/GUI_Paint.c ****     UWORD X, Y;
 3411              		.loc 1 324 1 view .LVU1012
 3412 0012 1B88     		ldrh	r3, [r3]
 3413              	.LVL303:
 324:User/e-Paper/GUI_Paint.c ****     UWORD X, Y;
 3414              		.loc 1 324 1 view .LVU1013
 3415 0014 0700     		movs	r7, r0
 3416 0016 1400     		movs	r4, r2
 3417 0018 0800     		movs	r0, r1
 3418              	.LVL304:
 324:User/e-Paper/GUI_Paint.c ****     UWORD X, Y;
 3419              		.loc 1 324 1 view .LVU1014
 3420 001a 9846     		mov	r8, r3
 326:User/e-Paper/GUI_Paint.c ****     {
 3421              		.loc 1 326 24 view .LVU1015
 3422 001c B142     		cmp	r1, r6
 3423 001e 00D3     		bcc	.LCB3394
 3424 0020 97E0     		b	.L273	@long jump
 3425              	.LCB3394:
 3426 0022 9742     		cmp	r7, r2
 3427 0024 00D3     		bcc	.LCB3396
 3428 0026 94E0     		b	.L273	@long jump
 3429              	.LCB3396:
 3430              	.LBB240:
 3431              	.LBB241:
 3432              	.LBB242:
 3433              	.LBB243:
 3434              	.LBB244:
 271:User/e-Paper/GUI_Paint.c ****     }
 3435              		.loc 1 271 45 view .LVU1016
 3436 0028 0323     		movs	r3, #3
 3437 002a 4146     		mov	r1, r8
 3438              	.LVL305:
 271:User/e-Paper/GUI_Paint.c ****     }
 3439              		.loc 1 271 45 view .LVU1017
 3440 002c 0B40     		ands	r3, r1
 3441 002e 9B01     		lsls	r3, r3, #6
 3442 0030 0293     		str	r3, [sp, #8]
 3443 0032 3300     		movs	r3, r6
 3444              	.LBE244:
 209:User/e-Paper/GUI_Paint.c ****     {
 3445              		.loc 1 209 5 view .LVU1018
 3446 0034 8725     		movs	r5, #135
 3447 0036 2600     		movs	r6, r4
 3448 0038 0400     		movs	r4, r0
 3449 003a 1800     		movs	r0, r3
 3450 003c 694A     		ldr	r2, .L304
 3451              	.LVL306:
 209:User/e-Paper/GUI_Paint.c ****     {
 3452              		.loc 1 209 5 view .LVU1019
ARM GAS  C:\Users\upo\AppData\Local\Temp\ccEC4369.s 			page 89


 3453 003e 6D00     		lsls	r5, r5, #1
 3454 0040 0197     		str	r7, [sp, #4]
 3455              	.LVL307:
 3456              	.L275:
 209:User/e-Paper/GUI_Paint.c ****     {
 3457              		.loc 1 209 5 view .LVU1020
 3458              	.LBE243:
 3459              	.LBE242:
 3460              	.LBE241:
 3461              	.LBE240:
 328:User/e-Paper/GUI_Paint.c ****         { // 8 pixel =  1 byte
 3462              		.loc 1 328 28 is_stmt 1 view .LVU1021
 3463 0042 8446     		mov	ip, r0
 328:User/e-Paper/GUI_Paint.c ****         { // 8 pixel =  1 byte
 3464              		.loc 1 328 16 is_stmt 0 view .LVU1022
 3465 0044 019B     		ldr	r3, [sp, #4]
 3466 0046 1000     		movs	r0, r2
 3467 0048 44E0     		b	.L292
 3468              	.LVL308:
 3469              	.L302:
 3470              	.LBB258:
 3471              	.LBB255:
 3472              	.LBB252:
 3473              	.LBB249:
 209:User/e-Paper/GUI_Paint.c ****     {
 3474              		.loc 1 209 5 view .LVU1023
 3475 004a 5A29     		cmp	r1, #90
 3476 004c 3ED1     		bne	.L277
 216:User/e-Paper/GUI_Paint.c ****         Y = Xpoint;
 3477              		.loc 1 216 9 is_stmt 1 view .LVU1024
 218:User/e-Paper/GUI_Paint.c ****     case 180:
 3478              		.loc 1 218 9 is_stmt 0 view .LVU1025
 3479 004e 1A00     		movs	r2, r3
 216:User/e-Paper/GUI_Paint.c ****         Y = Xpoint;
 3480              		.loc 1 216 11 view .LVU1026
 3481 0050 0189     		ldrh	r1, [r0, #8]
 3482 0052 0139     		subs	r1, r1, #1
 3483 0054 091B     		subs	r1, r1, r4
 3484 0056 89B2     		uxth	r1, r1
 3485              	.LVL309:
 217:User/e-Paper/GUI_Paint.c ****         break;
 3486              		.loc 1 217 9 is_stmt 1 view .LVU1027
 218:User/e-Paper/GUI_Paint.c ****     case 180:
 3487              		.loc 1 218 9 view .LVU1028
 3488              	.L280:
 231:User/e-Paper/GUI_Paint.c ****     {
 3489              		.loc 1 231 5 view .LVU1029
 231:User/e-Paper/GUI_Paint.c ****     {
 3490              		.loc 1 231 18 is_stmt 0 view .LVU1030
 3491 0058 078A     		ldrh	r7, [r0, #16]
 231:User/e-Paper/GUI_Paint.c ****     {
 3492              		.loc 1 231 5 view .LVU1031
 3493 005a 022F     		cmp	r7, #2
 3494 005c 4BD0     		beq	.L283
 3495              	.L303:
 231:User/e-Paper/GUI_Paint.c ****     {
 3496              		.loc 1 231 5 view .LVU1032
ARM GAS  C:\Users\upo\AppData\Local\Temp\ccEC4369.s 			page 90


 3497 005e 022F     		cmp	r7, #2
 3498 0060 5DD8     		bhi	.L284
 3499 0062 002F     		cmp	r7, #0
 3500 0064 50D0     		beq	.L298
 236:User/e-Paper/GUI_Paint.c ****         break;
 3501              		.loc 1 236 9 is_stmt 1 view .LVU1033
 236:User/e-Paper/GUI_Paint.c ****         break;
 3502              		.loc 1 236 18 is_stmt 0 view .LVU1034
 3503 0066 0789     		ldrh	r7, [r0, #8]
 3504 0068 B946     		mov	r9, r7
 236:User/e-Paper/GUI_Paint.c ****         break;
 3505              		.loc 1 236 11 view .LVU1035
 3506 006a 0127     		movs	r7, #1
 3507 006c 7F42     		rsbs	r7, r7, #0
 3508 006e 4F44     		add	r7, r7, r9
 3509 0070 791A     		subs	r1, r7, r1
 3510              	.LVL310:
 236:User/e-Paper/GUI_Paint.c ****         break;
 3511              		.loc 1 236 11 view .LVU1036
 3512 0072 89B2     		uxth	r1, r1
 3513              	.LVL311:
 237:User/e-Paper/GUI_Paint.c ****     case MIRROR_VERTICAL:
 3514              		.loc 1 237 9 is_stmt 1 view .LVU1037
 3515              	.L288:
 249:User/e-Paper/GUI_Paint.c ****     {
 3516              		.loc 1 249 5 view .LVU1038
 249:User/e-Paper/GUI_Paint.c ****     {
 3517              		.loc 1 249 8 is_stmt 0 view .LVU1039
 3518 0074 4945     		cmp	r1, r9
 3519 0076 29D8     		bhi	.L277
 249:User/e-Paper/GUI_Paint.c ****     {
 3520              		.loc 1 249 31 view .LVU1040
 3521 0078 4789     		ldrh	r7, [r0, #10]
 3522 007a 9742     		cmp	r7, r2
 3523 007c 26D3     		bcc	.L277
 255:User/e-Paper/GUI_Paint.c ****     {
 3524              		.loc 1 255 5 is_stmt 1 view .LVU1041
 255:User/e-Paper/GUI_Paint.c ****     {
 3525              		.loc 1 255 14 is_stmt 0 view .LVU1042
 3526 007e C78A     		ldrh	r7, [r0, #22]
 255:User/e-Paper/GUI_Paint.c ****     {
 3527              		.loc 1 255 8 view .LVU1043
 3528 0080 022F     		cmp	r7, #2
 3529 0082 00D1     		bne	.LCB3515
 3530 0084 75E0     		b	.L299	@long jump
 3531              	.LCB3515:
 264:User/e-Paper/GUI_Paint.c ****     {
 3532              		.loc 1 264 10 is_stmt 1 view .LVU1044
 264:User/e-Paper/GUI_Paint.c ****     {
 3533              		.loc 1 264 13 is_stmt 0 view .LVU1045
 3534 0086 042F     		cmp	r7, #4
 3535 0088 00D1     		bne	.LCB3518
 3536 008a 88E0     		b	.L300	@long jump
 3537              	.LCB3518:
 273:User/e-Paper/GUI_Paint.c ****     {
 3538              		.loc 1 273 10 is_stmt 1 view .LVU1046
 273:User/e-Paper/GUI_Paint.c ****     {
ARM GAS  C:\Users\upo\AppData\Local\Temp\ccEC4369.s 			page 91


 3539              		.loc 1 273 13 is_stmt 0 view .LVU1047
 3540 008c 072F     		cmp	r7, #7
 3541 008e 1DD1     		bne	.L277
 3542              	.LBB245:
 275:User/e-Paper/GUI_Paint.c ****         UBYTE Rdata = Paint.Image[Addr];
 3543              		.loc 1 275 9 is_stmt 1 view .LVU1048
 3544              	.LVL312:
 276:User/e-Paper/GUI_Paint.c ****         Rdata = Rdata & (~(0xF0 >> ((X % 2) * 4))); // Clear first, then set value
 3545              		.loc 1 276 9 view .LVU1049
 275:User/e-Paper/GUI_Paint.c ****         UBYTE Rdata = Paint.Image[Addr];
 3546              		.loc 1 275 41 is_stmt 0 view .LVU1050
 3547 0090 478A     		ldrh	r7, [r0, #18]
 275:User/e-Paper/GUI_Paint.c ****         UBYTE Rdata = Paint.Image[Addr];
 3548              		.loc 1 275 34 view .LVU1051
 3549 0092 7A43     		muls	r2, r7
 3550              	.LVL313:
