ARM GAS  C:\Users\upo\AppData\Local\Temp\ccUQp8qV.s 			page 1


   1              		.cpu cortex-m0plus
   2              		.arch armv6s-m
   3              		.fpu softvfp
   4              		.eabi_attribute 20, 1
   5              		.eabi_attribute 21, 1
   6              		.eabi_attribute 23, 3
   7              		.eabi_attribute 24, 1
   8              		.eabi_attribute 25, 1
   9              		.eabi_attribute 26, 1
  10              		.eabi_attribute 30, 1
  11              		.eabi_attribute 34, 0
  12              		.eabi_attribute 18, 4
  13              		.file	"i2c.c"
  14              		.text
  15              	.Ltext0:
  16              		.cfi_sections	.debug_frame
  17              		.file 1 "Core/Src/i2c.c"
  18              		.section	.text.MX_I2C1_Init,"ax",%progbits
  19              		.align	1
  20              		.global	MX_I2C1_Init
  21              		.syntax unified
  22              		.code	16
  23              		.thumb_func
  25              	MX_I2C1_Init:
  26              	.LFB426:
   1:Core/Src/i2c.c **** /* USER CODE BEGIN Header */
   2:Core/Src/i2c.c **** /**
   3:Core/Src/i2c.c ****   ******************************************************************************
   4:Core/Src/i2c.c ****   * @file    i2c.c
   5:Core/Src/i2c.c ****   * @brief   This file provides code for the configuration
   6:Core/Src/i2c.c ****   *          of the I2C instances.
   7:Core/Src/i2c.c ****   ******************************************************************************
   8:Core/Src/i2c.c ****   * @attention
   9:Core/Src/i2c.c ****   *
  10:Core/Src/i2c.c ****   * Copyright (c) 2024 STMicroelectronics.
  11:Core/Src/i2c.c ****   * All rights reserved.
  12:Core/Src/i2c.c ****   *
  13:Core/Src/i2c.c ****   * This software is licensed under terms that can be found in the LICENSE file
  14:Core/Src/i2c.c ****   * in the root directory of this software component.
  15:Core/Src/i2c.c ****   * If no LICENSE file comes with this software, it is provided AS-IS.
  16:Core/Src/i2c.c ****   *
  17:Core/Src/i2c.c ****   ******************************************************************************
  18:Core/Src/i2c.c ****   */
  19:Core/Src/i2c.c **** /* USER CODE END Header */
  20:Core/Src/i2c.c **** /* Includes ------------------------------------------------------------------*/
  21:Core/Src/i2c.c **** #include "i2c.h"
  22:Core/Src/i2c.c **** 
  23:Core/Src/i2c.c **** /* USER CODE BEGIN 0 */
  24:Core/Src/i2c.c **** 
  25:Core/Src/i2c.c **** /* USER CODE END 0 */
  26:Core/Src/i2c.c **** 
  27:Core/Src/i2c.c **** I2C_HandleTypeDef hi2c1;
  28:Core/Src/i2c.c **** 
  29:Core/Src/i2c.c **** /* I2C1 init function */
  30:Core/Src/i2c.c **** void MX_I2C1_Init(void)
  31:Core/Src/i2c.c **** {
  27              		.loc 1 31 1 view -0
ARM GAS  C:\Users\upo\AppData\Local\Temp\ccUQp8qV.s 			page 2


  28              		.cfi_startproc
  29              		@ args = 0, pretend = 0, frame = 0
  30              		@ frame_needed = 0, uses_anonymous_args = 0
  31 0000 10B5     		push	{r4, lr}
  32              	.LCFI0:
  33              		.cfi_def_cfa_offset 8
  34              		.cfi_offset 4, -8
  35              		.cfi_offset 14, -4
  32:Core/Src/i2c.c **** 
  33:Core/Src/i2c.c ****   /* USER CODE BEGIN I2C1_Init 0 */
  34:Core/Src/i2c.c **** 
  35:Core/Src/i2c.c ****   /* USER CODE END I2C1_Init 0 */
  36:Core/Src/i2c.c **** 
  37:Core/Src/i2c.c ****   /* USER CODE BEGIN I2C1_Init 1 */
  38:Core/Src/i2c.c **** 
  39:Core/Src/i2c.c ****   /* USER CODE END I2C1_Init 1 */
  40:Core/Src/i2c.c ****   hi2c1.Instance = I2C1;
  36              		.loc 1 40 3 view .LVU1
  37              		.loc 1 40 18 is_stmt 0 view .LVU2
  38 0002 1448     		ldr	r0, .L8
  39 0004 144B     		ldr	r3, .L8+4
  40 0006 0360     		str	r3, [r0]
  41:Core/Src/i2c.c ****   hi2c1.Init.Timing = 0x00303D5B;
  41              		.loc 1 41 3 is_stmt 1 view .LVU3
  42              		.loc 1 41 21 is_stmt 0 view .LVU4
  43 0008 144B     		ldr	r3, .L8+8
  44 000a 4360     		str	r3, [r0, #4]
  42:Core/Src/i2c.c ****   hi2c1.Init.OwnAddress1 = 0;
  45              		.loc 1 42 3 is_stmt 1 view .LVU5
  46              		.loc 1 42 26 is_stmt 0 view .LVU6
  47 000c 0023     		movs	r3, #0
  48 000e 8360     		str	r3, [r0, #8]
  43:Core/Src/i2c.c ****   hi2c1.Init.AddressingMode = I2C_ADDRESSINGMODE_7BIT;
  49              		.loc 1 43 3 is_stmt 1 view .LVU7
  50              		.loc 1 43 29 is_stmt 0 view .LVU8
  51 0010 0122     		movs	r2, #1
  52 0012 C260     		str	r2, [r0, #12]
  44:Core/Src/i2c.c ****   hi2c1.Init.DualAddressMode = I2C_DUALADDRESS_DISABLE;
  53              		.loc 1 44 3 is_stmt 1 view .LVU9
  54              		.loc 1 44 30 is_stmt 0 view .LVU10
  55 0014 0361     		str	r3, [r0, #16]
  45:Core/Src/i2c.c ****   hi2c1.Init.OwnAddress2 = 0;
  56              		.loc 1 45 3 is_stmt 1 view .LVU11
  57              		.loc 1 45 26 is_stmt 0 view .LVU12
  58 0016 4361     		str	r3, [r0, #20]
  46:Core/Src/i2c.c ****   hi2c1.Init.OwnAddress2Masks = I2C_OA2_NOMASK;
  59              		.loc 1 46 3 is_stmt 1 view .LVU13
  60              		.loc 1 46 31 is_stmt 0 view .LVU14
  61 0018 8361     		str	r3, [r0, #24]
  47:Core/Src/i2c.c ****   hi2c1.Init.GeneralCallMode = I2C_GENERALCALL_DISABLE;
  62              		.loc 1 47 3 is_stmt 1 view .LVU15
  63              		.loc 1 47 30 is_stmt 0 view .LVU16
  64 001a C361     		str	r3, [r0, #28]
  48:Core/Src/i2c.c ****   hi2c1.Init.NoStretchMode = I2C_NOSTRETCH_DISABLE;
  65              		.loc 1 48 3 is_stmt 1 view .LVU17
  66              		.loc 1 48 28 is_stmt 0 view .LVU18
  67 001c 0362     		str	r3, [r0, #32]
ARM GAS  C:\Users\upo\AppData\Local\Temp\ccUQp8qV.s 			page 3


  49:Core/Src/i2c.c ****   if (HAL_I2C_Init(&hi2c1) != HAL_OK)
  68              		.loc 1 49 3 is_stmt 1 view .LVU19
  69              		.loc 1 49 7 is_stmt 0 view .LVU20
  70 001e FFF7FEFF 		bl	HAL_I2C_Init
  71              	.LVL0:
  72              		.loc 1 49 6 view .LVU21
  73 0022 0028     		cmp	r0, #0
  74 0024 0CD1     		bne	.L5
  75              	.L2:
  50:Core/Src/i2c.c ****   {
  51:Core/Src/i2c.c ****     Error_Handler();
  52:Core/Src/i2c.c ****   }
  53:Core/Src/i2c.c **** 
  54:Core/Src/i2c.c ****   /** Configure Analogue filter
  55:Core/Src/i2c.c ****   */
  56:Core/Src/i2c.c ****   if (HAL_I2CEx_ConfigAnalogFilter(&hi2c1, I2C_ANALOGFILTER_ENABLE) != HAL_OK)
  76              		.loc 1 56 3 is_stmt 1 view .LVU22
  77              		.loc 1 56 7 is_stmt 0 view .LVU23
  78 0026 0B48     		ldr	r0, .L8
  79 0028 0021     		movs	r1, #0
  80 002a FFF7FEFF 		bl	HAL_I2CEx_ConfigAnalogFilter
  81              	.LVL1:
  82              		.loc 1 56 6 view .LVU24
  83 002e 0028     		cmp	r0, #0
  84 0030 09D1     		bne	.L6
  85              	.L3:
  57:Core/Src/i2c.c ****   {
  58:Core/Src/i2c.c ****     Error_Handler();
  59:Core/Src/i2c.c ****   }
  60:Core/Src/i2c.c **** 
  61:Core/Src/i2c.c ****   /** Configure Digital filter
  62:Core/Src/i2c.c ****   */
  63:Core/Src/i2c.c ****   if (HAL_I2CEx_ConfigDigitalFilter(&hi2c1, 0) != HAL_OK)
  86              		.loc 1 63 3 is_stmt 1 view .LVU25
  87              		.loc 1 63 7 is_stmt 0 view .LVU26
  88 0032 0848     		ldr	r0, .L8
  89 0034 0021     		movs	r1, #0
  90 0036 FFF7FEFF 		bl	HAL_I2CEx_ConfigDigitalFilter
  91              	.LVL2:
  92              		.loc 1 63 6 view .LVU27
  93 003a 0028     		cmp	r0, #0
  94 003c 06D1     		bne	.L7
  95              	.L1:
  64:Core/Src/i2c.c ****   {
  65:Core/Src/i2c.c ****     Error_Handler();
  66:Core/Src/i2c.c ****   }
  67:Core/Src/i2c.c ****   /* USER CODE BEGIN I2C1_Init 2 */
  68:Core/Src/i2c.c **** 
  69:Core/Src/i2c.c ****   /* USER CODE END I2C1_Init 2 */
  70:Core/Src/i2c.c **** 
  71:Core/Src/i2c.c **** }
  96              		.loc 1 71 1 view .LVU28
  97              		@ sp needed
  98 003e 10BD     		pop	{r4, pc}
  99              	.L5:
  51:Core/Src/i2c.c ****   }
 100              		.loc 1 51 5 is_stmt 1 view .LVU29
ARM GAS  C:\Users\upo\AppData\Local\Temp\ccUQp8qV.s 			page 4


 101 0040 FFF7FEFF 		bl	Error_Handler
 102              	.LVL3:
 103 0044 EFE7     		b	.L2
 104              	.L6:
  58:Core/Src/i2c.c ****   }
 105              		.loc 1 58 5 view .LVU30
 106 0046 FFF7FEFF 		bl	Error_Handler
 107              	.LVL4:
 108 004a F2E7     		b	.L3
 109              	.L7:
  65:Core/Src/i2c.c ****   }
 110              		.loc 1 65 5 view .LVU31
 111 004c FFF7FEFF 		bl	Error_Handler
 112              	.LVL5:
 113              		.loc 1 71 1 is_stmt 0 view .LVU32
 114 0050 F5E7     		b	.L1
 115              	.L9:
 116 0052 C046     		.align	2
 117              	.L8:
 118 0054 00000000 		.word	hi2c1
 119 0058 00540040 		.word	1073763328
 120 005c 5B3D3000 		.word	3161435
 121              		.cfi_endproc
 122              	.LFE426:
 124              		.section	.text.HAL_I2C_MspInit,"ax",%progbits
 125              		.align	1
 126              		.global	HAL_I2C_MspInit
 127              		.syntax unified
 128              		.code	16
 129              		.thumb_func
 131              	HAL_I2C_MspInit:
 132              	.LVL6:
 133              	.LFB427:
  72:Core/Src/i2c.c **** 
  73:Core/Src/i2c.c **** void HAL_I2C_MspInit(I2C_HandleTypeDef* i2cHandle)
  74:Core/Src/i2c.c **** {
 134              		.loc 1 74 1 is_stmt 1 view -0
 135              		.cfi_startproc
 136              		@ args = 0, pretend = 0, frame = 96
 137              		@ frame_needed = 0, uses_anonymous_args = 0
 138              		.loc 1 74 1 is_stmt 0 view .LVU34
 139 0000 10B5     		push	{r4, lr}
 140              	.LCFI1:
 141              		.cfi_def_cfa_offset 8
 142              		.cfi_offset 4, -8
 143              		.cfi_offset 14, -4
 144 0002 98B0     		sub	sp, sp, #96
 145              	.LCFI2:
 146              		.cfi_def_cfa_offset 104
 147 0004 0400     		movs	r4, r0
  75:Core/Src/i2c.c **** 
  76:Core/Src/i2c.c ****   GPIO_InitTypeDef GPIO_InitStruct = {0};
 148              		.loc 1 76 3 is_stmt 1 view .LVU35
 149              		.loc 1 76 20 is_stmt 0 view .LVU36
 150 0006 1422     		movs	r2, #20
 151 0008 0021     		movs	r1, #0
 152 000a 13A8     		add	r0, sp, #76
ARM GAS  C:\Users\upo\AppData\Local\Temp\ccUQp8qV.s 			page 5


 153              	.LVL7:
 154              		.loc 1 76 20 view .LVU37
 155 000c FFF7FEFF 		bl	memset
 156              	.LVL8:
  77:Core/Src/i2c.c ****   RCC_PeriphCLKInitTypeDef PeriphClkInit = {0};
 157              		.loc 1 77 3 is_stmt 1 view .LVU38
 158              		.loc 1 77 28 is_stmt 0 view .LVU39
 159 0010 4422     		movs	r2, #68
 160 0012 0021     		movs	r1, #0
 161 0014 02A8     		add	r0, sp, #8
 162 0016 FFF7FEFF 		bl	memset
 163              	.LVL9:
  78:Core/Src/i2c.c ****   if(i2cHandle->Instance==I2C1)
 164              		.loc 1 78 3 is_stmt 1 view .LVU40
 165              		.loc 1 78 15 is_stmt 0 view .LVU41
 166 001a 2268     		ldr	r2, [r4]
 167              		.loc 1 78 5 view .LVU42
 168 001c 174B     		ldr	r3, .L15
 169 001e 9A42     		cmp	r2, r3
 170 0020 01D0     		beq	.L13
 171              	.LVL10:
 172              	.L10:
  79:Core/Src/i2c.c ****   {
  80:Core/Src/i2c.c ****   /* USER CODE BEGIN I2C1_MspInit 0 */
  81:Core/Src/i2c.c **** 
  82:Core/Src/i2c.c ****   /* USER CODE END I2C1_MspInit 0 */
  83:Core/Src/i2c.c **** 
  84:Core/Src/i2c.c ****   /** Initializes the peripherals clocks
  85:Core/Src/i2c.c ****   */
  86:Core/Src/i2c.c ****     PeriphClkInit.PeriphClockSelection = RCC_PERIPHCLK_I2C1;
  87:Core/Src/i2c.c ****     PeriphClkInit.I2c1ClockSelection = RCC_I2C1CLKSOURCE_PCLK1;
  88:Core/Src/i2c.c ****     if (HAL_RCCEx_PeriphCLKConfig(&PeriphClkInit) != HAL_OK)
  89:Core/Src/i2c.c ****     {
  90:Core/Src/i2c.c ****       Error_Handler();
  91:Core/Src/i2c.c ****     }
  92:Core/Src/i2c.c **** 
  93:Core/Src/i2c.c ****     __HAL_RCC_GPIOB_CLK_ENABLE();
  94:Core/Src/i2c.c ****     /**I2C1 GPIO Configuration
  95:Core/Src/i2c.c ****     PB6     ------> I2C1_SCL
  96:Core/Src/i2c.c ****     PB7     ------> I2C1_SDA
  97:Core/Src/i2c.c ****     */
  98:Core/Src/i2c.c ****     GPIO_InitStruct.Pin = GPIO_PIN_6|GPIO_PIN_7;
  99:Core/Src/i2c.c ****     GPIO_InitStruct.Mode = GPIO_MODE_AF_OD;
 100:Core/Src/i2c.c ****     GPIO_InitStruct.Pull = GPIO_NOPULL;
 101:Core/Src/i2c.c ****     GPIO_InitStruct.Speed = GPIO_SPEED_FREQ_LOW;
 102:Core/Src/i2c.c ****     GPIO_InitStruct.Alternate = GPIO_AF4_I2C1;
 103:Core/Src/i2c.c ****     HAL_GPIO_Init(GPIOB, &GPIO_InitStruct);
 104:Core/Src/i2c.c **** 
 105:Core/Src/i2c.c ****     /* I2C1 clock enable */
 106:Core/Src/i2c.c ****     __HAL_RCC_I2C1_CLK_ENABLE();
 107:Core/Src/i2c.c ****   /* USER CODE BEGIN I2C1_MspInit 1 */
 108:Core/Src/i2c.c **** 
 109:Core/Src/i2c.c ****   /* USER CODE END I2C1_MspInit 1 */
 110:Core/Src/i2c.c ****   }
 111:Core/Src/i2c.c **** }
 173              		.loc 1 111 1 view .LVU43
 174 0022 18B0     		add	sp, sp, #96
ARM GAS  C:\Users\upo\AppData\Local\Temp\ccUQp8qV.s 			page 6


 175              		@ sp needed
 176 0024 10BD     		pop	{r4, pc}
 177              	.LVL11:
 178              	.L13:
  86:Core/Src/i2c.c ****     PeriphClkInit.I2c1ClockSelection = RCC_I2C1CLKSOURCE_PCLK1;
 179              		.loc 1 86 5 is_stmt 1 view .LVU44
  86:Core/Src/i2c.c ****     PeriphClkInit.I2c1ClockSelection = RCC_I2C1CLKSOURCE_PCLK1;
 180              		.loc 1 86 40 is_stmt 0 view .LVU45
 181 0026 2023     		movs	r3, #32
 182 0028 0293     		str	r3, [sp, #8]
  87:Core/Src/i2c.c ****     if (HAL_RCCEx_PeriphCLKConfig(&PeriphClkInit) != HAL_OK)
 183              		.loc 1 87 5 is_stmt 1 view .LVU46
  88:Core/Src/i2c.c ****     {
 184              		.loc 1 88 5 view .LVU47
  88:Core/Src/i2c.c ****     {
 185              		.loc 1 88 9 is_stmt 0 view .LVU48
 186 002a 02A8     		add	r0, sp, #8
 187 002c FFF7FEFF 		bl	HAL_RCCEx_PeriphCLKConfig
 188              	.LVL12:
  88:Core/Src/i2c.c ****     {
 189              		.loc 1 88 8 view .LVU49
 190 0030 0028     		cmp	r0, #0
 191 0032 1FD1     		bne	.L14
 192              	.L12:
  93:Core/Src/i2c.c ****     /**I2C1 GPIO Configuration
 193              		.loc 1 93 5 is_stmt 1 view .LVU50
 194              	.LBB2:
  93:Core/Src/i2c.c ****     /**I2C1 GPIO Configuration
 195              		.loc 1 93 5 view .LVU51
  93:Core/Src/i2c.c ****     /**I2C1 GPIO Configuration
 196              		.loc 1 93 5 view .LVU52
 197 0034 124C     		ldr	r4, .L15+4
 198              	.LVL13:
  93:Core/Src/i2c.c ****     /**I2C1 GPIO Configuration
 199              		.loc 1 93 5 is_stmt 0 view .LVU53
 200 0036 E26C     		ldr	r2, [r4, #76]
 201 0038 0223     		movs	r3, #2
 202 003a 1A43     		orrs	r2, r3
 203 003c E264     		str	r2, [r4, #76]
  93:Core/Src/i2c.c ****     /**I2C1 GPIO Configuration
 204              		.loc 1 93 5 is_stmt 1 view .LVU54
 205 003e E26C     		ldr	r2, [r4, #76]
 206 0040 1340     		ands	r3, r2
 207 0042 0093     		str	r3, [sp]
  93:Core/Src/i2c.c ****     /**I2C1 GPIO Configuration
 208              		.loc 1 93 5 view .LVU55
 209 0044 009B     		ldr	r3, [sp]
 210              	.LBE2:
  93:Core/Src/i2c.c ****     /**I2C1 GPIO Configuration
 211              		.loc 1 93 5 view .LVU56
  98:Core/Src/i2c.c ****     GPIO_InitStruct.Mode = GPIO_MODE_AF_OD;
 212              		.loc 1 98 5 view .LVU57
  98:Core/Src/i2c.c ****     GPIO_InitStruct.Mode = GPIO_MODE_AF_OD;
 213              		.loc 1 98 25 is_stmt 0 view .LVU58
 214 0046 C023     		movs	r3, #192
 215 0048 1393     		str	r3, [sp, #76]
  99:Core/Src/i2c.c ****     GPIO_InitStruct.Pull = GPIO_NOPULL;
ARM GAS  C:\Users\upo\AppData\Local\Temp\ccUQp8qV.s 			page 7


 216              		.loc 1 99 5 is_stmt 1 view .LVU59
  99:Core/Src/i2c.c ****     GPIO_InitStruct.Pull = GPIO_NOPULL;
 217              		.loc 1 99 26 is_stmt 0 view .LVU60
 218 004a AE3B     		subs	r3, r3, #174
 219 004c 1493     		str	r3, [sp, #80]
 100:Core/Src/i2c.c ****     GPIO_InitStruct.Speed = GPIO_SPEED_FREQ_LOW;
 220              		.loc 1 100 5 is_stmt 1 view .LVU61
 100:Core/Src/i2c.c ****     GPIO_InitStruct.Speed = GPIO_SPEED_FREQ_LOW;
 221              		.loc 1 100 26 is_stmt 0 view .LVU62
 222 004e 0023     		movs	r3, #0
 223 0050 1593     		str	r3, [sp, #84]
 101:Core/Src/i2c.c ****     GPIO_InitStruct.Alternate = GPIO_AF4_I2C1;
 224              		.loc 1 101 5 is_stmt 1 view .LVU63
 101:Core/Src/i2c.c ****     GPIO_InitStruct.Alternate = GPIO_AF4_I2C1;
 225              		.loc 1 101 27 is_stmt 0 view .LVU64
 226 0052 1693     		str	r3, [sp, #88]
 102:Core/Src/i2c.c ****     HAL_GPIO_Init(GPIOB, &GPIO_InitStruct);
 227              		.loc 1 102 5 is_stmt 1 view .LVU65
 102:Core/Src/i2c.c ****     HAL_GPIO_Init(GPIOB, &GPIO_InitStruct);
 228              		.loc 1 102 31 is_stmt 0 view .LVU66
 229 0054 0433     		adds	r3, r3, #4
 230 0056 1793     		str	r3, [sp, #92]
 103:Core/Src/i2c.c **** 
 231              		.loc 1 103 5 is_stmt 1 view .LVU67
 232 0058 13A9     		add	r1, sp, #76
 233 005a 0A48     		ldr	r0, .L15+8
 234 005c FFF7FEFF 		bl	HAL_GPIO_Init
 235              	.LVL14:
 106:Core/Src/i2c.c ****   /* USER CODE BEGIN I2C1_MspInit 1 */
 236              		.loc 1 106 5 view .LVU68
 237              	.LBB3:
 106:Core/Src/i2c.c ****   /* USER CODE BEGIN I2C1_MspInit 1 */
 238              		.loc 1 106 5 view .LVU69
 106:Core/Src/i2c.c ****   /* USER CODE BEGIN I2C1_MspInit 1 */
 239              		.loc 1 106 5 view .LVU70
 240 0060 A36D     		ldr	r3, [r4, #88]
 241 0062 8022     		movs	r2, #128
 242 0064 9203     		lsls	r2, r2, #14
 243 0066 1343     		orrs	r3, r2
 244 0068 A365     		str	r3, [r4, #88]
 106:Core/Src/i2c.c ****   /* USER CODE BEGIN I2C1_MspInit 1 */
 245              		.loc 1 106 5 view .LVU71
 246 006a A36D     		ldr	r3, [r4, #88]
 247 006c 1340     		ands	r3, r2
 248 006e 0193     		str	r3, [sp, #4]
 106:Core/Src/i2c.c ****   /* USER CODE BEGIN I2C1_MspInit 1 */
 249              		.loc 1 106 5 view .LVU72
 250 0070 019B     		ldr	r3, [sp, #4]
 251              	.LBE3:
 106:Core/Src/i2c.c ****   /* USER CODE BEGIN I2C1_MspInit 1 */
 252              		.loc 1 106 5 view .LVU73
 253              		.loc 1 111 1 is_stmt 0 view .LVU74
 254 0072 D6E7     		b	.L10
 255              	.LVL15:
 256              	.L14:
  90:Core/Src/i2c.c ****     }
 257              		.loc 1 90 7 is_stmt 1 view .LVU75
ARM GAS  C:\Users\upo\AppData\Local\Temp\ccUQp8qV.s 			page 8


 258 0074 FFF7FEFF 		bl	Error_Handler
 259              	.LVL16:
 260 0078 DCE7     		b	.L12
 261              	.L16:
 262 007a C046     		.align	2
 263              	.L15:
 264 007c 00540040 		.word	1073763328
 265 0080 00100240 		.word	1073876992
 266 0084 00040050 		.word	1342178304
 267              		.cfi_endproc
 268              	.LFE427:
 270              		.section	.text.HAL_I2C_MspDeInit,"ax",%progbits
 271              		.align	1
 272              		.global	HAL_I2C_MspDeInit
 273              		.syntax unified
 274              		.code	16
 275              		.thumb_func
 277              	HAL_I2C_MspDeInit:
 278              	.LVL17:
 279              	.LFB428:
 112:Core/Src/i2c.c **** 
 113:Core/Src/i2c.c **** void HAL_I2C_MspDeInit(I2C_HandleTypeDef* i2cHandle)
 114:Core/Src/i2c.c **** {
 280              		.loc 1 114 1 view -0
 281              		.cfi_startproc
 282              		@ args = 0, pretend = 0, frame = 0
 283              		@ frame_needed = 0, uses_anonymous_args = 0
 284              		.loc 1 114 1 is_stmt 0 view .LVU77
 285 0000 10B5     		push	{r4, lr}
 286              	.LCFI3:
 287              		.cfi_def_cfa_offset 8
 288              		.cfi_offset 4, -8
 289              		.cfi_offset 14, -4
 115:Core/Src/i2c.c **** 
 116:Core/Src/i2c.c ****   if(i2cHandle->Instance==I2C1)
 290              		.loc 1 116 3 is_stmt 1 view .LVU78
 291              		.loc 1 116 15 is_stmt 0 view .LVU79
 292 0002 0268     		ldr	r2, [r0]
 293              		.loc 1 116 5 view .LVU80
 294 0004 094B     		ldr	r3, .L20
 295 0006 9A42     		cmp	r2, r3
 296 0008 00D0     		beq	.L19
 297              	.LVL18:
 298              	.L17:
 117:Core/Src/i2c.c ****   {
 118:Core/Src/i2c.c ****   /* USER CODE BEGIN I2C1_MspDeInit 0 */
 119:Core/Src/i2c.c **** 
 120:Core/Src/i2c.c ****   /* USER CODE END I2C1_MspDeInit 0 */
 121:Core/Src/i2c.c ****     /* Peripheral clock disable */
 122:Core/Src/i2c.c ****     __HAL_RCC_I2C1_CLK_DISABLE();
 123:Core/Src/i2c.c **** 
 124:Core/Src/i2c.c ****     /**I2C1 GPIO Configuration
 125:Core/Src/i2c.c ****     PB6     ------> I2C1_SCL
 126:Core/Src/i2c.c ****     PB7     ------> I2C1_SDA
 127:Core/Src/i2c.c ****     */
 128:Core/Src/i2c.c ****     HAL_GPIO_DeInit(GPIOB, GPIO_PIN_6);
 129:Core/Src/i2c.c **** 
ARM GAS  C:\Users\upo\AppData\Local\Temp\ccUQp8qV.s 			page 9


 130:Core/Src/i2c.c ****     HAL_GPIO_DeInit(GPIOB, GPIO_PIN_7);
 131:Core/Src/i2c.c **** 
 132:Core/Src/i2c.c ****   /* USER CODE BEGIN I2C1_MspDeInit 1 */
 133:Core/Src/i2c.c **** 
 134:Core/Src/i2c.c ****   /* USER CODE END I2C1_MspDeInit 1 */
 135:Core/Src/i2c.c ****   }
 136:Core/Src/i2c.c **** }
 299              		.loc 1 136 1 view .LVU81
 300              		@ sp needed
 301 000a 10BD     		pop	{r4, pc}
 302              	.LVL19:
 303              	.L19:
 122:Core/Src/i2c.c **** 
 304              		.loc 1 122 5 is_stmt 1 view .LVU82
 305 000c 084A     		ldr	r2, .L20+4
 306 000e 936D     		ldr	r3, [r2, #88]
 307 0010 0849     		ldr	r1, .L20+8
 308 0012 0B40     		ands	r3, r1
 309 0014 9365     		str	r3, [r2, #88]
 128:Core/Src/i2c.c **** 
 310              		.loc 1 128 5 view .LVU83
 311 0016 084C     		ldr	r4, .L20+12
 312 0018 4021     		movs	r1, #64
 313 001a 2000     		movs	r0, r4
 314              	.LVL20:
 128:Core/Src/i2c.c **** 
 315              		.loc 1 128 5 is_stmt 0 view .LVU84
 316 001c FFF7FEFF 		bl	HAL_GPIO_DeInit
 317              	.LVL21:
 130:Core/Src/i2c.c **** 
 318              		.loc 1 130 5 is_stmt 1 view .LVU85
 319 0020 8021     		movs	r1, #128
 320 0022 2000     		movs	r0, r4
 321 0024 FFF7FEFF 		bl	HAL_GPIO_DeInit
 322              	.LVL22:
 323              		.loc 1 136 1 is_stmt 0 view .LVU86
 324 0028 EFE7     		b	.L17
 325              	.L21:
 326 002a C046     		.align	2
 327              	.L20:
 328 002c 00540040 		.word	1073763328
 329 0030 00100240 		.word	1073876992
 330 0034 FFFFDFFF 		.word	-2097153
 331 0038 00040050 		.word	1342178304
 332              		.cfi_endproc
 333              	.LFE428:
 335              		.global	hi2c1
 336              		.section	.bss.hi2c1,"aw",%nobits
 337              		.align	2
 340              	hi2c1:
 341 0000 00000000 		.space	84
 341      00000000 
 341      00000000 
 341      00000000 
 341      00000000 
 342              		.text
 343              	.Letext0:
ARM GAS  C:\Users\upo\AppData\Local\Temp\ccUQp8qV.s 			page 10


 344              		.file 2 "C:\\ST\\STM32CubeCLT_1.15.0\\GNU-tools-for-STM32\\bin/../lib/gcc/arm-none-eabi/12.3.1/../
 345              		.file 3 "C:\\ST\\STM32CubeCLT_1.15.0\\GNU-tools-for-STM32\\bin/../lib/gcc/arm-none-eabi/12.3.1/../
 346              		.file 4 "Drivers/CMSIS/Device/ST/STM32U0xx/Include/stm32u073xx.h"
 347              		.file 5 "Drivers/STM32U0xx_HAL_Driver/Inc/stm32u0xx_hal_def.h"
 348              		.file 6 "Drivers/STM32U0xx_HAL_Driver/Inc/stm32u0xx_hal_rcc_ex.h"
 349              		.file 7 "Drivers/STM32U0xx_HAL_Driver/Inc/stm32u0xx_hal_gpio.h"
 350              		.file 8 "Drivers/STM32U0xx_HAL_Driver/Inc/stm32u0xx_hal_dma.h"
 351              		.file 9 "Drivers/STM32U0xx_HAL_Driver/Inc/stm32u0xx_hal_i2c.h"
 352              		.file 10 "Drivers/STM32U0xx_HAL_Driver/Inc/stm32u0xx_hal_i2c_ex.h"
 353              		.file 11 "Drivers/STM32U0xx_HAL_Driver/Inc/stm32u0xx_ll_dma.h"
 354              		.file 12 "Core\\Inc/i2c.h"
 355              		.file 13 "Core\\Inc/main.h"
 356              		.file 14 "<built-in>"
ARM GAS  C:\Users\upo\AppData\Local\Temp\ccUQp8qV.s 			page 11

