ARM GAS  C:\Users\upo\AppData\Local\Temp\ccWo9sLk.s 			page 1


   1              		.cpu cortex-m0plus
   2              		.arch armv6s-m
   3              		.fpu softvfp
   4              		.eabi_attribute 20, 1
   5              		.eabi_attribute 21, 1
   6              		.eabi_attribute 23, 3
   7              		.eabi_attribute 24, 1
   8              		.eabi_attribute 25, 1
   9              		.eabi_attribute 26, 1
  10              		.eabi_attribute 30, 2
  11              		.eabi_attribute 34, 0
  12              		.eabi_attribute 18, 4
  13              		.file	"paint_sensor.c"
  14              		.text
  15              	.Ltext0:
  16              		.cfi_sections	.debug_frame
  17              		.file 1 "User/e-Paper/paint_sensor.c"
  18              		.section	.rodata.battery_out.str1.4,"aMS",%progbits,1
  19              		.align	2
  20              	.LC0:
  21 0000 2A2A2020 		.ascii	"**  Vbat out\012\000"
  21      56626174 
  21      206F7574 
  21      0A00
  22 000e 0000     		.align	2
  23              	.LC2:
  24 0010 25326400 		.ascii	"%2d\000"
  25              		.section	.text.battery_out,"ax",%progbits
  26              		.align	1
  27              		.p2align 2,,3
  28              		.global	battery_out
  29              		.syntax unified
  30              		.code	16
  31              		.thumb_func
  33              	battery_out:
  34              	.LVL0:
  35              	.LFB1425:
   1:User/e-Paper/paint_sensor.c **** /******************************************************************************
   2:User/e-Paper/paint_sensor.c ****  * | File      	:   paint_sensor.c
   3:User/e-Paper/paint_sensor.c ****  * | Author      :   Waveshare electronics
   4:User/e-Paper/paint_sensor.c ****  * | Function    :	Achieve drawing: draw points, lines, boxes, circles and
   5:User/e-Paper/paint_sensor.c ****  *******************************************************************************
   6:User/e-Paper/paint_sensor.c ****  */
   7:User/e-Paper/paint_sensor.c **** 
   8:User/e-Paper/paint_sensor.c **** #include <stdint.h>
   9:User/e-Paper/paint_sensor.c **** #include <stdlib.h>
  10:User/e-Paper/paint_sensor.c **** #include <string.h> //memset()
  11:User/e-Paper/paint_sensor.c **** #include <math.h>
  12:User/e-Paper/paint_sensor.c **** #include <stdbool.h>
  13:User/e-Paper/paint_sensor.c **** #include "printf.h"
  14:User/e-Paper/paint_sensor.c **** 
  15:User/e-Paper/paint_sensor.c **** #include "GUI_Paint.h"
  16:User/e-Paper/paint_sensor.c **** #include "DEV_Config.h"
  17:User/e-Paper/paint_sensor.c **** #include "EPD_1in54_V2.h"
  18:User/e-Paper/paint_sensor.c **** #include "Debug.h"
  19:User/e-Paper/paint_sensor.c **** #include "paint_sensor.h"
  20:User/e-Paper/paint_sensor.c **** #include "Debug.h"
ARM GAS  C:\Users\upo\AppData\Local\Temp\ccWo9sLk.s 			page 2


  21:User/e-Paper/paint_sensor.c **** 
  22:User/e-Paper/paint_sensor.c **** extern uint16_t H_old;
  23:User/e-Paper/paint_sensor.c **** extern uint16_t T_old;
  24:User/e-Paper/paint_sensor.c **** extern uint16_t vbat_old;
  25:User/e-Paper/paint_sensor.c **** 
  26:User/e-Paper/paint_sensor.c **** /* Buffers used for displaying Time and Date */
  27:User/e-Paper/paint_sensor.c **** static char aEndTime[20] = {0};
  28:User/e-Paper/paint_sensor.c **** static char aEndDate[20] = {0};
  29:User/e-Paper/paint_sensor.c **** 
  30:User/e-Paper/paint_sensor.c **** UBYTE *BlackImage;
  31:User/e-Paper/paint_sensor.c **** // UWORD Imagesize;
  32:User/e-Paper/paint_sensor.c **** static char str_array[7] = {0};
  33:User/e-Paper/paint_sensor.c **** 
  34:User/e-Paper/paint_sensor.c **** struct X0_Y0
  35:User/e-Paper/paint_sensor.c **** {
  36:User/e-Paper/paint_sensor.c **** 	uint8_t x;
  37:User/e-Paper/paint_sensor.c **** 	uint8_t y;
  38:User/e-Paper/paint_sensor.c **** };
  39:User/e-Paper/paint_sensor.c **** 
  40:User/e-Paper/paint_sensor.c **** static const struct X0_Y0 big_1 = {10, 30};	   //	Big digit 2
  41:User/e-Paper/paint_sensor.c **** static const struct X0_Y0 big_0 = {67, 30};	   //	Big digit 1
  42:User/e-Paper/paint_sensor.c **** static const struct X0_Y0 small_0 = {142, 46}; //	Small digit 0
  43:User/e-Paper/paint_sensor.c **** 
  44:User/e-Paper/paint_sensor.c **** // *************************************************************************************
  45:User/e-Paper/paint_sensor.c **** 
  46:User/e-Paper/paint_sensor.c **** void battery_out(uint16_t bat)
  47:User/e-Paper/paint_sensor.c **** { // Battery voltage out  X.Y
  36              		.loc 1 47 1 view -0
  37              		.cfi_startproc
  38              		@ args = 0, pretend = 0, frame = 0
  39              		@ frame_needed = 0, uses_anonymous_args = 0
  48:User/e-Paper/paint_sensor.c **** 
  49:User/e-Paper/paint_sensor.c **** 	printf("**  Vbat out\n");
  40              		.loc 1 49 2 view .LVU1
  47:User/e-Paper/paint_sensor.c **** 
  41              		.loc 1 47 1 is_stmt 0 view .LVU2
  42 0000 F0B5     		push	{r4, r5, r6, r7, lr}
  43              	.LCFI0:
  44              		.cfi_def_cfa_offset 20
  45              		.cfi_offset 4, -20
  46              		.cfi_offset 5, -16
  47              		.cfi_offset 6, -12
  48              		.cfi_offset 7, -8
  49              		.cfi_offset 14, -4
  50 0002 0500     		movs	r5, r0
  50:User/e-Paper/paint_sensor.c **** 	uint8_t x = 3;
  51:User/e-Paper/paint_sensor.c **** 	uint8_t y = 160;
  52:User/e-Paper/paint_sensor.c **** 
  53:User/e-Paper/paint_sensor.c **** 	sprintf(str_array, "%2d", bat);
  54:User/e-Paper/paint_sensor.c **** 	Paint_ClearWindows(x, y, x + 40, y + 29, WHITE);
  51              		.loc 1 54 2 view .LVU3
  52 0004 FF26     		movs	r6, #255
  55:User/e-Paper/paint_sensor.c **** 
  56:User/e-Paper/paint_sensor.c **** 	Paint_DrawChar(x, y, str_array[0], &calibri_24pts, BLACK, WHITE); // 	12, 29, 8
  53              		.loc 1 56 2 view .LVU4
  54 0006 0027     		movs	r7, #0
  47:User/e-Paper/paint_sensor.c **** 
ARM GAS  C:\Users\upo\AppData\Local\Temp\ccWo9sLk.s 			page 3


  55              		.loc 1 47 1 view .LVU5
  56 0008 83B0     		sub	sp, sp, #12
  57              	.LCFI1:
  58              		.cfi_def_cfa_offset 32
  49:User/e-Paper/paint_sensor.c **** 	uint8_t x = 3;
  59              		.loc 1 49 2 view .LVU6
  60 000a 1548     		ldr	r0, .L3
  61              	.LVL1:
  49:User/e-Paper/paint_sensor.c **** 	uint8_t x = 3;
  62              		.loc 1 49 2 view .LVU7
  63 000c FFF7FEFF 		bl	printf_
  64              	.LVL2:
  50:User/e-Paper/paint_sensor.c **** 	uint8_t y = 160;
  65              		.loc 1 50 2 is_stmt 1 view .LVU8
  51:User/e-Paper/paint_sensor.c **** 
  66              		.loc 1 51 2 view .LVU9
  53:User/e-Paper/paint_sensor.c **** 	Paint_ClearWindows(x, y, x + 40, y + 29, WHITE);
  67              		.loc 1 53 2 view .LVU10
  68 0010 144C     		ldr	r4, .L3+4
  69 0012 2A00     		movs	r2, r5
  70 0014 2000     		movs	r0, r4
  71 0016 1449     		ldr	r1, .L3+8
  72 0018 FFF7FEFF 		bl	sprintf_
  73              	.LVL3:
  54:User/e-Paper/paint_sensor.c **** 
  74              		.loc 1 54 2 view .LVU11
  75 001c BD23     		movs	r3, #189
  76 001e 2B22     		movs	r2, #43
  77 0020 A021     		movs	r1, #160
  78 0022 0320     		movs	r0, #3
  79 0024 0096     		str	r6, [sp]
  80 0026 FFF7FEFF 		bl	Paint_ClearWindows
  81              	.LVL4:
  82              		.loc 1 56 2 view .LVU12
  83 002a 104D     		ldr	r5, .L3+12
  84 002c 2278     		ldrb	r2, [r4]
  85 002e 2B00     		movs	r3, r5
  86 0030 A021     		movs	r1, #160
  87 0032 0320     		movs	r0, #3
  88 0034 0196     		str	r6, [sp, #4]
  89 0036 0097     		str	r7, [sp]
  90 0038 FFF7FEFF 		bl	Paint_DrawChar
  91              	.LVL5:
  57:User/e-Paper/paint_sensor.c **** 	Paint_DrawChar(x + 12, y, str_array[1], &calibri_24pts, BLACK, WHITE);
  92              		.loc 1 57 2 view .LVU13
  93 003c 6278     		ldrb	r2, [r4, #1]
  94 003e 2B00     		movs	r3, r5
  95 0040 A021     		movs	r1, #160
  96 0042 0F20     		movs	r0, #15
  97 0044 0196     		str	r6, [sp, #4]
  98 0046 0097     		str	r7, [sp]
  99 0048 FFF7FEFF 		bl	Paint_DrawChar
 100              	.LVL6:
  58:User/e-Paper/paint_sensor.c **** 	Paint_DrawChar(x + 12 + 12, y, str_array[2], &calibri_24pts, BLACK, WHITE);
 101              		.loc 1 58 2 view .LVU14
 102 004c A278     		ldrb	r2, [r4, #2]
 103 004e 2B00     		movs	r3, r5
ARM GAS  C:\Users\upo\AppData\Local\Temp\ccWo9sLk.s 			page 4


 104 0050 A021     		movs	r1, #160
 105 0052 1B20     		movs	r0, #27
 106 0054 0196     		str	r6, [sp, #4]
 107 0056 0097     		str	r7, [sp]
 108 0058 FFF7FEFF 		bl	Paint_DrawChar
 109              	.LVL7:
  59:User/e-Paper/paint_sensor.c **** 
  60:User/e-Paper/paint_sensor.c **** 	//		EPD_1IN54_V2_DisplayPart(BlackImage);
  61:User/e-Paper/paint_sensor.c **** }
 110              		.loc 1 61 1 is_stmt 0 view .LVU15
 111 005c 03B0     		add	sp, sp, #12
 112              		@ sp needed
 113 005e F0BD     		pop	{r4, r5, r6, r7, pc}
 114              	.L4:
 115              		.align	2
 116              	.L3:
 117 0060 00000000 		.word	.LC0
 118 0064 00000000 		.word	str_array
 119 0068 10000000 		.word	.LC2
 120 006c 00000000 		.word	calibri_24pts
 121              		.cfi_endproc
 122              	.LFE1425:
 124              		.section	.rodata.temperature_out.str1.4,"aMS",%progbits,1
 125              		.align	2
 126              	.LC6:
 127 0000 2A2A2020 		.ascii	"**  T out\012\000"
 127      54206F75 
 127      740A00
 128 000b 00       		.align	2
 129              	.LC8:
 130 000c 25336400 		.ascii	"%3d\000"
 131              		.section	.text.temperature_out,"ax",%progbits
 132              		.align	1
 133              		.p2align 2,,3
 134              		.global	temperature_out
 135              		.syntax unified
 136              		.code	16
 137              		.thumb_func
 139              	temperature_out:
 140              	.LVL8:
 141              	.LFB1426:
  62:User/e-Paper/paint_sensor.c **** 
  63:User/e-Paper/paint_sensor.c **** void temperature_out(uint16_t tempr)
  64:User/e-Paper/paint_sensor.c **** {
 142              		.loc 1 64 1 is_stmt 1 view -0
 143              		.cfi_startproc
 144              		@ args = 0, pretend = 0, frame = 0
 145              		@ frame_needed = 0, uses_anonymous_args = 0
  65:User/e-Paper/paint_sensor.c **** 	printf("**  T out\n");
 146              		.loc 1 65 2 view .LVU17
  64:User/e-Paper/paint_sensor.c **** 	printf("**  T out\n");
 147              		.loc 1 64 1 is_stmt 0 view .LVU18
 148 0000 F0B5     		push	{r4, r5, r6, r7, lr}
 149              	.LCFI2:
 150              		.cfi_def_cfa_offset 20
 151              		.cfi_offset 4, -20
 152              		.cfi_offset 5, -16
ARM GAS  C:\Users\upo\AppData\Local\Temp\ccWo9sLk.s 			page 5


 153              		.cfi_offset 6, -12
 154              		.cfi_offset 7, -8
 155              		.cfi_offset 14, -4
 156 0002 0500     		movs	r5, r0
 157 0004 83B0     		sub	sp, sp, #12
 158              	.LCFI3:
 159              		.cfi_def_cfa_offset 32
 160              		.loc 1 65 2 view .LVU19
 161 0006 1A48     		ldr	r0, .L6
 162              	.LVL9:
 163              		.loc 1 65 2 view .LVU20
 164 0008 FFF7FEFF 		bl	printf_
 165              	.LVL10:
  66:User/e-Paper/paint_sensor.c **** 	sprintf(str_array, "%3d", tempr);
 166              		.loc 1 66 2 is_stmt 1 view .LVU21
 167 000c 2A00     		movs	r2, r5
  67:User/e-Paper/paint_sensor.c **** 	Paint_ClearWindows(big_1.x, big_1.y, 142 + 41, big_1.y + 101, WHITE); // 40 ms
 168              		.loc 1 67 2 is_stmt 0 view .LVU22
 169 000e FF25     		movs	r5, #255
  68:User/e-Paper/paint_sensor.c **** 
  69:User/e-Paper/paint_sensor.c **** 	Paint_DrawChar(big_1.x, big_1.y, str_array[0], &calibri_104pts, BLACK, WHITE); // 15 ms
 170              		.loc 1 69 2 view .LVU23
 171 0010 0027     		movs	r7, #0
  66:User/e-Paper/paint_sensor.c **** 	Paint_ClearWindows(big_1.x, big_1.y, 142 + 41, big_1.y + 101, WHITE); // 40 ms
 172              		.loc 1 66 2 view .LVU24
 173 0012 184C     		ldr	r4, .L6+4
 174 0014 1849     		ldr	r1, .L6+8
 175 0016 2000     		movs	r0, r4
 176 0018 FFF7FEFF 		bl	sprintf_
 177              	.LVL11:
  67:User/e-Paper/paint_sensor.c **** 	Paint_ClearWindows(big_1.x, big_1.y, 142 + 41, big_1.y + 101, WHITE); // 40 ms
 178              		.loc 1 67 2 is_stmt 1 view .LVU25
 179 001c 8323     		movs	r3, #131
 180 001e B722     		movs	r2, #183
 181 0020 1E21     		movs	r1, #30
 182 0022 0A20     		movs	r0, #10
 183 0024 0095     		str	r5, [sp]
 184 0026 FFF7FEFF 		bl	Paint_ClearWindows
 185              	.LVL12:
 186              		.loc 1 69 2 view .LVU26
 187 002a 144E     		ldr	r6, .L6+12
 188 002c 2278     		ldrb	r2, [r4]
 189 002e 3300     		movs	r3, r6
 190 0030 1E21     		movs	r1, #30
 191 0032 0A20     		movs	r0, #10
 192 0034 0195     		str	r5, [sp, #4]
 193 0036 0097     		str	r7, [sp]
 194 0038 FFF7FEFF 		bl	Paint_DrawChar
 195              	.LVL13:
  70:User/e-Paper/paint_sensor.c **** 	Paint_DrawChar(big_0.x, big_0.y, str_array[1], &calibri_104pts, BLACK, WHITE);
 196              		.loc 1 70 2 view .LVU27
 197 003c 6278     		ldrb	r2, [r4, #1]
 198 003e 3300     		movs	r3, r6
 199 0040 1E21     		movs	r1, #30
 200 0042 4320     		movs	r0, #67
 201 0044 0195     		str	r5, [sp, #4]
 202 0046 0097     		str	r7, [sp]
ARM GAS  C:\Users\upo\AppData\Local\Temp\ccWo9sLk.s 			page 6


 203 0048 FFF7FEFF 		bl	Paint_DrawChar
 204              	.LVL14:
  71:User/e-Paper/paint_sensor.c **** 	Paint_DrawPoint(131, 100, BLACK, DOT_PIXEL_5X5, DOT_FILL_AROUND); // Draw decimal point
 205              		.loc 1 71 2 view .LVU28
 206 004c 0123     		movs	r3, #1
 207 004e 0022     		movs	r2, #0
 208 0050 0093     		str	r3, [sp]
 209 0052 6421     		movs	r1, #100
 210 0054 8320     		movs	r0, #131
 211 0056 0433     		adds	r3, r3, #4
 212 0058 FFF7FEFF 		bl	Paint_DrawPoint
 213              	.LVL15:
  72:User/e-Paper/paint_sensor.c **** 	Paint_DrawChar(small_0.x, small_0.y, str_array[2], &calibri_80pts, BLACK, WHITE);
 214              		.loc 1 72 2 view .LVU29
 215 005c A278     		ldrb	r2, [r4, #2]
 216 005e 2E21     		movs	r1, #46
 217 0060 8E20     		movs	r0, #142
 218 0062 074B     		ldr	r3, .L6+16
 219 0064 0195     		str	r5, [sp, #4]
 220 0066 0097     		str	r7, [sp]
 221 0068 FFF7FEFF 		bl	Paint_DrawChar
 222              	.LVL16:
  73:User/e-Paper/paint_sensor.c **** 
  74:User/e-Paper/paint_sensor.c **** 	//	EPD_1IN54_V2_DisplayPart(BlackImage);	// 0.84 sec ms
  75:User/e-Paper/paint_sensor.c **** }
 223              		.loc 1 75 1 is_stmt 0 view .LVU30
 224 006c 03B0     		add	sp, sp, #12
 225              		@ sp needed
 226 006e F0BD     		pop	{r4, r5, r6, r7, pc}
 227              	.L7:
 228              		.align	2
 229              	.L6:
 230 0070 00000000 		.word	.LC6
 231 0074 00000000 		.word	str_array
 232 0078 0C000000 		.word	.LC8
 233 007c 00000000 		.word	calibri_104pts
 234 0080 00000000 		.word	calibri_80pts
 235              		.cfi_endproc
 236              	.LFE1426:
 238              		.section	.rodata.humidity_out.str1.4,"aMS",%progbits,1
 239              		.align	2
 240              	.LC13:
 241 0000 2A2A2020 		.ascii	"**  H out\012\000"
 241      48206F75 
 241      740A00
 242 000b 00       		.align	2
 243              	.LC17:
 244 000c 2500     		.ascii	"%\000"
 245              		.section	.text.humidity_out,"ax",%progbits
 246              		.align	1
 247              		.p2align 2,,3
 248              		.global	humidity_out
 249              		.syntax unified
 250              		.code	16
 251              		.thumb_func
 253              	humidity_out:
 254              	.LVL17:
ARM GAS  C:\Users\upo\AppData\Local\Temp\ccWo9sLk.s 			page 7


 255              	.LFB1427:
  76:User/e-Paper/paint_sensor.c **** 
  77:User/e-Paper/paint_sensor.c **** void humidity_out(uint16_t hum)
  78:User/e-Paper/paint_sensor.c **** {
 256              		.loc 1 78 1 is_stmt 1 view -0
 257              		.cfi_startproc
 258              		@ args = 0, pretend = 0, frame = 0
 259              		@ frame_needed = 0, uses_anonymous_args = 0
  79:User/e-Paper/paint_sensor.c **** 	printf("**  H out\n");
 260              		.loc 1 79 2 view .LVU32
  78:User/e-Paper/paint_sensor.c **** 	printf("**  H out\n");
 261              		.loc 1 78 1 is_stmt 0 view .LVU33
 262 0000 30B5     		push	{r4, r5, lr}
 263              	.LCFI4:
 264              		.cfi_def_cfa_offset 12
 265              		.cfi_offset 4, -12
 266              		.cfi_offset 5, -8
 267              		.cfi_offset 14, -4
 268 0002 0500     		movs	r5, r0
 269 0004 83B0     		sub	sp, sp, #12
 270              	.LCFI5:
 271              		.cfi_def_cfa_offset 24
 272              		.loc 1 79 2 view .LVU34
 273 0006 1348     		ldr	r0, .L9
 274              	.LVL18:
 275              		.loc 1 79 2 view .LVU35
 276 0008 FFF7FEFF 		bl	printf_
 277              	.LVL19:
  80:User/e-Paper/paint_sensor.c **** 	uint8_t x = 125;
 278              		.loc 1 80 2 is_stmt 1 view .LVU36
  81:User/e-Paper/paint_sensor.c **** 	uint8_t y = 150;
 279              		.loc 1 81 2 view .LVU37
  82:User/e-Paper/paint_sensor.c **** 	//  char pcent = '%';
  83:User/e-Paper/paint_sensor.c **** 	//  sprintf(str_array, "%2d%%", hum);
  84:User/e-Paper/paint_sensor.c **** 	//  append % to string
  85:User/e-Paper/paint_sensor.c **** 	//  strncat(str_array, &pcent, 1);
  86:User/e-Paper/paint_sensor.c **** 	snprintf(str_array, sizeof(str_array), "%2d", hum);					// Format the number
 280              		.loc 1 86 2 view .LVU38
 281 000c 124C     		ldr	r4, .L9+4
 282 000e 2B00     		movs	r3, r5
 283 0010 0721     		movs	r1, #7
 284 0012 124A     		ldr	r2, .L9+8
 285 0014 2000     		movs	r0, r4
 286 0016 FFF7FEFF 		bl	snprintf_
 287              	.LVL20:
  87:User/e-Paper/paint_sensor.c **** 	strncat(str_array, "%", sizeof(str_array) - strlen(str_array) - 1); // Append %
 288              		.loc 1 87 2 view .LVU39
 289              		.loc 1 87 46 is_stmt 0 view .LVU40
 290 001a 2000     		movs	r0, r4
 291 001c FFF7FEFF 		bl	strlen
 292              	.LVL21:
 293              		.loc 1 87 2 view .LVU41
 294 0020 0622     		movs	r2, #6
  88:User/e-Paper/paint_sensor.c **** 
  89:User/e-Paper/paint_sensor.c **** 	Paint_ClearWindows(x, y, 200, 197, WHITE);									// 10^1
 295              		.loc 1 89 2 view .LVU42
 296 0022 FF25     		movs	r5, #255
ARM GAS  C:\Users\upo\AppData\Local\Temp\ccWo9sLk.s 			page 8


  87:User/e-Paper/paint_sensor.c **** 	strncat(str_array, "%", sizeof(str_array) - strlen(str_array) - 1); // Append %
 297              		.loc 1 87 2 view .LVU43
 298 0024 121A     		subs	r2, r2, r0
 299 0026 0E49     		ldr	r1, .L9+12
 300 0028 2000     		movs	r0, r4
 301 002a FFF7FEFF 		bl	strncat
 302              	.LVL22:
 303              		.loc 1 89 2 is_stmt 1 view .LVU44
 304 002e C523     		movs	r3, #197
 305 0030 C822     		movs	r2, #200
 306 0032 9621     		movs	r1, #150
 307 0034 7D20     		movs	r0, #125
 308 0036 0095     		str	r5, [sp]
 309 0038 FFF7FEFF 		bl	Paint_ClearWindows
 310              	.LVL23:
  90:User/e-Paper/paint_sensor.c **** 	Paint_DrawString_EN(x, y, (char *)str_array, &calibri_36pts, WHITE, BLACK); // 20, 34
 311              		.loc 1 90 2 view .LVU45
 312 003c 0022     		movs	r2, #0
 313 003e 9621     		movs	r1, #150
 314 0040 0192     		str	r2, [sp, #4]
 315 0042 7D20     		movs	r0, #125
 316 0044 2200     		movs	r2, r4
 317 0046 074B     		ldr	r3, .L9+16
 318 0048 0095     		str	r5, [sp]
 319 004a FFF7FEFF 		bl	Paint_DrawString_EN
 320              	.LVL24:
  91:User/e-Paper/paint_sensor.c **** }
 321              		.loc 1 91 1 is_stmt 0 view .LVU46
 322 004e 03B0     		add	sp, sp, #12
 323              		@ sp needed
 324 0050 30BD     		pop	{r4, r5, pc}
 325              	.L10:
 326 0052 C046     		.align	2
 327              	.L9:
 328 0054 00000000 		.word	.LC13
 329 0058 00000000 		.word	str_array
 330 005c 10000000 		.word	.LC2
 331 0060 0C000000 		.word	.LC17
 332 0064 00000000 		.word	calibri_36pts
 333              		.cfi_endproc
 334              	.LFE1427:
 336              		.section	.rodata.ESP_Init.str1.4,"aMS",%progbits,1
 337              		.align	2
 338              	.LC20:
 339 0000 4553505F 		.ascii	"ESP_Init\012\000"
 339      496E6974 
 339      0A00
 340 000a 0000     		.align	2
 341              	.LC23:
 342 000c 4661696C 		.ascii	"Failed to apply for black memory...\015\012\000"
 342      65642074 
 342      6F206170 
 342      706C7920 
 342      666F7220 
 343              		.section	.text.ESP_Init,"ax",%progbits
 344              		.align	1
 345              		.p2align 2,,3
ARM GAS  C:\Users\upo\AppData\Local\Temp\ccWo9sLk.s 			page 9


 346              		.global	ESP_Init
 347              		.syntax unified
 348              		.code	16
 349              		.thumb_func
 351              	ESP_Init:
 352              	.LFB1428:
  92:User/e-Paper/paint_sensor.c **** 
  93:User/e-Paper/paint_sensor.c **** //  **************************************************************************************
  94:User/e-Paper/paint_sensor.c **** 
  95:User/e-Paper/paint_sensor.c **** int ESP_Init(void)
  96:User/e-Paper/paint_sensor.c **** {
 353              		.loc 1 96 1 is_stmt 1 view -0
 354              		.cfi_startproc
 355              		@ args = 0, pretend = 0, frame = 0
 356              		@ frame_needed = 0, uses_anonymous_args = 0
  97:User/e-Paper/paint_sensor.c **** 	printf("ESP_Init\n");
 357              		.loc 1 97 2 view .LVU48
  96:User/e-Paper/paint_sensor.c **** 	printf("ESP_Init\n");
 358              		.loc 1 96 1 is_stmt 0 view .LVU49
 359 0000 10B5     		push	{r4, lr}
 360              	.LCFI6:
 361              		.cfi_def_cfa_offset 8
 362              		.cfi_offset 4, -8
 363              		.cfi_offset 14, -4
 364              		.loc 1 97 2 view .LVU50
 365 0002 1C48     		ldr	r0, .L15
  96:User/e-Paper/paint_sensor.c **** 	printf("ESP_Init\n");
 366              		.loc 1 96 1 view .LVU51
 367 0004 84B0     		sub	sp, sp, #16
 368              	.LCFI7:
 369              		.cfi_def_cfa_offset 24
 370              		.loc 1 97 2 view .LVU52
 371 0006 FFF7FEFF 		bl	printf_
 372              	.LVL25:
  98:User/e-Paper/paint_sensor.c **** 	DEV_Module_Init();	 // DC_L();SPI_CS_H();RST_H(); - set initial values
 373              		.loc 1 98 2 is_stmt 1 view .LVU53
 374 000a FFF7FEFF 		bl	DEV_Module_Init
 375              	.LVL26:
  99:User/e-Paper/paint_sensor.c **** 	EPD_1IN54_V2_Init(); // Reset pin set low, set LUT etc.
 376              		.loc 1 99 2 view .LVU54
 377 000e FFF7FEFF 		bl	EPD_1IN54_V2_Init
 378              	.LVL27:
 100:User/e-Paper/paint_sensor.c **** 
 101:User/e-Paper/paint_sensor.c **** 	// Create a new image cache
 102:User/e-Paper/paint_sensor.c **** 	/* !!!  you have to edit the startup_stm32fxxx.s file and set a heap size = 1500 !!!  */
 103:User/e-Paper/paint_sensor.c **** 	UWORD Imagesize = ((EPD_1IN54_V2_WIDTH % 8 == 0) ? (EPD_1IN54_V2_WIDTH / 8) : (EPD_1IN54_V2_WIDTH 
 379              		.loc 1 103 2 view .LVU55
 104:User/e-Paper/paint_sensor.c **** 	if ((BlackImage = (UBYTE *)malloc(Imagesize)) == NULL)
 380              		.loc 1 104 2 view .LVU56
 381              		.loc 1 104 29 is_stmt 0 view .LVU57
 382 0012 1948     		ldr	r0, .L15+4
 383 0014 FFF7FEFF 		bl	malloc
 384              	.LVL28:
 385              		.loc 1 104 18 view .LVU58
 386 0018 184C     		ldr	r4, .L15+8
 387 001a 2060     		str	r0, [r4]
 388              		.loc 1 104 5 view .LVU59
ARM GAS  C:\Users\upo\AppData\Local\Temp\ccWo9sLk.s 			page 10


 389 001c 0028     		cmp	r0, #0
 390 001e 22D0     		beq	.L14
 105:User/e-Paper/paint_sensor.c **** 	{
 106:User/e-Paper/paint_sensor.c **** 		printf("Failed to apply for black memory...\r\n");
 107:User/e-Paper/paint_sensor.c **** 		return -1;
 108:User/e-Paper/paint_sensor.c **** 	}
 109:User/e-Paper/paint_sensor.c **** 
 110:User/e-Paper/paint_sensor.c **** 	Paint_NewImage(BlackImage, EPD_1IN54_V2_WIDTH, EPD_1IN54_V2_HEIGHT, 0, WHITE);
 391              		.loc 1 110 2 is_stmt 1 view .LVU60
 392 0020 FF23     		movs	r3, #255
 393 0022 C822     		movs	r2, #200
 394 0024 C821     		movs	r1, #200
 395 0026 0093     		str	r3, [sp]
 396 0028 0023     		movs	r3, #0
 397 002a FFF7FEFF 		bl	Paint_NewImage
 398              	.LVL29:
 111:User/e-Paper/paint_sensor.c **** 
 112:User/e-Paper/paint_sensor.c **** 	//  	Paint_Clear(WHITE);
 113:User/e-Paper/paint_sensor.c **** 	Paint_SelectImage(BlackImage);
 399              		.loc 1 113 2 view .LVU61
 400 002e 2068     		ldr	r0, [r4]
 401 0030 FFF7FEFF 		bl	Paint_SelectImage
 402              	.LVL30:
 114:User/e-Paper/paint_sensor.c **** 	Paint_Clear(WHITE);
 403              		.loc 1 114 2 view .LVU62
 404 0034 FF20     		movs	r0, #255
 405 0036 FFF7FEFF 		bl	Paint_Clear
 406              	.LVL31:
 115:User/e-Paper/paint_sensor.c **** 	Paint_DrawRectangle(2, 3, 198, 140, BLACK, DOT_PIXEL_2X2, DRAW_FILL_EMPTY);
 407              		.loc 1 115 2 view .LVU63
 408 003a 0023     		movs	r3, #0
 409 003c 0222     		movs	r2, #2
 410 003e 0321     		movs	r1, #3
 411 0040 0220     		movs	r0, #2
 412 0042 0293     		str	r3, [sp, #8]
 413 0044 0192     		str	r2, [sp, #4]
 414 0046 0093     		str	r3, [sp]
 415 0048 C432     		adds	r2, r2, #196
 416 004a 8C33     		adds	r3, r3, #140
 417 004c FFF7FEFF 		bl	Paint_DrawRectangle
 418              	.LVL32:
 116:User/e-Paper/paint_sensor.c **** 
 117:User/e-Paper/paint_sensor.c **** 	EPD_1IN54_V2_Display(BlackImage); // Write data to display's RAM
 419              		.loc 1 117 2 view .LVU64
 420 0050 2068     		ldr	r0, [r4]
 421 0052 FFF7FEFF 		bl	EPD_1IN54_V2_Display
 422              	.LVL33:
 118:User/e-Paper/paint_sensor.c **** 
 119:User/e-Paper/paint_sensor.c **** 	EPD_1IN54_V2_DisplayPartBaseImage(BlackImage);
 423              		.loc 1 119 2 view .LVU65
 424 0056 2068     		ldr	r0, [r4]
 425 0058 FFF7FEFF 		bl	EPD_1IN54_V2_DisplayPartBaseImage
 426              	.LVL34:
 120:User/e-Paper/paint_sensor.c **** 	EPD_1IN54_V2_Init_Partial();
 427              		.loc 1 120 2 view .LVU66
 428 005c FFF7FEFF 		bl	EPD_1IN54_V2_Init_Partial
 429              	.LVL35:
ARM GAS  C:\Users\upo\AppData\Local\Temp\ccWo9sLk.s 			page 11


 121:User/e-Paper/paint_sensor.c **** 
 122:User/e-Paper/paint_sensor.c **** 	return 0;
 430              		.loc 1 122 2 view .LVU67
 431              		.loc 1 122 9 is_stmt 0 view .LVU68
 432 0060 0020     		movs	r0, #0
 433              	.L11:
 123:User/e-Paper/paint_sensor.c **** }
 434              		.loc 1 123 1 view .LVU69
 435 0062 04B0     		add	sp, sp, #16
 436              		@ sp needed
 437 0064 10BD     		pop	{r4, pc}
 438              	.L14:
 106:User/e-Paper/paint_sensor.c **** 		return -1;
 439              		.loc 1 106 3 is_stmt 1 view .LVU70
 440 0066 0648     		ldr	r0, .L15+12
 441 0068 FFF7FEFF 		bl	printf_
 442              	.LVL36:
 107:User/e-Paper/paint_sensor.c **** 	}
 443              		.loc 1 107 3 view .LVU71
 107:User/e-Paper/paint_sensor.c **** 	}
 444              		.loc 1 107 10 is_stmt 0 view .LVU72
 445 006c 0120     		movs	r0, #1
 446 006e 4042     		rsbs	r0, r0, #0
 447 0070 F7E7     		b	.L11
 448              	.L16:
 449 0072 C046     		.align	2
 450              	.L15:
 451 0074 00000000 		.word	.LC20
 452 0078 88130000 		.word	5000
 453 007c 00000000 		.word	BlackImage
 454 0080 0C000000 		.word	.LC23
 455              		.cfi_endproc
 456              	.LFE1428:
 458              		.section	.rodata.Show_RTC_Calendar.str1.4,"aMS",%progbits,1
 459              		.align	2
 460              	.LC25:
 461 0000 252E3264 		.ascii	"%.2d:%.2d:%.2d\000"
 461      3A252E32 
 461      643A252E 
 461      326400
 462 000f 00       		.align	2
 463              	.LC28:
 464 0010 252E3264 		.ascii	"%.2d-%.2d-%.2d\000"
 464      2D252E32 
 464      642D252E 
 464      326400
 465 001f 00       		.align	2
 466              	.LC31:
 467 0020 25730920 		.ascii	"%s\011 %s\012\000"
 467      25730A00 
 468              		.section	.text.Show_RTC_Calendar,"ax",%progbits
 469              		.align	1
 470              		.p2align 2,,3
 471              		.global	Show_RTC_Calendar
 472              		.syntax unified
 473              		.code	16
 474              		.thumb_func
ARM GAS  C:\Users\upo\AppData\Local\Temp\ccWo9sLk.s 			page 12


 476              	Show_RTC_Calendar:
 477              	.LFB1430:
 124:User/e-Paper/paint_sensor.c **** 
 125:User/e-Paper/paint_sensor.c **** void final_message(uint16_t bat_voltage)
 126:User/e-Paper/paint_sensor.c **** { // sleep
 127:User/e-Paper/paint_sensor.c **** 
 128:User/e-Paper/paint_sensor.c **** 	ESP_Init();
 129:User/e-Paper/paint_sensor.c **** 	uint16_t Xstart = 5;
 130:User/e-Paper/paint_sensor.c **** 	uint16_t Ystart = 2;
 131:User/e-Paper/paint_sensor.c **** 
 132:User/e-Paper/paint_sensor.c **** 	EPD_1IN54_V2_Init();
 133:User/e-Paper/paint_sensor.c **** 	Paint_SelectImage(BlackImage); // Paint.Image = image;
 134:User/e-Paper/paint_sensor.c **** 	Paint_Clear(WHITE);
 135:User/e-Paper/paint_sensor.c **** 
 136:User/e-Paper/paint_sensor.c **** 	sprintf(str_array, "%d", bat_voltage);
 137:User/e-Paper/paint_sensor.c **** 	Paint_DrawString_EN(Xstart, Ystart, "Vbat:", &calibri_20pts, WHITE, BLACK); // font size 17,24
 138:User/e-Paper/paint_sensor.c **** 	Paint_DrawString_EN(Xstart + 7 * 10, Ystart, str_array, &calibri_20pts, WHITE, BLACK);
 139:User/e-Paper/paint_sensor.c **** 
 140:User/e-Paper/paint_sensor.c **** 	Show_RTC_Calendar();
 141:User/e-Paper/paint_sensor.c **** 	Paint_DrawString_EN(Xstart, Ystart + 75, "EndTime:", &calibri_20pts, WHITE, BLACK);
 142:User/e-Paper/paint_sensor.c **** 	Paint_DrawString_EN(Xstart, Ystart + 100, aEndTime, &calibri_20pts, WHITE, BLACK);
 143:User/e-Paper/paint_sensor.c **** 	Paint_DrawString_EN(Xstart + 6 * 10 + 20, Ystart + 100, aEndDate, &calibri_20pts, WHITE, BLACK);
 144:User/e-Paper/paint_sensor.c **** 
 145:User/e-Paper/paint_sensor.c **** 	EPD_1IN54_V2_Display(BlackImage);
 146:User/e-Paper/paint_sensor.c **** 	EPD_1IN54_V2_Sleep();
 147:User/e-Paper/paint_sensor.c **** }
 148:User/e-Paper/paint_sensor.c **** 
 149:User/e-Paper/paint_sensor.c **** void Show_RTC_Calendar(void)
 150:User/e-Paper/paint_sensor.c **** {
 478              		.loc 1 150 1 is_stmt 1 view -0
 479              		.cfi_startproc
 480              		@ args = 0, pretend = 0, frame = 0
 481              		@ frame_needed = 0, uses_anonymous_args = 0
 151:User/e-Paper/paint_sensor.c **** 	/* Note: need to convert in decimal value in using __LL_RTC_CONVERT_BCD2BIN helper macro */
 152:User/e-Paper/paint_sensor.c **** 	/* Display time Format : hh:mm:ss */
 153:User/e-Paper/paint_sensor.c **** 	sprintf((char *)aEndTime, "%.2d:%.2d:%.2d", __LL_RTC_CONVERT_BCD2BIN(LL_RTC_TIME_GetHour(RTC)),
 482              		.loc 1 153 2 view .LVU74
 483              	.LVL37:
 484              	.LBB26:
 485              	.LBI26:
 486              		.file 2 "Drivers/STM32U0xx_HAL_Driver/Inc/stm32u0xx_ll_rtc.h"
   1:Drivers/STM32U0xx_HAL_Driver/Inc/stm32u0xx_ll_rtc.h **** /**
   2:Drivers/STM32U0xx_HAL_Driver/Inc/stm32u0xx_ll_rtc.h ****   ******************************************************************************
   3:Drivers/STM32U0xx_HAL_Driver/Inc/stm32u0xx_ll_rtc.h ****   * @file    stm32u0xx_ll_rtc.h
   4:Drivers/STM32U0xx_HAL_Driver/Inc/stm32u0xx_ll_rtc.h ****   * @author  GPM Application Team
   5:Drivers/STM32U0xx_HAL_Driver/Inc/stm32u0xx_ll_rtc.h ****   * @brief   Header file of RTC LL module.
   6:Drivers/STM32U0xx_HAL_Driver/Inc/stm32u0xx_ll_rtc.h ****   ******************************************************************************
   7:Drivers/STM32U0xx_HAL_Driver/Inc/stm32u0xx_ll_rtc.h ****   * @attention
   8:Drivers/STM32U0xx_HAL_Driver/Inc/stm32u0xx_ll_rtc.h ****   *
   9:Drivers/STM32U0xx_HAL_Driver/Inc/stm32u0xx_ll_rtc.h ****   * Copyright (c) 2023 STMicroelectronics.
  10:Drivers/STM32U0xx_HAL_Driver/Inc/stm32u0xx_ll_rtc.h ****   * All rights reserved.
  11:Drivers/STM32U0xx_HAL_Driver/Inc/stm32u0xx_ll_rtc.h ****   *
  12:Drivers/STM32U0xx_HAL_Driver/Inc/stm32u0xx_ll_rtc.h ****   * This software is licensed under terms that can be found in the LICENSE file
  13:Drivers/STM32U0xx_HAL_Driver/Inc/stm32u0xx_ll_rtc.h ****   * in the root directory of this software component.
  14:Drivers/STM32U0xx_HAL_Driver/Inc/stm32u0xx_ll_rtc.h ****   * If no LICENSE file comes with this software, it is provided AS-IS.
  15:Drivers/STM32U0xx_HAL_Driver/Inc/stm32u0xx_ll_rtc.h ****   *
  16:Drivers/STM32U0xx_HAL_Driver/Inc/stm32u0xx_ll_rtc.h ****   ******************************************************************************
ARM GAS  C:\Users\upo\AppData\Local\Temp\ccWo9sLk.s 			page 13


  17:Drivers/STM32U0xx_HAL_Driver/Inc/stm32u0xx_ll_rtc.h ****   */
  18:Drivers/STM32U0xx_HAL_Driver/Inc/stm32u0xx_ll_rtc.h **** 
  19:Drivers/STM32U0xx_HAL_Driver/Inc/stm32u0xx_ll_rtc.h **** /* Define to prevent recursive inclusion -------------------------------------*/
  20:Drivers/STM32U0xx_HAL_Driver/Inc/stm32u0xx_ll_rtc.h **** #ifndef __STM32U0xx_LL_RTC_H
  21:Drivers/STM32U0xx_HAL_Driver/Inc/stm32u0xx_ll_rtc.h **** #define __STM32U0xx_LL_RTC_H
  22:Drivers/STM32U0xx_HAL_Driver/Inc/stm32u0xx_ll_rtc.h **** 
  23:Drivers/STM32U0xx_HAL_Driver/Inc/stm32u0xx_ll_rtc.h **** #ifdef __cplusplus
  24:Drivers/STM32U0xx_HAL_Driver/Inc/stm32u0xx_ll_rtc.h **** extern "C" {
  25:Drivers/STM32U0xx_HAL_Driver/Inc/stm32u0xx_ll_rtc.h **** #endif
  26:Drivers/STM32U0xx_HAL_Driver/Inc/stm32u0xx_ll_rtc.h **** 
  27:Drivers/STM32U0xx_HAL_Driver/Inc/stm32u0xx_ll_rtc.h **** /* Includes ------------------------------------------------------------------*/
  28:Drivers/STM32U0xx_HAL_Driver/Inc/stm32u0xx_ll_rtc.h **** #include "stm32u0xx.h"
  29:Drivers/STM32U0xx_HAL_Driver/Inc/stm32u0xx_ll_rtc.h **** 
  30:Drivers/STM32U0xx_HAL_Driver/Inc/stm32u0xx_ll_rtc.h **** /** @addtogroup STM32U0xx_LL_Driver
  31:Drivers/STM32U0xx_HAL_Driver/Inc/stm32u0xx_ll_rtc.h ****   * @{
  32:Drivers/STM32U0xx_HAL_Driver/Inc/stm32u0xx_ll_rtc.h ****   */
  33:Drivers/STM32U0xx_HAL_Driver/Inc/stm32u0xx_ll_rtc.h **** 
  34:Drivers/STM32U0xx_HAL_Driver/Inc/stm32u0xx_ll_rtc.h **** #if defined(RTC)
  35:Drivers/STM32U0xx_HAL_Driver/Inc/stm32u0xx_ll_rtc.h **** 
  36:Drivers/STM32U0xx_HAL_Driver/Inc/stm32u0xx_ll_rtc.h **** /** @defgroup RTC_LL RTC
  37:Drivers/STM32U0xx_HAL_Driver/Inc/stm32u0xx_ll_rtc.h ****   * @{
  38:Drivers/STM32U0xx_HAL_Driver/Inc/stm32u0xx_ll_rtc.h ****   */
  39:Drivers/STM32U0xx_HAL_Driver/Inc/stm32u0xx_ll_rtc.h **** 
  40:Drivers/STM32U0xx_HAL_Driver/Inc/stm32u0xx_ll_rtc.h **** /* Private types -------------------------------------------------------------*/
  41:Drivers/STM32U0xx_HAL_Driver/Inc/stm32u0xx_ll_rtc.h **** /* Private variables ---------------------------------------------------------*/
  42:Drivers/STM32U0xx_HAL_Driver/Inc/stm32u0xx_ll_rtc.h **** /* Private constants ---------------------------------------------------------*/
  43:Drivers/STM32U0xx_HAL_Driver/Inc/stm32u0xx_ll_rtc.h **** /** @defgroup RTC_LL_Private_Constants RTC Private Constants
  44:Drivers/STM32U0xx_HAL_Driver/Inc/stm32u0xx_ll_rtc.h ****   * @{
  45:Drivers/STM32U0xx_HAL_Driver/Inc/stm32u0xx_ll_rtc.h ****   */
  46:Drivers/STM32U0xx_HAL_Driver/Inc/stm32u0xx_ll_rtc.h **** /* Masks Definition */
  47:Drivers/STM32U0xx_HAL_Driver/Inc/stm32u0xx_ll_rtc.h **** #define RTC_LL_INIT_MASK                 0xFFFFFFFFU
  48:Drivers/STM32U0xx_HAL_Driver/Inc/stm32u0xx_ll_rtc.h **** #define RTC_LL_RSF_MASK                  0xFFFFFF5FU
  49:Drivers/STM32U0xx_HAL_Driver/Inc/stm32u0xx_ll_rtc.h **** 
  50:Drivers/STM32U0xx_HAL_Driver/Inc/stm32u0xx_ll_rtc.h **** /* Write protection defines */
  51:Drivers/STM32U0xx_HAL_Driver/Inc/stm32u0xx_ll_rtc.h **** #define RTC_WRITE_PROTECTION_DISABLE   (uint8_t)0xFF
  52:Drivers/STM32U0xx_HAL_Driver/Inc/stm32u0xx_ll_rtc.h **** #define RTC_WRITE_PROTECTION_ENABLE_1  (uint8_t)0xCA
  53:Drivers/STM32U0xx_HAL_Driver/Inc/stm32u0xx_ll_rtc.h **** #define RTC_WRITE_PROTECTION_ENABLE_2  (uint8_t)0x53
  54:Drivers/STM32U0xx_HAL_Driver/Inc/stm32u0xx_ll_rtc.h **** 
  55:Drivers/STM32U0xx_HAL_Driver/Inc/stm32u0xx_ll_rtc.h **** /* Defines used to combine date & time */
  56:Drivers/STM32U0xx_HAL_Driver/Inc/stm32u0xx_ll_rtc.h **** #define RTC_OFFSET_WEEKDAY            24U
  57:Drivers/STM32U0xx_HAL_Driver/Inc/stm32u0xx_ll_rtc.h **** #define RTC_OFFSET_DAY                16U
  58:Drivers/STM32U0xx_HAL_Driver/Inc/stm32u0xx_ll_rtc.h **** #define RTC_OFFSET_MONTH              8U
  59:Drivers/STM32U0xx_HAL_Driver/Inc/stm32u0xx_ll_rtc.h **** #define RTC_OFFSET_HOUR               16U
  60:Drivers/STM32U0xx_HAL_Driver/Inc/stm32u0xx_ll_rtc.h **** #define RTC_OFFSET_MINUTE             8U
  61:Drivers/STM32U0xx_HAL_Driver/Inc/stm32u0xx_ll_rtc.h **** 
  62:Drivers/STM32U0xx_HAL_Driver/Inc/stm32u0xx_ll_rtc.h **** /**
  63:Drivers/STM32U0xx_HAL_Driver/Inc/stm32u0xx_ll_rtc.h ****   * @}
  64:Drivers/STM32U0xx_HAL_Driver/Inc/stm32u0xx_ll_rtc.h ****   */
  65:Drivers/STM32U0xx_HAL_Driver/Inc/stm32u0xx_ll_rtc.h **** 
  66:Drivers/STM32U0xx_HAL_Driver/Inc/stm32u0xx_ll_rtc.h **** /* Private macros ------------------------------------------------------------*/
  67:Drivers/STM32U0xx_HAL_Driver/Inc/stm32u0xx_ll_rtc.h **** #if defined(USE_FULL_LL_DRIVER)
  68:Drivers/STM32U0xx_HAL_Driver/Inc/stm32u0xx_ll_rtc.h **** /** @defgroup RTC_LL_Private_Macros RTC Private Macros
  69:Drivers/STM32U0xx_HAL_Driver/Inc/stm32u0xx_ll_rtc.h ****   * @{
  70:Drivers/STM32U0xx_HAL_Driver/Inc/stm32u0xx_ll_rtc.h ****   */
  71:Drivers/STM32U0xx_HAL_Driver/Inc/stm32u0xx_ll_rtc.h **** /**
  72:Drivers/STM32U0xx_HAL_Driver/Inc/stm32u0xx_ll_rtc.h ****   * @}
  73:Drivers/STM32U0xx_HAL_Driver/Inc/stm32u0xx_ll_rtc.h ****   */
ARM GAS  C:\Users\upo\AppData\Local\Temp\ccWo9sLk.s 			page 14


  74:Drivers/STM32U0xx_HAL_Driver/Inc/stm32u0xx_ll_rtc.h **** #endif /*USE_FULL_LL_DRIVER*/
  75:Drivers/STM32U0xx_HAL_Driver/Inc/stm32u0xx_ll_rtc.h **** 
  76:Drivers/STM32U0xx_HAL_Driver/Inc/stm32u0xx_ll_rtc.h **** /* Exported types ------------------------------------------------------------*/
  77:Drivers/STM32U0xx_HAL_Driver/Inc/stm32u0xx_ll_rtc.h **** #if defined(USE_FULL_LL_DRIVER)
  78:Drivers/STM32U0xx_HAL_Driver/Inc/stm32u0xx_ll_rtc.h **** /** @defgroup RTC_LL_ES_INIT RTC Exported Init structure
  79:Drivers/STM32U0xx_HAL_Driver/Inc/stm32u0xx_ll_rtc.h ****   * @{
  80:Drivers/STM32U0xx_HAL_Driver/Inc/stm32u0xx_ll_rtc.h ****   */
  81:Drivers/STM32U0xx_HAL_Driver/Inc/stm32u0xx_ll_rtc.h **** 
  82:Drivers/STM32U0xx_HAL_Driver/Inc/stm32u0xx_ll_rtc.h **** /**
  83:Drivers/STM32U0xx_HAL_Driver/Inc/stm32u0xx_ll_rtc.h ****   * @brief  RTC Init structures definition
  84:Drivers/STM32U0xx_HAL_Driver/Inc/stm32u0xx_ll_rtc.h ****   */
  85:Drivers/STM32U0xx_HAL_Driver/Inc/stm32u0xx_ll_rtc.h **** typedef struct
  86:Drivers/STM32U0xx_HAL_Driver/Inc/stm32u0xx_ll_rtc.h **** {
  87:Drivers/STM32U0xx_HAL_Driver/Inc/stm32u0xx_ll_rtc.h ****   uint32_t HourFormat;   /*!< Specifies the RTC Hours Format.
  88:Drivers/STM32U0xx_HAL_Driver/Inc/stm32u0xx_ll_rtc.h ****                               This parameter can be a value of @ref RTC_LL_EC_HOURFORMAT
  89:Drivers/STM32U0xx_HAL_Driver/Inc/stm32u0xx_ll_rtc.h **** 
  90:Drivers/STM32U0xx_HAL_Driver/Inc/stm32u0xx_ll_rtc.h ****                               This feature can be modified afterwards using unitary function
  91:Drivers/STM32U0xx_HAL_Driver/Inc/stm32u0xx_ll_rtc.h ****                               @ref LL_RTC_SetHourFormat(). */
  92:Drivers/STM32U0xx_HAL_Driver/Inc/stm32u0xx_ll_rtc.h **** 
  93:Drivers/STM32U0xx_HAL_Driver/Inc/stm32u0xx_ll_rtc.h ****   uint32_t AsynchPrescaler; /*!< Specifies the RTC Asynchronous Predivider value.
  94:Drivers/STM32U0xx_HAL_Driver/Inc/stm32u0xx_ll_rtc.h ****                               This parameter must be a number between Min_Data = 0x00 and Max_Data 
  95:Drivers/STM32U0xx_HAL_Driver/Inc/stm32u0xx_ll_rtc.h **** 
  96:Drivers/STM32U0xx_HAL_Driver/Inc/stm32u0xx_ll_rtc.h ****                               This feature can be modified afterwards using unitary function
  97:Drivers/STM32U0xx_HAL_Driver/Inc/stm32u0xx_ll_rtc.h ****                               @ref LL_RTC_SetAsynchPrescaler(). */
  98:Drivers/STM32U0xx_HAL_Driver/Inc/stm32u0xx_ll_rtc.h **** 
  99:Drivers/STM32U0xx_HAL_Driver/Inc/stm32u0xx_ll_rtc.h ****   uint32_t SynchPrescaler;  /*!< Specifies the RTC Synchronous Predivider value.
 100:Drivers/STM32U0xx_HAL_Driver/Inc/stm32u0xx_ll_rtc.h ****                               This parameter must be a number between Min_Data = 0x00 and Max_Data 
 101:Drivers/STM32U0xx_HAL_Driver/Inc/stm32u0xx_ll_rtc.h **** 
 102:Drivers/STM32U0xx_HAL_Driver/Inc/stm32u0xx_ll_rtc.h ****                               This feature can be modified afterwards using unitary function
 103:Drivers/STM32U0xx_HAL_Driver/Inc/stm32u0xx_ll_rtc.h ****                               @ref LL_RTC_SetSynchPrescaler(). */
 104:Drivers/STM32U0xx_HAL_Driver/Inc/stm32u0xx_ll_rtc.h **** } LL_RTC_InitTypeDef;
 105:Drivers/STM32U0xx_HAL_Driver/Inc/stm32u0xx_ll_rtc.h **** 
 106:Drivers/STM32U0xx_HAL_Driver/Inc/stm32u0xx_ll_rtc.h **** /**
 107:Drivers/STM32U0xx_HAL_Driver/Inc/stm32u0xx_ll_rtc.h ****   * @brief  RTC Time structure definition
 108:Drivers/STM32U0xx_HAL_Driver/Inc/stm32u0xx_ll_rtc.h ****   */
 109:Drivers/STM32U0xx_HAL_Driver/Inc/stm32u0xx_ll_rtc.h **** typedef struct
 110:Drivers/STM32U0xx_HAL_Driver/Inc/stm32u0xx_ll_rtc.h **** {
 111:Drivers/STM32U0xx_HAL_Driver/Inc/stm32u0xx_ll_rtc.h ****   uint32_t TimeFormat; /*!< Specifies the RTC AM/PM Time.
 112:Drivers/STM32U0xx_HAL_Driver/Inc/stm32u0xx_ll_rtc.h ****                           This parameter can be a value of @ref RTC_LL_EC_TIME_FORMAT
 113:Drivers/STM32U0xx_HAL_Driver/Inc/stm32u0xx_ll_rtc.h ****                           This feature can be modified afterwards using unitary function @ref LL_RT
 114:Drivers/STM32U0xx_HAL_Driver/Inc/stm32u0xx_ll_rtc.h **** 
 115:Drivers/STM32U0xx_HAL_Driver/Inc/stm32u0xx_ll_rtc.h ****   uint8_t Hours;       /*!< Specifies the RTC Time Hours.
 116:Drivers/STM32U0xx_HAL_Driver/Inc/stm32u0xx_ll_rtc.h ****                           This parameter must be a number between Min_Data = 0 and Max_Data = 12 if
 117:Drivers/STM32U0xx_HAL_Driver/Inc/stm32u0xx_ll_rtc.h ****                           @ref LL_RTC_TIME_FORMAT_PM is selected.
 118:Drivers/STM32U0xx_HAL_Driver/Inc/stm32u0xx_ll_rtc.h ****                           This parameter must be a number between Min_Data = 0 and Max_Data = 23 if
 119:Drivers/STM32U0xx_HAL_Driver/Inc/stm32u0xx_ll_rtc.h ****                           @ref LL_RTC_TIME_FORMAT_AM_OR_24 is selected.
 120:Drivers/STM32U0xx_HAL_Driver/Inc/stm32u0xx_ll_rtc.h ****                           This feature can be modified afterwards using unitary function @ref LL_RT
 121:Drivers/STM32U0xx_HAL_Driver/Inc/stm32u0xx_ll_rtc.h **** 
 122:Drivers/STM32U0xx_HAL_Driver/Inc/stm32u0xx_ll_rtc.h ****   uint8_t Minutes;     /*!< Specifies the RTC Time Minutes.
 123:Drivers/STM32U0xx_HAL_Driver/Inc/stm32u0xx_ll_rtc.h ****                           This parameter must be a number between Min_Data = 0 and Max_Data = 59
 124:Drivers/STM32U0xx_HAL_Driver/Inc/stm32u0xx_ll_rtc.h ****                           This feature can be modified afterwards using unitary function @ref LL_RT
 125:Drivers/STM32U0xx_HAL_Driver/Inc/stm32u0xx_ll_rtc.h **** 
 126:Drivers/STM32U0xx_HAL_Driver/Inc/stm32u0xx_ll_rtc.h ****   uint8_t Seconds;     /*!< Specifies the RTC Time Seconds.
 127:Drivers/STM32U0xx_HAL_Driver/Inc/stm32u0xx_ll_rtc.h ****                           This parameter must be a number between Min_Data = 0 and Max_Data = 59
 128:Drivers/STM32U0xx_HAL_Driver/Inc/stm32u0xx_ll_rtc.h ****                           This feature can be modified afterwards using unitary function @ref LL_RT
 129:Drivers/STM32U0xx_HAL_Driver/Inc/stm32u0xx_ll_rtc.h **** } LL_RTC_TimeTypeDef;
 130:Drivers/STM32U0xx_HAL_Driver/Inc/stm32u0xx_ll_rtc.h **** 
ARM GAS  C:\Users\upo\AppData\Local\Temp\ccWo9sLk.s 			page 15


 131:Drivers/STM32U0xx_HAL_Driver/Inc/stm32u0xx_ll_rtc.h **** /**
 132:Drivers/STM32U0xx_HAL_Driver/Inc/stm32u0xx_ll_rtc.h ****   * @brief  RTC Date structure definition
 133:Drivers/STM32U0xx_HAL_Driver/Inc/stm32u0xx_ll_rtc.h ****   */
 134:Drivers/STM32U0xx_HAL_Driver/Inc/stm32u0xx_ll_rtc.h **** typedef struct
 135:Drivers/STM32U0xx_HAL_Driver/Inc/stm32u0xx_ll_rtc.h **** {
 136:Drivers/STM32U0xx_HAL_Driver/Inc/stm32u0xx_ll_rtc.h ****   uint8_t WeekDay;  /*!< Specifies the RTC Date WeekDay.
 137:Drivers/STM32U0xx_HAL_Driver/Inc/stm32u0xx_ll_rtc.h ****                         This parameter can be a value of @ref RTC_LL_EC_WEEKDAY
 138:Drivers/STM32U0xx_HAL_Driver/Inc/stm32u0xx_ll_rtc.h ****                         This feature can be modified afterwards using unitary function @ref LL_RTC_
 139:Drivers/STM32U0xx_HAL_Driver/Inc/stm32u0xx_ll_rtc.h **** 
 140:Drivers/STM32U0xx_HAL_Driver/Inc/stm32u0xx_ll_rtc.h ****   uint8_t Month;    /*!< Specifies the RTC Date Month.
 141:Drivers/STM32U0xx_HAL_Driver/Inc/stm32u0xx_ll_rtc.h ****                         This parameter can be a value of @ref RTC_LL_EC_MONTH
 142:Drivers/STM32U0xx_HAL_Driver/Inc/stm32u0xx_ll_rtc.h ****                         This feature can be modified afterwards using unitary function @ref LL_RTC_
 143:Drivers/STM32U0xx_HAL_Driver/Inc/stm32u0xx_ll_rtc.h **** 
 144:Drivers/STM32U0xx_HAL_Driver/Inc/stm32u0xx_ll_rtc.h ****   uint8_t Day;      /*!< Specifies the RTC Date Day.
 145:Drivers/STM32U0xx_HAL_Driver/Inc/stm32u0xx_ll_rtc.h ****                         This parameter must be a number between Min_Data = 1 and Max_Data = 31
 146:Drivers/STM32U0xx_HAL_Driver/Inc/stm32u0xx_ll_rtc.h ****                         This feature can be modified afterwards using unitary function @ref LL_RTC_
 147:Drivers/STM32U0xx_HAL_Driver/Inc/stm32u0xx_ll_rtc.h **** 
 148:Drivers/STM32U0xx_HAL_Driver/Inc/stm32u0xx_ll_rtc.h ****   uint8_t Year;     /*!< Specifies the RTC Date Year.
 149:Drivers/STM32U0xx_HAL_Driver/Inc/stm32u0xx_ll_rtc.h ****                         This parameter must be a number between Min_Data = 0 and Max_Data = 99
 150:Drivers/STM32U0xx_HAL_Driver/Inc/stm32u0xx_ll_rtc.h ****                         This feature can be modified afterwards using unitary function @ref LL_RTC_
 151:Drivers/STM32U0xx_HAL_Driver/Inc/stm32u0xx_ll_rtc.h **** } LL_RTC_DateTypeDef;
 152:Drivers/STM32U0xx_HAL_Driver/Inc/stm32u0xx_ll_rtc.h **** 
 153:Drivers/STM32U0xx_HAL_Driver/Inc/stm32u0xx_ll_rtc.h **** /**
 154:Drivers/STM32U0xx_HAL_Driver/Inc/stm32u0xx_ll_rtc.h ****   * @brief  RTC Alarm structure definition
 155:Drivers/STM32U0xx_HAL_Driver/Inc/stm32u0xx_ll_rtc.h ****   */
 156:Drivers/STM32U0xx_HAL_Driver/Inc/stm32u0xx_ll_rtc.h **** typedef struct
 157:Drivers/STM32U0xx_HAL_Driver/Inc/stm32u0xx_ll_rtc.h **** {
 158:Drivers/STM32U0xx_HAL_Driver/Inc/stm32u0xx_ll_rtc.h ****   LL_RTC_TimeTypeDef AlarmTime;  /*!< Specifies the RTC Alarm Time members. */
 159:Drivers/STM32U0xx_HAL_Driver/Inc/stm32u0xx_ll_rtc.h **** 
 160:Drivers/STM32U0xx_HAL_Driver/Inc/stm32u0xx_ll_rtc.h ****   uint32_t AlarmMask;            /*!< Specifies the RTC Alarm Masks.
 161:Drivers/STM32U0xx_HAL_Driver/Inc/stm32u0xx_ll_rtc.h ****                                     This parameter can be a value of @ref RTC_LL_EC_ALMA_MASK for A
 162:Drivers/STM32U0xx_HAL_Driver/Inc/stm32u0xx_ll_rtc.h ****                                     @ref RTC_LL_EC_ALMB_MASK for ALARM B.
 163:Drivers/STM32U0xx_HAL_Driver/Inc/stm32u0xx_ll_rtc.h ****                                     This feature can be modified afterwards using unitary function
 164:Drivers/STM32U0xx_HAL_Driver/Inc/stm32u0xx_ll_rtc.h ****                                     @ref LL_RTC_ALMA_SetMask() for ALARM A or @ref LL_RTC_ALMB_SetM
 165:Drivers/STM32U0xx_HAL_Driver/Inc/stm32u0xx_ll_rtc.h ****                                  */
 166:Drivers/STM32U0xx_HAL_Driver/Inc/stm32u0xx_ll_rtc.h **** 
 167:Drivers/STM32U0xx_HAL_Driver/Inc/stm32u0xx_ll_rtc.h ****   uint32_t AlarmDateWeekDaySel;  /*!< Specifies the RTC Alarm is on day or WeekDay.
 168:Drivers/STM32U0xx_HAL_Driver/Inc/stm32u0xx_ll_rtc.h ****                                     This parameter can be a value of @ref RTC_LL_EC_ALMA_WEEKDAY_SE
 169:Drivers/STM32U0xx_HAL_Driver/Inc/stm32u0xx_ll_rtc.h ****                                     or @ref RTC_LL_EC_ALMB_WEEKDAY_SELECTION for ALARM B
 170:Drivers/STM32U0xx_HAL_Driver/Inc/stm32u0xx_ll_rtc.h ****                                     This feature can be modified afterwards using unitary function
 171:Drivers/STM32U0xx_HAL_Driver/Inc/stm32u0xx_ll_rtc.h ****                                     @ref LL_RTC_ALMA_EnableWeekday() or @ref LL_RTC_ALMA_DisableWee
 172:Drivers/STM32U0xx_HAL_Driver/Inc/stm32u0xx_ll_rtc.h ****                                     or @ref LL_RTC_ALMB_EnableWeekday() or @ref LL_RTC_ALMB_Disable
 173:Drivers/STM32U0xx_HAL_Driver/Inc/stm32u0xx_ll_rtc.h ****                                  */
 174:Drivers/STM32U0xx_HAL_Driver/Inc/stm32u0xx_ll_rtc.h **** 
 175:Drivers/STM32U0xx_HAL_Driver/Inc/stm32u0xx_ll_rtc.h ****   uint8_t AlarmDateWeekDay;      /*!< Specifies the RTC Alarm Day/WeekDay.
 176:Drivers/STM32U0xx_HAL_Driver/Inc/stm32u0xx_ll_rtc.h ****                                     If AlarmDateWeekDaySel set to day, this parameter  must be a nu
 177:Drivers/STM32U0xx_HAL_Driver/Inc/stm32u0xx_ll_rtc.h ****                                     Min_Data = 1 and Max_Data = 31.
 178:Drivers/STM32U0xx_HAL_Driver/Inc/stm32u0xx_ll_rtc.h ****                                     This feature can be modified afterwards using unitary function
 179:Drivers/STM32U0xx_HAL_Driver/Inc/stm32u0xx_ll_rtc.h ****                                     @ref LL_RTC_ALMA_SetDay() for ALARM A or @ref LL_RTC_ALMB_SetDa
 180:Drivers/STM32U0xx_HAL_Driver/Inc/stm32u0xx_ll_rtc.h **** 
 181:Drivers/STM32U0xx_HAL_Driver/Inc/stm32u0xx_ll_rtc.h ****                                     If AlarmDateWeekDaySel set to Weekday, this parameter can be a 
 182:Drivers/STM32U0xx_HAL_Driver/Inc/stm32u0xx_ll_rtc.h ****                                     @ref RTC_LL_EC_WEEKDAY.
 183:Drivers/STM32U0xx_HAL_Driver/Inc/stm32u0xx_ll_rtc.h ****                                     This feature can be modified afterwards using unitary function 
 184:Drivers/STM32U0xx_HAL_Driver/Inc/stm32u0xx_ll_rtc.h ****                                     LL_RTC_ALMA_SetWeekDay() for ALARM A or @ref LL_RTC_ALMB_SetWee
 185:Drivers/STM32U0xx_HAL_Driver/Inc/stm32u0xx_ll_rtc.h ****                                  */
 186:Drivers/STM32U0xx_HAL_Driver/Inc/stm32u0xx_ll_rtc.h **** } LL_RTC_AlarmTypeDef;
 187:Drivers/STM32U0xx_HAL_Driver/Inc/stm32u0xx_ll_rtc.h **** 
ARM GAS  C:\Users\upo\AppData\Local\Temp\ccWo9sLk.s 			page 16


 188:Drivers/STM32U0xx_HAL_Driver/Inc/stm32u0xx_ll_rtc.h **** /**
 189:Drivers/STM32U0xx_HAL_Driver/Inc/stm32u0xx_ll_rtc.h ****   * @}
 190:Drivers/STM32U0xx_HAL_Driver/Inc/stm32u0xx_ll_rtc.h ****   */
 191:Drivers/STM32U0xx_HAL_Driver/Inc/stm32u0xx_ll_rtc.h **** #endif /* USE_FULL_LL_DRIVER */
 192:Drivers/STM32U0xx_HAL_Driver/Inc/stm32u0xx_ll_rtc.h **** 
 193:Drivers/STM32U0xx_HAL_Driver/Inc/stm32u0xx_ll_rtc.h **** /* Exported constants --------------------------------------------------------*/
 194:Drivers/STM32U0xx_HAL_Driver/Inc/stm32u0xx_ll_rtc.h **** /** @defgroup RTC_LL_Exported_Constants RTC Exported Constants
 195:Drivers/STM32U0xx_HAL_Driver/Inc/stm32u0xx_ll_rtc.h ****   * @{
 196:Drivers/STM32U0xx_HAL_Driver/Inc/stm32u0xx_ll_rtc.h ****   */
 197:Drivers/STM32U0xx_HAL_Driver/Inc/stm32u0xx_ll_rtc.h **** 
 198:Drivers/STM32U0xx_HAL_Driver/Inc/stm32u0xx_ll_rtc.h **** #if defined(USE_FULL_LL_DRIVER)
 199:Drivers/STM32U0xx_HAL_Driver/Inc/stm32u0xx_ll_rtc.h **** /** @defgroup RTC_LL_EC_FORMAT FORMAT
 200:Drivers/STM32U0xx_HAL_Driver/Inc/stm32u0xx_ll_rtc.h ****   * @{
 201:Drivers/STM32U0xx_HAL_Driver/Inc/stm32u0xx_ll_rtc.h ****   */
 202:Drivers/STM32U0xx_HAL_Driver/Inc/stm32u0xx_ll_rtc.h **** #define LL_RTC_FORMAT_BIN                  0x000000000U /*!< Binary data format */
 203:Drivers/STM32U0xx_HAL_Driver/Inc/stm32u0xx_ll_rtc.h **** #define LL_RTC_FORMAT_BCD                  0x000000001U /*!< BCD data format */
 204:Drivers/STM32U0xx_HAL_Driver/Inc/stm32u0xx_ll_rtc.h **** /**
 205:Drivers/STM32U0xx_HAL_Driver/Inc/stm32u0xx_ll_rtc.h ****   * @}
 206:Drivers/STM32U0xx_HAL_Driver/Inc/stm32u0xx_ll_rtc.h ****   */
 207:Drivers/STM32U0xx_HAL_Driver/Inc/stm32u0xx_ll_rtc.h **** 
 208:Drivers/STM32U0xx_HAL_Driver/Inc/stm32u0xx_ll_rtc.h **** /** @defgroup RTC_LL_EC_ALMA_WEEKDAY_SELECTION RTC Alarm A Date WeekDay
 209:Drivers/STM32U0xx_HAL_Driver/Inc/stm32u0xx_ll_rtc.h ****   * @{
 210:Drivers/STM32U0xx_HAL_Driver/Inc/stm32u0xx_ll_rtc.h ****   */
 211:Drivers/STM32U0xx_HAL_Driver/Inc/stm32u0xx_ll_rtc.h **** #define LL_RTC_ALMA_DATEWEEKDAYSEL_DATE    0x00000000U             /*!< Alarm A Date is selected */
 212:Drivers/STM32U0xx_HAL_Driver/Inc/stm32u0xx_ll_rtc.h **** #define LL_RTC_ALMA_DATEWEEKDAYSEL_WEEKDAY RTC_ALRMAR_WDSEL        /*!< Alarm A WeekDay is selected
 213:Drivers/STM32U0xx_HAL_Driver/Inc/stm32u0xx_ll_rtc.h **** /**
 214:Drivers/STM32U0xx_HAL_Driver/Inc/stm32u0xx_ll_rtc.h ****   * @}
 215:Drivers/STM32U0xx_HAL_Driver/Inc/stm32u0xx_ll_rtc.h ****   */
 216:Drivers/STM32U0xx_HAL_Driver/Inc/stm32u0xx_ll_rtc.h **** 
 217:Drivers/STM32U0xx_HAL_Driver/Inc/stm32u0xx_ll_rtc.h **** /** @defgroup RTC_LL_EC_ALMB_WEEKDAY_SELECTION RTC Alarm B Date WeekDay
 218:Drivers/STM32U0xx_HAL_Driver/Inc/stm32u0xx_ll_rtc.h ****   * @{
 219:Drivers/STM32U0xx_HAL_Driver/Inc/stm32u0xx_ll_rtc.h ****   */
 220:Drivers/STM32U0xx_HAL_Driver/Inc/stm32u0xx_ll_rtc.h **** #define LL_RTC_ALMB_DATEWEEKDAYSEL_DATE    0x00000000U             /*!< Alarm B Date is selected */
 221:Drivers/STM32U0xx_HAL_Driver/Inc/stm32u0xx_ll_rtc.h **** #define LL_RTC_ALMB_DATEWEEKDAYSEL_WEEKDAY RTC_ALRMBR_WDSEL        /*!< Alarm B WeekDay is selected
 222:Drivers/STM32U0xx_HAL_Driver/Inc/stm32u0xx_ll_rtc.h **** /**
 223:Drivers/STM32U0xx_HAL_Driver/Inc/stm32u0xx_ll_rtc.h ****   * @}
 224:Drivers/STM32U0xx_HAL_Driver/Inc/stm32u0xx_ll_rtc.h ****   */
 225:Drivers/STM32U0xx_HAL_Driver/Inc/stm32u0xx_ll_rtc.h **** 
 226:Drivers/STM32U0xx_HAL_Driver/Inc/stm32u0xx_ll_rtc.h **** #endif /* USE_FULL_LL_DRIVER */
 227:Drivers/STM32U0xx_HAL_Driver/Inc/stm32u0xx_ll_rtc.h **** 
 228:Drivers/STM32U0xx_HAL_Driver/Inc/stm32u0xx_ll_rtc.h **** /** @defgroup RTC_LL_EC_GET_FLAG Get Flags Defines
 229:Drivers/STM32U0xx_HAL_Driver/Inc/stm32u0xx_ll_rtc.h ****   * @brief    Flags defines which can be used with LL_RTC_ReadReg function
 230:Drivers/STM32U0xx_HAL_Driver/Inc/stm32u0xx_ll_rtc.h ****   * @{
 231:Drivers/STM32U0xx_HAL_Driver/Inc/stm32u0xx_ll_rtc.h ****   */
 232:Drivers/STM32U0xx_HAL_Driver/Inc/stm32u0xx_ll_rtc.h **** #define LL_RTC_SCR_ITSF                    RTC_SCR_CITSF
 233:Drivers/STM32U0xx_HAL_Driver/Inc/stm32u0xx_ll_rtc.h **** #define LL_RTC_SCR_TSOVF                   RTC_SCR_CTSOVF
 234:Drivers/STM32U0xx_HAL_Driver/Inc/stm32u0xx_ll_rtc.h **** #define LL_RTC_SCR_TSF                     RTC_SCR_CTSF
 235:Drivers/STM32U0xx_HAL_Driver/Inc/stm32u0xx_ll_rtc.h **** #define LL_RTC_SCR_WUTF                    RTC_SCR_CWUTF
 236:Drivers/STM32U0xx_HAL_Driver/Inc/stm32u0xx_ll_rtc.h **** #define LL_RTC_SCR_ALRBF                   RTC_SCR_CALRBF
 237:Drivers/STM32U0xx_HAL_Driver/Inc/stm32u0xx_ll_rtc.h **** #define LL_RTC_SCR_ALRAF                   RTC_SCR_CALRAF
 238:Drivers/STM32U0xx_HAL_Driver/Inc/stm32u0xx_ll_rtc.h **** #define LL_RTC_SCR_SSRUF                   RTC_SCR_CSSRUF
 239:Drivers/STM32U0xx_HAL_Driver/Inc/stm32u0xx_ll_rtc.h **** 
 240:Drivers/STM32U0xx_HAL_Driver/Inc/stm32u0xx_ll_rtc.h **** #define LL_RTC_ICSR_BCDU_2                 RTC_ICSR_BCDU_2
 241:Drivers/STM32U0xx_HAL_Driver/Inc/stm32u0xx_ll_rtc.h **** #define LL_RTC_ICSR_BCDU_1                 RTC_ICSR_BCDU_1
 242:Drivers/STM32U0xx_HAL_Driver/Inc/stm32u0xx_ll_rtc.h **** #define LL_RTC_ICSR_BCDU_0                 RTC_ICSR_BCDU_0
 243:Drivers/STM32U0xx_HAL_Driver/Inc/stm32u0xx_ll_rtc.h **** #define LL_RTC_ICSR_BIN_1                  RTC_ICSR_BIN_1
 244:Drivers/STM32U0xx_HAL_Driver/Inc/stm32u0xx_ll_rtc.h **** #define LL_RTC_ICSR_BIN_0                  RTC_ICSR_BIN_0
ARM GAS  C:\Users\upo\AppData\Local\Temp\ccWo9sLk.s 			page 17


 245:Drivers/STM32U0xx_HAL_Driver/Inc/stm32u0xx_ll_rtc.h **** #define LL_RTC_ICSR_RECALPF                RTC_ICSR_RECALPF
 246:Drivers/STM32U0xx_HAL_Driver/Inc/stm32u0xx_ll_rtc.h **** #define LL_RTC_ICSR_INITF                  RTC_ICSR_INITF
 247:Drivers/STM32U0xx_HAL_Driver/Inc/stm32u0xx_ll_rtc.h **** #define LL_RTC_ICSR_RSF                    RTC_ICSR_RSF
 248:Drivers/STM32U0xx_HAL_Driver/Inc/stm32u0xx_ll_rtc.h **** #define LL_RTC_ICSR_INITS                  RTC_ICSR_INITS
 249:Drivers/STM32U0xx_HAL_Driver/Inc/stm32u0xx_ll_rtc.h **** #define LL_RTC_ICSR_SHPF                   RTC_ICSR_SHPF
 250:Drivers/STM32U0xx_HAL_Driver/Inc/stm32u0xx_ll_rtc.h **** #define LL_RTC_ICSR_WUTWF                  RTC_ICSR_WUTWF
 251:Drivers/STM32U0xx_HAL_Driver/Inc/stm32u0xx_ll_rtc.h **** /**
 252:Drivers/STM32U0xx_HAL_Driver/Inc/stm32u0xx_ll_rtc.h ****   * @}
 253:Drivers/STM32U0xx_HAL_Driver/Inc/stm32u0xx_ll_rtc.h ****   */
 254:Drivers/STM32U0xx_HAL_Driver/Inc/stm32u0xx_ll_rtc.h **** 
 255:Drivers/STM32U0xx_HAL_Driver/Inc/stm32u0xx_ll_rtc.h **** /** @defgroup RTC_LL_EC_IT IT Defines
 256:Drivers/STM32U0xx_HAL_Driver/Inc/stm32u0xx_ll_rtc.h ****   * @brief    IT defines which can be used with LL_RTC_ReadReg and  LL_RTC_WriteReg functions
 257:Drivers/STM32U0xx_HAL_Driver/Inc/stm32u0xx_ll_rtc.h ****   * @{
 258:Drivers/STM32U0xx_HAL_Driver/Inc/stm32u0xx_ll_rtc.h ****   */
 259:Drivers/STM32U0xx_HAL_Driver/Inc/stm32u0xx_ll_rtc.h **** #define LL_RTC_CR_TSIE                     RTC_CR_TSIE
 260:Drivers/STM32U0xx_HAL_Driver/Inc/stm32u0xx_ll_rtc.h **** #define LL_RTC_CR_WUTIE                    RTC_CR_WUTIE
 261:Drivers/STM32U0xx_HAL_Driver/Inc/stm32u0xx_ll_rtc.h **** #define LL_RTC_CR_ALRBIE                   RTC_CR_ALRBIE
 262:Drivers/STM32U0xx_HAL_Driver/Inc/stm32u0xx_ll_rtc.h **** #define LL_RTC_CR_ALRAIE                   RTC_CR_ALRAIE
 263:Drivers/STM32U0xx_HAL_Driver/Inc/stm32u0xx_ll_rtc.h **** /**
 264:Drivers/STM32U0xx_HAL_Driver/Inc/stm32u0xx_ll_rtc.h ****   * @}
 265:Drivers/STM32U0xx_HAL_Driver/Inc/stm32u0xx_ll_rtc.h ****   */
 266:Drivers/STM32U0xx_HAL_Driver/Inc/stm32u0xx_ll_rtc.h **** 
 267:Drivers/STM32U0xx_HAL_Driver/Inc/stm32u0xx_ll_rtc.h **** /** @defgroup RTC_LL_EC_WEEKDAY  WEEK DAY
 268:Drivers/STM32U0xx_HAL_Driver/Inc/stm32u0xx_ll_rtc.h ****   * @{
 269:Drivers/STM32U0xx_HAL_Driver/Inc/stm32u0xx_ll_rtc.h ****   */
 270:Drivers/STM32U0xx_HAL_Driver/Inc/stm32u0xx_ll_rtc.h **** #define LL_RTC_WEEKDAY_MONDAY              (uint8_t)0x01 /*!< Monday    */
 271:Drivers/STM32U0xx_HAL_Driver/Inc/stm32u0xx_ll_rtc.h **** #define LL_RTC_WEEKDAY_TUESDAY             (uint8_t)0x02 /*!< Tuesday   */
 272:Drivers/STM32U0xx_HAL_Driver/Inc/stm32u0xx_ll_rtc.h **** #define LL_RTC_WEEKDAY_WEDNESDAY           (uint8_t)0x03 /*!< Wednesday */
 273:Drivers/STM32U0xx_HAL_Driver/Inc/stm32u0xx_ll_rtc.h **** #define LL_RTC_WEEKDAY_THURSDAY            (uint8_t)0x04 /*!< Thrusday  */
 274:Drivers/STM32U0xx_HAL_Driver/Inc/stm32u0xx_ll_rtc.h **** #define LL_RTC_WEEKDAY_FRIDAY              (uint8_t)0x05 /*!< Friday    */
 275:Drivers/STM32U0xx_HAL_Driver/Inc/stm32u0xx_ll_rtc.h **** #define LL_RTC_WEEKDAY_SATURDAY            (uint8_t)0x06 /*!< Saturday  */
 276:Drivers/STM32U0xx_HAL_Driver/Inc/stm32u0xx_ll_rtc.h **** #define LL_RTC_WEEKDAY_SUNDAY              (uint8_t)0x07 /*!< Sunday    */
 277:Drivers/STM32U0xx_HAL_Driver/Inc/stm32u0xx_ll_rtc.h **** /**
 278:Drivers/STM32U0xx_HAL_Driver/Inc/stm32u0xx_ll_rtc.h ****   * @}
 279:Drivers/STM32U0xx_HAL_Driver/Inc/stm32u0xx_ll_rtc.h ****   */
 280:Drivers/STM32U0xx_HAL_Driver/Inc/stm32u0xx_ll_rtc.h **** 
 281:Drivers/STM32U0xx_HAL_Driver/Inc/stm32u0xx_ll_rtc.h **** /** @defgroup RTC_LL_EC_MONTH  MONTH
 282:Drivers/STM32U0xx_HAL_Driver/Inc/stm32u0xx_ll_rtc.h ****   * @{
 283:Drivers/STM32U0xx_HAL_Driver/Inc/stm32u0xx_ll_rtc.h ****   */
 284:Drivers/STM32U0xx_HAL_Driver/Inc/stm32u0xx_ll_rtc.h **** #define LL_RTC_MONTH_JANUARY               (uint8_t)0x01  /*!< January   */
 285:Drivers/STM32U0xx_HAL_Driver/Inc/stm32u0xx_ll_rtc.h **** #define LL_RTC_MONTH_FEBRUARY              (uint8_t)0x02  /*!< February  */
 286:Drivers/STM32U0xx_HAL_Driver/Inc/stm32u0xx_ll_rtc.h **** #define LL_RTC_MONTH_MARCH                 (uint8_t)0x03  /*!< March     */
 287:Drivers/STM32U0xx_HAL_Driver/Inc/stm32u0xx_ll_rtc.h **** #define LL_RTC_MONTH_APRIL                 (uint8_t)0x04  /*!< April     */
 288:Drivers/STM32U0xx_HAL_Driver/Inc/stm32u0xx_ll_rtc.h **** #define LL_RTC_MONTH_MAY                   (uint8_t)0x05  /*!< May       */
 289:Drivers/STM32U0xx_HAL_Driver/Inc/stm32u0xx_ll_rtc.h **** #define LL_RTC_MONTH_JUNE                  (uint8_t)0x06  /*!< June      */
 290:Drivers/STM32U0xx_HAL_Driver/Inc/stm32u0xx_ll_rtc.h **** #define LL_RTC_MONTH_JULY                  (uint8_t)0x07  /*!< July      */
 291:Drivers/STM32U0xx_HAL_Driver/Inc/stm32u0xx_ll_rtc.h **** #define LL_RTC_MONTH_AUGUST                (uint8_t)0x08  /*!< August    */
 292:Drivers/STM32U0xx_HAL_Driver/Inc/stm32u0xx_ll_rtc.h **** #define LL_RTC_MONTH_SEPTEMBER             (uint8_t)0x09  /*!< September */
 293:Drivers/STM32U0xx_HAL_Driver/Inc/stm32u0xx_ll_rtc.h **** #define LL_RTC_MONTH_OCTOBER               (uint8_t)0x10  /*!< October   */
 294:Drivers/STM32U0xx_HAL_Driver/Inc/stm32u0xx_ll_rtc.h **** #define LL_RTC_MONTH_NOVEMBER              (uint8_t)0x11  /*!< November  */
 295:Drivers/STM32U0xx_HAL_Driver/Inc/stm32u0xx_ll_rtc.h **** #define LL_RTC_MONTH_DECEMBER              (uint8_t)0x12  /*!< December  */
 296:Drivers/STM32U0xx_HAL_Driver/Inc/stm32u0xx_ll_rtc.h **** /**
 297:Drivers/STM32U0xx_HAL_Driver/Inc/stm32u0xx_ll_rtc.h ****   * @}
 298:Drivers/STM32U0xx_HAL_Driver/Inc/stm32u0xx_ll_rtc.h ****   */
 299:Drivers/STM32U0xx_HAL_Driver/Inc/stm32u0xx_ll_rtc.h **** 
 300:Drivers/STM32U0xx_HAL_Driver/Inc/stm32u0xx_ll_rtc.h **** /** @defgroup RTC_LL_EC_HOURFORMAT  HOUR FORMAT
 301:Drivers/STM32U0xx_HAL_Driver/Inc/stm32u0xx_ll_rtc.h ****   * @{
ARM GAS  C:\Users\upo\AppData\Local\Temp\ccWo9sLk.s 			page 18


 302:Drivers/STM32U0xx_HAL_Driver/Inc/stm32u0xx_ll_rtc.h ****   */
 303:Drivers/STM32U0xx_HAL_Driver/Inc/stm32u0xx_ll_rtc.h **** #define LL_RTC_HOURFORMAT_24HOUR           0x00000000U    /*!< 24 hour/day format */
 304:Drivers/STM32U0xx_HAL_Driver/Inc/stm32u0xx_ll_rtc.h **** #define LL_RTC_HOURFORMAT_AMPM             RTC_CR_FMT     /*!< AM/PM hour format */
 305:Drivers/STM32U0xx_HAL_Driver/Inc/stm32u0xx_ll_rtc.h **** /**
 306:Drivers/STM32U0xx_HAL_Driver/Inc/stm32u0xx_ll_rtc.h ****   * @}
 307:Drivers/STM32U0xx_HAL_Driver/Inc/stm32u0xx_ll_rtc.h ****   */
 308:Drivers/STM32U0xx_HAL_Driver/Inc/stm32u0xx_ll_rtc.h **** 
 309:Drivers/STM32U0xx_HAL_Driver/Inc/stm32u0xx_ll_rtc.h **** /** @defgroup RTC_LL_EC_ALARMOUT  ALARM OUTPUT
 310:Drivers/STM32U0xx_HAL_Driver/Inc/stm32u0xx_ll_rtc.h ****   * @{
 311:Drivers/STM32U0xx_HAL_Driver/Inc/stm32u0xx_ll_rtc.h ****   */
 312:Drivers/STM32U0xx_HAL_Driver/Inc/stm32u0xx_ll_rtc.h **** #define LL_RTC_ALARMOUT_DISABLE            0x00000000U             /*!< Output disabled */
 313:Drivers/STM32U0xx_HAL_Driver/Inc/stm32u0xx_ll_rtc.h **** #define LL_RTC_ALARMOUT_ALMA               RTC_CR_OSEL_0           /*!< Alarm A output enabled */
 314:Drivers/STM32U0xx_HAL_Driver/Inc/stm32u0xx_ll_rtc.h **** #define LL_RTC_ALARMOUT_ALMB               RTC_CR_OSEL_1           /*!< Alarm B output enabled */
 315:Drivers/STM32U0xx_HAL_Driver/Inc/stm32u0xx_ll_rtc.h **** #define LL_RTC_ALARMOUT_WAKEUP             RTC_CR_OSEL             /*!< Wakeup output enabled */
 316:Drivers/STM32U0xx_HAL_Driver/Inc/stm32u0xx_ll_rtc.h **** /**
 317:Drivers/STM32U0xx_HAL_Driver/Inc/stm32u0xx_ll_rtc.h ****   * @}
 318:Drivers/STM32U0xx_HAL_Driver/Inc/stm32u0xx_ll_rtc.h ****   */
 319:Drivers/STM32U0xx_HAL_Driver/Inc/stm32u0xx_ll_rtc.h **** 
 320:Drivers/STM32U0xx_HAL_Driver/Inc/stm32u0xx_ll_rtc.h **** /** @defgroup RTC_LL_EC_ALARM_OUTPUTTYPE  ALARM OUTPUT TYPE
 321:Drivers/STM32U0xx_HAL_Driver/Inc/stm32u0xx_ll_rtc.h ****   * @{
 322:Drivers/STM32U0xx_HAL_Driver/Inc/stm32u0xx_ll_rtc.h ****   */
 323:Drivers/STM32U0xx_HAL_Driver/Inc/stm32u0xx_ll_rtc.h **** #define LL_RTC_ALARM_OUTPUTTYPE_OPENDRAIN  RTC_CR_TAMPALRM_TYPE   /*!< RTC_ALARM is open-drain outp
 324:Drivers/STM32U0xx_HAL_Driver/Inc/stm32u0xx_ll_rtc.h **** #define LL_RTC_ALARM_OUTPUTTYPE_PUSHPULL   0x00000000U            /*!< RTC_ALARM is push-pull outpu
 325:Drivers/STM32U0xx_HAL_Driver/Inc/stm32u0xx_ll_rtc.h **** /**
 326:Drivers/STM32U0xx_HAL_Driver/Inc/stm32u0xx_ll_rtc.h ****   * @}
 327:Drivers/STM32U0xx_HAL_Driver/Inc/stm32u0xx_ll_rtc.h ****   */
 328:Drivers/STM32U0xx_HAL_Driver/Inc/stm32u0xx_ll_rtc.h **** 
 329:Drivers/STM32U0xx_HAL_Driver/Inc/stm32u0xx_ll_rtc.h **** /** @defgroup RTC_LL_EC_OUTPUTPOLARITY_PIN  OUTPUT POLARITY PIN
 330:Drivers/STM32U0xx_HAL_Driver/Inc/stm32u0xx_ll_rtc.h ****   * @{
 331:Drivers/STM32U0xx_HAL_Driver/Inc/stm32u0xx_ll_rtc.h ****   */
 332:Drivers/STM32U0xx_HAL_Driver/Inc/stm32u0xx_ll_rtc.h **** #define LL_RTC_OUTPUTPOLARITY_PIN_HIGH     0x00000000U     /*!< Pin is high when ALRAF/ALRBF/WUTF i
 333:Drivers/STM32U0xx_HAL_Driver/Inc/stm32u0xx_ll_rtc.h **** #define LL_RTC_OUTPUTPOLARITY_PIN_LOW      RTC_CR_POL      /*!< Pin is low when ALRAF/ALRBF/WUTF is
 334:Drivers/STM32U0xx_HAL_Driver/Inc/stm32u0xx_ll_rtc.h **** /**
 335:Drivers/STM32U0xx_HAL_Driver/Inc/stm32u0xx_ll_rtc.h ****   * @}
 336:Drivers/STM32U0xx_HAL_Driver/Inc/stm32u0xx_ll_rtc.h ****   */
 337:Drivers/STM32U0xx_HAL_Driver/Inc/stm32u0xx_ll_rtc.h **** 
 338:Drivers/STM32U0xx_HAL_Driver/Inc/stm32u0xx_ll_rtc.h **** /** @defgroup RTC_LL_EC_TIME_FORMAT TIME FORMAT
 339:Drivers/STM32U0xx_HAL_Driver/Inc/stm32u0xx_ll_rtc.h ****   * @{
 340:Drivers/STM32U0xx_HAL_Driver/Inc/stm32u0xx_ll_rtc.h ****   */
 341:Drivers/STM32U0xx_HAL_Driver/Inc/stm32u0xx_ll_rtc.h **** #define LL_RTC_TIME_FORMAT_AM_OR_24        0x00000000U           /*!< AM or 24-hour format */
 342:Drivers/STM32U0xx_HAL_Driver/Inc/stm32u0xx_ll_rtc.h **** #define LL_RTC_TIME_FORMAT_PM              RTC_TR_PM             /*!< PM */
 343:Drivers/STM32U0xx_HAL_Driver/Inc/stm32u0xx_ll_rtc.h **** /**
 344:Drivers/STM32U0xx_HAL_Driver/Inc/stm32u0xx_ll_rtc.h ****   * @}
 345:Drivers/STM32U0xx_HAL_Driver/Inc/stm32u0xx_ll_rtc.h ****   */
 346:Drivers/STM32U0xx_HAL_Driver/Inc/stm32u0xx_ll_rtc.h **** 
 347:Drivers/STM32U0xx_HAL_Driver/Inc/stm32u0xx_ll_rtc.h **** /** @defgroup RTC_LL_EC_SHIFT_SECOND  SHIFT SECOND
 348:Drivers/STM32U0xx_HAL_Driver/Inc/stm32u0xx_ll_rtc.h ****   * @{
 349:Drivers/STM32U0xx_HAL_Driver/Inc/stm32u0xx_ll_rtc.h ****   */
 350:Drivers/STM32U0xx_HAL_Driver/Inc/stm32u0xx_ll_rtc.h **** #define LL_RTC_SHIFT_SECOND_DELAY          0x00000000U        /* Delay (seconds) = SUBFS / (PREDIV_
 351:Drivers/STM32U0xx_HAL_Driver/Inc/stm32u0xx_ll_rtc.h **** #define LL_RTC_SHIFT_SECOND_ADVANCE        RTC_SHIFTR_ADD1S   /* Advance (seconds) = (1 - (SUBFS / 
 352:Drivers/STM32U0xx_HAL_Driver/Inc/stm32u0xx_ll_rtc.h **** /**
 353:Drivers/STM32U0xx_HAL_Driver/Inc/stm32u0xx_ll_rtc.h ****   * @}
 354:Drivers/STM32U0xx_HAL_Driver/Inc/stm32u0xx_ll_rtc.h ****   */
 355:Drivers/STM32U0xx_HAL_Driver/Inc/stm32u0xx_ll_rtc.h **** 
 356:Drivers/STM32U0xx_HAL_Driver/Inc/stm32u0xx_ll_rtc.h **** /** @defgroup RTC_LL_EC_ALMA_MASK  ALARMA MASK
 357:Drivers/STM32U0xx_HAL_Driver/Inc/stm32u0xx_ll_rtc.h ****   * @{
 358:Drivers/STM32U0xx_HAL_Driver/Inc/stm32u0xx_ll_rtc.h ****   */
ARM GAS  C:\Users\upo\AppData\Local\Temp\ccWo9sLk.s 			page 19


 359:Drivers/STM32U0xx_HAL_Driver/Inc/stm32u0xx_ll_rtc.h **** #define LL_RTC_ALMA_MASK_NONE              0x00000000U             /*!< No masks applied on Alarm A
 360:Drivers/STM32U0xx_HAL_Driver/Inc/stm32u0xx_ll_rtc.h **** #define LL_RTC_ALMA_MASK_DATEWEEKDAY       RTC_ALRMAR_MSK4         /*!< Date/day do not care in Ala
 361:Drivers/STM32U0xx_HAL_Driver/Inc/stm32u0xx_ll_rtc.h **** #define LL_RTC_ALMA_MASK_HOURS             RTC_ALRMAR_MSK3         /*!< Hours do not care in Alarm 
 362:Drivers/STM32U0xx_HAL_Driver/Inc/stm32u0xx_ll_rtc.h **** #define LL_RTC_ALMA_MASK_MINUTES           RTC_ALRMAR_MSK2         /*!< Minutes do not care in Alar
 363:Drivers/STM32U0xx_HAL_Driver/Inc/stm32u0xx_ll_rtc.h **** #define LL_RTC_ALMA_MASK_SECONDS           RTC_ALRMAR_MSK1         /*!< Seconds do not care in Alar
 364:Drivers/STM32U0xx_HAL_Driver/Inc/stm32u0xx_ll_rtc.h **** #define LL_RTC_ALMA_MASK_ALL               (RTC_ALRMAR_MSK4 | RTC_ALRMAR_MSK3 | RTC_ALRMAR_MSK2 | R
 365:Drivers/STM32U0xx_HAL_Driver/Inc/stm32u0xx_ll_rtc.h **** /**
 366:Drivers/STM32U0xx_HAL_Driver/Inc/stm32u0xx_ll_rtc.h ****   * @}
 367:Drivers/STM32U0xx_HAL_Driver/Inc/stm32u0xx_ll_rtc.h ****   */
 368:Drivers/STM32U0xx_HAL_Driver/Inc/stm32u0xx_ll_rtc.h **** 
 369:Drivers/STM32U0xx_HAL_Driver/Inc/stm32u0xx_ll_rtc.h **** /** @defgroup RTC_LL_EC_ALMA_TIME_FORMAT  ALARMA TIME FORMAT
 370:Drivers/STM32U0xx_HAL_Driver/Inc/stm32u0xx_ll_rtc.h ****   * @{
 371:Drivers/STM32U0xx_HAL_Driver/Inc/stm32u0xx_ll_rtc.h ****   */
 372:Drivers/STM32U0xx_HAL_Driver/Inc/stm32u0xx_ll_rtc.h **** #define LL_RTC_ALMA_TIME_FORMAT_AM         0x00000000U           /*!< AM or 24-hour format */
 373:Drivers/STM32U0xx_HAL_Driver/Inc/stm32u0xx_ll_rtc.h **** #define LL_RTC_ALMA_TIME_FORMAT_PM         RTC_ALRMAR_PM         /*!< PM */
 374:Drivers/STM32U0xx_HAL_Driver/Inc/stm32u0xx_ll_rtc.h **** /**
 375:Drivers/STM32U0xx_HAL_Driver/Inc/stm32u0xx_ll_rtc.h ****   * @}
 376:Drivers/STM32U0xx_HAL_Driver/Inc/stm32u0xx_ll_rtc.h ****   */
 377:Drivers/STM32U0xx_HAL_Driver/Inc/stm32u0xx_ll_rtc.h **** 
 378:Drivers/STM32U0xx_HAL_Driver/Inc/stm32u0xx_ll_rtc.h **** /** @defgroup RTC_LL_EC_ALMA_SUBSECONDBIN_AUTOCLR  RTC Alarm Sub Seconds with binary mode auto clea
 379:Drivers/STM32U0xx_HAL_Driver/Inc/stm32u0xx_ll_rtc.h ****   * @{
 380:Drivers/STM32U0xx_HAL_Driver/Inc/stm32u0xx_ll_rtc.h ****   */
 381:Drivers/STM32U0xx_HAL_Driver/Inc/stm32u0xx_ll_rtc.h **** #define LL_RTC_ALMA_SUBSECONDBIN_AUTOCLR_NO    0UL                  /*!<  The synchronous binary co
 382:Drivers/STM32U0xx_HAL_Driver/Inc/stm32u0xx_ll_rtc.h **** #define LL_RTC_ALMA_SUBSECONDBIN_AUTOCLR_YES   RTC_ALRMASSR_SSCLR   /*!<  The synchronous binary co
 383:Drivers/STM32U0xx_HAL_Driver/Inc/stm32u0xx_ll_rtc.h **** /**
 384:Drivers/STM32U0xx_HAL_Driver/Inc/stm32u0xx_ll_rtc.h ****   * @}
 385:Drivers/STM32U0xx_HAL_Driver/Inc/stm32u0xx_ll_rtc.h ****   */
 386:Drivers/STM32U0xx_HAL_Driver/Inc/stm32u0xx_ll_rtc.h **** 
 387:Drivers/STM32U0xx_HAL_Driver/Inc/stm32u0xx_ll_rtc.h **** /** @defgroup RTC_LL_EC_ALMB_MASK  ALARMB MASK
 388:Drivers/STM32U0xx_HAL_Driver/Inc/stm32u0xx_ll_rtc.h ****   * @{
 389:Drivers/STM32U0xx_HAL_Driver/Inc/stm32u0xx_ll_rtc.h ****   */
 390:Drivers/STM32U0xx_HAL_Driver/Inc/stm32u0xx_ll_rtc.h **** #define LL_RTC_ALMB_MASK_NONE              0x00000000U             /*!< No masks applied on Alarm B
 391:Drivers/STM32U0xx_HAL_Driver/Inc/stm32u0xx_ll_rtc.h **** #define LL_RTC_ALMB_MASK_DATEWEEKDAY       RTC_ALRMBR_MSK4         /*!< Date/day do not care in Ala
 392:Drivers/STM32U0xx_HAL_Driver/Inc/stm32u0xx_ll_rtc.h **** #define LL_RTC_ALMB_MASK_HOURS             RTC_ALRMBR_MSK3         /*!< Hours do not care in Alarm 
 393:Drivers/STM32U0xx_HAL_Driver/Inc/stm32u0xx_ll_rtc.h **** #define LL_RTC_ALMB_MASK_MINUTES           RTC_ALRMBR_MSK2         /*!< Minutes do not care in Alar
 394:Drivers/STM32U0xx_HAL_Driver/Inc/stm32u0xx_ll_rtc.h **** #define LL_RTC_ALMB_MASK_SECONDS           RTC_ALRMBR_MSK1         /*!< Seconds do not care in Alar
 395:Drivers/STM32U0xx_HAL_Driver/Inc/stm32u0xx_ll_rtc.h **** #define LL_RTC_ALMB_MASK_ALL               (RTC_ALRMBR_MSK4 | RTC_ALRMBR_MSK3 | RTC_ALRMBR_MSK2 | R
 396:Drivers/STM32U0xx_HAL_Driver/Inc/stm32u0xx_ll_rtc.h **** /**
 397:Drivers/STM32U0xx_HAL_Driver/Inc/stm32u0xx_ll_rtc.h ****   * @}
 398:Drivers/STM32U0xx_HAL_Driver/Inc/stm32u0xx_ll_rtc.h ****   */
 399:Drivers/STM32U0xx_HAL_Driver/Inc/stm32u0xx_ll_rtc.h **** 
 400:Drivers/STM32U0xx_HAL_Driver/Inc/stm32u0xx_ll_rtc.h **** /** @defgroup RTC_LL_EC_ALMB_TIME_FORMAT  ALARMB TIME FORMAT
 401:Drivers/STM32U0xx_HAL_Driver/Inc/stm32u0xx_ll_rtc.h ****   * @{
 402:Drivers/STM32U0xx_HAL_Driver/Inc/stm32u0xx_ll_rtc.h ****   */
 403:Drivers/STM32U0xx_HAL_Driver/Inc/stm32u0xx_ll_rtc.h **** #define LL_RTC_ALMB_TIME_FORMAT_AM         0x00000000U           /*!< AM or 24-hour format */
 404:Drivers/STM32U0xx_HAL_Driver/Inc/stm32u0xx_ll_rtc.h **** #define LL_RTC_ALMB_TIME_FORMAT_PM         RTC_ALRMBR_PM         /*!< PM */
 405:Drivers/STM32U0xx_HAL_Driver/Inc/stm32u0xx_ll_rtc.h **** /**
 406:Drivers/STM32U0xx_HAL_Driver/Inc/stm32u0xx_ll_rtc.h ****   * @}
 407:Drivers/STM32U0xx_HAL_Driver/Inc/stm32u0xx_ll_rtc.h ****   */
 408:Drivers/STM32U0xx_HAL_Driver/Inc/stm32u0xx_ll_rtc.h **** 
 409:Drivers/STM32U0xx_HAL_Driver/Inc/stm32u0xx_ll_rtc.h **** /** @defgroup RTC_LL_EC_ALMB_SUBSECONDBIN_AUTOCLR  Alarm Sub Seconds with binary mode auto clear De
 410:Drivers/STM32U0xx_HAL_Driver/Inc/stm32u0xx_ll_rtc.h ****   * @{
 411:Drivers/STM32U0xx_HAL_Driver/Inc/stm32u0xx_ll_rtc.h ****   */
 412:Drivers/STM32U0xx_HAL_Driver/Inc/stm32u0xx_ll_rtc.h **** #define LL_RTC_ALMB_SUBSECONDBIN_AUTOCLR_NO    0UL                  /*!<  The synchronous binary co
 413:Drivers/STM32U0xx_HAL_Driver/Inc/stm32u0xx_ll_rtc.h **** #define LL_RTC_ALMB_SUBSECONDBIN_AUTOCLR_YES   RTC_ALRMBSSR_SSCLR   /*!<  The synchronous binary co
 414:Drivers/STM32U0xx_HAL_Driver/Inc/stm32u0xx_ll_rtc.h **** /**
 415:Drivers/STM32U0xx_HAL_Driver/Inc/stm32u0xx_ll_rtc.h ****   * @}
ARM GAS  C:\Users\upo\AppData\Local\Temp\ccWo9sLk.s 			page 20


 416:Drivers/STM32U0xx_HAL_Driver/Inc/stm32u0xx_ll_rtc.h ****   */
 417:Drivers/STM32U0xx_HAL_Driver/Inc/stm32u0xx_ll_rtc.h **** 
 418:Drivers/STM32U0xx_HAL_Driver/Inc/stm32u0xx_ll_rtc.h **** /** @defgroup RTC_LL_EC_TIMESTAMP_EDGE  TIMESTAMP EDGE
 419:Drivers/STM32U0xx_HAL_Driver/Inc/stm32u0xx_ll_rtc.h ****   * @{
 420:Drivers/STM32U0xx_HAL_Driver/Inc/stm32u0xx_ll_rtc.h ****   */
 421:Drivers/STM32U0xx_HAL_Driver/Inc/stm32u0xx_ll_rtc.h **** #define LL_RTC_TIMESTAMP_EDGE_RISING       0x00000000U           /*!< RTC_TS input rising edge gene
 422:Drivers/STM32U0xx_HAL_Driver/Inc/stm32u0xx_ll_rtc.h **** #define LL_RTC_TIMESTAMP_EDGE_FALLING      RTC_CR_TSEDGE         /*!< RTC_TS input falling edge gen
 423:Drivers/STM32U0xx_HAL_Driver/Inc/stm32u0xx_ll_rtc.h **** /**
 424:Drivers/STM32U0xx_HAL_Driver/Inc/stm32u0xx_ll_rtc.h ****   * @}
 425:Drivers/STM32U0xx_HAL_Driver/Inc/stm32u0xx_ll_rtc.h ****   */
 426:Drivers/STM32U0xx_HAL_Driver/Inc/stm32u0xx_ll_rtc.h **** 
 427:Drivers/STM32U0xx_HAL_Driver/Inc/stm32u0xx_ll_rtc.h **** /** @defgroup RTC_LL_EC_TS_TIME_FORMAT  TIMESTAMP TIME FORMAT
 428:Drivers/STM32U0xx_HAL_Driver/Inc/stm32u0xx_ll_rtc.h ****   * @{
 429:Drivers/STM32U0xx_HAL_Driver/Inc/stm32u0xx_ll_rtc.h ****   */
 430:Drivers/STM32U0xx_HAL_Driver/Inc/stm32u0xx_ll_rtc.h **** #define LL_RTC_TS_TIME_FORMAT_AM           0x00000000U           /*!< AM or 24-hour format */
 431:Drivers/STM32U0xx_HAL_Driver/Inc/stm32u0xx_ll_rtc.h **** #define LL_RTC_TS_TIME_FORMAT_PM           RTC_TSTR_PM           /*!< PM */
 432:Drivers/STM32U0xx_HAL_Driver/Inc/stm32u0xx_ll_rtc.h **** /**
 433:Drivers/STM32U0xx_HAL_Driver/Inc/stm32u0xx_ll_rtc.h ****   * @}
 434:Drivers/STM32U0xx_HAL_Driver/Inc/stm32u0xx_ll_rtc.h ****   */
 435:Drivers/STM32U0xx_HAL_Driver/Inc/stm32u0xx_ll_rtc.h **** 
 436:Drivers/STM32U0xx_HAL_Driver/Inc/stm32u0xx_ll_rtc.h **** /** @defgroup RTC_LL_EC_TAMPER  TAMPER
 437:Drivers/STM32U0xx_HAL_Driver/Inc/stm32u0xx_ll_rtc.h ****   * @{
 438:Drivers/STM32U0xx_HAL_Driver/Inc/stm32u0xx_ll_rtc.h ****   */
 439:Drivers/STM32U0xx_HAL_Driver/Inc/stm32u0xx_ll_rtc.h **** #define LL_RTC_TAMPER_1                    TAMP_CR1_TAMP1E /*!< Tamper 1 input detection */
 440:Drivers/STM32U0xx_HAL_Driver/Inc/stm32u0xx_ll_rtc.h **** #define LL_RTC_TAMPER_2                    TAMP_CR1_TAMP2E /*!< Tamper 2 input detection */
 441:Drivers/STM32U0xx_HAL_Driver/Inc/stm32u0xx_ll_rtc.h **** #define LL_RTC_TAMPER_3                    TAMP_CR1_TAMP3E /*!< Tamper 3  input detection */
 442:Drivers/STM32U0xx_HAL_Driver/Inc/stm32u0xx_ll_rtc.h **** #define LL_RTC_TAMPER_4                    TAMP_CR1_TAMP4E /*!< Tamper 4  input detection */
 443:Drivers/STM32U0xx_HAL_Driver/Inc/stm32u0xx_ll_rtc.h **** #define LL_RTC_TAMPER_5                    TAMP_CR1_TAMP5E /*!< Tamper 5  input detection */
 444:Drivers/STM32U0xx_HAL_Driver/Inc/stm32u0xx_ll_rtc.h **** /**
 445:Drivers/STM32U0xx_HAL_Driver/Inc/stm32u0xx_ll_rtc.h ****   * @}
 446:Drivers/STM32U0xx_HAL_Driver/Inc/stm32u0xx_ll_rtc.h ****   */
 447:Drivers/STM32U0xx_HAL_Driver/Inc/stm32u0xx_ll_rtc.h **** 
 448:Drivers/STM32U0xx_HAL_Driver/Inc/stm32u0xx_ll_rtc.h **** /** @defgroup RTC_LL_EC_TAMPER_MASK  TAMPER MASK
 449:Drivers/STM32U0xx_HAL_Driver/Inc/stm32u0xx_ll_rtc.h ****   * @{
 450:Drivers/STM32U0xx_HAL_Driver/Inc/stm32u0xx_ll_rtc.h ****   */
 451:Drivers/STM32U0xx_HAL_Driver/Inc/stm32u0xx_ll_rtc.h **** #define LL_RTC_TAMPER_MASK_TAMPER1         TAMP_CR2_TAMP1MSK /*!< Tamper 1 event generates a trigge
 452:Drivers/STM32U0xx_HAL_Driver/Inc/stm32u0xx_ll_rtc.h **** #define LL_RTC_TAMPER_MASK_TAMPER2         TAMP_CR2_TAMP2MSK /*!< Tamper 2 event generates a trigge
 453:Drivers/STM32U0xx_HAL_Driver/Inc/stm32u0xx_ll_rtc.h **** #define LL_RTC_TAMPER_MASK_TAMPER3         TAMP_CR2_TAMP3MSK /*!< Tamper 3 event generates a trigge
 454:Drivers/STM32U0xx_HAL_Driver/Inc/stm32u0xx_ll_rtc.h **** /**
 455:Drivers/STM32U0xx_HAL_Driver/Inc/stm32u0xx_ll_rtc.h ****   * @}
 456:Drivers/STM32U0xx_HAL_Driver/Inc/stm32u0xx_ll_rtc.h ****   */
 457:Drivers/STM32U0xx_HAL_Driver/Inc/stm32u0xx_ll_rtc.h **** 
 458:Drivers/STM32U0xx_HAL_Driver/Inc/stm32u0xx_ll_rtc.h **** /** @defgroup RTC_LL_EC_TAMPER_NOERASE  TAMPER NO ERASE
 459:Drivers/STM32U0xx_HAL_Driver/Inc/stm32u0xx_ll_rtc.h ****   * @{
 460:Drivers/STM32U0xx_HAL_Driver/Inc/stm32u0xx_ll_rtc.h ****   */
 461:Drivers/STM32U0xx_HAL_Driver/Inc/stm32u0xx_ll_rtc.h **** #define LL_RTC_TAMPER_NOERASE_TAMPER1      TAMP_CR2_TAMP1POM /*!< Tamper 1 event does not erase the
 462:Drivers/STM32U0xx_HAL_Driver/Inc/stm32u0xx_ll_rtc.h **** #define LL_RTC_TAMPER_NOERASE_TAMPER2      TAMP_CR2_TAMP2POM /*!< Tamper 2 event does not erase the
 463:Drivers/STM32U0xx_HAL_Driver/Inc/stm32u0xx_ll_rtc.h **** #define LL_RTC_TAMPER_NOERASE_TAMPER3      TAMP_CR2_TAMP3POM /*!< Tamper 3 event does not erase the
 464:Drivers/STM32U0xx_HAL_Driver/Inc/stm32u0xx_ll_rtc.h **** #define LL_RTC_TAMPER_NOERASE_TAMPER4      TAMP_CR2_TAMP4POM /*!< Tamper 4 event does not erase the
 465:Drivers/STM32U0xx_HAL_Driver/Inc/stm32u0xx_ll_rtc.h **** #define LL_RTC_TAMPER_NOERASE_TAMPER5      TAMP_CR2_TAMP5POM /*!< Tamper 5 event does not erase the
 466:Drivers/STM32U0xx_HAL_Driver/Inc/stm32u0xx_ll_rtc.h **** /**
 467:Drivers/STM32U0xx_HAL_Driver/Inc/stm32u0xx_ll_rtc.h ****   * @}
 468:Drivers/STM32U0xx_HAL_Driver/Inc/stm32u0xx_ll_rtc.h ****   */
 469:Drivers/STM32U0xx_HAL_Driver/Inc/stm32u0xx_ll_rtc.h **** 
 470:Drivers/STM32U0xx_HAL_Driver/Inc/stm32u0xx_ll_rtc.h **** /** @defgroup RTC_LL_EC_TAMPER_DURATION  TAMPER DURATION
 471:Drivers/STM32U0xx_HAL_Driver/Inc/stm32u0xx_ll_rtc.h ****   * @{
 472:Drivers/STM32U0xx_HAL_Driver/Inc/stm32u0xx_ll_rtc.h ****   */
ARM GAS  C:\Users\upo\AppData\Local\Temp\ccWo9sLk.s 			page 21


 473:Drivers/STM32U0xx_HAL_Driver/Inc/stm32u0xx_ll_rtc.h **** #define LL_RTC_TAMPER_DURATION_1RTCCLK     0x00000000U            /*!< Tamper pins are pre-charged 
 474:Drivers/STM32U0xx_HAL_Driver/Inc/stm32u0xx_ll_rtc.h **** #define LL_RTC_TAMPER_DURATION_2RTCCLK     TAMP_FLTCR_TAMPPRCH_0  /*!< Tamper pins are pre-charged 
 475:Drivers/STM32U0xx_HAL_Driver/Inc/stm32u0xx_ll_rtc.h **** #define LL_RTC_TAMPER_DURATION_4RTCCLK     TAMP_FLTCR_TAMPPRCH_1  /*!< Tamper pins are pre-charged 
 476:Drivers/STM32U0xx_HAL_Driver/Inc/stm32u0xx_ll_rtc.h **** #define LL_RTC_TAMPER_DURATION_8RTCCLK     TAMP_FLTCR_TAMPPRCH    /*!< Tamper pins are pre-charged 
 477:Drivers/STM32U0xx_HAL_Driver/Inc/stm32u0xx_ll_rtc.h **** /**
 478:Drivers/STM32U0xx_HAL_Driver/Inc/stm32u0xx_ll_rtc.h ****   * @}
 479:Drivers/STM32U0xx_HAL_Driver/Inc/stm32u0xx_ll_rtc.h ****   */
 480:Drivers/STM32U0xx_HAL_Driver/Inc/stm32u0xx_ll_rtc.h **** 
 481:Drivers/STM32U0xx_HAL_Driver/Inc/stm32u0xx_ll_rtc.h **** /** @defgroup RTC_LL_EC_TAMPER_FILTER  TAMPER FILTER
 482:Drivers/STM32U0xx_HAL_Driver/Inc/stm32u0xx_ll_rtc.h ****   * @{
 483:Drivers/STM32U0xx_HAL_Driver/Inc/stm32u0xx_ll_rtc.h ****   */
 484:Drivers/STM32U0xx_HAL_Driver/Inc/stm32u0xx_ll_rtc.h **** #define LL_RTC_TAMPER_FILTER_DISABLE       0x00000000U             /*!< Tamper filter is disabled *
 485:Drivers/STM32U0xx_HAL_Driver/Inc/stm32u0xx_ll_rtc.h **** #define LL_RTC_TAMPER_FILTER_2SAMPLE       TAMP_FLTCR_TAMPFLT_0    /*!< Tamper is activated after 2
 486:Drivers/STM32U0xx_HAL_Driver/Inc/stm32u0xx_ll_rtc.h **** #define LL_RTC_TAMPER_FILTER_4SAMPLE       TAMP_FLTCR_TAMPFLT_1    /*!< Tamper is activated after 4
 487:Drivers/STM32U0xx_HAL_Driver/Inc/stm32u0xx_ll_rtc.h **** #define LL_RTC_TAMPER_FILTER_8SAMPLE       TAMP_FLTCR_TAMPFLT      /*!< Tamper is activated after 8
 488:Drivers/STM32U0xx_HAL_Driver/Inc/stm32u0xx_ll_rtc.h **** /**
 489:Drivers/STM32U0xx_HAL_Driver/Inc/stm32u0xx_ll_rtc.h ****   * @}
 490:Drivers/STM32U0xx_HAL_Driver/Inc/stm32u0xx_ll_rtc.h ****   */
 491:Drivers/STM32U0xx_HAL_Driver/Inc/stm32u0xx_ll_rtc.h **** 
 492:Drivers/STM32U0xx_HAL_Driver/Inc/stm32u0xx_ll_rtc.h **** /** @defgroup RTC_LL_EC_TAMPER_SAMPLFREQDIV  TAMPER SAMPLING FREQUENCY DIVIDER
 493:Drivers/STM32U0xx_HAL_Driver/Inc/stm32u0xx_ll_rtc.h ****   * @{
 494:Drivers/STM32U0xx_HAL_Driver/Inc/stm32u0xx_ll_rtc.h ****   */
 495:Drivers/STM32U0xx_HAL_Driver/Inc/stm32u0xx_ll_rtc.h **** #define LL_RTC_TAMPER_SAMPLFREQDIV_32768   0x00000000U                                     /*!< Eac
 496:Drivers/STM32U0xx_HAL_Driver/Inc/stm32u0xx_ll_rtc.h **** #define LL_RTC_TAMPER_SAMPLFREQDIV_16384   TAMP_FLTCR_TAMPFREQ_0                           /*!< Eac
 497:Drivers/STM32U0xx_HAL_Driver/Inc/stm32u0xx_ll_rtc.h **** #define LL_RTC_TAMPER_SAMPLFREQDIV_8192    TAMP_FLTCR_TAMPFREQ_1                           /*!< Eac
 498:Drivers/STM32U0xx_HAL_Driver/Inc/stm32u0xx_ll_rtc.h **** #define LL_RTC_TAMPER_SAMPLFREQDIV_4096    (TAMP_FLTCR_TAMPFREQ_1 | TAMP_FLTCR_TAMPFREQ_0) /*!< Eac
 499:Drivers/STM32U0xx_HAL_Driver/Inc/stm32u0xx_ll_rtc.h **** #define LL_RTC_TAMPER_SAMPLFREQDIV_2048    TAMP_FLTCR_TAMPFREQ_2                           /*!< Eac
 500:Drivers/STM32U0xx_HAL_Driver/Inc/stm32u0xx_ll_rtc.h **** #define LL_RTC_TAMPER_SAMPLFREQDIV_1024    (TAMP_FLTCR_TAMPFREQ_2 | TAMP_FLTCR_TAMPFREQ_0) /*!< Eac
 501:Drivers/STM32U0xx_HAL_Driver/Inc/stm32u0xx_ll_rtc.h **** #define LL_RTC_TAMPER_SAMPLFREQDIV_512     (TAMP_FLTCR_TAMPFREQ_2 | TAMP_FLTCR_TAMPFREQ_1) /*!< Eac
 502:Drivers/STM32U0xx_HAL_Driver/Inc/stm32u0xx_ll_rtc.h **** #define LL_RTC_TAMPER_SAMPLFREQDIV_256     TAMP_FLTCR_TAMPFREQ                             /*!< Eac
 503:Drivers/STM32U0xx_HAL_Driver/Inc/stm32u0xx_ll_rtc.h **** /**
 504:Drivers/STM32U0xx_HAL_Driver/Inc/stm32u0xx_ll_rtc.h ****   * @}
 505:Drivers/STM32U0xx_HAL_Driver/Inc/stm32u0xx_ll_rtc.h ****   */
 506:Drivers/STM32U0xx_HAL_Driver/Inc/stm32u0xx_ll_rtc.h **** 
 507:Drivers/STM32U0xx_HAL_Driver/Inc/stm32u0xx_ll_rtc.h **** /** @defgroup RTC_LL_EC_TAMPER_ACTIVELEVEL  TAMPER ACTIVE LEVEL
 508:Drivers/STM32U0xx_HAL_Driver/Inc/stm32u0xx_ll_rtc.h ****   * @{
 509:Drivers/STM32U0xx_HAL_Driver/Inc/stm32u0xx_ll_rtc.h ****   */
 510:Drivers/STM32U0xx_HAL_Driver/Inc/stm32u0xx_ll_rtc.h **** #define LL_RTC_TAMPER_ACTIVELEVEL_TAMP1    TAMP_CR2_TAMP1TRG /*!< Tamper 1 input falling edge (if T
 511:Drivers/STM32U0xx_HAL_Driver/Inc/stm32u0xx_ll_rtc.h **** #define LL_RTC_TAMPER_ACTIVELEVEL_TAMP2    TAMP_CR2_TAMP2TRG /*!< Tamper 2 input falling edge (if T
 512:Drivers/STM32U0xx_HAL_Driver/Inc/stm32u0xx_ll_rtc.h **** #define LL_RTC_TAMPER_ACTIVELEVEL_TAMP3    TAMP_CR2_TAMP3TRG /*!< Tamper 3 input falling edge (if T
 513:Drivers/STM32U0xx_HAL_Driver/Inc/stm32u0xx_ll_rtc.h **** #define LL_RTC_TAMPER_ACTIVELEVEL_TAMP4    TAMP_CR2_TAMP4TRG /*!< Tamper 4 input falling edge (if T
 514:Drivers/STM32U0xx_HAL_Driver/Inc/stm32u0xx_ll_rtc.h **** #define LL_RTC_TAMPER_ACTIVELEVEL_TAMP5    TAMP_CR2_TAMP5TRG /*!< Tamper 5 input falling edge (if T
 515:Drivers/STM32U0xx_HAL_Driver/Inc/stm32u0xx_ll_rtc.h **** /**
 516:Drivers/STM32U0xx_HAL_Driver/Inc/stm32u0xx_ll_rtc.h ****   * @}
 517:Drivers/STM32U0xx_HAL_Driver/Inc/stm32u0xx_ll_rtc.h ****   */
 518:Drivers/STM32U0xx_HAL_Driver/Inc/stm32u0xx_ll_rtc.h **** 
 519:Drivers/STM32U0xx_HAL_Driver/Inc/stm32u0xx_ll_rtc.h **** 
 520:Drivers/STM32U0xx_HAL_Driver/Inc/stm32u0xx_ll_rtc.h **** /** @defgroup RTC_LL_EC_INTERNAL  INTERNAL TAMPER
 521:Drivers/STM32U0xx_HAL_Driver/Inc/stm32u0xx_ll_rtc.h ****   * @{
 522:Drivers/STM32U0xx_HAL_Driver/Inc/stm32u0xx_ll_rtc.h ****   */
 523:Drivers/STM32U0xx_HAL_Driver/Inc/stm32u0xx_ll_rtc.h **** #define LL_RTC_TAMPER_ITAMP3           TAMP_CR1_ITAMP3E /*!< Internal tamper 3: LSE monitoring */
 524:Drivers/STM32U0xx_HAL_Driver/Inc/stm32u0xx_ll_rtc.h **** #define LL_RTC_TAMPER_ITAMP4           TAMP_CR1_ITAMP4E /*!< Internal tamper 4: HSE monitoring */
 525:Drivers/STM32U0xx_HAL_Driver/Inc/stm32u0xx_ll_rtc.h **** #define LL_RTC_TAMPER_ITAMP5           TAMP_CR1_ITAMP5E /*!< Internal tamper 5: RTC calendar overfl
 526:Drivers/STM32U0xx_HAL_Driver/Inc/stm32u0xx_ll_rtc.h **** #define LL_RTC_TAMPER_ITAMP6           TAMP_CR1_ITAMP6E /*!< Internal tamper 6: Test mode entry*/
 527:Drivers/STM32U0xx_HAL_Driver/Inc/stm32u0xx_ll_rtc.h **** /**
 528:Drivers/STM32U0xx_HAL_Driver/Inc/stm32u0xx_ll_rtc.h ****   * @}
 529:Drivers/STM32U0xx_HAL_Driver/Inc/stm32u0xx_ll_rtc.h ****   */
ARM GAS  C:\Users\upo\AppData\Local\Temp\ccWo9sLk.s 			page 22


 530:Drivers/STM32U0xx_HAL_Driver/Inc/stm32u0xx_ll_rtc.h **** 
 531:Drivers/STM32U0xx_HAL_Driver/Inc/stm32u0xx_ll_rtc.h **** /** @defgroup RTC_LL_EC_BKP  BACKUP
 532:Drivers/STM32U0xx_HAL_Driver/Inc/stm32u0xx_ll_rtc.h ****   * @{
 533:Drivers/STM32U0xx_HAL_Driver/Inc/stm32u0xx_ll_rtc.h ****   */
 534:Drivers/STM32U0xx_HAL_Driver/Inc/stm32u0xx_ll_rtc.h **** #define LL_RTC_BKP_NUMBER                    9
 535:Drivers/STM32U0xx_HAL_Driver/Inc/stm32u0xx_ll_rtc.h **** #define LL_RTC_BKP_DR0                       0U
 536:Drivers/STM32U0xx_HAL_Driver/Inc/stm32u0xx_ll_rtc.h **** #define LL_RTC_BKP_DR1                       1U
 537:Drivers/STM32U0xx_HAL_Driver/Inc/stm32u0xx_ll_rtc.h **** #define LL_RTC_BKP_DR2                       2U
 538:Drivers/STM32U0xx_HAL_Driver/Inc/stm32u0xx_ll_rtc.h **** #define LL_RTC_BKP_DR3                       3U
 539:Drivers/STM32U0xx_HAL_Driver/Inc/stm32u0xx_ll_rtc.h **** #define LL_RTC_BKP_DR4                       4U
 540:Drivers/STM32U0xx_HAL_Driver/Inc/stm32u0xx_ll_rtc.h **** #define LL_RTC_BKP_DR5                       5U
 541:Drivers/STM32U0xx_HAL_Driver/Inc/stm32u0xx_ll_rtc.h **** #define LL_RTC_BKP_DR6                       6U
 542:Drivers/STM32U0xx_HAL_Driver/Inc/stm32u0xx_ll_rtc.h **** #define LL_RTC_BKP_DR7                       7U
 543:Drivers/STM32U0xx_HAL_Driver/Inc/stm32u0xx_ll_rtc.h **** #define LL_RTC_BKP_DR8                       8U
 544:Drivers/STM32U0xx_HAL_Driver/Inc/stm32u0xx_ll_rtc.h **** /**
 545:Drivers/STM32U0xx_HAL_Driver/Inc/stm32u0xx_ll_rtc.h ****   * @}
 546:Drivers/STM32U0xx_HAL_Driver/Inc/stm32u0xx_ll_rtc.h ****   */
 547:Drivers/STM32U0xx_HAL_Driver/Inc/stm32u0xx_ll_rtc.h **** 
 548:Drivers/STM32U0xx_HAL_Driver/Inc/stm32u0xx_ll_rtc.h **** /** @defgroup RTC_LL_EC_WAKEUPCLOCK_DIV  WAKEUP CLOCK DIV
 549:Drivers/STM32U0xx_HAL_Driver/Inc/stm32u0xx_ll_rtc.h ****   * @{
 550:Drivers/STM32U0xx_HAL_Driver/Inc/stm32u0xx_ll_rtc.h ****   */
 551:Drivers/STM32U0xx_HAL_Driver/Inc/stm32u0xx_ll_rtc.h **** #define LL_RTC_WAKEUPCLOCK_DIV_16          (0x00000000U)               /*!< RTC/16 clock is selecte
 552:Drivers/STM32U0xx_HAL_Driver/Inc/stm32u0xx_ll_rtc.h **** #define LL_RTC_WAKEUPCLOCK_DIV_8           (RTC_CR_WUCKSEL_0)                    /*!< RTC/8 clock i
 553:Drivers/STM32U0xx_HAL_Driver/Inc/stm32u0xx_ll_rtc.h **** #define LL_RTC_WAKEUPCLOCK_DIV_4           (RTC_CR_WUCKSEL_1)                    /*!< RTC/4 clock i
 554:Drivers/STM32U0xx_HAL_Driver/Inc/stm32u0xx_ll_rtc.h **** #define LL_RTC_WAKEUPCLOCK_DIV_2           (RTC_CR_WUCKSEL_1 | RTC_CR_WUCKSEL_0) /*!< RTC/2 clock i
 555:Drivers/STM32U0xx_HAL_Driver/Inc/stm32u0xx_ll_rtc.h **** #define LL_RTC_WAKEUPCLOCK_CKSPRE          (RTC_CR_WUCKSEL_2)                    /*!< ck_spre (usua
 556:Drivers/STM32U0xx_HAL_Driver/Inc/stm32u0xx_ll_rtc.h **** #define LL_RTC_WAKEUPCLOCK_CKSPRE_WUT      (RTC_CR_WUCKSEL_2 | RTC_CR_WUCKSEL_1) /*!< ck_spre (usua
 557:Drivers/STM32U0xx_HAL_Driver/Inc/stm32u0xx_ll_rtc.h **** /**
 558:Drivers/STM32U0xx_HAL_Driver/Inc/stm32u0xx_ll_rtc.h ****   * @}
 559:Drivers/STM32U0xx_HAL_Driver/Inc/stm32u0xx_ll_rtc.h ****   */
 560:Drivers/STM32U0xx_HAL_Driver/Inc/stm32u0xx_ll_rtc.h **** 
 561:Drivers/STM32U0xx_HAL_Driver/Inc/stm32u0xx_ll_rtc.h **** /** @defgroup RTC_LL_EC_CALIB_OUTPUT  Calibration output
 562:Drivers/STM32U0xx_HAL_Driver/Inc/stm32u0xx_ll_rtc.h ****   * @{
 563:Drivers/STM32U0xx_HAL_Driver/Inc/stm32u0xx_ll_rtc.h ****   */
 564:Drivers/STM32U0xx_HAL_Driver/Inc/stm32u0xx_ll_rtc.h **** #define LL_RTC_CALIB_OUTPUT_NONE           0x00000000U                 /*!< Calibration output disa
 565:Drivers/STM32U0xx_HAL_Driver/Inc/stm32u0xx_ll_rtc.h **** #define LL_RTC_CALIB_OUTPUT_1HZ            (RTC_CR_COE | RTC_CR_COSEL) /*!< Calibration output is 1
 566:Drivers/STM32U0xx_HAL_Driver/Inc/stm32u0xx_ll_rtc.h **** #define LL_RTC_CALIB_OUTPUT_512HZ          (RTC_CR_COE)                /*!< Calibration output is 5
 567:Drivers/STM32U0xx_HAL_Driver/Inc/stm32u0xx_ll_rtc.h **** /**
 568:Drivers/STM32U0xx_HAL_Driver/Inc/stm32u0xx_ll_rtc.h ****   * @}
 569:Drivers/STM32U0xx_HAL_Driver/Inc/stm32u0xx_ll_rtc.h ****   */
 570:Drivers/STM32U0xx_HAL_Driver/Inc/stm32u0xx_ll_rtc.h **** 
 571:Drivers/STM32U0xx_HAL_Driver/Inc/stm32u0xx_ll_rtc.h **** /** @defgroup RTC_LL_EC_CALIB_INSERTPULSE  Calibration pulse insertion
 572:Drivers/STM32U0xx_HAL_Driver/Inc/stm32u0xx_ll_rtc.h ****   * @{
 573:Drivers/STM32U0xx_HAL_Driver/Inc/stm32u0xx_ll_rtc.h ****   */
 574:Drivers/STM32U0xx_HAL_Driver/Inc/stm32u0xx_ll_rtc.h **** #define LL_RTC_CALIB_INSERTPULSE_NONE      0x00000000U           /*!< No RTCCLK pulses are added */
 575:Drivers/STM32U0xx_HAL_Driver/Inc/stm32u0xx_ll_rtc.h **** #define LL_RTC_CALIB_INSERTPULSE_SET       RTC_CALR_CALP         /*!< One RTCCLK pulse is effective
 576:Drivers/STM32U0xx_HAL_Driver/Inc/stm32u0xx_ll_rtc.h **** /**
 577:Drivers/STM32U0xx_HAL_Driver/Inc/stm32u0xx_ll_rtc.h ****   * @}
 578:Drivers/STM32U0xx_HAL_Driver/Inc/stm32u0xx_ll_rtc.h ****   */
 579:Drivers/STM32U0xx_HAL_Driver/Inc/stm32u0xx_ll_rtc.h **** 
 580:Drivers/STM32U0xx_HAL_Driver/Inc/stm32u0xx_ll_rtc.h **** /** @defgroup RTC_LL_EC_CALIB_PERIOD  Calibration period
 581:Drivers/STM32U0xx_HAL_Driver/Inc/stm32u0xx_ll_rtc.h ****   * @{
 582:Drivers/STM32U0xx_HAL_Driver/Inc/stm32u0xx_ll_rtc.h ****   */
 583:Drivers/STM32U0xx_HAL_Driver/Inc/stm32u0xx_ll_rtc.h **** #define LL_RTC_CALIB_PERIOD_32SEC          0x00000000U           /*!< Use a 32-second calibration c
 584:Drivers/STM32U0xx_HAL_Driver/Inc/stm32u0xx_ll_rtc.h **** #define LL_RTC_CALIB_PERIOD_16SEC          RTC_CALR_CALW16       /*!< Use a 16-second calibration c
 585:Drivers/STM32U0xx_HAL_Driver/Inc/stm32u0xx_ll_rtc.h **** #define LL_RTC_CALIB_PERIOD_8SEC           RTC_CALR_CALW8        /*!< Use a 8-second calibration cy
 586:Drivers/STM32U0xx_HAL_Driver/Inc/stm32u0xx_ll_rtc.h **** /**
ARM GAS  C:\Users\upo\AppData\Local\Temp\ccWo9sLk.s 			page 23


 587:Drivers/STM32U0xx_HAL_Driver/Inc/stm32u0xx_ll_rtc.h ****   * @}
 588:Drivers/STM32U0xx_HAL_Driver/Inc/stm32u0xx_ll_rtc.h ****   */
 589:Drivers/STM32U0xx_HAL_Driver/Inc/stm32u0xx_ll_rtc.h **** 
 590:Drivers/STM32U0xx_HAL_Driver/Inc/stm32u0xx_ll_rtc.h **** /** @defgroup RTC_LL_EC_CALIB_PERIOD  Calibration period
 591:Drivers/STM32U0xx_HAL_Driver/Inc/stm32u0xx_ll_rtc.h ****   * @{
 592:Drivers/STM32U0xx_HAL_Driver/Inc/stm32u0xx_ll_rtc.h ****   */
 593:Drivers/STM32U0xx_HAL_Driver/Inc/stm32u0xx_ll_rtc.h **** #define LL_RTC_CALIB_PERIOD_32SEC          0x00000000U           /*!< Use a 32-second calibration c
 594:Drivers/STM32U0xx_HAL_Driver/Inc/stm32u0xx_ll_rtc.h **** #define LL_RTC_CALIB_PERIOD_16SEC          RTC_CALR_CALW16       /*!< Use a 16-second calibration c
 595:Drivers/STM32U0xx_HAL_Driver/Inc/stm32u0xx_ll_rtc.h **** #define LL_RTC_CALIB_PERIOD_8SEC           RTC_CALR_CALW8        /*!< Use a 8-second calibration cy
 596:Drivers/STM32U0xx_HAL_Driver/Inc/stm32u0xx_ll_rtc.h **** /**
 597:Drivers/STM32U0xx_HAL_Driver/Inc/stm32u0xx_ll_rtc.h ****   * @}
 598:Drivers/STM32U0xx_HAL_Driver/Inc/stm32u0xx_ll_rtc.h ****   */
 599:Drivers/STM32U0xx_HAL_Driver/Inc/stm32u0xx_ll_rtc.h **** 
 600:Drivers/STM32U0xx_HAL_Driver/Inc/stm32u0xx_ll_rtc.h **** /**
 601:Drivers/STM32U0xx_HAL_Driver/Inc/stm32u0xx_ll_rtc.h ****   * @}
 602:Drivers/STM32U0xx_HAL_Driver/Inc/stm32u0xx_ll_rtc.h ****   */
 603:Drivers/STM32U0xx_HAL_Driver/Inc/stm32u0xx_ll_rtc.h **** 
 604:Drivers/STM32U0xx_HAL_Driver/Inc/stm32u0xx_ll_rtc.h **** /* Exported macro ------------------------------------------------------------*/
 605:Drivers/STM32U0xx_HAL_Driver/Inc/stm32u0xx_ll_rtc.h **** /** @defgroup RTC_LL_Exported_Macros RTC Exported Macros
 606:Drivers/STM32U0xx_HAL_Driver/Inc/stm32u0xx_ll_rtc.h ****   * @{
 607:Drivers/STM32U0xx_HAL_Driver/Inc/stm32u0xx_ll_rtc.h ****   */
 608:Drivers/STM32U0xx_HAL_Driver/Inc/stm32u0xx_ll_rtc.h **** 
 609:Drivers/STM32U0xx_HAL_Driver/Inc/stm32u0xx_ll_rtc.h **** /** @defgroup RTC_LL_EM_WRITE_READ Common Write and read registers Macros
 610:Drivers/STM32U0xx_HAL_Driver/Inc/stm32u0xx_ll_rtc.h ****   * @{
 611:Drivers/STM32U0xx_HAL_Driver/Inc/stm32u0xx_ll_rtc.h ****   */
 612:Drivers/STM32U0xx_HAL_Driver/Inc/stm32u0xx_ll_rtc.h **** 
 613:Drivers/STM32U0xx_HAL_Driver/Inc/stm32u0xx_ll_rtc.h **** /**
 614:Drivers/STM32U0xx_HAL_Driver/Inc/stm32u0xx_ll_rtc.h ****   * @brief  Write a value in RTC register
 615:Drivers/STM32U0xx_HAL_Driver/Inc/stm32u0xx_ll_rtc.h ****   * @param  __INSTANCE__ RTC Instance
 616:Drivers/STM32U0xx_HAL_Driver/Inc/stm32u0xx_ll_rtc.h ****   * @param  __REG__ Register to be written
 617:Drivers/STM32U0xx_HAL_Driver/Inc/stm32u0xx_ll_rtc.h ****   * @param  __VALUE__ Value to be written in the register
 618:Drivers/STM32U0xx_HAL_Driver/Inc/stm32u0xx_ll_rtc.h ****   * @retval None
 619:Drivers/STM32U0xx_HAL_Driver/Inc/stm32u0xx_ll_rtc.h ****   */
 620:Drivers/STM32U0xx_HAL_Driver/Inc/stm32u0xx_ll_rtc.h **** #define LL_RTC_WriteReg(__INSTANCE__, __REG__, __VALUE__) WRITE_REG(__INSTANCE__->__REG__, (__VALUE
 621:Drivers/STM32U0xx_HAL_Driver/Inc/stm32u0xx_ll_rtc.h **** 
 622:Drivers/STM32U0xx_HAL_Driver/Inc/stm32u0xx_ll_rtc.h **** /**
 623:Drivers/STM32U0xx_HAL_Driver/Inc/stm32u0xx_ll_rtc.h ****   * @brief  Read a value in RTC register
 624:Drivers/STM32U0xx_HAL_Driver/Inc/stm32u0xx_ll_rtc.h ****   * @param  __INSTANCE__ RTC Instance
 625:Drivers/STM32U0xx_HAL_Driver/Inc/stm32u0xx_ll_rtc.h ****   * @param  __REG__ Register to be read
 626:Drivers/STM32U0xx_HAL_Driver/Inc/stm32u0xx_ll_rtc.h ****   * @retval Register value
 627:Drivers/STM32U0xx_HAL_Driver/Inc/stm32u0xx_ll_rtc.h ****   */
 628:Drivers/STM32U0xx_HAL_Driver/Inc/stm32u0xx_ll_rtc.h **** #define LL_RTC_ReadReg(__INSTANCE__, __REG__) READ_REG(__INSTANCE__->__REG__)
 629:Drivers/STM32U0xx_HAL_Driver/Inc/stm32u0xx_ll_rtc.h **** /**
 630:Drivers/STM32U0xx_HAL_Driver/Inc/stm32u0xx_ll_rtc.h ****   * @}
 631:Drivers/STM32U0xx_HAL_Driver/Inc/stm32u0xx_ll_rtc.h ****   */
 632:Drivers/STM32U0xx_HAL_Driver/Inc/stm32u0xx_ll_rtc.h **** 
 633:Drivers/STM32U0xx_HAL_Driver/Inc/stm32u0xx_ll_rtc.h **** /** @defgroup RTC_LL_EM_Convert Convert helper Macros
 634:Drivers/STM32U0xx_HAL_Driver/Inc/stm32u0xx_ll_rtc.h ****   * @{
 635:Drivers/STM32U0xx_HAL_Driver/Inc/stm32u0xx_ll_rtc.h ****   */
 636:Drivers/STM32U0xx_HAL_Driver/Inc/stm32u0xx_ll_rtc.h **** 
 637:Drivers/STM32U0xx_HAL_Driver/Inc/stm32u0xx_ll_rtc.h **** /**
 638:Drivers/STM32U0xx_HAL_Driver/Inc/stm32u0xx_ll_rtc.h ****   * @brief  Helper macro to convert a value from 2 digit decimal format to BCD format
 639:Drivers/STM32U0xx_HAL_Driver/Inc/stm32u0xx_ll_rtc.h ****   * @param  __VALUE__ Byte to be converted
 640:Drivers/STM32U0xx_HAL_Driver/Inc/stm32u0xx_ll_rtc.h ****   * @retval Converted byte
 641:Drivers/STM32U0xx_HAL_Driver/Inc/stm32u0xx_ll_rtc.h ****   */
 642:Drivers/STM32U0xx_HAL_Driver/Inc/stm32u0xx_ll_rtc.h **** #define __LL_RTC_CONVERT_BIN2BCD(__VALUE__) (uint8_t)((((__VALUE__) / 10U) << 4U) | ((__VALUE__) % 
 643:Drivers/STM32U0xx_HAL_Driver/Inc/stm32u0xx_ll_rtc.h **** 
ARM GAS  C:\Users\upo\AppData\Local\Temp\ccWo9sLk.s 			page 24


 644:Drivers/STM32U0xx_HAL_Driver/Inc/stm32u0xx_ll_rtc.h **** /**
 645:Drivers/STM32U0xx_HAL_Driver/Inc/stm32u0xx_ll_rtc.h ****   * @brief  Helper macro to convert a value from BCD format to 2 digit decimal format
 646:Drivers/STM32U0xx_HAL_Driver/Inc/stm32u0xx_ll_rtc.h ****   * @param  __VALUE__ BCD value to be converted
 647:Drivers/STM32U0xx_HAL_Driver/Inc/stm32u0xx_ll_rtc.h ****   * @retval Converted byte
 648:Drivers/STM32U0xx_HAL_Driver/Inc/stm32u0xx_ll_rtc.h ****   */
 649:Drivers/STM32U0xx_HAL_Driver/Inc/stm32u0xx_ll_rtc.h **** #define __LL_RTC_CONVERT_BCD2BIN(__VALUE__) \
 650:Drivers/STM32U0xx_HAL_Driver/Inc/stm32u0xx_ll_rtc.h ****   ((uint8_t)((((uint8_t)((__VALUE__) & (uint8_t)0xF0U) >> (uint8_t)0x4U) * 10U) + ((__VALUE__) & (u
 651:Drivers/STM32U0xx_HAL_Driver/Inc/stm32u0xx_ll_rtc.h **** 
 652:Drivers/STM32U0xx_HAL_Driver/Inc/stm32u0xx_ll_rtc.h **** /**
 653:Drivers/STM32U0xx_HAL_Driver/Inc/stm32u0xx_ll_rtc.h ****   * @}
 654:Drivers/STM32U0xx_HAL_Driver/Inc/stm32u0xx_ll_rtc.h ****   */
 655:Drivers/STM32U0xx_HAL_Driver/Inc/stm32u0xx_ll_rtc.h **** 
 656:Drivers/STM32U0xx_HAL_Driver/Inc/stm32u0xx_ll_rtc.h **** /** @defgroup RTC_LL_EM_Date Date helper Macros
 657:Drivers/STM32U0xx_HAL_Driver/Inc/stm32u0xx_ll_rtc.h ****   * @{
 658:Drivers/STM32U0xx_HAL_Driver/Inc/stm32u0xx_ll_rtc.h ****   */
 659:Drivers/STM32U0xx_HAL_Driver/Inc/stm32u0xx_ll_rtc.h **** 
 660:Drivers/STM32U0xx_HAL_Driver/Inc/stm32u0xx_ll_rtc.h **** /**
 661:Drivers/STM32U0xx_HAL_Driver/Inc/stm32u0xx_ll_rtc.h ****   * @brief  Helper macro to retrieve weekday.
 662:Drivers/STM32U0xx_HAL_Driver/Inc/stm32u0xx_ll_rtc.h ****   * @param  __RTC_DATE__ Date returned by @ref  LL_RTC_DATE_Get function.
 663:Drivers/STM32U0xx_HAL_Driver/Inc/stm32u0xx_ll_rtc.h ****   * @retval Returned value can be one of the following values:
 664:Drivers/STM32U0xx_HAL_Driver/Inc/stm32u0xx_ll_rtc.h ****   *         @arg @ref LL_RTC_WEEKDAY_MONDAY
 665:Drivers/STM32U0xx_HAL_Driver/Inc/stm32u0xx_ll_rtc.h ****   *         @arg @ref LL_RTC_WEEKDAY_TUESDAY
 666:Drivers/STM32U0xx_HAL_Driver/Inc/stm32u0xx_ll_rtc.h ****   *         @arg @ref LL_RTC_WEEKDAY_WEDNESDAY
 667:Drivers/STM32U0xx_HAL_Driver/Inc/stm32u0xx_ll_rtc.h ****   *         @arg @ref LL_RTC_WEEKDAY_THURSDAY
 668:Drivers/STM32U0xx_HAL_Driver/Inc/stm32u0xx_ll_rtc.h ****   *         @arg @ref LL_RTC_WEEKDAY_FRIDAY
 669:Drivers/STM32U0xx_HAL_Driver/Inc/stm32u0xx_ll_rtc.h ****   *         @arg @ref LL_RTC_WEEKDAY_SATURDAY
 670:Drivers/STM32U0xx_HAL_Driver/Inc/stm32u0xx_ll_rtc.h ****   *         @arg @ref LL_RTC_WEEKDAY_SUNDAY
 671:Drivers/STM32U0xx_HAL_Driver/Inc/stm32u0xx_ll_rtc.h ****   */
 672:Drivers/STM32U0xx_HAL_Driver/Inc/stm32u0xx_ll_rtc.h **** #define __LL_RTC_GET_WEEKDAY(__RTC_DATE__) (((__RTC_DATE__) >> RTC_OFFSET_WEEKDAY) & 0x000000FFU)
 673:Drivers/STM32U0xx_HAL_Driver/Inc/stm32u0xx_ll_rtc.h **** 
 674:Drivers/STM32U0xx_HAL_Driver/Inc/stm32u0xx_ll_rtc.h **** /**
 675:Drivers/STM32U0xx_HAL_Driver/Inc/stm32u0xx_ll_rtc.h ****   * @brief  Helper macro to retrieve Year in BCD format
 676:Drivers/STM32U0xx_HAL_Driver/Inc/stm32u0xx_ll_rtc.h ****   * @param  __RTC_DATE__ Value returned by @ref  LL_RTC_DATE_Get
 677:Drivers/STM32U0xx_HAL_Driver/Inc/stm32u0xx_ll_rtc.h ****   * @retval Year in BCD format (0x00 . . . 0x99)
 678:Drivers/STM32U0xx_HAL_Driver/Inc/stm32u0xx_ll_rtc.h ****   */
 679:Drivers/STM32U0xx_HAL_Driver/Inc/stm32u0xx_ll_rtc.h **** #define __LL_RTC_GET_YEAR(__RTC_DATE__) ((__RTC_DATE__) & 0x000000FFU)
 680:Drivers/STM32U0xx_HAL_Driver/Inc/stm32u0xx_ll_rtc.h **** 
 681:Drivers/STM32U0xx_HAL_Driver/Inc/stm32u0xx_ll_rtc.h **** /**
 682:Drivers/STM32U0xx_HAL_Driver/Inc/stm32u0xx_ll_rtc.h ****   * @brief  Helper macro to retrieve Month in BCD format
 683:Drivers/STM32U0xx_HAL_Driver/Inc/stm32u0xx_ll_rtc.h ****   * @param  __RTC_DATE__ Value returned by @ref  LL_RTC_DATE_Get
 684:Drivers/STM32U0xx_HAL_Driver/Inc/stm32u0xx_ll_rtc.h ****   * @retval Returned value can be one of the following values:
 685:Drivers/STM32U0xx_HAL_Driver/Inc/stm32u0xx_ll_rtc.h ****   *         @arg @ref LL_RTC_MONTH_JANUARY
 686:Drivers/STM32U0xx_HAL_Driver/Inc/stm32u0xx_ll_rtc.h ****   *         @arg @ref LL_RTC_MONTH_FEBRUARY
 687:Drivers/STM32U0xx_HAL_Driver/Inc/stm32u0xx_ll_rtc.h ****   *         @arg @ref LL_RTC_MONTH_MARCH
 688:Drivers/STM32U0xx_HAL_Driver/Inc/stm32u0xx_ll_rtc.h ****   *         @arg @ref LL_RTC_MONTH_APRIL
 689:Drivers/STM32U0xx_HAL_Driver/Inc/stm32u0xx_ll_rtc.h ****   *         @arg @ref LL_RTC_MONTH_MAY
 690:Drivers/STM32U0xx_HAL_Driver/Inc/stm32u0xx_ll_rtc.h ****   *         @arg @ref LL_RTC_MONTH_JUNE
 691:Drivers/STM32U0xx_HAL_Driver/Inc/stm32u0xx_ll_rtc.h ****   *         @arg @ref LL_RTC_MONTH_JULY
 692:Drivers/STM32U0xx_HAL_Driver/Inc/stm32u0xx_ll_rtc.h ****   *         @arg @ref LL_RTC_MONTH_AUGUST
 693:Drivers/STM32U0xx_HAL_Driver/Inc/stm32u0xx_ll_rtc.h ****   *         @arg @ref LL_RTC_MONTH_SEPTEMBER
 694:Drivers/STM32U0xx_HAL_Driver/Inc/stm32u0xx_ll_rtc.h ****   *         @arg @ref LL_RTC_MONTH_OCTOBER
 695:Drivers/STM32U0xx_HAL_Driver/Inc/stm32u0xx_ll_rtc.h ****   *         @arg @ref LL_RTC_MONTH_NOVEMBER
 696:Drivers/STM32U0xx_HAL_Driver/Inc/stm32u0xx_ll_rtc.h ****   *         @arg @ref LL_RTC_MONTH_DECEMBER
 697:Drivers/STM32U0xx_HAL_Driver/Inc/stm32u0xx_ll_rtc.h ****   */
 698:Drivers/STM32U0xx_HAL_Driver/Inc/stm32u0xx_ll_rtc.h **** #define __LL_RTC_GET_MONTH(__RTC_DATE__) (((__RTC_DATE__) >>RTC_OFFSET_MONTH) & 0x000000FFU)
 699:Drivers/STM32U0xx_HAL_Driver/Inc/stm32u0xx_ll_rtc.h **** 
 700:Drivers/STM32U0xx_HAL_Driver/Inc/stm32u0xx_ll_rtc.h **** /**
ARM GAS  C:\Users\upo\AppData\Local\Temp\ccWo9sLk.s 			page 25


 701:Drivers/STM32U0xx_HAL_Driver/Inc/stm32u0xx_ll_rtc.h ****   * @brief  Helper macro to retrieve Day in BCD format
 702:Drivers/STM32U0xx_HAL_Driver/Inc/stm32u0xx_ll_rtc.h ****   * @param  __RTC_DATE__ Value returned by @ref  LL_RTC_DATE_Get
 703:Drivers/STM32U0xx_HAL_Driver/Inc/stm32u0xx_ll_rtc.h ****   * @retval Day in BCD format (0x01 . . . 0x31)
 704:Drivers/STM32U0xx_HAL_Driver/Inc/stm32u0xx_ll_rtc.h ****   */
 705:Drivers/STM32U0xx_HAL_Driver/Inc/stm32u0xx_ll_rtc.h **** #define __LL_RTC_GET_DAY(__RTC_DATE__) (((__RTC_DATE__) >>RTC_OFFSET_DAY) & 0x000000FFU)
 706:Drivers/STM32U0xx_HAL_Driver/Inc/stm32u0xx_ll_rtc.h **** 
 707:Drivers/STM32U0xx_HAL_Driver/Inc/stm32u0xx_ll_rtc.h **** /**
 708:Drivers/STM32U0xx_HAL_Driver/Inc/stm32u0xx_ll_rtc.h ****   * @}
 709:Drivers/STM32U0xx_HAL_Driver/Inc/stm32u0xx_ll_rtc.h ****   */
 710:Drivers/STM32U0xx_HAL_Driver/Inc/stm32u0xx_ll_rtc.h **** 
 711:Drivers/STM32U0xx_HAL_Driver/Inc/stm32u0xx_ll_rtc.h **** /** @defgroup RTC_LL_EM_Time Time helper Macros
 712:Drivers/STM32U0xx_HAL_Driver/Inc/stm32u0xx_ll_rtc.h ****   * @{
 713:Drivers/STM32U0xx_HAL_Driver/Inc/stm32u0xx_ll_rtc.h ****   */
 714:Drivers/STM32U0xx_HAL_Driver/Inc/stm32u0xx_ll_rtc.h **** 
 715:Drivers/STM32U0xx_HAL_Driver/Inc/stm32u0xx_ll_rtc.h **** /**
 716:Drivers/STM32U0xx_HAL_Driver/Inc/stm32u0xx_ll_rtc.h ****   * @brief  Helper macro to retrieve hour in BCD format
 717:Drivers/STM32U0xx_HAL_Driver/Inc/stm32u0xx_ll_rtc.h ****   * @param  __RTC_TIME__ RTC time returned by @ref LL_RTC_TIME_Get function
 718:Drivers/STM32U0xx_HAL_Driver/Inc/stm32u0xx_ll_rtc.h ****   * @retval Hours in BCD format (0x01. . .0x12 or between Min_Data=0x00 and Max_Data=0x23)
 719:Drivers/STM32U0xx_HAL_Driver/Inc/stm32u0xx_ll_rtc.h ****   */
 720:Drivers/STM32U0xx_HAL_Driver/Inc/stm32u0xx_ll_rtc.h **** #define __LL_RTC_GET_HOUR(__RTC_TIME__) (((__RTC_TIME__) >> RTC_OFFSET_HOUR) & 0x000000FFU)
 721:Drivers/STM32U0xx_HAL_Driver/Inc/stm32u0xx_ll_rtc.h **** 
 722:Drivers/STM32U0xx_HAL_Driver/Inc/stm32u0xx_ll_rtc.h **** /**
 723:Drivers/STM32U0xx_HAL_Driver/Inc/stm32u0xx_ll_rtc.h ****   * @brief  Helper macro to retrieve minute in BCD format
 724:Drivers/STM32U0xx_HAL_Driver/Inc/stm32u0xx_ll_rtc.h ****   * @param  __RTC_TIME__ RTC time returned by @ref LL_RTC_TIME_Get function
 725:Drivers/STM32U0xx_HAL_Driver/Inc/stm32u0xx_ll_rtc.h ****   * @retval Minutes in BCD format (0x00. . .0x59)
 726:Drivers/STM32U0xx_HAL_Driver/Inc/stm32u0xx_ll_rtc.h ****   */
 727:Drivers/STM32U0xx_HAL_Driver/Inc/stm32u0xx_ll_rtc.h **** #define __LL_RTC_GET_MINUTE(__RTC_TIME__) (((__RTC_TIME__) >> RTC_OFFSET_MINUTE) & 0x000000FFU)
 728:Drivers/STM32U0xx_HAL_Driver/Inc/stm32u0xx_ll_rtc.h **** 
 729:Drivers/STM32U0xx_HAL_Driver/Inc/stm32u0xx_ll_rtc.h **** /**
 730:Drivers/STM32U0xx_HAL_Driver/Inc/stm32u0xx_ll_rtc.h ****   * @brief  Helper macro to retrieve second in BCD format
 731:Drivers/STM32U0xx_HAL_Driver/Inc/stm32u0xx_ll_rtc.h ****   * @param  __RTC_TIME__ RTC time returned by @ref LL_RTC_TIME_Get function
 732:Drivers/STM32U0xx_HAL_Driver/Inc/stm32u0xx_ll_rtc.h ****   * @retval Seconds in  format (0x00. . .0x59)
 733:Drivers/STM32U0xx_HAL_Driver/Inc/stm32u0xx_ll_rtc.h ****   */
 734:Drivers/STM32U0xx_HAL_Driver/Inc/stm32u0xx_ll_rtc.h **** #define __LL_RTC_GET_SECOND(__RTC_TIME__) ((__RTC_TIME__) & 0x000000FFU)
 735:Drivers/STM32U0xx_HAL_Driver/Inc/stm32u0xx_ll_rtc.h **** 
 736:Drivers/STM32U0xx_HAL_Driver/Inc/stm32u0xx_ll_rtc.h **** /**
 737:Drivers/STM32U0xx_HAL_Driver/Inc/stm32u0xx_ll_rtc.h ****   * @}
 738:Drivers/STM32U0xx_HAL_Driver/Inc/stm32u0xx_ll_rtc.h ****   */
 739:Drivers/STM32U0xx_HAL_Driver/Inc/stm32u0xx_ll_rtc.h **** 
 740:Drivers/STM32U0xx_HAL_Driver/Inc/stm32u0xx_ll_rtc.h **** /**
 741:Drivers/STM32U0xx_HAL_Driver/Inc/stm32u0xx_ll_rtc.h ****   * @}
 742:Drivers/STM32U0xx_HAL_Driver/Inc/stm32u0xx_ll_rtc.h ****   */
 743:Drivers/STM32U0xx_HAL_Driver/Inc/stm32u0xx_ll_rtc.h **** 
 744:Drivers/STM32U0xx_HAL_Driver/Inc/stm32u0xx_ll_rtc.h **** /* Exported functions --------------------------------------------------------*/
 745:Drivers/STM32U0xx_HAL_Driver/Inc/stm32u0xx_ll_rtc.h **** /** @defgroup RTC_LL_Exported_Functions RTC Exported Functions
 746:Drivers/STM32U0xx_HAL_Driver/Inc/stm32u0xx_ll_rtc.h ****   * @{
 747:Drivers/STM32U0xx_HAL_Driver/Inc/stm32u0xx_ll_rtc.h ****   */
 748:Drivers/STM32U0xx_HAL_Driver/Inc/stm32u0xx_ll_rtc.h **** 
 749:Drivers/STM32U0xx_HAL_Driver/Inc/stm32u0xx_ll_rtc.h **** /** @defgroup RTC_LL_EF_Configuration Configuration
 750:Drivers/STM32U0xx_HAL_Driver/Inc/stm32u0xx_ll_rtc.h ****   * @{
 751:Drivers/STM32U0xx_HAL_Driver/Inc/stm32u0xx_ll_rtc.h ****   */
 752:Drivers/STM32U0xx_HAL_Driver/Inc/stm32u0xx_ll_rtc.h **** 
 753:Drivers/STM32U0xx_HAL_Driver/Inc/stm32u0xx_ll_rtc.h **** /**
 754:Drivers/STM32U0xx_HAL_Driver/Inc/stm32u0xx_ll_rtc.h ****   * @brief  Set Hours format (24 hour/day or AM/PM hour format)
 755:Drivers/STM32U0xx_HAL_Driver/Inc/stm32u0xx_ll_rtc.h ****   * @note   Bit is write-protected. @ref LL_RTC_DisableWriteProtection function should be called be
 756:Drivers/STM32U0xx_HAL_Driver/Inc/stm32u0xx_ll_rtc.h ****   * @note   It can be written in initialization mode only (@ref LL_RTC_EnableInitMode function)
 757:Drivers/STM32U0xx_HAL_Driver/Inc/stm32u0xx_ll_rtc.h ****   * @rmtoll RTC_CR           FMT           LL_RTC_SetHourFormat
ARM GAS  C:\Users\upo\AppData\Local\Temp\ccWo9sLk.s 			page 26


 758:Drivers/STM32U0xx_HAL_Driver/Inc/stm32u0xx_ll_rtc.h ****   * @param  RTCx RTC Instance
 759:Drivers/STM32U0xx_HAL_Driver/Inc/stm32u0xx_ll_rtc.h ****   * @param  HourFormat This parameter can be one of the following values:
 760:Drivers/STM32U0xx_HAL_Driver/Inc/stm32u0xx_ll_rtc.h ****   *         @arg @ref LL_RTC_HOURFORMAT_24HOUR
 761:Drivers/STM32U0xx_HAL_Driver/Inc/stm32u0xx_ll_rtc.h ****   *         @arg @ref LL_RTC_HOURFORMAT_AMPM
 762:Drivers/STM32U0xx_HAL_Driver/Inc/stm32u0xx_ll_rtc.h ****   * @retval None
 763:Drivers/STM32U0xx_HAL_Driver/Inc/stm32u0xx_ll_rtc.h ****   */
 764:Drivers/STM32U0xx_HAL_Driver/Inc/stm32u0xx_ll_rtc.h **** __STATIC_INLINE void LL_RTC_SetHourFormat(RTC_TypeDef *RTCx, uint32_t HourFormat)
 765:Drivers/STM32U0xx_HAL_Driver/Inc/stm32u0xx_ll_rtc.h **** {
 766:Drivers/STM32U0xx_HAL_Driver/Inc/stm32u0xx_ll_rtc.h ****   MODIFY_REG(RTCx->CR, RTC_CR_FMT, HourFormat);
 767:Drivers/STM32U0xx_HAL_Driver/Inc/stm32u0xx_ll_rtc.h **** }
 768:Drivers/STM32U0xx_HAL_Driver/Inc/stm32u0xx_ll_rtc.h **** 
 769:Drivers/STM32U0xx_HAL_Driver/Inc/stm32u0xx_ll_rtc.h **** /**
 770:Drivers/STM32U0xx_HAL_Driver/Inc/stm32u0xx_ll_rtc.h ****   * @brief  Get Hours format (24 hour/day or AM/PM hour format)
 771:Drivers/STM32U0xx_HAL_Driver/Inc/stm32u0xx_ll_rtc.h ****   * @rmtoll RTC_CR           FMT           LL_RTC_GetHourFormat
 772:Drivers/STM32U0xx_HAL_Driver/Inc/stm32u0xx_ll_rtc.h ****   * @param  RTCx RTC Instance
 773:Drivers/STM32U0xx_HAL_Driver/Inc/stm32u0xx_ll_rtc.h ****   * @retval Returned value can be one of the following values:
 774:Drivers/STM32U0xx_HAL_Driver/Inc/stm32u0xx_ll_rtc.h ****   *         @arg @ref LL_RTC_HOURFORMAT_24HOUR
 775:Drivers/STM32U0xx_HAL_Driver/Inc/stm32u0xx_ll_rtc.h ****   *         @arg @ref LL_RTC_HOURFORMAT_AMPM
 776:Drivers/STM32U0xx_HAL_Driver/Inc/stm32u0xx_ll_rtc.h ****   */
 777:Drivers/STM32U0xx_HAL_Driver/Inc/stm32u0xx_ll_rtc.h **** __STATIC_INLINE uint32_t LL_RTC_GetHourFormat(RTC_TypeDef *RTCx)
 778:Drivers/STM32U0xx_HAL_Driver/Inc/stm32u0xx_ll_rtc.h **** {
 779:Drivers/STM32U0xx_HAL_Driver/Inc/stm32u0xx_ll_rtc.h ****   return (uint32_t)(READ_BIT(RTCx->CR, RTC_CR_FMT));
 780:Drivers/STM32U0xx_HAL_Driver/Inc/stm32u0xx_ll_rtc.h **** }
 781:Drivers/STM32U0xx_HAL_Driver/Inc/stm32u0xx_ll_rtc.h **** 
 782:Drivers/STM32U0xx_HAL_Driver/Inc/stm32u0xx_ll_rtc.h **** /**
 783:Drivers/STM32U0xx_HAL_Driver/Inc/stm32u0xx_ll_rtc.h ****   * @brief  Select the flag to be routed to RTC_ALARM output
 784:Drivers/STM32U0xx_HAL_Driver/Inc/stm32u0xx_ll_rtc.h ****   * @note   Bit is write-protected. @ref LL_RTC_DisableWriteProtection function should be called be
 785:Drivers/STM32U0xx_HAL_Driver/Inc/stm32u0xx_ll_rtc.h ****   * @rmtoll RTC_CR           OSEL          LL_RTC_SetAlarmOutEvent
 786:Drivers/STM32U0xx_HAL_Driver/Inc/stm32u0xx_ll_rtc.h ****   * @param  RTCx RTC Instance
 787:Drivers/STM32U0xx_HAL_Driver/Inc/stm32u0xx_ll_rtc.h ****   * @param  AlarmOutput This parameter can be one of the following values:
 788:Drivers/STM32U0xx_HAL_Driver/Inc/stm32u0xx_ll_rtc.h ****   *         @arg @ref LL_RTC_ALARMOUT_DISABLE
 789:Drivers/STM32U0xx_HAL_Driver/Inc/stm32u0xx_ll_rtc.h ****   *         @arg @ref LL_RTC_ALARMOUT_ALMA
 790:Drivers/STM32U0xx_HAL_Driver/Inc/stm32u0xx_ll_rtc.h ****   *         @arg @ref LL_RTC_ALARMOUT_ALMB
 791:Drivers/STM32U0xx_HAL_Driver/Inc/stm32u0xx_ll_rtc.h ****   *         @arg @ref LL_RTC_ALARMOUT_WAKEUP
 792:Drivers/STM32U0xx_HAL_Driver/Inc/stm32u0xx_ll_rtc.h ****   * @retval None
 793:Drivers/STM32U0xx_HAL_Driver/Inc/stm32u0xx_ll_rtc.h ****   */
 794:Drivers/STM32U0xx_HAL_Driver/Inc/stm32u0xx_ll_rtc.h **** __STATIC_INLINE void LL_RTC_SetAlarmOutEvent(RTC_TypeDef *RTCx, uint32_t AlarmOutput)
 795:Drivers/STM32U0xx_HAL_Driver/Inc/stm32u0xx_ll_rtc.h **** {
 796:Drivers/STM32U0xx_HAL_Driver/Inc/stm32u0xx_ll_rtc.h ****   MODIFY_REG(RTCx->CR, RTC_CR_OSEL, AlarmOutput);
 797:Drivers/STM32U0xx_HAL_Driver/Inc/stm32u0xx_ll_rtc.h **** }
 798:Drivers/STM32U0xx_HAL_Driver/Inc/stm32u0xx_ll_rtc.h **** 
 799:Drivers/STM32U0xx_HAL_Driver/Inc/stm32u0xx_ll_rtc.h **** /**
 800:Drivers/STM32U0xx_HAL_Driver/Inc/stm32u0xx_ll_rtc.h ****   * @brief  Get the flag to be routed to RTC_ALARM output
 801:Drivers/STM32U0xx_HAL_Driver/Inc/stm32u0xx_ll_rtc.h ****   * @rmtoll RTC_CR           OSEL          LL_RTC_GetAlarmOutEvent
 802:Drivers/STM32U0xx_HAL_Driver/Inc/stm32u0xx_ll_rtc.h ****   * @param  RTCx RTC Instance
 803:Drivers/STM32U0xx_HAL_Driver/Inc/stm32u0xx_ll_rtc.h ****   * @retval Returned value can be one of the following values:
 804:Drivers/STM32U0xx_HAL_Driver/Inc/stm32u0xx_ll_rtc.h ****   *         @arg @ref LL_RTC_ALARMOUT_DISABLE
 805:Drivers/STM32U0xx_HAL_Driver/Inc/stm32u0xx_ll_rtc.h ****   *         @arg @ref LL_RTC_ALARMOUT_ALMA
 806:Drivers/STM32U0xx_HAL_Driver/Inc/stm32u0xx_ll_rtc.h ****   *         @arg @ref LL_RTC_ALARMOUT_ALMB
 807:Drivers/STM32U0xx_HAL_Driver/Inc/stm32u0xx_ll_rtc.h ****   *         @arg @ref LL_RTC_ALARMOUT_WAKEUP
 808:Drivers/STM32U0xx_HAL_Driver/Inc/stm32u0xx_ll_rtc.h ****   */
 809:Drivers/STM32U0xx_HAL_Driver/Inc/stm32u0xx_ll_rtc.h **** __STATIC_INLINE uint32_t LL_RTC_GetAlarmOutEvent(RTC_TypeDef *RTCx)
 810:Drivers/STM32U0xx_HAL_Driver/Inc/stm32u0xx_ll_rtc.h **** {
 811:Drivers/STM32U0xx_HAL_Driver/Inc/stm32u0xx_ll_rtc.h ****   return (uint32_t)(READ_BIT(RTCx->CR, RTC_CR_OSEL));
 812:Drivers/STM32U0xx_HAL_Driver/Inc/stm32u0xx_ll_rtc.h **** }
 813:Drivers/STM32U0xx_HAL_Driver/Inc/stm32u0xx_ll_rtc.h **** 
 814:Drivers/STM32U0xx_HAL_Driver/Inc/stm32u0xx_ll_rtc.h **** /**
ARM GAS  C:\Users\upo\AppData\Local\Temp\ccWo9sLk.s 			page 27


 815:Drivers/STM32U0xx_HAL_Driver/Inc/stm32u0xx_ll_rtc.h ****   * @brief  Set RTC_ALARM output type (ALARM in push-pull or open-drain output)
 816:Drivers/STM32U0xx_HAL_Driver/Inc/stm32u0xx_ll_rtc.h ****   * @rmtoll RTC_CR           TAMPALRM_TYPE          LL_RTC_SetAlarmOutputType
 817:Drivers/STM32U0xx_HAL_Driver/Inc/stm32u0xx_ll_rtc.h ****   * @param  RTCx RTC Instance
 818:Drivers/STM32U0xx_HAL_Driver/Inc/stm32u0xx_ll_rtc.h ****   * @param  Output This parameter can be one of the following values:
 819:Drivers/STM32U0xx_HAL_Driver/Inc/stm32u0xx_ll_rtc.h ****   *         @arg @ref LL_RTC_ALARM_OUTPUTTYPE_OPENDRAIN
 820:Drivers/STM32U0xx_HAL_Driver/Inc/stm32u0xx_ll_rtc.h ****   *         @arg @ref LL_RTC_ALARM_OUTPUTTYPE_PUSHPULL
 821:Drivers/STM32U0xx_HAL_Driver/Inc/stm32u0xx_ll_rtc.h ****   * @retval None
 822:Drivers/STM32U0xx_HAL_Driver/Inc/stm32u0xx_ll_rtc.h ****   */
 823:Drivers/STM32U0xx_HAL_Driver/Inc/stm32u0xx_ll_rtc.h **** __STATIC_INLINE void LL_RTC_SetAlarmOutputType(RTC_TypeDef *RTCx, uint32_t Output)
 824:Drivers/STM32U0xx_HAL_Driver/Inc/stm32u0xx_ll_rtc.h **** {
 825:Drivers/STM32U0xx_HAL_Driver/Inc/stm32u0xx_ll_rtc.h ****   MODIFY_REG(RTCx->CR, RTC_CR_TAMPALRM_TYPE, Output);
 826:Drivers/STM32U0xx_HAL_Driver/Inc/stm32u0xx_ll_rtc.h **** }
 827:Drivers/STM32U0xx_HAL_Driver/Inc/stm32u0xx_ll_rtc.h **** 
 828:Drivers/STM32U0xx_HAL_Driver/Inc/stm32u0xx_ll_rtc.h **** /**
 829:Drivers/STM32U0xx_HAL_Driver/Inc/stm32u0xx_ll_rtc.h ****   * @brief  Get RTC_ALARM output type (ALARM in push-pull or open-drain output)
 830:Drivers/STM32U0xx_HAL_Driver/Inc/stm32u0xx_ll_rtc.h ****   * @rmtoll RTC_CR           TAMPALRM_TYPE          LL_RTC_GetAlarmOutputType
 831:Drivers/STM32U0xx_HAL_Driver/Inc/stm32u0xx_ll_rtc.h ****   * @param  RTCx RTC Instance
 832:Drivers/STM32U0xx_HAL_Driver/Inc/stm32u0xx_ll_rtc.h ****   * @retval Returned value can be one of the following values:
 833:Drivers/STM32U0xx_HAL_Driver/Inc/stm32u0xx_ll_rtc.h ****   *         @arg @ref LL_RTC_ALARM_OUTPUTTYPE_OPENDRAIN
 834:Drivers/STM32U0xx_HAL_Driver/Inc/stm32u0xx_ll_rtc.h ****   *         @arg @ref LL_RTC_ALARM_OUTPUTTYPE_PUSHPULL
 835:Drivers/STM32U0xx_HAL_Driver/Inc/stm32u0xx_ll_rtc.h ****   */
 836:Drivers/STM32U0xx_HAL_Driver/Inc/stm32u0xx_ll_rtc.h **** __STATIC_INLINE uint32_t LL_RTC_GetAlarmOutputType(RTC_TypeDef *RTCx)
 837:Drivers/STM32U0xx_HAL_Driver/Inc/stm32u0xx_ll_rtc.h **** {
 838:Drivers/STM32U0xx_HAL_Driver/Inc/stm32u0xx_ll_rtc.h ****   return (uint32_t)(READ_BIT(RTCx->CR, RTC_CR_TAMPALRM_TYPE));
 839:Drivers/STM32U0xx_HAL_Driver/Inc/stm32u0xx_ll_rtc.h **** }
 840:Drivers/STM32U0xx_HAL_Driver/Inc/stm32u0xx_ll_rtc.h **** 
 841:Drivers/STM32U0xx_HAL_Driver/Inc/stm32u0xx_ll_rtc.h **** /**
 842:Drivers/STM32U0xx_HAL_Driver/Inc/stm32u0xx_ll_rtc.h ****   * @brief  Enable initialization mode
 843:Drivers/STM32U0xx_HAL_Driver/Inc/stm32u0xx_ll_rtc.h ****   * @note   Initialization mode is used to program time and date register (RTC_TR and RTC_DR)
 844:Drivers/STM32U0xx_HAL_Driver/Inc/stm32u0xx_ll_rtc.h ****   *         and prescaler register (RTC_PRER).
 845:Drivers/STM32U0xx_HAL_Driver/Inc/stm32u0xx_ll_rtc.h ****   *         Counters are stopped and start counting from the new value when INIT is reset.
 846:Drivers/STM32U0xx_HAL_Driver/Inc/stm32u0xx_ll_rtc.h ****   * @rmtoll RTC_ICSR          INIT          LL_RTC_EnableInitMode
 847:Drivers/STM32U0xx_HAL_Driver/Inc/stm32u0xx_ll_rtc.h ****   * @param  RTCx RTC Instance
 848:Drivers/STM32U0xx_HAL_Driver/Inc/stm32u0xx_ll_rtc.h ****   * @retval None
 849:Drivers/STM32U0xx_HAL_Driver/Inc/stm32u0xx_ll_rtc.h ****   */
 850:Drivers/STM32U0xx_HAL_Driver/Inc/stm32u0xx_ll_rtc.h **** __STATIC_INLINE void LL_RTC_EnableInitMode(RTC_TypeDef *RTCx)
 851:Drivers/STM32U0xx_HAL_Driver/Inc/stm32u0xx_ll_rtc.h **** {
 852:Drivers/STM32U0xx_HAL_Driver/Inc/stm32u0xx_ll_rtc.h ****   /* Set the Initialization mode */
 853:Drivers/STM32U0xx_HAL_Driver/Inc/stm32u0xx_ll_rtc.h ****   SET_BIT(RTCx->ICSR, RTC_ICSR_INIT);
 854:Drivers/STM32U0xx_HAL_Driver/Inc/stm32u0xx_ll_rtc.h **** }
 855:Drivers/STM32U0xx_HAL_Driver/Inc/stm32u0xx_ll_rtc.h **** 
 856:Drivers/STM32U0xx_HAL_Driver/Inc/stm32u0xx_ll_rtc.h **** /**
 857:Drivers/STM32U0xx_HAL_Driver/Inc/stm32u0xx_ll_rtc.h ****   * @brief  Disable initialization mode (Free running mode)
 858:Drivers/STM32U0xx_HAL_Driver/Inc/stm32u0xx_ll_rtc.h ****   * @rmtoll RTC_ICSR          INIT          LL_RTC_DisableInitMode
 859:Drivers/STM32U0xx_HAL_Driver/Inc/stm32u0xx_ll_rtc.h ****   * @param  RTCx RTC Instance
 860:Drivers/STM32U0xx_HAL_Driver/Inc/stm32u0xx_ll_rtc.h ****   * @retval None
 861:Drivers/STM32U0xx_HAL_Driver/Inc/stm32u0xx_ll_rtc.h ****   */
 862:Drivers/STM32U0xx_HAL_Driver/Inc/stm32u0xx_ll_rtc.h **** __STATIC_INLINE void LL_RTC_DisableInitMode(RTC_TypeDef *RTCx)
 863:Drivers/STM32U0xx_HAL_Driver/Inc/stm32u0xx_ll_rtc.h **** {
 864:Drivers/STM32U0xx_HAL_Driver/Inc/stm32u0xx_ll_rtc.h ****   /* Exit Initialization mode */
 865:Drivers/STM32U0xx_HAL_Driver/Inc/stm32u0xx_ll_rtc.h ****   CLEAR_BIT(RTCx->ICSR, RTC_ICSR_INIT);
 866:Drivers/STM32U0xx_HAL_Driver/Inc/stm32u0xx_ll_rtc.h **** }
 867:Drivers/STM32U0xx_HAL_Driver/Inc/stm32u0xx_ll_rtc.h **** 
 868:Drivers/STM32U0xx_HAL_Driver/Inc/stm32u0xx_ll_rtc.h **** /**
 869:Drivers/STM32U0xx_HAL_Driver/Inc/stm32u0xx_ll_rtc.h ****   * @brief  Set Output polarity (pin is low when ALRAF/ALRBF/WUTF is asserted)
 870:Drivers/STM32U0xx_HAL_Driver/Inc/stm32u0xx_ll_rtc.h ****   * @note   Bit is write-protected. @ref LL_RTC_DisableWriteProtection function should be called be
 871:Drivers/STM32U0xx_HAL_Driver/Inc/stm32u0xx_ll_rtc.h ****   * @rmtoll RTC_CR           POL           LL_RTC_SetOutputPolarity
ARM GAS  C:\Users\upo\AppData\Local\Temp\ccWo9sLk.s 			page 28


 872:Drivers/STM32U0xx_HAL_Driver/Inc/stm32u0xx_ll_rtc.h ****   * @param  RTCx RTC Instance
 873:Drivers/STM32U0xx_HAL_Driver/Inc/stm32u0xx_ll_rtc.h ****   * @param  Polarity This parameter can be one of the following values:
 874:Drivers/STM32U0xx_HAL_Driver/Inc/stm32u0xx_ll_rtc.h ****   *         @arg @ref LL_RTC_OUTPUTPOLARITY_PIN_HIGH
 875:Drivers/STM32U0xx_HAL_Driver/Inc/stm32u0xx_ll_rtc.h ****   *         @arg @ref LL_RTC_OUTPUTPOLARITY_PIN_LOW
 876:Drivers/STM32U0xx_HAL_Driver/Inc/stm32u0xx_ll_rtc.h ****   * @retval None
 877:Drivers/STM32U0xx_HAL_Driver/Inc/stm32u0xx_ll_rtc.h ****   */
 878:Drivers/STM32U0xx_HAL_Driver/Inc/stm32u0xx_ll_rtc.h **** __STATIC_INLINE void LL_RTC_SetOutputPolarity(RTC_TypeDef *RTCx, uint32_t Polarity)
 879:Drivers/STM32U0xx_HAL_Driver/Inc/stm32u0xx_ll_rtc.h **** {
 880:Drivers/STM32U0xx_HAL_Driver/Inc/stm32u0xx_ll_rtc.h ****   MODIFY_REG(RTCx->CR, RTC_CR_POL, Polarity);
 881:Drivers/STM32U0xx_HAL_Driver/Inc/stm32u0xx_ll_rtc.h **** }
 882:Drivers/STM32U0xx_HAL_Driver/Inc/stm32u0xx_ll_rtc.h **** 
 883:Drivers/STM32U0xx_HAL_Driver/Inc/stm32u0xx_ll_rtc.h **** /**
 884:Drivers/STM32U0xx_HAL_Driver/Inc/stm32u0xx_ll_rtc.h ****   * @brief  Get Output polarity
 885:Drivers/STM32U0xx_HAL_Driver/Inc/stm32u0xx_ll_rtc.h ****   * @rmtoll RTC_CR           POL           LL_RTC_GetOutputPolarity
 886:Drivers/STM32U0xx_HAL_Driver/Inc/stm32u0xx_ll_rtc.h ****   * @param  RTCx RTC Instance
 887:Drivers/STM32U0xx_HAL_Driver/Inc/stm32u0xx_ll_rtc.h ****   * @retval Returned value can be one of the following values:
 888:Drivers/STM32U0xx_HAL_Driver/Inc/stm32u0xx_ll_rtc.h ****   *         @arg @ref LL_RTC_OUTPUTPOLARITY_PIN_HIGH
 889:Drivers/STM32U0xx_HAL_Driver/Inc/stm32u0xx_ll_rtc.h ****   *         @arg @ref LL_RTC_OUTPUTPOLARITY_PIN_LOW
 890:Drivers/STM32U0xx_HAL_Driver/Inc/stm32u0xx_ll_rtc.h ****   */
 891:Drivers/STM32U0xx_HAL_Driver/Inc/stm32u0xx_ll_rtc.h **** __STATIC_INLINE uint32_t LL_RTC_GetOutputPolarity(RTC_TypeDef *RTCx)
 892:Drivers/STM32U0xx_HAL_Driver/Inc/stm32u0xx_ll_rtc.h **** {
 893:Drivers/STM32U0xx_HAL_Driver/Inc/stm32u0xx_ll_rtc.h ****   return (uint32_t)(READ_BIT(RTCx->CR, RTC_CR_POL));
 894:Drivers/STM32U0xx_HAL_Driver/Inc/stm32u0xx_ll_rtc.h **** }
 895:Drivers/STM32U0xx_HAL_Driver/Inc/stm32u0xx_ll_rtc.h **** 
 896:Drivers/STM32U0xx_HAL_Driver/Inc/stm32u0xx_ll_rtc.h **** /**
 897:Drivers/STM32U0xx_HAL_Driver/Inc/stm32u0xx_ll_rtc.h ****   * @brief  Enable Bypass the shadow registers
 898:Drivers/STM32U0xx_HAL_Driver/Inc/stm32u0xx_ll_rtc.h ****   * @note   Bit is write-protected. @ref LL_RTC_DisableWriteProtection function should be called be
 899:Drivers/STM32U0xx_HAL_Driver/Inc/stm32u0xx_ll_rtc.h ****   * @rmtoll RTC_CR           BYPSHAD       LL_RTC_EnableShadowRegBypass
 900:Drivers/STM32U0xx_HAL_Driver/Inc/stm32u0xx_ll_rtc.h ****   * @param  RTCx RTC Instance
 901:Drivers/STM32U0xx_HAL_Driver/Inc/stm32u0xx_ll_rtc.h ****   * @retval None
 902:Drivers/STM32U0xx_HAL_Driver/Inc/stm32u0xx_ll_rtc.h ****   */
 903:Drivers/STM32U0xx_HAL_Driver/Inc/stm32u0xx_ll_rtc.h **** __STATIC_INLINE void LL_RTC_EnableShadowRegBypass(RTC_TypeDef *RTCx)
 904:Drivers/STM32U0xx_HAL_Driver/Inc/stm32u0xx_ll_rtc.h **** {
 905:Drivers/STM32U0xx_HAL_Driver/Inc/stm32u0xx_ll_rtc.h ****   SET_BIT(RTCx->CR, RTC_CR_BYPSHAD);
 906:Drivers/STM32U0xx_HAL_Driver/Inc/stm32u0xx_ll_rtc.h **** }
 907:Drivers/STM32U0xx_HAL_Driver/Inc/stm32u0xx_ll_rtc.h **** 
 908:Drivers/STM32U0xx_HAL_Driver/Inc/stm32u0xx_ll_rtc.h **** /**
 909:Drivers/STM32U0xx_HAL_Driver/Inc/stm32u0xx_ll_rtc.h ****   * @brief  Disable Bypass the shadow registers
 910:Drivers/STM32U0xx_HAL_Driver/Inc/stm32u0xx_ll_rtc.h ****   * @rmtoll RTC_CR           BYPSHAD       LL_RTC_DisableShadowRegBypass
 911:Drivers/STM32U0xx_HAL_Driver/Inc/stm32u0xx_ll_rtc.h ****   * @param  RTCx RTC Instance
 912:Drivers/STM32U0xx_HAL_Driver/Inc/stm32u0xx_ll_rtc.h ****   * @retval None
 913:Drivers/STM32U0xx_HAL_Driver/Inc/stm32u0xx_ll_rtc.h ****   */
 914:Drivers/STM32U0xx_HAL_Driver/Inc/stm32u0xx_ll_rtc.h **** __STATIC_INLINE void LL_RTC_DisableShadowRegBypass(RTC_TypeDef *RTCx)
 915:Drivers/STM32U0xx_HAL_Driver/Inc/stm32u0xx_ll_rtc.h **** {
 916:Drivers/STM32U0xx_HAL_Driver/Inc/stm32u0xx_ll_rtc.h ****   CLEAR_BIT(RTCx->CR, RTC_CR_BYPSHAD);
 917:Drivers/STM32U0xx_HAL_Driver/Inc/stm32u0xx_ll_rtc.h **** }
 918:Drivers/STM32U0xx_HAL_Driver/Inc/stm32u0xx_ll_rtc.h **** 
 919:Drivers/STM32U0xx_HAL_Driver/Inc/stm32u0xx_ll_rtc.h **** /**
 920:Drivers/STM32U0xx_HAL_Driver/Inc/stm32u0xx_ll_rtc.h ****   * @brief  Check if Shadow registers bypass is enabled or not.
 921:Drivers/STM32U0xx_HAL_Driver/Inc/stm32u0xx_ll_rtc.h ****   * @rmtoll RTC_CR           BYPSHAD       LL_RTC_IsShadowRegBypassEnabled
 922:Drivers/STM32U0xx_HAL_Driver/Inc/stm32u0xx_ll_rtc.h ****   * @param  RTCx RTC Instance
 923:Drivers/STM32U0xx_HAL_Driver/Inc/stm32u0xx_ll_rtc.h ****   * @retval State of bit (1 or 0).
 924:Drivers/STM32U0xx_HAL_Driver/Inc/stm32u0xx_ll_rtc.h ****   */
 925:Drivers/STM32U0xx_HAL_Driver/Inc/stm32u0xx_ll_rtc.h **** __STATIC_INLINE uint32_t LL_RTC_IsShadowRegBypassEnabled(RTC_TypeDef *RTCx)
 926:Drivers/STM32U0xx_HAL_Driver/Inc/stm32u0xx_ll_rtc.h **** {
 927:Drivers/STM32U0xx_HAL_Driver/Inc/stm32u0xx_ll_rtc.h ****   return ((READ_BIT(RTCx->CR, RTC_CR_BYPSHAD) == (RTC_CR_BYPSHAD)) ? 1U : 0U);
 928:Drivers/STM32U0xx_HAL_Driver/Inc/stm32u0xx_ll_rtc.h **** }
ARM GAS  C:\Users\upo\AppData\Local\Temp\ccWo9sLk.s 			page 29


 929:Drivers/STM32U0xx_HAL_Driver/Inc/stm32u0xx_ll_rtc.h **** 
 930:Drivers/STM32U0xx_HAL_Driver/Inc/stm32u0xx_ll_rtc.h **** /**
 931:Drivers/STM32U0xx_HAL_Driver/Inc/stm32u0xx_ll_rtc.h ****   * @brief  Enable RTC_REFIN reference clock detection (50 or 60 Hz)
 932:Drivers/STM32U0xx_HAL_Driver/Inc/stm32u0xx_ll_rtc.h ****   * @note   Bit is write-protected. @ref LL_RTC_DisableWriteProtection function should be called be
 933:Drivers/STM32U0xx_HAL_Driver/Inc/stm32u0xx_ll_rtc.h ****   * @note   It can be written in initialization mode only (@ref LL_RTC_EnableInitMode function)
 934:Drivers/STM32U0xx_HAL_Driver/Inc/stm32u0xx_ll_rtc.h ****   * @rmtoll RTC_CR           REFCKON       LL_RTC_EnableRefClock
 935:Drivers/STM32U0xx_HAL_Driver/Inc/stm32u0xx_ll_rtc.h ****   * @param  RTCx RTC Instance
 936:Drivers/STM32U0xx_HAL_Driver/Inc/stm32u0xx_ll_rtc.h ****   * @retval None
 937:Drivers/STM32U0xx_HAL_Driver/Inc/stm32u0xx_ll_rtc.h ****   */
 938:Drivers/STM32U0xx_HAL_Driver/Inc/stm32u0xx_ll_rtc.h **** __STATIC_INLINE void LL_RTC_EnableRefClock(RTC_TypeDef *RTCx)
 939:Drivers/STM32U0xx_HAL_Driver/Inc/stm32u0xx_ll_rtc.h **** {
 940:Drivers/STM32U0xx_HAL_Driver/Inc/stm32u0xx_ll_rtc.h ****   SET_BIT(RTCx->CR, RTC_CR_REFCKON);
 941:Drivers/STM32U0xx_HAL_Driver/Inc/stm32u0xx_ll_rtc.h **** }
 942:Drivers/STM32U0xx_HAL_Driver/Inc/stm32u0xx_ll_rtc.h **** 
 943:Drivers/STM32U0xx_HAL_Driver/Inc/stm32u0xx_ll_rtc.h **** /**
 944:Drivers/STM32U0xx_HAL_Driver/Inc/stm32u0xx_ll_rtc.h ****   * @brief  Disable RTC_REFIN reference clock detection (50 or 60 Hz)
 945:Drivers/STM32U0xx_HAL_Driver/Inc/stm32u0xx_ll_rtc.h ****   * @note   Bit is write-protected. @ref LL_RTC_DisableWriteProtection function should be called be
 946:Drivers/STM32U0xx_HAL_Driver/Inc/stm32u0xx_ll_rtc.h ****   * @note   It can be written in initialization mode only (@ref LL_RTC_EnableInitMode function)
 947:Drivers/STM32U0xx_HAL_Driver/Inc/stm32u0xx_ll_rtc.h ****   * @rmtoll RTC_CR           REFCKON       LL_RTC_DisableRefClock
 948:Drivers/STM32U0xx_HAL_Driver/Inc/stm32u0xx_ll_rtc.h ****   * @param  RTCx RTC Instance
 949:Drivers/STM32U0xx_HAL_Driver/Inc/stm32u0xx_ll_rtc.h ****   * @retval None
 950:Drivers/STM32U0xx_HAL_Driver/Inc/stm32u0xx_ll_rtc.h ****   */
 951:Drivers/STM32U0xx_HAL_Driver/Inc/stm32u0xx_ll_rtc.h **** __STATIC_INLINE void LL_RTC_DisableRefClock(RTC_TypeDef *RTCx)
 952:Drivers/STM32U0xx_HAL_Driver/Inc/stm32u0xx_ll_rtc.h **** {
 953:Drivers/STM32U0xx_HAL_Driver/Inc/stm32u0xx_ll_rtc.h ****   CLEAR_BIT(RTCx->CR, RTC_CR_REFCKON);
 954:Drivers/STM32U0xx_HAL_Driver/Inc/stm32u0xx_ll_rtc.h **** }
 955:Drivers/STM32U0xx_HAL_Driver/Inc/stm32u0xx_ll_rtc.h **** 
 956:Drivers/STM32U0xx_HAL_Driver/Inc/stm32u0xx_ll_rtc.h **** /**
 957:Drivers/STM32U0xx_HAL_Driver/Inc/stm32u0xx_ll_rtc.h ****   * @brief  Set Asynchronous prescaler factor
 958:Drivers/STM32U0xx_HAL_Driver/Inc/stm32u0xx_ll_rtc.h ****   * @rmtoll RTC_PRER         PREDIV_A      LL_RTC_SetAsynchPrescaler
 959:Drivers/STM32U0xx_HAL_Driver/Inc/stm32u0xx_ll_rtc.h ****   * @param  RTCx RTC Instance
 960:Drivers/STM32U0xx_HAL_Driver/Inc/stm32u0xx_ll_rtc.h ****   * @param  AsynchPrescaler Value between Min_Data = 0 and Max_Data = 0x7F
 961:Drivers/STM32U0xx_HAL_Driver/Inc/stm32u0xx_ll_rtc.h ****   * @retval None
 962:Drivers/STM32U0xx_HAL_Driver/Inc/stm32u0xx_ll_rtc.h ****   */
 963:Drivers/STM32U0xx_HAL_Driver/Inc/stm32u0xx_ll_rtc.h **** __STATIC_INLINE void LL_RTC_SetAsynchPrescaler(RTC_TypeDef *RTCx, uint32_t AsynchPrescaler)
 964:Drivers/STM32U0xx_HAL_Driver/Inc/stm32u0xx_ll_rtc.h **** {
 965:Drivers/STM32U0xx_HAL_Driver/Inc/stm32u0xx_ll_rtc.h ****   MODIFY_REG(RTCx->PRER, RTC_PRER_PREDIV_A, AsynchPrescaler << RTC_PRER_PREDIV_A_Pos);
 966:Drivers/STM32U0xx_HAL_Driver/Inc/stm32u0xx_ll_rtc.h **** }
 967:Drivers/STM32U0xx_HAL_Driver/Inc/stm32u0xx_ll_rtc.h **** 
 968:Drivers/STM32U0xx_HAL_Driver/Inc/stm32u0xx_ll_rtc.h **** /**
 969:Drivers/STM32U0xx_HAL_Driver/Inc/stm32u0xx_ll_rtc.h ****   * @brief  Set Synchronous prescaler factor
 970:Drivers/STM32U0xx_HAL_Driver/Inc/stm32u0xx_ll_rtc.h ****   * @rmtoll RTC_PRER         PREDIV_S      LL_RTC_SetSynchPrescaler
 971:Drivers/STM32U0xx_HAL_Driver/Inc/stm32u0xx_ll_rtc.h ****   * @param  RTCx RTC Instance
 972:Drivers/STM32U0xx_HAL_Driver/Inc/stm32u0xx_ll_rtc.h ****   * @param  SynchPrescaler Value between Min_Data = 0 and Max_Data = 0x7FFF
 973:Drivers/STM32U0xx_HAL_Driver/Inc/stm32u0xx_ll_rtc.h ****   * @retval None
 974:Drivers/STM32U0xx_HAL_Driver/Inc/stm32u0xx_ll_rtc.h ****   */
 975:Drivers/STM32U0xx_HAL_Driver/Inc/stm32u0xx_ll_rtc.h **** __STATIC_INLINE void LL_RTC_SetSynchPrescaler(RTC_TypeDef *RTCx, uint32_t SynchPrescaler)
 976:Drivers/STM32U0xx_HAL_Driver/Inc/stm32u0xx_ll_rtc.h **** {
 977:Drivers/STM32U0xx_HAL_Driver/Inc/stm32u0xx_ll_rtc.h ****   MODIFY_REG(RTCx->PRER, RTC_PRER_PREDIV_S, SynchPrescaler);
 978:Drivers/STM32U0xx_HAL_Driver/Inc/stm32u0xx_ll_rtc.h **** }
 979:Drivers/STM32U0xx_HAL_Driver/Inc/stm32u0xx_ll_rtc.h **** 
 980:Drivers/STM32U0xx_HAL_Driver/Inc/stm32u0xx_ll_rtc.h **** /**
 981:Drivers/STM32U0xx_HAL_Driver/Inc/stm32u0xx_ll_rtc.h ****   * @brief  Get Asynchronous prescaler factor
 982:Drivers/STM32U0xx_HAL_Driver/Inc/stm32u0xx_ll_rtc.h ****   * @rmtoll RTC_PRER         PREDIV_A      LL_RTC_GetAsynchPrescaler
 983:Drivers/STM32U0xx_HAL_Driver/Inc/stm32u0xx_ll_rtc.h ****   * @param  RTCx RTC Instance
 984:Drivers/STM32U0xx_HAL_Driver/Inc/stm32u0xx_ll_rtc.h ****   * @retval Value between Min_Data = 0 and Max_Data = 0x7F
 985:Drivers/STM32U0xx_HAL_Driver/Inc/stm32u0xx_ll_rtc.h ****   */
ARM GAS  C:\Users\upo\AppData\Local\Temp\ccWo9sLk.s 			page 30


 986:Drivers/STM32U0xx_HAL_Driver/Inc/stm32u0xx_ll_rtc.h **** __STATIC_INLINE uint32_t LL_RTC_GetAsynchPrescaler(RTC_TypeDef *RTCx)
 987:Drivers/STM32U0xx_HAL_Driver/Inc/stm32u0xx_ll_rtc.h **** {
 988:Drivers/STM32U0xx_HAL_Driver/Inc/stm32u0xx_ll_rtc.h ****   return (uint32_t)(READ_BIT(RTCx->PRER, RTC_PRER_PREDIV_A) >> RTC_PRER_PREDIV_A_Pos);
 989:Drivers/STM32U0xx_HAL_Driver/Inc/stm32u0xx_ll_rtc.h **** }
 990:Drivers/STM32U0xx_HAL_Driver/Inc/stm32u0xx_ll_rtc.h **** 
 991:Drivers/STM32U0xx_HAL_Driver/Inc/stm32u0xx_ll_rtc.h **** /**
 992:Drivers/STM32U0xx_HAL_Driver/Inc/stm32u0xx_ll_rtc.h ****   * @brief  Get Synchronous prescaler factor
 993:Drivers/STM32U0xx_HAL_Driver/Inc/stm32u0xx_ll_rtc.h ****   * @rmtoll RTC_PRER         PREDIV_S      LL_RTC_GetSynchPrescaler
 994:Drivers/STM32U0xx_HAL_Driver/Inc/stm32u0xx_ll_rtc.h ****   * @param  RTCx RTC Instance
 995:Drivers/STM32U0xx_HAL_Driver/Inc/stm32u0xx_ll_rtc.h ****   * @retval Value between Min_Data = 0 and Max_Data = 0x7FFF
 996:Drivers/STM32U0xx_HAL_Driver/Inc/stm32u0xx_ll_rtc.h ****   */
 997:Drivers/STM32U0xx_HAL_Driver/Inc/stm32u0xx_ll_rtc.h **** __STATIC_INLINE uint32_t LL_RTC_GetSynchPrescaler(RTC_TypeDef *RTCx)
 998:Drivers/STM32U0xx_HAL_Driver/Inc/stm32u0xx_ll_rtc.h **** {
 999:Drivers/STM32U0xx_HAL_Driver/Inc/stm32u0xx_ll_rtc.h ****   return (uint32_t)(READ_BIT(RTCx->PRER, RTC_PRER_PREDIV_S));
1000:Drivers/STM32U0xx_HAL_Driver/Inc/stm32u0xx_ll_rtc.h **** }
1001:Drivers/STM32U0xx_HAL_Driver/Inc/stm32u0xx_ll_rtc.h **** 
1002:Drivers/STM32U0xx_HAL_Driver/Inc/stm32u0xx_ll_rtc.h **** /**
1003:Drivers/STM32U0xx_HAL_Driver/Inc/stm32u0xx_ll_rtc.h ****   * @brief  Enable the write protection for RTC registers.
1004:Drivers/STM32U0xx_HAL_Driver/Inc/stm32u0xx_ll_rtc.h ****   * @rmtoll RTC_WPR          KEY           LL_RTC_EnableWriteProtection
1005:Drivers/STM32U0xx_HAL_Driver/Inc/stm32u0xx_ll_rtc.h ****   * @param  RTCx RTC Instance
1006:Drivers/STM32U0xx_HAL_Driver/Inc/stm32u0xx_ll_rtc.h ****   * @retval None
1007:Drivers/STM32U0xx_HAL_Driver/Inc/stm32u0xx_ll_rtc.h ****   */
1008:Drivers/STM32U0xx_HAL_Driver/Inc/stm32u0xx_ll_rtc.h **** __STATIC_INLINE void LL_RTC_EnableWriteProtection(RTC_TypeDef *RTCx)
1009:Drivers/STM32U0xx_HAL_Driver/Inc/stm32u0xx_ll_rtc.h **** {
1010:Drivers/STM32U0xx_HAL_Driver/Inc/stm32u0xx_ll_rtc.h ****   WRITE_REG(RTCx->WPR, RTC_WRITE_PROTECTION_DISABLE);
1011:Drivers/STM32U0xx_HAL_Driver/Inc/stm32u0xx_ll_rtc.h **** }
1012:Drivers/STM32U0xx_HAL_Driver/Inc/stm32u0xx_ll_rtc.h **** 
1013:Drivers/STM32U0xx_HAL_Driver/Inc/stm32u0xx_ll_rtc.h **** /**
1014:Drivers/STM32U0xx_HAL_Driver/Inc/stm32u0xx_ll_rtc.h ****   * @brief  Disable the write protection for RTC registers.
1015:Drivers/STM32U0xx_HAL_Driver/Inc/stm32u0xx_ll_rtc.h ****   * @rmtoll RTC_WPR          KEY           LL_RTC_DisableWriteProtection
1016:Drivers/STM32U0xx_HAL_Driver/Inc/stm32u0xx_ll_rtc.h ****   * @param  RTCx RTC Instance
1017:Drivers/STM32U0xx_HAL_Driver/Inc/stm32u0xx_ll_rtc.h ****   * @retval None
1018:Drivers/STM32U0xx_HAL_Driver/Inc/stm32u0xx_ll_rtc.h ****   */
1019:Drivers/STM32U0xx_HAL_Driver/Inc/stm32u0xx_ll_rtc.h **** __STATIC_INLINE void LL_RTC_DisableWriteProtection(RTC_TypeDef *RTCx)
1020:Drivers/STM32U0xx_HAL_Driver/Inc/stm32u0xx_ll_rtc.h **** {
1021:Drivers/STM32U0xx_HAL_Driver/Inc/stm32u0xx_ll_rtc.h ****   WRITE_REG(RTCx->WPR, RTC_WRITE_PROTECTION_ENABLE_1);
1022:Drivers/STM32U0xx_HAL_Driver/Inc/stm32u0xx_ll_rtc.h ****   WRITE_REG(RTCx->WPR, RTC_WRITE_PROTECTION_ENABLE_2);
1023:Drivers/STM32U0xx_HAL_Driver/Inc/stm32u0xx_ll_rtc.h **** }
1024:Drivers/STM32U0xx_HAL_Driver/Inc/stm32u0xx_ll_rtc.h **** 
1025:Drivers/STM32U0xx_HAL_Driver/Inc/stm32u0xx_ll_rtc.h **** /**
1026:Drivers/STM32U0xx_HAL_Driver/Inc/stm32u0xx_ll_rtc.h ****   * @brief  Enable tamper output.
1027:Drivers/STM32U0xx_HAL_Driver/Inc/stm32u0xx_ll_rtc.h ****   * @note When the tamper output is enabled, all external and internal tamper flags
1028:Drivers/STM32U0xx_HAL_Driver/Inc/stm32u0xx_ll_rtc.h ****   *       are ORed and routed to the TAMPALRM output.
1029:Drivers/STM32U0xx_HAL_Driver/Inc/stm32u0xx_ll_rtc.h ****   * @rmtoll RTC_CR           TAMPOE       LL_RTC_EnableTamperOutput
1030:Drivers/STM32U0xx_HAL_Driver/Inc/stm32u0xx_ll_rtc.h ****   * @param  RTCx RTC Instance
1031:Drivers/STM32U0xx_HAL_Driver/Inc/stm32u0xx_ll_rtc.h ****   * @retval None
1032:Drivers/STM32U0xx_HAL_Driver/Inc/stm32u0xx_ll_rtc.h ****   */
1033:Drivers/STM32U0xx_HAL_Driver/Inc/stm32u0xx_ll_rtc.h **** __STATIC_INLINE void LL_RTC_EnableTamperOutput(RTC_TypeDef *RTCx)
1034:Drivers/STM32U0xx_HAL_Driver/Inc/stm32u0xx_ll_rtc.h **** {
1035:Drivers/STM32U0xx_HAL_Driver/Inc/stm32u0xx_ll_rtc.h ****   SET_BIT(RTCx->CR, RTC_CR_TAMPOE);
1036:Drivers/STM32U0xx_HAL_Driver/Inc/stm32u0xx_ll_rtc.h **** }
1037:Drivers/STM32U0xx_HAL_Driver/Inc/stm32u0xx_ll_rtc.h **** 
1038:Drivers/STM32U0xx_HAL_Driver/Inc/stm32u0xx_ll_rtc.h **** /**
1039:Drivers/STM32U0xx_HAL_Driver/Inc/stm32u0xx_ll_rtc.h ****   * @brief  Disable tamper output.
1040:Drivers/STM32U0xx_HAL_Driver/Inc/stm32u0xx_ll_rtc.h ****   * @rmtoll RTC_CR           TAMPOE       LL_RTC_DisableTamperOutput
1041:Drivers/STM32U0xx_HAL_Driver/Inc/stm32u0xx_ll_rtc.h ****   * @param  RTCx RTC Instance
1042:Drivers/STM32U0xx_HAL_Driver/Inc/stm32u0xx_ll_rtc.h ****   * @retval None
ARM GAS  C:\Users\upo\AppData\Local\Temp\ccWo9sLk.s 			page 31


1043:Drivers/STM32U0xx_HAL_Driver/Inc/stm32u0xx_ll_rtc.h ****   */
1044:Drivers/STM32U0xx_HAL_Driver/Inc/stm32u0xx_ll_rtc.h **** __STATIC_INLINE void LL_RTC_DisableTamperOutput(RTC_TypeDef *RTCx)
1045:Drivers/STM32U0xx_HAL_Driver/Inc/stm32u0xx_ll_rtc.h **** {
1046:Drivers/STM32U0xx_HAL_Driver/Inc/stm32u0xx_ll_rtc.h ****   CLEAR_BIT(RTCx->CR, RTC_CR_TAMPOE);
1047:Drivers/STM32U0xx_HAL_Driver/Inc/stm32u0xx_ll_rtc.h **** }
1048:Drivers/STM32U0xx_HAL_Driver/Inc/stm32u0xx_ll_rtc.h **** 
1049:Drivers/STM32U0xx_HAL_Driver/Inc/stm32u0xx_ll_rtc.h **** /**
1050:Drivers/STM32U0xx_HAL_Driver/Inc/stm32u0xx_ll_rtc.h ****   * @brief  Check if tamper output is enabled or not.
1051:Drivers/STM32U0xx_HAL_Driver/Inc/stm32u0xx_ll_rtc.h ****   * @rmtoll RTC_CR           TAMPOE       LL_RTC_IsTamperOutputEnabled
1052:Drivers/STM32U0xx_HAL_Driver/Inc/stm32u0xx_ll_rtc.h ****   * @param  RTCx RTC Instance
1053:Drivers/STM32U0xx_HAL_Driver/Inc/stm32u0xx_ll_rtc.h ****   * @retval State of bit (1 or 0).
1054:Drivers/STM32U0xx_HAL_Driver/Inc/stm32u0xx_ll_rtc.h ****   */
1055:Drivers/STM32U0xx_HAL_Driver/Inc/stm32u0xx_ll_rtc.h **** __STATIC_INLINE uint32_t LL_RTC_IsTamperOutputEnabled(RTC_TypeDef *RTCx)
1056:Drivers/STM32U0xx_HAL_Driver/Inc/stm32u0xx_ll_rtc.h **** {
1057:Drivers/STM32U0xx_HAL_Driver/Inc/stm32u0xx_ll_rtc.h ****   return ((READ_BIT(RTCx->CR, RTC_CR_TAMPOE) == (RTC_CR_TAMPOE)) ? 1U : 0U);
1058:Drivers/STM32U0xx_HAL_Driver/Inc/stm32u0xx_ll_rtc.h **** }
1059:Drivers/STM32U0xx_HAL_Driver/Inc/stm32u0xx_ll_rtc.h **** 
1060:Drivers/STM32U0xx_HAL_Driver/Inc/stm32u0xx_ll_rtc.h **** /**
1061:Drivers/STM32U0xx_HAL_Driver/Inc/stm32u0xx_ll_rtc.h ****   * @brief  Enable internal pull-up in output mode.
1062:Drivers/STM32U0xx_HAL_Driver/Inc/stm32u0xx_ll_rtc.h ****   * @rmtoll RTC_CR           TAMPALRM_PU       LL_RTC_EnableAlarmPullUp
1063:Drivers/STM32U0xx_HAL_Driver/Inc/stm32u0xx_ll_rtc.h ****   * @param  RTCx RTC Instance
1064:Drivers/STM32U0xx_HAL_Driver/Inc/stm32u0xx_ll_rtc.h ****   * @retval None
1065:Drivers/STM32U0xx_HAL_Driver/Inc/stm32u0xx_ll_rtc.h ****   */
1066:Drivers/STM32U0xx_HAL_Driver/Inc/stm32u0xx_ll_rtc.h **** __STATIC_INLINE void LL_RTC_EnableAlarmPullUp(RTC_TypeDef *RTCx)
1067:Drivers/STM32U0xx_HAL_Driver/Inc/stm32u0xx_ll_rtc.h **** {
1068:Drivers/STM32U0xx_HAL_Driver/Inc/stm32u0xx_ll_rtc.h ****   SET_BIT(RTCx->CR, RTC_CR_TAMPALRM_PU);
1069:Drivers/STM32U0xx_HAL_Driver/Inc/stm32u0xx_ll_rtc.h **** }
1070:Drivers/STM32U0xx_HAL_Driver/Inc/stm32u0xx_ll_rtc.h **** 
1071:Drivers/STM32U0xx_HAL_Driver/Inc/stm32u0xx_ll_rtc.h **** /**
1072:Drivers/STM32U0xx_HAL_Driver/Inc/stm32u0xx_ll_rtc.h ****   * @brief  Disable internal pull-up in output mode.
1073:Drivers/STM32U0xx_HAL_Driver/Inc/stm32u0xx_ll_rtc.h ****   * @rmtoll RTC_CR           TAMPALRM_PU       LL_RTC_EnableAlarmPullUp
1074:Drivers/STM32U0xx_HAL_Driver/Inc/stm32u0xx_ll_rtc.h ****   * @param  RTCx RTC Instance
1075:Drivers/STM32U0xx_HAL_Driver/Inc/stm32u0xx_ll_rtc.h ****   * @retval None
1076:Drivers/STM32U0xx_HAL_Driver/Inc/stm32u0xx_ll_rtc.h ****   */
1077:Drivers/STM32U0xx_HAL_Driver/Inc/stm32u0xx_ll_rtc.h **** __STATIC_INLINE void LL_RTC_DisableAlarmPullUp(RTC_TypeDef *RTCx)
1078:Drivers/STM32U0xx_HAL_Driver/Inc/stm32u0xx_ll_rtc.h **** {
1079:Drivers/STM32U0xx_HAL_Driver/Inc/stm32u0xx_ll_rtc.h ****   CLEAR_BIT(RTCx->CR, RTC_CR_TAMPALRM_PU);
1080:Drivers/STM32U0xx_HAL_Driver/Inc/stm32u0xx_ll_rtc.h **** }
1081:Drivers/STM32U0xx_HAL_Driver/Inc/stm32u0xx_ll_rtc.h **** 
1082:Drivers/STM32U0xx_HAL_Driver/Inc/stm32u0xx_ll_rtc.h **** /**
1083:Drivers/STM32U0xx_HAL_Driver/Inc/stm32u0xx_ll_rtc.h ****   * @brief  Check if internal pull-up in output mode is enabled or not.
1084:Drivers/STM32U0xx_HAL_Driver/Inc/stm32u0xx_ll_rtc.h ****   * @rmtoll RTC_CR           TAMPALRM_PU       LL_RTC_IsAlarmPullUpEnabled
1085:Drivers/STM32U0xx_HAL_Driver/Inc/stm32u0xx_ll_rtc.h ****   * @param  RTCx RTC Instance
1086:Drivers/STM32U0xx_HAL_Driver/Inc/stm32u0xx_ll_rtc.h ****   * @retval State of bit (1 or 0).
1087:Drivers/STM32U0xx_HAL_Driver/Inc/stm32u0xx_ll_rtc.h ****   */
1088:Drivers/STM32U0xx_HAL_Driver/Inc/stm32u0xx_ll_rtc.h **** __STATIC_INLINE uint32_t LL_RTC_IsAlarmPullUpEnabled(RTC_TypeDef *RTCx)
1089:Drivers/STM32U0xx_HAL_Driver/Inc/stm32u0xx_ll_rtc.h **** {
1090:Drivers/STM32U0xx_HAL_Driver/Inc/stm32u0xx_ll_rtc.h ****   return ((READ_BIT(RTCx->CR, RTC_CR_TAMPALRM_PU) == (RTC_CR_TAMPALRM_PU)) ? 1U : 0U);
1091:Drivers/STM32U0xx_HAL_Driver/Inc/stm32u0xx_ll_rtc.h **** }
1092:Drivers/STM32U0xx_HAL_Driver/Inc/stm32u0xx_ll_rtc.h **** 
1093:Drivers/STM32U0xx_HAL_Driver/Inc/stm32u0xx_ll_rtc.h **** /**
1094:Drivers/STM32U0xx_HAL_Driver/Inc/stm32u0xx_ll_rtc.h ****   * @brief  Enable RTC_OUT2 output
1095:Drivers/STM32U0xx_HAL_Driver/Inc/stm32u0xx_ll_rtc.h ****   * @note RTC_OUT2 mapping depends on both OSEL (@ref LL_RTC_SetAlarmOutEvent)
1096:Drivers/STM32U0xx_HAL_Driver/Inc/stm32u0xx_ll_rtc.h ****   *       and COE (@ref LL_RTC_CAL_SetOutputFreq) settings.
1097:Drivers/STM32U0xx_HAL_Driver/Inc/stm32u0xx_ll_rtc.h ****   * @note RTC_OUT2 isn't available ins VBAT mode.
1098:Drivers/STM32U0xx_HAL_Driver/Inc/stm32u0xx_ll_rtc.h ****   * @rmtoll RTC_CR           OUT2EN       LL_RTC_EnableOutput2
1099:Drivers/STM32U0xx_HAL_Driver/Inc/stm32u0xx_ll_rtc.h ****   * @param  RTCx RTC Instance
ARM GAS  C:\Users\upo\AppData\Local\Temp\ccWo9sLk.s 			page 32


1100:Drivers/STM32U0xx_HAL_Driver/Inc/stm32u0xx_ll_rtc.h ****   * @retval None
1101:Drivers/STM32U0xx_HAL_Driver/Inc/stm32u0xx_ll_rtc.h ****   */
1102:Drivers/STM32U0xx_HAL_Driver/Inc/stm32u0xx_ll_rtc.h **** __STATIC_INLINE void LL_RTC_EnableOutput2(RTC_TypeDef *RTCx)
1103:Drivers/STM32U0xx_HAL_Driver/Inc/stm32u0xx_ll_rtc.h **** {
1104:Drivers/STM32U0xx_HAL_Driver/Inc/stm32u0xx_ll_rtc.h ****   SET_BIT(RTCx->CR, RTC_CR_OUT2EN);
1105:Drivers/STM32U0xx_HAL_Driver/Inc/stm32u0xx_ll_rtc.h **** }
1106:Drivers/STM32U0xx_HAL_Driver/Inc/stm32u0xx_ll_rtc.h **** 
1107:Drivers/STM32U0xx_HAL_Driver/Inc/stm32u0xx_ll_rtc.h **** /**
1108:Drivers/STM32U0xx_HAL_Driver/Inc/stm32u0xx_ll_rtc.h ****   * @brief  Disable RTC_OUT2 output
1109:Drivers/STM32U0xx_HAL_Driver/Inc/stm32u0xx_ll_rtc.h ****   * @rmtoll RTC_CR           OUT2EN       LL_RTC_DisableOutput2
1110:Drivers/STM32U0xx_HAL_Driver/Inc/stm32u0xx_ll_rtc.h ****   * @param  RTCx RTC Instance
1111:Drivers/STM32U0xx_HAL_Driver/Inc/stm32u0xx_ll_rtc.h ****   * @retval None
1112:Drivers/STM32U0xx_HAL_Driver/Inc/stm32u0xx_ll_rtc.h ****   */
1113:Drivers/STM32U0xx_HAL_Driver/Inc/stm32u0xx_ll_rtc.h **** __STATIC_INLINE void LL_RTC_DisableOutput2(RTC_TypeDef *RTCx)
1114:Drivers/STM32U0xx_HAL_Driver/Inc/stm32u0xx_ll_rtc.h **** {
1115:Drivers/STM32U0xx_HAL_Driver/Inc/stm32u0xx_ll_rtc.h ****   CLEAR_BIT(RTCx->CR, RTC_CR_OUT2EN);
1116:Drivers/STM32U0xx_HAL_Driver/Inc/stm32u0xx_ll_rtc.h **** }
1117:Drivers/STM32U0xx_HAL_Driver/Inc/stm32u0xx_ll_rtc.h **** 
1118:Drivers/STM32U0xx_HAL_Driver/Inc/stm32u0xx_ll_rtc.h **** /**
1119:Drivers/STM32U0xx_HAL_Driver/Inc/stm32u0xx_ll_rtc.h ****   * @brief  Check if RTC_OUT2 output is enabled or not.
1120:Drivers/STM32U0xx_HAL_Driver/Inc/stm32u0xx_ll_rtc.h ****   * @rmtoll RTC_CR           OUT2EN       LL_RTC_IsOutput2Enabled
1121:Drivers/STM32U0xx_HAL_Driver/Inc/stm32u0xx_ll_rtc.h ****   * @param  RTCx RTC Instance
1122:Drivers/STM32U0xx_HAL_Driver/Inc/stm32u0xx_ll_rtc.h ****   * @retval State of bit (1 or 0).
1123:Drivers/STM32U0xx_HAL_Driver/Inc/stm32u0xx_ll_rtc.h ****   */
1124:Drivers/STM32U0xx_HAL_Driver/Inc/stm32u0xx_ll_rtc.h **** __STATIC_INLINE uint32_t LL_RTC_IsOutput2Enabled(RTC_TypeDef *RTCx)
1125:Drivers/STM32U0xx_HAL_Driver/Inc/stm32u0xx_ll_rtc.h **** {
1126:Drivers/STM32U0xx_HAL_Driver/Inc/stm32u0xx_ll_rtc.h ****   return ((READ_BIT(RTCx->CR, RTC_CR_OUT2EN) == (RTC_CR_OUT2EN)) ? 1U : 0U);
1127:Drivers/STM32U0xx_HAL_Driver/Inc/stm32u0xx_ll_rtc.h **** }
1128:Drivers/STM32U0xx_HAL_Driver/Inc/stm32u0xx_ll_rtc.h **** 
1129:Drivers/STM32U0xx_HAL_Driver/Inc/stm32u0xx_ll_rtc.h **** /**
1130:Drivers/STM32U0xx_HAL_Driver/Inc/stm32u0xx_ll_rtc.h ****   * @}
1131:Drivers/STM32U0xx_HAL_Driver/Inc/stm32u0xx_ll_rtc.h ****   */
1132:Drivers/STM32U0xx_HAL_Driver/Inc/stm32u0xx_ll_rtc.h **** 
1133:Drivers/STM32U0xx_HAL_Driver/Inc/stm32u0xx_ll_rtc.h **** /** @defgroup RTC_LL_EF_Time Time
1134:Drivers/STM32U0xx_HAL_Driver/Inc/stm32u0xx_ll_rtc.h ****   * @{
1135:Drivers/STM32U0xx_HAL_Driver/Inc/stm32u0xx_ll_rtc.h ****   */
1136:Drivers/STM32U0xx_HAL_Driver/Inc/stm32u0xx_ll_rtc.h **** 
1137:Drivers/STM32U0xx_HAL_Driver/Inc/stm32u0xx_ll_rtc.h **** /**
1138:Drivers/STM32U0xx_HAL_Driver/Inc/stm32u0xx_ll_rtc.h ****   * @brief  Set time format (AM/24-hour or PM notation)
1139:Drivers/STM32U0xx_HAL_Driver/Inc/stm32u0xx_ll_rtc.h ****   * @note   Bit is write-protected. @ref LL_RTC_DisableWriteProtection function should be called be
1140:Drivers/STM32U0xx_HAL_Driver/Inc/stm32u0xx_ll_rtc.h ****   * @note   It can be written in initialization mode only (@ref LL_RTC_EnableInitMode function)
1141:Drivers/STM32U0xx_HAL_Driver/Inc/stm32u0xx_ll_rtc.h ****   * @rmtoll RTC_TR           PM            LL_RTC_TIME_SetFormat
1142:Drivers/STM32U0xx_HAL_Driver/Inc/stm32u0xx_ll_rtc.h ****   * @param  RTCx RTC Instance
1143:Drivers/STM32U0xx_HAL_Driver/Inc/stm32u0xx_ll_rtc.h ****   * @param  TimeFormat This parameter can be one of the following values:
1144:Drivers/STM32U0xx_HAL_Driver/Inc/stm32u0xx_ll_rtc.h ****   *         @arg @ref LL_RTC_TIME_FORMAT_AM_OR_24
1145:Drivers/STM32U0xx_HAL_Driver/Inc/stm32u0xx_ll_rtc.h ****   *         @arg @ref LL_RTC_TIME_FORMAT_PM
1146:Drivers/STM32U0xx_HAL_Driver/Inc/stm32u0xx_ll_rtc.h ****   * @retval None
1147:Drivers/STM32U0xx_HAL_Driver/Inc/stm32u0xx_ll_rtc.h ****   */
1148:Drivers/STM32U0xx_HAL_Driver/Inc/stm32u0xx_ll_rtc.h **** __STATIC_INLINE void LL_RTC_TIME_SetFormat(RTC_TypeDef *RTCx, uint32_t TimeFormat)
1149:Drivers/STM32U0xx_HAL_Driver/Inc/stm32u0xx_ll_rtc.h **** {
1150:Drivers/STM32U0xx_HAL_Driver/Inc/stm32u0xx_ll_rtc.h ****   MODIFY_REG(RTCx->TR, RTC_TR_PM, TimeFormat);
1151:Drivers/STM32U0xx_HAL_Driver/Inc/stm32u0xx_ll_rtc.h **** }
1152:Drivers/STM32U0xx_HAL_Driver/Inc/stm32u0xx_ll_rtc.h **** 
1153:Drivers/STM32U0xx_HAL_Driver/Inc/stm32u0xx_ll_rtc.h **** /**
1154:Drivers/STM32U0xx_HAL_Driver/Inc/stm32u0xx_ll_rtc.h ****   * @brief  Get time format (AM or PM notation)
1155:Drivers/STM32U0xx_HAL_Driver/Inc/stm32u0xx_ll_rtc.h ****   * @note if RTC shadow registers are not bypassed (BYPSHAD=0), need to check if RSF flag is set
1156:Drivers/STM32U0xx_HAL_Driver/Inc/stm32u0xx_ll_rtc.h ****   *       before reading this bit
ARM GAS  C:\Users\upo\AppData\Local\Temp\ccWo9sLk.s 			page 33


1157:Drivers/STM32U0xx_HAL_Driver/Inc/stm32u0xx_ll_rtc.h ****   * @note Read either RTC_SSR or RTC_TR locks the values in the higher-order calendar
1158:Drivers/STM32U0xx_HAL_Driver/Inc/stm32u0xx_ll_rtc.h ****   *       shadow registers until RTC_DR is read (LL_RTC_ReadReg(RTC, DR)).
1159:Drivers/STM32U0xx_HAL_Driver/Inc/stm32u0xx_ll_rtc.h ****   * @rmtoll RTC_TR           PM            LL_RTC_TIME_GetFormat
1160:Drivers/STM32U0xx_HAL_Driver/Inc/stm32u0xx_ll_rtc.h ****   * @param  RTCx RTC Instance
1161:Drivers/STM32U0xx_HAL_Driver/Inc/stm32u0xx_ll_rtc.h ****   * @retval Returned value can be one of the following values:
1162:Drivers/STM32U0xx_HAL_Driver/Inc/stm32u0xx_ll_rtc.h ****   *         @arg @ref LL_RTC_TIME_FORMAT_AM_OR_24
1163:Drivers/STM32U0xx_HAL_Driver/Inc/stm32u0xx_ll_rtc.h ****   *         @arg @ref LL_RTC_TIME_FORMAT_PM
1164:Drivers/STM32U0xx_HAL_Driver/Inc/stm32u0xx_ll_rtc.h ****   */
1165:Drivers/STM32U0xx_HAL_Driver/Inc/stm32u0xx_ll_rtc.h **** __STATIC_INLINE uint32_t LL_RTC_TIME_GetFormat(RTC_TypeDef *RTCx)
1166:Drivers/STM32U0xx_HAL_Driver/Inc/stm32u0xx_ll_rtc.h **** {
1167:Drivers/STM32U0xx_HAL_Driver/Inc/stm32u0xx_ll_rtc.h ****   return (uint32_t)(READ_BIT(RTCx->TR, RTC_TR_PM));
1168:Drivers/STM32U0xx_HAL_Driver/Inc/stm32u0xx_ll_rtc.h **** }
1169:Drivers/STM32U0xx_HAL_Driver/Inc/stm32u0xx_ll_rtc.h **** 
1170:Drivers/STM32U0xx_HAL_Driver/Inc/stm32u0xx_ll_rtc.h **** /**
1171:Drivers/STM32U0xx_HAL_Driver/Inc/stm32u0xx_ll_rtc.h ****   * @brief  Set Hours in BCD format
1172:Drivers/STM32U0xx_HAL_Driver/Inc/stm32u0xx_ll_rtc.h ****   * @note   Bit is write-protected. @ref LL_RTC_DisableWriteProtection function should be called be
1173:Drivers/STM32U0xx_HAL_Driver/Inc/stm32u0xx_ll_rtc.h ****   * @note   It can be written in initialization mode only (@ref LL_RTC_EnableInitMode function)
1174:Drivers/STM32U0xx_HAL_Driver/Inc/stm32u0xx_ll_rtc.h ****   * @note helper macro __LL_RTC_CONVERT_BIN2BCD is available to convert hour from binary to BCD for
1175:Drivers/STM32U0xx_HAL_Driver/Inc/stm32u0xx_ll_rtc.h ****   * @rmtoll RTC_TR           HT            LL_RTC_TIME_SetHour\n
1176:Drivers/STM32U0xx_HAL_Driver/Inc/stm32u0xx_ll_rtc.h ****   *         RTC_TR           HU            LL_RTC_TIME_SetHour
1177:Drivers/STM32U0xx_HAL_Driver/Inc/stm32u0xx_ll_rtc.h ****   * @param  RTCx RTC Instance
1178:Drivers/STM32U0xx_HAL_Driver/Inc/stm32u0xx_ll_rtc.h ****   * @param  Hours Value between Min_Data=0x01 and Max_Data=0x12 or between Min_Data=0x00 and Max_Da
1179:Drivers/STM32U0xx_HAL_Driver/Inc/stm32u0xx_ll_rtc.h ****   * @retval None
1180:Drivers/STM32U0xx_HAL_Driver/Inc/stm32u0xx_ll_rtc.h ****   */
1181:Drivers/STM32U0xx_HAL_Driver/Inc/stm32u0xx_ll_rtc.h **** __STATIC_INLINE void LL_RTC_TIME_SetHour(RTC_TypeDef *RTCx, uint32_t Hours)
1182:Drivers/STM32U0xx_HAL_Driver/Inc/stm32u0xx_ll_rtc.h **** {
1183:Drivers/STM32U0xx_HAL_Driver/Inc/stm32u0xx_ll_rtc.h ****   MODIFY_REG(RTCx->TR, (RTC_TR_HT | RTC_TR_HU),
1184:Drivers/STM32U0xx_HAL_Driver/Inc/stm32u0xx_ll_rtc.h ****              (((Hours & 0xF0U) << (RTC_TR_HT_Pos - 4U)) | ((Hours & 0x0FU) << RTC_TR_HU_Pos)));
1185:Drivers/STM32U0xx_HAL_Driver/Inc/stm32u0xx_ll_rtc.h **** }
1186:Drivers/STM32U0xx_HAL_Driver/Inc/stm32u0xx_ll_rtc.h **** 
1187:Drivers/STM32U0xx_HAL_Driver/Inc/stm32u0xx_ll_rtc.h **** /**
1188:Drivers/STM32U0xx_HAL_Driver/Inc/stm32u0xx_ll_rtc.h ****   * @brief  Get Hours in BCD format
1189:Drivers/STM32U0xx_HAL_Driver/Inc/stm32u0xx_ll_rtc.h ****   * @note if RTC shadow registers are not bypassed (BYPSHAD=0), need to check if RSF flag is set
1190:Drivers/STM32U0xx_HAL_Driver/Inc/stm32u0xx_ll_rtc.h ****   *       before reading this bit
1191:Drivers/STM32U0xx_HAL_Driver/Inc/stm32u0xx_ll_rtc.h ****   * @note Read either RTC_SSR or RTC_TR locks the values in the higher-order calendar
1192:Drivers/STM32U0xx_HAL_Driver/Inc/stm32u0xx_ll_rtc.h ****   *       shadow registers until RTC_DR is read (LL_RTC_ReadReg(RTC, DR)).
1193:Drivers/STM32U0xx_HAL_Driver/Inc/stm32u0xx_ll_rtc.h ****   * @note helper macro __LL_RTC_CONVERT_BCD2BIN is available to convert hour from BCD to
1194:Drivers/STM32U0xx_HAL_Driver/Inc/stm32u0xx_ll_rtc.h ****   *       Binary format
1195:Drivers/STM32U0xx_HAL_Driver/Inc/stm32u0xx_ll_rtc.h ****   * @rmtoll RTC_TR           HT            LL_RTC_TIME_GetHour\n
1196:Drivers/STM32U0xx_HAL_Driver/Inc/stm32u0xx_ll_rtc.h ****   *         RTC_TR           HU            LL_RTC_TIME_GetHour
1197:Drivers/STM32U0xx_HAL_Driver/Inc/stm32u0xx_ll_rtc.h ****   * @param  RTCx RTC Instance
1198:Drivers/STM32U0xx_HAL_Driver/Inc/stm32u0xx_ll_rtc.h ****   * @retval Value between Min_Data=0x01 and Max_Data=0x12 or between Min_Data=0x00 and Max_Data=0x2
1199:Drivers/STM32U0xx_HAL_Driver/Inc/stm32u0xx_ll_rtc.h ****   */
1200:Drivers/STM32U0xx_HAL_Driver/Inc/stm32u0xx_ll_rtc.h **** __STATIC_INLINE uint32_t LL_RTC_TIME_GetHour(RTC_TypeDef *RTCx)
 487              		.loc 2 1200 26 view .LVU75
 488              	.LBB27:
1201:Drivers/STM32U0xx_HAL_Driver/Inc/stm32u0xx_ll_rtc.h **** {
1202:Drivers/STM32U0xx_HAL_Driver/Inc/stm32u0xx_ll_rtc.h ****   register uint32_t temp = 0U;
 489              		.loc 2 1202 3 view .LVU76
1203:Drivers/STM32U0xx_HAL_Driver/Inc/stm32u0xx_ll_rtc.h **** 
1204:Drivers/STM32U0xx_HAL_Driver/Inc/stm32u0xx_ll_rtc.h ****   temp = READ_BIT(RTCx->TR, (RTC_TR_HT | RTC_TR_HU));
 490              		.loc 2 1204 3 view .LVU77
 491              	.LBE27:
 492              	.LBE26:
 150:User/e-Paper/paint_sensor.c **** 	/* Note: need to convert in decimal value in using __LL_RTC_CONVERT_BCD2BIN helper macro */
 493              		.loc 1 150 1 is_stmt 0 view .LVU78
 494 0000 F0B5     		push	{r4, r5, r6, r7, lr}
ARM GAS  C:\Users\upo\AppData\Local\Temp\ccWo9sLk.s 			page 34


 495              	.LCFI8:
 496              		.cfi_def_cfa_offset 20
 497              		.cfi_offset 4, -20
 498              		.cfi_offset 5, -16
 499              		.cfi_offset 6, -12
 500              		.cfi_offset 7, -8
 501              		.cfi_offset 14, -4
 502              	.LBB31:
 503              	.LBB32:
1205:Drivers/STM32U0xx_HAL_Driver/Inc/stm32u0xx_ll_rtc.h ****   return (uint32_t)((((temp & RTC_TR_HT) >> RTC_TR_HT_Pos) << 4U) | ((temp & RTC_TR_HU) >> RTC_TR_H
1206:Drivers/STM32U0xx_HAL_Driver/Inc/stm32u0xx_ll_rtc.h **** }
1207:Drivers/STM32U0xx_HAL_Driver/Inc/stm32u0xx_ll_rtc.h **** 
1208:Drivers/STM32U0xx_HAL_Driver/Inc/stm32u0xx_ll_rtc.h **** /**
1209:Drivers/STM32U0xx_HAL_Driver/Inc/stm32u0xx_ll_rtc.h ****   * @brief  Set Minutes in BCD format
1210:Drivers/STM32U0xx_HAL_Driver/Inc/stm32u0xx_ll_rtc.h ****   * @note   Bit is write-protected. @ref LL_RTC_DisableWriteProtection function should be called be
1211:Drivers/STM32U0xx_HAL_Driver/Inc/stm32u0xx_ll_rtc.h ****   * @note   It can be written in initialization mode only (@ref LL_RTC_EnableInitMode function)
1212:Drivers/STM32U0xx_HAL_Driver/Inc/stm32u0xx_ll_rtc.h ****   * @note helper macro __LL_RTC_CONVERT_BIN2BCD is available to convert Minutes from binary to BCD 
1213:Drivers/STM32U0xx_HAL_Driver/Inc/stm32u0xx_ll_rtc.h ****   * @rmtoll RTC_TR           MNT           LL_RTC_TIME_SetMinute\n
1214:Drivers/STM32U0xx_HAL_Driver/Inc/stm32u0xx_ll_rtc.h ****   *         RTC_TR           MNU           LL_RTC_TIME_SetMinute
1215:Drivers/STM32U0xx_HAL_Driver/Inc/stm32u0xx_ll_rtc.h ****   * @param  RTCx RTC Instance
1216:Drivers/STM32U0xx_HAL_Driver/Inc/stm32u0xx_ll_rtc.h ****   * @param  Minutes Value between Min_Data=0x00 and Max_Data=0x59
1217:Drivers/STM32U0xx_HAL_Driver/Inc/stm32u0xx_ll_rtc.h ****   * @retval None
1218:Drivers/STM32U0xx_HAL_Driver/Inc/stm32u0xx_ll_rtc.h ****   */
1219:Drivers/STM32U0xx_HAL_Driver/Inc/stm32u0xx_ll_rtc.h **** __STATIC_INLINE void LL_RTC_TIME_SetMinute(RTC_TypeDef *RTCx, uint32_t Minutes)
1220:Drivers/STM32U0xx_HAL_Driver/Inc/stm32u0xx_ll_rtc.h **** {
1221:Drivers/STM32U0xx_HAL_Driver/Inc/stm32u0xx_ll_rtc.h ****   MODIFY_REG(RTCx->TR, (RTC_TR_MNT | RTC_TR_MNU),
1222:Drivers/STM32U0xx_HAL_Driver/Inc/stm32u0xx_ll_rtc.h ****              (((Minutes & 0xF0U) << (RTC_TR_MNT_Pos - 4U)) | ((Minutes & 0x0FU) << RTC_TR_MNU_Pos))
1223:Drivers/STM32U0xx_HAL_Driver/Inc/stm32u0xx_ll_rtc.h **** }
1224:Drivers/STM32U0xx_HAL_Driver/Inc/stm32u0xx_ll_rtc.h **** 
1225:Drivers/STM32U0xx_HAL_Driver/Inc/stm32u0xx_ll_rtc.h **** /**
1226:Drivers/STM32U0xx_HAL_Driver/Inc/stm32u0xx_ll_rtc.h ****   * @brief  Get Minutes in BCD format
1227:Drivers/STM32U0xx_HAL_Driver/Inc/stm32u0xx_ll_rtc.h ****   * @note if RTC shadow registers are not bypassed (BYPSHAD=0), need to check if RSF flag is set
1228:Drivers/STM32U0xx_HAL_Driver/Inc/stm32u0xx_ll_rtc.h ****   *       before reading this bit
1229:Drivers/STM32U0xx_HAL_Driver/Inc/stm32u0xx_ll_rtc.h ****   * @note Read either RTC_SSR or RTC_TR locks the values in the higher-order calendar
1230:Drivers/STM32U0xx_HAL_Driver/Inc/stm32u0xx_ll_rtc.h ****   *       shadow registers until RTC_DR is read (LL_RTC_ReadReg(RTC, DR)).
1231:Drivers/STM32U0xx_HAL_Driver/Inc/stm32u0xx_ll_rtc.h ****   * @note helper macro __LL_RTC_CONVERT_BCD2BIN is available to convert minute from BCD
1232:Drivers/STM32U0xx_HAL_Driver/Inc/stm32u0xx_ll_rtc.h ****   *       to Binary format
1233:Drivers/STM32U0xx_HAL_Driver/Inc/stm32u0xx_ll_rtc.h ****   * @rmtoll RTC_TR           MNT           LL_RTC_TIME_GetMinute\n
1234:Drivers/STM32U0xx_HAL_Driver/Inc/stm32u0xx_ll_rtc.h ****   *         RTC_TR           MNU           LL_RTC_TIME_GetMinute
1235:Drivers/STM32U0xx_HAL_Driver/Inc/stm32u0xx_ll_rtc.h ****   * @param  RTCx RTC Instance
1236:Drivers/STM32U0xx_HAL_Driver/Inc/stm32u0xx_ll_rtc.h ****   * @retval Value between Min_Data=0x00 and Max_Data=0x59
1237:Drivers/STM32U0xx_HAL_Driver/Inc/stm32u0xx_ll_rtc.h ****   */
1238:Drivers/STM32U0xx_HAL_Driver/Inc/stm32u0xx_ll_rtc.h **** __STATIC_INLINE uint32_t LL_RTC_TIME_GetMinute(RTC_TypeDef *RTCx)
1239:Drivers/STM32U0xx_HAL_Driver/Inc/stm32u0xx_ll_rtc.h **** {
1240:Drivers/STM32U0xx_HAL_Driver/Inc/stm32u0xx_ll_rtc.h ****   register uint32_t temp = 0U;
1241:Drivers/STM32U0xx_HAL_Driver/Inc/stm32u0xx_ll_rtc.h **** 
1242:Drivers/STM32U0xx_HAL_Driver/Inc/stm32u0xx_ll_rtc.h ****   temp = READ_BIT(RTCx->TR, (RTC_TR_MNT | RTC_TR_MNU));
1243:Drivers/STM32U0xx_HAL_Driver/Inc/stm32u0xx_ll_rtc.h ****   return (uint32_t)((((temp & RTC_TR_MNT) >> RTC_TR_MNT_Pos) << 4U) | ((temp & RTC_TR_MNU) >> RTC_T
 504              		.loc 2 1243 92 view .LVU79
 505 0002 0F25     		movs	r5, #15
 506              	.LBE32:
 507              	.LBE31:
 508              	.LBB36:
 509              	.LBB28:
1204:Drivers/STM32U0xx_HAL_Driver/Inc/stm32u0xx_ll_rtc.h ****   return (uint32_t)((((temp & RTC_TR_HT) >> RTC_TR_HT_Pos) << 4U) | ((temp & RTC_TR_HU) >> RTC_TR_H
 510              		.loc 2 1204 8 view .LVU80
 511 0004 FC23     		movs	r3, #252
ARM GAS  C:\Users\upo\AppData\Local\Temp\ccWo9sLk.s 			page 35


 512              	.LBE28:
 513              	.LBE36:
 514              	.LBB37:
 515              	.LBB33:
1242:Drivers/STM32U0xx_HAL_Driver/Inc/stm32u0xx_ll_rtc.h ****   return (uint32_t)((((temp & RTC_TR_MNT) >> RTC_TR_MNT_Pos) << 4U) | ((temp & RTC_TR_MNU) >> RTC_T
 516              		.loc 2 1242 8 view .LVU81
 517 0006 FE24     		movs	r4, #254
 518              	.LBE33:
 519              	.LBE37:
 150:User/e-Paper/paint_sensor.c **** 	/* Note: need to convert in decimal value in using __LL_RTC_CONVERT_BCD2BIN helper macro */
 520              		.loc 1 150 1 view .LVU82
 521 0008 C646     		mov	lr, r8
 522              	.LBB38:
 523              	.LBB34:
 524              		.loc 2 1243 92 view .LVU83
 525 000a A846     		mov	r8, r5
 526              	.LBE34:
 527              	.LBE38:
 528              	.LBB39:
 529              	.LBB29:
1204:Drivers/STM32U0xx_HAL_Driver/Inc/stm32u0xx_ll_rtc.h ****   return (uint32_t)((((temp & RTC_TR_HT) >> RTC_TR_HT_Pos) << 4U) | ((temp & RTC_TR_HU) >> RTC_TR_H
 530              		.loc 2 1204 10 view .LVU84
 531 000c 3F4E     		ldr	r6, .L18
1204:Drivers/STM32U0xx_HAL_Driver/Inc/stm32u0xx_ll_rtc.h ****   return (uint32_t)((((temp & RTC_TR_HT) >> RTC_TR_HT_Pos) << 4U) | ((temp & RTC_TR_HU) >> RTC_TR_H
 532              		.loc 2 1204 8 view .LVU85
 533 000e 9B03     		lsls	r3, r3, #14
1204:Drivers/STM32U0xx_HAL_Driver/Inc/stm32u0xx_ll_rtc.h ****   return (uint32_t)((((temp & RTC_TR_HT) >> RTC_TR_HT_Pos) << 4U) | ((temp & RTC_TR_HU) >> RTC_TR_H
 534              		.loc 2 1204 10 view .LVU86
 535 0010 3268     		ldr	r2, [r6]
 536              	.LBE29:
 537              	.LBE39:
 538              	.LBB40:
 539              	.LBB41:
 540 0012 3068     		ldr	r0, [r6]
 541              	.LBE41:
 542              	.LBE40:
 543              	.LBB45:
 544              	.LBB30:
1204:Drivers/STM32U0xx_HAL_Driver/Inc/stm32u0xx_ll_rtc.h ****   return (uint32_t)((((temp & RTC_TR_HT) >> RTC_TR_HT_Pos) << 4U) | ((temp & RTC_TR_HU) >> RTC_TR_H
 545              		.loc 2 1204 8 view .LVU87
 546 0014 1A40     		ands	r2, r3
 547              	.LVL38:
1205:Drivers/STM32U0xx_HAL_Driver/Inc/stm32u0xx_ll_rtc.h **** }
 548              		.loc 2 1205 3 is_stmt 1 view .LVU88
1205:Drivers/STM32U0xx_HAL_Driver/Inc/stm32u0xx_ll_rtc.h **** }
 549              		.loc 2 1205 3 is_stmt 0 view .LVU89
 550              	.LBE30:
 551              	.LBE45:
 552              	.LBB46:
 553              	.LBI40:
1200:Drivers/STM32U0xx_HAL_Driver/Inc/stm32u0xx_ll_rtc.h **** {
 554              		.loc 2 1200 26 is_stmt 1 view .LVU90
 555              	.LBB42:
1202:Drivers/STM32U0xx_HAL_Driver/Inc/stm32u0xx_ll_rtc.h **** 
 556              		.loc 2 1202 3 view .LVU91
1204:Drivers/STM32U0xx_HAL_Driver/Inc/stm32u0xx_ll_rtc.h ****   return (uint32_t)((((temp & RTC_TR_HT) >> RTC_TR_HT_Pos) << 4U) | ((temp & RTC_TR_HU) >> RTC_TR_H
 557              		.loc 2 1204 3 view .LVU92
ARM GAS  C:\Users\upo\AppData\Local\Temp\ccWo9sLk.s 			page 36


1204:Drivers/STM32U0xx_HAL_Driver/Inc/stm32u0xx_ll_rtc.h ****   return (uint32_t)((((temp & RTC_TR_HT) >> RTC_TR_HT_Pos) << 4U) | ((temp & RTC_TR_HU) >> RTC_TR_H
 558              		.loc 2 1204 8 is_stmt 0 view .LVU93
 559 0016 1840     		ands	r0, r3
 560              	.LVL39:
1205:Drivers/STM32U0xx_HAL_Driver/Inc/stm32u0xx_ll_rtc.h **** }
 561              		.loc 2 1205 3 is_stmt 1 view .LVU94
1205:Drivers/STM32U0xx_HAL_Driver/Inc/stm32u0xx_ll_rtc.h **** }
 562              		.loc 2 1205 3 is_stmt 0 view .LVU95
 563              	.LBE42:
 564              	.LBE46:
 565              	.LBB47:
 566              	.LBI31:
1238:Drivers/STM32U0xx_HAL_Driver/Inc/stm32u0xx_ll_rtc.h **** {
 567              		.loc 2 1238 26 is_stmt 1 view .LVU96
 568              	.LBB35:
1240:Drivers/STM32U0xx_HAL_Driver/Inc/stm32u0xx_ll_rtc.h **** 
 569              		.loc 2 1240 3 view .LVU97
1242:Drivers/STM32U0xx_HAL_Driver/Inc/stm32u0xx_ll_rtc.h ****   return (uint32_t)((((temp & RTC_TR_MNT) >> RTC_TR_MNT_Pos) << 4U) | ((temp & RTC_TR_MNU) >> RTC_T
 570              		.loc 2 1242 3 view .LVU98
1242:Drivers/STM32U0xx_HAL_Driver/Inc/stm32u0xx_ll_rtc.h ****   return (uint32_t)((((temp & RTC_TR_MNT) >> RTC_TR_MNT_Pos) << 4U) | ((temp & RTC_TR_MNU) >> RTC_T
 571              		.loc 2 1242 10 is_stmt 0 view .LVU99
 572 0018 3368     		ldr	r3, [r6]
1242:Drivers/STM32U0xx_HAL_Driver/Inc/stm32u0xx_ll_rtc.h ****   return (uint32_t)((((temp & RTC_TR_MNT) >> RTC_TR_MNT_Pos) << 4U) | ((temp & RTC_TR_MNU) >> RTC_T
 573              		.loc 2 1242 8 view .LVU100
 574 001a E401     		lsls	r4, r4, #7
 575 001c 2340     		ands	r3, r4
 576              	.LVL40:
 577              		.loc 2 1243 3 is_stmt 1 view .LVU101
 578              		.loc 2 1243 3 is_stmt 0 view .LVU102
 579              	.LBE35:
 580              	.LBE47:
 581              	.LBB48:
 582              	.LBI48:
1238:Drivers/STM32U0xx_HAL_Driver/Inc/stm32u0xx_ll_rtc.h **** {
 583              		.loc 2 1238 26 is_stmt 1 view .LVU103
 584              	.LBB49:
1240:Drivers/STM32U0xx_HAL_Driver/Inc/stm32u0xx_ll_rtc.h **** 
 585              		.loc 2 1240 3 view .LVU104
1242:Drivers/STM32U0xx_HAL_Driver/Inc/stm32u0xx_ll_rtc.h ****   return (uint32_t)((((temp & RTC_TR_MNT) >> RTC_TR_MNT_Pos) << 4U) | ((temp & RTC_TR_MNU) >> RTC_T
 586              		.loc 2 1242 3 view .LVU105
 587              	.LBE49:
 588              	.LBE48:
 154:User/e-Paper/paint_sensor.c **** 			__LL_RTC_CONVERT_BCD2BIN(LL_RTC_TIME_GetMinute(RTC)),
 589              		.loc 1 154 4 is_stmt 0 view .LVU106
 590 001e 1B0B     		lsrs	r3, r3, #12
 591 0020 9D00     		lsls	r5, r3, #2
 592 0022 AC46     		mov	ip, r5
 593              	.LBB53:
 594              	.LBB50:
 595              		.loc 2 1243 92 view .LVU107
 596 0024 4546     		mov	r5, r8
1242:Drivers/STM32U0xx_HAL_Driver/Inc/stm32u0xx_ll_rtc.h ****   return (uint32_t)((((temp & RTC_TR_MNT) >> RTC_TR_MNT_Pos) << 4U) | ((temp & RTC_TR_MNU) >> RTC_T
 597              		.loc 2 1242 10 view .LVU108
 598 0026 3168     		ldr	r1, [r6]
 599              	.LBE50:
 600              	.LBE53:
 601              		.loc 1 154 4 view .LVU109
ARM GAS  C:\Users\upo\AppData\Local\Temp\ccWo9sLk.s 			page 37


 602 0028 6344     		add	r3, r3, ip
 603              	.LBB54:
 604              	.LBB51:
1242:Drivers/STM32U0xx_HAL_Driver/Inc/stm32u0xx_ll_rtc.h ****   return (uint32_t)((((temp & RTC_TR_MNT) >> RTC_TR_MNT_Pos) << 4U) | ((temp & RTC_TR_MNU) >> RTC_T
 605              		.loc 2 1242 8 view .LVU110
 606 002a 2140     		ands	r1, r4
 607              	.LVL41:
 608              		.loc 2 1243 3 is_stmt 1 view .LVU111
 609              		.loc 2 1243 3 is_stmt 0 view .LVU112
 610              	.LBE51:
 611              	.LBE54:
 612              	.LBB55:
 613              	.LBI55:
1244:Drivers/STM32U0xx_HAL_Driver/Inc/stm32u0xx_ll_rtc.h **** }
1245:Drivers/STM32U0xx_HAL_Driver/Inc/stm32u0xx_ll_rtc.h **** 
1246:Drivers/STM32U0xx_HAL_Driver/Inc/stm32u0xx_ll_rtc.h **** /**
1247:Drivers/STM32U0xx_HAL_Driver/Inc/stm32u0xx_ll_rtc.h ****   * @brief  Set Seconds in BCD format
1248:Drivers/STM32U0xx_HAL_Driver/Inc/stm32u0xx_ll_rtc.h ****   * @note   Bit is write-protected. @ref LL_RTC_DisableWriteProtection function should be called be
1249:Drivers/STM32U0xx_HAL_Driver/Inc/stm32u0xx_ll_rtc.h ****   * @note   It can be written in initialization mode only (@ref LL_RTC_EnableInitMode function)
1250:Drivers/STM32U0xx_HAL_Driver/Inc/stm32u0xx_ll_rtc.h ****   * @note helper macro __LL_RTC_CONVERT_BIN2BCD is available to convert Seconds from binary to BCD 
1251:Drivers/STM32U0xx_HAL_Driver/Inc/stm32u0xx_ll_rtc.h ****   * @rmtoll RTC_TR           ST            LL_RTC_TIME_SetSecond\n
1252:Drivers/STM32U0xx_HAL_Driver/Inc/stm32u0xx_ll_rtc.h ****   *         RTC_TR           SU            LL_RTC_TIME_SetSecond
1253:Drivers/STM32U0xx_HAL_Driver/Inc/stm32u0xx_ll_rtc.h ****   * @param  RTCx RTC Instance
1254:Drivers/STM32U0xx_HAL_Driver/Inc/stm32u0xx_ll_rtc.h ****   * @param  Seconds Value between Min_Data=0x00 and Max_Data=0x59
1255:Drivers/STM32U0xx_HAL_Driver/Inc/stm32u0xx_ll_rtc.h ****   * @retval None
1256:Drivers/STM32U0xx_HAL_Driver/Inc/stm32u0xx_ll_rtc.h ****   */
1257:Drivers/STM32U0xx_HAL_Driver/Inc/stm32u0xx_ll_rtc.h **** __STATIC_INLINE void LL_RTC_TIME_SetSecond(RTC_TypeDef *RTCx, uint32_t Seconds)
1258:Drivers/STM32U0xx_HAL_Driver/Inc/stm32u0xx_ll_rtc.h **** {
1259:Drivers/STM32U0xx_HAL_Driver/Inc/stm32u0xx_ll_rtc.h ****   MODIFY_REG(RTCx->TR, (RTC_TR_ST | RTC_TR_SU),
1260:Drivers/STM32U0xx_HAL_Driver/Inc/stm32u0xx_ll_rtc.h ****              (((Seconds & 0xF0U) << (RTC_TR_ST_Pos - 4U)) | ((Seconds & 0x0FU) << RTC_TR_SU_Pos)));
1261:Drivers/STM32U0xx_HAL_Driver/Inc/stm32u0xx_ll_rtc.h **** }
1262:Drivers/STM32U0xx_HAL_Driver/Inc/stm32u0xx_ll_rtc.h **** 
1263:Drivers/STM32U0xx_HAL_Driver/Inc/stm32u0xx_ll_rtc.h **** /**
1264:Drivers/STM32U0xx_HAL_Driver/Inc/stm32u0xx_ll_rtc.h ****   * @brief  Get Seconds in BCD format
1265:Drivers/STM32U0xx_HAL_Driver/Inc/stm32u0xx_ll_rtc.h ****   * @note if RTC shadow registers are not bypassed (BYPSHAD=0), need to check if RSF flag is set
1266:Drivers/STM32U0xx_HAL_Driver/Inc/stm32u0xx_ll_rtc.h ****   *       before reading this bit
1267:Drivers/STM32U0xx_HAL_Driver/Inc/stm32u0xx_ll_rtc.h ****   * @note Read either RTC_SSR or RTC_TR locks the values in the higher-order calendar
1268:Drivers/STM32U0xx_HAL_Driver/Inc/stm32u0xx_ll_rtc.h ****   *       shadow registers until RTC_DR is read (LL_RTC_ReadReg(RTC, DR)).
1269:Drivers/STM32U0xx_HAL_Driver/Inc/stm32u0xx_ll_rtc.h ****   * @note helper macro __LL_RTC_CONVERT_BCD2BIN is available to convert Seconds from BCD
1270:Drivers/STM32U0xx_HAL_Driver/Inc/stm32u0xx_ll_rtc.h ****   *       to Binary format
1271:Drivers/STM32U0xx_HAL_Driver/Inc/stm32u0xx_ll_rtc.h ****   * @rmtoll RTC_TR           ST            LL_RTC_TIME_GetSecond\n
1272:Drivers/STM32U0xx_HAL_Driver/Inc/stm32u0xx_ll_rtc.h ****   *         RTC_TR           SU            LL_RTC_TIME_GetSecond
1273:Drivers/STM32U0xx_HAL_Driver/Inc/stm32u0xx_ll_rtc.h ****   * @param  RTCx RTC Instance
1274:Drivers/STM32U0xx_HAL_Driver/Inc/stm32u0xx_ll_rtc.h ****   * @retval Value between Min_Data=0x00 and Max_Data=0x59
1275:Drivers/STM32U0xx_HAL_Driver/Inc/stm32u0xx_ll_rtc.h ****   */
1276:Drivers/STM32U0xx_HAL_Driver/Inc/stm32u0xx_ll_rtc.h **** __STATIC_INLINE uint32_t LL_RTC_TIME_GetSecond(RTC_TypeDef *RTCx)
 614              		.loc 2 1276 26 is_stmt 1 view .LVU113
 615              	.LBB56:
1277:Drivers/STM32U0xx_HAL_Driver/Inc/stm32u0xx_ll_rtc.h **** {
1278:Drivers/STM32U0xx_HAL_Driver/Inc/stm32u0xx_ll_rtc.h ****   register uint32_t temp = 0U;
 616              		.loc 2 1278 3 view .LVU114
1279:Drivers/STM32U0xx_HAL_Driver/Inc/stm32u0xx_ll_rtc.h **** 
1280:Drivers/STM32U0xx_HAL_Driver/Inc/stm32u0xx_ll_rtc.h ****   temp = READ_BIT(RTCx->TR, (RTC_TR_ST | RTC_TR_SU));
 617              		.loc 2 1280 3 view .LVU115
 618              	.LBE56:
 619              	.LBE55:
 620              		.loc 1 154 4 is_stmt 0 view .LVU116
ARM GAS  C:\Users\upo\AppData\Local\Temp\ccWo9sLk.s 			page 38


 621 002c 5B00     		lsls	r3, r3, #1
 622 002e 9C46     		mov	ip, r3
 623              	.LBB58:
 624              	.LBB52:
1243:Drivers/STM32U0xx_HAL_Driver/Inc/stm32u0xx_ll_rtc.h **** }
 625              		.loc 2 1243 43 view .LVU117
 626 0030 0B0B     		lsrs	r3, r1, #12
1243:Drivers/STM32U0xx_HAL_Driver/Inc/stm32u0xx_ll_rtc.h **** }
 627              		.loc 2 1243 92 view .LVU118
 628 0032 090A     		lsrs	r1, r1, #8
1243:Drivers/STM32U0xx_HAL_Driver/Inc/stm32u0xx_ll_rtc.h **** }
 629              		.loc 2 1243 62 view .LVU119
 630 0034 1B01     		lsls	r3, r3, #4
1243:Drivers/STM32U0xx_HAL_Driver/Inc/stm32u0xx_ll_rtc.h **** }
 631              		.loc 2 1243 92 view .LVU120
 632 0036 2940     		ands	r1, r5
1243:Drivers/STM32U0xx_HAL_Driver/Inc/stm32u0xx_ll_rtc.h **** }
 633              		.loc 2 1243 10 view .LVU121
 634 0038 1943     		orrs	r1, r3
 635              	.LBE52:
 636              	.LBE58:
 637              		.loc 1 154 4 view .LVU122
 638 003a 2940     		ands	r1, r5
 153:User/e-Paper/paint_sensor.c **** 			__LL_RTC_CONVERT_BCD2BIN(LL_RTC_TIME_GetMinute(RTC)),
 639              		.loc 1 153 2 view .LVU123
 640 003c 0B00     		movs	r3, r1
 153:User/e-Paper/paint_sensor.c **** 			__LL_RTC_CONVERT_BCD2BIN(LL_RTC_TIME_GetMinute(RTC)),
 641              		.loc 1 153 46 view .LVU124
 642 003e 120D     		lsrs	r2, r2, #20
 643              	.LBB59:
 644              	.LBB57:
 645              		.loc 2 1280 10 view .LVU125
 646 0040 3468     		ldr	r4, [r6]
 647              	.LVL42:
1281:Drivers/STM32U0xx_HAL_Driver/Inc/stm32u0xx_ll_rtc.h ****   return (uint32_t)((((temp & RTC_TR_ST) >> RTC_TR_ST_Pos) << 4U) | ((temp & RTC_TR_SU) >> RTC_TR_S
 648              		.loc 2 1281 3 is_stmt 1 view .LVU126
 649              		.loc 2 1281 3 is_stmt 0 view .LVU127
 650              	.LBE57:
 651              	.LBE59:
 652              	.LBB60:
 653              	.LBI60:
1276:Drivers/STM32U0xx_HAL_Driver/Inc/stm32u0xx_ll_rtc.h **** {
 654              		.loc 2 1276 26 is_stmt 1 view .LVU128
 655              	.LBB61:
1278:Drivers/STM32U0xx_HAL_Driver/Inc/stm32u0xx_ll_rtc.h **** 
 656              		.loc 2 1278 3 view .LVU129
1280:Drivers/STM32U0xx_HAL_Driver/Inc/stm32u0xx_ll_rtc.h ****   return (uint32_t)((((temp & RTC_TR_ST) >> RTC_TR_ST_Pos) << 4U) | ((temp & RTC_TR_SU) >> RTC_TR_S
 657              		.loc 2 1280 3 view .LVU130
 658              	.LBE61:
 659              	.LBE60:
 153:User/e-Paper/paint_sensor.c **** 			__LL_RTC_CONVERT_BCD2BIN(LL_RTC_TIME_GetMinute(RTC)),
 660              		.loc 1 153 46 is_stmt 0 view .LVU131
 661 0042 9100     		lsls	r1, r2, #2
 662 0044 5218     		adds	r2, r2, r1
 663              	.LBB63:
 664              	.LBB43:
1205:Drivers/STM32U0xx_HAL_Driver/Inc/stm32u0xx_ll_rtc.h **** }
ARM GAS  C:\Users\upo\AppData\Local\Temp\ccWo9sLk.s 			page 39


 665              		.loc 2 1205 42 view .LVU132
 666 0046 010D     		lsrs	r1, r0, #20
1205:Drivers/STM32U0xx_HAL_Driver/Inc/stm32u0xx_ll_rtc.h **** }
 667              		.loc 2 1205 89 view .LVU133
 668 0048 000C     		lsrs	r0, r0, #16
1205:Drivers/STM32U0xx_HAL_Driver/Inc/stm32u0xx_ll_rtc.h **** }
 669              		.loc 2 1205 60 view .LVU134
 670 004a 0901     		lsls	r1, r1, #4
1205:Drivers/STM32U0xx_HAL_Driver/Inc/stm32u0xx_ll_rtc.h **** }
 671              		.loc 2 1205 89 view .LVU135
 672 004c 2840     		ands	r0, r5
 673              	.LBE43:
 674              	.LBE63:
 155:User/e-Paper/paint_sensor.c **** 			__LL_RTC_CONVERT_BCD2BIN(LL_RTC_TIME_GetSecond(RTC)));
 675              		.loc 1 155 4 view .LVU136
 676 004e 6406     		lsls	r4, r4, #25
 677              	.LBB64:
 678              	.LBB44:
1205:Drivers/STM32U0xx_HAL_Driver/Inc/stm32u0xx_ll_rtc.h **** }
 679              		.loc 2 1205 10 view .LVU137
 680 0050 0843     		orrs	r0, r1
 681              	.LBE44:
 682              	.LBE64:
 683              		.loc 1 155 4 view .LVU138
 684 0052 640F     		lsrs	r4, r4, #29
 153:User/e-Paper/paint_sensor.c **** 			__LL_RTC_CONVERT_BCD2BIN(LL_RTC_TIME_GetMinute(RTC)),
 685              		.loc 1 153 46 view .LVU139
 686 0054 2840     		ands	r0, r5
 687              		.loc 1 155 4 view .LVU140
 688 0056 A500     		lsls	r5, r4, #2
 153:User/e-Paper/paint_sensor.c **** 			__LL_RTC_CONVERT_BCD2BIN(LL_RTC_TIME_GetMinute(RTC)),
 689              		.loc 1 153 2 view .LVU141
 690 0058 6344     		add	r3, r3, ip
 691              		.loc 1 155 4 view .LVU142
 692 005a AC46     		mov	ip, r5
 693 005c 4546     		mov	r5, r8
 150:User/e-Paper/paint_sensor.c **** 	/* Note: need to convert in decimal value in using __LL_RTC_CONVERT_BCD2BIN helper macro */
 694              		.loc 1 150 1 view .LVU143
 695 005e 00B5     		push	{lr}
 696              	.LCFI9:
 697              		.cfi_def_cfa_offset 24
 698              		.cfi_offset 8, -24
 699              	.LBB65:
 700              	.LBB62:
1280:Drivers/STM32U0xx_HAL_Driver/Inc/stm32u0xx_ll_rtc.h ****   return (uint32_t)((((temp & RTC_TR_ST) >> RTC_TR_ST_Pos) << 4U) | ((temp & RTC_TR_SU) >> RTC_TR_S
 701              		.loc 2 1280 10 view .LVU144
 702 0060 3768     		ldr	r7, [r6]
 703              	.LVL43:
 704              		.loc 2 1281 3 is_stmt 1 view .LVU145
 705              		.loc 2 1281 3 is_stmt 0 view .LVU146
 706              	.LBE62:
 707              	.LBE65:
 708              		.loc 1 155 4 view .LVU147
 709 0062 6444     		add	r4, r4, ip
 710 0064 2F40     		ands	r7, r5
 711 0066 6400     		lsls	r4, r4, #1
 712 0068 E419     		adds	r4, r4, r7
ARM GAS  C:\Users\upo\AppData\Local\Temp\ccWo9sLk.s 			page 40


 153:User/e-Paper/paint_sensor.c **** 			__LL_RTC_CONVERT_BCD2BIN(LL_RTC_TIME_GetMinute(RTC)),
 713              		.loc 1 153 46 view .LVU148
 714 006a 5200     		lsls	r2, r2, #1
 150:User/e-Paper/paint_sensor.c **** 	/* Note: need to convert in decimal value in using __LL_RTC_CONVERT_BCD2BIN helper macro */
 715              		.loc 1 150 1 view .LVU149
 716 006c 82B0     		sub	sp, sp, #8
 717              	.LCFI10:
 718              		.cfi_def_cfa_offset 32
 153:User/e-Paper/paint_sensor.c **** 			__LL_RTC_CONVERT_BCD2BIN(LL_RTC_TIME_GetMinute(RTC)),
 719              		.loc 1 153 2 view .LVU150
 720 006e 1218     		adds	r2, r2, r0
 721 0070 E4B2     		uxtb	r4, r4
 722 0072 2748     		ldr	r0, .L18+4
 723 0074 0094     		str	r4, [sp]
 724 0076 2749     		ldr	r1, .L18+8
 725 0078 0700     		movs	r7, r0
 726 007a FFF7FEFF 		bl	sprintf_
 727              	.LVL44:
 156:User/e-Paper/paint_sensor.c **** 
 157:User/e-Paper/paint_sensor.c **** 	/* Display date Format : mm-dd-yy */
 158:User/e-Paper/paint_sensor.c **** 	sprintf((char *)aEndDate, "%.2d-%.2d-%.2d", __LL_RTC_CONVERT_BCD2BIN(LL_RTC_DATE_GetMonth(RTC)),
 728              		.loc 1 158 2 is_stmt 1 view .LVU151
 729              	.LBB66:
 730              	.LBI66:
1282:Drivers/STM32U0xx_HAL_Driver/Inc/stm32u0xx_ll_rtc.h **** }
1283:Drivers/STM32U0xx_HAL_Driver/Inc/stm32u0xx_ll_rtc.h **** 
1284:Drivers/STM32U0xx_HAL_Driver/Inc/stm32u0xx_ll_rtc.h **** /**
1285:Drivers/STM32U0xx_HAL_Driver/Inc/stm32u0xx_ll_rtc.h ****   * @brief  Set time (hour, minute and second) in BCD format
1286:Drivers/STM32U0xx_HAL_Driver/Inc/stm32u0xx_ll_rtc.h ****   * @note   Bit is write-protected. @ref LL_RTC_DisableWriteProtection function should be called be
1287:Drivers/STM32U0xx_HAL_Driver/Inc/stm32u0xx_ll_rtc.h ****   * @note   It can be written in initialization mode only (@ref LL_RTC_EnableInitMode function)
1288:Drivers/STM32U0xx_HAL_Driver/Inc/stm32u0xx_ll_rtc.h ****   * @note TimeFormat and Hours should follow the same format
1289:Drivers/STM32U0xx_HAL_Driver/Inc/stm32u0xx_ll_rtc.h ****   * @rmtoll RTC_TR           PM            LL_RTC_TIME_Config\n
1290:Drivers/STM32U0xx_HAL_Driver/Inc/stm32u0xx_ll_rtc.h ****   *         RTC_TR           HT            LL_RTC_TIME_Config\n
1291:Drivers/STM32U0xx_HAL_Driver/Inc/stm32u0xx_ll_rtc.h ****   *         RTC_TR           HU            LL_RTC_TIME_Config\n
1292:Drivers/STM32U0xx_HAL_Driver/Inc/stm32u0xx_ll_rtc.h ****   *         RTC_TR           MNT           LL_RTC_TIME_Config\n
1293:Drivers/STM32U0xx_HAL_Driver/Inc/stm32u0xx_ll_rtc.h ****   *         RTC_TR           MNU           LL_RTC_TIME_Config\n
1294:Drivers/STM32U0xx_HAL_Driver/Inc/stm32u0xx_ll_rtc.h ****   *         RTC_TR           ST            LL_RTC_TIME_Config\n
1295:Drivers/STM32U0xx_HAL_Driver/Inc/stm32u0xx_ll_rtc.h ****   *         RTC_TR           SU            LL_RTC_TIME_Config
1296:Drivers/STM32U0xx_HAL_Driver/Inc/stm32u0xx_ll_rtc.h ****   * @param  RTCx RTC Instance
1297:Drivers/STM32U0xx_HAL_Driver/Inc/stm32u0xx_ll_rtc.h ****   * @param  Format12_24 This parameter can be one of the following values:
1298:Drivers/STM32U0xx_HAL_Driver/Inc/stm32u0xx_ll_rtc.h ****   *         @arg @ref LL_RTC_TIME_FORMAT_AM_OR_24
1299:Drivers/STM32U0xx_HAL_Driver/Inc/stm32u0xx_ll_rtc.h ****   *         @arg @ref LL_RTC_TIME_FORMAT_PM
1300:Drivers/STM32U0xx_HAL_Driver/Inc/stm32u0xx_ll_rtc.h ****   * @param  Hours Value between Min_Data=0x01 and Max_Data=0x12 or between Min_Data=0x00 and Max_Da
1301:Drivers/STM32U0xx_HAL_Driver/Inc/stm32u0xx_ll_rtc.h ****   * @param  Minutes Value between Min_Data=0x00 and Max_Data=0x59
1302:Drivers/STM32U0xx_HAL_Driver/Inc/stm32u0xx_ll_rtc.h ****   * @param  Seconds Value between Min_Data=0x00 and Max_Data=0x59
1303:Drivers/STM32U0xx_HAL_Driver/Inc/stm32u0xx_ll_rtc.h ****   * @retval None
1304:Drivers/STM32U0xx_HAL_Driver/Inc/stm32u0xx_ll_rtc.h ****   */
1305:Drivers/STM32U0xx_HAL_Driver/Inc/stm32u0xx_ll_rtc.h **** __STATIC_INLINE void LL_RTC_TIME_Config(RTC_TypeDef *RTCx, uint32_t Format12_24, uint32_t Hours, ui
1306:Drivers/STM32U0xx_HAL_Driver/Inc/stm32u0xx_ll_rtc.h ****                                         uint32_t Seconds)
1307:Drivers/STM32U0xx_HAL_Driver/Inc/stm32u0xx_ll_rtc.h **** {
1308:Drivers/STM32U0xx_HAL_Driver/Inc/stm32u0xx_ll_rtc.h ****   register uint32_t temp = 0U;
1309:Drivers/STM32U0xx_HAL_Driver/Inc/stm32u0xx_ll_rtc.h **** 
1310:Drivers/STM32U0xx_HAL_Driver/Inc/stm32u0xx_ll_rtc.h ****   temp = Format12_24                                                                               
1311:Drivers/STM32U0xx_HAL_Driver/Inc/stm32u0xx_ll_rtc.h ****          (((Hours & 0xF0U) << (RTC_TR_HT_Pos - 4U)) | ((Hours & 0x0FU) << RTC_TR_HU_Pos))     | \
1312:Drivers/STM32U0xx_HAL_Driver/Inc/stm32u0xx_ll_rtc.h ****          (((Minutes & 0xF0U) << (RTC_TR_MNT_Pos - 4U)) | ((Minutes & 0x0FU) << RTC_TR_MNU_Pos)) | \
1313:Drivers/STM32U0xx_HAL_Driver/Inc/stm32u0xx_ll_rtc.h ****          (((Seconds & 0xF0U) << (RTC_TR_ST_Pos - 4U)) | ((Seconds & 0x0FU) << RTC_TR_SU_Pos));
1314:Drivers/STM32U0xx_HAL_Driver/Inc/stm32u0xx_ll_rtc.h ****   MODIFY_REG(RTCx->TR, (RTC_TR_PM | RTC_TR_HT | RTC_TR_HU | RTC_TR_MNT | RTC_TR_MNU | RTC_TR_ST | R
ARM GAS  C:\Users\upo\AppData\Local\Temp\ccWo9sLk.s 			page 41


1315:Drivers/STM32U0xx_HAL_Driver/Inc/stm32u0xx_ll_rtc.h **** }
1316:Drivers/STM32U0xx_HAL_Driver/Inc/stm32u0xx_ll_rtc.h **** 
1317:Drivers/STM32U0xx_HAL_Driver/Inc/stm32u0xx_ll_rtc.h **** /**
1318:Drivers/STM32U0xx_HAL_Driver/Inc/stm32u0xx_ll_rtc.h ****   * @brief  Get time (hour, minute and second) in BCD format
1319:Drivers/STM32U0xx_HAL_Driver/Inc/stm32u0xx_ll_rtc.h ****   * @note if RTC shadow registers are not bypassed (BYPSHAD=0), need to check if RSF flag is set
1320:Drivers/STM32U0xx_HAL_Driver/Inc/stm32u0xx_ll_rtc.h ****   *       before reading this bit
1321:Drivers/STM32U0xx_HAL_Driver/Inc/stm32u0xx_ll_rtc.h ****   * @note Read either RTC_SSR or RTC_TR locks the values in the higher-order calendar
1322:Drivers/STM32U0xx_HAL_Driver/Inc/stm32u0xx_ll_rtc.h ****   *       shadow registers until RTC_DR is read (LL_RTC_ReadReg(RTC, DR)).
1323:Drivers/STM32U0xx_HAL_Driver/Inc/stm32u0xx_ll_rtc.h ****   * @note helper macros __LL_RTC_GET_HOUR, __LL_RTC_GET_MINUTE and __LL_RTC_GET_SECOND
1324:Drivers/STM32U0xx_HAL_Driver/Inc/stm32u0xx_ll_rtc.h ****   *       are available to get independently each parameter.
1325:Drivers/STM32U0xx_HAL_Driver/Inc/stm32u0xx_ll_rtc.h ****   * @rmtoll RTC_TR           HT            LL_RTC_TIME_Get\n
1326:Drivers/STM32U0xx_HAL_Driver/Inc/stm32u0xx_ll_rtc.h ****   *         RTC_TR           HU            LL_RTC_TIME_Get\n
1327:Drivers/STM32U0xx_HAL_Driver/Inc/stm32u0xx_ll_rtc.h ****   *         RTC_TR           MNT           LL_RTC_TIME_Get\n
1328:Drivers/STM32U0xx_HAL_Driver/Inc/stm32u0xx_ll_rtc.h ****   *         RTC_TR           MNU           LL_RTC_TIME_Get\n
1329:Drivers/STM32U0xx_HAL_Driver/Inc/stm32u0xx_ll_rtc.h ****   *         RTC_TR           ST            LL_RTC_TIME_Get\n
1330:Drivers/STM32U0xx_HAL_Driver/Inc/stm32u0xx_ll_rtc.h ****   *         RTC_TR           SU            LL_RTC_TIME_Get
1331:Drivers/STM32U0xx_HAL_Driver/Inc/stm32u0xx_ll_rtc.h ****   * @param  RTCx RTC Instance
1332:Drivers/STM32U0xx_HAL_Driver/Inc/stm32u0xx_ll_rtc.h ****   * @retval Combination of hours, minutes and seconds (Format: 0x00HHMMSS).
1333:Drivers/STM32U0xx_HAL_Driver/Inc/stm32u0xx_ll_rtc.h ****   */
1334:Drivers/STM32U0xx_HAL_Driver/Inc/stm32u0xx_ll_rtc.h **** __STATIC_INLINE uint32_t LL_RTC_TIME_Get(RTC_TypeDef *RTCx)
1335:Drivers/STM32U0xx_HAL_Driver/Inc/stm32u0xx_ll_rtc.h **** {
1336:Drivers/STM32U0xx_HAL_Driver/Inc/stm32u0xx_ll_rtc.h ****   return (uint32_t)((LL_RTC_TIME_GetHour(RTCx) << RTC_OFFSET_HOUR) | \
1337:Drivers/STM32U0xx_HAL_Driver/Inc/stm32u0xx_ll_rtc.h ****                     (LL_RTC_TIME_GetMinute(RTCx) << RTC_OFFSET_MINUTE) | LL_RTC_TIME_GetSecond(RTCx
1338:Drivers/STM32U0xx_HAL_Driver/Inc/stm32u0xx_ll_rtc.h **** }
1339:Drivers/STM32U0xx_HAL_Driver/Inc/stm32u0xx_ll_rtc.h **** 
1340:Drivers/STM32U0xx_HAL_Driver/Inc/stm32u0xx_ll_rtc.h **** /**
1341:Drivers/STM32U0xx_HAL_Driver/Inc/stm32u0xx_ll_rtc.h ****   * @brief  Memorize whether the daylight saving time change has been performed
1342:Drivers/STM32U0xx_HAL_Driver/Inc/stm32u0xx_ll_rtc.h ****   * @note   Bit is write-protected. @ref LL_RTC_DisableWriteProtection function should be called be
1343:Drivers/STM32U0xx_HAL_Driver/Inc/stm32u0xx_ll_rtc.h ****   * @rmtoll RTC_CR           BKP           LL_RTC_TIME_EnableDayLightStore
1344:Drivers/STM32U0xx_HAL_Driver/Inc/stm32u0xx_ll_rtc.h ****   * @param  RTCx RTC Instance
1345:Drivers/STM32U0xx_HAL_Driver/Inc/stm32u0xx_ll_rtc.h ****   * @retval None
1346:Drivers/STM32U0xx_HAL_Driver/Inc/stm32u0xx_ll_rtc.h ****   */
1347:Drivers/STM32U0xx_HAL_Driver/Inc/stm32u0xx_ll_rtc.h **** __STATIC_INLINE void LL_RTC_TIME_EnableDayLightStore(RTC_TypeDef *RTCx)
1348:Drivers/STM32U0xx_HAL_Driver/Inc/stm32u0xx_ll_rtc.h **** {
1349:Drivers/STM32U0xx_HAL_Driver/Inc/stm32u0xx_ll_rtc.h ****   SET_BIT(RTCx->CR, RTC_CR_BKP);
1350:Drivers/STM32U0xx_HAL_Driver/Inc/stm32u0xx_ll_rtc.h **** }
1351:Drivers/STM32U0xx_HAL_Driver/Inc/stm32u0xx_ll_rtc.h **** 
1352:Drivers/STM32U0xx_HAL_Driver/Inc/stm32u0xx_ll_rtc.h **** /**
1353:Drivers/STM32U0xx_HAL_Driver/Inc/stm32u0xx_ll_rtc.h ****   * @brief  Disable memorization whether the daylight saving time change has been performed.
1354:Drivers/STM32U0xx_HAL_Driver/Inc/stm32u0xx_ll_rtc.h ****   * @note   Bit is write-protected. @ref LL_RTC_DisableWriteProtection function should be called be
1355:Drivers/STM32U0xx_HAL_Driver/Inc/stm32u0xx_ll_rtc.h ****   * @rmtoll RTC_CR           BKP           LL_RTC_TIME_DisableDayLightStore
1356:Drivers/STM32U0xx_HAL_Driver/Inc/stm32u0xx_ll_rtc.h ****   * @param  RTCx RTC Instance
1357:Drivers/STM32U0xx_HAL_Driver/Inc/stm32u0xx_ll_rtc.h ****   * @retval None
1358:Drivers/STM32U0xx_HAL_Driver/Inc/stm32u0xx_ll_rtc.h ****   */
1359:Drivers/STM32U0xx_HAL_Driver/Inc/stm32u0xx_ll_rtc.h **** __STATIC_INLINE void LL_RTC_TIME_DisableDayLightStore(RTC_TypeDef *RTCx)
1360:Drivers/STM32U0xx_HAL_Driver/Inc/stm32u0xx_ll_rtc.h **** {
1361:Drivers/STM32U0xx_HAL_Driver/Inc/stm32u0xx_ll_rtc.h ****   CLEAR_BIT(RTCx->CR, RTC_CR_BKP);
1362:Drivers/STM32U0xx_HAL_Driver/Inc/stm32u0xx_ll_rtc.h **** }
1363:Drivers/STM32U0xx_HAL_Driver/Inc/stm32u0xx_ll_rtc.h **** 
1364:Drivers/STM32U0xx_HAL_Driver/Inc/stm32u0xx_ll_rtc.h **** /**
1365:Drivers/STM32U0xx_HAL_Driver/Inc/stm32u0xx_ll_rtc.h ****   * @brief  Check if RTC Day Light Saving stored operation has been enabled or not
1366:Drivers/STM32U0xx_HAL_Driver/Inc/stm32u0xx_ll_rtc.h ****   * @rmtoll RTC_CR           BKP           LL_RTC_TIME_IsDayLightStoreEnabled
1367:Drivers/STM32U0xx_HAL_Driver/Inc/stm32u0xx_ll_rtc.h ****   * @param  RTCx RTC Instance
1368:Drivers/STM32U0xx_HAL_Driver/Inc/stm32u0xx_ll_rtc.h ****   * @retval State of bit (1 or 0).
1369:Drivers/STM32U0xx_HAL_Driver/Inc/stm32u0xx_ll_rtc.h ****   */
1370:Drivers/STM32U0xx_HAL_Driver/Inc/stm32u0xx_ll_rtc.h **** __STATIC_INLINE uint32_t LL_RTC_TIME_IsDayLightStoreEnabled(RTC_TypeDef *RTCx)
1371:Drivers/STM32U0xx_HAL_Driver/Inc/stm32u0xx_ll_rtc.h **** {
ARM GAS  C:\Users\upo\AppData\Local\Temp\ccWo9sLk.s 			page 42


1372:Drivers/STM32U0xx_HAL_Driver/Inc/stm32u0xx_ll_rtc.h ****   return ((READ_BIT(RTCx->CR, RTC_CR_BKP) == (RTC_CR_BKP)) ? 1U : 0U);
1373:Drivers/STM32U0xx_HAL_Driver/Inc/stm32u0xx_ll_rtc.h **** }
1374:Drivers/STM32U0xx_HAL_Driver/Inc/stm32u0xx_ll_rtc.h **** 
1375:Drivers/STM32U0xx_HAL_Driver/Inc/stm32u0xx_ll_rtc.h **** /**
1376:Drivers/STM32U0xx_HAL_Driver/Inc/stm32u0xx_ll_rtc.h ****   * @brief  Subtract 1 hour (winter time change)
1377:Drivers/STM32U0xx_HAL_Driver/Inc/stm32u0xx_ll_rtc.h ****   * @note   Bit is write-protected. @ref LL_RTC_DisableWriteProtection function should be called be
1378:Drivers/STM32U0xx_HAL_Driver/Inc/stm32u0xx_ll_rtc.h ****   * @rmtoll RTC_CR           SUB1H         LL_RTC_TIME_DecHour
1379:Drivers/STM32U0xx_HAL_Driver/Inc/stm32u0xx_ll_rtc.h ****   * @param  RTCx RTC Instance
1380:Drivers/STM32U0xx_HAL_Driver/Inc/stm32u0xx_ll_rtc.h ****   * @retval None
1381:Drivers/STM32U0xx_HAL_Driver/Inc/stm32u0xx_ll_rtc.h ****   */
1382:Drivers/STM32U0xx_HAL_Driver/Inc/stm32u0xx_ll_rtc.h **** __STATIC_INLINE void LL_RTC_TIME_DecHour(RTC_TypeDef *RTCx)
1383:Drivers/STM32U0xx_HAL_Driver/Inc/stm32u0xx_ll_rtc.h **** {
1384:Drivers/STM32U0xx_HAL_Driver/Inc/stm32u0xx_ll_rtc.h ****   SET_BIT(RTCx->CR, RTC_CR_SUB1H);
1385:Drivers/STM32U0xx_HAL_Driver/Inc/stm32u0xx_ll_rtc.h **** }
1386:Drivers/STM32U0xx_HAL_Driver/Inc/stm32u0xx_ll_rtc.h **** 
1387:Drivers/STM32U0xx_HAL_Driver/Inc/stm32u0xx_ll_rtc.h **** /**
1388:Drivers/STM32U0xx_HAL_Driver/Inc/stm32u0xx_ll_rtc.h ****   * @brief  Add 1 hour (summer time change)
1389:Drivers/STM32U0xx_HAL_Driver/Inc/stm32u0xx_ll_rtc.h ****   * @note   Bit is write-protected. @ref LL_RTC_DisableWriteProtection function should be called be
1390:Drivers/STM32U0xx_HAL_Driver/Inc/stm32u0xx_ll_rtc.h ****   * @rmtoll RTC_CR           ADD1H         LL_RTC_TIME_IncHour
1391:Drivers/STM32U0xx_HAL_Driver/Inc/stm32u0xx_ll_rtc.h ****   * @param  RTCx RTC Instance
1392:Drivers/STM32U0xx_HAL_Driver/Inc/stm32u0xx_ll_rtc.h ****   * @retval None
1393:Drivers/STM32U0xx_HAL_Driver/Inc/stm32u0xx_ll_rtc.h ****   */
1394:Drivers/STM32U0xx_HAL_Driver/Inc/stm32u0xx_ll_rtc.h **** __STATIC_INLINE void LL_RTC_TIME_IncHour(RTC_TypeDef *RTCx)
1395:Drivers/STM32U0xx_HAL_Driver/Inc/stm32u0xx_ll_rtc.h **** {
1396:Drivers/STM32U0xx_HAL_Driver/Inc/stm32u0xx_ll_rtc.h ****   SET_BIT(RTCx->CR, RTC_CR_ADD1H);
1397:Drivers/STM32U0xx_HAL_Driver/Inc/stm32u0xx_ll_rtc.h **** }
1398:Drivers/STM32U0xx_HAL_Driver/Inc/stm32u0xx_ll_rtc.h **** 
1399:Drivers/STM32U0xx_HAL_Driver/Inc/stm32u0xx_ll_rtc.h **** /**
1400:Drivers/STM32U0xx_HAL_Driver/Inc/stm32u0xx_ll_rtc.h ****   * @brief  Get Sub second value in the synchronous prescaler counter.
1401:Drivers/STM32U0xx_HAL_Driver/Inc/stm32u0xx_ll_rtc.h ****   * @note  You can use both SubSeconds value and SecondFraction (PREDIV_S through
1402:Drivers/STM32U0xx_HAL_Driver/Inc/stm32u0xx_ll_rtc.h ****   *        LL_RTC_GetSynchPrescaler function) terms returned to convert Calendar
1403:Drivers/STM32U0xx_HAL_Driver/Inc/stm32u0xx_ll_rtc.h ****   *        SubSeconds value in second fraction ratio with time unit following
1404:Drivers/STM32U0xx_HAL_Driver/Inc/stm32u0xx_ll_rtc.h ****   *        generic formula:
1405:Drivers/STM32U0xx_HAL_Driver/Inc/stm32u0xx_ll_rtc.h ****   *          ==> Seconds fraction ratio * time_unit= [(SecondFraction-SubSeconds)/(SecondFraction+1
1406:Drivers/STM32U0xx_HAL_Driver/Inc/stm32u0xx_ll_rtc.h ****   *        This conversion can be performed only if no shift operation is pending
1407:Drivers/STM32U0xx_HAL_Driver/Inc/stm32u0xx_ll_rtc.h ****   *        (ie. SHFP=0) when PREDIV_S >= SS.
1408:Drivers/STM32U0xx_HAL_Driver/Inc/stm32u0xx_ll_rtc.h ****   * @rmtoll RTC_SSR          SS            LL_RTC_TIME_GetSubSecond
1409:Drivers/STM32U0xx_HAL_Driver/Inc/stm32u0xx_ll_rtc.h ****   * @param  RTCx RTC Instance
1410:Drivers/STM32U0xx_HAL_Driver/Inc/stm32u0xx_ll_rtc.h ****   * @retval Sub second value (number between 0 and 65535)
1411:Drivers/STM32U0xx_HAL_Driver/Inc/stm32u0xx_ll_rtc.h ****   */
1412:Drivers/STM32U0xx_HAL_Driver/Inc/stm32u0xx_ll_rtc.h **** __STATIC_INLINE uint32_t LL_RTC_TIME_GetSubSecond(RTC_TypeDef *RTCx)
1413:Drivers/STM32U0xx_HAL_Driver/Inc/stm32u0xx_ll_rtc.h **** {
1414:Drivers/STM32U0xx_HAL_Driver/Inc/stm32u0xx_ll_rtc.h ****   return (uint32_t)(READ_BIT(RTCx->SSR, RTC_SSR_SS));
1415:Drivers/STM32U0xx_HAL_Driver/Inc/stm32u0xx_ll_rtc.h **** }
1416:Drivers/STM32U0xx_HAL_Driver/Inc/stm32u0xx_ll_rtc.h **** 
1417:Drivers/STM32U0xx_HAL_Driver/Inc/stm32u0xx_ll_rtc.h **** /**
1418:Drivers/STM32U0xx_HAL_Driver/Inc/stm32u0xx_ll_rtc.h ****   * @brief  Synchronize to a remote clock with a high degree of precision.
1419:Drivers/STM32U0xx_HAL_Driver/Inc/stm32u0xx_ll_rtc.h ****   * @note   This operation effectively subtracts from (delays) or advance the clock of a fraction o
1420:Drivers/STM32U0xx_HAL_Driver/Inc/stm32u0xx_ll_rtc.h ****   * @note   Bit is write-protected. @ref LL_RTC_DisableWriteProtection function should be called be
1421:Drivers/STM32U0xx_HAL_Driver/Inc/stm32u0xx_ll_rtc.h ****   * @note   When REFCKON is set, firmware must not write to Shift control register.
1422:Drivers/STM32U0xx_HAL_Driver/Inc/stm32u0xx_ll_rtc.h ****   * @rmtoll RTC_SHIFTR       ADD1S         LL_RTC_TIME_Synchronize\n
1423:Drivers/STM32U0xx_HAL_Driver/Inc/stm32u0xx_ll_rtc.h ****   *         RTC_SHIFTR       SUBFS         LL_RTC_TIME_Synchronize
1424:Drivers/STM32U0xx_HAL_Driver/Inc/stm32u0xx_ll_rtc.h ****   * @param  RTCx RTC Instance
1425:Drivers/STM32U0xx_HAL_Driver/Inc/stm32u0xx_ll_rtc.h ****   * @param  ShiftSecond This parameter can be one of the following values:
1426:Drivers/STM32U0xx_HAL_Driver/Inc/stm32u0xx_ll_rtc.h ****   *         @arg @ref LL_RTC_SHIFT_SECOND_DELAY
1427:Drivers/STM32U0xx_HAL_Driver/Inc/stm32u0xx_ll_rtc.h ****   *         @arg @ref LL_RTC_SHIFT_SECOND_ADVANCE
1428:Drivers/STM32U0xx_HAL_Driver/Inc/stm32u0xx_ll_rtc.h ****   * @param  Fraction Number of Seconds Fractions (any value from 0 to 0x7FFF)
ARM GAS  C:\Users\upo\AppData\Local\Temp\ccWo9sLk.s 			page 43


1429:Drivers/STM32U0xx_HAL_Driver/Inc/stm32u0xx_ll_rtc.h ****   * @retval None
1430:Drivers/STM32U0xx_HAL_Driver/Inc/stm32u0xx_ll_rtc.h ****   */
1431:Drivers/STM32U0xx_HAL_Driver/Inc/stm32u0xx_ll_rtc.h **** __STATIC_INLINE void LL_RTC_TIME_Synchronize(RTC_TypeDef *RTCx, uint32_t ShiftSecond, uint32_t Frac
1432:Drivers/STM32U0xx_HAL_Driver/Inc/stm32u0xx_ll_rtc.h **** {
1433:Drivers/STM32U0xx_HAL_Driver/Inc/stm32u0xx_ll_rtc.h ****   WRITE_REG(RTCx->SHIFTR, ShiftSecond | Fraction);
1434:Drivers/STM32U0xx_HAL_Driver/Inc/stm32u0xx_ll_rtc.h **** }
1435:Drivers/STM32U0xx_HAL_Driver/Inc/stm32u0xx_ll_rtc.h **** 
1436:Drivers/STM32U0xx_HAL_Driver/Inc/stm32u0xx_ll_rtc.h **** /**
1437:Drivers/STM32U0xx_HAL_Driver/Inc/stm32u0xx_ll_rtc.h ****   * @}
1438:Drivers/STM32U0xx_HAL_Driver/Inc/stm32u0xx_ll_rtc.h ****   */
1439:Drivers/STM32U0xx_HAL_Driver/Inc/stm32u0xx_ll_rtc.h **** 
1440:Drivers/STM32U0xx_HAL_Driver/Inc/stm32u0xx_ll_rtc.h **** /** @defgroup RTC_LL_EF_Date Date
1441:Drivers/STM32U0xx_HAL_Driver/Inc/stm32u0xx_ll_rtc.h ****   * @{
1442:Drivers/STM32U0xx_HAL_Driver/Inc/stm32u0xx_ll_rtc.h ****   */
1443:Drivers/STM32U0xx_HAL_Driver/Inc/stm32u0xx_ll_rtc.h **** 
1444:Drivers/STM32U0xx_HAL_Driver/Inc/stm32u0xx_ll_rtc.h **** /**
1445:Drivers/STM32U0xx_HAL_Driver/Inc/stm32u0xx_ll_rtc.h ****   * @brief  Set Year in BCD format
1446:Drivers/STM32U0xx_HAL_Driver/Inc/stm32u0xx_ll_rtc.h ****   * @note helper macro __LL_RTC_CONVERT_BIN2BCD is available to convert Year from binary to BCD for
1447:Drivers/STM32U0xx_HAL_Driver/Inc/stm32u0xx_ll_rtc.h ****   * @rmtoll RTC_DR           YT            LL_RTC_DATE_SetYear\n
1448:Drivers/STM32U0xx_HAL_Driver/Inc/stm32u0xx_ll_rtc.h ****   *         RTC_DR           YU            LL_RTC_DATE_SetYear
1449:Drivers/STM32U0xx_HAL_Driver/Inc/stm32u0xx_ll_rtc.h ****   * @param  RTCx RTC Instance
1450:Drivers/STM32U0xx_HAL_Driver/Inc/stm32u0xx_ll_rtc.h ****   * @param  Year Value between Min_Data=0x00 and Max_Data=0x99
1451:Drivers/STM32U0xx_HAL_Driver/Inc/stm32u0xx_ll_rtc.h ****   * @retval None
1452:Drivers/STM32U0xx_HAL_Driver/Inc/stm32u0xx_ll_rtc.h ****   */
1453:Drivers/STM32U0xx_HAL_Driver/Inc/stm32u0xx_ll_rtc.h **** __STATIC_INLINE void LL_RTC_DATE_SetYear(RTC_TypeDef *RTCx, uint32_t Year)
1454:Drivers/STM32U0xx_HAL_Driver/Inc/stm32u0xx_ll_rtc.h **** {
1455:Drivers/STM32U0xx_HAL_Driver/Inc/stm32u0xx_ll_rtc.h ****   MODIFY_REG(RTCx->DR, (RTC_DR_YT | RTC_DR_YU),
1456:Drivers/STM32U0xx_HAL_Driver/Inc/stm32u0xx_ll_rtc.h ****              (((Year & 0xF0U) << (RTC_DR_YT_Pos - 4U)) | ((Year & 0x0FU) << RTC_DR_YU_Pos)));
1457:Drivers/STM32U0xx_HAL_Driver/Inc/stm32u0xx_ll_rtc.h **** }
1458:Drivers/STM32U0xx_HAL_Driver/Inc/stm32u0xx_ll_rtc.h **** 
1459:Drivers/STM32U0xx_HAL_Driver/Inc/stm32u0xx_ll_rtc.h **** /**
1460:Drivers/STM32U0xx_HAL_Driver/Inc/stm32u0xx_ll_rtc.h ****   * @brief  Get Year in BCD format
1461:Drivers/STM32U0xx_HAL_Driver/Inc/stm32u0xx_ll_rtc.h ****   * @note if RTC shadow registers are not bypassed (BYPSHAD=0), need to check if RSF flag is set
1462:Drivers/STM32U0xx_HAL_Driver/Inc/stm32u0xx_ll_rtc.h ****   *       before reading this bit
1463:Drivers/STM32U0xx_HAL_Driver/Inc/stm32u0xx_ll_rtc.h ****   * @note helper macro __LL_RTC_CONVERT_BCD2BIN is available to convert Year from BCD to Binary for
1464:Drivers/STM32U0xx_HAL_Driver/Inc/stm32u0xx_ll_rtc.h ****   * @rmtoll RTC_DR           YT            LL_RTC_DATE_GetYear\n
1465:Drivers/STM32U0xx_HAL_Driver/Inc/stm32u0xx_ll_rtc.h ****   *         RTC_DR           YU            LL_RTC_DATE_GetYear
1466:Drivers/STM32U0xx_HAL_Driver/Inc/stm32u0xx_ll_rtc.h ****   * @param  RTCx RTC Instance
1467:Drivers/STM32U0xx_HAL_Driver/Inc/stm32u0xx_ll_rtc.h ****   * @retval Value between Min_Data=0x00 and Max_Data=0x99
1468:Drivers/STM32U0xx_HAL_Driver/Inc/stm32u0xx_ll_rtc.h ****   */
1469:Drivers/STM32U0xx_HAL_Driver/Inc/stm32u0xx_ll_rtc.h **** __STATIC_INLINE uint32_t LL_RTC_DATE_GetYear(RTC_TypeDef *RTCx)
1470:Drivers/STM32U0xx_HAL_Driver/Inc/stm32u0xx_ll_rtc.h **** {
1471:Drivers/STM32U0xx_HAL_Driver/Inc/stm32u0xx_ll_rtc.h ****   register uint32_t temp = 0U;
1472:Drivers/STM32U0xx_HAL_Driver/Inc/stm32u0xx_ll_rtc.h **** 
1473:Drivers/STM32U0xx_HAL_Driver/Inc/stm32u0xx_ll_rtc.h ****   temp = READ_BIT(RTCx->DR, (RTC_DR_YT | RTC_DR_YU));
1474:Drivers/STM32U0xx_HAL_Driver/Inc/stm32u0xx_ll_rtc.h ****   return (uint32_t)((((temp & RTC_DR_YT) >> RTC_DR_YT_Pos) << 4U) | ((temp & RTC_DR_YU) >> RTC_DR_Y
1475:Drivers/STM32U0xx_HAL_Driver/Inc/stm32u0xx_ll_rtc.h **** }
1476:Drivers/STM32U0xx_HAL_Driver/Inc/stm32u0xx_ll_rtc.h **** 
1477:Drivers/STM32U0xx_HAL_Driver/Inc/stm32u0xx_ll_rtc.h **** /**
1478:Drivers/STM32U0xx_HAL_Driver/Inc/stm32u0xx_ll_rtc.h ****   * @brief  Set Week day
1479:Drivers/STM32U0xx_HAL_Driver/Inc/stm32u0xx_ll_rtc.h ****   * @rmtoll RTC_DR           WDU           LL_RTC_DATE_SetWeekDay
1480:Drivers/STM32U0xx_HAL_Driver/Inc/stm32u0xx_ll_rtc.h ****   * @param  RTCx RTC Instance
1481:Drivers/STM32U0xx_HAL_Driver/Inc/stm32u0xx_ll_rtc.h ****   * @param  WeekDay This parameter can be one of the following values:
1482:Drivers/STM32U0xx_HAL_Driver/Inc/stm32u0xx_ll_rtc.h ****   *         @arg @ref LL_RTC_WEEKDAY_MONDAY
1483:Drivers/STM32U0xx_HAL_Driver/Inc/stm32u0xx_ll_rtc.h ****   *         @arg @ref LL_RTC_WEEKDAY_TUESDAY
1484:Drivers/STM32U0xx_HAL_Driver/Inc/stm32u0xx_ll_rtc.h ****   *         @arg @ref LL_RTC_WEEKDAY_WEDNESDAY
1485:Drivers/STM32U0xx_HAL_Driver/Inc/stm32u0xx_ll_rtc.h ****   *         @arg @ref LL_RTC_WEEKDAY_THURSDAY
ARM GAS  C:\Users\upo\AppData\Local\Temp\ccWo9sLk.s 			page 44


1486:Drivers/STM32U0xx_HAL_Driver/Inc/stm32u0xx_ll_rtc.h ****   *         @arg @ref LL_RTC_WEEKDAY_FRIDAY
1487:Drivers/STM32U0xx_HAL_Driver/Inc/stm32u0xx_ll_rtc.h ****   *         @arg @ref LL_RTC_WEEKDAY_SATURDAY
1488:Drivers/STM32U0xx_HAL_Driver/Inc/stm32u0xx_ll_rtc.h ****   *         @arg @ref LL_RTC_WEEKDAY_SUNDAY
1489:Drivers/STM32U0xx_HAL_Driver/Inc/stm32u0xx_ll_rtc.h ****   * @retval None
1490:Drivers/STM32U0xx_HAL_Driver/Inc/stm32u0xx_ll_rtc.h ****   */
1491:Drivers/STM32U0xx_HAL_Driver/Inc/stm32u0xx_ll_rtc.h **** __STATIC_INLINE void LL_RTC_DATE_SetWeekDay(RTC_TypeDef *RTCx, uint32_t WeekDay)
1492:Drivers/STM32U0xx_HAL_Driver/Inc/stm32u0xx_ll_rtc.h **** {
1493:Drivers/STM32U0xx_HAL_Driver/Inc/stm32u0xx_ll_rtc.h ****   MODIFY_REG(RTCx->DR, RTC_DR_WDU, WeekDay << RTC_DR_WDU_Pos);
1494:Drivers/STM32U0xx_HAL_Driver/Inc/stm32u0xx_ll_rtc.h **** }
1495:Drivers/STM32U0xx_HAL_Driver/Inc/stm32u0xx_ll_rtc.h **** 
1496:Drivers/STM32U0xx_HAL_Driver/Inc/stm32u0xx_ll_rtc.h **** /**
1497:Drivers/STM32U0xx_HAL_Driver/Inc/stm32u0xx_ll_rtc.h ****   * @brief  Get Week day
1498:Drivers/STM32U0xx_HAL_Driver/Inc/stm32u0xx_ll_rtc.h ****   * @note if RTC shadow registers are not bypassed (BYPSHAD=0), need to check if RSF flag is set
1499:Drivers/STM32U0xx_HAL_Driver/Inc/stm32u0xx_ll_rtc.h ****   *       before reading this bit
1500:Drivers/STM32U0xx_HAL_Driver/Inc/stm32u0xx_ll_rtc.h ****   * @rmtoll RTC_DR           WDU           LL_RTC_DATE_GetWeekDay
1501:Drivers/STM32U0xx_HAL_Driver/Inc/stm32u0xx_ll_rtc.h ****   * @param  RTCx RTC Instance
1502:Drivers/STM32U0xx_HAL_Driver/Inc/stm32u0xx_ll_rtc.h ****   * @retval Returned value can be one of the following values:
1503:Drivers/STM32U0xx_HAL_Driver/Inc/stm32u0xx_ll_rtc.h ****   *         @arg @ref LL_RTC_WEEKDAY_MONDAY
1504:Drivers/STM32U0xx_HAL_Driver/Inc/stm32u0xx_ll_rtc.h ****   *         @arg @ref LL_RTC_WEEKDAY_TUESDAY
1505:Drivers/STM32U0xx_HAL_Driver/Inc/stm32u0xx_ll_rtc.h ****   *         @arg @ref LL_RTC_WEEKDAY_WEDNESDAY
1506:Drivers/STM32U0xx_HAL_Driver/Inc/stm32u0xx_ll_rtc.h ****   *         @arg @ref LL_RTC_WEEKDAY_THURSDAY
1507:Drivers/STM32U0xx_HAL_Driver/Inc/stm32u0xx_ll_rtc.h ****   *         @arg @ref LL_RTC_WEEKDAY_FRIDAY
1508:Drivers/STM32U0xx_HAL_Driver/Inc/stm32u0xx_ll_rtc.h ****   *         @arg @ref LL_RTC_WEEKDAY_SATURDAY
1509:Drivers/STM32U0xx_HAL_Driver/Inc/stm32u0xx_ll_rtc.h ****   *         @arg @ref LL_RTC_WEEKDAY_SUNDAY
1510:Drivers/STM32U0xx_HAL_Driver/Inc/stm32u0xx_ll_rtc.h ****   */
1511:Drivers/STM32U0xx_HAL_Driver/Inc/stm32u0xx_ll_rtc.h **** __STATIC_INLINE uint32_t LL_RTC_DATE_GetWeekDay(RTC_TypeDef *RTCx)
1512:Drivers/STM32U0xx_HAL_Driver/Inc/stm32u0xx_ll_rtc.h **** {
1513:Drivers/STM32U0xx_HAL_Driver/Inc/stm32u0xx_ll_rtc.h ****   return (uint32_t)(READ_BIT(RTCx->DR, RTC_DR_WDU) >> RTC_DR_WDU_Pos);
1514:Drivers/STM32U0xx_HAL_Driver/Inc/stm32u0xx_ll_rtc.h **** }
1515:Drivers/STM32U0xx_HAL_Driver/Inc/stm32u0xx_ll_rtc.h **** 
1516:Drivers/STM32U0xx_HAL_Driver/Inc/stm32u0xx_ll_rtc.h **** /**
1517:Drivers/STM32U0xx_HAL_Driver/Inc/stm32u0xx_ll_rtc.h ****   * @brief  Set Month in BCD format
1518:Drivers/STM32U0xx_HAL_Driver/Inc/stm32u0xx_ll_rtc.h ****   * @note helper macro __LL_RTC_CONVERT_BIN2BCD is available to convert Month from binary to BCD fo
1519:Drivers/STM32U0xx_HAL_Driver/Inc/stm32u0xx_ll_rtc.h ****   * @rmtoll RTC_DR           MT            LL_RTC_DATE_SetMonth\n
1520:Drivers/STM32U0xx_HAL_Driver/Inc/stm32u0xx_ll_rtc.h ****   *         RTC_DR           MU            LL_RTC_DATE_SetMonth
1521:Drivers/STM32U0xx_HAL_Driver/Inc/stm32u0xx_ll_rtc.h ****   * @param  RTCx RTC Instance
1522:Drivers/STM32U0xx_HAL_Driver/Inc/stm32u0xx_ll_rtc.h ****   * @param  Month This parameter can be one of the following values:
1523:Drivers/STM32U0xx_HAL_Driver/Inc/stm32u0xx_ll_rtc.h ****   *         @arg @ref LL_RTC_MONTH_JANUARY
1524:Drivers/STM32U0xx_HAL_Driver/Inc/stm32u0xx_ll_rtc.h ****   *         @arg @ref LL_RTC_MONTH_FEBRUARY
1525:Drivers/STM32U0xx_HAL_Driver/Inc/stm32u0xx_ll_rtc.h ****   *         @arg @ref LL_RTC_MONTH_MARCH
1526:Drivers/STM32U0xx_HAL_Driver/Inc/stm32u0xx_ll_rtc.h ****   *         @arg @ref LL_RTC_MONTH_APRIL
1527:Drivers/STM32U0xx_HAL_Driver/Inc/stm32u0xx_ll_rtc.h ****   *         @arg @ref LL_RTC_MONTH_MAY
1528:Drivers/STM32U0xx_HAL_Driver/Inc/stm32u0xx_ll_rtc.h ****   *         @arg @ref LL_RTC_MONTH_JUNE
1529:Drivers/STM32U0xx_HAL_Driver/Inc/stm32u0xx_ll_rtc.h ****   *         @arg @ref LL_RTC_MONTH_JULY
1530:Drivers/STM32U0xx_HAL_Driver/Inc/stm32u0xx_ll_rtc.h ****   *         @arg @ref LL_RTC_MONTH_AUGUST
1531:Drivers/STM32U0xx_HAL_Driver/Inc/stm32u0xx_ll_rtc.h ****   *         @arg @ref LL_RTC_MONTH_SEPTEMBER
1532:Drivers/STM32U0xx_HAL_Driver/Inc/stm32u0xx_ll_rtc.h ****   *         @arg @ref LL_RTC_MONTH_OCTOBER
1533:Drivers/STM32U0xx_HAL_Driver/Inc/stm32u0xx_ll_rtc.h ****   *         @arg @ref LL_RTC_MONTH_NOVEMBER
1534:Drivers/STM32U0xx_HAL_Driver/Inc/stm32u0xx_ll_rtc.h ****   *         @arg @ref LL_RTC_MONTH_DECEMBER
1535:Drivers/STM32U0xx_HAL_Driver/Inc/stm32u0xx_ll_rtc.h ****   * @retval None
1536:Drivers/STM32U0xx_HAL_Driver/Inc/stm32u0xx_ll_rtc.h ****   */
1537:Drivers/STM32U0xx_HAL_Driver/Inc/stm32u0xx_ll_rtc.h **** __STATIC_INLINE void LL_RTC_DATE_SetMonth(RTC_TypeDef *RTCx, uint32_t Month)
1538:Drivers/STM32U0xx_HAL_Driver/Inc/stm32u0xx_ll_rtc.h **** {
1539:Drivers/STM32U0xx_HAL_Driver/Inc/stm32u0xx_ll_rtc.h ****   MODIFY_REG(RTCx->DR, (RTC_DR_MT | RTC_DR_MU),
1540:Drivers/STM32U0xx_HAL_Driver/Inc/stm32u0xx_ll_rtc.h ****              (((Month & 0xF0U) << (RTC_DR_MT_Pos - 4U)) | ((Month & 0x0FU) << RTC_DR_MU_Pos)));
1541:Drivers/STM32U0xx_HAL_Driver/Inc/stm32u0xx_ll_rtc.h **** }
1542:Drivers/STM32U0xx_HAL_Driver/Inc/stm32u0xx_ll_rtc.h **** 
ARM GAS  C:\Users\upo\AppData\Local\Temp\ccWo9sLk.s 			page 45


1543:Drivers/STM32U0xx_HAL_Driver/Inc/stm32u0xx_ll_rtc.h **** /**
1544:Drivers/STM32U0xx_HAL_Driver/Inc/stm32u0xx_ll_rtc.h ****   * @brief  Get Month in BCD format
1545:Drivers/STM32U0xx_HAL_Driver/Inc/stm32u0xx_ll_rtc.h ****   * @note if RTC shadow registers are not bypassed (BYPSHAD=0), need to check if RSF flag is set
1546:Drivers/STM32U0xx_HAL_Driver/Inc/stm32u0xx_ll_rtc.h ****   *       before reading this bit
1547:Drivers/STM32U0xx_HAL_Driver/Inc/stm32u0xx_ll_rtc.h ****   * @note helper macro __LL_RTC_CONVERT_BCD2BIN is available to convert Month from BCD to Binary fo
1548:Drivers/STM32U0xx_HAL_Driver/Inc/stm32u0xx_ll_rtc.h ****   * @rmtoll RTC_DR           MT            LL_RTC_DATE_GetMonth\n
1549:Drivers/STM32U0xx_HAL_Driver/Inc/stm32u0xx_ll_rtc.h ****   *         RTC_DR           MU            LL_RTC_DATE_GetMonth
1550:Drivers/STM32U0xx_HAL_Driver/Inc/stm32u0xx_ll_rtc.h ****   * @param  RTCx RTC Instance
1551:Drivers/STM32U0xx_HAL_Driver/Inc/stm32u0xx_ll_rtc.h ****   * @retval Returned value can be one of the following values:
1552:Drivers/STM32U0xx_HAL_Driver/Inc/stm32u0xx_ll_rtc.h ****   *         @arg @ref LL_RTC_MONTH_JANUARY
1553:Drivers/STM32U0xx_HAL_Driver/Inc/stm32u0xx_ll_rtc.h ****   *         @arg @ref LL_RTC_MONTH_FEBRUARY
1554:Drivers/STM32U0xx_HAL_Driver/Inc/stm32u0xx_ll_rtc.h ****   *         @arg @ref LL_RTC_MONTH_MARCH
1555:Drivers/STM32U0xx_HAL_Driver/Inc/stm32u0xx_ll_rtc.h ****   *         @arg @ref LL_RTC_MONTH_APRIL
1556:Drivers/STM32U0xx_HAL_Driver/Inc/stm32u0xx_ll_rtc.h ****   *         @arg @ref LL_RTC_MONTH_MAY
1557:Drivers/STM32U0xx_HAL_Driver/Inc/stm32u0xx_ll_rtc.h ****   *         @arg @ref LL_RTC_MONTH_JUNE
1558:Drivers/STM32U0xx_HAL_Driver/Inc/stm32u0xx_ll_rtc.h ****   *         @arg @ref LL_RTC_MONTH_JULY
1559:Drivers/STM32U0xx_HAL_Driver/Inc/stm32u0xx_ll_rtc.h ****   *         @arg @ref LL_RTC_MONTH_AUGUST
1560:Drivers/STM32U0xx_HAL_Driver/Inc/stm32u0xx_ll_rtc.h ****   *         @arg @ref LL_RTC_MONTH_SEPTEMBER
1561:Drivers/STM32U0xx_HAL_Driver/Inc/stm32u0xx_ll_rtc.h ****   *         @arg @ref LL_RTC_MONTH_OCTOBER
1562:Drivers/STM32U0xx_HAL_Driver/Inc/stm32u0xx_ll_rtc.h ****   *         @arg @ref LL_RTC_MONTH_NOVEMBER
1563:Drivers/STM32U0xx_HAL_Driver/Inc/stm32u0xx_ll_rtc.h ****   *         @arg @ref LL_RTC_MONTH_DECEMBER
1564:Drivers/STM32U0xx_HAL_Driver/Inc/stm32u0xx_ll_rtc.h ****   */
1565:Drivers/STM32U0xx_HAL_Driver/Inc/stm32u0xx_ll_rtc.h **** __STATIC_INLINE uint32_t LL_RTC_DATE_GetMonth(RTC_TypeDef *RTCx)
 731              		.loc 2 1565 26 view .LVU152
 732              	.LBB67:
1566:Drivers/STM32U0xx_HAL_Driver/Inc/stm32u0xx_ll_rtc.h **** {
1567:Drivers/STM32U0xx_HAL_Driver/Inc/stm32u0xx_ll_rtc.h ****   register uint32_t temp = 0U;
 733              		.loc 2 1567 3 view .LVU153
1568:Drivers/STM32U0xx_HAL_Driver/Inc/stm32u0xx_ll_rtc.h **** 
1569:Drivers/STM32U0xx_HAL_Driver/Inc/stm32u0xx_ll_rtc.h ****   temp = READ_BIT(RTCx->DR, (RTC_DR_MT | RTC_DR_MU));
 734              		.loc 2 1569 3 view .LVU154
 735              		.loc 2 1569 8 is_stmt 0 view .LVU155
 736 007e F823     		movs	r3, #248
 737              		.loc 2 1569 10 view .LVU156
 738 0080 7268     		ldr	r2, [r6, #4]
 739              	.LBE67:
 740              	.LBE66:
 741              	.LBB70:
 742              	.LBB71:
 743 0082 7068     		ldr	r0, [r6, #4]
 744              	.LBE71:
 745              	.LBE70:
 746              	.LBB75:
 747              	.LBB68:
 748              		.loc 2 1569 8 view .LVU157
 749 0084 5B01     		lsls	r3, r3, #5
 750              	.LBE68:
 751              	.LBE75:
 752              	.LBB76:
 753              	.LBB77:
1570:Drivers/STM32U0xx_HAL_Driver/Inc/stm32u0xx_ll_rtc.h ****   return (uint32_t)((((temp & RTC_DR_MT) >> RTC_DR_MT_Pos) << 4U) | ((temp & RTC_DR_MU) >> RTC_DR_M
1571:Drivers/STM32U0xx_HAL_Driver/Inc/stm32u0xx_ll_rtc.h **** }
1572:Drivers/STM32U0xx_HAL_Driver/Inc/stm32u0xx_ll_rtc.h **** 
1573:Drivers/STM32U0xx_HAL_Driver/Inc/stm32u0xx_ll_rtc.h **** /**
1574:Drivers/STM32U0xx_HAL_Driver/Inc/stm32u0xx_ll_rtc.h ****   * @brief  Set Day in BCD format
1575:Drivers/STM32U0xx_HAL_Driver/Inc/stm32u0xx_ll_rtc.h ****   * @note helper macro __LL_RTC_CONVERT_BIN2BCD is available to convert Day from binary to BCD form
1576:Drivers/STM32U0xx_HAL_Driver/Inc/stm32u0xx_ll_rtc.h ****   * @rmtoll RTC_DR           DT            LL_RTC_DATE_SetDay\n
ARM GAS  C:\Users\upo\AppData\Local\Temp\ccWo9sLk.s 			page 46


1577:Drivers/STM32U0xx_HAL_Driver/Inc/stm32u0xx_ll_rtc.h ****   *         RTC_DR           DU            LL_RTC_DATE_SetDay
1578:Drivers/STM32U0xx_HAL_Driver/Inc/stm32u0xx_ll_rtc.h ****   * @param  RTCx RTC Instance
1579:Drivers/STM32U0xx_HAL_Driver/Inc/stm32u0xx_ll_rtc.h ****   * @param  Day Value between Min_Data=0x01 and Max_Data=0x31
1580:Drivers/STM32U0xx_HAL_Driver/Inc/stm32u0xx_ll_rtc.h ****   * @retval None
1581:Drivers/STM32U0xx_HAL_Driver/Inc/stm32u0xx_ll_rtc.h ****   */
1582:Drivers/STM32U0xx_HAL_Driver/Inc/stm32u0xx_ll_rtc.h **** __STATIC_INLINE void LL_RTC_DATE_SetDay(RTC_TypeDef *RTCx, uint32_t Day)
1583:Drivers/STM32U0xx_HAL_Driver/Inc/stm32u0xx_ll_rtc.h **** {
1584:Drivers/STM32U0xx_HAL_Driver/Inc/stm32u0xx_ll_rtc.h ****   MODIFY_REG(RTCx->DR, (RTC_DR_DT | RTC_DR_DU),
1585:Drivers/STM32U0xx_HAL_Driver/Inc/stm32u0xx_ll_rtc.h ****              (((Day & 0xF0U) << (RTC_DR_DT_Pos - 4U)) | ((Day & 0x0FU) << RTC_DR_DU_Pos)));
1586:Drivers/STM32U0xx_HAL_Driver/Inc/stm32u0xx_ll_rtc.h **** }
1587:Drivers/STM32U0xx_HAL_Driver/Inc/stm32u0xx_ll_rtc.h **** 
1588:Drivers/STM32U0xx_HAL_Driver/Inc/stm32u0xx_ll_rtc.h **** /**
1589:Drivers/STM32U0xx_HAL_Driver/Inc/stm32u0xx_ll_rtc.h ****   * @brief  Get Day in BCD format
1590:Drivers/STM32U0xx_HAL_Driver/Inc/stm32u0xx_ll_rtc.h ****   * @note if RTC shadow registers are not bypassed (BYPSHAD=0), need to check if RSF flag is set
1591:Drivers/STM32U0xx_HAL_Driver/Inc/stm32u0xx_ll_rtc.h ****   *       before reading this bit
1592:Drivers/STM32U0xx_HAL_Driver/Inc/stm32u0xx_ll_rtc.h ****   * @note helper macro __LL_RTC_CONVERT_BCD2BIN is available to convert Day from BCD to Binary form
1593:Drivers/STM32U0xx_HAL_Driver/Inc/stm32u0xx_ll_rtc.h ****   * @rmtoll RTC_DR           DT            LL_RTC_DATE_GetDay\n
1594:Drivers/STM32U0xx_HAL_Driver/Inc/stm32u0xx_ll_rtc.h ****   *         RTC_DR           DU            LL_RTC_DATE_GetDay
1595:Drivers/STM32U0xx_HAL_Driver/Inc/stm32u0xx_ll_rtc.h ****   * @param  RTCx RTC Instance
1596:Drivers/STM32U0xx_HAL_Driver/Inc/stm32u0xx_ll_rtc.h ****   * @retval Value between Min_Data=0x01 and Max_Data=0x31
1597:Drivers/STM32U0xx_HAL_Driver/Inc/stm32u0xx_ll_rtc.h ****   */
1598:Drivers/STM32U0xx_HAL_Driver/Inc/stm32u0xx_ll_rtc.h **** __STATIC_INLINE uint32_t LL_RTC_DATE_GetDay(RTC_TypeDef *RTCx)
1599:Drivers/STM32U0xx_HAL_Driver/Inc/stm32u0xx_ll_rtc.h **** {
1600:Drivers/STM32U0xx_HAL_Driver/Inc/stm32u0xx_ll_rtc.h ****   register uint32_t temp = 0U;
1601:Drivers/STM32U0xx_HAL_Driver/Inc/stm32u0xx_ll_rtc.h **** 
1602:Drivers/STM32U0xx_HAL_Driver/Inc/stm32u0xx_ll_rtc.h ****   temp = READ_BIT(RTCx->DR, (RTC_DR_DT | RTC_DR_DU));
 754              		.loc 2 1602 10 view .LVU158
 755 0086 7168     		ldr	r1, [r6, #4]
 756              	.LBE77:
 757              	.LBE76:
 758              	.LBB79:
 759              	.LBB72:
1569:Drivers/STM32U0xx_HAL_Driver/Inc/stm32u0xx_ll_rtc.h ****   return (uint32_t)((((temp & RTC_DR_MT) >> RTC_DR_MT_Pos) << 4U) | ((temp & RTC_DR_MU) >> RTC_DR_M
 760              		.loc 2 1569 8 view .LVU159
 761 0088 1840     		ands	r0, r3
 762              	.LBE72:
 763              	.LBE79:
 764              	.LBB80:
 765              	.LBB69:
 766 008a 1A40     		ands	r2, r3
 767              	.LVL45:
1570:Drivers/STM32U0xx_HAL_Driver/Inc/stm32u0xx_ll_rtc.h ****   return (uint32_t)((((temp & RTC_DR_MT) >> RTC_DR_MT_Pos) << 4U) | ((temp & RTC_DR_MU) >> RTC_DR_M
 768              		.loc 2 1570 3 is_stmt 1 view .LVU160
1570:Drivers/STM32U0xx_HAL_Driver/Inc/stm32u0xx_ll_rtc.h ****   return (uint32_t)((((temp & RTC_DR_MT) >> RTC_DR_MT_Pos) << 4U) | ((temp & RTC_DR_MU) >> RTC_DR_M
 769              		.loc 2 1570 3 is_stmt 0 view .LVU161
 770              	.LBE69:
 771              	.LBE80:
 772              	.LBB81:
 773              	.LBI70:
1565:Drivers/STM32U0xx_HAL_Driver/Inc/stm32u0xx_ll_rtc.h **** {
 774              		.loc 2 1565 26 is_stmt 1 view .LVU162
 775              	.LBB73:
1567:Drivers/STM32U0xx_HAL_Driver/Inc/stm32u0xx_ll_rtc.h **** 
 776              		.loc 2 1567 3 view .LVU163
1569:Drivers/STM32U0xx_HAL_Driver/Inc/stm32u0xx_ll_rtc.h ****   return (uint32_t)((((temp & RTC_DR_MT) >> RTC_DR_MT_Pos) << 4U) | ((temp & RTC_DR_MU) >> RTC_DR_M
 777              		.loc 2 1569 3 view .LVU164
1570:Drivers/STM32U0xx_HAL_Driver/Inc/stm32u0xx_ll_rtc.h **** }
ARM GAS  C:\Users\upo\AppData\Local\Temp\ccWo9sLk.s 			page 47


 778              		.loc 2 1570 3 view .LVU165
1570:Drivers/STM32U0xx_HAL_Driver/Inc/stm32u0xx_ll_rtc.h **** }
 779              		.loc 2 1570 3 is_stmt 0 view .LVU166
 780              	.LBE73:
 781              	.LBE81:
 782              	.LBB82:
 783              	.LBI76:
1598:Drivers/STM32U0xx_HAL_Driver/Inc/stm32u0xx_ll_rtc.h **** {
 784              		.loc 2 1598 26 is_stmt 1 view .LVU167
 785              	.LBB78:
1600:Drivers/STM32U0xx_HAL_Driver/Inc/stm32u0xx_ll_rtc.h **** 
 786              		.loc 2 1600 3 view .LVU168
 787              		.loc 2 1602 3 view .LVU169
1603:Drivers/STM32U0xx_HAL_Driver/Inc/stm32u0xx_ll_rtc.h ****   return (uint32_t)((((temp & RTC_DR_DT) >> RTC_DR_DT_Pos) << 4U) | ((temp & RTC_DR_DU) >> RTC_DR_D
 788              		.loc 2 1603 3 view .LVU170
 789              		.loc 2 1603 3 is_stmt 0 view .LVU171
 790              	.LBE78:
 791              	.LBE82:
 792              	.LBB83:
 793              	.LBI83:
1598:Drivers/STM32U0xx_HAL_Driver/Inc/stm32u0xx_ll_rtc.h **** {
 794              		.loc 2 1598 26 is_stmt 1 view .LVU172
 795              	.LBB84:
1600:Drivers/STM32U0xx_HAL_Driver/Inc/stm32u0xx_ll_rtc.h **** 
 796              		.loc 2 1600 3 view .LVU173
1602:Drivers/STM32U0xx_HAL_Driver/Inc/stm32u0xx_ll_rtc.h ****   return (uint32_t)((((temp & RTC_DR_DT) >> RTC_DR_DT_Pos) << 4U) | ((temp & RTC_DR_DU) >> RTC_DR_D
 797              		.loc 2 1602 3 view .LVU174
1602:Drivers/STM32U0xx_HAL_Driver/Inc/stm32u0xx_ll_rtc.h ****   return (uint32_t)((((temp & RTC_DR_DT) >> RTC_DR_DT_Pos) << 4U) | ((temp & RTC_DR_DU) >> RTC_DR_D
 798              		.loc 2 1602 10 is_stmt 0 view .LVU175
 799 008c 7368     		ldr	r3, [r6, #4]
 800              	.LBE84:
 801              	.LBE83:
 159:User/e-Paper/paint_sensor.c **** 			__LL_RTC_CONVERT_BCD2BIN(LL_RTC_DATE_GetDay(RTC)),
 802              		.loc 1 159 4 view .LVU176
 803 008e 8906     		lsls	r1, r1, #26
 804              	.LBB86:
 805              	.LBB85:
1602:Drivers/STM32U0xx_HAL_Driver/Inc/stm32u0xx_ll_rtc.h ****   return (uint32_t)((((temp & RTC_DR_DT) >> RTC_DR_DT_Pos) << 4U) | ((temp & RTC_DR_DU) >> RTC_DR_D
 806              		.loc 2 1602 10 view .LVU177
 807 0090 9C46     		mov	ip, r3
 808              	.LVL46:
 809              		.loc 2 1603 3 is_stmt 1 view .LVU178
 810              		.loc 2 1603 3 is_stmt 0 view .LVU179
 811              	.LBE85:
 812              	.LBE86:
 813              	.LBB87:
 814              	.LBI87:
1469:Drivers/STM32U0xx_HAL_Driver/Inc/stm32u0xx_ll_rtc.h **** {
 815              		.loc 2 1469 26 is_stmt 1 view .LVU180
 816              	.LBB88:
1471:Drivers/STM32U0xx_HAL_Driver/Inc/stm32u0xx_ll_rtc.h **** 
 817              		.loc 2 1471 3 view .LVU181
1473:Drivers/STM32U0xx_HAL_Driver/Inc/stm32u0xx_ll_rtc.h ****   return (uint32_t)((((temp & RTC_DR_YT) >> RTC_DR_YT_Pos) << 4U) | ((temp & RTC_DR_YU) >> RTC_DR_Y
 818              		.loc 2 1473 3 view .LVU182
1473:Drivers/STM32U0xx_HAL_Driver/Inc/stm32u0xx_ll_rtc.h ****   return (uint32_t)((((temp & RTC_DR_YT) >> RTC_DR_YT_Pos) << 4U) | ((temp & RTC_DR_YU) >> RTC_DR_Y
 819              		.loc 2 1473 8 is_stmt 0 view .LVU183
 820 0092 FF23     		movs	r3, #255
ARM GAS  C:\Users\upo\AppData\Local\Temp\ccWo9sLk.s 			page 48


1473:Drivers/STM32U0xx_HAL_Driver/Inc/stm32u0xx_ll_rtc.h ****   return (uint32_t)((((temp & RTC_DR_YT) >> RTC_DR_YT_Pos) << 4U) | ((temp & RTC_DR_YU) >> RTC_DR_Y
 821              		.loc 2 1473 10 view .LVU184
 822 0094 7468     		ldr	r4, [r6, #4]
 823              	.LBE88:
 824              	.LBE87:
 825              	.LBB91:
 826              	.LBB92:
 827 0096 7668     		ldr	r6, [r6, #4]
 828              	.LBE92:
 829              	.LBE91:
 830              	.LBB97:
 831              	.LBB89:
1473:Drivers/STM32U0xx_HAL_Driver/Inc/stm32u0xx_ll_rtc.h ****   return (uint32_t)((((temp & RTC_DR_YT) >> RTC_DR_YT_Pos) << 4U) | ((temp & RTC_DR_YU) >> RTC_DR_Y
 832              		.loc 2 1473 8 view .LVU185
 833 0098 1B04     		lsls	r3, r3, #16
 834              	.LBE89:
 835              	.LBE97:
 836              		.loc 1 159 4 view .LVU186
 837 009a 890F     		lsrs	r1, r1, #30
 838              	.LBB98:
 839              	.LBB93:
1473:Drivers/STM32U0xx_HAL_Driver/Inc/stm32u0xx_ll_rtc.h ****   return (uint32_t)((((temp & RTC_DR_YT) >> RTC_DR_YT_Pos) << 4U) | ((temp & RTC_DR_YU) >> RTC_DR_Y
 840              		.loc 2 1473 8 view .LVU187
 841 009c 1E40     		ands	r6, r3
 842              	.LBE93:
 843              	.LBE98:
 844              	.LBB99:
 845              	.LBB90:
 846 009e 1C40     		ands	r4, r3
 847              	.LVL47:
1474:Drivers/STM32U0xx_HAL_Driver/Inc/stm32u0xx_ll_rtc.h **** }
 848              		.loc 2 1474 3 is_stmt 1 view .LVU188
1474:Drivers/STM32U0xx_HAL_Driver/Inc/stm32u0xx_ll_rtc.h **** }
 849              		.loc 2 1474 3 is_stmt 0 view .LVU189
 850              	.LBE90:
 851              	.LBE99:
 852              	.LBB100:
 853              	.LBI91:
1469:Drivers/STM32U0xx_HAL_Driver/Inc/stm32u0xx_ll_rtc.h **** {
 854              		.loc 2 1469 26 is_stmt 1 view .LVU190
 855              	.LBB94:
1471:Drivers/STM32U0xx_HAL_Driver/Inc/stm32u0xx_ll_rtc.h **** 
 856              		.loc 2 1471 3 view .LVU191
1473:Drivers/STM32U0xx_HAL_Driver/Inc/stm32u0xx_ll_rtc.h ****   return (uint32_t)((((temp & RTC_DR_YT) >> RTC_DR_YT_Pos) << 4U) | ((temp & RTC_DR_YU) >> RTC_DR_Y
 857              		.loc 2 1473 3 view .LVU192
1474:Drivers/STM32U0xx_HAL_Driver/Inc/stm32u0xx_ll_rtc.h **** }
 858              		.loc 2 1474 3 view .LVU193
1474:Drivers/STM32U0xx_HAL_Driver/Inc/stm32u0xx_ll_rtc.h **** }
 859              		.loc 2 1474 3 is_stmt 0 view .LVU194
 860              	.LBE94:
 861              	.LBE100:
 862              		.loc 1 159 4 view .LVU195
 863 00a0 8B00     		lsls	r3, r1, #2
 864 00a2 CB18     		adds	r3, r1, r3
 865 00a4 6146     		mov	r1, ip
 158:User/e-Paper/paint_sensor.c **** 			__LL_RTC_CONVERT_BCD2BIN(LL_RTC_DATE_GetDay(RTC)),
 866              		.loc 1 158 46 view .LVU196
ARM GAS  C:\Users\upo\AppData\Local\Temp\ccWo9sLk.s 			page 49


 867 00a6 120B     		lsrs	r2, r2, #12
 868              		.loc 1 159 4 view .LVU197
 869 00a8 2940     		ands	r1, r5
 870 00aa 5B00     		lsls	r3, r3, #1
 871 00ac 5B18     		adds	r3, r3, r1
 158:User/e-Paper/paint_sensor.c **** 			__LL_RTC_CONVERT_BCD2BIN(LL_RTC_DATE_GetDay(RTC)),
 872              		.loc 1 158 46 view .LVU198
 873 00ae 9100     		lsls	r1, r2, #2
 874 00b0 5218     		adds	r2, r2, r1
 875              	.LBB101:
 876              	.LBB74:
1570:Drivers/STM32U0xx_HAL_Driver/Inc/stm32u0xx_ll_rtc.h **** }
 877              		.loc 2 1570 42 view .LVU199
 878 00b2 010B     		lsrs	r1, r0, #12
1570:Drivers/STM32U0xx_HAL_Driver/Inc/stm32u0xx_ll_rtc.h **** }
 879              		.loc 2 1570 89 view .LVU200
 880 00b4 000A     		lsrs	r0, r0, #8
1570:Drivers/STM32U0xx_HAL_Driver/Inc/stm32u0xx_ll_rtc.h **** }
 881              		.loc 2 1570 60 view .LVU201
 882 00b6 0901     		lsls	r1, r1, #4
1570:Drivers/STM32U0xx_HAL_Driver/Inc/stm32u0xx_ll_rtc.h **** }
 883              		.loc 2 1570 89 view .LVU202
 884 00b8 2840     		ands	r0, r5
1570:Drivers/STM32U0xx_HAL_Driver/Inc/stm32u0xx_ll_rtc.h **** }
 885              		.loc 2 1570 10 view .LVU203
 886 00ba 0843     		orrs	r0, r1
 887              	.LBE74:
 888              	.LBE101:
 160:User/e-Paper/paint_sensor.c **** 			2000 + __LL_RTC_CONVERT_BCD2BIN(LL_RTC_DATE_GetYear(RTC)));
 889              		.loc 1 160 11 view .LVU204
 890 00bc 240D     		lsrs	r4, r4, #20
 158:User/e-Paper/paint_sensor.c **** 			__LL_RTC_CONVERT_BCD2BIN(LL_RTC_DATE_GetDay(RTC)),
 891              		.loc 1 158 46 view .LVU205
 892 00be 2840     		ands	r0, r5
 893              		.loc 1 160 11 view .LVU206
 894 00c0 A500     		lsls	r5, r4, #2
 895 00c2 AC46     		mov	ip, r5
 896              	.LBB102:
 897              	.LBB95:
1474:Drivers/STM32U0xx_HAL_Driver/Inc/stm32u0xx_ll_rtc.h **** }
 898              		.loc 2 1474 42 view .LVU207
 899 00c4 350D     		lsrs	r5, r6, #20
1474:Drivers/STM32U0xx_HAL_Driver/Inc/stm32u0xx_ll_rtc.h **** }
 900              		.loc 2 1474 60 view .LVU208
 901 00c6 2D01     		lsls	r5, r5, #4
 902              	.LBE95:
 903              	.LBE102:
 904              		.loc 1 160 11 view .LVU209
 905 00c8 6444     		add	r4, r4, ip
 906              	.LBB103:
 907              	.LBB96:
1474:Drivers/STM32U0xx_HAL_Driver/Inc/stm32u0xx_ll_rtc.h **** }
 908              		.loc 2 1474 60 view .LVU210
 909 00ca AC46     		mov	ip, r5
1474:Drivers/STM32U0xx_HAL_Driver/Inc/stm32u0xx_ll_rtc.h **** }
 910              		.loc 2 1474 89 view .LVU211
 911 00cc 4546     		mov	r5, r8
ARM GAS  C:\Users\upo\AppData\Local\Temp\ccWo9sLk.s 			page 50


 912 00ce 360C     		lsrs	r6, r6, #16
 913 00d0 2E40     		ands	r6, r5
1474:Drivers/STM32U0xx_HAL_Driver/Inc/stm32u0xx_ll_rtc.h **** }
 914              		.loc 2 1474 10 view .LVU212
 915 00d2 6546     		mov	r5, ip
 916 00d4 2E43     		orrs	r6, r5
 917              	.LBE96:
 918              	.LBE103:
 919              		.loc 1 160 11 view .LVU213
 920 00d6 4546     		mov	r5, r8
 921 00d8 6400     		lsls	r4, r4, #1
 922 00da 3540     		ands	r5, r6
 923 00dc 6419     		adds	r4, r4, r5
 158:User/e-Paper/paint_sensor.c **** 			__LL_RTC_CONVERT_BCD2BIN(LL_RTC_DATE_GetDay(RTC)),
 924              		.loc 1 158 2 view .LVU214
 925 00de FA25     		movs	r5, #250
 926 00e0 ED00     		lsls	r5, r5, #3
 927 00e2 AC46     		mov	ip, r5
 158:User/e-Paper/paint_sensor.c **** 			__LL_RTC_CONVERT_BCD2BIN(LL_RTC_DATE_GetDay(RTC)),
 928              		.loc 1 158 46 view .LVU215
 929 00e4 5200     		lsls	r2, r2, #1
 158:User/e-Paper/paint_sensor.c **** 			__LL_RTC_CONVERT_BCD2BIN(LL_RTC_DATE_GetDay(RTC)),
 930              		.loc 1 158 2 view .LVU216
 931 00e6 1218     		adds	r2, r2, r0
 932              		.loc 1 160 11 view .LVU217
 933 00e8 E4B2     		uxtb	r4, r4
 158:User/e-Paper/paint_sensor.c **** 			__LL_RTC_CONVERT_BCD2BIN(LL_RTC_DATE_GetDay(RTC)),
 934              		.loc 1 158 2 view .LVU218
 935 00ea 0B48     		ldr	r0, .L18+12
 936 00ec 6444     		add	r4, r4, ip
 937 00ee 0094     		str	r4, [sp]
 938 00f0 0400     		movs	r4, r0
 939 00f2 DBB2     		uxtb	r3, r3
 940 00f4 0949     		ldr	r1, .L18+16
 941 00f6 FFF7FEFF 		bl	sprintf_
 942              	.LVL48:
 161:User/e-Paper/paint_sensor.c **** 	printf("%s\t %s\n", aEndTime, aEndDate);
 943              		.loc 1 161 2 is_stmt 1 view .LVU219
 944 00fa 2200     		movs	r2, r4
 945 00fc 3900     		movs	r1, r7
 946 00fe 0848     		ldr	r0, .L18+20
 947 0100 FFF7FEFF 		bl	printf_
 948              	.LVL49:
 162:User/e-Paper/paint_sensor.c **** }
 949              		.loc 1 162 1 is_stmt 0 view .LVU220
 950 0104 02B0     		add	sp, sp, #8
 951              		@ sp needed
 952 0106 80BC     		pop	{r7}
 953 0108 B846     		mov	r8, r7
 954 010a F0BD     		pop	{r4, r5, r6, r7, pc}
 955              	.L19:
 956              		.align	2
 957              	.L18:
 958 010c 00280040 		.word	1073752064
 959 0110 00000000 		.word	aEndTime
 960 0114 00000000 		.word	.LC25
 961 0118 00000000 		.word	aEndDate
ARM GAS  C:\Users\upo\AppData\Local\Temp\ccWo9sLk.s 			page 51


 962 011c 10000000 		.word	.LC28
 963 0120 20000000 		.word	.LC31
 964              		.cfi_endproc
 965              	.LFE1430:
 967              		.section	.rodata.final_message.str1.4,"aMS",%progbits,1
 968              		.align	2
 969              	.LC34:
 970 0000 256400   		.ascii	"%d\000"
 971 0003 00       		.align	2
 972              	.LC38:
 973 0004 56626174 		.ascii	"Vbat:\000"
 973      3A00
 974 000a 0000     		.align	2
 975              	.LC40:
 976 000c 456E6454 		.ascii	"EndTime:\000"
 976      696D653A 
 976      00
 977              		.section	.text.final_message,"ax",%progbits
 978              		.align	1
 979              		.p2align 2,,3
 980              		.global	final_message
 981              		.syntax unified
 982              		.code	16
 983              		.thumb_func
 985              	final_message:
 986              	.LVL50:
 987              	.LFB1429:
 126:User/e-Paper/paint_sensor.c **** 
 988              		.loc 1 126 1 is_stmt 1 view -0
 989              		.cfi_startproc
 990              		@ args = 0, pretend = 0, frame = 0
 991              		@ frame_needed = 0, uses_anonymous_args = 0
 128:User/e-Paper/paint_sensor.c **** 	uint16_t Xstart = 5;
 992              		.loc 1 128 2 view .LVU222
 126:User/e-Paper/paint_sensor.c **** 
 993              		.loc 1 126 1 is_stmt 0 view .LVU223
 994 0000 F0B5     		push	{r4, r5, r6, r7, lr}
 995              	.LCFI11:
 996              		.cfi_def_cfa_offset 20
 997              		.cfi_offset 4, -20
 998              		.cfi_offset 5, -16
 999              		.cfi_offset 6, -12
 1000              		.cfi_offset 7, -8
 1001              		.cfi_offset 14, -4
 1002 0002 C646     		mov	lr, r8
 1003 0004 0400     		movs	r4, r0
 1004 0006 00B5     		push	{lr}
 1005              	.LCFI12:
 1006              		.cfi_def_cfa_offset 24
 1007              		.cfi_offset 8, -24
 137:User/e-Paper/paint_sensor.c **** 	Paint_DrawString_EN(Xstart + 7 * 10, Ystart, str_array, &calibri_20pts, WHITE, BLACK);
 1008              		.loc 1 137 2 view .LVU224
 1009 0008 0026     		movs	r6, #0
 1010 000a FF25     		movs	r5, #255
 126:User/e-Paper/paint_sensor.c **** 
 1011              		.loc 1 126 1 view .LVU225
 1012 000c 82B0     		sub	sp, sp, #8
ARM GAS  C:\Users\upo\AppData\Local\Temp\ccWo9sLk.s 			page 52


 1013              	.LCFI13:
 1014              		.cfi_def_cfa_offset 32
 128:User/e-Paper/paint_sensor.c **** 	uint16_t Xstart = 5;
 1015              		.loc 1 128 2 view .LVU226
 1016 000e FFF7FEFF 		bl	ESP_Init
 1017              	.LVL51:
 129:User/e-Paper/paint_sensor.c **** 	uint16_t Ystart = 2;
 1018              		.loc 1 129 2 is_stmt 1 view .LVU227
 130:User/e-Paper/paint_sensor.c **** 
 1019              		.loc 1 130 2 view .LVU228
 132:User/e-Paper/paint_sensor.c **** 	Paint_SelectImage(BlackImage); // Paint.Image = image;
 1020              		.loc 1 132 2 view .LVU229
 1021 0012 FFF7FEFF 		bl	EPD_1IN54_V2_Init
 1022              	.LVL52:
 133:User/e-Paper/paint_sensor.c **** 	Paint_Clear(WHITE);
 1023              		.loc 1 133 2 view .LVU230
 1024 0016 214B     		ldr	r3, .L21
 1025 0018 9846     		mov	r8, r3
 1026 001a 1868     		ldr	r0, [r3]
 1027 001c FFF7FEFF 		bl	Paint_SelectImage
 1028              	.LVL53:
 134:User/e-Paper/paint_sensor.c **** 
 1029              		.loc 1 134 2 view .LVU231
 1030 0020 FF20     		movs	r0, #255
 1031 0022 FFF7FEFF 		bl	Paint_Clear
 1032              	.LVL54:
 136:User/e-Paper/paint_sensor.c **** 	Paint_DrawString_EN(Xstart, Ystart, "Vbat:", &calibri_20pts, WHITE, BLACK); // font size 17,24
 1033              		.loc 1 136 2 view .LVU232
 1034 0026 1E4F     		ldr	r7, .L21+4
 1035 0028 2200     		movs	r2, r4
 1036 002a 3800     		movs	r0, r7
 1037 002c 1D49     		ldr	r1, .L21+8
 1038 002e FFF7FEFF 		bl	sprintf_
 1039              	.LVL55:
 137:User/e-Paper/paint_sensor.c **** 	Paint_DrawString_EN(Xstart + 7 * 10, Ystart, str_array, &calibri_20pts, WHITE, BLACK);
 1040              		.loc 1 137 2 view .LVU233
 1041 0032 1D4C     		ldr	r4, .L21+12
 1042 0034 0221     		movs	r1, #2
 1043 0036 2300     		movs	r3, r4
 1044 0038 0520     		movs	r0, #5
 1045 003a 1C4A     		ldr	r2, .L21+16
 1046 003c 0196     		str	r6, [sp, #4]
 1047 003e 0095     		str	r5, [sp]
 1048 0040 FFF7FEFF 		bl	Paint_DrawString_EN
 1049              	.LVL56:
 138:User/e-Paper/paint_sensor.c **** 
 1050              		.loc 1 138 2 view .LVU234
 1051 0044 2300     		movs	r3, r4
 1052 0046 3A00     		movs	r2, r7
 1053 0048 0221     		movs	r1, #2
 1054 004a 4B20     		movs	r0, #75
 1055 004c 0196     		str	r6, [sp, #4]
 1056 004e 0095     		str	r5, [sp]
 1057 0050 FFF7FEFF 		bl	Paint_DrawString_EN
 1058              	.LVL57:
 140:User/e-Paper/paint_sensor.c **** 	Paint_DrawString_EN(Xstart, Ystart + 75, "EndTime:", &calibri_20pts, WHITE, BLACK);
 1059              		.loc 1 140 2 view .LVU235
ARM GAS  C:\Users\upo\AppData\Local\Temp\ccWo9sLk.s 			page 53


 1060 0054 FFF7FEFF 		bl	Show_RTC_Calendar
 1061              	.LVL58:
 141:User/e-Paper/paint_sensor.c **** 	Paint_DrawString_EN(Xstart, Ystart + 100, aEndTime, &calibri_20pts, WHITE, BLACK);
 1062              		.loc 1 141 2 view .LVU236
 1063 0058 2300     		movs	r3, r4
 1064 005a 4D21     		movs	r1, #77
 1065 005c 0520     		movs	r0, #5
 1066 005e 144A     		ldr	r2, .L21+20
 1067 0060 0196     		str	r6, [sp, #4]
 1068 0062 0095     		str	r5, [sp]
 1069 0064 FFF7FEFF 		bl	Paint_DrawString_EN
 1070              	.LVL59:
 142:User/e-Paper/paint_sensor.c **** 	Paint_DrawString_EN(Xstart + 6 * 10 + 20, Ystart + 100, aEndDate, &calibri_20pts, WHITE, BLACK);
 1071              		.loc 1 142 2 view .LVU237
 1072 0068 2300     		movs	r3, r4
 1073 006a 6621     		movs	r1, #102
 1074 006c 0520     		movs	r0, #5
 1075 006e 114A     		ldr	r2, .L21+24
 1076 0070 0196     		str	r6, [sp, #4]
 1077 0072 0095     		str	r5, [sp]
 1078 0074 FFF7FEFF 		bl	Paint_DrawString_EN
 1079              	.LVL60:
 143:User/e-Paper/paint_sensor.c **** 
 1080              		.loc 1 143 2 view .LVU238
 1081 0078 6621     		movs	r1, #102
 1082 007a 0F4A     		ldr	r2, .L21+28
 1083 007c 2300     		movs	r3, r4
 1084 007e 5520     		movs	r0, #85
 1085 0080 0196     		str	r6, [sp, #4]
 1086 0082 0095     		str	r5, [sp]
 1087 0084 FFF7FEFF 		bl	Paint_DrawString_EN
 1088              	.LVL61:
 145:User/e-Paper/paint_sensor.c **** 	EPD_1IN54_V2_Sleep();
 1089              		.loc 1 145 2 view .LVU239
 1090 0088 4346     		mov	r3, r8
 1091 008a 1868     		ldr	r0, [r3]
 1092 008c FFF7FEFF 		bl	EPD_1IN54_V2_Display
 1093              	.LVL62:
 146:User/e-Paper/paint_sensor.c **** }
 1094              		.loc 1 146 2 view .LVU240
 1095 0090 FFF7FEFF 		bl	EPD_1IN54_V2_Sleep
 1096              	.LVL63:
 147:User/e-Paper/paint_sensor.c **** 
 1097              		.loc 1 147 1 is_stmt 0 view .LVU241
 1098 0094 02B0     		add	sp, sp, #8
 1099              		@ sp needed
 1100 0096 80BC     		pop	{r7}
 1101 0098 B846     		mov	r8, r7
 1102 009a F0BD     		pop	{r4, r5, r6, r7, pc}
 1103              	.L22:
 1104              		.align	2
 1105              	.L21:
 1106 009c 00000000 		.word	BlackImage
 1107 00a0 00000000 		.word	str_array
 1108 00a4 00000000 		.word	.LC34
 1109 00a8 00000000 		.word	calibri_20pts
 1110 00ac 04000000 		.word	.LC38
ARM GAS  C:\Users\upo\AppData\Local\Temp\ccWo9sLk.s 			page 54


 1111 00b0 0C000000 		.word	.LC40
 1112 00b4 00000000 		.word	aEndTime
 1113 00b8 00000000 		.word	aEndDate
 1114              		.cfi_endproc
 1115              	.LFE1429:
 1117              		.section	.rodata.ESP_Init_after_sleep.str1.4,"aMS",%progbits,1
 1118              		.align	2
 1119              	.LC44:
 1120 0000 4553505F 		.ascii	"ESP_Init_after_sleep\012\000"
 1120      496E6974 
 1120      5F616674 
 1120      65725F73 
 1120      6C656570 
 1121              		.section	.text.ESP_Init_after_sleep,"ax",%progbits
 1122              		.align	1
 1123              		.p2align 2,,3
 1124              		.global	ESP_Init_after_sleep
 1125              		.syntax unified
 1126              		.code	16
 1127              		.thumb_func
 1129              	ESP_Init_after_sleep:
 1130              	.LFB1431:
 163:User/e-Paper/paint_sensor.c **** 
 164:User/e-Paper/paint_sensor.c **** //	****************_ ESP_Init_after_sleep, screen hold previous image_**************
 165:User/e-Paper/paint_sensor.c **** int ESP_Init_after_sleep(void)
 166:User/e-Paper/paint_sensor.c **** {
 1131              		.loc 1 166 1 is_stmt 1 view -0
 1132              		.cfi_startproc
 1133              		@ args = 0, pretend = 0, frame = 0
 1134              		@ frame_needed = 0, uses_anonymous_args = 0
 167:User/e-Paper/paint_sensor.c **** 	printf("ESP_Init_after_sleep\n");
 1135              		.loc 1 167 2 view .LVU243
 166:User/e-Paper/paint_sensor.c **** 	printf("ESP_Init_after_sleep\n");
 1136              		.loc 1 166 1 is_stmt 0 view .LVU244
 1137 0000 F0B5     		push	{r4, r5, r6, r7, lr}
 1138              	.LCFI14:
 1139              		.cfi_def_cfa_offset 20
 1140              		.cfi_offset 4, -20
 1141              		.cfi_offset 5, -16
 1142              		.cfi_offset 6, -12
 1143              		.cfi_offset 7, -8
 1144              		.cfi_offset 14, -4
 1145 0002 C646     		mov	lr, r8
 1146 0004 00B5     		push	{lr}
 1147              	.LCFI15:
 1148              		.cfi_def_cfa_offset 24
 1149              		.cfi_offset 8, -24
 1150              		.loc 1 167 2 view .LVU245
 1151 0006 4B48     		ldr	r0, .L27
 166:User/e-Paper/paint_sensor.c **** 	printf("ESP_Init_after_sleep\n");
 1152              		.loc 1 166 1 view .LVU246
 1153 0008 84B0     		sub	sp, sp, #16
 1154              	.LCFI16:
 1155              		.cfi_def_cfa_offset 40
 1156              		.loc 1 167 2 view .LVU247
 1157 000a FFF7FEFF 		bl	printf_
 1158              	.LVL64:
ARM GAS  C:\Users\upo\AppData\Local\Temp\ccWo9sLk.s 			page 55


 168:User/e-Paper/paint_sensor.c **** 	// Create a new image cache
 169:User/e-Paper/paint_sensor.c **** 	/* !!!  you have to edit the startup_stm32fxxx.s file and set a heap size = 1400 !!!  */
 170:User/e-Paper/paint_sensor.c **** 	UWORD Imagesize = ((EPD_1IN54_V2_WIDTH % 8 == 0) ? (EPD_1IN54_V2_WIDTH / 8) : (EPD_1IN54_V2_WIDTH 
 1159              		.loc 1 170 2 is_stmt 1 view .LVU248
 171:User/e-Paper/paint_sensor.c **** 	if ((BlackImage = (UBYTE *)malloc(Imagesize)) == NULL)
 1160              		.loc 1 171 2 view .LVU249
 1161              		.loc 1 171 29 is_stmt 0 view .LVU250
 1162 000e 4A48     		ldr	r0, .L27+4
 1163 0010 FFF7FEFF 		bl	malloc
 1164              	.LVL65:
 1165              		.loc 1 171 18 view .LVU251
 1166 0014 494C     		ldr	r4, .L27+8
 1167 0016 2060     		str	r0, [r4]
 1168              		.loc 1 171 5 view .LVU252
 1169 0018 0028     		cmp	r0, #0
 1170 001a 00D1     		bne	.LCB956
 1171 001c 83E0     		b	.L26	@long jump
 1172              	.LCB956:
 172:User/e-Paper/paint_sensor.c **** 	{
 173:User/e-Paper/paint_sensor.c **** 		printf("Failed to apply for black memory...\r\n");
 174:User/e-Paper/paint_sensor.c **** 		return -1;
 175:User/e-Paper/paint_sensor.c **** 	}
 176:User/e-Paper/paint_sensor.c **** 	Paint_NewImage(BlackImage, EPD_1IN54_V2_WIDTH, EPD_1IN54_V2_HEIGHT, 0, WHITE);
 1173              		.loc 1 176 2 is_stmt 1 view .LVU253
 1174 001e FF26     		movs	r6, #255
 1175 0020 0023     		movs	r3, #0
 1176 0022 C822     		movs	r2, #200
 1177 0024 C821     		movs	r1, #200
 1178 0026 0096     		str	r6, [sp]
 1179 0028 FFF7FEFF 		bl	Paint_NewImage
 1180              	.LVL66:
 177:User/e-Paper/paint_sensor.c **** 
 178:User/e-Paper/paint_sensor.c **** 	// Drawing on the image ======================================================
 179:User/e-Paper/paint_sensor.c **** 	//    INFO("Drawing\r\n");
 180:User/e-Paper/paint_sensor.c **** 
 181:User/e-Paper/paint_sensor.c **** 	Paint_SelectImage(BlackImage); // Paint.Image = image;
 1181              		.loc 1 181 2 view .LVU254
 1182 002c 2068     		ldr	r0, [r4]
 1183 002e FFF7FEFF 		bl	Paint_SelectImage
 1184              	.LVL67:
 182:User/e-Paper/paint_sensor.c **** 	Paint_Clear(WHITE);
 1185              		.loc 1 182 2 view .LVU255
 1186 0032 FF20     		movs	r0, #255
 183:User/e-Paper/paint_sensor.c **** 	Paint_DrawRectangle(2, 3, 198, 140, BLACK, DOT_PIXEL_2X2, DRAW_FILL_EMPTY);
 1187              		.loc 1 183 2 is_stmt 0 view .LVU256
 1188 0034 0025     		movs	r5, #0
 182:User/e-Paper/paint_sensor.c **** 	Paint_Clear(WHITE);
 1189              		.loc 1 182 2 view .LVU257
 1190 0036 FFF7FEFF 		bl	Paint_Clear
 1191              	.LVL68:
 1192              		.loc 1 183 2 is_stmt 1 view .LVU258
 1193 003a 0223     		movs	r3, #2
 1194 003c C622     		movs	r2, #198
 1195 003e 0321     		movs	r1, #3
 1196 0040 0220     		movs	r0, #2
 1197 0042 0193     		str	r3, [sp, #4]
 1198 0044 0295     		str	r5, [sp, #8]
ARM GAS  C:\Users\upo\AppData\Local\Temp\ccWo9sLk.s 			page 56


 1199 0046 8A33     		adds	r3, r3, #138
 1200 0048 0095     		str	r5, [sp]
 1201 004a FFF7FEFF 		bl	Paint_DrawRectangle
 1202              	.LVL69:
 184:User/e-Paper/paint_sensor.c **** 
 185:User/e-Paper/paint_sensor.c **** 	// T
 186:User/e-Paper/paint_sensor.c **** 	sprintf(str_array, "%3d", T_old);
 1203              		.loc 1 186 2 view .LVU259
 1204 004e 3C4C     		ldr	r4, .L27+12
 1205 0050 3C4F     		ldr	r7, .L27+16
 1206 0052 3D4B     		ldr	r3, .L27+20
 1207 0054 3900     		movs	r1, r7
 1208 0056 1A88     		ldrh	r2, [r3]
 1209 0058 2000     		movs	r0, r4
 1210 005a FFF7FEFF 		bl	sprintf_
 1211              	.LVL70:
 187:User/e-Paper/paint_sensor.c **** 	Paint_DrawChar(big_1.x, big_1.y, str_array[0], &calibri_104pts, BLACK, WHITE); // 15 ms
 1212              		.loc 1 187 2 view .LVU260
 1213 005e 3B4B     		ldr	r3, .L27+24
 1214 0060 2278     		ldrb	r2, [r4]
 1215 0062 9846     		mov	r8, r3
 1216 0064 1E21     		movs	r1, #30
 1217 0066 0A20     		movs	r0, #10
 1218 0068 0196     		str	r6, [sp, #4]
 1219 006a 0095     		str	r5, [sp]
 1220 006c FFF7FEFF 		bl	Paint_DrawChar
 1221              	.LVL71:
 188:User/e-Paper/paint_sensor.c **** 	Paint_DrawChar(big_0.x, big_0.y, str_array[1], &calibri_104pts, BLACK, WHITE);
 1222              		.loc 1 188 2 view .LVU261
 1223 0070 6278     		ldrb	r2, [r4, #1]
 1224 0072 4346     		mov	r3, r8
 1225 0074 1E21     		movs	r1, #30
 1226 0076 4320     		movs	r0, #67
 1227 0078 0196     		str	r6, [sp, #4]
 1228 007a 0095     		str	r5, [sp]
 1229 007c FFF7FEFF 		bl	Paint_DrawChar
 1230              	.LVL72:
 189:User/e-Paper/paint_sensor.c **** 	Paint_DrawPoint(131, 100, BLACK, DOT_PIXEL_5X5, DOT_FILL_AROUND); // Draw decimal point
 1231              		.loc 1 189 2 view .LVU262
 1232 0080 0123     		movs	r3, #1
 1233 0082 0022     		movs	r2, #0
 1234 0084 6421     		movs	r1, #100
 1235 0086 8320     		movs	r0, #131
 1236 0088 0093     		str	r3, [sp]
 1237 008a 0433     		adds	r3, r3, #4
 1238 008c FFF7FEFF 		bl	Paint_DrawPoint
 1239              	.LVL73:
 190:User/e-Paper/paint_sensor.c **** 	Paint_DrawChar(small_0.x, small_0.y, str_array[2], &calibri_80pts, BLACK, WHITE);
 1240              		.loc 1 190 2 view .LVU263
 1241 0090 A278     		ldrb	r2, [r4, #2]
 1242 0092 2E21     		movs	r1, #46
 1243 0094 8E20     		movs	r0, #142
 1244 0096 2E4B     		ldr	r3, .L27+28
 1245 0098 0196     		str	r6, [sp, #4]
 1246 009a 0095     		str	r5, [sp]
 1247 009c FFF7FEFF 		bl	Paint_DrawChar
 1248              	.LVL74:
ARM GAS  C:\Users\upo\AppData\Local\Temp\ccWo9sLk.s 			page 57


 191:User/e-Paper/paint_sensor.c **** 
 192:User/e-Paper/paint_sensor.c **** 	// hum
 193:User/e-Paper/paint_sensor.c **** 	uint8_t x = 125;
 1249              		.loc 1 193 2 view .LVU264
 194:User/e-Paper/paint_sensor.c **** 	uint8_t y = 150;
 1250              		.loc 1 194 2 view .LVU265
 195:User/e-Paper/paint_sensor.c **** 	// char pcent = '%';
 196:User/e-Paper/paint_sensor.c **** 	//  sprintf(str_array, "%2d%%", H_old);
 197:User/e-Paper/paint_sensor.c **** 	snprintf(str_array, sizeof(str_array), "%2d", H_old); // Format the number
 1251              		.loc 1 197 2 view .LVU266
 1252 00a0 2C4B     		ldr	r3, .L27+32
 1253 00a2 0721     		movs	r1, #7
 1254 00a4 1B88     		ldrh	r3, [r3]
 1255 00a6 2C4A     		ldr	r2, .L27+36
 1256 00a8 2000     		movs	r0, r4
 1257 00aa FFF7FEFF 		bl	snprintf_
 1258              	.LVL75:
 198:User/e-Paper/paint_sensor.c **** 	// append % to string
 199:User/e-Paper/paint_sensor.c **** 	// strncat(str_array, &pcent, 1);
 200:User/e-Paper/paint_sensor.c **** 	strncat(str_array, "%", sizeof(str_array) - strlen(str_array) - 1);			// Append %
 1259              		.loc 1 200 2 view .LVU267
 1260              		.loc 1 200 46 is_stmt 0 view .LVU268
 1261 00ae 2000     		movs	r0, r4
 1262 00b0 FFF7FEFF 		bl	strlen
 1263              	.LVL76:
 1264              		.loc 1 200 2 view .LVU269
 1265 00b4 0622     		movs	r2, #6
 1266 00b6 2949     		ldr	r1, .L27+40
 1267 00b8 121A     		subs	r2, r2, r0
 1268 00ba 2000     		movs	r0, r4
 1269 00bc FFF7FEFF 		bl	strncat
 1270              	.LVL77:
 201:User/e-Paper/paint_sensor.c **** 	Paint_DrawString_EN(x, y, (char *)str_array, &calibri_36pts, WHITE, BLACK); // 20, 34
 1271              		.loc 1 201 2 is_stmt 1 view .LVU270
 1272 00c0 2200     		movs	r2, r4
 1273 00c2 9621     		movs	r1, #150
 1274 00c4 7D20     		movs	r0, #125
 1275 00c6 264B     		ldr	r3, .L27+44
 1276 00c8 0195     		str	r5, [sp, #4]
 1277 00ca 0096     		str	r6, [sp]
 1278 00cc FFF7FEFF 		bl	Paint_DrawString_EN
 1279              	.LVL78:
 202:User/e-Paper/paint_sensor.c **** 
 203:User/e-Paper/paint_sensor.c **** 	// battery voltage
 204:User/e-Paper/paint_sensor.c **** 	x = 3;
 1280              		.loc 1 204 2 view .LVU271
 205:User/e-Paper/paint_sensor.c **** 	y = 160;
 1281              		.loc 1 205 2 view .LVU272
 206:User/e-Paper/paint_sensor.c **** 	sprintf(str_array, "%3d", vbat_old);
 1282              		.loc 1 206 2 view .LVU273
 1283 00d0 244B     		ldr	r3, .L27+48
 1284 00d2 3900     		movs	r1, r7
 1285 00d4 1A88     		ldrh	r2, [r3]
 1286 00d6 2000     		movs	r0, r4
 1287 00d8 FFF7FEFF 		bl	sprintf_
 1288              	.LVL79:
 207:User/e-Paper/paint_sensor.c **** 
ARM GAS  C:\Users\upo\AppData\Local\Temp\ccWo9sLk.s 			page 58


 208:User/e-Paper/paint_sensor.c **** 	Paint_ClearWindows(x, y, x + 40, y + 29, WHITE);
 1289              		.loc 1 208 2 view .LVU274
 1290 00dc BD23     		movs	r3, #189
 1291 00de 2B22     		movs	r2, #43
 1292 00e0 A021     		movs	r1, #160
 1293 00e2 0320     		movs	r0, #3
 1294 00e4 0096     		str	r6, [sp]
 1295 00e6 FFF7FEFF 		bl	Paint_ClearWindows
 1296              	.LVL80:
 209:User/e-Paper/paint_sensor.c **** 	Paint_DrawChar(x, y, str_array[0], &calibri_24pts, BLACK, WHITE); // 	12, 29, 8
 1297              		.loc 1 209 2 view .LVU275
 1298 00ea 1F4F     		ldr	r7, .L27+52
 1299 00ec 2278     		ldrb	r2, [r4]
 1300 00ee 3B00     		movs	r3, r7
 1301 00f0 A021     		movs	r1, #160
 1302 00f2 0320     		movs	r0, #3
 1303 00f4 0196     		str	r6, [sp, #4]
 1304 00f6 0095     		str	r5, [sp]
 1305 00f8 FFF7FEFF 		bl	Paint_DrawChar
 1306              	.LVL81:
 210:User/e-Paper/paint_sensor.c **** 	Paint_DrawChar(x + 12, y, str_array[1], &calibri_24pts, BLACK, WHITE);
 1307              		.loc 1 210 2 view .LVU276
 1308 00fc 6278     		ldrb	r2, [r4, #1]
 1309 00fe 3B00     		movs	r3, r7
 1310 0100 A021     		movs	r1, #160
 1311 0102 0F20     		movs	r0, #15
 1312 0104 0196     		str	r6, [sp, #4]
 1313 0106 0095     		str	r5, [sp]
 1314 0108 FFF7FEFF 		bl	Paint_DrawChar
 1315              	.LVL82:
 211:User/e-Paper/paint_sensor.c **** 	Paint_DrawChar(x + 12 + 12, y, str_array[2], &calibri_24pts, BLACK, WHITE);
 1316              		.loc 1 211 2 view .LVU277
 1317 010c A278     		ldrb	r2, [r4, #2]
 1318 010e 1B20     		movs	r0, #27
 1319 0110 3B00     		movs	r3, r7
 1320 0112 A021     		movs	r1, #160
 1321 0114 0196     		str	r6, [sp, #4]
 1322 0116 0095     		str	r5, [sp]
 1323 0118 FFF7FEFF 		bl	Paint_DrawChar
 1324              	.LVL83:
 212:User/e-Paper/paint_sensor.c **** 
 213:User/e-Paper/paint_sensor.c **** 	//		EPD_1IN54_V2_Display(BlackImage);
 214:User/e-Paper/paint_sensor.c **** 	//		EPD_1IN54_V2_DisplayPartBaseImage(BlackImage);
 215:User/e-Paper/paint_sensor.c **** 	//		EPD_1IN54_V2_Init_Partial();
 216:User/e-Paper/paint_sensor.c **** 
 217:User/e-Paper/paint_sensor.c **** 	return 0;
 1325              		.loc 1 217 2 view .LVU278
 1326              		.loc 1 217 9 is_stmt 0 view .LVU279
 1327 011c 0020     		movs	r0, #0
 1328              	.LVL84:
 1329              	.L23:
 218:User/e-Paper/paint_sensor.c **** }
 1330              		.loc 1 218 1 view .LVU280
 1331 011e 04B0     		add	sp, sp, #16
 1332              		@ sp needed
 1333 0120 80BC     		pop	{r7}
 1334 0122 B846     		mov	r8, r7
ARM GAS  C:\Users\upo\AppData\Local\Temp\ccWo9sLk.s 			page 59


 1335 0124 F0BD     		pop	{r4, r5, r6, r7, pc}
 1336              	.L26:
 173:User/e-Paper/paint_sensor.c **** 		return -1;
 1337              		.loc 1 173 3 is_stmt 1 view .LVU281
 1338 0126 1148     		ldr	r0, .L27+56
 1339 0128 FFF7FEFF 		bl	printf_
 1340              	.LVL85:
 174:User/e-Paper/paint_sensor.c **** 	}
 1341              		.loc 1 174 3 view .LVU282
 174:User/e-Paper/paint_sensor.c **** 	}
 1342              		.loc 1 174 10 is_stmt 0 view .LVU283
 1343 012c 0120     		movs	r0, #1
 1344 012e 4042     		rsbs	r0, r0, #0
 1345 0130 F5E7     		b	.L23
 1346              	.L28:
 1347 0132 C046     		.align	2
 1348              	.L27:
 1349 0134 00000000 		.word	.LC44
 1350 0138 88130000 		.word	5000
 1351 013c 00000000 		.word	BlackImage
 1352 0140 00000000 		.word	str_array
 1353 0144 0C000000 		.word	.LC8
 1354 0148 00000000 		.word	T_old
 1355 014c 00000000 		.word	calibri_104pts
 1356 0150 00000000 		.word	calibri_80pts
 1357 0154 00000000 		.word	H_old
 1358 0158 10000000 		.word	.LC2
 1359 015c 0C000000 		.word	.LC17
 1360 0160 00000000 		.word	calibri_36pts
 1361 0164 00000000 		.word	vbat_old
 1362 0168 00000000 		.word	calibri_24pts
 1363 016c 0C000000 		.word	.LC23
 1364              		.cfi_endproc
 1365              	.LFE1431:
 1367              		.section	.bss.str_array,"aw",%nobits
 1368              		.align	2
 1371              	str_array:
 1372 0000 00000000 		.space	7
 1372      000000
 1373              		.global	BlackImage
 1374              		.section	.bss.BlackImage,"aw",%nobits
 1375              		.align	2
 1378              	BlackImage:
 1379 0000 00000000 		.space	4
 1380              		.section	.bss.aEndDate,"aw",%nobits
 1381              		.align	2
 1384              	aEndDate:
 1385 0000 00000000 		.space	20
 1385      00000000 
 1385      00000000 
 1385      00000000 
 1385      00000000 
 1386              		.section	.bss.aEndTime,"aw",%nobits
 1387              		.align	2
 1390              	aEndTime:
 1391 0000 00000000 		.space	20
 1391      00000000 
ARM GAS  C:\Users\upo\AppData\Local\Temp\ccWo9sLk.s 			page 60


 1391      00000000 
 1391      00000000 
 1391      00000000 
 1392              		.text
 1393              	.Letext0:
 1394              		.file 3 "C:\\ST\\STM32CubeCLT_1.15.0\\GNU-tools-for-STM32\\bin/../lib/gcc/arm-none-eabi/12.3.1/../
 1395              		.file 4 "C:\\ST\\STM32CubeCLT_1.15.0\\GNU-tools-for-STM32\\bin/../lib/gcc/arm-none-eabi/12.3.1/../
 1396              		.file 5 "C:\\ST\\STM32CubeCLT_1.15.0\\GNU-tools-for-STM32\\bin/../lib/gcc/arm-none-eabi/12.3.1/inc
 1397              		.file 6 "Drivers/CMSIS/Device/ST/STM32U0xx/Include/stm32u073xx.h"
 1398              		.file 7 "Drivers/STM32U0xx_HAL_Driver/Inc/stm32u0xx_ll_dma.h"
 1399              		.file 8 "Drivers/STM32U0xx_HAL_Driver/Inc/stm32u0xx_ll_usart.h"
 1400              		.file 9 "User/e-Paper/fonts.h"
 1401              		.file 10 "User/e-Paper/GUI_Paint.h"
 1402              		.file 11 "User/e-Paper/EPD_1in54_V2.h"
 1403              		.file 12 "C:\\ST\\STM32CubeCLT_1.15.0\\GNU-tools-for-STM32\\bin/../lib/gcc/arm-none-eabi/12.3.1/..
 1404              		.file 13 "C:\\ST\\STM32CubeCLT_1.15.0\\GNU-tools-for-STM32\\bin/../lib/gcc/arm-none-eabi/12.3.1/..
 1405              		.file 14 "C:\\ST\\STM32CubeCLT_1.15.0\\GNU-tools-for-STM32\\bin/../lib/gcc/arm-none-eabi/12.3.1/..
 1406              		.file 15 "User/e-Paper/DEV_Config.h"
ARM GAS  C:\Users\upo\AppData\Local\Temp\ccWo9sLk.s 			page 61

