ARM GAS  C:\Users\upo\AppData\Local\Temp\ccxPTaYC.s 			page 1


   1              		.cpu cortex-m0plus
   2              		.arch armv6s-m
   3              		.fpu softvfp
   4              		.eabi_attribute 20, 1
   5              		.eabi_attribute 21, 1
   6              		.eabi_attribute 23, 3
   7              		.eabi_attribute 24, 1
   8              		.eabi_attribute 25, 1
   9              		.eabi_attribute 26, 1
  10              		.eabi_attribute 30, 1
  11              		.eabi_attribute 34, 0
  12              		.eabi_attribute 18, 4
  13              		.file	"rtc.c"
  14              		.text
  15              	.Ltext0:
  16              		.cfi_sections	.debug_frame
  17              		.file 1 "Core/Src/rtc.c"
  18              		.section	.text.MX_RTC_Init,"ax",%progbits
  19              		.align	1
  20              		.global	MX_RTC_Init
  21              		.syntax unified
  22              		.code	16
  23              		.thumb_func
  25              	MX_RTC_Init:
  26              	.LFB426:
   1:Core/Src/rtc.c **** /* USER CODE BEGIN Header */
   2:Core/Src/rtc.c **** /**
   3:Core/Src/rtc.c ****   ******************************************************************************
   4:Core/Src/rtc.c ****   * @file    rtc.c
   5:Core/Src/rtc.c ****   * @brief   This file provides code for the configuration
   6:Core/Src/rtc.c ****   *          of the RTC instances.
   7:Core/Src/rtc.c ****   ******************************************************************************
   8:Core/Src/rtc.c ****   * @attention
   9:Core/Src/rtc.c ****   *
  10:Core/Src/rtc.c ****   * Copyright (c) 2024 STMicroelectronics.
  11:Core/Src/rtc.c ****   * All rights reserved.
  12:Core/Src/rtc.c ****   *
  13:Core/Src/rtc.c ****   * This software is licensed under terms that can be found in the LICENSE file
  14:Core/Src/rtc.c ****   * in the root directory of this software component.
  15:Core/Src/rtc.c ****   * If no LICENSE file comes with this software, it is provided AS-IS.
  16:Core/Src/rtc.c ****   *
  17:Core/Src/rtc.c ****   ******************************************************************************
  18:Core/Src/rtc.c ****   */
  19:Core/Src/rtc.c **** /* USER CODE END Header */
  20:Core/Src/rtc.c **** /* Includes ------------------------------------------------------------------*/
  21:Core/Src/rtc.c **** #include "rtc.h"
  22:Core/Src/rtc.c **** 
  23:Core/Src/rtc.c **** /* USER CODE BEGIN 0 */
  24:Core/Src/rtc.c **** 
  25:Core/Src/rtc.c **** /* USER CODE END 0 */
  26:Core/Src/rtc.c **** 
  27:Core/Src/rtc.c **** RTC_HandleTypeDef hrtc;
  28:Core/Src/rtc.c **** 
  29:Core/Src/rtc.c **** /* RTC init function */
  30:Core/Src/rtc.c **** void MX_RTC_Init(void)
  31:Core/Src/rtc.c **** {
  27              		.loc 1 31 1 view -0
ARM GAS  C:\Users\upo\AppData\Local\Temp\ccxPTaYC.s 			page 2


  28              		.cfi_startproc
  29              		@ args = 0, pretend = 0, frame = 0
  30              		@ frame_needed = 0, uses_anonymous_args = 0
  31 0000 10B5     		push	{r4, lr}
  32              	.LCFI0:
  33              		.cfi_def_cfa_offset 8
  34              		.cfi_offset 4, -8
  35              		.cfi_offset 14, -4
  32:Core/Src/rtc.c **** 
  33:Core/Src/rtc.c ****   /* USER CODE BEGIN RTC_Init 0 */
  34:Core/Src/rtc.c **** 
  35:Core/Src/rtc.c ****   /* USER CODE END RTC_Init 0 */
  36:Core/Src/rtc.c **** 
  37:Core/Src/rtc.c ****   /* USER CODE BEGIN RTC_Init 1 */
  38:Core/Src/rtc.c **** 
  39:Core/Src/rtc.c ****   /* USER CODE END RTC_Init 1 */
  40:Core/Src/rtc.c **** 
  41:Core/Src/rtc.c ****   /** Initialize RTC Only
  42:Core/Src/rtc.c ****   */
  43:Core/Src/rtc.c ****   hrtc.Instance = RTC;
  36              		.loc 1 43 3 view .LVU1
  37              		.loc 1 43 17 is_stmt 0 view .LVU2
  38 0002 1148     		ldr	r0, .L6
  39 0004 114B     		ldr	r3, .L6+4
  40 0006 0360     		str	r3, [r0]
  44:Core/Src/rtc.c ****   hrtc.Init.HourFormat = RTC_HOURFORMAT_24;
  41              		.loc 1 44 3 is_stmt 1 view .LVU3
  42              		.loc 1 44 24 is_stmt 0 view .LVU4
  43 0008 0023     		movs	r3, #0
  44 000a 4360     		str	r3, [r0, #4]
  45:Core/Src/rtc.c ****   hrtc.Init.AsynchPrediv = 127;
  45              		.loc 1 45 3 is_stmt 1 view .LVU5
  46              		.loc 1 45 26 is_stmt 0 view .LVU6
  47 000c 7F22     		movs	r2, #127
  48 000e 8260     		str	r2, [r0, #8]
  46:Core/Src/rtc.c ****   hrtc.Init.SynchPrediv = 255;
  49              		.loc 1 46 3 is_stmt 1 view .LVU7
  50              		.loc 1 46 25 is_stmt 0 view .LVU8
  51 0010 8032     		adds	r2, r2, #128
  52 0012 C260     		str	r2, [r0, #12]
  47:Core/Src/rtc.c ****   hrtc.Init.OutPut = RTC_OUTPUT_DISABLE;
  53              		.loc 1 47 3 is_stmt 1 view .LVU9
  54              		.loc 1 47 20 is_stmt 0 view .LVU10
  55 0014 0361     		str	r3, [r0, #16]
  48:Core/Src/rtc.c ****   hrtc.Init.OutPutRemap = RTC_OUTPUT_REMAP_NONE;
  56              		.loc 1 48 3 is_stmt 1 view .LVU11
  57              		.loc 1 48 25 is_stmt 0 view .LVU12
  58 0016 4361     		str	r3, [r0, #20]
  49:Core/Src/rtc.c ****   hrtc.Init.OutPutPolarity = RTC_OUTPUT_POLARITY_HIGH;
  59              		.loc 1 49 3 is_stmt 1 view .LVU13
  60              		.loc 1 49 28 is_stmt 0 view .LVU14
  61 0018 8361     		str	r3, [r0, #24]
  50:Core/Src/rtc.c ****   hrtc.Init.OutPutType = RTC_OUTPUT_TYPE_OPENDRAIN;
  62              		.loc 1 50 3 is_stmt 1 view .LVU15
  63              		.loc 1 50 24 is_stmt 0 view .LVU16
  64 001a 8022     		movs	r2, #128
  65 001c D205     		lsls	r2, r2, #23
ARM GAS  C:\Users\upo\AppData\Local\Temp\ccxPTaYC.s 			page 3


  66 001e C261     		str	r2, [r0, #28]
  51:Core/Src/rtc.c ****   hrtc.Init.OutPutPullUp = RTC_OUTPUT_PULLUP_NONE;
  67              		.loc 1 51 3 is_stmt 1 view .LVU17
  68              		.loc 1 51 26 is_stmt 0 view .LVU18
  69 0020 0362     		str	r3, [r0, #32]
  52:Core/Src/rtc.c ****   hrtc.Init.BinMode = RTC_BINARY_NONE;
  70              		.loc 1 52 3 is_stmt 1 view .LVU19
  71              		.loc 1 52 21 is_stmt 0 view .LVU20
  72 0022 4362     		str	r3, [r0, #36]
  53:Core/Src/rtc.c ****   if (HAL_RTC_Init(&hrtc) != HAL_OK)
  73              		.loc 1 53 3 is_stmt 1 view .LVU21
  74              		.loc 1 53 7 is_stmt 0 view .LVU22
  75 0024 FFF7FEFF 		bl	HAL_RTC_Init
  76              	.LVL0:
  77              		.loc 1 53 6 view .LVU23
  78 0028 0028     		cmp	r0, #0
  79 002a 07D1     		bne	.L4
  80              	.L2:
  54:Core/Src/rtc.c ****   {
  55:Core/Src/rtc.c ****     Error_Handler();
  56:Core/Src/rtc.c ****   }
  57:Core/Src/rtc.c **** 
  58:Core/Src/rtc.c ****   /** Enable the WakeUp
  59:Core/Src/rtc.c ****   */
  60:Core/Src/rtc.c ****   if (HAL_RTCEx_SetWakeUpTimer(&hrtc, 60, RTC_WAKEUPCLOCK_CK_SPRE_16BITS) != HAL_OK)
  81              		.loc 1 60 3 is_stmt 1 view .LVU24
  82              		.loc 1 60 7 is_stmt 0 view .LVU25
  83 002c 0648     		ldr	r0, .L6
  84 002e 0422     		movs	r2, #4
  85 0030 3C21     		movs	r1, #60
  86 0032 FFF7FEFF 		bl	HAL_RTCEx_SetWakeUpTimer
  87              	.LVL1:
  88              		.loc 1 60 6 view .LVU26
  89 0036 0028     		cmp	r0, #0
  90 0038 03D1     		bne	.L5
  91              	.L1:
  61:Core/Src/rtc.c ****   {
  62:Core/Src/rtc.c ****     Error_Handler();
  63:Core/Src/rtc.c ****   }
  64:Core/Src/rtc.c ****   /* USER CODE BEGIN RTC_Init 2 */
  65:Core/Src/rtc.c **** 
  66:Core/Src/rtc.c ****   /* USER CODE END RTC_Init 2 */
  67:Core/Src/rtc.c **** 
  68:Core/Src/rtc.c **** }
  92              		.loc 1 68 1 view .LVU27
  93              		@ sp needed
  94 003a 10BD     		pop	{r4, pc}
  95              	.L4:
  55:Core/Src/rtc.c ****   }
  96              		.loc 1 55 5 is_stmt 1 view .LVU28
  97 003c FFF7FEFF 		bl	Error_Handler
  98              	.LVL2:
  99 0040 F4E7     		b	.L2
 100              	.L5:
  62:Core/Src/rtc.c ****   }
 101              		.loc 1 62 5 view .LVU29
 102 0042 FFF7FEFF 		bl	Error_Handler
ARM GAS  C:\Users\upo\AppData\Local\Temp\ccxPTaYC.s 			page 4


 103              	.LVL3:
 104              		.loc 1 68 1 is_stmt 0 view .LVU30
 105 0046 F8E7     		b	.L1
 106              	.L7:
 107              		.align	2
 108              	.L6:
 109 0048 00000000 		.word	hrtc
 110 004c 00280040 		.word	1073752064
 111              		.cfi_endproc
 112              	.LFE426:
 114              		.section	.text.HAL_RTC_MspInit,"ax",%progbits
 115              		.align	1
 116              		.global	HAL_RTC_MspInit
 117              		.syntax unified
 118              		.code	16
 119              		.thumb_func
 121              	HAL_RTC_MspInit:
 122              	.LVL4:
 123              	.LFB427:
  69:Core/Src/rtc.c **** 
  70:Core/Src/rtc.c **** void HAL_RTC_MspInit(RTC_HandleTypeDef* rtcHandle)
  71:Core/Src/rtc.c **** {
 124              		.loc 1 71 1 is_stmt 1 view -0
 125              		.cfi_startproc
 126              		@ args = 0, pretend = 0, frame = 72
 127              		@ frame_needed = 0, uses_anonymous_args = 0
 128              		.loc 1 71 1 is_stmt 0 view .LVU32
 129 0000 10B5     		push	{r4, lr}
 130              	.LCFI1:
 131              		.cfi_def_cfa_offset 8
 132              		.cfi_offset 4, -8
 133              		.cfi_offset 14, -4
 134 0002 92B0     		sub	sp, sp, #72
 135              	.LCFI2:
 136              		.cfi_def_cfa_offset 80
 137 0004 0400     		movs	r4, r0
  72:Core/Src/rtc.c **** 
  73:Core/Src/rtc.c ****   RCC_PeriphCLKInitTypeDef PeriphClkInit = {0};
 138              		.loc 1 73 3 is_stmt 1 view .LVU33
 139              		.loc 1 73 28 is_stmt 0 view .LVU34
 140 0006 4422     		movs	r2, #68
 141 0008 0021     		movs	r1, #0
 142 000a 01A8     		add	r0, sp, #4
 143              	.LVL5:
 144              		.loc 1 73 28 view .LVU35
 145 000c FFF7FEFF 		bl	memset
 146              	.LVL6:
  74:Core/Src/rtc.c ****   if(rtcHandle->Instance==RTC)
 147              		.loc 1 74 3 is_stmt 1 view .LVU36
 148              		.loc 1 74 15 is_stmt 0 view .LVU37
 149 0010 2268     		ldr	r2, [r4]
 150              		.loc 1 74 5 view .LVU38
 151 0012 124B     		ldr	r3, .L13
 152 0014 9A42     		cmp	r2, r3
 153 0016 01D0     		beq	.L11
 154              	.L8:
  75:Core/Src/rtc.c ****   {
ARM GAS  C:\Users\upo\AppData\Local\Temp\ccxPTaYC.s 			page 5


  76:Core/Src/rtc.c ****   /* USER CODE BEGIN RTC_MspInit 0 */
  77:Core/Src/rtc.c **** 
  78:Core/Src/rtc.c ****   /* USER CODE END RTC_MspInit 0 */
  79:Core/Src/rtc.c **** 
  80:Core/Src/rtc.c ****   /** Initializes the peripherals clocks
  81:Core/Src/rtc.c ****   */
  82:Core/Src/rtc.c ****     PeriphClkInit.PeriphClockSelection = RCC_PERIPHCLK_RTC;
  83:Core/Src/rtc.c ****     PeriphClkInit.RTCClockSelection = RCC_RTCCLKSOURCE_LSI;
  84:Core/Src/rtc.c **** 
  85:Core/Src/rtc.c ****     if (HAL_RCCEx_PeriphCLKConfig(&PeriphClkInit) != HAL_OK)
  86:Core/Src/rtc.c ****     {
  87:Core/Src/rtc.c ****       Error_Handler();
  88:Core/Src/rtc.c ****     }
  89:Core/Src/rtc.c **** 
  90:Core/Src/rtc.c ****     /* RTC clock enable */
  91:Core/Src/rtc.c ****     __HAL_RCC_RTC_ENABLE();
  92:Core/Src/rtc.c ****     __HAL_RCC_RTCAPB_CLK_ENABLE();
  93:Core/Src/rtc.c ****   /* USER CODE BEGIN RTC_MspInit 1 */
  94:Core/Src/rtc.c **** 
  95:Core/Src/rtc.c ****   /* USER CODE END RTC_MspInit 1 */
  96:Core/Src/rtc.c ****   }
  97:Core/Src/rtc.c **** }
 155              		.loc 1 97 1 view .LVU39
 156 0018 12B0     		add	sp, sp, #72
 157              		@ sp needed
 158              	.LVL7:
 159              		.loc 1 97 1 view .LVU40
 160 001a 10BD     		pop	{r4, pc}
 161              	.LVL8:
 162              	.L11:
  82:Core/Src/rtc.c ****     PeriphClkInit.RTCClockSelection = RCC_RTCCLKSOURCE_LSI;
 163              		.loc 1 82 5 is_stmt 1 view .LVU41
  82:Core/Src/rtc.c ****     PeriphClkInit.RTCClockSelection = RCC_RTCCLKSOURCE_LSI;
 164              		.loc 1 82 40 is_stmt 0 view .LVU42
 165 001c 8023     		movs	r3, #128
 166 001e 1B02     		lsls	r3, r3, #8
 167 0020 0193     		str	r3, [sp, #4]
  83:Core/Src/rtc.c **** 
 168              		.loc 1 83 5 is_stmt 1 view .LVU43
  83:Core/Src/rtc.c **** 
 169              		.loc 1 83 37 is_stmt 0 view .LVU44
 170 0022 8023     		movs	r3, #128
 171 0024 9B00     		lsls	r3, r3, #2
 172 0026 1193     		str	r3, [sp, #68]
  85:Core/Src/rtc.c ****     {
 173              		.loc 1 85 5 is_stmt 1 view .LVU45
  85:Core/Src/rtc.c ****     {
 174              		.loc 1 85 9 is_stmt 0 view .LVU46
 175 0028 01A8     		add	r0, sp, #4
 176 002a FFF7FEFF 		bl	HAL_RCCEx_PeriphCLKConfig
 177              	.LVL9:
  85:Core/Src/rtc.c ****     {
 178              		.loc 1 85 8 view .LVU47
 179 002e 0028     		cmp	r0, #0
 180 0030 10D1     		bne	.L12
 181              	.L10:
  91:Core/Src/rtc.c ****     __HAL_RCC_RTCAPB_CLK_ENABLE();
ARM GAS  C:\Users\upo\AppData\Local\Temp\ccxPTaYC.s 			page 6


 182              		.loc 1 91 5 is_stmt 1 view .LVU48
 183 0032 0B4B     		ldr	r3, .L13+4
 184 0034 9021     		movs	r1, #144
 185 0036 5858     		ldr	r0, [r3, r1]
 186 0038 8022     		movs	r2, #128
 187 003a 1202     		lsls	r2, r2, #8
 188 003c 0243     		orrs	r2, r0
 189 003e 5A50     		str	r2, [r3, r1]
  92:Core/Src/rtc.c ****   /* USER CODE BEGIN RTC_MspInit 1 */
 190              		.loc 1 92 5 view .LVU49
 191              	.LBB2:
  92:Core/Src/rtc.c ****   /* USER CODE BEGIN RTC_MspInit 1 */
 192              		.loc 1 92 5 view .LVU50
  92:Core/Src/rtc.c ****   /* USER CODE BEGIN RTC_MspInit 1 */
 193              		.loc 1 92 5 view .LVU51
 194 0040 9A6D     		ldr	r2, [r3, #88]
 195 0042 8021     		movs	r1, #128
 196 0044 C900     		lsls	r1, r1, #3
 197 0046 0A43     		orrs	r2, r1
 198 0048 9A65     		str	r2, [r3, #88]
  92:Core/Src/rtc.c ****   /* USER CODE BEGIN RTC_MspInit 1 */
 199              		.loc 1 92 5 view .LVU52
 200 004a 9B6D     		ldr	r3, [r3, #88]
 201 004c 0B40     		ands	r3, r1
 202 004e 0093     		str	r3, [sp]
  92:Core/Src/rtc.c ****   /* USER CODE BEGIN RTC_MspInit 1 */
 203              		.loc 1 92 5 view .LVU53
 204 0050 009B     		ldr	r3, [sp]
 205              	.LBE2:
  92:Core/Src/rtc.c ****   /* USER CODE BEGIN RTC_MspInit 1 */
 206              		.loc 1 92 5 view .LVU54
 207              		.loc 1 97 1 is_stmt 0 view .LVU55
 208 0052 E1E7     		b	.L8
 209              	.L12:
  87:Core/Src/rtc.c ****     }
 210              		.loc 1 87 7 is_stmt 1 view .LVU56
 211 0054 FFF7FEFF 		bl	Error_Handler
 212              	.LVL10:
 213 0058 EBE7     		b	.L10
 214              	.L14:
 215 005a C046     		.align	2
 216              	.L13:
 217 005c 00280040 		.word	1073752064
 218 0060 00100240 		.word	1073876992
 219              		.cfi_endproc
 220              	.LFE427:
 222              		.section	.text.HAL_RTC_MspDeInit,"ax",%progbits
 223              		.align	1
 224              		.global	HAL_RTC_MspDeInit
 225              		.syntax unified
 226              		.code	16
 227              		.thumb_func
 229              	HAL_RTC_MspDeInit:
 230              	.LVL11:
 231              	.LFB428:
  98:Core/Src/rtc.c **** 
  99:Core/Src/rtc.c **** void HAL_RTC_MspDeInit(RTC_HandleTypeDef* rtcHandle)
ARM GAS  C:\Users\upo\AppData\Local\Temp\ccxPTaYC.s 			page 7


 100:Core/Src/rtc.c **** {
 232              		.loc 1 100 1 view -0
 233              		.cfi_startproc
 234              		@ args = 0, pretend = 0, frame = 0
 235              		@ frame_needed = 0, uses_anonymous_args = 0
 236              		@ link register save eliminated.
 101:Core/Src/rtc.c **** 
 102:Core/Src/rtc.c ****   if(rtcHandle->Instance==RTC)
 237              		.loc 1 102 3 view .LVU58
 238              		.loc 1 102 15 is_stmt 0 view .LVU59
 239 0000 0268     		ldr	r2, [r0]
 240              		.loc 1 102 5 view .LVU60
 241 0002 074B     		ldr	r3, .L18
 242 0004 9A42     		cmp	r2, r3
 243 0006 00D0     		beq	.L17
 244              	.LVL12:
 245              	.L15:
 103:Core/Src/rtc.c ****   {
 104:Core/Src/rtc.c ****   /* USER CODE BEGIN RTC_MspDeInit 0 */
 105:Core/Src/rtc.c **** 
 106:Core/Src/rtc.c ****   /* USER CODE END RTC_MspDeInit 0 */
 107:Core/Src/rtc.c ****     /* Peripheral clock disable */
 108:Core/Src/rtc.c ****     __HAL_RCC_RTC_DISABLE();
 109:Core/Src/rtc.c ****     __HAL_RCC_RTCAPB_CLK_DISABLE();
 110:Core/Src/rtc.c ****   /* USER CODE BEGIN RTC_MspDeInit 1 */
 111:Core/Src/rtc.c **** 
 112:Core/Src/rtc.c ****   /* USER CODE END RTC_MspDeInit 1 */
 113:Core/Src/rtc.c ****   }
 114:Core/Src/rtc.c **** }
 246              		.loc 1 114 1 view .LVU61
 247              		@ sp needed
 248 0008 7047     		bx	lr
 249              	.LVL13:
 250              	.L17:
 108:Core/Src/rtc.c ****     __HAL_RCC_RTCAPB_CLK_DISABLE();
 251              		.loc 1 108 5 is_stmt 1 view .LVU62
 252 000a 064B     		ldr	r3, .L18+4
 253 000c 9021     		movs	r1, #144
 254 000e 5A58     		ldr	r2, [r3, r1]
 255 0010 0548     		ldr	r0, .L18+8
 256              	.LVL14:
 108:Core/Src/rtc.c ****     __HAL_RCC_RTCAPB_CLK_DISABLE();
 257              		.loc 1 108 5 is_stmt 0 view .LVU63
 258 0012 0240     		ands	r2, r0
 259 0014 5A50     		str	r2, [r3, r1]
 109:Core/Src/rtc.c ****   /* USER CODE BEGIN RTC_MspDeInit 1 */
 260              		.loc 1 109 5 is_stmt 1 view .LVU64
 261 0016 9A6D     		ldr	r2, [r3, #88]
 262 0018 0449     		ldr	r1, .L18+12
 263 001a 0A40     		ands	r2, r1
 264 001c 9A65     		str	r2, [r3, #88]
 265              		.loc 1 114 1 is_stmt 0 view .LVU65
 266 001e F3E7     		b	.L15
 267              	.L19:
 268              		.align	2
 269              	.L18:
 270 0020 00280040 		.word	1073752064
ARM GAS  C:\Users\upo\AppData\Local\Temp\ccxPTaYC.s 			page 8


 271 0024 00100240 		.word	1073876992
 272 0028 FF7FFFFF 		.word	-32769
 273 002c FFFBFFFF 		.word	-1025
 274              		.cfi_endproc
 275              	.LFE428:
 277              		.global	hrtc
 278              		.section	.bss.hrtc,"aw",%nobits
 279              		.align	2
 282              	hrtc:
 283 0000 00000000 		.space	48
 283      00000000 
 283      00000000 
 283      00000000 
 283      00000000 
 284              		.text
 285              	.Letext0:
 286              		.file 2 "C:\\ST\\STM32CubeCLT_1.15.0\\GNU-tools-for-STM32\\bin/../lib/gcc/arm-none-eabi/12.3.1/../
 287              		.file 3 "C:\\ST\\STM32CubeCLT_1.15.0\\GNU-tools-for-STM32\\bin/../lib/gcc/arm-none-eabi/12.3.1/../
 288              		.file 4 "Drivers/CMSIS/Device/ST/STM32U0xx/Include/stm32u073xx.h"
 289              		.file 5 "Drivers/STM32U0xx_HAL_Driver/Inc/stm32u0xx_hal_def.h"
 290              		.file 6 "Drivers/STM32U0xx_HAL_Driver/Inc/stm32u0xx_hal_rcc_ex.h"
 291              		.file 7 "Drivers/STM32U0xx_HAL_Driver/Inc/stm32u0xx_hal_rtc.h"
 292              		.file 8 "Drivers/STM32U0xx_HAL_Driver/Inc/stm32u0xx_hal_rtc_ex.h"
 293              		.file 9 "Drivers/STM32U0xx_HAL_Driver/Inc/stm32u0xx_ll_dma.h"
 294              		.file 10 "Core\\Inc/rtc.h"
 295              		.file 11 "Core\\Inc/main.h"
 296              		.file 12 "<built-in>"
ARM GAS  C:\Users\upo\AppData\Local\Temp\ccxPTaYC.s 			page 9

