ARM GAS  C:\Users\upo\AppData\Local\Temp\ccIlAiYO.s 			page 1


   1              		.cpu cortex-m0plus
   2              		.arch armv6s-m
   3              		.fpu softvfp
   4              		.eabi_attribute 20, 1
   5              		.eabi_attribute 21, 1
   6              		.eabi_attribute 23, 3
   7              		.eabi_attribute 24, 1
   8              		.eabi_attribute 25, 1
   9              		.eabi_attribute 26, 1
  10              		.eabi_attribute 30, 2
  11              		.eabi_attribute 34, 0
  12              		.eabi_attribute 18, 4
  13              		.file	"stm32u0xx_hal_rtc.c"
  14              		.text
  15              	.Ltext0:
  16              		.cfi_sections	.debug_frame
  17              		.file 1 "Drivers/STM32U0xx_HAL_Driver/Src/stm32u0xx_hal_rtc.c"
  18              		.section	.text.HAL_RTC_MspInit,"ax",%progbits
  19              		.align	1
  20              		.p2align 2,,3
  21              		.weak	HAL_RTC_MspInit
  22              		.syntax unified
  23              		.code	16
  24              		.thumb_func
  26              	HAL_RTC_MspInit:
  27              	.LVL0:
  28              	.LFB336:
   1:Drivers/STM32U0xx_HAL_Driver/Src/stm32u0xx_hal_rtc.c **** /**
   2:Drivers/STM32U0xx_HAL_Driver/Src/stm32u0xx_hal_rtc.c ****   ******************************************************************************
   3:Drivers/STM32U0xx_HAL_Driver/Src/stm32u0xx_hal_rtc.c ****   * @file    stm32u0xx_hal_rtc.c
   4:Drivers/STM32U0xx_HAL_Driver/Src/stm32u0xx_hal_rtc.c ****   * @author  GPM Application Team
   5:Drivers/STM32U0xx_HAL_Driver/Src/stm32u0xx_hal_rtc.c ****   * @brief   RTC HAL module driver.
   6:Drivers/STM32U0xx_HAL_Driver/Src/stm32u0xx_hal_rtc.c ****   *          This file provides firmware functions to manage the following
   7:Drivers/STM32U0xx_HAL_Driver/Src/stm32u0xx_hal_rtc.c ****   *          functionalities of the Real-Time Clock (RTC) peripheral:
   8:Drivers/STM32U0xx_HAL_Driver/Src/stm32u0xx_hal_rtc.c ****   *           + Initialization/de-initialization functions
   9:Drivers/STM32U0xx_HAL_Driver/Src/stm32u0xx_hal_rtc.c ****   *           + Calendar (Time and Date) configuration
  10:Drivers/STM32U0xx_HAL_Driver/Src/stm32u0xx_hal_rtc.c ****   *           + Alarms (Alarm A and Alarm B) configuration
  11:Drivers/STM32U0xx_HAL_Driver/Src/stm32u0xx_hal_rtc.c ****   *           + WakeUp Timer configuration
  12:Drivers/STM32U0xx_HAL_Driver/Src/stm32u0xx_hal_rtc.c ****   *           + TimeStamp configuration
  13:Drivers/STM32U0xx_HAL_Driver/Src/stm32u0xx_hal_rtc.c ****   *           + Tampers configuration
  14:Drivers/STM32U0xx_HAL_Driver/Src/stm32u0xx_hal_rtc.c ****   *           + Backup Data Registers configuration
  15:Drivers/STM32U0xx_HAL_Driver/Src/stm32u0xx_hal_rtc.c ****   *           + RTC Tamper and TimeStamp Pins Selection
  16:Drivers/STM32U0xx_HAL_Driver/Src/stm32u0xx_hal_rtc.c ****   *           + Interrupts and flags management
  17:Drivers/STM32U0xx_HAL_Driver/Src/stm32u0xx_hal_rtc.c ****   *
  18:Drivers/STM32U0xx_HAL_Driver/Src/stm32u0xx_hal_rtc.c ****   ******************************************************************************
  19:Drivers/STM32U0xx_HAL_Driver/Src/stm32u0xx_hal_rtc.c ****   * @attention
  20:Drivers/STM32U0xx_HAL_Driver/Src/stm32u0xx_hal_rtc.c ****   *
  21:Drivers/STM32U0xx_HAL_Driver/Src/stm32u0xx_hal_rtc.c ****   * Copyright (c) 2023 STMicroelectronics.
  22:Drivers/STM32U0xx_HAL_Driver/Src/stm32u0xx_hal_rtc.c ****   * All rights reserved.
  23:Drivers/STM32U0xx_HAL_Driver/Src/stm32u0xx_hal_rtc.c ****   *
  24:Drivers/STM32U0xx_HAL_Driver/Src/stm32u0xx_hal_rtc.c ****   * This software is licensed under terms that can be found in the LICENSE file
  25:Drivers/STM32U0xx_HAL_Driver/Src/stm32u0xx_hal_rtc.c ****   * in the root directory of this software component.
  26:Drivers/STM32U0xx_HAL_Driver/Src/stm32u0xx_hal_rtc.c ****   * If no LICENSE file comes with this software, it is provided AS-IS.
  27:Drivers/STM32U0xx_HAL_Driver/Src/stm32u0xx_hal_rtc.c ****   *
  28:Drivers/STM32U0xx_HAL_Driver/Src/stm32u0xx_hal_rtc.c ****   ******************************************************************************
  29:Drivers/STM32U0xx_HAL_Driver/Src/stm32u0xx_hal_rtc.c ****     @verbatim
  30:Drivers/STM32U0xx_HAL_Driver/Src/stm32u0xx_hal_rtc.c ****   ===============================================================================
ARM GAS  C:\Users\upo\AppData\Local\Temp\ccIlAiYO.s 			page 2


  31:Drivers/STM32U0xx_HAL_Driver/Src/stm32u0xx_hal_rtc.c ****                           ##### RTC Operating Condition #####
  32:Drivers/STM32U0xx_HAL_Driver/Src/stm32u0xx_hal_rtc.c ****   ===============================================================================
  33:Drivers/STM32U0xx_HAL_Driver/Src/stm32u0xx_hal_rtc.c ****   [..] The real-time clock (RTC) and the RTC backup registers can be powered
  34:Drivers/STM32U0xx_HAL_Driver/Src/stm32u0xx_hal_rtc.c ****        from the VBAT voltage when the main VDD supply is powered off.
  35:Drivers/STM32U0xx_HAL_Driver/Src/stm32u0xx_hal_rtc.c ****        To retain the content of the RTC backup registers and supply the RTC
  36:Drivers/STM32U0xx_HAL_Driver/Src/stm32u0xx_hal_rtc.c ****        when VDD is turned off, VBAT pin can be connected to an optional
  37:Drivers/STM32U0xx_HAL_Driver/Src/stm32u0xx_hal_rtc.c ****        standby voltage supplied by a battery or by another source.
  38:Drivers/STM32U0xx_HAL_Driver/Src/stm32u0xx_hal_rtc.c **** 
  39:Drivers/STM32U0xx_HAL_Driver/Src/stm32u0xx_hal_rtc.c ****                    ##### Backup Domain Reset #####
  40:Drivers/STM32U0xx_HAL_Driver/Src/stm32u0xx_hal_rtc.c ****   ===============================================================================
  41:Drivers/STM32U0xx_HAL_Driver/Src/stm32u0xx_hal_rtc.c ****   [..] The backup domain reset sets all RTC registers and the RCC_BDCR register
  42:Drivers/STM32U0xx_HAL_Driver/Src/stm32u0xx_hal_rtc.c ****        to their reset values.
  43:Drivers/STM32U0xx_HAL_Driver/Src/stm32u0xx_hal_rtc.c ****        A backup domain reset is generated when one of the following events occurs:
  44:Drivers/STM32U0xx_HAL_Driver/Src/stm32u0xx_hal_rtc.c ****     (#) Software reset, triggered by setting the BDRST bit in the
  45:Drivers/STM32U0xx_HAL_Driver/Src/stm32u0xx_hal_rtc.c ****         RCC Backup domain control register (RCC_BDCR).
  46:Drivers/STM32U0xx_HAL_Driver/Src/stm32u0xx_hal_rtc.c ****     (#) VDD or VBAT power on, if both supplies have previously been powered off.
  47:Drivers/STM32U0xx_HAL_Driver/Src/stm32u0xx_hal_rtc.c ****     (#) Tamper detection event resets all data backup registers.
  48:Drivers/STM32U0xx_HAL_Driver/Src/stm32u0xx_hal_rtc.c **** 
  49:Drivers/STM32U0xx_HAL_Driver/Src/stm32u0xx_hal_rtc.c ****                    ##### Backup Domain Access #####
  50:Drivers/STM32U0xx_HAL_Driver/Src/stm32u0xx_hal_rtc.c ****   ==================================================================
  51:Drivers/STM32U0xx_HAL_Driver/Src/stm32u0xx_hal_rtc.c ****   [..] After reset, the backup domain (RTC registers and RTC backup data registers)
  52:Drivers/STM32U0xx_HAL_Driver/Src/stm32u0xx_hal_rtc.c ****        is protected against possible unwanted write accesses.
  53:Drivers/STM32U0xx_HAL_Driver/Src/stm32u0xx_hal_rtc.c ****   [..] To enable access to the RTC Domain and RTC registers, proceed as follows:
  54:Drivers/STM32U0xx_HAL_Driver/Src/stm32u0xx_hal_rtc.c ****     (+) Enable the Power Controller (PWR) APB1 interface clock using the
  55:Drivers/STM32U0xx_HAL_Driver/Src/stm32u0xx_hal_rtc.c ****         __HAL_RCC_PWR_CLK_ENABLE() function.
  56:Drivers/STM32U0xx_HAL_Driver/Src/stm32u0xx_hal_rtc.c ****     (+) Enable access to RTC domain using the HAL_PWR_EnableBkUpAccess() function.
  57:Drivers/STM32U0xx_HAL_Driver/Src/stm32u0xx_hal_rtc.c ****     (+) Select the RTC clock source using the __HAL_RCC_RTC_CONFIG() function.
  58:Drivers/STM32U0xx_HAL_Driver/Src/stm32u0xx_hal_rtc.c ****     (+) Enable RTC Clock using the __HAL_RCC_RTC_ENABLE() function.
  59:Drivers/STM32U0xx_HAL_Driver/Src/stm32u0xx_hal_rtc.c **** 
  60:Drivers/STM32U0xx_HAL_Driver/Src/stm32u0xx_hal_rtc.c ****   [..] To enable access to the RTC Domain and RTC registers, proceed as follows:
  61:Drivers/STM32U0xx_HAL_Driver/Src/stm32u0xx_hal_rtc.c ****     (#) Call the function HAL_RCCEx_PeriphCLKConfig with RCC_PERIPHCLK_RTC for
  62:Drivers/STM32U0xx_HAL_Driver/Src/stm32u0xx_hal_rtc.c ****         PeriphClockSelection and select RTCClockSelection (LSE, LSI or HSEdiv32)
  63:Drivers/STM32U0xx_HAL_Driver/Src/stm32u0xx_hal_rtc.c ****     (#) Enable RTC Clock using the __HAL_RCC_RTC_ENABLE() macro.
  64:Drivers/STM32U0xx_HAL_Driver/Src/stm32u0xx_hal_rtc.c **** 
  65:Drivers/STM32U0xx_HAL_Driver/Src/stm32u0xx_hal_rtc.c ****                   ##### How to use RTC Driver #####
  66:Drivers/STM32U0xx_HAL_Driver/Src/stm32u0xx_hal_rtc.c ****   ===================================================================
  67:Drivers/STM32U0xx_HAL_Driver/Src/stm32u0xx_hal_rtc.c ****   [..]
  68:Drivers/STM32U0xx_HAL_Driver/Src/stm32u0xx_hal_rtc.c ****     (+) Enable the RTC domain access (see description in the section above).
  69:Drivers/STM32U0xx_HAL_Driver/Src/stm32u0xx_hal_rtc.c ****     (+) Configure the RTC Prescaler (Asynchronous and Synchronous) and RTC hour
  70:Drivers/STM32U0xx_HAL_Driver/Src/stm32u0xx_hal_rtc.c ****         format using the HAL_RTC_Init() function.
  71:Drivers/STM32U0xx_HAL_Driver/Src/stm32u0xx_hal_rtc.c **** 
  72:Drivers/STM32U0xx_HAL_Driver/Src/stm32u0xx_hal_rtc.c ****   *** Time and Date configuration ***
  73:Drivers/STM32U0xx_HAL_Driver/Src/stm32u0xx_hal_rtc.c ****   ===================================
  74:Drivers/STM32U0xx_HAL_Driver/Src/stm32u0xx_hal_rtc.c ****   [..]
  75:Drivers/STM32U0xx_HAL_Driver/Src/stm32u0xx_hal_rtc.c ****     (+) To configure the RTC Calendar (Time and Date) use the HAL_RTC_SetTime()
  76:Drivers/STM32U0xx_HAL_Driver/Src/stm32u0xx_hal_rtc.c ****         and HAL_RTC_SetDate() functions.
  77:Drivers/STM32U0xx_HAL_Driver/Src/stm32u0xx_hal_rtc.c ****     (+) To read the RTC Calendar, use the HAL_RTC_GetTime() and HAL_RTC_GetDate() functions.
  78:Drivers/STM32U0xx_HAL_Driver/Src/stm32u0xx_hal_rtc.c **** 
  79:Drivers/STM32U0xx_HAL_Driver/Src/stm32u0xx_hal_rtc.c ****   *** Alarm configuration ***
  80:Drivers/STM32U0xx_HAL_Driver/Src/stm32u0xx_hal_rtc.c ****   ===========================
  81:Drivers/STM32U0xx_HAL_Driver/Src/stm32u0xx_hal_rtc.c ****   [..]
  82:Drivers/STM32U0xx_HAL_Driver/Src/stm32u0xx_hal_rtc.c ****     (+) To configure the RTC Alarm use the HAL_RTC_SetAlarm() function.
  83:Drivers/STM32U0xx_HAL_Driver/Src/stm32u0xx_hal_rtc.c ****             You can also configure the RTC Alarm with interrupt mode using the
  84:Drivers/STM32U0xx_HAL_Driver/Src/stm32u0xx_hal_rtc.c ****             HAL_RTC_SetAlarm_IT() function.
  85:Drivers/STM32U0xx_HAL_Driver/Src/stm32u0xx_hal_rtc.c ****     (+) To read the RTC Alarm, use the HAL_RTC_GetAlarm() function.
  86:Drivers/STM32U0xx_HAL_Driver/Src/stm32u0xx_hal_rtc.c **** 
  87:Drivers/STM32U0xx_HAL_Driver/Src/stm32u0xx_hal_rtc.c ****                   ##### RTC and low power modes #####
ARM GAS  C:\Users\upo\AppData\Local\Temp\ccIlAiYO.s 			page 3


  88:Drivers/STM32U0xx_HAL_Driver/Src/stm32u0xx_hal_rtc.c ****   ==================================================================
  89:Drivers/STM32U0xx_HAL_Driver/Src/stm32u0xx_hal_rtc.c ****   [..] The MCU can be woken up from a low power mode by an RTC alternate
  90:Drivers/STM32U0xx_HAL_Driver/Src/stm32u0xx_hal_rtc.c ****        function.
  91:Drivers/STM32U0xx_HAL_Driver/Src/stm32u0xx_hal_rtc.c ****   [..] The RTC alternate functions are the RTC alarms (Alarm A and Alarm B),
  92:Drivers/STM32U0xx_HAL_Driver/Src/stm32u0xx_hal_rtc.c ****        RTC wakeup, RTC tamper event detection and RTC time stamp event detection.
  93:Drivers/STM32U0xx_HAL_Driver/Src/stm32u0xx_hal_rtc.c ****        These RTC alternate functions can wake up the system from the Stop and
  94:Drivers/STM32U0xx_HAL_Driver/Src/stm32u0xx_hal_rtc.c ****        Standby low power modes.
  95:Drivers/STM32U0xx_HAL_Driver/Src/stm32u0xx_hal_rtc.c ****   [..] The system can also wake up from low power modes without depending
  96:Drivers/STM32U0xx_HAL_Driver/Src/stm32u0xx_hal_rtc.c ****        on an external interrupt (Auto-wakeup mode), by using the RTC alarm
  97:Drivers/STM32U0xx_HAL_Driver/Src/stm32u0xx_hal_rtc.c ****        or the RTC wakeup events.
  98:Drivers/STM32U0xx_HAL_Driver/Src/stm32u0xx_hal_rtc.c ****   [..] The RTC provides a programmable time base for waking up from the
  99:Drivers/STM32U0xx_HAL_Driver/Src/stm32u0xx_hal_rtc.c ****        Stop or Standby mode at regular intervals.
 100:Drivers/STM32U0xx_HAL_Driver/Src/stm32u0xx_hal_rtc.c ****        Wakeup from STOP and STANDBY modes is possible only when the RTC clock source
 101:Drivers/STM32U0xx_HAL_Driver/Src/stm32u0xx_hal_rtc.c ****        is LSE or LSI.
 102:Drivers/STM32U0xx_HAL_Driver/Src/stm32u0xx_hal_rtc.c **** 
 103:Drivers/STM32U0xx_HAL_Driver/Src/stm32u0xx_hal_rtc.c ****   *** Callback registration ***
 104:Drivers/STM32U0xx_HAL_Driver/Src/stm32u0xx_hal_rtc.c ****   =============================================
 105:Drivers/STM32U0xx_HAL_Driver/Src/stm32u0xx_hal_rtc.c ****   When The compilation define USE_HAL_RTC_REGISTER_CALLBACKS is set to 0 or
 106:Drivers/STM32U0xx_HAL_Driver/Src/stm32u0xx_hal_rtc.c ****   not defined, the callback registration feature is not available and all callbacks
 107:Drivers/STM32U0xx_HAL_Driver/Src/stm32u0xx_hal_rtc.c ****   are set to the corresponding weak functions. This is the recommended configuration
 108:Drivers/STM32U0xx_HAL_Driver/Src/stm32u0xx_hal_rtc.c ****   in order to optimize memory/code consumption footprint/performances.
 109:Drivers/STM32U0xx_HAL_Driver/Src/stm32u0xx_hal_rtc.c **** 
 110:Drivers/STM32U0xx_HAL_Driver/Src/stm32u0xx_hal_rtc.c ****   The compilation define  USE_RTC_REGISTER_CALLBACKS when set to 1
 111:Drivers/STM32U0xx_HAL_Driver/Src/stm32u0xx_hal_rtc.c ****   allows the user to configure dynamically the driver callbacks.
 112:Drivers/STM32U0xx_HAL_Driver/Src/stm32u0xx_hal_rtc.c ****   Use Function @ref HAL_RTC_RegisterCallback() to register an interrupt callback.
 113:Drivers/STM32U0xx_HAL_Driver/Src/stm32u0xx_hal_rtc.c **** 
 114:Drivers/STM32U0xx_HAL_Driver/Src/stm32u0xx_hal_rtc.c ****   Function @ref HAL_RTC_RegisterCallback() allows to register following callbacks:
 115:Drivers/STM32U0xx_HAL_Driver/Src/stm32u0xx_hal_rtc.c ****     (+) AlarmAEventCallback          : RTC Alarm A Event callback.
 116:Drivers/STM32U0xx_HAL_Driver/Src/stm32u0xx_hal_rtc.c ****     (+) AlarmBEventCallback          : RTC Alarm B Event callback.
 117:Drivers/STM32U0xx_HAL_Driver/Src/stm32u0xx_hal_rtc.c ****     (+) TimeStampEventCallback       : RTC TimeStamp Event callback.
 118:Drivers/STM32U0xx_HAL_Driver/Src/stm32u0xx_hal_rtc.c ****     (+) WakeUpTimerEventCallback     : RTC WakeUpTimer Event callback.
 119:Drivers/STM32U0xx_HAL_Driver/Src/stm32u0xx_hal_rtc.c ****     (+) SSRUEventCallback            : RTC SSRU Event callback.
 120:Drivers/STM32U0xx_HAL_Driver/Src/stm32u0xx_hal_rtc.c ****     (+) Tamper1EventCallback         : RTC Tamper 1 Event callback.
 121:Drivers/STM32U0xx_HAL_Driver/Src/stm32u0xx_hal_rtc.c ****     (+) Tamper2EventCallback         : RTC Tamper 2 Event callback.
 122:Drivers/STM32U0xx_HAL_Driver/Src/stm32u0xx_hal_rtc.c ****     (+) Tamper3EventCallback         : RTC Tamper 3 Event callback.
 123:Drivers/STM32U0xx_HAL_Driver/Src/stm32u0xx_hal_rtc.c ****     (+) Tamper4EventCallback         : RTC Tamper 4 Event callback.
 124:Drivers/STM32U0xx_HAL_Driver/Src/stm32u0xx_hal_rtc.c ****     (+) Tamper5EventCallback         : RTC Tamper 5 Event callback.
 125:Drivers/STM32U0xx_HAL_Driver/Src/stm32u0xx_hal_rtc.c ****     (+) InternalTamper3EventCallback : RTC InternalTamper 3 Event callback.
 126:Drivers/STM32U0xx_HAL_Driver/Src/stm32u0xx_hal_rtc.c ****     (+) InternalTamper4EventCallback : RTC InternalTamper 4 Event callback.
 127:Drivers/STM32U0xx_HAL_Driver/Src/stm32u0xx_hal_rtc.c ****     (+) InternalTamper5EventCallback : RTC InternalTamper 5 Event callback.
 128:Drivers/STM32U0xx_HAL_Driver/Src/stm32u0xx_hal_rtc.c ****     (+) InternalTamper6EventCallback : RTC InternalTamper 6 Event callback.
 129:Drivers/STM32U0xx_HAL_Driver/Src/stm32u0xx_hal_rtc.c ****     (+) MspInitCallback              : RTC MspInit callback.
 130:Drivers/STM32U0xx_HAL_Driver/Src/stm32u0xx_hal_rtc.c ****     (+) MspDeInitCallback            : RTC MspDeInit callback.
 131:Drivers/STM32U0xx_HAL_Driver/Src/stm32u0xx_hal_rtc.c ****   This function takes as parameters the HAL peripheral handle, the Callback ID
 132:Drivers/STM32U0xx_HAL_Driver/Src/stm32u0xx_hal_rtc.c ****   and a pointer to the user callback function.
 133:Drivers/STM32U0xx_HAL_Driver/Src/stm32u0xx_hal_rtc.c **** 
 134:Drivers/STM32U0xx_HAL_Driver/Src/stm32u0xx_hal_rtc.c ****   Use function @ref HAL_RTC_UnRegisterCallback() to reset a callback to the default
 135:Drivers/STM32U0xx_HAL_Driver/Src/stm32u0xx_hal_rtc.c ****   weak function.
 136:Drivers/STM32U0xx_HAL_Driver/Src/stm32u0xx_hal_rtc.c ****   @ref HAL_RTC_UnRegisterCallback() takes as parameters the HAL peripheral handle,
 137:Drivers/STM32U0xx_HAL_Driver/Src/stm32u0xx_hal_rtc.c ****   and the Callback ID.
 138:Drivers/STM32U0xx_HAL_Driver/Src/stm32u0xx_hal_rtc.c ****   This function allows to reset following callbacks:
 139:Drivers/STM32U0xx_HAL_Driver/Src/stm32u0xx_hal_rtc.c ****     (+) AlarmAEventCallback          : RTC Alarm A Event callback.
 140:Drivers/STM32U0xx_HAL_Driver/Src/stm32u0xx_hal_rtc.c ****     (+) AlarmBEventCallback          : RTC Alarm B Event callback.
 141:Drivers/STM32U0xx_HAL_Driver/Src/stm32u0xx_hal_rtc.c ****     (+) TimeStampEventCallback       : RTC TimeStamp Event callback.
 142:Drivers/STM32U0xx_HAL_Driver/Src/stm32u0xx_hal_rtc.c ****     (+) WakeUpTimerEventCallback     : RTC WakeUpTimer Event callback.
 143:Drivers/STM32U0xx_HAL_Driver/Src/stm32u0xx_hal_rtc.c ****     (+) SSRUEventCallback            : RTC SSRU Event callback.
 144:Drivers/STM32U0xx_HAL_Driver/Src/stm32u0xx_hal_rtc.c ****     (+) Tamper1EventCallback         : RTC Tamper 1 Event callback.
ARM GAS  C:\Users\upo\AppData\Local\Temp\ccIlAiYO.s 			page 4


 145:Drivers/STM32U0xx_HAL_Driver/Src/stm32u0xx_hal_rtc.c ****     (+) Tamper2EventCallback         : RTC Tamper 2 Event callback.
 146:Drivers/STM32U0xx_HAL_Driver/Src/stm32u0xx_hal_rtc.c ****     (+) Tamper3EventCallback         : RTC Tamper 3 Event callback.
 147:Drivers/STM32U0xx_HAL_Driver/Src/stm32u0xx_hal_rtc.c ****     (+) Tamper4EventCallback         : RTC Tamper 4 Event callback.
 148:Drivers/STM32U0xx_HAL_Driver/Src/stm32u0xx_hal_rtc.c ****     (+) Tamper5EventCallback         : RTC Tamper 5 Event callback.
 149:Drivers/STM32U0xx_HAL_Driver/Src/stm32u0xx_hal_rtc.c ****     (+) InternalTamper3EventCallback : RTC Internal Tamper 3 Event callback.
 150:Drivers/STM32U0xx_HAL_Driver/Src/stm32u0xx_hal_rtc.c ****     (+) InternalTamper4EventCallback : RTC Internal Tamper 4 Event callback.
 151:Drivers/STM32U0xx_HAL_Driver/Src/stm32u0xx_hal_rtc.c ****     (+) InternalTamper5EventCallback : RTC Internal Tamper 5 Event callback.
 152:Drivers/STM32U0xx_HAL_Driver/Src/stm32u0xx_hal_rtc.c ****     (+) InternalTamper6EventCallback : RTC Internal Tamper 6 Event callback.
 153:Drivers/STM32U0xx_HAL_Driver/Src/stm32u0xx_hal_rtc.c ****     (+) MspInitCallback              : RTC MspInit callback.
 154:Drivers/STM32U0xx_HAL_Driver/Src/stm32u0xx_hal_rtc.c ****     (+) MspDeInitCallback            : RTC MspDeInit callback.
 155:Drivers/STM32U0xx_HAL_Driver/Src/stm32u0xx_hal_rtc.c **** 
 156:Drivers/STM32U0xx_HAL_Driver/Src/stm32u0xx_hal_rtc.c ****   By default, after the @ref HAL_RTC_Init() and when the state is HAL_RTC_STATE_RESET,
 157:Drivers/STM32U0xx_HAL_Driver/Src/stm32u0xx_hal_rtc.c ****   all callbacks are set to the corresponding weak functions :
 158:Drivers/STM32U0xx_HAL_Driver/Src/stm32u0xx_hal_rtc.c ****   examples @ref AlarmAEventCallback(), @ref TimeStampEventCallback().
 159:Drivers/STM32U0xx_HAL_Driver/Src/stm32u0xx_hal_rtc.c ****   Exception done for MspInit and MspDeInit callbacks that are reset to the legacy weak function
 160:Drivers/STM32U0xx_HAL_Driver/Src/stm32u0xx_hal_rtc.c ****   in the @ref HAL_RTC_Init()/@ref HAL_RTC_DeInit() only when these callbacks are null
 161:Drivers/STM32U0xx_HAL_Driver/Src/stm32u0xx_hal_rtc.c ****   (not registered beforehand).
 162:Drivers/STM32U0xx_HAL_Driver/Src/stm32u0xx_hal_rtc.c ****   If not, MspInit or MspDeInit are not null, @ref HAL_RTC_Init()/@ref HAL_RTC_DeInit()
 163:Drivers/STM32U0xx_HAL_Driver/Src/stm32u0xx_hal_rtc.c ****   keep and use the user MspInit/MspDeInit callbacks (registered beforehand)
 164:Drivers/STM32U0xx_HAL_Driver/Src/stm32u0xx_hal_rtc.c **** 
 165:Drivers/STM32U0xx_HAL_Driver/Src/stm32u0xx_hal_rtc.c ****   Callbacks can be registered/unregistered in HAL_RTC_STATE_READY state only.
 166:Drivers/STM32U0xx_HAL_Driver/Src/stm32u0xx_hal_rtc.c ****   Exception done MspInit/MspDeInit that can be registered/unregistered
 167:Drivers/STM32U0xx_HAL_Driver/Src/stm32u0xx_hal_rtc.c ****   in HAL_RTC_STATE_READY or HAL_RTC_STATE_RESET state,
 168:Drivers/STM32U0xx_HAL_Driver/Src/stm32u0xx_hal_rtc.c ****   thus registered (user) MspInit/DeInit callbacks can be used during the Init/DeInit.
 169:Drivers/STM32U0xx_HAL_Driver/Src/stm32u0xx_hal_rtc.c ****   In that case first register the MspInit/MspDeInit user callbacks
 170:Drivers/STM32U0xx_HAL_Driver/Src/stm32u0xx_hal_rtc.c ****   using @ref HAL_RTC_RegisterCallback() before calling @ref HAL_RTC_DeInit()
 171:Drivers/STM32U0xx_HAL_Driver/Src/stm32u0xx_hal_rtc.c ****   or @ref HAL_RTC_Init() function.
 172:Drivers/STM32U0xx_HAL_Driver/Src/stm32u0xx_hal_rtc.c **** 
 173:Drivers/STM32U0xx_HAL_Driver/Src/stm32u0xx_hal_rtc.c ****   When The compilation define USE_HAL_RTC_REGISTER_CALLBACKS is set to 0 or
 174:Drivers/STM32U0xx_HAL_Driver/Src/stm32u0xx_hal_rtc.c ****   not defined, the callback registration feature is not available and all callbacks
 175:Drivers/STM32U0xx_HAL_Driver/Src/stm32u0xx_hal_rtc.c ****   are set to the corresponding weak functions.
 176:Drivers/STM32U0xx_HAL_Driver/Src/stm32u0xx_hal_rtc.c **** 
 177:Drivers/STM32U0xx_HAL_Driver/Src/stm32u0xx_hal_rtc.c ****   @endverbatim
 178:Drivers/STM32U0xx_HAL_Driver/Src/stm32u0xx_hal_rtc.c ****   */
 179:Drivers/STM32U0xx_HAL_Driver/Src/stm32u0xx_hal_rtc.c **** 
 180:Drivers/STM32U0xx_HAL_Driver/Src/stm32u0xx_hal_rtc.c **** /* Includes ------------------------------------------------------------------*/
 181:Drivers/STM32U0xx_HAL_Driver/Src/stm32u0xx_hal_rtc.c **** #include "stm32u0xx_hal.h"
 182:Drivers/STM32U0xx_HAL_Driver/Src/stm32u0xx_hal_rtc.c **** 
 183:Drivers/STM32U0xx_HAL_Driver/Src/stm32u0xx_hal_rtc.c **** /** @addtogroup STM32U0xx_HAL_Driver
 184:Drivers/STM32U0xx_HAL_Driver/Src/stm32u0xx_hal_rtc.c ****   * @{
 185:Drivers/STM32U0xx_HAL_Driver/Src/stm32u0xx_hal_rtc.c ****   */
 186:Drivers/STM32U0xx_HAL_Driver/Src/stm32u0xx_hal_rtc.c **** 
 187:Drivers/STM32U0xx_HAL_Driver/Src/stm32u0xx_hal_rtc.c **** 
 188:Drivers/STM32U0xx_HAL_Driver/Src/stm32u0xx_hal_rtc.c **** /** @addtogroup RTC
 189:Drivers/STM32U0xx_HAL_Driver/Src/stm32u0xx_hal_rtc.c ****   * @brief RTC HAL module driver
 190:Drivers/STM32U0xx_HAL_Driver/Src/stm32u0xx_hal_rtc.c ****   * @{
 191:Drivers/STM32U0xx_HAL_Driver/Src/stm32u0xx_hal_rtc.c ****   */
 192:Drivers/STM32U0xx_HAL_Driver/Src/stm32u0xx_hal_rtc.c **** 
 193:Drivers/STM32U0xx_HAL_Driver/Src/stm32u0xx_hal_rtc.c **** #ifdef HAL_RTC_MODULE_ENABLED
 194:Drivers/STM32U0xx_HAL_Driver/Src/stm32u0xx_hal_rtc.c **** 
 195:Drivers/STM32U0xx_HAL_Driver/Src/stm32u0xx_hal_rtc.c **** /* Private typedef -----------------------------------------------------------*/
 196:Drivers/STM32U0xx_HAL_Driver/Src/stm32u0xx_hal_rtc.c **** /* Private define ------------------------------------------------------------*/
 197:Drivers/STM32U0xx_HAL_Driver/Src/stm32u0xx_hal_rtc.c **** /* Private macro -------------------------------------------------------------*/
 198:Drivers/STM32U0xx_HAL_Driver/Src/stm32u0xx_hal_rtc.c **** /* Private variables ---------------------------------------------------------*/
 199:Drivers/STM32U0xx_HAL_Driver/Src/stm32u0xx_hal_rtc.c **** /* Private function prototypes -----------------------------------------------*/
 200:Drivers/STM32U0xx_HAL_Driver/Src/stm32u0xx_hal_rtc.c **** /* Exported functions --------------------------------------------------------*/
 201:Drivers/STM32U0xx_HAL_Driver/Src/stm32u0xx_hal_rtc.c **** 
ARM GAS  C:\Users\upo\AppData\Local\Temp\ccIlAiYO.s 			page 5


 202:Drivers/STM32U0xx_HAL_Driver/Src/stm32u0xx_hal_rtc.c **** /** @addtogroup RTC_Exported_Functions
 203:Drivers/STM32U0xx_HAL_Driver/Src/stm32u0xx_hal_rtc.c ****   * @{
 204:Drivers/STM32U0xx_HAL_Driver/Src/stm32u0xx_hal_rtc.c ****   */
 205:Drivers/STM32U0xx_HAL_Driver/Src/stm32u0xx_hal_rtc.c **** 
 206:Drivers/STM32U0xx_HAL_Driver/Src/stm32u0xx_hal_rtc.c **** /** @addtogroup RTC_Exported_Functions_Group1
 207:Drivers/STM32U0xx_HAL_Driver/Src/stm32u0xx_hal_rtc.c ****   * @brief    Initialization and Configuration functions
 208:Drivers/STM32U0xx_HAL_Driver/Src/stm32u0xx_hal_rtc.c ****   *
 209:Drivers/STM32U0xx_HAL_Driver/Src/stm32u0xx_hal_rtc.c **** @verbatim
 210:Drivers/STM32U0xx_HAL_Driver/Src/stm32u0xx_hal_rtc.c ****  ===============================================================================
 211:Drivers/STM32U0xx_HAL_Driver/Src/stm32u0xx_hal_rtc.c ****               ##### Initialization and de-initialization functions #####
 212:Drivers/STM32U0xx_HAL_Driver/Src/stm32u0xx_hal_rtc.c ****  ===============================================================================
 213:Drivers/STM32U0xx_HAL_Driver/Src/stm32u0xx_hal_rtc.c ****    [..] This section provides functions allowing to initialize and configure the
 214:Drivers/STM32U0xx_HAL_Driver/Src/stm32u0xx_hal_rtc.c ****          RTC Prescaler (Synchronous and Asynchronous), RTC Hour format, disable
 215:Drivers/STM32U0xx_HAL_Driver/Src/stm32u0xx_hal_rtc.c ****          RTC registers Write protection, enter and exit the RTC initialization mode,
 216:Drivers/STM32U0xx_HAL_Driver/Src/stm32u0xx_hal_rtc.c ****          RTC registers synchronization check and reference clock detection enable.
 217:Drivers/STM32U0xx_HAL_Driver/Src/stm32u0xx_hal_rtc.c ****          (#) The RTC Prescaler is programmed to generate the RTC 1Hz time base.
 218:Drivers/STM32U0xx_HAL_Driver/Src/stm32u0xx_hal_rtc.c ****              It is split into 2 programmable prescalers to minimize power consumption.
 219:Drivers/STM32U0xx_HAL_Driver/Src/stm32u0xx_hal_rtc.c ****              (++) A 7-bit asynchronous prescaler and a 15-bit synchronous prescaler.
 220:Drivers/STM32U0xx_HAL_Driver/Src/stm32u0xx_hal_rtc.c ****              (++) When both prescalers are used, it is recommended to configure the
 221:Drivers/STM32U0xx_HAL_Driver/Src/stm32u0xx_hal_rtc.c ****                  asynchronous prescaler to a high value to minimize power consumption.
 222:Drivers/STM32U0xx_HAL_Driver/Src/stm32u0xx_hal_rtc.c ****          (#) All RTC registers are Write protected. Writing to the RTC registers
 223:Drivers/STM32U0xx_HAL_Driver/Src/stm32u0xx_hal_rtc.c ****              is enabled by writing a key into the Write Protection register, RTC_WPR.
 224:Drivers/STM32U0xx_HAL_Driver/Src/stm32u0xx_hal_rtc.c ****          (#) To configure the RTC Calendar, user application should enter
 225:Drivers/STM32U0xx_HAL_Driver/Src/stm32u0xx_hal_rtc.c ****              initialization mode. In this mode, the calendar counter is stopped
 226:Drivers/STM32U0xx_HAL_Driver/Src/stm32u0xx_hal_rtc.c ****              and its value can be updated. When the initialization sequence is
 227:Drivers/STM32U0xx_HAL_Driver/Src/stm32u0xx_hal_rtc.c ****              complete, the calendar restarts counting after 4 RTCCLK cycles.
 228:Drivers/STM32U0xx_HAL_Driver/Src/stm32u0xx_hal_rtc.c ****          (#) To read the calendar through the shadow registers after Calendar
 229:Drivers/STM32U0xx_HAL_Driver/Src/stm32u0xx_hal_rtc.c ****              initialization, calendar update or after wakeup from low power modes
 230:Drivers/STM32U0xx_HAL_Driver/Src/stm32u0xx_hal_rtc.c ****              the software must first clear the RSF flag. The software must then
 231:Drivers/STM32U0xx_HAL_Driver/Src/stm32u0xx_hal_rtc.c ****              wait until it is set again before reading the calendar, which means
 232:Drivers/STM32U0xx_HAL_Driver/Src/stm32u0xx_hal_rtc.c ****              that the calendar registers have been correctly copied into the
 233:Drivers/STM32U0xx_HAL_Driver/Src/stm32u0xx_hal_rtc.c ****              RTC_TR and RTC_DR shadow registers.The HAL_RTC_WaitForSynchro() function
 234:Drivers/STM32U0xx_HAL_Driver/Src/stm32u0xx_hal_rtc.c ****              implements the above software sequence (RSF clear and RSF check).
 235:Drivers/STM32U0xx_HAL_Driver/Src/stm32u0xx_hal_rtc.c **** 
 236:Drivers/STM32U0xx_HAL_Driver/Src/stm32u0xx_hal_rtc.c **** @endverbatim
 237:Drivers/STM32U0xx_HAL_Driver/Src/stm32u0xx_hal_rtc.c ****   * @{
 238:Drivers/STM32U0xx_HAL_Driver/Src/stm32u0xx_hal_rtc.c ****   */
 239:Drivers/STM32U0xx_HAL_Driver/Src/stm32u0xx_hal_rtc.c **** 
 240:Drivers/STM32U0xx_HAL_Driver/Src/stm32u0xx_hal_rtc.c **** /**
 241:Drivers/STM32U0xx_HAL_Driver/Src/stm32u0xx_hal_rtc.c ****   * @brief  Initialize the RTC peripheral
 242:Drivers/STM32U0xx_HAL_Driver/Src/stm32u0xx_hal_rtc.c ****   * @param  hrtc RTC handle
 243:Drivers/STM32U0xx_HAL_Driver/Src/stm32u0xx_hal_rtc.c ****   * @retval HAL status
 244:Drivers/STM32U0xx_HAL_Driver/Src/stm32u0xx_hal_rtc.c ****   */
 245:Drivers/STM32U0xx_HAL_Driver/Src/stm32u0xx_hal_rtc.c **** HAL_StatusTypeDef HAL_RTC_Init(RTC_HandleTypeDef *hrtc)
 246:Drivers/STM32U0xx_HAL_Driver/Src/stm32u0xx_hal_rtc.c **** {
 247:Drivers/STM32U0xx_HAL_Driver/Src/stm32u0xx_hal_rtc.c ****   HAL_StatusTypeDef status = HAL_ERROR;
 248:Drivers/STM32U0xx_HAL_Driver/Src/stm32u0xx_hal_rtc.c **** 
 249:Drivers/STM32U0xx_HAL_Driver/Src/stm32u0xx_hal_rtc.c ****   /* Check the RTC peripheral state */
 250:Drivers/STM32U0xx_HAL_Driver/Src/stm32u0xx_hal_rtc.c ****   if (hrtc != NULL)
 251:Drivers/STM32U0xx_HAL_Driver/Src/stm32u0xx_hal_rtc.c ****   {
 252:Drivers/STM32U0xx_HAL_Driver/Src/stm32u0xx_hal_rtc.c ****     status = HAL_OK;
 253:Drivers/STM32U0xx_HAL_Driver/Src/stm32u0xx_hal_rtc.c ****     /* Check the parameters */
 254:Drivers/STM32U0xx_HAL_Driver/Src/stm32u0xx_hal_rtc.c ****     assert_param(IS_RTC_ALL_INSTANCE(hrtc->Instance));
 255:Drivers/STM32U0xx_HAL_Driver/Src/stm32u0xx_hal_rtc.c ****     assert_param(IS_RTC_HOUR_FORMAT(hrtc->Init.HourFormat));
 256:Drivers/STM32U0xx_HAL_Driver/Src/stm32u0xx_hal_rtc.c ****     assert_param(IS_RTC_ASYNCH_PREDIV(hrtc->Init.AsynchPrediv));
 257:Drivers/STM32U0xx_HAL_Driver/Src/stm32u0xx_hal_rtc.c ****     assert_param(IS_RTC_SYNCH_PREDIV(hrtc->Init.SynchPrediv));
 258:Drivers/STM32U0xx_HAL_Driver/Src/stm32u0xx_hal_rtc.c ****     assert_param(IS_RTC_OUTPUT(hrtc->Init.OutPut));
ARM GAS  C:\Users\upo\AppData\Local\Temp\ccIlAiYO.s 			page 6


 259:Drivers/STM32U0xx_HAL_Driver/Src/stm32u0xx_hal_rtc.c ****     assert_param(IS_RTC_OUTPUT_REMAP(hrtc->Init.OutPutRemap));
 260:Drivers/STM32U0xx_HAL_Driver/Src/stm32u0xx_hal_rtc.c ****     assert_param(IS_RTC_OUTPUT_POL(hrtc->Init.OutPutPolarity));
 261:Drivers/STM32U0xx_HAL_Driver/Src/stm32u0xx_hal_rtc.c ****     assert_param(IS_RTC_OUTPUT_TYPE(hrtc->Init.OutPutType));
 262:Drivers/STM32U0xx_HAL_Driver/Src/stm32u0xx_hal_rtc.c ****     assert_param(IS_RTC_OUTPUT_PULLUP(hrtc->Init.OutPutPullUp));
 263:Drivers/STM32U0xx_HAL_Driver/Src/stm32u0xx_hal_rtc.c ****     assert_param(IS_RTC_BINARY_MODE(hrtc->Init.BinMode));
 264:Drivers/STM32U0xx_HAL_Driver/Src/stm32u0xx_hal_rtc.c ****     assert_param(IS_RTC_BINARY_MIX_BCDU(hrtc->Init.BinMixBcdU));
 265:Drivers/STM32U0xx_HAL_Driver/Src/stm32u0xx_hal_rtc.c **** 
 266:Drivers/STM32U0xx_HAL_Driver/Src/stm32u0xx_hal_rtc.c **** #if (USE_HAL_RTC_REGISTER_CALLBACKS == 1)
 267:Drivers/STM32U0xx_HAL_Driver/Src/stm32u0xx_hal_rtc.c ****     if (hrtc->State == HAL_RTC_STATE_RESET)
 268:Drivers/STM32U0xx_HAL_Driver/Src/stm32u0xx_hal_rtc.c ****     {
 269:Drivers/STM32U0xx_HAL_Driver/Src/stm32u0xx_hal_rtc.c ****       /* Allocate lock resource and initialize it */
 270:Drivers/STM32U0xx_HAL_Driver/Src/stm32u0xx_hal_rtc.c ****       hrtc->Lock = HAL_UNLOCKED;
 271:Drivers/STM32U0xx_HAL_Driver/Src/stm32u0xx_hal_rtc.c **** 
 272:Drivers/STM32U0xx_HAL_Driver/Src/stm32u0xx_hal_rtc.c ****       hrtc->AlarmAEventCallback          =  HAL_RTC_AlarmAEventCallback;        /* Legacy weak Alar
 273:Drivers/STM32U0xx_HAL_Driver/Src/stm32u0xx_hal_rtc.c ****       hrtc->AlarmBEventCallback          =  HAL_RTCEx_AlarmBEventCallback;      /* Legacy weak Alar
 274:Drivers/STM32U0xx_HAL_Driver/Src/stm32u0xx_hal_rtc.c ****       hrtc->TimeStampEventCallback       =  HAL_RTCEx_TimeStampEventCallback;   /* Legacy weak Time
 275:Drivers/STM32U0xx_HAL_Driver/Src/stm32u0xx_hal_rtc.c ****       hrtc->WakeUpTimerEventCallback     =  HAL_RTCEx_WakeUpTimerEventCallback; /* Legacy weak
 276:Drivers/STM32U0xx_HAL_Driver/Src/stm32u0xx_hal_rtc.c ****                                                                                    WakeUpTimerEvent
 277:Drivers/STM32U0xx_HAL_Driver/Src/stm32u0xx_hal_rtc.c ****       hrtc->SSRUEventCallback            =  HAL_RTCEx_SSRUEventCallback;        /* Legacy weak SSRU
 278:Drivers/STM32U0xx_HAL_Driver/Src/stm32u0xx_hal_rtc.c ****       hrtc->Tamper1EventCallback         =  HAL_RTCEx_Tamper1EventCallback;     /* Legacy weak Tamp
 279:Drivers/STM32U0xx_HAL_Driver/Src/stm32u0xx_hal_rtc.c ****       hrtc->Tamper2EventCallback         =  HAL_RTCEx_Tamper2EventCallback;     /* Legacy weak Tamp
 280:Drivers/STM32U0xx_HAL_Driver/Src/stm32u0xx_hal_rtc.c ****       hrtc->Tamper3EventCallback         =  HAL_RTCEx_Tamper3EventCallback;     /* Legacy weak Tamp
 281:Drivers/STM32U0xx_HAL_Driver/Src/stm32u0xx_hal_rtc.c ****       hrtc->Tamper4EventCallback         =  HAL_RTCEx_Tamper4EventCallback;     /* Legacy weak Tamp
 282:Drivers/STM32U0xx_HAL_Driver/Src/stm32u0xx_hal_rtc.c ****       hrtc->Tamper5EventCallback         =  HAL_RTCEx_Tamper5EventCallback;     /* Legacy weak Tamp
 283:Drivers/STM32U0xx_HAL_Driver/Src/stm32u0xx_hal_rtc.c ****       hrtc->InternalTamper3EventCallback =  HAL_RTCEx_InternalTamper3EventCallback;  /* Legacy weak
 284:Drivers/STM32U0xx_HAL_Driver/Src/stm32u0xx_hal_rtc.c ****                                                                                         InternalTam
 285:Drivers/STM32U0xx_HAL_Driver/Src/stm32u0xx_hal_rtc.c ****       hrtc->InternalTamper4EventCallback =  HAL_RTCEx_InternalTamper4EventCallback;  /* Legacy weak
 286:Drivers/STM32U0xx_HAL_Driver/Src/stm32u0xx_hal_rtc.c ****                                                                                         InternalTam
 287:Drivers/STM32U0xx_HAL_Driver/Src/stm32u0xx_hal_rtc.c ****       hrtc->InternalTamper5EventCallback =  HAL_RTCEx_InternalTamper5EventCallback;  /* Legacy weak
 288:Drivers/STM32U0xx_HAL_Driver/Src/stm32u0xx_hal_rtc.c ****                                                                                         InternalTam
 289:Drivers/STM32U0xx_HAL_Driver/Src/stm32u0xx_hal_rtc.c ****       hrtc->InternalTamper6EventCallback =  HAL_RTCEx_InternalTamper6EventCallback;  /* Legacy weak
 290:Drivers/STM32U0xx_HAL_Driver/Src/stm32u0xx_hal_rtc.c ****                                                                                         InternalTam
 291:Drivers/STM32U0xx_HAL_Driver/Src/stm32u0xx_hal_rtc.c **** 
 292:Drivers/STM32U0xx_HAL_Driver/Src/stm32u0xx_hal_rtc.c ****       if (hrtc->MspInitCallback == NULL)
 293:Drivers/STM32U0xx_HAL_Driver/Src/stm32u0xx_hal_rtc.c ****       {
 294:Drivers/STM32U0xx_HAL_Driver/Src/stm32u0xx_hal_rtc.c ****         hrtc->MspInitCallback = HAL_RTC_MspInit;
 295:Drivers/STM32U0xx_HAL_Driver/Src/stm32u0xx_hal_rtc.c ****       }
 296:Drivers/STM32U0xx_HAL_Driver/Src/stm32u0xx_hal_rtc.c ****       /* Init the low level hardware */
 297:Drivers/STM32U0xx_HAL_Driver/Src/stm32u0xx_hal_rtc.c ****       hrtc->MspInitCallback(hrtc);
 298:Drivers/STM32U0xx_HAL_Driver/Src/stm32u0xx_hal_rtc.c **** 
 299:Drivers/STM32U0xx_HAL_Driver/Src/stm32u0xx_hal_rtc.c ****       if (hrtc->MspDeInitCallback == NULL)
 300:Drivers/STM32U0xx_HAL_Driver/Src/stm32u0xx_hal_rtc.c ****       {
 301:Drivers/STM32U0xx_HAL_Driver/Src/stm32u0xx_hal_rtc.c ****         hrtc->MspDeInitCallback = HAL_RTC_MspDeInit;
 302:Drivers/STM32U0xx_HAL_Driver/Src/stm32u0xx_hal_rtc.c ****       }
 303:Drivers/STM32U0xx_HAL_Driver/Src/stm32u0xx_hal_rtc.c ****     }
 304:Drivers/STM32U0xx_HAL_Driver/Src/stm32u0xx_hal_rtc.c **** #else
 305:Drivers/STM32U0xx_HAL_Driver/Src/stm32u0xx_hal_rtc.c ****     if (hrtc->State == HAL_RTC_STATE_RESET)
 306:Drivers/STM32U0xx_HAL_Driver/Src/stm32u0xx_hal_rtc.c ****     {
 307:Drivers/STM32U0xx_HAL_Driver/Src/stm32u0xx_hal_rtc.c ****       /* Allocate lock resource and initialize it */
 308:Drivers/STM32U0xx_HAL_Driver/Src/stm32u0xx_hal_rtc.c ****       hrtc->Lock = HAL_UNLOCKED;
 309:Drivers/STM32U0xx_HAL_Driver/Src/stm32u0xx_hal_rtc.c **** 
 310:Drivers/STM32U0xx_HAL_Driver/Src/stm32u0xx_hal_rtc.c ****       /* Initialize RTC MSP */
 311:Drivers/STM32U0xx_HAL_Driver/Src/stm32u0xx_hal_rtc.c ****       HAL_RTC_MspInit(hrtc);
 312:Drivers/STM32U0xx_HAL_Driver/Src/stm32u0xx_hal_rtc.c ****     }
 313:Drivers/STM32U0xx_HAL_Driver/Src/stm32u0xx_hal_rtc.c **** #endif /* (USE_HAL_RTC_REGISTER_CALLBACKS) */
 314:Drivers/STM32U0xx_HAL_Driver/Src/stm32u0xx_hal_rtc.c **** 
 315:Drivers/STM32U0xx_HAL_Driver/Src/stm32u0xx_hal_rtc.c ****     /* Set RTC state */
ARM GAS  C:\Users\upo\AppData\Local\Temp\ccIlAiYO.s 			page 7


 316:Drivers/STM32U0xx_HAL_Driver/Src/stm32u0xx_hal_rtc.c ****     hrtc->State = HAL_RTC_STATE_BUSY;
 317:Drivers/STM32U0xx_HAL_Driver/Src/stm32u0xx_hal_rtc.c **** 
 318:Drivers/STM32U0xx_HAL_Driver/Src/stm32u0xx_hal_rtc.c ****     /* Disable the write protection for RTC registers */
 319:Drivers/STM32U0xx_HAL_Driver/Src/stm32u0xx_hal_rtc.c ****     __HAL_RTC_WRITEPROTECTION_DISABLE(hrtc);
 320:Drivers/STM32U0xx_HAL_Driver/Src/stm32u0xx_hal_rtc.c **** 
 321:Drivers/STM32U0xx_HAL_Driver/Src/stm32u0xx_hal_rtc.c ****     /* Set Initialization mode */
 322:Drivers/STM32U0xx_HAL_Driver/Src/stm32u0xx_hal_rtc.c ****     if (RTC_EnterInitMode(hrtc) != HAL_OK)
 323:Drivers/STM32U0xx_HAL_Driver/Src/stm32u0xx_hal_rtc.c ****     {
 324:Drivers/STM32U0xx_HAL_Driver/Src/stm32u0xx_hal_rtc.c ****       /* Enable the write protection for RTC registers */
 325:Drivers/STM32U0xx_HAL_Driver/Src/stm32u0xx_hal_rtc.c ****       __HAL_RTC_WRITEPROTECTION_ENABLE(hrtc);
 326:Drivers/STM32U0xx_HAL_Driver/Src/stm32u0xx_hal_rtc.c **** 
 327:Drivers/STM32U0xx_HAL_Driver/Src/stm32u0xx_hal_rtc.c ****       /* Set RTC state */
 328:Drivers/STM32U0xx_HAL_Driver/Src/stm32u0xx_hal_rtc.c ****       hrtc->State = HAL_RTC_STATE_ERROR;
 329:Drivers/STM32U0xx_HAL_Driver/Src/stm32u0xx_hal_rtc.c **** 
 330:Drivers/STM32U0xx_HAL_Driver/Src/stm32u0xx_hal_rtc.c ****       status = HAL_ERROR;
 331:Drivers/STM32U0xx_HAL_Driver/Src/stm32u0xx_hal_rtc.c ****     }
 332:Drivers/STM32U0xx_HAL_Driver/Src/stm32u0xx_hal_rtc.c ****     else
 333:Drivers/STM32U0xx_HAL_Driver/Src/stm32u0xx_hal_rtc.c ****     {
 334:Drivers/STM32U0xx_HAL_Driver/Src/stm32u0xx_hal_rtc.c ****       /* Clear RTC_CR FMT, OSEL and POL Bits */
 335:Drivers/STM32U0xx_HAL_Driver/Src/stm32u0xx_hal_rtc.c ****       CLEAR_BIT(RTC->CR, (RTC_CR_FMT | RTC_CR_POL | RTC_CR_OSEL | RTC_CR_TAMPOE));
 336:Drivers/STM32U0xx_HAL_Driver/Src/stm32u0xx_hal_rtc.c ****       /* Set RTC_CR register */
 337:Drivers/STM32U0xx_HAL_Driver/Src/stm32u0xx_hal_rtc.c ****       SET_BIT(RTC->CR, (hrtc->Init.HourFormat | hrtc->Init.OutPut | hrtc->Init.OutPutPolarity));
 338:Drivers/STM32U0xx_HAL_Driver/Src/stm32u0xx_hal_rtc.c **** 
 339:Drivers/STM32U0xx_HAL_Driver/Src/stm32u0xx_hal_rtc.c ****       /* Configure the RTC PRER */
 340:Drivers/STM32U0xx_HAL_Driver/Src/stm32u0xx_hal_rtc.c ****       WRITE_REG(RTC->PRER, ((hrtc->Init.SynchPrediv) | (hrtc->Init.AsynchPrediv << RTC_PRER_PREDIV_
 341:Drivers/STM32U0xx_HAL_Driver/Src/stm32u0xx_hal_rtc.c **** 
 342:Drivers/STM32U0xx_HAL_Driver/Src/stm32u0xx_hal_rtc.c ****       /* Configure the Binary mode */
 343:Drivers/STM32U0xx_HAL_Driver/Src/stm32u0xx_hal_rtc.c ****       MODIFY_REG(RTC->ICSR, RTC_ICSR_BIN | RTC_ICSR_BCDU, hrtc->Init.BinMode | hrtc->Init.BinMixBcd
 344:Drivers/STM32U0xx_HAL_Driver/Src/stm32u0xx_hal_rtc.c **** 
 345:Drivers/STM32U0xx_HAL_Driver/Src/stm32u0xx_hal_rtc.c ****       /* Exit Initialization mode */
 346:Drivers/STM32U0xx_HAL_Driver/Src/stm32u0xx_hal_rtc.c ****       CLEAR_BIT(RTC->ICSR, RTC_ICSR_INIT);
 347:Drivers/STM32U0xx_HAL_Driver/Src/stm32u0xx_hal_rtc.c **** 
 348:Drivers/STM32U0xx_HAL_Driver/Src/stm32u0xx_hal_rtc.c ****       /* If CR_BYPSHAD bit = 0, wait for synchro else this check is not needed */
 349:Drivers/STM32U0xx_HAL_Driver/Src/stm32u0xx_hal_rtc.c ****       if (READ_BIT(RTC->CR, RTC_CR_BYPSHAD) == 0U)
 350:Drivers/STM32U0xx_HAL_Driver/Src/stm32u0xx_hal_rtc.c ****       {
 351:Drivers/STM32U0xx_HAL_Driver/Src/stm32u0xx_hal_rtc.c ****         if (HAL_RTC_WaitForSynchro(hrtc) != HAL_OK)
 352:Drivers/STM32U0xx_HAL_Driver/Src/stm32u0xx_hal_rtc.c ****         {
 353:Drivers/STM32U0xx_HAL_Driver/Src/stm32u0xx_hal_rtc.c ****           /* Enable the write protection for RTC registers */
 354:Drivers/STM32U0xx_HAL_Driver/Src/stm32u0xx_hal_rtc.c ****           __HAL_RTC_WRITEPROTECTION_ENABLE(hrtc);
 355:Drivers/STM32U0xx_HAL_Driver/Src/stm32u0xx_hal_rtc.c **** 
 356:Drivers/STM32U0xx_HAL_Driver/Src/stm32u0xx_hal_rtc.c ****           hrtc->State = HAL_RTC_STATE_ERROR;
 357:Drivers/STM32U0xx_HAL_Driver/Src/stm32u0xx_hal_rtc.c ****           status = HAL_ERROR;
 358:Drivers/STM32U0xx_HAL_Driver/Src/stm32u0xx_hal_rtc.c ****         }
 359:Drivers/STM32U0xx_HAL_Driver/Src/stm32u0xx_hal_rtc.c ****       }
 360:Drivers/STM32U0xx_HAL_Driver/Src/stm32u0xx_hal_rtc.c **** 
 361:Drivers/STM32U0xx_HAL_Driver/Src/stm32u0xx_hal_rtc.c ****       if (status == HAL_OK)
 362:Drivers/STM32U0xx_HAL_Driver/Src/stm32u0xx_hal_rtc.c ****       {
 363:Drivers/STM32U0xx_HAL_Driver/Src/stm32u0xx_hal_rtc.c ****         MODIFY_REG(RTC->CR, \
 364:Drivers/STM32U0xx_HAL_Driver/Src/stm32u0xx_hal_rtc.c ****                    RTC_CR_TAMPALRM_PU | RTC_CR_TAMPALRM_TYPE | RTC_CR_OUT2EN, \
 365:Drivers/STM32U0xx_HAL_Driver/Src/stm32u0xx_hal_rtc.c ****                    hrtc->Init.OutPutPullUp | hrtc->Init.OutPutType | hrtc->Init.OutPutRemap);
 366:Drivers/STM32U0xx_HAL_Driver/Src/stm32u0xx_hal_rtc.c **** 
 367:Drivers/STM32U0xx_HAL_Driver/Src/stm32u0xx_hal_rtc.c ****         /* Enable the write protection for RTC registers */
 368:Drivers/STM32U0xx_HAL_Driver/Src/stm32u0xx_hal_rtc.c ****         __HAL_RTC_WRITEPROTECTION_ENABLE(hrtc);
 369:Drivers/STM32U0xx_HAL_Driver/Src/stm32u0xx_hal_rtc.c **** 
 370:Drivers/STM32U0xx_HAL_Driver/Src/stm32u0xx_hal_rtc.c ****         /* Set RTC state */
 371:Drivers/STM32U0xx_HAL_Driver/Src/stm32u0xx_hal_rtc.c ****         hrtc->State = HAL_RTC_STATE_READY;
 372:Drivers/STM32U0xx_HAL_Driver/Src/stm32u0xx_hal_rtc.c ****       }
ARM GAS  C:\Users\upo\AppData\Local\Temp\ccIlAiYO.s 			page 8


 373:Drivers/STM32U0xx_HAL_Driver/Src/stm32u0xx_hal_rtc.c ****     }
 374:Drivers/STM32U0xx_HAL_Driver/Src/stm32u0xx_hal_rtc.c ****   }
 375:Drivers/STM32U0xx_HAL_Driver/Src/stm32u0xx_hal_rtc.c **** 
 376:Drivers/STM32U0xx_HAL_Driver/Src/stm32u0xx_hal_rtc.c ****   return status;
 377:Drivers/STM32U0xx_HAL_Driver/Src/stm32u0xx_hal_rtc.c **** }
 378:Drivers/STM32U0xx_HAL_Driver/Src/stm32u0xx_hal_rtc.c **** 
 379:Drivers/STM32U0xx_HAL_Driver/Src/stm32u0xx_hal_rtc.c **** /**
 380:Drivers/STM32U0xx_HAL_Driver/Src/stm32u0xx_hal_rtc.c ****   * @brief  DeInitialize the RTC peripheral.
 381:Drivers/STM32U0xx_HAL_Driver/Src/stm32u0xx_hal_rtc.c ****   * @note   This function does not reset the RTC Backup Data registers.
 382:Drivers/STM32U0xx_HAL_Driver/Src/stm32u0xx_hal_rtc.c ****   * @param  hrtc RTC handle
 383:Drivers/STM32U0xx_HAL_Driver/Src/stm32u0xx_hal_rtc.c ****   * @retval HAL status
 384:Drivers/STM32U0xx_HAL_Driver/Src/stm32u0xx_hal_rtc.c ****   */
 385:Drivers/STM32U0xx_HAL_Driver/Src/stm32u0xx_hal_rtc.c **** HAL_StatusTypeDef HAL_RTC_DeInit(RTC_HandleTypeDef *hrtc)
 386:Drivers/STM32U0xx_HAL_Driver/Src/stm32u0xx_hal_rtc.c **** {
 387:Drivers/STM32U0xx_HAL_Driver/Src/stm32u0xx_hal_rtc.c ****   HAL_StatusTypeDef status;
 388:Drivers/STM32U0xx_HAL_Driver/Src/stm32u0xx_hal_rtc.c **** 
 389:Drivers/STM32U0xx_HAL_Driver/Src/stm32u0xx_hal_rtc.c ****   /* Set RTC state */
 390:Drivers/STM32U0xx_HAL_Driver/Src/stm32u0xx_hal_rtc.c ****   hrtc->State = HAL_RTC_STATE_BUSY;
 391:Drivers/STM32U0xx_HAL_Driver/Src/stm32u0xx_hal_rtc.c **** 
 392:Drivers/STM32U0xx_HAL_Driver/Src/stm32u0xx_hal_rtc.c ****   /* Disable the write protection for RTC registers */
 393:Drivers/STM32U0xx_HAL_Driver/Src/stm32u0xx_hal_rtc.c ****   __HAL_RTC_WRITEPROTECTION_DISABLE(hrtc);
 394:Drivers/STM32U0xx_HAL_Driver/Src/stm32u0xx_hal_rtc.c **** 
 395:Drivers/STM32U0xx_HAL_Driver/Src/stm32u0xx_hal_rtc.c ****   status = RTC_EnterInitMode(hrtc);
 396:Drivers/STM32U0xx_HAL_Driver/Src/stm32u0xx_hal_rtc.c **** 
 397:Drivers/STM32U0xx_HAL_Driver/Src/stm32u0xx_hal_rtc.c ****   /* Set Initialization mode */
 398:Drivers/STM32U0xx_HAL_Driver/Src/stm32u0xx_hal_rtc.c ****   if (status != HAL_OK)
 399:Drivers/STM32U0xx_HAL_Driver/Src/stm32u0xx_hal_rtc.c ****   {
 400:Drivers/STM32U0xx_HAL_Driver/Src/stm32u0xx_hal_rtc.c ****     /* Set RTC state */
 401:Drivers/STM32U0xx_HAL_Driver/Src/stm32u0xx_hal_rtc.c ****     hrtc->State = HAL_RTC_STATE_ERROR;
 402:Drivers/STM32U0xx_HAL_Driver/Src/stm32u0xx_hal_rtc.c ****   }
 403:Drivers/STM32U0xx_HAL_Driver/Src/stm32u0xx_hal_rtc.c ****   else
 404:Drivers/STM32U0xx_HAL_Driver/Src/stm32u0xx_hal_rtc.c ****   {
 405:Drivers/STM32U0xx_HAL_Driver/Src/stm32u0xx_hal_rtc.c ****     /* Reset all RTC CR register bits */
 406:Drivers/STM32U0xx_HAL_Driver/Src/stm32u0xx_hal_rtc.c ****     CLEAR_REG(RTC->CR);
 407:Drivers/STM32U0xx_HAL_Driver/Src/stm32u0xx_hal_rtc.c ****     WRITE_REG(RTC->DR, (uint32_t)(RTC_DR_WDU_0 | RTC_DR_MU_0 | RTC_DR_DU_0));
 408:Drivers/STM32U0xx_HAL_Driver/Src/stm32u0xx_hal_rtc.c ****     CLEAR_REG(RTC->TR);
 409:Drivers/STM32U0xx_HAL_Driver/Src/stm32u0xx_hal_rtc.c ****     WRITE_REG(RTC->WUTR, RTC_WUTR_WUT);
 410:Drivers/STM32U0xx_HAL_Driver/Src/stm32u0xx_hal_rtc.c ****     WRITE_REG(RTC->PRER, ((uint32_t)(RTC_PRER_PREDIV_A | 0xFFU)));
 411:Drivers/STM32U0xx_HAL_Driver/Src/stm32u0xx_hal_rtc.c ****     CLEAR_REG(RTC->ALRMAR);
 412:Drivers/STM32U0xx_HAL_Driver/Src/stm32u0xx_hal_rtc.c ****     CLEAR_REG(RTC->ALRMBR);
 413:Drivers/STM32U0xx_HAL_Driver/Src/stm32u0xx_hal_rtc.c ****     CLEAR_REG(RTC->SHIFTR);
 414:Drivers/STM32U0xx_HAL_Driver/Src/stm32u0xx_hal_rtc.c ****     CLEAR_REG(RTC->CALR);
 415:Drivers/STM32U0xx_HAL_Driver/Src/stm32u0xx_hal_rtc.c ****     CLEAR_REG(RTC->ALRMASSR);
 416:Drivers/STM32U0xx_HAL_Driver/Src/stm32u0xx_hal_rtc.c ****     CLEAR_REG(RTC->ALRMBSSR);
 417:Drivers/STM32U0xx_HAL_Driver/Src/stm32u0xx_hal_rtc.c ****     WRITE_REG(RTC->SCR, RTC_SCR_CITSF | RTC_SCR_CTSOVF | RTC_SCR_CTSF | RTC_SCR_CWUTF | RTC_SCR_CAL
 418:Drivers/STM32U0xx_HAL_Driver/Src/stm32u0xx_hal_rtc.c ****               RTC_SCR_CALRAF);
 419:Drivers/STM32U0xx_HAL_Driver/Src/stm32u0xx_hal_rtc.c **** 
 420:Drivers/STM32U0xx_HAL_Driver/Src/stm32u0xx_hal_rtc.c ****     /* Exit initialization mode */
 421:Drivers/STM32U0xx_HAL_Driver/Src/stm32u0xx_hal_rtc.c ****     CLEAR_BIT(RTC->ICSR, RTC_ICSR_INIT);
 422:Drivers/STM32U0xx_HAL_Driver/Src/stm32u0xx_hal_rtc.c **** 
 423:Drivers/STM32U0xx_HAL_Driver/Src/stm32u0xx_hal_rtc.c ****     status = HAL_RTC_WaitForSynchro(hrtc);
 424:Drivers/STM32U0xx_HAL_Driver/Src/stm32u0xx_hal_rtc.c **** 
 425:Drivers/STM32U0xx_HAL_Driver/Src/stm32u0xx_hal_rtc.c ****     if (status != HAL_OK)
 426:Drivers/STM32U0xx_HAL_Driver/Src/stm32u0xx_hal_rtc.c ****     {
 427:Drivers/STM32U0xx_HAL_Driver/Src/stm32u0xx_hal_rtc.c ****       hrtc->State = HAL_RTC_STATE_ERROR;
 428:Drivers/STM32U0xx_HAL_Driver/Src/stm32u0xx_hal_rtc.c ****     }
 429:Drivers/STM32U0xx_HAL_Driver/Src/stm32u0xx_hal_rtc.c ****     else
ARM GAS  C:\Users\upo\AppData\Local\Temp\ccIlAiYO.s 			page 9


 430:Drivers/STM32U0xx_HAL_Driver/Src/stm32u0xx_hal_rtc.c ****     {
 431:Drivers/STM32U0xx_HAL_Driver/Src/stm32u0xx_hal_rtc.c ****       /* Reset TAMP registers */
 432:Drivers/STM32U0xx_HAL_Driver/Src/stm32u0xx_hal_rtc.c ****       CLEAR_REG(TAMP->CR1);
 433:Drivers/STM32U0xx_HAL_Driver/Src/stm32u0xx_hal_rtc.c ****       CLEAR_REG(TAMP->CR2);
 434:Drivers/STM32U0xx_HAL_Driver/Src/stm32u0xx_hal_rtc.c ****       CLEAR_REG(TAMP->CR3);
 435:Drivers/STM32U0xx_HAL_Driver/Src/stm32u0xx_hal_rtc.c ****       CLEAR_REG(TAMP->FLTCR);
 436:Drivers/STM32U0xx_HAL_Driver/Src/stm32u0xx_hal_rtc.c ****     }
 437:Drivers/STM32U0xx_HAL_Driver/Src/stm32u0xx_hal_rtc.c ****   }
 438:Drivers/STM32U0xx_HAL_Driver/Src/stm32u0xx_hal_rtc.c **** 
 439:Drivers/STM32U0xx_HAL_Driver/Src/stm32u0xx_hal_rtc.c ****   /* Enable the write protection for RTC registers */
 440:Drivers/STM32U0xx_HAL_Driver/Src/stm32u0xx_hal_rtc.c ****   __HAL_RTC_WRITEPROTECTION_ENABLE(hrtc);
 441:Drivers/STM32U0xx_HAL_Driver/Src/stm32u0xx_hal_rtc.c **** 
 442:Drivers/STM32U0xx_HAL_Driver/Src/stm32u0xx_hal_rtc.c ****   if (status == HAL_OK)
 443:Drivers/STM32U0xx_HAL_Driver/Src/stm32u0xx_hal_rtc.c ****   {
 444:Drivers/STM32U0xx_HAL_Driver/Src/stm32u0xx_hal_rtc.c **** #if (USE_HAL_RTC_REGISTER_CALLBACKS == 1)
 445:Drivers/STM32U0xx_HAL_Driver/Src/stm32u0xx_hal_rtc.c ****     if (hrtc->MspDeInitCallback == NULL)
 446:Drivers/STM32U0xx_HAL_Driver/Src/stm32u0xx_hal_rtc.c ****     {
 447:Drivers/STM32U0xx_HAL_Driver/Src/stm32u0xx_hal_rtc.c ****       hrtc->MspDeInitCallback = HAL_RTC_MspDeInit;
 448:Drivers/STM32U0xx_HAL_Driver/Src/stm32u0xx_hal_rtc.c ****     }
 449:Drivers/STM32U0xx_HAL_Driver/Src/stm32u0xx_hal_rtc.c **** 
 450:Drivers/STM32U0xx_HAL_Driver/Src/stm32u0xx_hal_rtc.c ****     /* DeInit the low level hardware: CLOCK, NVIC.*/
 451:Drivers/STM32U0xx_HAL_Driver/Src/stm32u0xx_hal_rtc.c ****     hrtc->MspDeInitCallback(hrtc);
 452:Drivers/STM32U0xx_HAL_Driver/Src/stm32u0xx_hal_rtc.c **** 
 453:Drivers/STM32U0xx_HAL_Driver/Src/stm32u0xx_hal_rtc.c **** #else
 454:Drivers/STM32U0xx_HAL_Driver/Src/stm32u0xx_hal_rtc.c ****     /* De-Initialize RTC MSP */
 455:Drivers/STM32U0xx_HAL_Driver/Src/stm32u0xx_hal_rtc.c ****     HAL_RTC_MspDeInit(hrtc);
 456:Drivers/STM32U0xx_HAL_Driver/Src/stm32u0xx_hal_rtc.c **** #endif /* (USE_HAL_RTC_REGISTER_CALLBACKS) */
 457:Drivers/STM32U0xx_HAL_Driver/Src/stm32u0xx_hal_rtc.c **** 
 458:Drivers/STM32U0xx_HAL_Driver/Src/stm32u0xx_hal_rtc.c ****     hrtc->State = HAL_RTC_STATE_RESET;
 459:Drivers/STM32U0xx_HAL_Driver/Src/stm32u0xx_hal_rtc.c ****   }
 460:Drivers/STM32U0xx_HAL_Driver/Src/stm32u0xx_hal_rtc.c **** 
 461:Drivers/STM32U0xx_HAL_Driver/Src/stm32u0xx_hal_rtc.c ****   /* Release Lock */
 462:Drivers/STM32U0xx_HAL_Driver/Src/stm32u0xx_hal_rtc.c ****   __HAL_UNLOCK(hrtc);
 463:Drivers/STM32U0xx_HAL_Driver/Src/stm32u0xx_hal_rtc.c **** 
 464:Drivers/STM32U0xx_HAL_Driver/Src/stm32u0xx_hal_rtc.c ****   return status;
 465:Drivers/STM32U0xx_HAL_Driver/Src/stm32u0xx_hal_rtc.c **** }
 466:Drivers/STM32U0xx_HAL_Driver/Src/stm32u0xx_hal_rtc.c **** 
 467:Drivers/STM32U0xx_HAL_Driver/Src/stm32u0xx_hal_rtc.c **** #if (USE_HAL_RTC_REGISTER_CALLBACKS == 1)
 468:Drivers/STM32U0xx_HAL_Driver/Src/stm32u0xx_hal_rtc.c **** /**
 469:Drivers/STM32U0xx_HAL_Driver/Src/stm32u0xx_hal_rtc.c ****   * @brief  Register a User RTC Callback
 470:Drivers/STM32U0xx_HAL_Driver/Src/stm32u0xx_hal_rtc.c ****   *         To be used instead of the weak predefined callback
 471:Drivers/STM32U0xx_HAL_Driver/Src/stm32u0xx_hal_rtc.c ****   * @param  hrtc RTC handle
 472:Drivers/STM32U0xx_HAL_Driver/Src/stm32u0xx_hal_rtc.c ****   * @param  CallbackID ID of the callback to be registered
 473:Drivers/STM32U0xx_HAL_Driver/Src/stm32u0xx_hal_rtc.c ****   *         This parameter can be one of the following values:
 474:Drivers/STM32U0xx_HAL_Driver/Src/stm32u0xx_hal_rtc.c ****   *          @arg @ref HAL_RTC_ALARM_A_EVENT_CB_ID          Alarm A Event Callback ID
 475:Drivers/STM32U0xx_HAL_Driver/Src/stm32u0xx_hal_rtc.c ****   *          @arg @ref HAL_RTC_ALARM_B_EVENT_CB_ID          Alarm B Event Callback ID
 476:Drivers/STM32U0xx_HAL_Driver/Src/stm32u0xx_hal_rtc.c ****   *          @arg @ref HAL_RTC_TIMESTAMP_EVENT_CB_ID        TimeStamp Event Callback ID
 477:Drivers/STM32U0xx_HAL_Driver/Src/stm32u0xx_hal_rtc.c ****   *          @arg @ref HAL_RTC_WAKEUPTIMER_EVENT_CB_ID      WakeUp Timer Event Callback ID
 478:Drivers/STM32U0xx_HAL_Driver/Src/stm32u0xx_hal_rtc.c ****   *          @arg @ref HAL_RTC_SSRU_EVENT_CB_ID             SSRU Event Callback ID
 479:Drivers/STM32U0xx_HAL_Driver/Src/stm32u0xx_hal_rtc.c ****   *          @arg @ref HAL_RTC_TAMPER1_EVENT_CB_ID          Tamper 1 Callback ID
 480:Drivers/STM32U0xx_HAL_Driver/Src/stm32u0xx_hal_rtc.c ****   *          @arg @ref HAL_RTC_TAMPER2_EVENT_CB_ID          Tamper 2 Callback ID
 481:Drivers/STM32U0xx_HAL_Driver/Src/stm32u0xx_hal_rtc.c ****   *          @arg @ref HAL_RTC_TAMPER3_EVENT_CB_ID          Tamper 3 Callback ID
 482:Drivers/STM32U0xx_HAL_Driver/Src/stm32u0xx_hal_rtc.c ****   *          @arg @ref HAL_RTC_TAMPER4_EVENT_CB_ID          Tamper 4 Callback ID
 483:Drivers/STM32U0xx_HAL_Driver/Src/stm32u0xx_hal_rtc.c ****   *          @arg @ref HAL_RTC_TAMPER5_EVENT_CB_ID          Tamper 5 Callback ID
 484:Drivers/STM32U0xx_HAL_Driver/Src/stm32u0xx_hal_rtc.c ****   *          @arg @ref HAL_RTC_INTERNAL_TAMPER3_EVENT_CB_ID Internal Tamper 3 Callback ID
 485:Drivers/STM32U0xx_HAL_Driver/Src/stm32u0xx_hal_rtc.c ****   *          @arg @ref HAL_RTC_INTERNAL_TAMPER4_EVENT_CB_ID Internal Tamper 4 Callback ID
 486:Drivers/STM32U0xx_HAL_Driver/Src/stm32u0xx_hal_rtc.c ****   *          @arg @ref HAL_RTC_INTERNAL_TAMPER5_EVENT_CB_ID Internal Tamper 5 Callback ID
ARM GAS  C:\Users\upo\AppData\Local\Temp\ccIlAiYO.s 			page 10


 487:Drivers/STM32U0xx_HAL_Driver/Src/stm32u0xx_hal_rtc.c ****   *          @arg @ref HAL_RTC_INTERNAL_TAMPER6_EVENT_CB_ID Internal Tamper 6 Callback ID
 488:Drivers/STM32U0xx_HAL_Driver/Src/stm32u0xx_hal_rtc.c ****   * @param  pCallback pointer to the Callback function
 489:Drivers/STM32U0xx_HAL_Driver/Src/stm32u0xx_hal_rtc.c ****   * @retval HAL status
 490:Drivers/STM32U0xx_HAL_Driver/Src/stm32u0xx_hal_rtc.c ****   */
 491:Drivers/STM32U0xx_HAL_Driver/Src/stm32u0xx_hal_rtc.c **** HAL_StatusTypeDef HAL_RTC_RegisterCallback(RTC_HandleTypeDef *hrtc, HAL_RTC_CallbackIDTypeDef Callb
 492:Drivers/STM32U0xx_HAL_Driver/Src/stm32u0xx_hal_rtc.c ****                                            pRTC_CallbackTypeDef pCallback)
 493:Drivers/STM32U0xx_HAL_Driver/Src/stm32u0xx_hal_rtc.c **** {
 494:Drivers/STM32U0xx_HAL_Driver/Src/stm32u0xx_hal_rtc.c ****   HAL_StatusTypeDef status = HAL_OK;
 495:Drivers/STM32U0xx_HAL_Driver/Src/stm32u0xx_hal_rtc.c **** 
 496:Drivers/STM32U0xx_HAL_Driver/Src/stm32u0xx_hal_rtc.c ****   if (pCallback == NULL)
 497:Drivers/STM32U0xx_HAL_Driver/Src/stm32u0xx_hal_rtc.c ****   {
 498:Drivers/STM32U0xx_HAL_Driver/Src/stm32u0xx_hal_rtc.c ****     return HAL_ERROR;
 499:Drivers/STM32U0xx_HAL_Driver/Src/stm32u0xx_hal_rtc.c ****   }
 500:Drivers/STM32U0xx_HAL_Driver/Src/stm32u0xx_hal_rtc.c **** 
 501:Drivers/STM32U0xx_HAL_Driver/Src/stm32u0xx_hal_rtc.c ****   /* Process locked */
 502:Drivers/STM32U0xx_HAL_Driver/Src/stm32u0xx_hal_rtc.c ****   __HAL_LOCK(hrtc);
 503:Drivers/STM32U0xx_HAL_Driver/Src/stm32u0xx_hal_rtc.c **** 
 504:Drivers/STM32U0xx_HAL_Driver/Src/stm32u0xx_hal_rtc.c ****   if (HAL_RTC_STATE_READY == hrtc->State)
 505:Drivers/STM32U0xx_HAL_Driver/Src/stm32u0xx_hal_rtc.c ****   {
 506:Drivers/STM32U0xx_HAL_Driver/Src/stm32u0xx_hal_rtc.c ****     switch (CallbackID)
 507:Drivers/STM32U0xx_HAL_Driver/Src/stm32u0xx_hal_rtc.c ****     {
 508:Drivers/STM32U0xx_HAL_Driver/Src/stm32u0xx_hal_rtc.c ****       case HAL_RTC_ALARM_A_EVENT_CB_ID :
 509:Drivers/STM32U0xx_HAL_Driver/Src/stm32u0xx_hal_rtc.c ****         hrtc->AlarmAEventCallback = pCallback;
 510:Drivers/STM32U0xx_HAL_Driver/Src/stm32u0xx_hal_rtc.c ****         break;
 511:Drivers/STM32U0xx_HAL_Driver/Src/stm32u0xx_hal_rtc.c **** 
 512:Drivers/STM32U0xx_HAL_Driver/Src/stm32u0xx_hal_rtc.c ****       case HAL_RTC_ALARM_B_EVENT_CB_ID :
 513:Drivers/STM32U0xx_HAL_Driver/Src/stm32u0xx_hal_rtc.c ****         hrtc->AlarmBEventCallback = pCallback;
 514:Drivers/STM32U0xx_HAL_Driver/Src/stm32u0xx_hal_rtc.c ****         break;
 515:Drivers/STM32U0xx_HAL_Driver/Src/stm32u0xx_hal_rtc.c **** 
 516:Drivers/STM32U0xx_HAL_Driver/Src/stm32u0xx_hal_rtc.c ****       case HAL_RTC_TIMESTAMP_EVENT_CB_ID :
 517:Drivers/STM32U0xx_HAL_Driver/Src/stm32u0xx_hal_rtc.c ****         hrtc->TimeStampEventCallback = pCallback;
 518:Drivers/STM32U0xx_HAL_Driver/Src/stm32u0xx_hal_rtc.c ****         break;
 519:Drivers/STM32U0xx_HAL_Driver/Src/stm32u0xx_hal_rtc.c **** 
 520:Drivers/STM32U0xx_HAL_Driver/Src/stm32u0xx_hal_rtc.c ****       case HAL_RTC_WAKEUPTIMER_EVENT_CB_ID :
 521:Drivers/STM32U0xx_HAL_Driver/Src/stm32u0xx_hal_rtc.c ****         hrtc->WakeUpTimerEventCallback = pCallback;
 522:Drivers/STM32U0xx_HAL_Driver/Src/stm32u0xx_hal_rtc.c ****         break;
 523:Drivers/STM32U0xx_HAL_Driver/Src/stm32u0xx_hal_rtc.c **** 
 524:Drivers/STM32U0xx_HAL_Driver/Src/stm32u0xx_hal_rtc.c ****       case HAL_RTC_SSRU_EVENT_CB_ID :
 525:Drivers/STM32U0xx_HAL_Driver/Src/stm32u0xx_hal_rtc.c ****         hrtc->SSRUEventCallback = pCallback;
 526:Drivers/STM32U0xx_HAL_Driver/Src/stm32u0xx_hal_rtc.c ****         break;
 527:Drivers/STM32U0xx_HAL_Driver/Src/stm32u0xx_hal_rtc.c **** 
 528:Drivers/STM32U0xx_HAL_Driver/Src/stm32u0xx_hal_rtc.c ****       case HAL_RTC_TAMPER1_EVENT_CB_ID :
 529:Drivers/STM32U0xx_HAL_Driver/Src/stm32u0xx_hal_rtc.c ****         hrtc->Tamper1EventCallback = pCallback;
 530:Drivers/STM32U0xx_HAL_Driver/Src/stm32u0xx_hal_rtc.c ****         break;
 531:Drivers/STM32U0xx_HAL_Driver/Src/stm32u0xx_hal_rtc.c **** 
 532:Drivers/STM32U0xx_HAL_Driver/Src/stm32u0xx_hal_rtc.c ****       case HAL_RTC_TAMPER2_EVENT_CB_ID :
 533:Drivers/STM32U0xx_HAL_Driver/Src/stm32u0xx_hal_rtc.c ****         hrtc->Tamper2EventCallback = pCallback;
 534:Drivers/STM32U0xx_HAL_Driver/Src/stm32u0xx_hal_rtc.c ****         break;
 535:Drivers/STM32U0xx_HAL_Driver/Src/stm32u0xx_hal_rtc.c **** 
 536:Drivers/STM32U0xx_HAL_Driver/Src/stm32u0xx_hal_rtc.c ****       case HAL_RTC_TAMPER3_EVENT_CB_ID :
 537:Drivers/STM32U0xx_HAL_Driver/Src/stm32u0xx_hal_rtc.c ****         hrtc->Tamper3EventCallback = pCallback;
 538:Drivers/STM32U0xx_HAL_Driver/Src/stm32u0xx_hal_rtc.c ****         break;
 539:Drivers/STM32U0xx_HAL_Driver/Src/stm32u0xx_hal_rtc.c **** 
 540:Drivers/STM32U0xx_HAL_Driver/Src/stm32u0xx_hal_rtc.c ****       case HAL_RTC_TAMPER4_EVENT_CB_ID :
 541:Drivers/STM32U0xx_HAL_Driver/Src/stm32u0xx_hal_rtc.c ****         hrtc->Tamper4EventCallback = pCallback;
 542:Drivers/STM32U0xx_HAL_Driver/Src/stm32u0xx_hal_rtc.c ****         break;
 543:Drivers/STM32U0xx_HAL_Driver/Src/stm32u0xx_hal_rtc.c **** 
ARM GAS  C:\Users\upo\AppData\Local\Temp\ccIlAiYO.s 			page 11


 544:Drivers/STM32U0xx_HAL_Driver/Src/stm32u0xx_hal_rtc.c ****       case HAL_RTC_TAMPER5_EVENT_CB_ID :
 545:Drivers/STM32U0xx_HAL_Driver/Src/stm32u0xx_hal_rtc.c ****         hrtc->Tamper5EventCallback = pCallback;
 546:Drivers/STM32U0xx_HAL_Driver/Src/stm32u0xx_hal_rtc.c ****         break;
 547:Drivers/STM32U0xx_HAL_Driver/Src/stm32u0xx_hal_rtc.c **** 
 548:Drivers/STM32U0xx_HAL_Driver/Src/stm32u0xx_hal_rtc.c ****       case HAL_RTC_INTERNAL_TAMPER3_EVENT_CB_ID :
 549:Drivers/STM32U0xx_HAL_Driver/Src/stm32u0xx_hal_rtc.c ****         hrtc->InternalTamper3EventCallback = pCallback;
 550:Drivers/STM32U0xx_HAL_Driver/Src/stm32u0xx_hal_rtc.c ****         break;
 551:Drivers/STM32U0xx_HAL_Driver/Src/stm32u0xx_hal_rtc.c **** 
 552:Drivers/STM32U0xx_HAL_Driver/Src/stm32u0xx_hal_rtc.c ****       case HAL_RTC_INTERNAL_TAMPER4_EVENT_CB_ID :
 553:Drivers/STM32U0xx_HAL_Driver/Src/stm32u0xx_hal_rtc.c ****         hrtc->InternalTamper4EventCallback = pCallback;
 554:Drivers/STM32U0xx_HAL_Driver/Src/stm32u0xx_hal_rtc.c ****         break;
 555:Drivers/STM32U0xx_HAL_Driver/Src/stm32u0xx_hal_rtc.c **** 
 556:Drivers/STM32U0xx_HAL_Driver/Src/stm32u0xx_hal_rtc.c ****       case HAL_RTC_INTERNAL_TAMPER5_EVENT_CB_ID :
 557:Drivers/STM32U0xx_HAL_Driver/Src/stm32u0xx_hal_rtc.c ****         hrtc->InternalTamper5EventCallback = pCallback;
 558:Drivers/STM32U0xx_HAL_Driver/Src/stm32u0xx_hal_rtc.c ****         break;
 559:Drivers/STM32U0xx_HAL_Driver/Src/stm32u0xx_hal_rtc.c **** 
 560:Drivers/STM32U0xx_HAL_Driver/Src/stm32u0xx_hal_rtc.c ****       case HAL_RTC_INTERNAL_TAMPER6_EVENT_CB_ID :
 561:Drivers/STM32U0xx_HAL_Driver/Src/stm32u0xx_hal_rtc.c ****         hrtc->InternalTamper6EventCallback = pCallback;
 562:Drivers/STM32U0xx_HAL_Driver/Src/stm32u0xx_hal_rtc.c ****         break;
 563:Drivers/STM32U0xx_HAL_Driver/Src/stm32u0xx_hal_rtc.c **** 
 564:Drivers/STM32U0xx_HAL_Driver/Src/stm32u0xx_hal_rtc.c ****       case HAL_RTC_MSPINIT_CB_ID :
 565:Drivers/STM32U0xx_HAL_Driver/Src/stm32u0xx_hal_rtc.c ****         hrtc->MspInitCallback = pCallback;
 566:Drivers/STM32U0xx_HAL_Driver/Src/stm32u0xx_hal_rtc.c ****         break;
 567:Drivers/STM32U0xx_HAL_Driver/Src/stm32u0xx_hal_rtc.c **** 
 568:Drivers/STM32U0xx_HAL_Driver/Src/stm32u0xx_hal_rtc.c ****       case HAL_RTC_MSPDEINIT_CB_ID :
 569:Drivers/STM32U0xx_HAL_Driver/Src/stm32u0xx_hal_rtc.c ****         hrtc->MspDeInitCallback = pCallback;
 570:Drivers/STM32U0xx_HAL_Driver/Src/stm32u0xx_hal_rtc.c ****         break;
 571:Drivers/STM32U0xx_HAL_Driver/Src/stm32u0xx_hal_rtc.c **** 
 572:Drivers/STM32U0xx_HAL_Driver/Src/stm32u0xx_hal_rtc.c ****       default :
 573:Drivers/STM32U0xx_HAL_Driver/Src/stm32u0xx_hal_rtc.c ****         /* Return error status */
 574:Drivers/STM32U0xx_HAL_Driver/Src/stm32u0xx_hal_rtc.c ****         status = HAL_ERROR;
 575:Drivers/STM32U0xx_HAL_Driver/Src/stm32u0xx_hal_rtc.c ****         break;
 576:Drivers/STM32U0xx_HAL_Driver/Src/stm32u0xx_hal_rtc.c ****     }
 577:Drivers/STM32U0xx_HAL_Driver/Src/stm32u0xx_hal_rtc.c ****   }
 578:Drivers/STM32U0xx_HAL_Driver/Src/stm32u0xx_hal_rtc.c ****   else if (HAL_RTC_STATE_RESET == hrtc->State)
 579:Drivers/STM32U0xx_HAL_Driver/Src/stm32u0xx_hal_rtc.c ****   {
 580:Drivers/STM32U0xx_HAL_Driver/Src/stm32u0xx_hal_rtc.c ****     switch (CallbackID)
 581:Drivers/STM32U0xx_HAL_Driver/Src/stm32u0xx_hal_rtc.c ****     {
 582:Drivers/STM32U0xx_HAL_Driver/Src/stm32u0xx_hal_rtc.c ****       case HAL_RTC_MSPINIT_CB_ID :
 583:Drivers/STM32U0xx_HAL_Driver/Src/stm32u0xx_hal_rtc.c ****         hrtc->MspInitCallback = pCallback;
 584:Drivers/STM32U0xx_HAL_Driver/Src/stm32u0xx_hal_rtc.c ****         break;
 585:Drivers/STM32U0xx_HAL_Driver/Src/stm32u0xx_hal_rtc.c **** 
 586:Drivers/STM32U0xx_HAL_Driver/Src/stm32u0xx_hal_rtc.c ****       case HAL_RTC_MSPDEINIT_CB_ID :
 587:Drivers/STM32U0xx_HAL_Driver/Src/stm32u0xx_hal_rtc.c ****         hrtc->MspDeInitCallback = pCallback;
 588:Drivers/STM32U0xx_HAL_Driver/Src/stm32u0xx_hal_rtc.c ****         break;
 589:Drivers/STM32U0xx_HAL_Driver/Src/stm32u0xx_hal_rtc.c **** 
 590:Drivers/STM32U0xx_HAL_Driver/Src/stm32u0xx_hal_rtc.c ****       default :
 591:Drivers/STM32U0xx_HAL_Driver/Src/stm32u0xx_hal_rtc.c ****         /* Return error status */
 592:Drivers/STM32U0xx_HAL_Driver/Src/stm32u0xx_hal_rtc.c ****         status = HAL_ERROR;
 593:Drivers/STM32U0xx_HAL_Driver/Src/stm32u0xx_hal_rtc.c ****         break;
 594:Drivers/STM32U0xx_HAL_Driver/Src/stm32u0xx_hal_rtc.c ****     }
 595:Drivers/STM32U0xx_HAL_Driver/Src/stm32u0xx_hal_rtc.c ****   }
 596:Drivers/STM32U0xx_HAL_Driver/Src/stm32u0xx_hal_rtc.c ****   else
 597:Drivers/STM32U0xx_HAL_Driver/Src/stm32u0xx_hal_rtc.c ****   {
 598:Drivers/STM32U0xx_HAL_Driver/Src/stm32u0xx_hal_rtc.c ****     /* Return error status */
 599:Drivers/STM32U0xx_HAL_Driver/Src/stm32u0xx_hal_rtc.c ****     status = HAL_ERROR;
 600:Drivers/STM32U0xx_HAL_Driver/Src/stm32u0xx_hal_rtc.c ****   }
ARM GAS  C:\Users\upo\AppData\Local\Temp\ccIlAiYO.s 			page 12


 601:Drivers/STM32U0xx_HAL_Driver/Src/stm32u0xx_hal_rtc.c **** 
 602:Drivers/STM32U0xx_HAL_Driver/Src/stm32u0xx_hal_rtc.c ****   /* Release Lock */
 603:Drivers/STM32U0xx_HAL_Driver/Src/stm32u0xx_hal_rtc.c ****   __HAL_UNLOCK(hrtc);
 604:Drivers/STM32U0xx_HAL_Driver/Src/stm32u0xx_hal_rtc.c **** 
 605:Drivers/STM32U0xx_HAL_Driver/Src/stm32u0xx_hal_rtc.c ****   return status;
 606:Drivers/STM32U0xx_HAL_Driver/Src/stm32u0xx_hal_rtc.c **** }
 607:Drivers/STM32U0xx_HAL_Driver/Src/stm32u0xx_hal_rtc.c **** 
 608:Drivers/STM32U0xx_HAL_Driver/Src/stm32u0xx_hal_rtc.c **** /**
 609:Drivers/STM32U0xx_HAL_Driver/Src/stm32u0xx_hal_rtc.c ****   * @brief  Unregister an RTC Callback
 610:Drivers/STM32U0xx_HAL_Driver/Src/stm32u0xx_hal_rtc.c ****   *         RTC callback is redirected to the weak predefined callback
 611:Drivers/STM32U0xx_HAL_Driver/Src/stm32u0xx_hal_rtc.c ****   * @param  hrtc RTC handle
 612:Drivers/STM32U0xx_HAL_Driver/Src/stm32u0xx_hal_rtc.c ****   * @param  CallbackID ID of the callback to be unregistered
 613:Drivers/STM32U0xx_HAL_Driver/Src/stm32u0xx_hal_rtc.c ****   *         This parameter can be one of the following values:
 614:Drivers/STM32U0xx_HAL_Driver/Src/stm32u0xx_hal_rtc.c ****   *         This parameter can be one of the following values:
 615:Drivers/STM32U0xx_HAL_Driver/Src/stm32u0xx_hal_rtc.c ****   *          @arg @ref HAL_RTC_ALARM_A_EVENT_CB_ID          Alarm A Event Callback ID
 616:Drivers/STM32U0xx_HAL_Driver/Src/stm32u0xx_hal_rtc.c ****   *          @arg @ref HAL_RTC_ALARM_B_EVENT_CB_ID          Alarm B Event Callback ID
 617:Drivers/STM32U0xx_HAL_Driver/Src/stm32u0xx_hal_rtc.c ****   *          @arg @ref HAL_RTC_TIMESTAMP_EVENT_CB_ID        TimeStamp Event Callback ID
 618:Drivers/STM32U0xx_HAL_Driver/Src/stm32u0xx_hal_rtc.c ****   *          @arg @ref HAL_RTC_SSRU_EVENT_CB_ID             SSRU Callback ID
 619:Drivers/STM32U0xx_HAL_Driver/Src/stm32u0xx_hal_rtc.c ****   *          @arg @ref HAL_RTC_WAKEUPTIMER_EVENT_CB_ID      WakeUp Timer Event Callback ID
 620:Drivers/STM32U0xx_HAL_Driver/Src/stm32u0xx_hal_rtc.c ****   *          @arg @ref HAL_RTC_TAMPER1_EVENT_CB_ID          Tamper 1 Callback ID
 621:Drivers/STM32U0xx_HAL_Driver/Src/stm32u0xx_hal_rtc.c ****   *          @arg @ref HAL_RTC_TAMPER2_EVENT_CB_ID          Tamper 2 Callback ID
 622:Drivers/STM32U0xx_HAL_Driver/Src/stm32u0xx_hal_rtc.c ****   *          @arg @ref HAL_RTC_TAMPER3_EVENT_CB_ID          Tamper 3 Callback ID
 623:Drivers/STM32U0xx_HAL_Driver/Src/stm32u0xx_hal_rtc.c ****   *          @arg @ref HAL_RTC_TAMPER4_EVENT_CB_ID          Tamper 4 Callback ID
 624:Drivers/STM32U0xx_HAL_Driver/Src/stm32u0xx_hal_rtc.c ****   *          @arg @ref HAL_RTC_TAMPER5_EVENT_CB_ID          Tamper 5 Callback ID
 625:Drivers/STM32U0xx_HAL_Driver/Src/stm32u0xx_hal_rtc.c ****   *          @arg @ref HAL_RTC_INTERNAL_TAMPER3_EVENT_CB_ID Internal Tamper 3 Callback ID
 626:Drivers/STM32U0xx_HAL_Driver/Src/stm32u0xx_hal_rtc.c ****   *          @arg @ref HAL_RTC_INTERNAL_TAMPER4_EVENT_CB_ID Internal Tamper 4 Callback ID
 627:Drivers/STM32U0xx_HAL_Driver/Src/stm32u0xx_hal_rtc.c ****   *          @arg @ref HAL_RTC_INTERNAL_TAMPER5_EVENT_CB_ID Internal Tamper 5 Callback ID
 628:Drivers/STM32U0xx_HAL_Driver/Src/stm32u0xx_hal_rtc.c ****   *          @arg @ref HAL_RTC_INTERNAL_TAMPER6_EVENT_CB_ID Internal Tamper 6 Callback ID
 629:Drivers/STM32U0xx_HAL_Driver/Src/stm32u0xx_hal_rtc.c ****   *          @arg @ref HAL_RTC_MSPINIT_CB_ID                Msp Init callback ID
 630:Drivers/STM32U0xx_HAL_Driver/Src/stm32u0xx_hal_rtc.c ****   *          @arg @ref HAL_RTC_MSPDEINIT_CB_ID              Msp DeInit callback ID
 631:Drivers/STM32U0xx_HAL_Driver/Src/stm32u0xx_hal_rtc.c ****   * @retval HAL status
 632:Drivers/STM32U0xx_HAL_Driver/Src/stm32u0xx_hal_rtc.c ****   */
 633:Drivers/STM32U0xx_HAL_Driver/Src/stm32u0xx_hal_rtc.c **** HAL_StatusTypeDef HAL_RTC_UnRegisterCallback(RTC_HandleTypeDef *hrtc, HAL_RTC_CallbackIDTypeDef Cal
 634:Drivers/STM32U0xx_HAL_Driver/Src/stm32u0xx_hal_rtc.c **** {
 635:Drivers/STM32U0xx_HAL_Driver/Src/stm32u0xx_hal_rtc.c ****   HAL_StatusTypeDef status = HAL_OK;
 636:Drivers/STM32U0xx_HAL_Driver/Src/stm32u0xx_hal_rtc.c **** 
 637:Drivers/STM32U0xx_HAL_Driver/Src/stm32u0xx_hal_rtc.c ****   /* Process locked */
 638:Drivers/STM32U0xx_HAL_Driver/Src/stm32u0xx_hal_rtc.c ****   __HAL_LOCK(hrtc);
 639:Drivers/STM32U0xx_HAL_Driver/Src/stm32u0xx_hal_rtc.c **** 
 640:Drivers/STM32U0xx_HAL_Driver/Src/stm32u0xx_hal_rtc.c ****   if (HAL_RTC_STATE_READY == hrtc->State)
 641:Drivers/STM32U0xx_HAL_Driver/Src/stm32u0xx_hal_rtc.c ****   {
 642:Drivers/STM32U0xx_HAL_Driver/Src/stm32u0xx_hal_rtc.c ****     switch (CallbackID)
 643:Drivers/STM32U0xx_HAL_Driver/Src/stm32u0xx_hal_rtc.c ****     {
 644:Drivers/STM32U0xx_HAL_Driver/Src/stm32u0xx_hal_rtc.c ****       case HAL_RTC_ALARM_A_EVENT_CB_ID :
 645:Drivers/STM32U0xx_HAL_Driver/Src/stm32u0xx_hal_rtc.c ****         hrtc->AlarmAEventCallback = HAL_RTC_AlarmAEventCallback;            /* Legacy weak AlarmAEv
 646:Drivers/STM32U0xx_HAL_Driver/Src/stm32u0xx_hal_rtc.c ****         break;
 647:Drivers/STM32U0xx_HAL_Driver/Src/stm32u0xx_hal_rtc.c **** 
 648:Drivers/STM32U0xx_HAL_Driver/Src/stm32u0xx_hal_rtc.c ****       case HAL_RTC_ALARM_B_EVENT_CB_ID :
 649:Drivers/STM32U0xx_HAL_Driver/Src/stm32u0xx_hal_rtc.c ****         hrtc->AlarmBEventCallback = HAL_RTCEx_AlarmBEventCallback;          /* Legacy weak AlarmBEv
 650:Drivers/STM32U0xx_HAL_Driver/Src/stm32u0xx_hal_rtc.c ****         break;
 651:Drivers/STM32U0xx_HAL_Driver/Src/stm32u0xx_hal_rtc.c **** 
 652:Drivers/STM32U0xx_HAL_Driver/Src/stm32u0xx_hal_rtc.c ****       case HAL_RTC_TIMESTAMP_EVENT_CB_ID :
 653:Drivers/STM32U0xx_HAL_Driver/Src/stm32u0xx_hal_rtc.c ****         hrtc->TimeStampEventCallback = HAL_RTCEx_TimeStampEventCallback;    /* Legacy weak TimeStam
 654:Drivers/STM32U0xx_HAL_Driver/Src/stm32u0xx_hal_rtc.c ****         break;
 655:Drivers/STM32U0xx_HAL_Driver/Src/stm32u0xx_hal_rtc.c **** 
 656:Drivers/STM32U0xx_HAL_Driver/Src/stm32u0xx_hal_rtc.c ****       case HAL_RTC_WAKEUPTIMER_EVENT_CB_ID :
 657:Drivers/STM32U0xx_HAL_Driver/Src/stm32u0xx_hal_rtc.c ****         hrtc->WakeUpTimerEventCallback = HAL_RTCEx_WakeUpTimerEventCallback; /* Legacy weak WakeUpT
ARM GAS  C:\Users\upo\AppData\Local\Temp\ccIlAiYO.s 			page 13


 658:Drivers/STM32U0xx_HAL_Driver/Src/stm32u0xx_hal_rtc.c ****         break;
 659:Drivers/STM32U0xx_HAL_Driver/Src/stm32u0xx_hal_rtc.c **** 
 660:Drivers/STM32U0xx_HAL_Driver/Src/stm32u0xx_hal_rtc.c ****       case HAL_RTC_SSRU_EVENT_CB_ID :
 661:Drivers/STM32U0xx_HAL_Driver/Src/stm32u0xx_hal_rtc.c ****         hrtc->SSRUEventCallback = HAL_RTCEx_SSRUEventCallback;               /* Legacy weak SSRUEve
 662:Drivers/STM32U0xx_HAL_Driver/Src/stm32u0xx_hal_rtc.c ****         break;
 663:Drivers/STM32U0xx_HAL_Driver/Src/stm32u0xx_hal_rtc.c **** 
 664:Drivers/STM32U0xx_HAL_Driver/Src/stm32u0xx_hal_rtc.c ****       case HAL_RTC_TAMPER1_EVENT_CB_ID :
 665:Drivers/STM32U0xx_HAL_Driver/Src/stm32u0xx_hal_rtc.c ****         hrtc->Tamper1EventCallback = HAL_RTCEx_Tamper1EventCallback;         /* Legacy weak Tamper1
 666:Drivers/STM32U0xx_HAL_Driver/Src/stm32u0xx_hal_rtc.c ****         break;
 667:Drivers/STM32U0xx_HAL_Driver/Src/stm32u0xx_hal_rtc.c **** 
 668:Drivers/STM32U0xx_HAL_Driver/Src/stm32u0xx_hal_rtc.c ****       case HAL_RTC_TAMPER2_EVENT_CB_ID :
 669:Drivers/STM32U0xx_HAL_Driver/Src/stm32u0xx_hal_rtc.c ****         hrtc->Tamper2EventCallback = HAL_RTCEx_Tamper2EventCallback;         /* Legacy weak Tamper2
 670:Drivers/STM32U0xx_HAL_Driver/Src/stm32u0xx_hal_rtc.c ****         break;
 671:Drivers/STM32U0xx_HAL_Driver/Src/stm32u0xx_hal_rtc.c **** 
 672:Drivers/STM32U0xx_HAL_Driver/Src/stm32u0xx_hal_rtc.c ****       case HAL_RTC_TAMPER3_EVENT_CB_ID :
 673:Drivers/STM32U0xx_HAL_Driver/Src/stm32u0xx_hal_rtc.c ****         hrtc->Tamper3EventCallback = HAL_RTCEx_Tamper3EventCallback;         /* Legacy weak Tamper3
 674:Drivers/STM32U0xx_HAL_Driver/Src/stm32u0xx_hal_rtc.c ****         break;
 675:Drivers/STM32U0xx_HAL_Driver/Src/stm32u0xx_hal_rtc.c **** 
 676:Drivers/STM32U0xx_HAL_Driver/Src/stm32u0xx_hal_rtc.c ****       case HAL_RTC_TAMPER4_EVENT_CB_ID :
 677:Drivers/STM32U0xx_HAL_Driver/Src/stm32u0xx_hal_rtc.c ****         hrtc->Tamper4EventCallback = HAL_RTCEx_Tamper4EventCallback;         /* Legacy weak Tamper4
 678:Drivers/STM32U0xx_HAL_Driver/Src/stm32u0xx_hal_rtc.c ****         break;
 679:Drivers/STM32U0xx_HAL_Driver/Src/stm32u0xx_hal_rtc.c **** 
 680:Drivers/STM32U0xx_HAL_Driver/Src/stm32u0xx_hal_rtc.c ****       case HAL_RTC_TAMPER5_EVENT_CB_ID :
 681:Drivers/STM32U0xx_HAL_Driver/Src/stm32u0xx_hal_rtc.c ****         hrtc->Tamper5EventCallback = HAL_RTCEx_Tamper5EventCallback;         /* Legacy weak Tamper5
 682:Drivers/STM32U0xx_HAL_Driver/Src/stm32u0xx_hal_rtc.c ****         break;
 683:Drivers/STM32U0xx_HAL_Driver/Src/stm32u0xx_hal_rtc.c **** 
 684:Drivers/STM32U0xx_HAL_Driver/Src/stm32u0xx_hal_rtc.c ****       case HAL_RTC_INTERNAL_TAMPER3_EVENT_CB_ID :
 685:Drivers/STM32U0xx_HAL_Driver/Src/stm32u0xx_hal_rtc.c ****         hrtc->InternalTamper3EventCallback = HAL_RTCEx_InternalTamper3EventCallback;   /* Legacy we
 686:Drivers/STM32U0xx_HAL_Driver/Src/stm32u0xx_hal_rtc.c ****                                                                                          InternalTa
 687:Drivers/STM32U0xx_HAL_Driver/Src/stm32u0xx_hal_rtc.c ****         break;
 688:Drivers/STM32U0xx_HAL_Driver/Src/stm32u0xx_hal_rtc.c **** 
 689:Drivers/STM32U0xx_HAL_Driver/Src/stm32u0xx_hal_rtc.c ****       case HAL_RTC_INTERNAL_TAMPER4_EVENT_CB_ID :
 690:Drivers/STM32U0xx_HAL_Driver/Src/stm32u0xx_hal_rtc.c ****         hrtc->InternalTamper4EventCallback = HAL_RTCEx_InternalTamper4EventCallback;   /* Legacy we
 691:Drivers/STM32U0xx_HAL_Driver/Src/stm32u0xx_hal_rtc.c ****                                                                                          InternalTa
 692:Drivers/STM32U0xx_HAL_Driver/Src/stm32u0xx_hal_rtc.c ****         break;
 693:Drivers/STM32U0xx_HAL_Driver/Src/stm32u0xx_hal_rtc.c **** 
 694:Drivers/STM32U0xx_HAL_Driver/Src/stm32u0xx_hal_rtc.c ****       case HAL_RTC_INTERNAL_TAMPER5_EVENT_CB_ID :
 695:Drivers/STM32U0xx_HAL_Driver/Src/stm32u0xx_hal_rtc.c ****         hrtc->InternalTamper5EventCallback = HAL_RTCEx_InternalTamper5EventCallback;   /* Legacy we
 696:Drivers/STM32U0xx_HAL_Driver/Src/stm32u0xx_hal_rtc.c ****                                                                                          InternalTa
 697:Drivers/STM32U0xx_HAL_Driver/Src/stm32u0xx_hal_rtc.c ****         break;
 698:Drivers/STM32U0xx_HAL_Driver/Src/stm32u0xx_hal_rtc.c **** 
 699:Drivers/STM32U0xx_HAL_Driver/Src/stm32u0xx_hal_rtc.c ****       case HAL_RTC_INTERNAL_TAMPER6_EVENT_CB_ID :
 700:Drivers/STM32U0xx_HAL_Driver/Src/stm32u0xx_hal_rtc.c ****         hrtc->InternalTamper6EventCallback = HAL_RTCEx_InternalTamper6EventCallback;   /* Legacy we
 701:Drivers/STM32U0xx_HAL_Driver/Src/stm32u0xx_hal_rtc.c ****                                                                                          InternalTa
 702:Drivers/STM32U0xx_HAL_Driver/Src/stm32u0xx_hal_rtc.c ****         break;
 703:Drivers/STM32U0xx_HAL_Driver/Src/stm32u0xx_hal_rtc.c **** 
 704:Drivers/STM32U0xx_HAL_Driver/Src/stm32u0xx_hal_rtc.c ****       case HAL_RTC_MSPINIT_CB_ID :
 705:Drivers/STM32U0xx_HAL_Driver/Src/stm32u0xx_hal_rtc.c ****         hrtc->MspInitCallback = HAL_RTC_MspInit;
 706:Drivers/STM32U0xx_HAL_Driver/Src/stm32u0xx_hal_rtc.c ****         break;
 707:Drivers/STM32U0xx_HAL_Driver/Src/stm32u0xx_hal_rtc.c **** 
 708:Drivers/STM32U0xx_HAL_Driver/Src/stm32u0xx_hal_rtc.c ****       case HAL_RTC_MSPDEINIT_CB_ID :
 709:Drivers/STM32U0xx_HAL_Driver/Src/stm32u0xx_hal_rtc.c ****         hrtc->MspDeInitCallback = HAL_RTC_MspDeInit;
 710:Drivers/STM32U0xx_HAL_Driver/Src/stm32u0xx_hal_rtc.c ****         break;
 711:Drivers/STM32U0xx_HAL_Driver/Src/stm32u0xx_hal_rtc.c **** 
 712:Drivers/STM32U0xx_HAL_Driver/Src/stm32u0xx_hal_rtc.c ****       default :
 713:Drivers/STM32U0xx_HAL_Driver/Src/stm32u0xx_hal_rtc.c ****         /* Return error status */
 714:Drivers/STM32U0xx_HAL_Driver/Src/stm32u0xx_hal_rtc.c ****         status = HAL_ERROR;
ARM GAS  C:\Users\upo\AppData\Local\Temp\ccIlAiYO.s 			page 14


 715:Drivers/STM32U0xx_HAL_Driver/Src/stm32u0xx_hal_rtc.c ****         break;
 716:Drivers/STM32U0xx_HAL_Driver/Src/stm32u0xx_hal_rtc.c ****     }
 717:Drivers/STM32U0xx_HAL_Driver/Src/stm32u0xx_hal_rtc.c ****   }
 718:Drivers/STM32U0xx_HAL_Driver/Src/stm32u0xx_hal_rtc.c ****   else if (HAL_RTC_STATE_RESET == hrtc->State)
 719:Drivers/STM32U0xx_HAL_Driver/Src/stm32u0xx_hal_rtc.c ****   {
 720:Drivers/STM32U0xx_HAL_Driver/Src/stm32u0xx_hal_rtc.c ****     switch (CallbackID)
 721:Drivers/STM32U0xx_HAL_Driver/Src/stm32u0xx_hal_rtc.c ****     {
 722:Drivers/STM32U0xx_HAL_Driver/Src/stm32u0xx_hal_rtc.c ****       case HAL_RTC_MSPINIT_CB_ID :
 723:Drivers/STM32U0xx_HAL_Driver/Src/stm32u0xx_hal_rtc.c ****         hrtc->MspInitCallback = HAL_RTC_MspInit;
 724:Drivers/STM32U0xx_HAL_Driver/Src/stm32u0xx_hal_rtc.c ****         break;
 725:Drivers/STM32U0xx_HAL_Driver/Src/stm32u0xx_hal_rtc.c **** 
 726:Drivers/STM32U0xx_HAL_Driver/Src/stm32u0xx_hal_rtc.c ****       case HAL_RTC_MSPDEINIT_CB_ID :
 727:Drivers/STM32U0xx_HAL_Driver/Src/stm32u0xx_hal_rtc.c ****         hrtc->MspDeInitCallback = HAL_RTC_MspDeInit;
 728:Drivers/STM32U0xx_HAL_Driver/Src/stm32u0xx_hal_rtc.c ****         break;
 729:Drivers/STM32U0xx_HAL_Driver/Src/stm32u0xx_hal_rtc.c **** 
 730:Drivers/STM32U0xx_HAL_Driver/Src/stm32u0xx_hal_rtc.c ****       default :
 731:Drivers/STM32U0xx_HAL_Driver/Src/stm32u0xx_hal_rtc.c ****         /* Return error status */
 732:Drivers/STM32U0xx_HAL_Driver/Src/stm32u0xx_hal_rtc.c ****         status = HAL_ERROR;
 733:Drivers/STM32U0xx_HAL_Driver/Src/stm32u0xx_hal_rtc.c ****         break;
 734:Drivers/STM32U0xx_HAL_Driver/Src/stm32u0xx_hal_rtc.c ****     }
 735:Drivers/STM32U0xx_HAL_Driver/Src/stm32u0xx_hal_rtc.c ****   }
 736:Drivers/STM32U0xx_HAL_Driver/Src/stm32u0xx_hal_rtc.c ****   else
 737:Drivers/STM32U0xx_HAL_Driver/Src/stm32u0xx_hal_rtc.c ****   {
 738:Drivers/STM32U0xx_HAL_Driver/Src/stm32u0xx_hal_rtc.c ****     /* Return error status */
 739:Drivers/STM32U0xx_HAL_Driver/Src/stm32u0xx_hal_rtc.c ****     status = HAL_ERROR;
 740:Drivers/STM32U0xx_HAL_Driver/Src/stm32u0xx_hal_rtc.c ****   }
 741:Drivers/STM32U0xx_HAL_Driver/Src/stm32u0xx_hal_rtc.c **** 
 742:Drivers/STM32U0xx_HAL_Driver/Src/stm32u0xx_hal_rtc.c ****   /* Release Lock */
 743:Drivers/STM32U0xx_HAL_Driver/Src/stm32u0xx_hal_rtc.c ****   __HAL_UNLOCK(hrtc);
 744:Drivers/STM32U0xx_HAL_Driver/Src/stm32u0xx_hal_rtc.c **** 
 745:Drivers/STM32U0xx_HAL_Driver/Src/stm32u0xx_hal_rtc.c ****   return status;
 746:Drivers/STM32U0xx_HAL_Driver/Src/stm32u0xx_hal_rtc.c **** }
 747:Drivers/STM32U0xx_HAL_Driver/Src/stm32u0xx_hal_rtc.c **** #endif /* USE_HAL_RTC_REGISTER_CALLBACKS */
 748:Drivers/STM32U0xx_HAL_Driver/Src/stm32u0xx_hal_rtc.c **** 
 749:Drivers/STM32U0xx_HAL_Driver/Src/stm32u0xx_hal_rtc.c **** /**
 750:Drivers/STM32U0xx_HAL_Driver/Src/stm32u0xx_hal_rtc.c ****   * @brief  Initialize the RTC MSP.
 751:Drivers/STM32U0xx_HAL_Driver/Src/stm32u0xx_hal_rtc.c ****   * @param  hrtc RTC handle
 752:Drivers/STM32U0xx_HAL_Driver/Src/stm32u0xx_hal_rtc.c ****   * @retval None
 753:Drivers/STM32U0xx_HAL_Driver/Src/stm32u0xx_hal_rtc.c ****   */
 754:Drivers/STM32U0xx_HAL_Driver/Src/stm32u0xx_hal_rtc.c **** __weak void HAL_RTC_MspInit(RTC_HandleTypeDef *hrtc)
 755:Drivers/STM32U0xx_HAL_Driver/Src/stm32u0xx_hal_rtc.c **** {
  29              		.loc 1 755 1 view -0
  30              		.cfi_startproc
  31              		@ args = 0, pretend = 0, frame = 0
  32              		@ frame_needed = 0, uses_anonymous_args = 0
  33              		@ link register save eliminated.
 756:Drivers/STM32U0xx_HAL_Driver/Src/stm32u0xx_hal_rtc.c ****   /* Prevent unused argument(s) compilation warning */
 757:Drivers/STM32U0xx_HAL_Driver/Src/stm32u0xx_hal_rtc.c ****   UNUSED(hrtc);
  34              		.loc 1 757 3 view .LVU1
 758:Drivers/STM32U0xx_HAL_Driver/Src/stm32u0xx_hal_rtc.c **** 
 759:Drivers/STM32U0xx_HAL_Driver/Src/stm32u0xx_hal_rtc.c ****   /* NOTE : This function should not be modified, when the callback is needed,
 760:Drivers/STM32U0xx_HAL_Driver/Src/stm32u0xx_hal_rtc.c ****             the HAL_RTC_MspInit could be implemented in the user file
 761:Drivers/STM32U0xx_HAL_Driver/Src/stm32u0xx_hal_rtc.c ****    */
 762:Drivers/STM32U0xx_HAL_Driver/Src/stm32u0xx_hal_rtc.c **** }
  35              		.loc 1 762 1 is_stmt 0 view .LVU2
  36              		@ sp needed
  37 0000 7047     		bx	lr
ARM GAS  C:\Users\upo\AppData\Local\Temp\ccIlAiYO.s 			page 15


  38              		.cfi_endproc
  39              	.LFE336:
  41 0002 C046     		.section	.text.HAL_RTC_Init,"ax",%progbits
  42              		.align	1
  43              		.p2align 2,,3
  44              		.global	HAL_RTC_Init
  45              		.syntax unified
  46              		.code	16
  47              		.thumb_func
  49              	HAL_RTC_Init:
  50              	.LVL1:
  51              	.LFB334:
 246:Drivers/STM32U0xx_HAL_Driver/Src/stm32u0xx_hal_rtc.c ****   HAL_StatusTypeDef status = HAL_ERROR;
  52              		.loc 1 246 1 is_stmt 1 view -0
  53              		.cfi_startproc
  54              		@ args = 0, pretend = 0, frame = 0
  55              		@ frame_needed = 0, uses_anonymous_args = 0
 247:Drivers/STM32U0xx_HAL_Driver/Src/stm32u0xx_hal_rtc.c **** 
  56              		.loc 1 247 3 view .LVU4
 250:Drivers/STM32U0xx_HAL_Driver/Src/stm32u0xx_hal_rtc.c ****   {
  57              		.loc 1 250 3 view .LVU5
 246:Drivers/STM32U0xx_HAL_Driver/Src/stm32u0xx_hal_rtc.c ****   HAL_StatusTypeDef status = HAL_ERROR;
  58              		.loc 1 246 1 is_stmt 0 view .LVU6
  59 0000 F0B5     		push	{r4, r5, r6, r7, lr}
  60              	.LCFI0:
  61              		.cfi_def_cfa_offset 20
  62              		.cfi_offset 4, -20
  63              		.cfi_offset 5, -16
  64              		.cfi_offset 6, -12
  65              		.cfi_offset 7, -8
  66              		.cfi_offset 14, -4
  67 0002 C646     		mov	lr, r8
  68 0004 0400     		movs	r4, r0
  69 0006 00B5     		push	{lr}
  70              	.LCFI1:
  71              		.cfi_def_cfa_offset 24
  72              		.cfi_offset 8, -24
 250:Drivers/STM32U0xx_HAL_Driver/Src/stm32u0xx_hal_rtc.c ****   {
  73              		.loc 1 250 6 view .LVU7
  74 0008 0028     		cmp	r0, #0
  75 000a 64D0     		beq	.L4
 252:Drivers/STM32U0xx_HAL_Driver/Src/stm32u0xx_hal_rtc.c ****     /* Check the parameters */
  76              		.loc 1 252 5 is_stmt 1 view .LVU8
  77              	.LVL2:
 254:Drivers/STM32U0xx_HAL_Driver/Src/stm32u0xx_hal_rtc.c ****     assert_param(IS_RTC_HOUR_FORMAT(hrtc->Init.HourFormat));
  78              		.loc 1 254 5 view .LVU9
 255:Drivers/STM32U0xx_HAL_Driver/Src/stm32u0xx_hal_rtc.c ****     assert_param(IS_RTC_ASYNCH_PREDIV(hrtc->Init.AsynchPrediv));
  79              		.loc 1 255 5 view .LVU10
 256:Drivers/STM32U0xx_HAL_Driver/Src/stm32u0xx_hal_rtc.c ****     assert_param(IS_RTC_SYNCH_PREDIV(hrtc->Init.SynchPrediv));
  80              		.loc 1 256 5 view .LVU11
 257:Drivers/STM32U0xx_HAL_Driver/Src/stm32u0xx_hal_rtc.c ****     assert_param(IS_RTC_OUTPUT(hrtc->Init.OutPut));
  81              		.loc 1 257 5 view .LVU12
 258:Drivers/STM32U0xx_HAL_Driver/Src/stm32u0xx_hal_rtc.c ****     assert_param(IS_RTC_OUTPUT_REMAP(hrtc->Init.OutPutRemap));
  82              		.loc 1 258 5 view .LVU13
 259:Drivers/STM32U0xx_HAL_Driver/Src/stm32u0xx_hal_rtc.c ****     assert_param(IS_RTC_OUTPUT_POL(hrtc->Init.OutPutPolarity));
  83              		.loc 1 259 5 view .LVU14
 260:Drivers/STM32U0xx_HAL_Driver/Src/stm32u0xx_hal_rtc.c ****     assert_param(IS_RTC_OUTPUT_TYPE(hrtc->Init.OutPutType));
ARM GAS  C:\Users\upo\AppData\Local\Temp\ccIlAiYO.s 			page 16


  84              		.loc 1 260 5 view .LVU15
 261:Drivers/STM32U0xx_HAL_Driver/Src/stm32u0xx_hal_rtc.c ****     assert_param(IS_RTC_OUTPUT_PULLUP(hrtc->Init.OutPutPullUp));
  85              		.loc 1 261 5 view .LVU16
 262:Drivers/STM32U0xx_HAL_Driver/Src/stm32u0xx_hal_rtc.c ****     assert_param(IS_RTC_BINARY_MODE(hrtc->Init.BinMode));
  86              		.loc 1 262 5 view .LVU17
 263:Drivers/STM32U0xx_HAL_Driver/Src/stm32u0xx_hal_rtc.c ****     assert_param(IS_RTC_BINARY_MIX_BCDU(hrtc->Init.BinMixBcdU));
  87              		.loc 1 263 5 view .LVU18
 264:Drivers/STM32U0xx_HAL_Driver/Src/stm32u0xx_hal_rtc.c **** 
  88              		.loc 1 264 5 view .LVU19
 305:Drivers/STM32U0xx_HAL_Driver/Src/stm32u0xx_hal_rtc.c ****     {
  89              		.loc 1 305 5 view .LVU20
 305:Drivers/STM32U0xx_HAL_Driver/Src/stm32u0xx_hal_rtc.c ****     {
  90              		.loc 1 305 13 is_stmt 0 view .LVU21
  91 000c 2D23     		movs	r3, #45
  92 000e C35C     		ldrb	r3, [r0, r3]
  93 0010 DAB2     		uxtb	r2, r3
 305:Drivers/STM32U0xx_HAL_Driver/Src/stm32u0xx_hal_rtc.c ****     {
  94              		.loc 1 305 8 view .LVU22
  95 0012 002B     		cmp	r3, #0
  96 0014 55D0     		beq	.L20
  97              	.LVL3:
  98              	.L5:
 316:Drivers/STM32U0xx_HAL_Driver/Src/stm32u0xx_hal_rtc.c **** 
  99              		.loc 1 316 5 is_stmt 1 view .LVU23
 316:Drivers/STM32U0xx_HAL_Driver/Src/stm32u0xx_hal_rtc.c **** 
 100              		.loc 1 316 17 is_stmt 0 view .LVU24
 101 0016 2D23     		movs	r3, #45
 102 0018 0222     		movs	r2, #2
 319:Drivers/STM32U0xx_HAL_Driver/Src/stm32u0xx_hal_rtc.c **** 
 103              		.loc 1 319 5 view .LVU25
 104 001a 3A4D     		ldr	r5, .L23
 316:Drivers/STM32U0xx_HAL_Driver/Src/stm32u0xx_hal_rtc.c **** 
 105              		.loc 1 316 17 view .LVU26
 106 001c E254     		strb	r2, [r4, r3]
 319:Drivers/STM32U0xx_HAL_Driver/Src/stm32u0xx_hal_rtc.c **** 
 107              		.loc 1 319 5 is_stmt 1 view .LVU27
 319:Drivers/STM32U0xx_HAL_Driver/Src/stm32u0xx_hal_rtc.c **** 
 108              		.loc 1 319 5 view .LVU28
 109 001e 9D33     		adds	r3, r3, #157
 110 0020 6B62     		str	r3, [r5, #36]
 319:Drivers/STM32U0xx_HAL_Driver/Src/stm32u0xx_hal_rtc.c **** 
 111              		.loc 1 319 5 view .LVU29
 112 0022 773B     		subs	r3, r3, #119
 113 0024 6B62     		str	r3, [r5, #36]
 319:Drivers/STM32U0xx_HAL_Driver/Src/stm32u0xx_hal_rtc.c **** 
 114              		.loc 1 319 5 view .LVU30
 322:Drivers/STM32U0xx_HAL_Driver/Src/stm32u0xx_hal_rtc.c ****     {
 115              		.loc 1 322 5 view .LVU31
 116              	.LVL4:
 117              	.LBB54:
 118              	.LBI54:
 763:Drivers/STM32U0xx_HAL_Driver/Src/stm32u0xx_hal_rtc.c **** 
 764:Drivers/STM32U0xx_HAL_Driver/Src/stm32u0xx_hal_rtc.c **** /**
 765:Drivers/STM32U0xx_HAL_Driver/Src/stm32u0xx_hal_rtc.c ****   * @brief  DeInitialize the RTC MSP.
 766:Drivers/STM32U0xx_HAL_Driver/Src/stm32u0xx_hal_rtc.c ****   * @param  hrtc RTC handle
 767:Drivers/STM32U0xx_HAL_Driver/Src/stm32u0xx_hal_rtc.c ****   * @retval None
 768:Drivers/STM32U0xx_HAL_Driver/Src/stm32u0xx_hal_rtc.c ****   */
ARM GAS  C:\Users\upo\AppData\Local\Temp\ccIlAiYO.s 			page 17


 769:Drivers/STM32U0xx_HAL_Driver/Src/stm32u0xx_hal_rtc.c **** __weak void HAL_RTC_MspDeInit(RTC_HandleTypeDef *hrtc)
 770:Drivers/STM32U0xx_HAL_Driver/Src/stm32u0xx_hal_rtc.c **** {
 771:Drivers/STM32U0xx_HAL_Driver/Src/stm32u0xx_hal_rtc.c ****   /* Prevent unused argument(s) compilation warning */
 772:Drivers/STM32U0xx_HAL_Driver/Src/stm32u0xx_hal_rtc.c ****   UNUSED(hrtc);
 773:Drivers/STM32U0xx_HAL_Driver/Src/stm32u0xx_hal_rtc.c **** 
 774:Drivers/STM32U0xx_HAL_Driver/Src/stm32u0xx_hal_rtc.c ****   /* NOTE : This function should not be modified, when the callback is needed,
 775:Drivers/STM32U0xx_HAL_Driver/Src/stm32u0xx_hal_rtc.c ****             the HAL_RTC_MspDeInit could be implemented in the user file
 776:Drivers/STM32U0xx_HAL_Driver/Src/stm32u0xx_hal_rtc.c ****    */
 777:Drivers/STM32U0xx_HAL_Driver/Src/stm32u0xx_hal_rtc.c **** }
 778:Drivers/STM32U0xx_HAL_Driver/Src/stm32u0xx_hal_rtc.c **** 
 779:Drivers/STM32U0xx_HAL_Driver/Src/stm32u0xx_hal_rtc.c **** /**
 780:Drivers/STM32U0xx_HAL_Driver/Src/stm32u0xx_hal_rtc.c ****   * @}
 781:Drivers/STM32U0xx_HAL_Driver/Src/stm32u0xx_hal_rtc.c ****   */
 782:Drivers/STM32U0xx_HAL_Driver/Src/stm32u0xx_hal_rtc.c **** 
 783:Drivers/STM32U0xx_HAL_Driver/Src/stm32u0xx_hal_rtc.c **** /** @addtogroup RTC_Exported_Functions_Group2
 784:Drivers/STM32U0xx_HAL_Driver/Src/stm32u0xx_hal_rtc.c ****   * @brief   RTC Time and Date functions
 785:Drivers/STM32U0xx_HAL_Driver/Src/stm32u0xx_hal_rtc.c ****   *
 786:Drivers/STM32U0xx_HAL_Driver/Src/stm32u0xx_hal_rtc.c **** @verbatim
 787:Drivers/STM32U0xx_HAL_Driver/Src/stm32u0xx_hal_rtc.c ****  ===============================================================================
 788:Drivers/STM32U0xx_HAL_Driver/Src/stm32u0xx_hal_rtc.c ****                  ##### RTC Time and Date functions #####
 789:Drivers/STM32U0xx_HAL_Driver/Src/stm32u0xx_hal_rtc.c ****  ===============================================================================
 790:Drivers/STM32U0xx_HAL_Driver/Src/stm32u0xx_hal_rtc.c **** 
 791:Drivers/STM32U0xx_HAL_Driver/Src/stm32u0xx_hal_rtc.c ****  [..] This section provides functions allowing to configure Time and Date features
 792:Drivers/STM32U0xx_HAL_Driver/Src/stm32u0xx_hal_rtc.c **** 
 793:Drivers/STM32U0xx_HAL_Driver/Src/stm32u0xx_hal_rtc.c **** @endverbatim
 794:Drivers/STM32U0xx_HAL_Driver/Src/stm32u0xx_hal_rtc.c ****   * @{
 795:Drivers/STM32U0xx_HAL_Driver/Src/stm32u0xx_hal_rtc.c ****   */
 796:Drivers/STM32U0xx_HAL_Driver/Src/stm32u0xx_hal_rtc.c **** 
 797:Drivers/STM32U0xx_HAL_Driver/Src/stm32u0xx_hal_rtc.c **** /**
 798:Drivers/STM32U0xx_HAL_Driver/Src/stm32u0xx_hal_rtc.c ****   * @brief  Set RTC current time.
 799:Drivers/STM32U0xx_HAL_Driver/Src/stm32u0xx_hal_rtc.c ****   * @param  hrtc RTC handle
 800:Drivers/STM32U0xx_HAL_Driver/Src/stm32u0xx_hal_rtc.c ****   * @param  sTime Pointer to Time structure
 801:Drivers/STM32U0xx_HAL_Driver/Src/stm32u0xx_hal_rtc.c ****   *          if Binary mode is RTC_BINARY_ONLY, this parameter is not used and RTC_SSR will be auto
 802:Drivers/STM32U0xx_HAL_Driver/Src/stm32u0xx_hal_rtc.c ****              reset to 0xFFFFFFFF. else sTime->SubSeconds is not used and RTC_SSR will be automatica
 803:Drivers/STM32U0xx_HAL_Driver/Src/stm32u0xx_hal_rtc.c ****              the A 7-bit async prescaler (RTC_PRER_PREDIV_A)
 804:Drivers/STM32U0xx_HAL_Driver/Src/stm32u0xx_hal_rtc.c ****   * @note   DayLightSaving and StoreOperation interfaces are deprecated.
 805:Drivers/STM32U0xx_HAL_Driver/Src/stm32u0xx_hal_rtc.c ****   *         To manage Daylight Saving Time, please use HAL_RTC_DST_xxx functions.
 806:Drivers/STM32U0xx_HAL_Driver/Src/stm32u0xx_hal_rtc.c ****   * @param  Format Format of sTime->Hours, sTime->Minutes and sTime->Seconds.
 807:Drivers/STM32U0xx_HAL_Driver/Src/stm32u0xx_hal_rtc.c ****   *          if Binary mode is RTC_BINARY_ONLY, this parameter is not used
 808:Drivers/STM32U0xx_HAL_Driver/Src/stm32u0xx_hal_rtc.c ****   *          else this parameter can be one of the following values
 809:Drivers/STM32U0xx_HAL_Driver/Src/stm32u0xx_hal_rtc.c ****   *             @arg RTC_FORMAT_BIN: Binary format
 810:Drivers/STM32U0xx_HAL_Driver/Src/stm32u0xx_hal_rtc.c ****   *             @arg RTC_FORMAT_BCD: BCD format
 811:Drivers/STM32U0xx_HAL_Driver/Src/stm32u0xx_hal_rtc.c ****   * @retval HAL status
 812:Drivers/STM32U0xx_HAL_Driver/Src/stm32u0xx_hal_rtc.c ****   */
 813:Drivers/STM32U0xx_HAL_Driver/Src/stm32u0xx_hal_rtc.c **** HAL_StatusTypeDef HAL_RTC_SetTime(RTC_HandleTypeDef *hrtc, RTC_TimeTypeDef *sTime, uint32_t Format)
 814:Drivers/STM32U0xx_HAL_Driver/Src/stm32u0xx_hal_rtc.c **** {
 815:Drivers/STM32U0xx_HAL_Driver/Src/stm32u0xx_hal_rtc.c ****   uint32_t tmpreg;
 816:Drivers/STM32U0xx_HAL_Driver/Src/stm32u0xx_hal_rtc.c **** 
 817:Drivers/STM32U0xx_HAL_Driver/Src/stm32u0xx_hal_rtc.c **** #ifdef USE_FULL_ASSERT
 818:Drivers/STM32U0xx_HAL_Driver/Src/stm32u0xx_hal_rtc.c ****   /* Check the parameters depending of the Binary mode with 32-bit free-running counter configurati
 819:Drivers/STM32U0xx_HAL_Driver/Src/stm32u0xx_hal_rtc.c ****   if (READ_BIT(RTC->ICSR, RTC_ICSR_BIN) == RTC_BINARY_NONE)
 820:Drivers/STM32U0xx_HAL_Driver/Src/stm32u0xx_hal_rtc.c ****   {
 821:Drivers/STM32U0xx_HAL_Driver/Src/stm32u0xx_hal_rtc.c ****     /* Check the parameters */
 822:Drivers/STM32U0xx_HAL_Driver/Src/stm32u0xx_hal_rtc.c ****     assert_param(IS_RTC_FORMAT(Format));
 823:Drivers/STM32U0xx_HAL_Driver/Src/stm32u0xx_hal_rtc.c ****   }
 824:Drivers/STM32U0xx_HAL_Driver/Src/stm32u0xx_hal_rtc.c **** #endif /* USE_FULL_ASSERT */
 825:Drivers/STM32U0xx_HAL_Driver/Src/stm32u0xx_hal_rtc.c **** 
ARM GAS  C:\Users\upo\AppData\Local\Temp\ccIlAiYO.s 			page 18


 826:Drivers/STM32U0xx_HAL_Driver/Src/stm32u0xx_hal_rtc.c ****   /* Process Locked */
 827:Drivers/STM32U0xx_HAL_Driver/Src/stm32u0xx_hal_rtc.c ****   __HAL_LOCK(hrtc);
 828:Drivers/STM32U0xx_HAL_Driver/Src/stm32u0xx_hal_rtc.c **** 
 829:Drivers/STM32U0xx_HAL_Driver/Src/stm32u0xx_hal_rtc.c ****   hrtc->State = HAL_RTC_STATE_BUSY;
 830:Drivers/STM32U0xx_HAL_Driver/Src/stm32u0xx_hal_rtc.c **** 
 831:Drivers/STM32U0xx_HAL_Driver/Src/stm32u0xx_hal_rtc.c ****   /* Disable the write protection for RTC registers */
 832:Drivers/STM32U0xx_HAL_Driver/Src/stm32u0xx_hal_rtc.c ****   __HAL_RTC_WRITEPROTECTION_DISABLE(hrtc);
 833:Drivers/STM32U0xx_HAL_Driver/Src/stm32u0xx_hal_rtc.c **** 
 834:Drivers/STM32U0xx_HAL_Driver/Src/stm32u0xx_hal_rtc.c ****   /* Set Initialization mode */
 835:Drivers/STM32U0xx_HAL_Driver/Src/stm32u0xx_hal_rtc.c ****   if (RTC_EnterInitMode(hrtc) != HAL_OK)
 836:Drivers/STM32U0xx_HAL_Driver/Src/stm32u0xx_hal_rtc.c ****   {
 837:Drivers/STM32U0xx_HAL_Driver/Src/stm32u0xx_hal_rtc.c ****     /* Enable the write protection for RTC registers */
 838:Drivers/STM32U0xx_HAL_Driver/Src/stm32u0xx_hal_rtc.c ****     __HAL_RTC_WRITEPROTECTION_ENABLE(hrtc);
 839:Drivers/STM32U0xx_HAL_Driver/Src/stm32u0xx_hal_rtc.c **** 
 840:Drivers/STM32U0xx_HAL_Driver/Src/stm32u0xx_hal_rtc.c ****     /* Set RTC state */
 841:Drivers/STM32U0xx_HAL_Driver/Src/stm32u0xx_hal_rtc.c ****     hrtc->State = HAL_RTC_STATE_ERROR;
 842:Drivers/STM32U0xx_HAL_Driver/Src/stm32u0xx_hal_rtc.c **** 
 843:Drivers/STM32U0xx_HAL_Driver/Src/stm32u0xx_hal_rtc.c ****     /* Process Unlocked */
 844:Drivers/STM32U0xx_HAL_Driver/Src/stm32u0xx_hal_rtc.c ****     __HAL_UNLOCK(hrtc);
 845:Drivers/STM32U0xx_HAL_Driver/Src/stm32u0xx_hal_rtc.c **** 
 846:Drivers/STM32U0xx_HAL_Driver/Src/stm32u0xx_hal_rtc.c ****     return HAL_ERROR;
 847:Drivers/STM32U0xx_HAL_Driver/Src/stm32u0xx_hal_rtc.c ****   }
 848:Drivers/STM32U0xx_HAL_Driver/Src/stm32u0xx_hal_rtc.c ****   else
 849:Drivers/STM32U0xx_HAL_Driver/Src/stm32u0xx_hal_rtc.c ****   {
 850:Drivers/STM32U0xx_HAL_Driver/Src/stm32u0xx_hal_rtc.c ****     /* Check Binary mode ((32-bit free-running counter) */
 851:Drivers/STM32U0xx_HAL_Driver/Src/stm32u0xx_hal_rtc.c ****     if (READ_BIT(RTC->ICSR, RTC_ICSR_BIN) != RTC_BINARY_ONLY)
 852:Drivers/STM32U0xx_HAL_Driver/Src/stm32u0xx_hal_rtc.c ****     {
 853:Drivers/STM32U0xx_HAL_Driver/Src/stm32u0xx_hal_rtc.c ****       if (Format == RTC_FORMAT_BIN)
 854:Drivers/STM32U0xx_HAL_Driver/Src/stm32u0xx_hal_rtc.c ****       {
 855:Drivers/STM32U0xx_HAL_Driver/Src/stm32u0xx_hal_rtc.c ****         if (READ_BIT(RTC->CR, RTC_CR_FMT) != 0U)
 856:Drivers/STM32U0xx_HAL_Driver/Src/stm32u0xx_hal_rtc.c ****         {
 857:Drivers/STM32U0xx_HAL_Driver/Src/stm32u0xx_hal_rtc.c ****           assert_param(IS_RTC_HOUR12(sTime->Hours));
 858:Drivers/STM32U0xx_HAL_Driver/Src/stm32u0xx_hal_rtc.c ****           assert_param(IS_RTC_HOURFORMAT12(sTime->TimeFormat));
 859:Drivers/STM32U0xx_HAL_Driver/Src/stm32u0xx_hal_rtc.c ****         }
 860:Drivers/STM32U0xx_HAL_Driver/Src/stm32u0xx_hal_rtc.c ****         else
 861:Drivers/STM32U0xx_HAL_Driver/Src/stm32u0xx_hal_rtc.c ****         {
 862:Drivers/STM32U0xx_HAL_Driver/Src/stm32u0xx_hal_rtc.c ****           sTime->TimeFormat = 0x00U;
 863:Drivers/STM32U0xx_HAL_Driver/Src/stm32u0xx_hal_rtc.c ****           assert_param(IS_RTC_HOUR24(sTime->Hours));
 864:Drivers/STM32U0xx_HAL_Driver/Src/stm32u0xx_hal_rtc.c ****         }
 865:Drivers/STM32U0xx_HAL_Driver/Src/stm32u0xx_hal_rtc.c ****         assert_param(IS_RTC_MINUTES(sTime->Minutes));
 866:Drivers/STM32U0xx_HAL_Driver/Src/stm32u0xx_hal_rtc.c ****         assert_param(IS_RTC_SECONDS(sTime->Seconds));
 867:Drivers/STM32U0xx_HAL_Driver/Src/stm32u0xx_hal_rtc.c **** 
 868:Drivers/STM32U0xx_HAL_Driver/Src/stm32u0xx_hal_rtc.c ****         tmpreg = (uint32_t)(((uint32_t)RTC_ByteToBcd2(sTime->Hours) << RTC_TR_HU_Pos) | \
 869:Drivers/STM32U0xx_HAL_Driver/Src/stm32u0xx_hal_rtc.c ****                             ((uint32_t)RTC_ByteToBcd2(sTime->Minutes) << RTC_TR_MNU_Pos) | \
 870:Drivers/STM32U0xx_HAL_Driver/Src/stm32u0xx_hal_rtc.c ****                             ((uint32_t)RTC_ByteToBcd2(sTime->Seconds) << RTC_TR_SU_Pos) | \
 871:Drivers/STM32U0xx_HAL_Driver/Src/stm32u0xx_hal_rtc.c ****                             (((uint32_t)sTime->TimeFormat) << RTC_TR_PM_Pos));
 872:Drivers/STM32U0xx_HAL_Driver/Src/stm32u0xx_hal_rtc.c **** 
 873:Drivers/STM32U0xx_HAL_Driver/Src/stm32u0xx_hal_rtc.c ****       }
 874:Drivers/STM32U0xx_HAL_Driver/Src/stm32u0xx_hal_rtc.c ****       else
 875:Drivers/STM32U0xx_HAL_Driver/Src/stm32u0xx_hal_rtc.c ****       {
 876:Drivers/STM32U0xx_HAL_Driver/Src/stm32u0xx_hal_rtc.c ****         if (READ_BIT(RTC->CR, RTC_CR_FMT) != 0U)
 877:Drivers/STM32U0xx_HAL_Driver/Src/stm32u0xx_hal_rtc.c ****         {
 878:Drivers/STM32U0xx_HAL_Driver/Src/stm32u0xx_hal_rtc.c ****           assert_param(IS_RTC_HOUR12(RTC_Bcd2ToByte(sTime->Hours)));
 879:Drivers/STM32U0xx_HAL_Driver/Src/stm32u0xx_hal_rtc.c ****           assert_param(IS_RTC_HOURFORMAT12(sTime->TimeFormat));
 880:Drivers/STM32U0xx_HAL_Driver/Src/stm32u0xx_hal_rtc.c ****         }
 881:Drivers/STM32U0xx_HAL_Driver/Src/stm32u0xx_hal_rtc.c ****         else
 882:Drivers/STM32U0xx_HAL_Driver/Src/stm32u0xx_hal_rtc.c ****         {
ARM GAS  C:\Users\upo\AppData\Local\Temp\ccIlAiYO.s 			page 19


 883:Drivers/STM32U0xx_HAL_Driver/Src/stm32u0xx_hal_rtc.c ****           sTime->TimeFormat = 0x00U;
 884:Drivers/STM32U0xx_HAL_Driver/Src/stm32u0xx_hal_rtc.c ****           assert_param(IS_RTC_HOUR24(RTC_Bcd2ToByte(sTime->Hours)));
 885:Drivers/STM32U0xx_HAL_Driver/Src/stm32u0xx_hal_rtc.c ****         }
 886:Drivers/STM32U0xx_HAL_Driver/Src/stm32u0xx_hal_rtc.c ****         assert_param(IS_RTC_MINUTES(RTC_Bcd2ToByte(sTime->Minutes)));
 887:Drivers/STM32U0xx_HAL_Driver/Src/stm32u0xx_hal_rtc.c ****         assert_param(IS_RTC_SECONDS(RTC_Bcd2ToByte(sTime->Seconds)));
 888:Drivers/STM32U0xx_HAL_Driver/Src/stm32u0xx_hal_rtc.c ****         tmpreg = (((uint32_t)(sTime->Hours) << RTC_TR_HU_Pos) | \
 889:Drivers/STM32U0xx_HAL_Driver/Src/stm32u0xx_hal_rtc.c ****                   ((uint32_t)(sTime->Minutes) << RTC_TR_MNU_Pos) | \
 890:Drivers/STM32U0xx_HAL_Driver/Src/stm32u0xx_hal_rtc.c ****                   ((uint32_t)(sTime->Seconds) << RTC_TR_SU_Pos) | \
 891:Drivers/STM32U0xx_HAL_Driver/Src/stm32u0xx_hal_rtc.c ****                   ((uint32_t)(sTime->TimeFormat) << RTC_TR_PM_Pos));
 892:Drivers/STM32U0xx_HAL_Driver/Src/stm32u0xx_hal_rtc.c ****       }
 893:Drivers/STM32U0xx_HAL_Driver/Src/stm32u0xx_hal_rtc.c **** 
 894:Drivers/STM32U0xx_HAL_Driver/Src/stm32u0xx_hal_rtc.c ****       /* Set the RTC_TR register */
 895:Drivers/STM32U0xx_HAL_Driver/Src/stm32u0xx_hal_rtc.c ****       WRITE_REG(RTC->TR, (tmpreg & RTC_TR_RESERVED_MASK));
 896:Drivers/STM32U0xx_HAL_Driver/Src/stm32u0xx_hal_rtc.c **** 
 897:Drivers/STM32U0xx_HAL_Driver/Src/stm32u0xx_hal_rtc.c ****       /* Clear the bits to be configured (Deprecated. Use HAL_RTC_DST_xxx functions instead) */
 898:Drivers/STM32U0xx_HAL_Driver/Src/stm32u0xx_hal_rtc.c ****       CLEAR_BIT(RTC->CR, RTC_CR_BKP);
 899:Drivers/STM32U0xx_HAL_Driver/Src/stm32u0xx_hal_rtc.c **** 
 900:Drivers/STM32U0xx_HAL_Driver/Src/stm32u0xx_hal_rtc.c ****       /* Configure the RTC_CR register (Deprecated. Use HAL_RTC_DST_xxx functions instead) */
 901:Drivers/STM32U0xx_HAL_Driver/Src/stm32u0xx_hal_rtc.c ****       SET_BIT(RTC->CR, (sTime->DayLightSaving | sTime->StoreOperation));
 902:Drivers/STM32U0xx_HAL_Driver/Src/stm32u0xx_hal_rtc.c ****     }
 903:Drivers/STM32U0xx_HAL_Driver/Src/stm32u0xx_hal_rtc.c **** 
 904:Drivers/STM32U0xx_HAL_Driver/Src/stm32u0xx_hal_rtc.c ****     /* Exit Initialization mode */
 905:Drivers/STM32U0xx_HAL_Driver/Src/stm32u0xx_hal_rtc.c ****     CLEAR_BIT(RTC->ICSR, RTC_ICSR_INIT);
 906:Drivers/STM32U0xx_HAL_Driver/Src/stm32u0xx_hal_rtc.c **** 
 907:Drivers/STM32U0xx_HAL_Driver/Src/stm32u0xx_hal_rtc.c ****     /* If  CR_BYPSHAD bit = 0, wait for synchro else this check is not needed */
 908:Drivers/STM32U0xx_HAL_Driver/Src/stm32u0xx_hal_rtc.c ****     if (READ_BIT(RTC->CR, RTC_CR_BYPSHAD) == 0U)
 909:Drivers/STM32U0xx_HAL_Driver/Src/stm32u0xx_hal_rtc.c ****     {
 910:Drivers/STM32U0xx_HAL_Driver/Src/stm32u0xx_hal_rtc.c ****       if (HAL_RTC_WaitForSynchro(hrtc) != HAL_OK)
 911:Drivers/STM32U0xx_HAL_Driver/Src/stm32u0xx_hal_rtc.c ****       {
 912:Drivers/STM32U0xx_HAL_Driver/Src/stm32u0xx_hal_rtc.c ****         /* Enable the write protection for RTC registers */
 913:Drivers/STM32U0xx_HAL_Driver/Src/stm32u0xx_hal_rtc.c ****         __HAL_RTC_WRITEPROTECTION_ENABLE(hrtc);
 914:Drivers/STM32U0xx_HAL_Driver/Src/stm32u0xx_hal_rtc.c **** 
 915:Drivers/STM32U0xx_HAL_Driver/Src/stm32u0xx_hal_rtc.c ****         hrtc->State = HAL_RTC_STATE_ERROR;
 916:Drivers/STM32U0xx_HAL_Driver/Src/stm32u0xx_hal_rtc.c **** 
 917:Drivers/STM32U0xx_HAL_Driver/Src/stm32u0xx_hal_rtc.c ****         /* Process Unlocked */
 918:Drivers/STM32U0xx_HAL_Driver/Src/stm32u0xx_hal_rtc.c ****         __HAL_UNLOCK(hrtc);
 919:Drivers/STM32U0xx_HAL_Driver/Src/stm32u0xx_hal_rtc.c **** 
 920:Drivers/STM32U0xx_HAL_Driver/Src/stm32u0xx_hal_rtc.c ****         return HAL_ERROR;
 921:Drivers/STM32U0xx_HAL_Driver/Src/stm32u0xx_hal_rtc.c ****       }
 922:Drivers/STM32U0xx_HAL_Driver/Src/stm32u0xx_hal_rtc.c ****     }
 923:Drivers/STM32U0xx_HAL_Driver/Src/stm32u0xx_hal_rtc.c **** 
 924:Drivers/STM32U0xx_HAL_Driver/Src/stm32u0xx_hal_rtc.c ****     /* Enable the write protection for RTC registers */
 925:Drivers/STM32U0xx_HAL_Driver/Src/stm32u0xx_hal_rtc.c ****     __HAL_RTC_WRITEPROTECTION_ENABLE(hrtc);
 926:Drivers/STM32U0xx_HAL_Driver/Src/stm32u0xx_hal_rtc.c **** 
 927:Drivers/STM32U0xx_HAL_Driver/Src/stm32u0xx_hal_rtc.c ****     hrtc->State = HAL_RTC_STATE_READY;
 928:Drivers/STM32U0xx_HAL_Driver/Src/stm32u0xx_hal_rtc.c **** 
 929:Drivers/STM32U0xx_HAL_Driver/Src/stm32u0xx_hal_rtc.c ****     __HAL_UNLOCK(hrtc);
 930:Drivers/STM32U0xx_HAL_Driver/Src/stm32u0xx_hal_rtc.c **** 
 931:Drivers/STM32U0xx_HAL_Driver/Src/stm32u0xx_hal_rtc.c ****     return HAL_OK;
 932:Drivers/STM32U0xx_HAL_Driver/Src/stm32u0xx_hal_rtc.c ****   }
 933:Drivers/STM32U0xx_HAL_Driver/Src/stm32u0xx_hal_rtc.c **** }
 934:Drivers/STM32U0xx_HAL_Driver/Src/stm32u0xx_hal_rtc.c **** 
 935:Drivers/STM32U0xx_HAL_Driver/Src/stm32u0xx_hal_rtc.c **** /**
 936:Drivers/STM32U0xx_HAL_Driver/Src/stm32u0xx_hal_rtc.c ****   * @brief  Get RTC current time.
 937:Drivers/STM32U0xx_HAL_Driver/Src/stm32u0xx_hal_rtc.c ****   * @note  You can use SubSeconds and SecondFraction (sTime structure fields returned) to convert S
 938:Drivers/STM32U0xx_HAL_Driver/Src/stm32u0xx_hal_rtc.c ****   *        value in second fraction ratio with time unit following generic formula:
 939:Drivers/STM32U0xx_HAL_Driver/Src/stm32u0xx_hal_rtc.c ****   *        Second fraction ratio * time_unit= [(SecondFraction-SubSeconds)/(SecondFraction+1)] * ti
ARM GAS  C:\Users\upo\AppData\Local\Temp\ccIlAiYO.s 			page 20


 940:Drivers/STM32U0xx_HAL_Driver/Src/stm32u0xx_hal_rtc.c ****   *        This conversion can be performed only if no shift operation is pending (ie. SHFP=0) when
 941:Drivers/STM32U0xx_HAL_Driver/Src/stm32u0xx_hal_rtc.c ****   * @note  You must call HAL_RTC_GetDate() after HAL_RTC_GetTime() to unlock the values
 942:Drivers/STM32U0xx_HAL_Driver/Src/stm32u0xx_hal_rtc.c ****   *        in the higher-order calendar shadow registers to ensure consistency between the time and
 943:Drivers/STM32U0xx_HAL_Driver/Src/stm32u0xx_hal_rtc.c ****   *        Reading RTC current time locks the values in calendar shadow registers until Current dat
 944:Drivers/STM32U0xx_HAL_Driver/Src/stm32u0xx_hal_rtc.c ****   *        to ensure consistency between the time and date values.
 945:Drivers/STM32U0xx_HAL_Driver/Src/stm32u0xx_hal_rtc.c ****   * @param  hrtc RTC handle
 946:Drivers/STM32U0xx_HAL_Driver/Src/stm32u0xx_hal_rtc.c ****   * @param  sTime
 947:Drivers/STM32U0xx_HAL_Driver/Src/stm32u0xx_hal_rtc.c ****   *          if Binary mode is RTC_BINARY_ONLY, sTime->SubSeconds only is updated
 948:Drivers/STM32U0xx_HAL_Driver/Src/stm32u0xx_hal_rtc.c ****   *          else
 949:Drivers/STM32U0xx_HAL_Driver/Src/stm32u0xx_hal_rtc.c ****   *          Pointer to Time structure with Hours, Minutes and Seconds fields returned
 950:Drivers/STM32U0xx_HAL_Driver/Src/stm32u0xx_hal_rtc.c ****   *          with input format (BIN or BCD), also SubSeconds field returning the
 951:Drivers/STM32U0xx_HAL_Driver/Src/stm32u0xx_hal_rtc.c ****   *          RTC_SSR register content and SecondFraction field the Synchronous pre-scaler
 952:Drivers/STM32U0xx_HAL_Driver/Src/stm32u0xx_hal_rtc.c ****   *          factor to be used for second fraction ratio computation.
 953:Drivers/STM32U0xx_HAL_Driver/Src/stm32u0xx_hal_rtc.c ****   * @param  Format Format of sTime->Hours, sTime->Minutes and sTime->Seconds.
 954:Drivers/STM32U0xx_HAL_Driver/Src/stm32u0xx_hal_rtc.c ****   *          if Binary mode is RTC_BINARY_ONLY, this parameter is not used
 955:Drivers/STM32U0xx_HAL_Driver/Src/stm32u0xx_hal_rtc.c ****   *          else this parameter can be one of the following values:
 956:Drivers/STM32U0xx_HAL_Driver/Src/stm32u0xx_hal_rtc.c ****   *            @arg RTC_FORMAT_BIN: Binary format
 957:Drivers/STM32U0xx_HAL_Driver/Src/stm32u0xx_hal_rtc.c ****   *            @arg RTC_FORMAT_BCD: BCD format
 958:Drivers/STM32U0xx_HAL_Driver/Src/stm32u0xx_hal_rtc.c ****   * @retval HAL status
 959:Drivers/STM32U0xx_HAL_Driver/Src/stm32u0xx_hal_rtc.c ****   */
 960:Drivers/STM32U0xx_HAL_Driver/Src/stm32u0xx_hal_rtc.c **** HAL_StatusTypeDef HAL_RTC_GetTime(const RTC_HandleTypeDef *hrtc, RTC_TimeTypeDef *sTime, uint32_t F
 961:Drivers/STM32U0xx_HAL_Driver/Src/stm32u0xx_hal_rtc.c **** {
 962:Drivers/STM32U0xx_HAL_Driver/Src/stm32u0xx_hal_rtc.c ****   uint32_t tmpreg;
 963:Drivers/STM32U0xx_HAL_Driver/Src/stm32u0xx_hal_rtc.c **** 
 964:Drivers/STM32U0xx_HAL_Driver/Src/stm32u0xx_hal_rtc.c ****   UNUSED(hrtc);
 965:Drivers/STM32U0xx_HAL_Driver/Src/stm32u0xx_hal_rtc.c ****   /* Get subseconds structure field from the corresponding register */
 966:Drivers/STM32U0xx_HAL_Driver/Src/stm32u0xx_hal_rtc.c ****   sTime->SubSeconds = READ_REG(RTC->SSR);
 967:Drivers/STM32U0xx_HAL_Driver/Src/stm32u0xx_hal_rtc.c **** 
 968:Drivers/STM32U0xx_HAL_Driver/Src/stm32u0xx_hal_rtc.c ****   if (READ_BIT(RTC->ICSR, RTC_ICSR_BIN) != RTC_BINARY_ONLY)
 969:Drivers/STM32U0xx_HAL_Driver/Src/stm32u0xx_hal_rtc.c ****   {
 970:Drivers/STM32U0xx_HAL_Driver/Src/stm32u0xx_hal_rtc.c ****     /* Check the parameters */
 971:Drivers/STM32U0xx_HAL_Driver/Src/stm32u0xx_hal_rtc.c ****     assert_param(IS_RTC_FORMAT(Format));
 972:Drivers/STM32U0xx_HAL_Driver/Src/stm32u0xx_hal_rtc.c **** 
 973:Drivers/STM32U0xx_HAL_Driver/Src/stm32u0xx_hal_rtc.c ****     /* Get SecondFraction structure field from the corresponding register field */
 974:Drivers/STM32U0xx_HAL_Driver/Src/stm32u0xx_hal_rtc.c ****     sTime->SecondFraction = (uint32_t)(READ_REG(RTC->PRER) & RTC_PRER_PREDIV_S);
 975:Drivers/STM32U0xx_HAL_Driver/Src/stm32u0xx_hal_rtc.c **** 
 976:Drivers/STM32U0xx_HAL_Driver/Src/stm32u0xx_hal_rtc.c ****     /* Get the TR register */
 977:Drivers/STM32U0xx_HAL_Driver/Src/stm32u0xx_hal_rtc.c ****     tmpreg = (uint32_t)(READ_REG(RTC->TR) & RTC_TR_RESERVED_MASK);
 978:Drivers/STM32U0xx_HAL_Driver/Src/stm32u0xx_hal_rtc.c **** 
 979:Drivers/STM32U0xx_HAL_Driver/Src/stm32u0xx_hal_rtc.c ****     /* Fill the structure fields with the read parameters */
 980:Drivers/STM32U0xx_HAL_Driver/Src/stm32u0xx_hal_rtc.c ****     sTime->Hours = (uint8_t)((tmpreg & (RTC_TR_HT | RTC_TR_HU)) >> RTC_TR_HU_Pos);
 981:Drivers/STM32U0xx_HAL_Driver/Src/stm32u0xx_hal_rtc.c ****     sTime->Minutes = (uint8_t)((tmpreg & (RTC_TR_MNT | RTC_TR_MNU)) >> RTC_TR_MNU_Pos);
 982:Drivers/STM32U0xx_HAL_Driver/Src/stm32u0xx_hal_rtc.c ****     sTime->Seconds = (uint8_t)((tmpreg & (RTC_TR_ST | RTC_TR_SU)) >> RTC_TR_SU_Pos);
 983:Drivers/STM32U0xx_HAL_Driver/Src/stm32u0xx_hal_rtc.c ****     sTime->TimeFormat = (uint8_t)((tmpreg & (RTC_TR_PM)) >> RTC_TR_PM_Pos);
 984:Drivers/STM32U0xx_HAL_Driver/Src/stm32u0xx_hal_rtc.c **** 
 985:Drivers/STM32U0xx_HAL_Driver/Src/stm32u0xx_hal_rtc.c ****     /* Check the input parameters format */
 986:Drivers/STM32U0xx_HAL_Driver/Src/stm32u0xx_hal_rtc.c ****     if (Format == RTC_FORMAT_BIN)
 987:Drivers/STM32U0xx_HAL_Driver/Src/stm32u0xx_hal_rtc.c ****     {
 988:Drivers/STM32U0xx_HAL_Driver/Src/stm32u0xx_hal_rtc.c ****       /* Convert the time structure parameters to Binary format */
 989:Drivers/STM32U0xx_HAL_Driver/Src/stm32u0xx_hal_rtc.c ****       sTime->Hours = (uint8_t)RTC_Bcd2ToByte(sTime->Hours);
 990:Drivers/STM32U0xx_HAL_Driver/Src/stm32u0xx_hal_rtc.c ****       sTime->Minutes = (uint8_t)RTC_Bcd2ToByte(sTime->Minutes);
 991:Drivers/STM32U0xx_HAL_Driver/Src/stm32u0xx_hal_rtc.c ****       sTime->Seconds = (uint8_t)RTC_Bcd2ToByte(sTime->Seconds);
 992:Drivers/STM32U0xx_HAL_Driver/Src/stm32u0xx_hal_rtc.c ****     }
 993:Drivers/STM32U0xx_HAL_Driver/Src/stm32u0xx_hal_rtc.c ****   }
 994:Drivers/STM32U0xx_HAL_Driver/Src/stm32u0xx_hal_rtc.c **** 
 995:Drivers/STM32U0xx_HAL_Driver/Src/stm32u0xx_hal_rtc.c ****   return HAL_OK;
 996:Drivers/STM32U0xx_HAL_Driver/Src/stm32u0xx_hal_rtc.c **** }
ARM GAS  C:\Users\upo\AppData\Local\Temp\ccIlAiYO.s 			page 21


 997:Drivers/STM32U0xx_HAL_Driver/Src/stm32u0xx_hal_rtc.c **** 
 998:Drivers/STM32U0xx_HAL_Driver/Src/stm32u0xx_hal_rtc.c **** /**
 999:Drivers/STM32U0xx_HAL_Driver/Src/stm32u0xx_hal_rtc.c ****   * @brief  Set RTC current date.
1000:Drivers/STM32U0xx_HAL_Driver/Src/stm32u0xx_hal_rtc.c ****   * @param  hrtc RTC handle
1001:Drivers/STM32U0xx_HAL_Driver/Src/stm32u0xx_hal_rtc.c ****   * @param  sDate Pointer to date structure
1002:Drivers/STM32U0xx_HAL_Driver/Src/stm32u0xx_hal_rtc.c ****   * @param  Format Format of sDate->Year, sDate->Month and sDate->Weekday.
1003:Drivers/STM32U0xx_HAL_Driver/Src/stm32u0xx_hal_rtc.c ****   *          This parameter can be one of the following values:
1004:Drivers/STM32U0xx_HAL_Driver/Src/stm32u0xx_hal_rtc.c ****   *            @arg RTC_FORMAT_BIN: Binary format
1005:Drivers/STM32U0xx_HAL_Driver/Src/stm32u0xx_hal_rtc.c ****   *            @arg RTC_FORMAT_BCD: BCD format
1006:Drivers/STM32U0xx_HAL_Driver/Src/stm32u0xx_hal_rtc.c ****   * @retval HAL status
1007:Drivers/STM32U0xx_HAL_Driver/Src/stm32u0xx_hal_rtc.c ****   */
1008:Drivers/STM32U0xx_HAL_Driver/Src/stm32u0xx_hal_rtc.c **** HAL_StatusTypeDef HAL_RTC_SetDate(RTC_HandleTypeDef *hrtc, RTC_DateTypeDef *sDate, uint32_t Format)
1009:Drivers/STM32U0xx_HAL_Driver/Src/stm32u0xx_hal_rtc.c **** {
1010:Drivers/STM32U0xx_HAL_Driver/Src/stm32u0xx_hal_rtc.c ****   uint32_t datetmpreg;
1011:Drivers/STM32U0xx_HAL_Driver/Src/stm32u0xx_hal_rtc.c **** 
1012:Drivers/STM32U0xx_HAL_Driver/Src/stm32u0xx_hal_rtc.c ****   /* Check the parameters */
1013:Drivers/STM32U0xx_HAL_Driver/Src/stm32u0xx_hal_rtc.c ****   assert_param(IS_RTC_FORMAT(Format));
1014:Drivers/STM32U0xx_HAL_Driver/Src/stm32u0xx_hal_rtc.c **** 
1015:Drivers/STM32U0xx_HAL_Driver/Src/stm32u0xx_hal_rtc.c ****   /* Process Locked */
1016:Drivers/STM32U0xx_HAL_Driver/Src/stm32u0xx_hal_rtc.c ****   __HAL_LOCK(hrtc);
1017:Drivers/STM32U0xx_HAL_Driver/Src/stm32u0xx_hal_rtc.c **** 
1018:Drivers/STM32U0xx_HAL_Driver/Src/stm32u0xx_hal_rtc.c ****   hrtc->State = HAL_RTC_STATE_BUSY;
1019:Drivers/STM32U0xx_HAL_Driver/Src/stm32u0xx_hal_rtc.c **** 
1020:Drivers/STM32U0xx_HAL_Driver/Src/stm32u0xx_hal_rtc.c ****   if ((Format == RTC_FORMAT_BIN) && ((sDate->Month & 0x10U) == 0x10U))
1021:Drivers/STM32U0xx_HAL_Driver/Src/stm32u0xx_hal_rtc.c ****   {
1022:Drivers/STM32U0xx_HAL_Driver/Src/stm32u0xx_hal_rtc.c ****     sDate->Month = (uint8_t)((sDate->Month & (uint8_t)~(0x10U)) + (uint8_t)0x0AU);
1023:Drivers/STM32U0xx_HAL_Driver/Src/stm32u0xx_hal_rtc.c ****   }
1024:Drivers/STM32U0xx_HAL_Driver/Src/stm32u0xx_hal_rtc.c **** 
1025:Drivers/STM32U0xx_HAL_Driver/Src/stm32u0xx_hal_rtc.c ****   assert_param(IS_RTC_WEEKDAY(sDate->WeekDay));
1026:Drivers/STM32U0xx_HAL_Driver/Src/stm32u0xx_hal_rtc.c **** 
1027:Drivers/STM32U0xx_HAL_Driver/Src/stm32u0xx_hal_rtc.c ****   if (Format == RTC_FORMAT_BIN)
1028:Drivers/STM32U0xx_HAL_Driver/Src/stm32u0xx_hal_rtc.c ****   {
1029:Drivers/STM32U0xx_HAL_Driver/Src/stm32u0xx_hal_rtc.c ****     assert_param(IS_RTC_YEAR(sDate->Year));
1030:Drivers/STM32U0xx_HAL_Driver/Src/stm32u0xx_hal_rtc.c ****     assert_param(IS_RTC_MONTH(sDate->Month));
1031:Drivers/STM32U0xx_HAL_Driver/Src/stm32u0xx_hal_rtc.c ****     assert_param(IS_RTC_DATE(sDate->Date));
1032:Drivers/STM32U0xx_HAL_Driver/Src/stm32u0xx_hal_rtc.c **** 
1033:Drivers/STM32U0xx_HAL_Driver/Src/stm32u0xx_hal_rtc.c ****     datetmpreg = (((uint32_t)RTC_ByteToBcd2(sDate->Year) << RTC_DR_YU_Pos) | \
1034:Drivers/STM32U0xx_HAL_Driver/Src/stm32u0xx_hal_rtc.c ****                   ((uint32_t)RTC_ByteToBcd2(sDate->Month) << RTC_DR_MU_Pos) | \
1035:Drivers/STM32U0xx_HAL_Driver/Src/stm32u0xx_hal_rtc.c ****                   ((uint32_t)RTC_ByteToBcd2(sDate->Date) << RTC_DR_DU_Pos) | \
1036:Drivers/STM32U0xx_HAL_Driver/Src/stm32u0xx_hal_rtc.c ****                   ((uint32_t)sDate->WeekDay << RTC_DR_WDU_Pos));
1037:Drivers/STM32U0xx_HAL_Driver/Src/stm32u0xx_hal_rtc.c ****   }
1038:Drivers/STM32U0xx_HAL_Driver/Src/stm32u0xx_hal_rtc.c ****   else
1039:Drivers/STM32U0xx_HAL_Driver/Src/stm32u0xx_hal_rtc.c ****   {
1040:Drivers/STM32U0xx_HAL_Driver/Src/stm32u0xx_hal_rtc.c ****     assert_param(IS_RTC_YEAR(RTC_Bcd2ToByte(sDate->Year)));
1041:Drivers/STM32U0xx_HAL_Driver/Src/stm32u0xx_hal_rtc.c ****     assert_param(IS_RTC_MONTH(RTC_Bcd2ToByte(sDate->Month)));
1042:Drivers/STM32U0xx_HAL_Driver/Src/stm32u0xx_hal_rtc.c ****     assert_param(IS_RTC_DATE(RTC_Bcd2ToByte(sDate->Date)));
1043:Drivers/STM32U0xx_HAL_Driver/Src/stm32u0xx_hal_rtc.c **** 
1044:Drivers/STM32U0xx_HAL_Driver/Src/stm32u0xx_hal_rtc.c ****     datetmpreg = ((((uint32_t)sDate->Year) << RTC_DR_YU_Pos) | \
1045:Drivers/STM32U0xx_HAL_Driver/Src/stm32u0xx_hal_rtc.c ****                   (((uint32_t)sDate->Month) << RTC_DR_MU_Pos) | \
1046:Drivers/STM32U0xx_HAL_Driver/Src/stm32u0xx_hal_rtc.c ****                   (((uint32_t)sDate->Date) << RTC_DR_DU_Pos) | \
1047:Drivers/STM32U0xx_HAL_Driver/Src/stm32u0xx_hal_rtc.c ****                   (((uint32_t)sDate->WeekDay) << RTC_DR_WDU_Pos));
1048:Drivers/STM32U0xx_HAL_Driver/Src/stm32u0xx_hal_rtc.c ****   }
1049:Drivers/STM32U0xx_HAL_Driver/Src/stm32u0xx_hal_rtc.c **** 
1050:Drivers/STM32U0xx_HAL_Driver/Src/stm32u0xx_hal_rtc.c ****   /* Disable the write protection for RTC registers */
1051:Drivers/STM32U0xx_HAL_Driver/Src/stm32u0xx_hal_rtc.c ****   __HAL_RTC_WRITEPROTECTION_DISABLE(hrtc);
1052:Drivers/STM32U0xx_HAL_Driver/Src/stm32u0xx_hal_rtc.c **** 
1053:Drivers/STM32U0xx_HAL_Driver/Src/stm32u0xx_hal_rtc.c ****   /* Set Initialization mode */
ARM GAS  C:\Users\upo\AppData\Local\Temp\ccIlAiYO.s 			page 22


1054:Drivers/STM32U0xx_HAL_Driver/Src/stm32u0xx_hal_rtc.c ****   if (RTC_EnterInitMode(hrtc) != HAL_OK)
1055:Drivers/STM32U0xx_HAL_Driver/Src/stm32u0xx_hal_rtc.c ****   {
1056:Drivers/STM32U0xx_HAL_Driver/Src/stm32u0xx_hal_rtc.c ****     /* Enable the write protection for RTC registers */
1057:Drivers/STM32U0xx_HAL_Driver/Src/stm32u0xx_hal_rtc.c ****     __HAL_RTC_WRITEPROTECTION_ENABLE(hrtc);
1058:Drivers/STM32U0xx_HAL_Driver/Src/stm32u0xx_hal_rtc.c **** 
1059:Drivers/STM32U0xx_HAL_Driver/Src/stm32u0xx_hal_rtc.c ****     /* Set RTC state*/
1060:Drivers/STM32U0xx_HAL_Driver/Src/stm32u0xx_hal_rtc.c ****     hrtc->State = HAL_RTC_STATE_ERROR;
1061:Drivers/STM32U0xx_HAL_Driver/Src/stm32u0xx_hal_rtc.c **** 
1062:Drivers/STM32U0xx_HAL_Driver/Src/stm32u0xx_hal_rtc.c ****     /* Process Unlocked */
1063:Drivers/STM32U0xx_HAL_Driver/Src/stm32u0xx_hal_rtc.c ****     __HAL_UNLOCK(hrtc);
1064:Drivers/STM32U0xx_HAL_Driver/Src/stm32u0xx_hal_rtc.c **** 
1065:Drivers/STM32U0xx_HAL_Driver/Src/stm32u0xx_hal_rtc.c ****     return HAL_ERROR;
1066:Drivers/STM32U0xx_HAL_Driver/Src/stm32u0xx_hal_rtc.c ****   }
1067:Drivers/STM32U0xx_HAL_Driver/Src/stm32u0xx_hal_rtc.c ****   else
1068:Drivers/STM32U0xx_HAL_Driver/Src/stm32u0xx_hal_rtc.c ****   {
1069:Drivers/STM32U0xx_HAL_Driver/Src/stm32u0xx_hal_rtc.c ****     /* Set the RTC_DR register */
1070:Drivers/STM32U0xx_HAL_Driver/Src/stm32u0xx_hal_rtc.c ****     WRITE_REG(RTC->DR, (uint32_t)(datetmpreg & RTC_DR_RESERVED_MASK));
1071:Drivers/STM32U0xx_HAL_Driver/Src/stm32u0xx_hal_rtc.c **** 
1072:Drivers/STM32U0xx_HAL_Driver/Src/stm32u0xx_hal_rtc.c ****     /* Exit Initialization mode */
1073:Drivers/STM32U0xx_HAL_Driver/Src/stm32u0xx_hal_rtc.c ****     CLEAR_BIT(RTC->ICSR, RTC_ICSR_INIT);
1074:Drivers/STM32U0xx_HAL_Driver/Src/stm32u0xx_hal_rtc.c **** 
1075:Drivers/STM32U0xx_HAL_Driver/Src/stm32u0xx_hal_rtc.c ****     /* If CR_BYPSHAD bit = 0, wait for synchro else this check is not needed */
1076:Drivers/STM32U0xx_HAL_Driver/Src/stm32u0xx_hal_rtc.c ****     if (READ_BIT(RTC->CR, RTC_CR_BYPSHAD) == 0U)
1077:Drivers/STM32U0xx_HAL_Driver/Src/stm32u0xx_hal_rtc.c ****     {
1078:Drivers/STM32U0xx_HAL_Driver/Src/stm32u0xx_hal_rtc.c ****       if (HAL_RTC_WaitForSynchro(hrtc) != HAL_OK)
1079:Drivers/STM32U0xx_HAL_Driver/Src/stm32u0xx_hal_rtc.c ****       {
1080:Drivers/STM32U0xx_HAL_Driver/Src/stm32u0xx_hal_rtc.c ****         /* Enable the write protection for RTC registers */
1081:Drivers/STM32U0xx_HAL_Driver/Src/stm32u0xx_hal_rtc.c ****         __HAL_RTC_WRITEPROTECTION_ENABLE(hrtc);
1082:Drivers/STM32U0xx_HAL_Driver/Src/stm32u0xx_hal_rtc.c **** 
1083:Drivers/STM32U0xx_HAL_Driver/Src/stm32u0xx_hal_rtc.c ****         hrtc->State = HAL_RTC_STATE_ERROR;
1084:Drivers/STM32U0xx_HAL_Driver/Src/stm32u0xx_hal_rtc.c **** 
1085:Drivers/STM32U0xx_HAL_Driver/Src/stm32u0xx_hal_rtc.c ****         /* Process Unlocked */
1086:Drivers/STM32U0xx_HAL_Driver/Src/stm32u0xx_hal_rtc.c ****         __HAL_UNLOCK(hrtc);
1087:Drivers/STM32U0xx_HAL_Driver/Src/stm32u0xx_hal_rtc.c **** 
1088:Drivers/STM32U0xx_HAL_Driver/Src/stm32u0xx_hal_rtc.c ****         return HAL_ERROR;
1089:Drivers/STM32U0xx_HAL_Driver/Src/stm32u0xx_hal_rtc.c ****       }
1090:Drivers/STM32U0xx_HAL_Driver/Src/stm32u0xx_hal_rtc.c ****     }
1091:Drivers/STM32U0xx_HAL_Driver/Src/stm32u0xx_hal_rtc.c **** 
1092:Drivers/STM32U0xx_HAL_Driver/Src/stm32u0xx_hal_rtc.c ****     /* Enable the write protection for RTC registers */
1093:Drivers/STM32U0xx_HAL_Driver/Src/stm32u0xx_hal_rtc.c ****     __HAL_RTC_WRITEPROTECTION_ENABLE(hrtc);
1094:Drivers/STM32U0xx_HAL_Driver/Src/stm32u0xx_hal_rtc.c **** 
1095:Drivers/STM32U0xx_HAL_Driver/Src/stm32u0xx_hal_rtc.c ****     hrtc->State = HAL_RTC_STATE_READY ;
1096:Drivers/STM32U0xx_HAL_Driver/Src/stm32u0xx_hal_rtc.c **** 
1097:Drivers/STM32U0xx_HAL_Driver/Src/stm32u0xx_hal_rtc.c ****     /* Process Unlocked */
1098:Drivers/STM32U0xx_HAL_Driver/Src/stm32u0xx_hal_rtc.c ****     __HAL_UNLOCK(hrtc);
1099:Drivers/STM32U0xx_HAL_Driver/Src/stm32u0xx_hal_rtc.c **** 
1100:Drivers/STM32U0xx_HAL_Driver/Src/stm32u0xx_hal_rtc.c ****     return HAL_OK;
1101:Drivers/STM32U0xx_HAL_Driver/Src/stm32u0xx_hal_rtc.c ****   }
1102:Drivers/STM32U0xx_HAL_Driver/Src/stm32u0xx_hal_rtc.c **** }
1103:Drivers/STM32U0xx_HAL_Driver/Src/stm32u0xx_hal_rtc.c **** 
1104:Drivers/STM32U0xx_HAL_Driver/Src/stm32u0xx_hal_rtc.c **** /**
1105:Drivers/STM32U0xx_HAL_Driver/Src/stm32u0xx_hal_rtc.c ****   * @brief  Get RTC current date.
1106:Drivers/STM32U0xx_HAL_Driver/Src/stm32u0xx_hal_rtc.c ****   * @note  You must call HAL_RTC_GetDate() after HAL_RTC_GetTime() to unlock the values
1107:Drivers/STM32U0xx_HAL_Driver/Src/stm32u0xx_hal_rtc.c ****   *        in the higher-order calendar shadow registers to ensure consistency between the time and
1108:Drivers/STM32U0xx_HAL_Driver/Src/stm32u0xx_hal_rtc.c ****   *        Reading RTC current time locks the values in calendar shadow registers until Current dat
1109:Drivers/STM32U0xx_HAL_Driver/Src/stm32u0xx_hal_rtc.c ****   * @param  hrtc RTC handle
1110:Drivers/STM32U0xx_HAL_Driver/Src/stm32u0xx_hal_rtc.c ****   * @param  sDate Pointer to Date structure
ARM GAS  C:\Users\upo\AppData\Local\Temp\ccIlAiYO.s 			page 23


1111:Drivers/STM32U0xx_HAL_Driver/Src/stm32u0xx_hal_rtc.c ****   * @param  Format Format of sDate->Year, sDate->Month and sDate->Weekday.
1112:Drivers/STM32U0xx_HAL_Driver/Src/stm32u0xx_hal_rtc.c ****   *          This parameter can be one of the following values:
1113:Drivers/STM32U0xx_HAL_Driver/Src/stm32u0xx_hal_rtc.c ****   *            @arg RTC_FORMAT_BIN: Binary format
1114:Drivers/STM32U0xx_HAL_Driver/Src/stm32u0xx_hal_rtc.c ****   *            @arg RTC_FORMAT_BCD: BCD format
1115:Drivers/STM32U0xx_HAL_Driver/Src/stm32u0xx_hal_rtc.c ****   * @retval HAL status
1116:Drivers/STM32U0xx_HAL_Driver/Src/stm32u0xx_hal_rtc.c ****   */
1117:Drivers/STM32U0xx_HAL_Driver/Src/stm32u0xx_hal_rtc.c **** HAL_StatusTypeDef HAL_RTC_GetDate(const RTC_HandleTypeDef *hrtc, RTC_DateTypeDef *sDate, uint32_t F
1118:Drivers/STM32U0xx_HAL_Driver/Src/stm32u0xx_hal_rtc.c **** {
1119:Drivers/STM32U0xx_HAL_Driver/Src/stm32u0xx_hal_rtc.c ****   uint32_t datetmpreg;
1120:Drivers/STM32U0xx_HAL_Driver/Src/stm32u0xx_hal_rtc.c **** 
1121:Drivers/STM32U0xx_HAL_Driver/Src/stm32u0xx_hal_rtc.c ****   UNUSED(hrtc);
1122:Drivers/STM32U0xx_HAL_Driver/Src/stm32u0xx_hal_rtc.c ****   /* Check the parameters */
1123:Drivers/STM32U0xx_HAL_Driver/Src/stm32u0xx_hal_rtc.c ****   assert_param(IS_RTC_FORMAT(Format));
1124:Drivers/STM32U0xx_HAL_Driver/Src/stm32u0xx_hal_rtc.c **** 
1125:Drivers/STM32U0xx_HAL_Driver/Src/stm32u0xx_hal_rtc.c ****   /* Get the DR register */
1126:Drivers/STM32U0xx_HAL_Driver/Src/stm32u0xx_hal_rtc.c ****   datetmpreg = (uint32_t)(READ_REG(RTC->DR) & RTC_DR_RESERVED_MASK);
1127:Drivers/STM32U0xx_HAL_Driver/Src/stm32u0xx_hal_rtc.c **** 
1128:Drivers/STM32U0xx_HAL_Driver/Src/stm32u0xx_hal_rtc.c ****   /* Fill the structure fields with the read parameters */
1129:Drivers/STM32U0xx_HAL_Driver/Src/stm32u0xx_hal_rtc.c ****   sDate->Year = (uint8_t)((datetmpreg & (RTC_DR_YT | RTC_DR_YU)) >> RTC_DR_YU_Pos);
1130:Drivers/STM32U0xx_HAL_Driver/Src/stm32u0xx_hal_rtc.c ****   sDate->Month = (uint8_t)((datetmpreg & (RTC_DR_MT | RTC_DR_MU)) >> RTC_DR_MU_Pos);
1131:Drivers/STM32U0xx_HAL_Driver/Src/stm32u0xx_hal_rtc.c ****   sDate->Date = (uint8_t)((datetmpreg & (RTC_DR_DT | RTC_DR_DU)) >> RTC_DR_DU_Pos);
1132:Drivers/STM32U0xx_HAL_Driver/Src/stm32u0xx_hal_rtc.c ****   sDate->WeekDay = (uint8_t)((datetmpreg & (RTC_DR_WDU)) >> RTC_DR_WDU_Pos);
1133:Drivers/STM32U0xx_HAL_Driver/Src/stm32u0xx_hal_rtc.c **** 
1134:Drivers/STM32U0xx_HAL_Driver/Src/stm32u0xx_hal_rtc.c ****   /* Check the input parameters format */
1135:Drivers/STM32U0xx_HAL_Driver/Src/stm32u0xx_hal_rtc.c ****   if (Format == RTC_FORMAT_BIN)
1136:Drivers/STM32U0xx_HAL_Driver/Src/stm32u0xx_hal_rtc.c ****   {
1137:Drivers/STM32U0xx_HAL_Driver/Src/stm32u0xx_hal_rtc.c ****     /* Convert the date structure parameters to Binary format */
1138:Drivers/STM32U0xx_HAL_Driver/Src/stm32u0xx_hal_rtc.c ****     sDate->Year = (uint8_t)RTC_Bcd2ToByte(sDate->Year);
1139:Drivers/STM32U0xx_HAL_Driver/Src/stm32u0xx_hal_rtc.c ****     sDate->Month = (uint8_t)RTC_Bcd2ToByte(sDate->Month);
1140:Drivers/STM32U0xx_HAL_Driver/Src/stm32u0xx_hal_rtc.c ****     sDate->Date = (uint8_t)RTC_Bcd2ToByte(sDate->Date);
1141:Drivers/STM32U0xx_HAL_Driver/Src/stm32u0xx_hal_rtc.c ****   }
1142:Drivers/STM32U0xx_HAL_Driver/Src/stm32u0xx_hal_rtc.c ****   return HAL_OK;
1143:Drivers/STM32U0xx_HAL_Driver/Src/stm32u0xx_hal_rtc.c **** }
1144:Drivers/STM32U0xx_HAL_Driver/Src/stm32u0xx_hal_rtc.c **** 
1145:Drivers/STM32U0xx_HAL_Driver/Src/stm32u0xx_hal_rtc.c **** /**
1146:Drivers/STM32U0xx_HAL_Driver/Src/stm32u0xx_hal_rtc.c ****   * @brief  Daylight Saving Time, add one hour to the calendar in one
1147:Drivers/STM32U0xx_HAL_Driver/Src/stm32u0xx_hal_rtc.c ****   *         single operation without going through the initialization procedure.
1148:Drivers/STM32U0xx_HAL_Driver/Src/stm32u0xx_hal_rtc.c ****   * @param  hrtc pointer to a RTC_HandleTypeDef structure that contains
1149:Drivers/STM32U0xx_HAL_Driver/Src/stm32u0xx_hal_rtc.c ****   *                the configuration information for RTC.
1150:Drivers/STM32U0xx_HAL_Driver/Src/stm32u0xx_hal_rtc.c ****   * @retval None
1151:Drivers/STM32U0xx_HAL_Driver/Src/stm32u0xx_hal_rtc.c ****   */
1152:Drivers/STM32U0xx_HAL_Driver/Src/stm32u0xx_hal_rtc.c **** void HAL_RTC_DST_Add1Hour(const RTC_HandleTypeDef *hrtc)
1153:Drivers/STM32U0xx_HAL_Driver/Src/stm32u0xx_hal_rtc.c **** {
1154:Drivers/STM32U0xx_HAL_Driver/Src/stm32u0xx_hal_rtc.c ****   UNUSED(hrtc);
1155:Drivers/STM32U0xx_HAL_Driver/Src/stm32u0xx_hal_rtc.c ****   __HAL_RTC_WRITEPROTECTION_DISABLE(hrtc);
1156:Drivers/STM32U0xx_HAL_Driver/Src/stm32u0xx_hal_rtc.c ****   SET_BIT(RTC->CR, RTC_CR_ADD1H);
1157:Drivers/STM32U0xx_HAL_Driver/Src/stm32u0xx_hal_rtc.c ****   __HAL_RTC_WRITEPROTECTION_ENABLE(hrtc);
1158:Drivers/STM32U0xx_HAL_Driver/Src/stm32u0xx_hal_rtc.c **** }
1159:Drivers/STM32U0xx_HAL_Driver/Src/stm32u0xx_hal_rtc.c **** 
1160:Drivers/STM32U0xx_HAL_Driver/Src/stm32u0xx_hal_rtc.c **** /**
1161:Drivers/STM32U0xx_HAL_Driver/Src/stm32u0xx_hal_rtc.c ****   * @brief  Daylight Saving Time, subtracts one hour from the calendar in one
1162:Drivers/STM32U0xx_HAL_Driver/Src/stm32u0xx_hal_rtc.c ****   *         single operation without going through the initialization procedure.
1163:Drivers/STM32U0xx_HAL_Driver/Src/stm32u0xx_hal_rtc.c ****   * @param  hrtc pointer to a RTC_HandleTypeDef structure that contains
1164:Drivers/STM32U0xx_HAL_Driver/Src/stm32u0xx_hal_rtc.c ****   *                the configuration information for RTC.
1165:Drivers/STM32U0xx_HAL_Driver/Src/stm32u0xx_hal_rtc.c ****   * @retval None
1166:Drivers/STM32U0xx_HAL_Driver/Src/stm32u0xx_hal_rtc.c ****   */
1167:Drivers/STM32U0xx_HAL_Driver/Src/stm32u0xx_hal_rtc.c **** void HAL_RTC_DST_Sub1Hour(const RTC_HandleTypeDef *hrtc)
ARM GAS  C:\Users\upo\AppData\Local\Temp\ccIlAiYO.s 			page 24


1168:Drivers/STM32U0xx_HAL_Driver/Src/stm32u0xx_hal_rtc.c **** {
1169:Drivers/STM32U0xx_HAL_Driver/Src/stm32u0xx_hal_rtc.c ****   UNUSED(hrtc);
1170:Drivers/STM32U0xx_HAL_Driver/Src/stm32u0xx_hal_rtc.c ****   __HAL_RTC_WRITEPROTECTION_DISABLE(hrtc);
1171:Drivers/STM32U0xx_HAL_Driver/Src/stm32u0xx_hal_rtc.c ****   SET_BIT(RTC->CR, RTC_CR_SUB1H);
1172:Drivers/STM32U0xx_HAL_Driver/Src/stm32u0xx_hal_rtc.c ****   __HAL_RTC_WRITEPROTECTION_ENABLE(hrtc);
1173:Drivers/STM32U0xx_HAL_Driver/Src/stm32u0xx_hal_rtc.c **** }
1174:Drivers/STM32U0xx_HAL_Driver/Src/stm32u0xx_hal_rtc.c **** 
1175:Drivers/STM32U0xx_HAL_Driver/Src/stm32u0xx_hal_rtc.c **** /**
1176:Drivers/STM32U0xx_HAL_Driver/Src/stm32u0xx_hal_rtc.c ****   * @brief  Daylight Saving Time, sets the store operation bit.
1177:Drivers/STM32U0xx_HAL_Driver/Src/stm32u0xx_hal_rtc.c ****   * @note   It can be used by the software in order to memorize the DST status.
1178:Drivers/STM32U0xx_HAL_Driver/Src/stm32u0xx_hal_rtc.c ****   * @param  hrtc pointer to a RTC_HandleTypeDef structure that contains
1179:Drivers/STM32U0xx_HAL_Driver/Src/stm32u0xx_hal_rtc.c ****   *                the configuration information for RTC.
1180:Drivers/STM32U0xx_HAL_Driver/Src/stm32u0xx_hal_rtc.c ****   * @retval None
1181:Drivers/STM32U0xx_HAL_Driver/Src/stm32u0xx_hal_rtc.c ****   */
1182:Drivers/STM32U0xx_HAL_Driver/Src/stm32u0xx_hal_rtc.c **** void HAL_RTC_DST_SetStoreOperation(const RTC_HandleTypeDef *hrtc)
1183:Drivers/STM32U0xx_HAL_Driver/Src/stm32u0xx_hal_rtc.c **** {
1184:Drivers/STM32U0xx_HAL_Driver/Src/stm32u0xx_hal_rtc.c ****   UNUSED(hrtc);
1185:Drivers/STM32U0xx_HAL_Driver/Src/stm32u0xx_hal_rtc.c ****   SET_BIT(RTC->CR, RTC_CR_BKP);
1186:Drivers/STM32U0xx_HAL_Driver/Src/stm32u0xx_hal_rtc.c **** }
1187:Drivers/STM32U0xx_HAL_Driver/Src/stm32u0xx_hal_rtc.c **** 
1188:Drivers/STM32U0xx_HAL_Driver/Src/stm32u0xx_hal_rtc.c **** /**
1189:Drivers/STM32U0xx_HAL_Driver/Src/stm32u0xx_hal_rtc.c ****   * @brief  Daylight Saving Time, clears the store operation bit.
1190:Drivers/STM32U0xx_HAL_Driver/Src/stm32u0xx_hal_rtc.c ****   * @param  hrtc pointer to a RTC_HandleTypeDef structure that contains
1191:Drivers/STM32U0xx_HAL_Driver/Src/stm32u0xx_hal_rtc.c ****   *                the configuration information for RTC.
1192:Drivers/STM32U0xx_HAL_Driver/Src/stm32u0xx_hal_rtc.c ****   * @retval None
1193:Drivers/STM32U0xx_HAL_Driver/Src/stm32u0xx_hal_rtc.c ****   */
1194:Drivers/STM32U0xx_HAL_Driver/Src/stm32u0xx_hal_rtc.c **** void HAL_RTC_DST_ClearStoreOperation(const RTC_HandleTypeDef *hrtc)
1195:Drivers/STM32U0xx_HAL_Driver/Src/stm32u0xx_hal_rtc.c **** {
1196:Drivers/STM32U0xx_HAL_Driver/Src/stm32u0xx_hal_rtc.c ****   UNUSED(hrtc);
1197:Drivers/STM32U0xx_HAL_Driver/Src/stm32u0xx_hal_rtc.c ****   CLEAR_BIT(RTC->CR, RTC_CR_BKP);
1198:Drivers/STM32U0xx_HAL_Driver/Src/stm32u0xx_hal_rtc.c **** }
1199:Drivers/STM32U0xx_HAL_Driver/Src/stm32u0xx_hal_rtc.c **** 
1200:Drivers/STM32U0xx_HAL_Driver/Src/stm32u0xx_hal_rtc.c **** /**
1201:Drivers/STM32U0xx_HAL_Driver/Src/stm32u0xx_hal_rtc.c ****   * @brief  Daylight Saving Time, reads the store operation bit.
1202:Drivers/STM32U0xx_HAL_Driver/Src/stm32u0xx_hal_rtc.c ****   * @param  hrtc RTC handle
1203:Drivers/STM32U0xx_HAL_Driver/Src/stm32u0xx_hal_rtc.c ****   * @retval operation see RTC_StoreOperation_Definitions
1204:Drivers/STM32U0xx_HAL_Driver/Src/stm32u0xx_hal_rtc.c ****   */
1205:Drivers/STM32U0xx_HAL_Driver/Src/stm32u0xx_hal_rtc.c **** uint32_t HAL_RTC_DST_ReadStoreOperation(const RTC_HandleTypeDef *hrtc)
1206:Drivers/STM32U0xx_HAL_Driver/Src/stm32u0xx_hal_rtc.c **** {
1207:Drivers/STM32U0xx_HAL_Driver/Src/stm32u0xx_hal_rtc.c ****   UNUSED(hrtc);
1208:Drivers/STM32U0xx_HAL_Driver/Src/stm32u0xx_hal_rtc.c ****   return READ_BIT(RTC->CR, RTC_CR_BKP);
1209:Drivers/STM32U0xx_HAL_Driver/Src/stm32u0xx_hal_rtc.c **** }
1210:Drivers/STM32U0xx_HAL_Driver/Src/stm32u0xx_hal_rtc.c **** 
1211:Drivers/STM32U0xx_HAL_Driver/Src/stm32u0xx_hal_rtc.c **** /**
1212:Drivers/STM32U0xx_HAL_Driver/Src/stm32u0xx_hal_rtc.c ****   * @}
1213:Drivers/STM32U0xx_HAL_Driver/Src/stm32u0xx_hal_rtc.c ****   */
1214:Drivers/STM32U0xx_HAL_Driver/Src/stm32u0xx_hal_rtc.c **** 
1215:Drivers/STM32U0xx_HAL_Driver/Src/stm32u0xx_hal_rtc.c **** /** @addtogroup RTC_Exported_Functions_Group3
1216:Drivers/STM32U0xx_HAL_Driver/Src/stm32u0xx_hal_rtc.c ****   * @brief      RTC Alarm functions
1217:Drivers/STM32U0xx_HAL_Driver/Src/stm32u0xx_hal_rtc.c ****   *
1218:Drivers/STM32U0xx_HAL_Driver/Src/stm32u0xx_hal_rtc.c **** @verbatim
1219:Drivers/STM32U0xx_HAL_Driver/Src/stm32u0xx_hal_rtc.c ****  ===============================================================================
1220:Drivers/STM32U0xx_HAL_Driver/Src/stm32u0xx_hal_rtc.c ****                  ##### RTC Alarm functions #####
1221:Drivers/STM32U0xx_HAL_Driver/Src/stm32u0xx_hal_rtc.c ****  ===============================================================================
1222:Drivers/STM32U0xx_HAL_Driver/Src/stm32u0xx_hal_rtc.c **** 
1223:Drivers/STM32U0xx_HAL_Driver/Src/stm32u0xx_hal_rtc.c ****  [..] This section provides functions allowing to configure Alarm feature
1224:Drivers/STM32U0xx_HAL_Driver/Src/stm32u0xx_hal_rtc.c **** 
ARM GAS  C:\Users\upo\AppData\Local\Temp\ccIlAiYO.s 			page 25


1225:Drivers/STM32U0xx_HAL_Driver/Src/stm32u0xx_hal_rtc.c **** @endverbatim
1226:Drivers/STM32U0xx_HAL_Driver/Src/stm32u0xx_hal_rtc.c ****   * @{
1227:Drivers/STM32U0xx_HAL_Driver/Src/stm32u0xx_hal_rtc.c ****   */
1228:Drivers/STM32U0xx_HAL_Driver/Src/stm32u0xx_hal_rtc.c **** /**
1229:Drivers/STM32U0xx_HAL_Driver/Src/stm32u0xx_hal_rtc.c ****   * @brief  Set the specified RTC Alarm.
1230:Drivers/STM32U0xx_HAL_Driver/Src/stm32u0xx_hal_rtc.c ****   * @param  hrtc RTC handle
1231:Drivers/STM32U0xx_HAL_Driver/Src/stm32u0xx_hal_rtc.c ****   * @param  sAlarm Pointer to Alarm structure
1232:Drivers/STM32U0xx_HAL_Driver/Src/stm32u0xx_hal_rtc.c ****   *          if Binary mode is RTC_BINARY_ONLY, 3 fields only are used
1233:Drivers/STM32U0xx_HAL_Driver/Src/stm32u0xx_hal_rtc.c ****   *             sAlarm->AlarmTime.SubSeconds
1234:Drivers/STM32U0xx_HAL_Driver/Src/stm32u0xx_hal_rtc.c ****   *             sAlarm->AlarmSubSecondMask
1235:Drivers/STM32U0xx_HAL_Driver/Src/stm32u0xx_hal_rtc.c ****   *             sAlarm->BinaryAutoClr
1236:Drivers/STM32U0xx_HAL_Driver/Src/stm32u0xx_hal_rtc.c ****   * @param  Format of the entered parameters.
1237:Drivers/STM32U0xx_HAL_Driver/Src/stm32u0xx_hal_rtc.c ****   *          if Binary mode is RTC_BINARY_ONLY, this parameter is not used
1238:Drivers/STM32U0xx_HAL_Driver/Src/stm32u0xx_hal_rtc.c ****   *          else this parameter can be one of the following values
1239:Drivers/STM32U0xx_HAL_Driver/Src/stm32u0xx_hal_rtc.c ****   *             @arg RTC_FORMAT_BIN: Binary format
1240:Drivers/STM32U0xx_HAL_Driver/Src/stm32u0xx_hal_rtc.c ****   *             @arg RTC_FORMAT_BCD: BCD format
1241:Drivers/STM32U0xx_HAL_Driver/Src/stm32u0xx_hal_rtc.c ****   * @retval HAL status
1242:Drivers/STM32U0xx_HAL_Driver/Src/stm32u0xx_hal_rtc.c ****   */
1243:Drivers/STM32U0xx_HAL_Driver/Src/stm32u0xx_hal_rtc.c **** HAL_StatusTypeDef HAL_RTC_SetAlarm(RTC_HandleTypeDef *hrtc, RTC_AlarmTypeDef *sAlarm, uint32_t Form
1244:Drivers/STM32U0xx_HAL_Driver/Src/stm32u0xx_hal_rtc.c **** {
1245:Drivers/STM32U0xx_HAL_Driver/Src/stm32u0xx_hal_rtc.c ****   uint32_t tmpreg = 0;
1246:Drivers/STM32U0xx_HAL_Driver/Src/stm32u0xx_hal_rtc.c ****   uint32_t binaryMode;
1247:Drivers/STM32U0xx_HAL_Driver/Src/stm32u0xx_hal_rtc.c **** 
1248:Drivers/STM32U0xx_HAL_Driver/Src/stm32u0xx_hal_rtc.c ****   /* Process Locked */
1249:Drivers/STM32U0xx_HAL_Driver/Src/stm32u0xx_hal_rtc.c ****   __HAL_LOCK(hrtc);
1250:Drivers/STM32U0xx_HAL_Driver/Src/stm32u0xx_hal_rtc.c **** 
1251:Drivers/STM32U0xx_HAL_Driver/Src/stm32u0xx_hal_rtc.c ****   hrtc->State = HAL_RTC_STATE_BUSY;
1252:Drivers/STM32U0xx_HAL_Driver/Src/stm32u0xx_hal_rtc.c **** 
1253:Drivers/STM32U0xx_HAL_Driver/Src/stm32u0xx_hal_rtc.c **** #ifdef  USE_FULL_ASSERT
1254:Drivers/STM32U0xx_HAL_Driver/Src/stm32u0xx_hal_rtc.c ****   /* Check the parameters depending of the Binary mode (32-bit free-running counter configuration).
1255:Drivers/STM32U0xx_HAL_Driver/Src/stm32u0xx_hal_rtc.c ****   if (READ_BIT(RTC->ICSR, RTC_ICSR_BIN) == RTC_BINARY_NONE)
1256:Drivers/STM32U0xx_HAL_Driver/Src/stm32u0xx_hal_rtc.c ****   {
1257:Drivers/STM32U0xx_HAL_Driver/Src/stm32u0xx_hal_rtc.c ****     assert_param(IS_RTC_FORMAT(Format));
1258:Drivers/STM32U0xx_HAL_Driver/Src/stm32u0xx_hal_rtc.c ****     assert_param(IS_RTC_ALARM(sAlarm->Alarm));
1259:Drivers/STM32U0xx_HAL_Driver/Src/stm32u0xx_hal_rtc.c ****     assert_param(IS_RTC_ALARM_MASK(sAlarm->AlarmMask));
1260:Drivers/STM32U0xx_HAL_Driver/Src/stm32u0xx_hal_rtc.c ****     assert_param(IS_RTC_ALARM_DATE_WEEKDAY_SEL(sAlarm->AlarmDateWeekDaySel));
1261:Drivers/STM32U0xx_HAL_Driver/Src/stm32u0xx_hal_rtc.c ****     assert_param(IS_RTC_ALARM_SUB_SECOND_VALUE(sAlarm->AlarmTime.SubSeconds));
1262:Drivers/STM32U0xx_HAL_Driver/Src/stm32u0xx_hal_rtc.c ****     assert_param(IS_RTC_ALARM_SUB_SECOND_MASK(sAlarm->AlarmSubSecondMask));
1263:Drivers/STM32U0xx_HAL_Driver/Src/stm32u0xx_hal_rtc.c ****   }
1264:Drivers/STM32U0xx_HAL_Driver/Src/stm32u0xx_hal_rtc.c ****   else if (READ_BIT(RTC->ICSR, RTC_ICSR_BIN) == RTC_BINARY_ONLY)
1265:Drivers/STM32U0xx_HAL_Driver/Src/stm32u0xx_hal_rtc.c ****   {
1266:Drivers/STM32U0xx_HAL_Driver/Src/stm32u0xx_hal_rtc.c ****     assert_param(IS_RTC_ALARM_SUB_SECOND_BINARY_MASK(sAlarm->AlarmSubSecondMask));
1267:Drivers/STM32U0xx_HAL_Driver/Src/stm32u0xx_hal_rtc.c ****     assert_param(IS_RTC_ALARMSUBSECONDBIN_AUTOCLR(sAlarm->BinaryAutoClr));
1268:Drivers/STM32U0xx_HAL_Driver/Src/stm32u0xx_hal_rtc.c ****   }
1269:Drivers/STM32U0xx_HAL_Driver/Src/stm32u0xx_hal_rtc.c ****   else /* RTC_BINARY_MIX */
1270:Drivers/STM32U0xx_HAL_Driver/Src/stm32u0xx_hal_rtc.c ****   {
1271:Drivers/STM32U0xx_HAL_Driver/Src/stm32u0xx_hal_rtc.c ****     assert_param(IS_RTC_FORMAT(Format));
1272:Drivers/STM32U0xx_HAL_Driver/Src/stm32u0xx_hal_rtc.c ****     assert_param(IS_RTC_ALARM(sAlarm->Alarm));
1273:Drivers/STM32U0xx_HAL_Driver/Src/stm32u0xx_hal_rtc.c ****     assert_param(IS_RTC_ALARM_MASK(sAlarm->AlarmMask));
1274:Drivers/STM32U0xx_HAL_Driver/Src/stm32u0xx_hal_rtc.c ****     assert_param(IS_RTC_ALARM_DATE_WEEKDAY_SEL(sAlarm->AlarmDateWeekDaySel));
1275:Drivers/STM32U0xx_HAL_Driver/Src/stm32u0xx_hal_rtc.c ****     /* In Binary Mix Mode, the RTC can not generate an alarm on a match involving all calendar item
1276:Drivers/STM32U0xx_HAL_Driver/Src/stm32u0xx_hal_rtc.c ****        the upper SSR bits */
1277:Drivers/STM32U0xx_HAL_Driver/Src/stm32u0xx_hal_rtc.c ****     assert_param((sAlarm->AlarmSubSecondMask >> RTC_ALRMASSR_MASKSS_Pos) <= \
1278:Drivers/STM32U0xx_HAL_Driver/Src/stm32u0xx_hal_rtc.c ****                  (8U + (READ_BIT(RTC->ICSR, RTC_ICSR_BCDU) >> RTC_ICSR_BCDU_Pos)));
1279:Drivers/STM32U0xx_HAL_Driver/Src/stm32u0xx_hal_rtc.c ****   }
1280:Drivers/STM32U0xx_HAL_Driver/Src/stm32u0xx_hal_rtc.c **** #endif /* USE_FULL_ASSERT */
1281:Drivers/STM32U0xx_HAL_Driver/Src/stm32u0xx_hal_rtc.c **** 
ARM GAS  C:\Users\upo\AppData\Local\Temp\ccIlAiYO.s 			page 26


1282:Drivers/STM32U0xx_HAL_Driver/Src/stm32u0xx_hal_rtc.c ****   /* Get Binary mode (32-bit free-running counter configuration) */
1283:Drivers/STM32U0xx_HAL_Driver/Src/stm32u0xx_hal_rtc.c ****   binaryMode = READ_BIT(RTC->ICSR, RTC_ICSR_BIN);
1284:Drivers/STM32U0xx_HAL_Driver/Src/stm32u0xx_hal_rtc.c **** 
1285:Drivers/STM32U0xx_HAL_Driver/Src/stm32u0xx_hal_rtc.c ****   if (binaryMode != RTC_BINARY_ONLY)
1286:Drivers/STM32U0xx_HAL_Driver/Src/stm32u0xx_hal_rtc.c ****   {
1287:Drivers/STM32U0xx_HAL_Driver/Src/stm32u0xx_hal_rtc.c ****     if (Format == RTC_FORMAT_BIN)
1288:Drivers/STM32U0xx_HAL_Driver/Src/stm32u0xx_hal_rtc.c ****     {
1289:Drivers/STM32U0xx_HAL_Driver/Src/stm32u0xx_hal_rtc.c ****       if (READ_BIT(RTC->CR, RTC_CR_FMT) != 0U)
1290:Drivers/STM32U0xx_HAL_Driver/Src/stm32u0xx_hal_rtc.c ****       {
1291:Drivers/STM32U0xx_HAL_Driver/Src/stm32u0xx_hal_rtc.c ****         assert_param(IS_RTC_HOUR12(sAlarm->AlarmTime.Hours));
1292:Drivers/STM32U0xx_HAL_Driver/Src/stm32u0xx_hal_rtc.c ****         assert_param(IS_RTC_HOURFORMAT12(sAlarm->AlarmTime.TimeFormat));
1293:Drivers/STM32U0xx_HAL_Driver/Src/stm32u0xx_hal_rtc.c ****       }
1294:Drivers/STM32U0xx_HAL_Driver/Src/stm32u0xx_hal_rtc.c ****       else
1295:Drivers/STM32U0xx_HAL_Driver/Src/stm32u0xx_hal_rtc.c ****       {
1296:Drivers/STM32U0xx_HAL_Driver/Src/stm32u0xx_hal_rtc.c ****         sAlarm->AlarmTime.TimeFormat = 0x00U;
1297:Drivers/STM32U0xx_HAL_Driver/Src/stm32u0xx_hal_rtc.c ****         assert_param(IS_RTC_HOUR24(sAlarm->AlarmTime.Hours));
1298:Drivers/STM32U0xx_HAL_Driver/Src/stm32u0xx_hal_rtc.c ****       }
1299:Drivers/STM32U0xx_HAL_Driver/Src/stm32u0xx_hal_rtc.c ****       assert_param(IS_RTC_MINUTES(sAlarm->AlarmTime.Minutes));
1300:Drivers/STM32U0xx_HAL_Driver/Src/stm32u0xx_hal_rtc.c ****       assert_param(IS_RTC_SECONDS(sAlarm->AlarmTime.Seconds));
1301:Drivers/STM32U0xx_HAL_Driver/Src/stm32u0xx_hal_rtc.c **** 
1302:Drivers/STM32U0xx_HAL_Driver/Src/stm32u0xx_hal_rtc.c ****       if (sAlarm->AlarmDateWeekDaySel == RTC_ALARMDATEWEEKDAYSEL_DATE)
1303:Drivers/STM32U0xx_HAL_Driver/Src/stm32u0xx_hal_rtc.c ****       {
1304:Drivers/STM32U0xx_HAL_Driver/Src/stm32u0xx_hal_rtc.c ****         assert_param(IS_RTC_ALARM_DATE_WEEKDAY_DATE(sAlarm->AlarmDateWeekDay));
1305:Drivers/STM32U0xx_HAL_Driver/Src/stm32u0xx_hal_rtc.c ****       }
1306:Drivers/STM32U0xx_HAL_Driver/Src/stm32u0xx_hal_rtc.c ****       else
1307:Drivers/STM32U0xx_HAL_Driver/Src/stm32u0xx_hal_rtc.c ****       {
1308:Drivers/STM32U0xx_HAL_Driver/Src/stm32u0xx_hal_rtc.c ****         assert_param(IS_RTC_ALARM_DATE_WEEKDAY_WEEKDAY(sAlarm->AlarmDateWeekDay));
1309:Drivers/STM32U0xx_HAL_Driver/Src/stm32u0xx_hal_rtc.c ****       }
1310:Drivers/STM32U0xx_HAL_Driver/Src/stm32u0xx_hal_rtc.c ****       tmpreg = (((uint32_t)RTC_ByteToBcd2(sAlarm->AlarmTime.Hours) << RTC_ALRMAR_HU_Pos) | \
1311:Drivers/STM32U0xx_HAL_Driver/Src/stm32u0xx_hal_rtc.c ****                 ((uint32_t)RTC_ByteToBcd2(sAlarm->AlarmTime.Minutes) << RTC_ALRMAR_MNU_Pos) | \
1312:Drivers/STM32U0xx_HAL_Driver/Src/stm32u0xx_hal_rtc.c ****                 ((uint32_t)RTC_ByteToBcd2(sAlarm->AlarmTime.Seconds) << RTC_ALRMAR_SU_Pos) | \
1313:Drivers/STM32U0xx_HAL_Driver/Src/stm32u0xx_hal_rtc.c ****                 ((uint32_t)(sAlarm->AlarmTime.TimeFormat) << RTC_ALRMAR_PM_Pos) | \
1314:Drivers/STM32U0xx_HAL_Driver/Src/stm32u0xx_hal_rtc.c ****                 ((uint32_t)RTC_ByteToBcd2(sAlarm->AlarmDateWeekDay) << RTC_ALRMAR_DU_Pos) | \
1315:Drivers/STM32U0xx_HAL_Driver/Src/stm32u0xx_hal_rtc.c ****                 ((uint32_t)sAlarm->AlarmDateWeekDaySel) | \
1316:Drivers/STM32U0xx_HAL_Driver/Src/stm32u0xx_hal_rtc.c ****                 ((uint32_t)sAlarm->AlarmMask));
1317:Drivers/STM32U0xx_HAL_Driver/Src/stm32u0xx_hal_rtc.c ****     }
1318:Drivers/STM32U0xx_HAL_Driver/Src/stm32u0xx_hal_rtc.c ****     else /* format BCD */
1319:Drivers/STM32U0xx_HAL_Driver/Src/stm32u0xx_hal_rtc.c ****     {
1320:Drivers/STM32U0xx_HAL_Driver/Src/stm32u0xx_hal_rtc.c ****       if (READ_BIT(RTC->CR, RTC_CR_FMT) != 0U)
1321:Drivers/STM32U0xx_HAL_Driver/Src/stm32u0xx_hal_rtc.c ****       {
1322:Drivers/STM32U0xx_HAL_Driver/Src/stm32u0xx_hal_rtc.c ****         assert_param(IS_RTC_HOUR12(RTC_Bcd2ToByte(sAlarm->AlarmTime.Hours)));
1323:Drivers/STM32U0xx_HAL_Driver/Src/stm32u0xx_hal_rtc.c ****         assert_param(IS_RTC_HOURFORMAT12(sAlarm->AlarmTime.TimeFormat));
1324:Drivers/STM32U0xx_HAL_Driver/Src/stm32u0xx_hal_rtc.c ****       }
1325:Drivers/STM32U0xx_HAL_Driver/Src/stm32u0xx_hal_rtc.c ****       else
1326:Drivers/STM32U0xx_HAL_Driver/Src/stm32u0xx_hal_rtc.c ****       {
1327:Drivers/STM32U0xx_HAL_Driver/Src/stm32u0xx_hal_rtc.c ****         sAlarm->AlarmTime.TimeFormat = 0x00U;
1328:Drivers/STM32U0xx_HAL_Driver/Src/stm32u0xx_hal_rtc.c ****         assert_param(IS_RTC_HOUR24(RTC_Bcd2ToByte(sAlarm->AlarmTime.Hours)));
1329:Drivers/STM32U0xx_HAL_Driver/Src/stm32u0xx_hal_rtc.c ****       }
1330:Drivers/STM32U0xx_HAL_Driver/Src/stm32u0xx_hal_rtc.c **** 
1331:Drivers/STM32U0xx_HAL_Driver/Src/stm32u0xx_hal_rtc.c ****       assert_param(IS_RTC_MINUTES(RTC_Bcd2ToByte(sAlarm->AlarmTime.Minutes)));
1332:Drivers/STM32U0xx_HAL_Driver/Src/stm32u0xx_hal_rtc.c ****       assert_param(IS_RTC_SECONDS(RTC_Bcd2ToByte(sAlarm->AlarmTime.Seconds)));
1333:Drivers/STM32U0xx_HAL_Driver/Src/stm32u0xx_hal_rtc.c **** 
1334:Drivers/STM32U0xx_HAL_Driver/Src/stm32u0xx_hal_rtc.c **** #ifdef  USE_FULL_ASSERT
1335:Drivers/STM32U0xx_HAL_Driver/Src/stm32u0xx_hal_rtc.c ****       if (sAlarm->AlarmDateWeekDaySel == RTC_ALARMDATEWEEKDAYSEL_DATE)
1336:Drivers/STM32U0xx_HAL_Driver/Src/stm32u0xx_hal_rtc.c ****       {
1337:Drivers/STM32U0xx_HAL_Driver/Src/stm32u0xx_hal_rtc.c ****         assert_param(IS_RTC_ALARM_DATE_WEEKDAY_DATE(RTC_Bcd2ToByte(sAlarm->AlarmDateWeekDay)));
1338:Drivers/STM32U0xx_HAL_Driver/Src/stm32u0xx_hal_rtc.c ****       }
ARM GAS  C:\Users\upo\AppData\Local\Temp\ccIlAiYO.s 			page 27


1339:Drivers/STM32U0xx_HAL_Driver/Src/stm32u0xx_hal_rtc.c ****       else
1340:Drivers/STM32U0xx_HAL_Driver/Src/stm32u0xx_hal_rtc.c ****       {
1341:Drivers/STM32U0xx_HAL_Driver/Src/stm32u0xx_hal_rtc.c ****         assert_param(IS_RTC_ALARM_DATE_WEEKDAY_WEEKDAY(RTC_Bcd2ToByte(sAlarm->AlarmDateWeekDay)));
1342:Drivers/STM32U0xx_HAL_Driver/Src/stm32u0xx_hal_rtc.c ****       }
1343:Drivers/STM32U0xx_HAL_Driver/Src/stm32u0xx_hal_rtc.c **** 
1344:Drivers/STM32U0xx_HAL_Driver/Src/stm32u0xx_hal_rtc.c **** #endif /* USE_FULL_ASSERT */
1345:Drivers/STM32U0xx_HAL_Driver/Src/stm32u0xx_hal_rtc.c ****       tmpreg = (((uint32_t)(sAlarm->AlarmTime.Hours) << RTC_ALRMAR_HU_Pos) | \
1346:Drivers/STM32U0xx_HAL_Driver/Src/stm32u0xx_hal_rtc.c ****                 ((uint32_t)(sAlarm->AlarmTime.Minutes) << RTC_ALRMAR_MNU_Pos) | \
1347:Drivers/STM32U0xx_HAL_Driver/Src/stm32u0xx_hal_rtc.c ****                 ((uint32_t)(sAlarm->AlarmTime.Seconds) << RTC_ALRMAR_SU_Pos) | \
1348:Drivers/STM32U0xx_HAL_Driver/Src/stm32u0xx_hal_rtc.c ****                 ((uint32_t)(sAlarm->AlarmTime.TimeFormat) << RTC_ALRMAR_PM_Pos) | \
1349:Drivers/STM32U0xx_HAL_Driver/Src/stm32u0xx_hal_rtc.c ****                 ((uint32_t)(sAlarm->AlarmDateWeekDay) << RTC_ALRMAR_DU_Pos) | \
1350:Drivers/STM32U0xx_HAL_Driver/Src/stm32u0xx_hal_rtc.c ****                 ((uint32_t)sAlarm->AlarmDateWeekDaySel) | \
1351:Drivers/STM32U0xx_HAL_Driver/Src/stm32u0xx_hal_rtc.c ****                 ((uint32_t)sAlarm->AlarmMask));
1352:Drivers/STM32U0xx_HAL_Driver/Src/stm32u0xx_hal_rtc.c ****     }
1353:Drivers/STM32U0xx_HAL_Driver/Src/stm32u0xx_hal_rtc.c ****   }
1354:Drivers/STM32U0xx_HAL_Driver/Src/stm32u0xx_hal_rtc.c **** 
1355:Drivers/STM32U0xx_HAL_Driver/Src/stm32u0xx_hal_rtc.c ****   /* Configure the Alarm register */
1356:Drivers/STM32U0xx_HAL_Driver/Src/stm32u0xx_hal_rtc.c ****   if (sAlarm->Alarm == RTC_ALARM_A)
1357:Drivers/STM32U0xx_HAL_Driver/Src/stm32u0xx_hal_rtc.c ****   {
1358:Drivers/STM32U0xx_HAL_Driver/Src/stm32u0xx_hal_rtc.c ****     /* Disable the Alarm A interrupt */
1359:Drivers/STM32U0xx_HAL_Driver/Src/stm32u0xx_hal_rtc.c ****     /* In case of interrupt mode is used, the interrupt source must disabled */
1360:Drivers/STM32U0xx_HAL_Driver/Src/stm32u0xx_hal_rtc.c ****     CLEAR_BIT(RTC->CR, (RTC_CR_ALRAE | RTC_CR_ALRAIE));
1361:Drivers/STM32U0xx_HAL_Driver/Src/stm32u0xx_hal_rtc.c ****     /* Clear flag alarm A */
1362:Drivers/STM32U0xx_HAL_Driver/Src/stm32u0xx_hal_rtc.c ****     WRITE_REG(RTC->SCR, RTC_SCR_CALRAF);
1363:Drivers/STM32U0xx_HAL_Driver/Src/stm32u0xx_hal_rtc.c **** 
1364:Drivers/STM32U0xx_HAL_Driver/Src/stm32u0xx_hal_rtc.c ****     if (binaryMode == RTC_BINARY_ONLY)
1365:Drivers/STM32U0xx_HAL_Driver/Src/stm32u0xx_hal_rtc.c ****     {
1366:Drivers/STM32U0xx_HAL_Driver/Src/stm32u0xx_hal_rtc.c ****       WRITE_REG(RTC->ALRMASSR, sAlarm->AlarmSubSecondMask | sAlarm->BinaryAutoClr);
1367:Drivers/STM32U0xx_HAL_Driver/Src/stm32u0xx_hal_rtc.c ****     }
1368:Drivers/STM32U0xx_HAL_Driver/Src/stm32u0xx_hal_rtc.c ****     else
1369:Drivers/STM32U0xx_HAL_Driver/Src/stm32u0xx_hal_rtc.c ****     {
1370:Drivers/STM32U0xx_HAL_Driver/Src/stm32u0xx_hal_rtc.c ****       WRITE_REG(RTC->ALRMAR, tmpreg);
1371:Drivers/STM32U0xx_HAL_Driver/Src/stm32u0xx_hal_rtc.c ****       WRITE_REG(RTC->ALRMASSR, sAlarm->AlarmSubSecondMask);
1372:Drivers/STM32U0xx_HAL_Driver/Src/stm32u0xx_hal_rtc.c ****     }
1373:Drivers/STM32U0xx_HAL_Driver/Src/stm32u0xx_hal_rtc.c **** 
1374:Drivers/STM32U0xx_HAL_Driver/Src/stm32u0xx_hal_rtc.c ****     WRITE_REG(RTC->ALRABINR, sAlarm->AlarmTime.SubSeconds);
1375:Drivers/STM32U0xx_HAL_Driver/Src/stm32u0xx_hal_rtc.c **** 
1376:Drivers/STM32U0xx_HAL_Driver/Src/stm32u0xx_hal_rtc.c ****     if (sAlarm->FlagAutoClr == ALARM_FLAG_AUTOCLR_ENABLE)
1377:Drivers/STM32U0xx_HAL_Driver/Src/stm32u0xx_hal_rtc.c ****     {
1378:Drivers/STM32U0xx_HAL_Driver/Src/stm32u0xx_hal_rtc.c ****       /* Configure the  Alarm A output clear */
1379:Drivers/STM32U0xx_HAL_Driver/Src/stm32u0xx_hal_rtc.c ****       SET_BIT(RTC->CR, RTC_CR_ALRAFCLR);
1380:Drivers/STM32U0xx_HAL_Driver/Src/stm32u0xx_hal_rtc.c ****     }
1381:Drivers/STM32U0xx_HAL_Driver/Src/stm32u0xx_hal_rtc.c ****     else
1382:Drivers/STM32U0xx_HAL_Driver/Src/stm32u0xx_hal_rtc.c ****     {
1383:Drivers/STM32U0xx_HAL_Driver/Src/stm32u0xx_hal_rtc.c ****       /* Disable the  Alarm A  output clear */
1384:Drivers/STM32U0xx_HAL_Driver/Src/stm32u0xx_hal_rtc.c ****       CLEAR_BIT(RTC->CR, RTC_CR_ALRAFCLR);
1385:Drivers/STM32U0xx_HAL_Driver/Src/stm32u0xx_hal_rtc.c ****     }
1386:Drivers/STM32U0xx_HAL_Driver/Src/stm32u0xx_hal_rtc.c ****     /* Configure the Alarm state: Enable Alarm */
1387:Drivers/STM32U0xx_HAL_Driver/Src/stm32u0xx_hal_rtc.c ****     SET_BIT(RTC->CR, RTC_CR_ALRAE);
1388:Drivers/STM32U0xx_HAL_Driver/Src/stm32u0xx_hal_rtc.c ****   }
1389:Drivers/STM32U0xx_HAL_Driver/Src/stm32u0xx_hal_rtc.c ****   else
1390:Drivers/STM32U0xx_HAL_Driver/Src/stm32u0xx_hal_rtc.c ****   {
1391:Drivers/STM32U0xx_HAL_Driver/Src/stm32u0xx_hal_rtc.c ****     /* Disable the Alarm B interrupt */
1392:Drivers/STM32U0xx_HAL_Driver/Src/stm32u0xx_hal_rtc.c ****     /* In case of interrupt mode is used, the interrupt source must disabled */
1393:Drivers/STM32U0xx_HAL_Driver/Src/stm32u0xx_hal_rtc.c ****     CLEAR_BIT(RTC->CR, (RTC_CR_ALRBE | RTC_CR_ALRBIE));
1394:Drivers/STM32U0xx_HAL_Driver/Src/stm32u0xx_hal_rtc.c ****     /* Clear flag alarm B */
1395:Drivers/STM32U0xx_HAL_Driver/Src/stm32u0xx_hal_rtc.c ****     WRITE_REG(RTC->SCR, RTC_SCR_CALRBF);
ARM GAS  C:\Users\upo\AppData\Local\Temp\ccIlAiYO.s 			page 28


1396:Drivers/STM32U0xx_HAL_Driver/Src/stm32u0xx_hal_rtc.c **** 
1397:Drivers/STM32U0xx_HAL_Driver/Src/stm32u0xx_hal_rtc.c ****     if (binaryMode == RTC_BINARY_ONLY)
1398:Drivers/STM32U0xx_HAL_Driver/Src/stm32u0xx_hal_rtc.c ****     {
1399:Drivers/STM32U0xx_HAL_Driver/Src/stm32u0xx_hal_rtc.c ****       WRITE_REG(RTC->ALRMBSSR, sAlarm->AlarmSubSecondMask | sAlarm->BinaryAutoClr);
1400:Drivers/STM32U0xx_HAL_Driver/Src/stm32u0xx_hal_rtc.c ****     }
1401:Drivers/STM32U0xx_HAL_Driver/Src/stm32u0xx_hal_rtc.c ****     else
1402:Drivers/STM32U0xx_HAL_Driver/Src/stm32u0xx_hal_rtc.c ****     {
1403:Drivers/STM32U0xx_HAL_Driver/Src/stm32u0xx_hal_rtc.c ****       WRITE_REG(RTC->ALRMBR, tmpreg);
1404:Drivers/STM32U0xx_HAL_Driver/Src/stm32u0xx_hal_rtc.c ****       WRITE_REG(RTC->ALRMBSSR,  sAlarm->AlarmSubSecondMask);
1405:Drivers/STM32U0xx_HAL_Driver/Src/stm32u0xx_hal_rtc.c ****     }
1406:Drivers/STM32U0xx_HAL_Driver/Src/stm32u0xx_hal_rtc.c **** 
1407:Drivers/STM32U0xx_HAL_Driver/Src/stm32u0xx_hal_rtc.c ****     WRITE_REG(RTC->ALRBBINR, sAlarm->AlarmTime.SubSeconds);
1408:Drivers/STM32U0xx_HAL_Driver/Src/stm32u0xx_hal_rtc.c ****     if (sAlarm->FlagAutoClr == ALARM_FLAG_AUTOCLR_ENABLE)
1409:Drivers/STM32U0xx_HAL_Driver/Src/stm32u0xx_hal_rtc.c ****     {
1410:Drivers/STM32U0xx_HAL_Driver/Src/stm32u0xx_hal_rtc.c ****       /* Configure the  Alarm B output clear */
1411:Drivers/STM32U0xx_HAL_Driver/Src/stm32u0xx_hal_rtc.c ****       SET_BIT(RTC->CR, RTC_CR_ALRBFCLR);
1412:Drivers/STM32U0xx_HAL_Driver/Src/stm32u0xx_hal_rtc.c ****     }
1413:Drivers/STM32U0xx_HAL_Driver/Src/stm32u0xx_hal_rtc.c ****     else
1414:Drivers/STM32U0xx_HAL_Driver/Src/stm32u0xx_hal_rtc.c ****     {
1415:Drivers/STM32U0xx_HAL_Driver/Src/stm32u0xx_hal_rtc.c ****       /* Disable the  Alarm B output clear */
1416:Drivers/STM32U0xx_HAL_Driver/Src/stm32u0xx_hal_rtc.c ****       CLEAR_BIT(RTC->CR, RTC_CR_ALRBFCLR);
1417:Drivers/STM32U0xx_HAL_Driver/Src/stm32u0xx_hal_rtc.c ****     }
1418:Drivers/STM32U0xx_HAL_Driver/Src/stm32u0xx_hal_rtc.c ****     /* Configure the Alarm state: Enable Alarm */
1419:Drivers/STM32U0xx_HAL_Driver/Src/stm32u0xx_hal_rtc.c ****     SET_BIT(RTC->CR, RTC_CR_ALRBE);
1420:Drivers/STM32U0xx_HAL_Driver/Src/stm32u0xx_hal_rtc.c ****   }
1421:Drivers/STM32U0xx_HAL_Driver/Src/stm32u0xx_hal_rtc.c **** 
1422:Drivers/STM32U0xx_HAL_Driver/Src/stm32u0xx_hal_rtc.c ****   /* Change RTC state */
1423:Drivers/STM32U0xx_HAL_Driver/Src/stm32u0xx_hal_rtc.c ****   hrtc->State = HAL_RTC_STATE_READY;
1424:Drivers/STM32U0xx_HAL_Driver/Src/stm32u0xx_hal_rtc.c **** 
1425:Drivers/STM32U0xx_HAL_Driver/Src/stm32u0xx_hal_rtc.c ****   /* Process Unlocked */
1426:Drivers/STM32U0xx_HAL_Driver/Src/stm32u0xx_hal_rtc.c ****   __HAL_UNLOCK(hrtc);
1427:Drivers/STM32U0xx_HAL_Driver/Src/stm32u0xx_hal_rtc.c **** 
1428:Drivers/STM32U0xx_HAL_Driver/Src/stm32u0xx_hal_rtc.c ****   return HAL_OK;
1429:Drivers/STM32U0xx_HAL_Driver/Src/stm32u0xx_hal_rtc.c **** }
1430:Drivers/STM32U0xx_HAL_Driver/Src/stm32u0xx_hal_rtc.c **** 
1431:Drivers/STM32U0xx_HAL_Driver/Src/stm32u0xx_hal_rtc.c **** /**
1432:Drivers/STM32U0xx_HAL_Driver/Src/stm32u0xx_hal_rtc.c ****   * @brief  Set the specified RTC Alarm with Interrupt.
1433:Drivers/STM32U0xx_HAL_Driver/Src/stm32u0xx_hal_rtc.c ****   * @param  hrtc RTC handle
1434:Drivers/STM32U0xx_HAL_Driver/Src/stm32u0xx_hal_rtc.c ****   * @param  sAlarm Pointer to Alarm structure
1435:Drivers/STM32U0xx_HAL_Driver/Src/stm32u0xx_hal_rtc.c ****   *          if Binary mode is RTC_BINARY_ONLY, 3 fields only are used
1436:Drivers/STM32U0xx_HAL_Driver/Src/stm32u0xx_hal_rtc.c ****   *             sAlarm->AlarmTime.SubSeconds
1437:Drivers/STM32U0xx_HAL_Driver/Src/stm32u0xx_hal_rtc.c ****   *             sAlarm->AlarmSubSecondMask
1438:Drivers/STM32U0xx_HAL_Driver/Src/stm32u0xx_hal_rtc.c ****   *             sAlarm->BinaryAutoClr
1439:Drivers/STM32U0xx_HAL_Driver/Src/stm32u0xx_hal_rtc.c ****   * @param  Format Specifies the format of the entered parameters.
1440:Drivers/STM32U0xx_HAL_Driver/Src/stm32u0xx_hal_rtc.c ****   *          if Binary mode is RTC_BINARY_ONLY, this parameter is not used
1441:Drivers/STM32U0xx_HAL_Driver/Src/stm32u0xx_hal_rtc.c ****   *          else this parameter can be one of the following values
1442:Drivers/STM32U0xx_HAL_Driver/Src/stm32u0xx_hal_rtc.c ****   *             @arg RTC_FORMAT_BIN: Binary format
1443:Drivers/STM32U0xx_HAL_Driver/Src/stm32u0xx_hal_rtc.c ****   *             @arg RTC_FORMAT_BCD: BCD format
1444:Drivers/STM32U0xx_HAL_Driver/Src/stm32u0xx_hal_rtc.c ****   * @retval HAL status
1445:Drivers/STM32U0xx_HAL_Driver/Src/stm32u0xx_hal_rtc.c ****   */
1446:Drivers/STM32U0xx_HAL_Driver/Src/stm32u0xx_hal_rtc.c **** HAL_StatusTypeDef HAL_RTC_SetAlarm_IT(RTC_HandleTypeDef *hrtc, RTC_AlarmTypeDef *sAlarm, uint32_t F
1447:Drivers/STM32U0xx_HAL_Driver/Src/stm32u0xx_hal_rtc.c **** {
1448:Drivers/STM32U0xx_HAL_Driver/Src/stm32u0xx_hal_rtc.c ****   uint32_t tmpreg = 0;
1449:Drivers/STM32U0xx_HAL_Driver/Src/stm32u0xx_hal_rtc.c ****   uint32_t binaryMode;
1450:Drivers/STM32U0xx_HAL_Driver/Src/stm32u0xx_hal_rtc.c **** 
1451:Drivers/STM32U0xx_HAL_Driver/Src/stm32u0xx_hal_rtc.c ****   /* Process Locked */
1452:Drivers/STM32U0xx_HAL_Driver/Src/stm32u0xx_hal_rtc.c ****   __HAL_LOCK(hrtc);
ARM GAS  C:\Users\upo\AppData\Local\Temp\ccIlAiYO.s 			page 29


1453:Drivers/STM32U0xx_HAL_Driver/Src/stm32u0xx_hal_rtc.c **** 
1454:Drivers/STM32U0xx_HAL_Driver/Src/stm32u0xx_hal_rtc.c ****   hrtc->State = HAL_RTC_STATE_BUSY;
1455:Drivers/STM32U0xx_HAL_Driver/Src/stm32u0xx_hal_rtc.c **** 
1456:Drivers/STM32U0xx_HAL_Driver/Src/stm32u0xx_hal_rtc.c **** #ifdef  USE_FULL_ASSERT
1457:Drivers/STM32U0xx_HAL_Driver/Src/stm32u0xx_hal_rtc.c ****   /* Check the parameters depending of the Binary mode (32-bit free-running counter configuration).
1458:Drivers/STM32U0xx_HAL_Driver/Src/stm32u0xx_hal_rtc.c ****   if (READ_BIT(RTC->ICSR, RTC_ICSR_BIN) == RTC_BINARY_NONE)
1459:Drivers/STM32U0xx_HAL_Driver/Src/stm32u0xx_hal_rtc.c ****   {
1460:Drivers/STM32U0xx_HAL_Driver/Src/stm32u0xx_hal_rtc.c ****     assert_param(IS_RTC_FORMAT(Format));
1461:Drivers/STM32U0xx_HAL_Driver/Src/stm32u0xx_hal_rtc.c ****     assert_param(IS_RTC_ALARM(sAlarm->Alarm));
1462:Drivers/STM32U0xx_HAL_Driver/Src/stm32u0xx_hal_rtc.c ****     assert_param(IS_RTC_ALARM_MASK(sAlarm->AlarmMask));
1463:Drivers/STM32U0xx_HAL_Driver/Src/stm32u0xx_hal_rtc.c ****     assert_param(IS_RTC_ALARM_DATE_WEEKDAY_SEL(sAlarm->AlarmDateWeekDaySel));
1464:Drivers/STM32U0xx_HAL_Driver/Src/stm32u0xx_hal_rtc.c ****     assert_param(IS_RTC_ALARM_SUB_SECOND_VALUE(sAlarm->AlarmTime.SubSeconds));
1465:Drivers/STM32U0xx_HAL_Driver/Src/stm32u0xx_hal_rtc.c ****     assert_param(IS_RTC_ALARM_SUB_SECOND_MASK(sAlarm->AlarmSubSecondMask));
1466:Drivers/STM32U0xx_HAL_Driver/Src/stm32u0xx_hal_rtc.c ****   }
1467:Drivers/STM32U0xx_HAL_Driver/Src/stm32u0xx_hal_rtc.c ****   else if (READ_BIT(RTC->ICSR, RTC_ICSR_BIN) == RTC_BINARY_ONLY)
1468:Drivers/STM32U0xx_HAL_Driver/Src/stm32u0xx_hal_rtc.c ****   {
1469:Drivers/STM32U0xx_HAL_Driver/Src/stm32u0xx_hal_rtc.c ****     assert_param(IS_RTC_ALARM_SUB_SECOND_BINARY_MASK(sAlarm->AlarmSubSecondMask));
1470:Drivers/STM32U0xx_HAL_Driver/Src/stm32u0xx_hal_rtc.c ****     assert_param(IS_RTC_ALARMSUBSECONDBIN_AUTOCLR(sAlarm->BinaryAutoClr));
1471:Drivers/STM32U0xx_HAL_Driver/Src/stm32u0xx_hal_rtc.c ****   }
1472:Drivers/STM32U0xx_HAL_Driver/Src/stm32u0xx_hal_rtc.c ****   else /* RTC_BINARY_MIX */
1473:Drivers/STM32U0xx_HAL_Driver/Src/stm32u0xx_hal_rtc.c ****   {
1474:Drivers/STM32U0xx_HAL_Driver/Src/stm32u0xx_hal_rtc.c ****     assert_param(IS_RTC_FORMAT(Format));
1475:Drivers/STM32U0xx_HAL_Driver/Src/stm32u0xx_hal_rtc.c ****     assert_param(IS_RTC_ALARM(sAlarm->Alarm));
1476:Drivers/STM32U0xx_HAL_Driver/Src/stm32u0xx_hal_rtc.c ****     assert_param(IS_RTC_ALARM_MASK(sAlarm->AlarmMask));
1477:Drivers/STM32U0xx_HAL_Driver/Src/stm32u0xx_hal_rtc.c ****     assert_param(IS_RTC_ALARM_DATE_WEEKDAY_SEL(sAlarm->AlarmDateWeekDaySel));
1478:Drivers/STM32U0xx_HAL_Driver/Src/stm32u0xx_hal_rtc.c ****     /* In Binary Mix Mode, the RTC can not generate an alarm on a match involving all calendar item
1479:Drivers/STM32U0xx_HAL_Driver/Src/stm32u0xx_hal_rtc.c ****        the upper SSR bits */
1480:Drivers/STM32U0xx_HAL_Driver/Src/stm32u0xx_hal_rtc.c ****     assert_param((sAlarm->AlarmSubSecondMask >> RTC_ALRMASSR_MASKSS_Pos) <= \
1481:Drivers/STM32U0xx_HAL_Driver/Src/stm32u0xx_hal_rtc.c ****                  (8U + (READ_BIT(RTC->ICSR, RTC_ICSR_BCDU) >> RTC_ICSR_BCDU_Pos)));
1482:Drivers/STM32U0xx_HAL_Driver/Src/stm32u0xx_hal_rtc.c ****   }
1483:Drivers/STM32U0xx_HAL_Driver/Src/stm32u0xx_hal_rtc.c **** #endif /* USE_FULL_ASSERT */
1484:Drivers/STM32U0xx_HAL_Driver/Src/stm32u0xx_hal_rtc.c **** 
1485:Drivers/STM32U0xx_HAL_Driver/Src/stm32u0xx_hal_rtc.c ****   /* Get Binary mode (32-bit free-running counter configuration) */
1486:Drivers/STM32U0xx_HAL_Driver/Src/stm32u0xx_hal_rtc.c ****   binaryMode = READ_BIT(RTC->ICSR, RTC_ICSR_BIN);
1487:Drivers/STM32U0xx_HAL_Driver/Src/stm32u0xx_hal_rtc.c **** 
1488:Drivers/STM32U0xx_HAL_Driver/Src/stm32u0xx_hal_rtc.c ****   if (binaryMode != RTC_BINARY_ONLY)
1489:Drivers/STM32U0xx_HAL_Driver/Src/stm32u0xx_hal_rtc.c ****   {
1490:Drivers/STM32U0xx_HAL_Driver/Src/stm32u0xx_hal_rtc.c ****     if (Format == RTC_FORMAT_BIN)
1491:Drivers/STM32U0xx_HAL_Driver/Src/stm32u0xx_hal_rtc.c ****     {
1492:Drivers/STM32U0xx_HAL_Driver/Src/stm32u0xx_hal_rtc.c ****       if (READ_BIT(RTC->CR, RTC_CR_FMT) != 0U)
1493:Drivers/STM32U0xx_HAL_Driver/Src/stm32u0xx_hal_rtc.c ****       {
1494:Drivers/STM32U0xx_HAL_Driver/Src/stm32u0xx_hal_rtc.c ****         assert_param(IS_RTC_HOUR12(sAlarm->AlarmTime.Hours));
1495:Drivers/STM32U0xx_HAL_Driver/Src/stm32u0xx_hal_rtc.c ****         assert_param(IS_RTC_HOURFORMAT12(sAlarm->AlarmTime.TimeFormat));
1496:Drivers/STM32U0xx_HAL_Driver/Src/stm32u0xx_hal_rtc.c ****       }
1497:Drivers/STM32U0xx_HAL_Driver/Src/stm32u0xx_hal_rtc.c ****       else
1498:Drivers/STM32U0xx_HAL_Driver/Src/stm32u0xx_hal_rtc.c ****       {
1499:Drivers/STM32U0xx_HAL_Driver/Src/stm32u0xx_hal_rtc.c ****         sAlarm->AlarmTime.TimeFormat = 0x00U;
1500:Drivers/STM32U0xx_HAL_Driver/Src/stm32u0xx_hal_rtc.c ****         assert_param(IS_RTC_HOUR24(sAlarm->AlarmTime.Hours));
1501:Drivers/STM32U0xx_HAL_Driver/Src/stm32u0xx_hal_rtc.c ****       }
1502:Drivers/STM32U0xx_HAL_Driver/Src/stm32u0xx_hal_rtc.c ****       assert_param(IS_RTC_MINUTES(sAlarm->AlarmTime.Minutes));
1503:Drivers/STM32U0xx_HAL_Driver/Src/stm32u0xx_hal_rtc.c ****       assert_param(IS_RTC_SECONDS(sAlarm->AlarmTime.Seconds));
1504:Drivers/STM32U0xx_HAL_Driver/Src/stm32u0xx_hal_rtc.c **** 
1505:Drivers/STM32U0xx_HAL_Driver/Src/stm32u0xx_hal_rtc.c ****       if (sAlarm->AlarmDateWeekDaySel == RTC_ALARMDATEWEEKDAYSEL_DATE)
1506:Drivers/STM32U0xx_HAL_Driver/Src/stm32u0xx_hal_rtc.c ****       {
1507:Drivers/STM32U0xx_HAL_Driver/Src/stm32u0xx_hal_rtc.c ****         assert_param(IS_RTC_ALARM_DATE_WEEKDAY_DATE(sAlarm->AlarmDateWeekDay));
1508:Drivers/STM32U0xx_HAL_Driver/Src/stm32u0xx_hal_rtc.c ****       }
1509:Drivers/STM32U0xx_HAL_Driver/Src/stm32u0xx_hal_rtc.c ****       else
ARM GAS  C:\Users\upo\AppData\Local\Temp\ccIlAiYO.s 			page 30


1510:Drivers/STM32U0xx_HAL_Driver/Src/stm32u0xx_hal_rtc.c ****       {
1511:Drivers/STM32U0xx_HAL_Driver/Src/stm32u0xx_hal_rtc.c ****         assert_param(IS_RTC_ALARM_DATE_WEEKDAY_WEEKDAY(sAlarm->AlarmDateWeekDay));
1512:Drivers/STM32U0xx_HAL_Driver/Src/stm32u0xx_hal_rtc.c ****       }
1513:Drivers/STM32U0xx_HAL_Driver/Src/stm32u0xx_hal_rtc.c ****       tmpreg = (((uint32_t)RTC_ByteToBcd2(sAlarm->AlarmTime.Hours) << RTC_ALRMAR_HU_Pos) | \
1514:Drivers/STM32U0xx_HAL_Driver/Src/stm32u0xx_hal_rtc.c ****                 ((uint32_t)RTC_ByteToBcd2(sAlarm->AlarmTime.Minutes) << RTC_ALRMAR_MNU_Pos) | \
1515:Drivers/STM32U0xx_HAL_Driver/Src/stm32u0xx_hal_rtc.c ****                 ((uint32_t)RTC_ByteToBcd2(sAlarm->AlarmTime.Seconds) << RTC_ALRMAR_SU_Pos) | \
1516:Drivers/STM32U0xx_HAL_Driver/Src/stm32u0xx_hal_rtc.c ****                 ((uint32_t)(sAlarm->AlarmTime.TimeFormat) << RTC_ALRMAR_PM_Pos) | \
1517:Drivers/STM32U0xx_HAL_Driver/Src/stm32u0xx_hal_rtc.c ****                 ((uint32_t)RTC_ByteToBcd2(sAlarm->AlarmDateWeekDay) << RTC_ALRMAR_DU_Pos) | \
1518:Drivers/STM32U0xx_HAL_Driver/Src/stm32u0xx_hal_rtc.c ****                 ((uint32_t)sAlarm->AlarmDateWeekDaySel) | \
1519:Drivers/STM32U0xx_HAL_Driver/Src/stm32u0xx_hal_rtc.c ****                 ((uint32_t)sAlarm->AlarmMask));
1520:Drivers/STM32U0xx_HAL_Driver/Src/stm32u0xx_hal_rtc.c ****     }
1521:Drivers/STM32U0xx_HAL_Driver/Src/stm32u0xx_hal_rtc.c ****     else /* Format BCD */
1522:Drivers/STM32U0xx_HAL_Driver/Src/stm32u0xx_hal_rtc.c ****     {
1523:Drivers/STM32U0xx_HAL_Driver/Src/stm32u0xx_hal_rtc.c ****       if (READ_BIT(RTC->CR, RTC_CR_FMT) != 0U)
1524:Drivers/STM32U0xx_HAL_Driver/Src/stm32u0xx_hal_rtc.c ****       {
1525:Drivers/STM32U0xx_HAL_Driver/Src/stm32u0xx_hal_rtc.c ****         assert_param(IS_RTC_HOUR12(RTC_Bcd2ToByte(sAlarm->AlarmTime.Hours)));
1526:Drivers/STM32U0xx_HAL_Driver/Src/stm32u0xx_hal_rtc.c ****         assert_param(IS_RTC_HOURFORMAT12(sAlarm->AlarmTime.TimeFormat));
1527:Drivers/STM32U0xx_HAL_Driver/Src/stm32u0xx_hal_rtc.c ****       }
1528:Drivers/STM32U0xx_HAL_Driver/Src/stm32u0xx_hal_rtc.c ****       else
1529:Drivers/STM32U0xx_HAL_Driver/Src/stm32u0xx_hal_rtc.c ****       {
1530:Drivers/STM32U0xx_HAL_Driver/Src/stm32u0xx_hal_rtc.c ****         sAlarm->AlarmTime.TimeFormat = 0x00U;
1531:Drivers/STM32U0xx_HAL_Driver/Src/stm32u0xx_hal_rtc.c ****         assert_param(IS_RTC_HOUR24(RTC_Bcd2ToByte(sAlarm->AlarmTime.Hours)));
1532:Drivers/STM32U0xx_HAL_Driver/Src/stm32u0xx_hal_rtc.c ****       }
1533:Drivers/STM32U0xx_HAL_Driver/Src/stm32u0xx_hal_rtc.c **** 
1534:Drivers/STM32U0xx_HAL_Driver/Src/stm32u0xx_hal_rtc.c ****       assert_param(IS_RTC_MINUTES(RTC_Bcd2ToByte(sAlarm->AlarmTime.Minutes)));
1535:Drivers/STM32U0xx_HAL_Driver/Src/stm32u0xx_hal_rtc.c ****       assert_param(IS_RTC_SECONDS(RTC_Bcd2ToByte(sAlarm->AlarmTime.Seconds)));
1536:Drivers/STM32U0xx_HAL_Driver/Src/stm32u0xx_hal_rtc.c **** 
1537:Drivers/STM32U0xx_HAL_Driver/Src/stm32u0xx_hal_rtc.c **** #ifdef  USE_FULL_ASSERT
1538:Drivers/STM32U0xx_HAL_Driver/Src/stm32u0xx_hal_rtc.c ****       if (sAlarm->AlarmDateWeekDaySel == RTC_ALARMDATEWEEKDAYSEL_DATE)
1539:Drivers/STM32U0xx_HAL_Driver/Src/stm32u0xx_hal_rtc.c ****       {
1540:Drivers/STM32U0xx_HAL_Driver/Src/stm32u0xx_hal_rtc.c ****         assert_param(IS_RTC_ALARM_DATE_WEEKDAY_DATE(RTC_Bcd2ToByte(sAlarm->AlarmDateWeekDay)));
1541:Drivers/STM32U0xx_HAL_Driver/Src/stm32u0xx_hal_rtc.c ****       }
1542:Drivers/STM32U0xx_HAL_Driver/Src/stm32u0xx_hal_rtc.c ****       else
1543:Drivers/STM32U0xx_HAL_Driver/Src/stm32u0xx_hal_rtc.c ****       {
1544:Drivers/STM32U0xx_HAL_Driver/Src/stm32u0xx_hal_rtc.c ****         assert_param(IS_RTC_ALARM_DATE_WEEKDAY_WEEKDAY(RTC_Bcd2ToByte(sAlarm->AlarmDateWeekDay)));
1545:Drivers/STM32U0xx_HAL_Driver/Src/stm32u0xx_hal_rtc.c ****       }
1546:Drivers/STM32U0xx_HAL_Driver/Src/stm32u0xx_hal_rtc.c **** 
1547:Drivers/STM32U0xx_HAL_Driver/Src/stm32u0xx_hal_rtc.c **** #endif /* USE_FULL_ASSERT */
1548:Drivers/STM32U0xx_HAL_Driver/Src/stm32u0xx_hal_rtc.c ****       tmpreg = (((uint32_t)(sAlarm->AlarmTime.Hours) << RTC_ALRMAR_HU_Pos) | \
1549:Drivers/STM32U0xx_HAL_Driver/Src/stm32u0xx_hal_rtc.c ****                 ((uint32_t)(sAlarm->AlarmTime.Minutes) << RTC_ALRMAR_MNU_Pos) | \
1550:Drivers/STM32U0xx_HAL_Driver/Src/stm32u0xx_hal_rtc.c ****                 ((uint32_t)(sAlarm->AlarmTime.Seconds) << RTC_ALRMAR_SU_Pos) | \
1551:Drivers/STM32U0xx_HAL_Driver/Src/stm32u0xx_hal_rtc.c ****                 ((uint32_t)(sAlarm->AlarmTime.TimeFormat) << RTC_ALRMAR_PM_Pos) | \
1552:Drivers/STM32U0xx_HAL_Driver/Src/stm32u0xx_hal_rtc.c ****                 ((uint32_t)(sAlarm->AlarmDateWeekDay) << RTC_ALRMAR_DU_Pos) | \
1553:Drivers/STM32U0xx_HAL_Driver/Src/stm32u0xx_hal_rtc.c ****                 ((uint32_t)sAlarm->AlarmDateWeekDaySel) | \
1554:Drivers/STM32U0xx_HAL_Driver/Src/stm32u0xx_hal_rtc.c ****                 ((uint32_t)sAlarm->AlarmMask));
1555:Drivers/STM32U0xx_HAL_Driver/Src/stm32u0xx_hal_rtc.c **** 
1556:Drivers/STM32U0xx_HAL_Driver/Src/stm32u0xx_hal_rtc.c ****     }
1557:Drivers/STM32U0xx_HAL_Driver/Src/stm32u0xx_hal_rtc.c ****   }
1558:Drivers/STM32U0xx_HAL_Driver/Src/stm32u0xx_hal_rtc.c **** 
1559:Drivers/STM32U0xx_HAL_Driver/Src/stm32u0xx_hal_rtc.c ****   /* Configure the Alarm registers */
1560:Drivers/STM32U0xx_HAL_Driver/Src/stm32u0xx_hal_rtc.c ****   if (sAlarm->Alarm == RTC_ALARM_A)
1561:Drivers/STM32U0xx_HAL_Driver/Src/stm32u0xx_hal_rtc.c ****   {
1562:Drivers/STM32U0xx_HAL_Driver/Src/stm32u0xx_hal_rtc.c ****     /* Disable the Alarm A interrupt */
1563:Drivers/STM32U0xx_HAL_Driver/Src/stm32u0xx_hal_rtc.c ****     CLEAR_BIT(RTC->CR, RTC_CR_ALRAE | RTC_CR_ALRAIE);
1564:Drivers/STM32U0xx_HAL_Driver/Src/stm32u0xx_hal_rtc.c ****     /* Clear flag alarm A */
1565:Drivers/STM32U0xx_HAL_Driver/Src/stm32u0xx_hal_rtc.c ****     WRITE_REG(RTC->SCR, RTC_SCR_CALRAF);
1566:Drivers/STM32U0xx_HAL_Driver/Src/stm32u0xx_hal_rtc.c **** 
ARM GAS  C:\Users\upo\AppData\Local\Temp\ccIlAiYO.s 			page 31


1567:Drivers/STM32U0xx_HAL_Driver/Src/stm32u0xx_hal_rtc.c ****     if (binaryMode == RTC_BINARY_ONLY)
1568:Drivers/STM32U0xx_HAL_Driver/Src/stm32u0xx_hal_rtc.c ****     {
1569:Drivers/STM32U0xx_HAL_Driver/Src/stm32u0xx_hal_rtc.c ****       RTC->ALRMASSR = sAlarm->AlarmSubSecondMask | sAlarm->BinaryAutoClr;
1570:Drivers/STM32U0xx_HAL_Driver/Src/stm32u0xx_hal_rtc.c ****     }
1571:Drivers/STM32U0xx_HAL_Driver/Src/stm32u0xx_hal_rtc.c ****     else
1572:Drivers/STM32U0xx_HAL_Driver/Src/stm32u0xx_hal_rtc.c ****     {
1573:Drivers/STM32U0xx_HAL_Driver/Src/stm32u0xx_hal_rtc.c ****       WRITE_REG(RTC->ALRMAR, tmpreg);
1574:Drivers/STM32U0xx_HAL_Driver/Src/stm32u0xx_hal_rtc.c ****       WRITE_REG(RTC->ALRMASSR, sAlarm->AlarmSubSecondMask);
1575:Drivers/STM32U0xx_HAL_Driver/Src/stm32u0xx_hal_rtc.c ****     }
1576:Drivers/STM32U0xx_HAL_Driver/Src/stm32u0xx_hal_rtc.c **** 
1577:Drivers/STM32U0xx_HAL_Driver/Src/stm32u0xx_hal_rtc.c ****     WRITE_REG(RTC->ALRABINR, sAlarm->AlarmTime.SubSeconds);
1578:Drivers/STM32U0xx_HAL_Driver/Src/stm32u0xx_hal_rtc.c **** 
1579:Drivers/STM32U0xx_HAL_Driver/Src/stm32u0xx_hal_rtc.c ****     if (sAlarm->FlagAutoClr == ALARM_FLAG_AUTOCLR_ENABLE)
1580:Drivers/STM32U0xx_HAL_Driver/Src/stm32u0xx_hal_rtc.c ****     {
1581:Drivers/STM32U0xx_HAL_Driver/Src/stm32u0xx_hal_rtc.c ****       /* Configure the  Alarm A output clear */
1582:Drivers/STM32U0xx_HAL_Driver/Src/stm32u0xx_hal_rtc.c ****       SET_BIT(RTC->CR, RTC_CR_ALRAFCLR);
1583:Drivers/STM32U0xx_HAL_Driver/Src/stm32u0xx_hal_rtc.c ****     }
1584:Drivers/STM32U0xx_HAL_Driver/Src/stm32u0xx_hal_rtc.c ****     else
1585:Drivers/STM32U0xx_HAL_Driver/Src/stm32u0xx_hal_rtc.c ****     {
1586:Drivers/STM32U0xx_HAL_Driver/Src/stm32u0xx_hal_rtc.c ****       /* Disable the  Alarm A output clear*/
1587:Drivers/STM32U0xx_HAL_Driver/Src/stm32u0xx_hal_rtc.c ****       CLEAR_BIT(RTC->CR, RTC_CR_ALRAFCLR);
1588:Drivers/STM32U0xx_HAL_Driver/Src/stm32u0xx_hal_rtc.c ****     }
1589:Drivers/STM32U0xx_HAL_Driver/Src/stm32u0xx_hal_rtc.c **** 
1590:Drivers/STM32U0xx_HAL_Driver/Src/stm32u0xx_hal_rtc.c ****     /* Configure the Alarm interrupt */
1591:Drivers/STM32U0xx_HAL_Driver/Src/stm32u0xx_hal_rtc.c ****     SET_BIT(RTC->CR, RTC_CR_ALRAE | RTC_CR_ALRAIE);
1592:Drivers/STM32U0xx_HAL_Driver/Src/stm32u0xx_hal_rtc.c ****   }
1593:Drivers/STM32U0xx_HAL_Driver/Src/stm32u0xx_hal_rtc.c ****   else
1594:Drivers/STM32U0xx_HAL_Driver/Src/stm32u0xx_hal_rtc.c ****   {
1595:Drivers/STM32U0xx_HAL_Driver/Src/stm32u0xx_hal_rtc.c ****     /* Disable the Alarm B interrupt */
1596:Drivers/STM32U0xx_HAL_Driver/Src/stm32u0xx_hal_rtc.c ****     CLEAR_BIT(RTC->CR, RTC_CR_ALRBE | RTC_CR_ALRBIE);
1597:Drivers/STM32U0xx_HAL_Driver/Src/stm32u0xx_hal_rtc.c ****     /* Clear flag alarm B */
1598:Drivers/STM32U0xx_HAL_Driver/Src/stm32u0xx_hal_rtc.c ****     WRITE_REG(RTC->SCR, RTC_SCR_CALRBF);
1599:Drivers/STM32U0xx_HAL_Driver/Src/stm32u0xx_hal_rtc.c **** 
1600:Drivers/STM32U0xx_HAL_Driver/Src/stm32u0xx_hal_rtc.c ****     if (binaryMode == RTC_BINARY_ONLY)
1601:Drivers/STM32U0xx_HAL_Driver/Src/stm32u0xx_hal_rtc.c ****     {
1602:Drivers/STM32U0xx_HAL_Driver/Src/stm32u0xx_hal_rtc.c ****       WRITE_REG(RTC->ALRMBSSR, sAlarm->AlarmSubSecondMask | sAlarm->BinaryAutoClr);
1603:Drivers/STM32U0xx_HAL_Driver/Src/stm32u0xx_hal_rtc.c ****     }
1604:Drivers/STM32U0xx_HAL_Driver/Src/stm32u0xx_hal_rtc.c ****     else
1605:Drivers/STM32U0xx_HAL_Driver/Src/stm32u0xx_hal_rtc.c ****     {
1606:Drivers/STM32U0xx_HAL_Driver/Src/stm32u0xx_hal_rtc.c ****       WRITE_REG(RTC->ALRMBR, tmpreg);
1607:Drivers/STM32U0xx_HAL_Driver/Src/stm32u0xx_hal_rtc.c ****       WRITE_REG(RTC->ALRMBSSR, sAlarm->AlarmSubSecondMask);
1608:Drivers/STM32U0xx_HAL_Driver/Src/stm32u0xx_hal_rtc.c ****     }
1609:Drivers/STM32U0xx_HAL_Driver/Src/stm32u0xx_hal_rtc.c **** 
1610:Drivers/STM32U0xx_HAL_Driver/Src/stm32u0xx_hal_rtc.c ****     WRITE_REG(RTC->ALRBBINR, sAlarm->AlarmTime.SubSeconds);
1611:Drivers/STM32U0xx_HAL_Driver/Src/stm32u0xx_hal_rtc.c **** 
1612:Drivers/STM32U0xx_HAL_Driver/Src/stm32u0xx_hal_rtc.c ****     if (sAlarm->FlagAutoClr == ALARM_FLAG_AUTOCLR_ENABLE)
1613:Drivers/STM32U0xx_HAL_Driver/Src/stm32u0xx_hal_rtc.c ****     {
1614:Drivers/STM32U0xx_HAL_Driver/Src/stm32u0xx_hal_rtc.c ****       /* Configure the  Alarm B Output clear */
1615:Drivers/STM32U0xx_HAL_Driver/Src/stm32u0xx_hal_rtc.c ****       SET_BIT(RTC->CR, RTC_CR_ALRBFCLR);
1616:Drivers/STM32U0xx_HAL_Driver/Src/stm32u0xx_hal_rtc.c **** 
1617:Drivers/STM32U0xx_HAL_Driver/Src/stm32u0xx_hal_rtc.c ****     }
1618:Drivers/STM32U0xx_HAL_Driver/Src/stm32u0xx_hal_rtc.c ****     else
1619:Drivers/STM32U0xx_HAL_Driver/Src/stm32u0xx_hal_rtc.c ****     {
1620:Drivers/STM32U0xx_HAL_Driver/Src/stm32u0xx_hal_rtc.c ****       /* Disable the  Alarm B Output clear */
1621:Drivers/STM32U0xx_HAL_Driver/Src/stm32u0xx_hal_rtc.c ****       CLEAR_BIT(RTC->CR, RTC_CR_ALRBFCLR);
1622:Drivers/STM32U0xx_HAL_Driver/Src/stm32u0xx_hal_rtc.c ****     }
1623:Drivers/STM32U0xx_HAL_Driver/Src/stm32u0xx_hal_rtc.c **** 
ARM GAS  C:\Users\upo\AppData\Local\Temp\ccIlAiYO.s 			page 32


1624:Drivers/STM32U0xx_HAL_Driver/Src/stm32u0xx_hal_rtc.c ****     /* Configure the Alarm interrupt */
1625:Drivers/STM32U0xx_HAL_Driver/Src/stm32u0xx_hal_rtc.c ****     SET_BIT(RTC->CR, RTC_CR_ALRBE | RTC_CR_ALRBIE);
1626:Drivers/STM32U0xx_HAL_Driver/Src/stm32u0xx_hal_rtc.c ****   }
1627:Drivers/STM32U0xx_HAL_Driver/Src/stm32u0xx_hal_rtc.c **** 
1628:Drivers/STM32U0xx_HAL_Driver/Src/stm32u0xx_hal_rtc.c ****   hrtc->State = HAL_RTC_STATE_READY;
1629:Drivers/STM32U0xx_HAL_Driver/Src/stm32u0xx_hal_rtc.c **** 
1630:Drivers/STM32U0xx_HAL_Driver/Src/stm32u0xx_hal_rtc.c ****   /* Process Unlocked */
1631:Drivers/STM32U0xx_HAL_Driver/Src/stm32u0xx_hal_rtc.c ****   __HAL_UNLOCK(hrtc);
1632:Drivers/STM32U0xx_HAL_Driver/Src/stm32u0xx_hal_rtc.c **** 
1633:Drivers/STM32U0xx_HAL_Driver/Src/stm32u0xx_hal_rtc.c ****   return HAL_OK;
1634:Drivers/STM32U0xx_HAL_Driver/Src/stm32u0xx_hal_rtc.c **** }
1635:Drivers/STM32U0xx_HAL_Driver/Src/stm32u0xx_hal_rtc.c **** 
1636:Drivers/STM32U0xx_HAL_Driver/Src/stm32u0xx_hal_rtc.c **** /**
1637:Drivers/STM32U0xx_HAL_Driver/Src/stm32u0xx_hal_rtc.c ****   * @brief  Deactivate the specified RTC Alarm.
1638:Drivers/STM32U0xx_HAL_Driver/Src/stm32u0xx_hal_rtc.c ****   * @param  hrtc RTC handle
1639:Drivers/STM32U0xx_HAL_Driver/Src/stm32u0xx_hal_rtc.c ****   * @param  Alarm Specifies the Alarm.
1640:Drivers/STM32U0xx_HAL_Driver/Src/stm32u0xx_hal_rtc.c ****   *          This parameter can be one of the following values:
1641:Drivers/STM32U0xx_HAL_Driver/Src/stm32u0xx_hal_rtc.c ****   *            @arg RTC_ALARM_A:  AlarmA
1642:Drivers/STM32U0xx_HAL_Driver/Src/stm32u0xx_hal_rtc.c ****   *            @arg RTC_ALARM_B:  AlarmB
1643:Drivers/STM32U0xx_HAL_Driver/Src/stm32u0xx_hal_rtc.c ****   * @retval HAL status
1644:Drivers/STM32U0xx_HAL_Driver/Src/stm32u0xx_hal_rtc.c ****   */
1645:Drivers/STM32U0xx_HAL_Driver/Src/stm32u0xx_hal_rtc.c **** HAL_StatusTypeDef HAL_RTC_DeactivateAlarm(RTC_HandleTypeDef *hrtc, uint32_t Alarm)
1646:Drivers/STM32U0xx_HAL_Driver/Src/stm32u0xx_hal_rtc.c **** {
1647:Drivers/STM32U0xx_HAL_Driver/Src/stm32u0xx_hal_rtc.c ****   /* Check the parameters */
1648:Drivers/STM32U0xx_HAL_Driver/Src/stm32u0xx_hal_rtc.c ****   assert_param(IS_RTC_ALARM(Alarm));
1649:Drivers/STM32U0xx_HAL_Driver/Src/stm32u0xx_hal_rtc.c **** 
1650:Drivers/STM32U0xx_HAL_Driver/Src/stm32u0xx_hal_rtc.c ****   /* Process Locked */
1651:Drivers/STM32U0xx_HAL_Driver/Src/stm32u0xx_hal_rtc.c ****   __HAL_LOCK(hrtc);
1652:Drivers/STM32U0xx_HAL_Driver/Src/stm32u0xx_hal_rtc.c **** 
1653:Drivers/STM32U0xx_HAL_Driver/Src/stm32u0xx_hal_rtc.c ****   hrtc->State = HAL_RTC_STATE_BUSY;
1654:Drivers/STM32U0xx_HAL_Driver/Src/stm32u0xx_hal_rtc.c **** 
1655:Drivers/STM32U0xx_HAL_Driver/Src/stm32u0xx_hal_rtc.c ****   /* In case of interrupt mode is used, the interrupt source must disabled */
1656:Drivers/STM32U0xx_HAL_Driver/Src/stm32u0xx_hal_rtc.c ****   if (Alarm == RTC_ALARM_A)
1657:Drivers/STM32U0xx_HAL_Driver/Src/stm32u0xx_hal_rtc.c ****   {
1658:Drivers/STM32U0xx_HAL_Driver/Src/stm32u0xx_hal_rtc.c ****     CLEAR_BIT(RTC->CR, RTC_CR_ALRAE | RTC_CR_ALRAIE);
1659:Drivers/STM32U0xx_HAL_Driver/Src/stm32u0xx_hal_rtc.c ****     CLEAR_BIT(RTC->ALRMASSR, RTC_ALRMASSR_SSCLR);
1660:Drivers/STM32U0xx_HAL_Driver/Src/stm32u0xx_hal_rtc.c ****   }
1661:Drivers/STM32U0xx_HAL_Driver/Src/stm32u0xx_hal_rtc.c ****   else
1662:Drivers/STM32U0xx_HAL_Driver/Src/stm32u0xx_hal_rtc.c ****   {
1663:Drivers/STM32U0xx_HAL_Driver/Src/stm32u0xx_hal_rtc.c ****     CLEAR_BIT(RTC->CR, RTC_CR_ALRBE | RTC_CR_ALRBIE);
1664:Drivers/STM32U0xx_HAL_Driver/Src/stm32u0xx_hal_rtc.c ****     CLEAR_BIT(RTC->ALRMBSSR, RTC_ALRMBSSR_SSCLR);
1665:Drivers/STM32U0xx_HAL_Driver/Src/stm32u0xx_hal_rtc.c ****   }
1666:Drivers/STM32U0xx_HAL_Driver/Src/stm32u0xx_hal_rtc.c **** 
1667:Drivers/STM32U0xx_HAL_Driver/Src/stm32u0xx_hal_rtc.c ****   hrtc->State = HAL_RTC_STATE_READY;
1668:Drivers/STM32U0xx_HAL_Driver/Src/stm32u0xx_hal_rtc.c **** 
1669:Drivers/STM32U0xx_HAL_Driver/Src/stm32u0xx_hal_rtc.c ****   /* Process Unlocked */
1670:Drivers/STM32U0xx_HAL_Driver/Src/stm32u0xx_hal_rtc.c ****   __HAL_UNLOCK(hrtc);
1671:Drivers/STM32U0xx_HAL_Driver/Src/stm32u0xx_hal_rtc.c **** 
1672:Drivers/STM32U0xx_HAL_Driver/Src/stm32u0xx_hal_rtc.c ****   return HAL_OK;
1673:Drivers/STM32U0xx_HAL_Driver/Src/stm32u0xx_hal_rtc.c **** }
1674:Drivers/STM32U0xx_HAL_Driver/Src/stm32u0xx_hal_rtc.c **** 
1675:Drivers/STM32U0xx_HAL_Driver/Src/stm32u0xx_hal_rtc.c **** /**
1676:Drivers/STM32U0xx_HAL_Driver/Src/stm32u0xx_hal_rtc.c ****   * @brief  Get the RTC Alarm value and masks.
1677:Drivers/STM32U0xx_HAL_Driver/Src/stm32u0xx_hal_rtc.c ****   * @param  hrtc RTC handle
1678:Drivers/STM32U0xx_HAL_Driver/Src/stm32u0xx_hal_rtc.c ****   * @param  sAlarm Pointer to Date structure
1679:Drivers/STM32U0xx_HAL_Driver/Src/stm32u0xx_hal_rtc.c ****   * @param  Alarm Specifies the Alarm.
1680:Drivers/STM32U0xx_HAL_Driver/Src/stm32u0xx_hal_rtc.c ****   *          This parameter can be one of the following values:
ARM GAS  C:\Users\upo\AppData\Local\Temp\ccIlAiYO.s 			page 33


1681:Drivers/STM32U0xx_HAL_Driver/Src/stm32u0xx_hal_rtc.c ****   *             @arg RTC_ALARM_A: AlarmA
1682:Drivers/STM32U0xx_HAL_Driver/Src/stm32u0xx_hal_rtc.c ****   *             @arg RTC_ALARM_B: AlarmB
1683:Drivers/STM32U0xx_HAL_Driver/Src/stm32u0xx_hal_rtc.c ****   * @param  Format Specifies the format of the entered parameters.
1684:Drivers/STM32U0xx_HAL_Driver/Src/stm32u0xx_hal_rtc.c ****   *          This parameter can be one of the following values:
1685:Drivers/STM32U0xx_HAL_Driver/Src/stm32u0xx_hal_rtc.c ****   *             @arg RTC_FORMAT_BIN: Binary format
1686:Drivers/STM32U0xx_HAL_Driver/Src/stm32u0xx_hal_rtc.c ****   *             @arg RTC_FORMAT_BCD: BCD format
1687:Drivers/STM32U0xx_HAL_Driver/Src/stm32u0xx_hal_rtc.c ****   * @retval HAL status
1688:Drivers/STM32U0xx_HAL_Driver/Src/stm32u0xx_hal_rtc.c ****   */
1689:Drivers/STM32U0xx_HAL_Driver/Src/stm32u0xx_hal_rtc.c **** HAL_StatusTypeDef HAL_RTC_GetAlarm(const RTC_HandleTypeDef *hrtc, RTC_AlarmTypeDef *sAlarm, uint32_
1690:Drivers/STM32U0xx_HAL_Driver/Src/stm32u0xx_hal_rtc.c ****                                    uint32_t Format)
1691:Drivers/STM32U0xx_HAL_Driver/Src/stm32u0xx_hal_rtc.c **** {
1692:Drivers/STM32U0xx_HAL_Driver/Src/stm32u0xx_hal_rtc.c ****   uint32_t tmpreg;
1693:Drivers/STM32U0xx_HAL_Driver/Src/stm32u0xx_hal_rtc.c ****   uint32_t subsecondtmpreg;
1694:Drivers/STM32U0xx_HAL_Driver/Src/stm32u0xx_hal_rtc.c **** 
1695:Drivers/STM32U0xx_HAL_Driver/Src/stm32u0xx_hal_rtc.c ****   UNUSED(hrtc);
1696:Drivers/STM32U0xx_HAL_Driver/Src/stm32u0xx_hal_rtc.c ****   /* Check the parameters */
1697:Drivers/STM32U0xx_HAL_Driver/Src/stm32u0xx_hal_rtc.c ****   assert_param(IS_RTC_FORMAT(Format));
1698:Drivers/STM32U0xx_HAL_Driver/Src/stm32u0xx_hal_rtc.c ****   assert_param(IS_RTC_ALARM(Alarm));
1699:Drivers/STM32U0xx_HAL_Driver/Src/stm32u0xx_hal_rtc.c **** 
1700:Drivers/STM32U0xx_HAL_Driver/Src/stm32u0xx_hal_rtc.c ****   if (Alarm == RTC_ALARM_A)
1701:Drivers/STM32U0xx_HAL_Driver/Src/stm32u0xx_hal_rtc.c ****   {
1702:Drivers/STM32U0xx_HAL_Driver/Src/stm32u0xx_hal_rtc.c ****     /* AlarmA */
1703:Drivers/STM32U0xx_HAL_Driver/Src/stm32u0xx_hal_rtc.c ****     sAlarm->Alarm = RTC_ALARM_A;
1704:Drivers/STM32U0xx_HAL_Driver/Src/stm32u0xx_hal_rtc.c **** 
1705:Drivers/STM32U0xx_HAL_Driver/Src/stm32u0xx_hal_rtc.c ****     tmpreg = READ_REG(RTC->ALRMAR);
1706:Drivers/STM32U0xx_HAL_Driver/Src/stm32u0xx_hal_rtc.c ****     subsecondtmpreg = (uint32_t)(READ_REG(RTC->ALRMASSR) & RTC_ALRMASSR_SS);
1707:Drivers/STM32U0xx_HAL_Driver/Src/stm32u0xx_hal_rtc.c **** 
1708:Drivers/STM32U0xx_HAL_Driver/Src/stm32u0xx_hal_rtc.c ****     /* Fill the structure with the read parameters */
1709:Drivers/STM32U0xx_HAL_Driver/Src/stm32u0xx_hal_rtc.c ****     sAlarm->AlarmTime.Hours = (uint8_t)((tmpreg & (RTC_ALRMAR_HT | RTC_ALRMAR_HU)) >> RTC_ALRMAR_HU
1710:Drivers/STM32U0xx_HAL_Driver/Src/stm32u0xx_hal_rtc.c ****     sAlarm->AlarmTime.Minutes = (uint8_t)((tmpreg & (RTC_ALRMAR_MNT | RTC_ALRMAR_MNU)) >> RTC_ALRMA
1711:Drivers/STM32U0xx_HAL_Driver/Src/stm32u0xx_hal_rtc.c ****     sAlarm->AlarmTime.Seconds = (uint8_t)((tmpreg & (RTC_ALRMAR_ST | RTC_ALRMAR_SU)) >> RTC_ALRMAR_
1712:Drivers/STM32U0xx_HAL_Driver/Src/stm32u0xx_hal_rtc.c ****     sAlarm->AlarmTime.TimeFormat = (uint8_t)((tmpreg & RTC_ALRMAR_PM) >> RTC_ALRMAR_PM_Pos);
1713:Drivers/STM32U0xx_HAL_Driver/Src/stm32u0xx_hal_rtc.c ****     sAlarm->AlarmTime.SubSeconds = (uint32_t) subsecondtmpreg;
1714:Drivers/STM32U0xx_HAL_Driver/Src/stm32u0xx_hal_rtc.c ****     sAlarm->AlarmDateWeekDay = (uint8_t)((tmpreg & (RTC_ALRMAR_DT | RTC_ALRMAR_DU)) >> RTC_ALRMAR_D
1715:Drivers/STM32U0xx_HAL_Driver/Src/stm32u0xx_hal_rtc.c ****     sAlarm->AlarmDateWeekDaySel = (uint32_t)(tmpreg & RTC_ALRMAR_WDSEL);
1716:Drivers/STM32U0xx_HAL_Driver/Src/stm32u0xx_hal_rtc.c ****     sAlarm->AlarmMask = (uint32_t)(tmpreg & RTC_ALARMMASK_ALL);
1717:Drivers/STM32U0xx_HAL_Driver/Src/stm32u0xx_hal_rtc.c ****   }
1718:Drivers/STM32U0xx_HAL_Driver/Src/stm32u0xx_hal_rtc.c ****   else
1719:Drivers/STM32U0xx_HAL_Driver/Src/stm32u0xx_hal_rtc.c ****   {
1720:Drivers/STM32U0xx_HAL_Driver/Src/stm32u0xx_hal_rtc.c ****     sAlarm->Alarm = RTC_ALARM_B;
1721:Drivers/STM32U0xx_HAL_Driver/Src/stm32u0xx_hal_rtc.c **** 
1722:Drivers/STM32U0xx_HAL_Driver/Src/stm32u0xx_hal_rtc.c ****     tmpreg = READ_REG(RTC->ALRMBR);
1723:Drivers/STM32U0xx_HAL_Driver/Src/stm32u0xx_hal_rtc.c ****     subsecondtmpreg = (uint32_t)(READ_REG(RTC->ALRMBSSR) & RTC_ALRMBSSR_SS);
1724:Drivers/STM32U0xx_HAL_Driver/Src/stm32u0xx_hal_rtc.c **** 
1725:Drivers/STM32U0xx_HAL_Driver/Src/stm32u0xx_hal_rtc.c ****     /* Fill the structure with the read parameters */
1726:Drivers/STM32U0xx_HAL_Driver/Src/stm32u0xx_hal_rtc.c ****     sAlarm->AlarmTime.Hours = (uint8_t)((tmpreg & (RTC_ALRMBR_HT | RTC_ALRMBR_HU)) >> RTC_ALRMBR_HU
1727:Drivers/STM32U0xx_HAL_Driver/Src/stm32u0xx_hal_rtc.c ****     sAlarm->AlarmTime.Minutes = (uint8_t)((tmpreg & (RTC_ALRMBR_MNT | RTC_ALRMBR_MNU)) >> RTC_ALRMB
1728:Drivers/STM32U0xx_HAL_Driver/Src/stm32u0xx_hal_rtc.c ****     sAlarm->AlarmTime.Seconds = (uint8_t)((tmpreg & (RTC_ALRMBR_ST | RTC_ALRMBR_SU)) >> RTC_ALRMBR_
1729:Drivers/STM32U0xx_HAL_Driver/Src/stm32u0xx_hal_rtc.c ****     sAlarm->AlarmTime.TimeFormat = (uint8_t)((tmpreg & RTC_ALRMBR_PM) >> RTC_ALRMBR_PM_Pos);
1730:Drivers/STM32U0xx_HAL_Driver/Src/stm32u0xx_hal_rtc.c ****     sAlarm->AlarmTime.SubSeconds = (uint32_t) subsecondtmpreg;
1731:Drivers/STM32U0xx_HAL_Driver/Src/stm32u0xx_hal_rtc.c ****     sAlarm->AlarmDateWeekDay = (uint8_t)((tmpreg & (RTC_ALRMBR_DT | RTC_ALRMBR_DU)) >> RTC_ALRMBR_D
1732:Drivers/STM32U0xx_HAL_Driver/Src/stm32u0xx_hal_rtc.c ****     sAlarm->AlarmDateWeekDaySel = (uint32_t)(tmpreg & RTC_ALRMBR_WDSEL);
1733:Drivers/STM32U0xx_HAL_Driver/Src/stm32u0xx_hal_rtc.c ****     sAlarm->AlarmMask = (uint32_t)(tmpreg & RTC_ALARMMASK_ALL);
1734:Drivers/STM32U0xx_HAL_Driver/Src/stm32u0xx_hal_rtc.c ****   }
1735:Drivers/STM32U0xx_HAL_Driver/Src/stm32u0xx_hal_rtc.c **** 
1736:Drivers/STM32U0xx_HAL_Driver/Src/stm32u0xx_hal_rtc.c ****   if (Format == RTC_FORMAT_BIN)
1737:Drivers/STM32U0xx_HAL_Driver/Src/stm32u0xx_hal_rtc.c ****   {
ARM GAS  C:\Users\upo\AppData\Local\Temp\ccIlAiYO.s 			page 34


1738:Drivers/STM32U0xx_HAL_Driver/Src/stm32u0xx_hal_rtc.c ****     sAlarm->AlarmTime.Hours = RTC_Bcd2ToByte(sAlarm->AlarmTime.Hours);
1739:Drivers/STM32U0xx_HAL_Driver/Src/stm32u0xx_hal_rtc.c ****     sAlarm->AlarmTime.Minutes = RTC_Bcd2ToByte(sAlarm->AlarmTime.Minutes);
1740:Drivers/STM32U0xx_HAL_Driver/Src/stm32u0xx_hal_rtc.c ****     sAlarm->AlarmTime.Seconds = RTC_Bcd2ToByte(sAlarm->AlarmTime.Seconds);
1741:Drivers/STM32U0xx_HAL_Driver/Src/stm32u0xx_hal_rtc.c ****     sAlarm->AlarmDateWeekDay = RTC_Bcd2ToByte(sAlarm->AlarmDateWeekDay);
1742:Drivers/STM32U0xx_HAL_Driver/Src/stm32u0xx_hal_rtc.c ****   }
1743:Drivers/STM32U0xx_HAL_Driver/Src/stm32u0xx_hal_rtc.c **** 
1744:Drivers/STM32U0xx_HAL_Driver/Src/stm32u0xx_hal_rtc.c ****   return HAL_OK;
1745:Drivers/STM32U0xx_HAL_Driver/Src/stm32u0xx_hal_rtc.c **** }
1746:Drivers/STM32U0xx_HAL_Driver/Src/stm32u0xx_hal_rtc.c **** 
1747:Drivers/STM32U0xx_HAL_Driver/Src/stm32u0xx_hal_rtc.c **** /**
1748:Drivers/STM32U0xx_HAL_Driver/Src/stm32u0xx_hal_rtc.c ****   * @brief  Handle Alarm interrupt request.
1749:Drivers/STM32U0xx_HAL_Driver/Src/stm32u0xx_hal_rtc.c ****   * @param  hrtc RTC handle
1750:Drivers/STM32U0xx_HAL_Driver/Src/stm32u0xx_hal_rtc.c ****   * @retval None
1751:Drivers/STM32U0xx_HAL_Driver/Src/stm32u0xx_hal_rtc.c ****   */
1752:Drivers/STM32U0xx_HAL_Driver/Src/stm32u0xx_hal_rtc.c **** void HAL_RTC_AlarmIRQHandler(RTC_HandleTypeDef *hrtc)
1753:Drivers/STM32U0xx_HAL_Driver/Src/stm32u0xx_hal_rtc.c **** {
1754:Drivers/STM32U0xx_HAL_Driver/Src/stm32u0xx_hal_rtc.c ****   /* Get interrupt status */
1755:Drivers/STM32U0xx_HAL_Driver/Src/stm32u0xx_hal_rtc.c ****   uint32_t tmp = READ_REG(RTC->MISR);
1756:Drivers/STM32U0xx_HAL_Driver/Src/stm32u0xx_hal_rtc.c **** 
1757:Drivers/STM32U0xx_HAL_Driver/Src/stm32u0xx_hal_rtc.c ****   if ((tmp & RTC_MISR_ALRAMF) != 0U)
1758:Drivers/STM32U0xx_HAL_Driver/Src/stm32u0xx_hal_rtc.c ****   {
1759:Drivers/STM32U0xx_HAL_Driver/Src/stm32u0xx_hal_rtc.c ****     /* Clear the AlarmA interrupt pending bit */
1760:Drivers/STM32U0xx_HAL_Driver/Src/stm32u0xx_hal_rtc.c ****     WRITE_REG(RTC->SCR, RTC_SCR_CALRAF);
1761:Drivers/STM32U0xx_HAL_Driver/Src/stm32u0xx_hal_rtc.c **** 
1762:Drivers/STM32U0xx_HAL_Driver/Src/stm32u0xx_hal_rtc.c **** #if (USE_HAL_RTC_REGISTER_CALLBACKS == 1)
1763:Drivers/STM32U0xx_HAL_Driver/Src/stm32u0xx_hal_rtc.c ****     /* Call Compare Match registered Callback */
1764:Drivers/STM32U0xx_HAL_Driver/Src/stm32u0xx_hal_rtc.c ****     hrtc->AlarmAEventCallback(hrtc);
1765:Drivers/STM32U0xx_HAL_Driver/Src/stm32u0xx_hal_rtc.c **** #else
1766:Drivers/STM32U0xx_HAL_Driver/Src/stm32u0xx_hal_rtc.c ****     HAL_RTC_AlarmAEventCallback(hrtc);
1767:Drivers/STM32U0xx_HAL_Driver/Src/stm32u0xx_hal_rtc.c **** #endif /* USE_HAL_RTC_REGISTER_CALLBACKS */
1768:Drivers/STM32U0xx_HAL_Driver/Src/stm32u0xx_hal_rtc.c ****   }
1769:Drivers/STM32U0xx_HAL_Driver/Src/stm32u0xx_hal_rtc.c **** 
1770:Drivers/STM32U0xx_HAL_Driver/Src/stm32u0xx_hal_rtc.c ****   if ((tmp & RTC_MISR_ALRBMF) != 0U)
1771:Drivers/STM32U0xx_HAL_Driver/Src/stm32u0xx_hal_rtc.c ****   {
1772:Drivers/STM32U0xx_HAL_Driver/Src/stm32u0xx_hal_rtc.c ****     /* Clear the AlarmB interrupt pending bit */
1773:Drivers/STM32U0xx_HAL_Driver/Src/stm32u0xx_hal_rtc.c ****     WRITE_REG(RTC->SCR, RTC_SCR_CALRBF);
1774:Drivers/STM32U0xx_HAL_Driver/Src/stm32u0xx_hal_rtc.c **** 
1775:Drivers/STM32U0xx_HAL_Driver/Src/stm32u0xx_hal_rtc.c **** #if (USE_HAL_RTC_REGISTER_CALLBACKS == 1)
1776:Drivers/STM32U0xx_HAL_Driver/Src/stm32u0xx_hal_rtc.c ****     /* Call Compare Match registered Callback */
1777:Drivers/STM32U0xx_HAL_Driver/Src/stm32u0xx_hal_rtc.c ****     hrtc->AlarmBEventCallback(hrtc);
1778:Drivers/STM32U0xx_HAL_Driver/Src/stm32u0xx_hal_rtc.c **** #else
1779:Drivers/STM32U0xx_HAL_Driver/Src/stm32u0xx_hal_rtc.c ****     HAL_RTCEx_AlarmBEventCallback(hrtc);
1780:Drivers/STM32U0xx_HAL_Driver/Src/stm32u0xx_hal_rtc.c **** #endif /* USE_HAL_RTC_REGISTER_CALLBACKS */
1781:Drivers/STM32U0xx_HAL_Driver/Src/stm32u0xx_hal_rtc.c ****   }
1782:Drivers/STM32U0xx_HAL_Driver/Src/stm32u0xx_hal_rtc.c **** 
1783:Drivers/STM32U0xx_HAL_Driver/Src/stm32u0xx_hal_rtc.c ****   /* Change RTC state */
1784:Drivers/STM32U0xx_HAL_Driver/Src/stm32u0xx_hal_rtc.c ****   hrtc->State = HAL_RTC_STATE_READY;
1785:Drivers/STM32U0xx_HAL_Driver/Src/stm32u0xx_hal_rtc.c **** }
1786:Drivers/STM32U0xx_HAL_Driver/Src/stm32u0xx_hal_rtc.c **** 
1787:Drivers/STM32U0xx_HAL_Driver/Src/stm32u0xx_hal_rtc.c **** /**
1788:Drivers/STM32U0xx_HAL_Driver/Src/stm32u0xx_hal_rtc.c ****   * @brief  Alarm A callback.
1789:Drivers/STM32U0xx_HAL_Driver/Src/stm32u0xx_hal_rtc.c ****   * @param  hrtc RTC handle
1790:Drivers/STM32U0xx_HAL_Driver/Src/stm32u0xx_hal_rtc.c ****   * @retval None
1791:Drivers/STM32U0xx_HAL_Driver/Src/stm32u0xx_hal_rtc.c ****   */
1792:Drivers/STM32U0xx_HAL_Driver/Src/stm32u0xx_hal_rtc.c **** __weak void HAL_RTC_AlarmAEventCallback(RTC_HandleTypeDef *hrtc)
1793:Drivers/STM32U0xx_HAL_Driver/Src/stm32u0xx_hal_rtc.c **** {
1794:Drivers/STM32U0xx_HAL_Driver/Src/stm32u0xx_hal_rtc.c ****   /* Prevent unused argument(s) compilation warning */
ARM GAS  C:\Users\upo\AppData\Local\Temp\ccIlAiYO.s 			page 35


1795:Drivers/STM32U0xx_HAL_Driver/Src/stm32u0xx_hal_rtc.c ****   UNUSED(hrtc);
1796:Drivers/STM32U0xx_HAL_Driver/Src/stm32u0xx_hal_rtc.c **** 
1797:Drivers/STM32U0xx_HAL_Driver/Src/stm32u0xx_hal_rtc.c ****   /* NOTE : This function should not be modified, when the callback is needed,
1798:Drivers/STM32U0xx_HAL_Driver/Src/stm32u0xx_hal_rtc.c ****             the HAL_RTC_AlarmAEventCallback could be implemented in the user file
1799:Drivers/STM32U0xx_HAL_Driver/Src/stm32u0xx_hal_rtc.c ****    */
1800:Drivers/STM32U0xx_HAL_Driver/Src/stm32u0xx_hal_rtc.c **** }
1801:Drivers/STM32U0xx_HAL_Driver/Src/stm32u0xx_hal_rtc.c **** 
1802:Drivers/STM32U0xx_HAL_Driver/Src/stm32u0xx_hal_rtc.c **** /**
1803:Drivers/STM32U0xx_HAL_Driver/Src/stm32u0xx_hal_rtc.c ****   * @brief  Handle AlarmA Polling request.
1804:Drivers/STM32U0xx_HAL_Driver/Src/stm32u0xx_hal_rtc.c ****   * @param  hrtc RTC handle
1805:Drivers/STM32U0xx_HAL_Driver/Src/stm32u0xx_hal_rtc.c ****   * @param  Timeout Timeout duration
1806:Drivers/STM32U0xx_HAL_Driver/Src/stm32u0xx_hal_rtc.c ****   * @retval HAL status
1807:Drivers/STM32U0xx_HAL_Driver/Src/stm32u0xx_hal_rtc.c ****   */
1808:Drivers/STM32U0xx_HAL_Driver/Src/stm32u0xx_hal_rtc.c **** HAL_StatusTypeDef HAL_RTC_PollForAlarmAEvent(RTC_HandleTypeDef *hrtc, uint32_t Timeout)
1809:Drivers/STM32U0xx_HAL_Driver/Src/stm32u0xx_hal_rtc.c **** {
1810:Drivers/STM32U0xx_HAL_Driver/Src/stm32u0xx_hal_rtc.c ****   uint32_t tickstart = HAL_GetTick();
1811:Drivers/STM32U0xx_HAL_Driver/Src/stm32u0xx_hal_rtc.c **** 
1812:Drivers/STM32U0xx_HAL_Driver/Src/stm32u0xx_hal_rtc.c ****   while (READ_BIT(RTC->SR, RTC_SR_ALRAF) == 0U)
1813:Drivers/STM32U0xx_HAL_Driver/Src/stm32u0xx_hal_rtc.c ****   {
1814:Drivers/STM32U0xx_HAL_Driver/Src/stm32u0xx_hal_rtc.c ****     if (Timeout != HAL_MAX_DELAY)
1815:Drivers/STM32U0xx_HAL_Driver/Src/stm32u0xx_hal_rtc.c ****     {
1816:Drivers/STM32U0xx_HAL_Driver/Src/stm32u0xx_hal_rtc.c ****       if (((HAL_GetTick() - tickstart) > Timeout) || (Timeout == 0U))
1817:Drivers/STM32U0xx_HAL_Driver/Src/stm32u0xx_hal_rtc.c ****       {
1818:Drivers/STM32U0xx_HAL_Driver/Src/stm32u0xx_hal_rtc.c ****         hrtc->State = HAL_RTC_STATE_TIMEOUT;
1819:Drivers/STM32U0xx_HAL_Driver/Src/stm32u0xx_hal_rtc.c ****         return HAL_TIMEOUT;
1820:Drivers/STM32U0xx_HAL_Driver/Src/stm32u0xx_hal_rtc.c ****       }
1821:Drivers/STM32U0xx_HAL_Driver/Src/stm32u0xx_hal_rtc.c ****     }
1822:Drivers/STM32U0xx_HAL_Driver/Src/stm32u0xx_hal_rtc.c ****   }
1823:Drivers/STM32U0xx_HAL_Driver/Src/stm32u0xx_hal_rtc.c **** 
1824:Drivers/STM32U0xx_HAL_Driver/Src/stm32u0xx_hal_rtc.c ****   /* Clear the Alarm interrupt pending bit */
1825:Drivers/STM32U0xx_HAL_Driver/Src/stm32u0xx_hal_rtc.c ****   WRITE_REG(RTC->SCR, RTC_SCR_CALRAF);
1826:Drivers/STM32U0xx_HAL_Driver/Src/stm32u0xx_hal_rtc.c **** 
1827:Drivers/STM32U0xx_HAL_Driver/Src/stm32u0xx_hal_rtc.c ****   /* Change RTC state */
1828:Drivers/STM32U0xx_HAL_Driver/Src/stm32u0xx_hal_rtc.c ****   hrtc->State = HAL_RTC_STATE_READY;
1829:Drivers/STM32U0xx_HAL_Driver/Src/stm32u0xx_hal_rtc.c **** 
1830:Drivers/STM32U0xx_HAL_Driver/Src/stm32u0xx_hal_rtc.c ****   return HAL_OK;
1831:Drivers/STM32U0xx_HAL_Driver/Src/stm32u0xx_hal_rtc.c **** }
1832:Drivers/STM32U0xx_HAL_Driver/Src/stm32u0xx_hal_rtc.c **** 
1833:Drivers/STM32U0xx_HAL_Driver/Src/stm32u0xx_hal_rtc.c **** /**
1834:Drivers/STM32U0xx_HAL_Driver/Src/stm32u0xx_hal_rtc.c ****   * @}
1835:Drivers/STM32U0xx_HAL_Driver/Src/stm32u0xx_hal_rtc.c ****   */
1836:Drivers/STM32U0xx_HAL_Driver/Src/stm32u0xx_hal_rtc.c **** 
1837:Drivers/STM32U0xx_HAL_Driver/Src/stm32u0xx_hal_rtc.c **** /** @addtogroup RTC_Exported_Functions_Group4
1838:Drivers/STM32U0xx_HAL_Driver/Src/stm32u0xx_hal_rtc.c ****   * @brief      Peripheral Control functions
1839:Drivers/STM32U0xx_HAL_Driver/Src/stm32u0xx_hal_rtc.c ****   *
1840:Drivers/STM32U0xx_HAL_Driver/Src/stm32u0xx_hal_rtc.c **** @verbatim
1841:Drivers/STM32U0xx_HAL_Driver/Src/stm32u0xx_hal_rtc.c ****  ===============================================================================
1842:Drivers/STM32U0xx_HAL_Driver/Src/stm32u0xx_hal_rtc.c ****                      ##### Peripheral Control functions #####
1843:Drivers/STM32U0xx_HAL_Driver/Src/stm32u0xx_hal_rtc.c ****  ===============================================================================
1844:Drivers/STM32U0xx_HAL_Driver/Src/stm32u0xx_hal_rtc.c ****     [..]
1845:Drivers/STM32U0xx_HAL_Driver/Src/stm32u0xx_hal_rtc.c ****     This subsection provides functions allowing to
1846:Drivers/STM32U0xx_HAL_Driver/Src/stm32u0xx_hal_rtc.c ****       (+) Wait for RTC Time and Date Synchronization
1847:Drivers/STM32U0xx_HAL_Driver/Src/stm32u0xx_hal_rtc.c **** 
1848:Drivers/STM32U0xx_HAL_Driver/Src/stm32u0xx_hal_rtc.c **** @endverbatim
1849:Drivers/STM32U0xx_HAL_Driver/Src/stm32u0xx_hal_rtc.c ****   * @{
1850:Drivers/STM32U0xx_HAL_Driver/Src/stm32u0xx_hal_rtc.c ****   */
1851:Drivers/STM32U0xx_HAL_Driver/Src/stm32u0xx_hal_rtc.c **** 
ARM GAS  C:\Users\upo\AppData\Local\Temp\ccIlAiYO.s 			page 36


1852:Drivers/STM32U0xx_HAL_Driver/Src/stm32u0xx_hal_rtc.c **** /**
1853:Drivers/STM32U0xx_HAL_Driver/Src/stm32u0xx_hal_rtc.c ****   * @brief  Wait until the RTC Time and Date registers (RTC_TR and RTC_DR) are
1854:Drivers/STM32U0xx_HAL_Driver/Src/stm32u0xx_hal_rtc.c ****   *         synchronized with RTC APB clock.
1855:Drivers/STM32U0xx_HAL_Driver/Src/stm32u0xx_hal_rtc.c ****   * @note   The RTC Resynchronization mode is write protected, use the
1856:Drivers/STM32U0xx_HAL_Driver/Src/stm32u0xx_hal_rtc.c ****   *         __HAL_RTC_WRITEPROTECTION_DISABLE() before calling this function.
1857:Drivers/STM32U0xx_HAL_Driver/Src/stm32u0xx_hal_rtc.c ****   * @note   To read the calendar through the shadow registers after Calendar
1858:Drivers/STM32U0xx_HAL_Driver/Src/stm32u0xx_hal_rtc.c ****   *         initialization, calendar update or after wakeup from low power modes
1859:Drivers/STM32U0xx_HAL_Driver/Src/stm32u0xx_hal_rtc.c ****   *         the software must first clear the RSF flag.
1860:Drivers/STM32U0xx_HAL_Driver/Src/stm32u0xx_hal_rtc.c ****   *         The software must then wait until it is set again before reading
1861:Drivers/STM32U0xx_HAL_Driver/Src/stm32u0xx_hal_rtc.c ****   *         the calendar, which means that the calendar registers have been
1862:Drivers/STM32U0xx_HAL_Driver/Src/stm32u0xx_hal_rtc.c ****   *         correctly copied into the RTC_TR and RTC_DR shadow registers.
1863:Drivers/STM32U0xx_HAL_Driver/Src/stm32u0xx_hal_rtc.c ****   * @param  hrtc RTC handle
1864:Drivers/STM32U0xx_HAL_Driver/Src/stm32u0xx_hal_rtc.c ****   * @retval HAL status
1865:Drivers/STM32U0xx_HAL_Driver/Src/stm32u0xx_hal_rtc.c ****   */
1866:Drivers/STM32U0xx_HAL_Driver/Src/stm32u0xx_hal_rtc.c **** HAL_StatusTypeDef HAL_RTC_WaitForSynchro(const RTC_HandleTypeDef *hrtc)
1867:Drivers/STM32U0xx_HAL_Driver/Src/stm32u0xx_hal_rtc.c **** {
1868:Drivers/STM32U0xx_HAL_Driver/Src/stm32u0xx_hal_rtc.c ****   uint32_t tickstart;
1869:Drivers/STM32U0xx_HAL_Driver/Src/stm32u0xx_hal_rtc.c **** 
1870:Drivers/STM32U0xx_HAL_Driver/Src/stm32u0xx_hal_rtc.c ****   UNUSED(hrtc);
1871:Drivers/STM32U0xx_HAL_Driver/Src/stm32u0xx_hal_rtc.c ****   /* Clear RSF flag */
1872:Drivers/STM32U0xx_HAL_Driver/Src/stm32u0xx_hal_rtc.c ****   CLEAR_BIT(RTC->ICSR, RTC_ICSR_RSF);
1873:Drivers/STM32U0xx_HAL_Driver/Src/stm32u0xx_hal_rtc.c **** 
1874:Drivers/STM32U0xx_HAL_Driver/Src/stm32u0xx_hal_rtc.c ****   tickstart = HAL_GetTick();
1875:Drivers/STM32U0xx_HAL_Driver/Src/stm32u0xx_hal_rtc.c **** 
1876:Drivers/STM32U0xx_HAL_Driver/Src/stm32u0xx_hal_rtc.c ****   /* Wait the registers to be synchronised */
1877:Drivers/STM32U0xx_HAL_Driver/Src/stm32u0xx_hal_rtc.c ****   while (READ_BIT(RTC->ICSR, RTC_ICSR_RSF) == 0U)
1878:Drivers/STM32U0xx_HAL_Driver/Src/stm32u0xx_hal_rtc.c ****   {
1879:Drivers/STM32U0xx_HAL_Driver/Src/stm32u0xx_hal_rtc.c ****     if ((HAL_GetTick() - tickstart) > RTC_TIMEOUT_VALUE)
1880:Drivers/STM32U0xx_HAL_Driver/Src/stm32u0xx_hal_rtc.c ****     {
1881:Drivers/STM32U0xx_HAL_Driver/Src/stm32u0xx_hal_rtc.c ****       return HAL_TIMEOUT;
1882:Drivers/STM32U0xx_HAL_Driver/Src/stm32u0xx_hal_rtc.c ****     }
1883:Drivers/STM32U0xx_HAL_Driver/Src/stm32u0xx_hal_rtc.c ****   }
1884:Drivers/STM32U0xx_HAL_Driver/Src/stm32u0xx_hal_rtc.c **** 
1885:Drivers/STM32U0xx_HAL_Driver/Src/stm32u0xx_hal_rtc.c ****   return HAL_OK;
1886:Drivers/STM32U0xx_HAL_Driver/Src/stm32u0xx_hal_rtc.c **** }
1887:Drivers/STM32U0xx_HAL_Driver/Src/stm32u0xx_hal_rtc.c **** 
1888:Drivers/STM32U0xx_HAL_Driver/Src/stm32u0xx_hal_rtc.c **** /**
1889:Drivers/STM32U0xx_HAL_Driver/Src/stm32u0xx_hal_rtc.c ****   * @}
1890:Drivers/STM32U0xx_HAL_Driver/Src/stm32u0xx_hal_rtc.c ****   */
1891:Drivers/STM32U0xx_HAL_Driver/Src/stm32u0xx_hal_rtc.c **** 
1892:Drivers/STM32U0xx_HAL_Driver/Src/stm32u0xx_hal_rtc.c **** /** @addtogroup RTC_Exported_Functions_Group5
1893:Drivers/STM32U0xx_HAL_Driver/Src/stm32u0xx_hal_rtc.c ****   * @brief      Peripheral State functions
1894:Drivers/STM32U0xx_HAL_Driver/Src/stm32u0xx_hal_rtc.c ****   *
1895:Drivers/STM32U0xx_HAL_Driver/Src/stm32u0xx_hal_rtc.c **** @verbatim
1896:Drivers/STM32U0xx_HAL_Driver/Src/stm32u0xx_hal_rtc.c ****  ===============================================================================
1897:Drivers/STM32U0xx_HAL_Driver/Src/stm32u0xx_hal_rtc.c ****                      ##### Peripheral State functions #####
1898:Drivers/STM32U0xx_HAL_Driver/Src/stm32u0xx_hal_rtc.c ****  ===============================================================================
1899:Drivers/STM32U0xx_HAL_Driver/Src/stm32u0xx_hal_rtc.c ****     [..]
1900:Drivers/STM32U0xx_HAL_Driver/Src/stm32u0xx_hal_rtc.c ****     This subsection provides functions allowing to
1901:Drivers/STM32U0xx_HAL_Driver/Src/stm32u0xx_hal_rtc.c ****       (+) Get RTC state
1902:Drivers/STM32U0xx_HAL_Driver/Src/stm32u0xx_hal_rtc.c **** 
1903:Drivers/STM32U0xx_HAL_Driver/Src/stm32u0xx_hal_rtc.c **** @endverbatim
1904:Drivers/STM32U0xx_HAL_Driver/Src/stm32u0xx_hal_rtc.c ****   * @{
1905:Drivers/STM32U0xx_HAL_Driver/Src/stm32u0xx_hal_rtc.c ****   */
1906:Drivers/STM32U0xx_HAL_Driver/Src/stm32u0xx_hal_rtc.c **** /**
1907:Drivers/STM32U0xx_HAL_Driver/Src/stm32u0xx_hal_rtc.c ****   * @brief  Return the RTC handle state.
1908:Drivers/STM32U0xx_HAL_Driver/Src/stm32u0xx_hal_rtc.c ****   * @param  hrtc RTC handle
ARM GAS  C:\Users\upo\AppData\Local\Temp\ccIlAiYO.s 			page 37


1909:Drivers/STM32U0xx_HAL_Driver/Src/stm32u0xx_hal_rtc.c ****   * @retval HAL state
1910:Drivers/STM32U0xx_HAL_Driver/Src/stm32u0xx_hal_rtc.c ****   */
1911:Drivers/STM32U0xx_HAL_Driver/Src/stm32u0xx_hal_rtc.c **** HAL_RTCStateTypeDef HAL_RTC_GetState(const RTC_HandleTypeDef *hrtc)
1912:Drivers/STM32U0xx_HAL_Driver/Src/stm32u0xx_hal_rtc.c **** {
1913:Drivers/STM32U0xx_HAL_Driver/Src/stm32u0xx_hal_rtc.c ****   /* Return RTC handle state */
1914:Drivers/STM32U0xx_HAL_Driver/Src/stm32u0xx_hal_rtc.c ****   return hrtc->State;
1915:Drivers/STM32U0xx_HAL_Driver/Src/stm32u0xx_hal_rtc.c **** }
1916:Drivers/STM32U0xx_HAL_Driver/Src/stm32u0xx_hal_rtc.c **** 
1917:Drivers/STM32U0xx_HAL_Driver/Src/stm32u0xx_hal_rtc.c **** /**
1918:Drivers/STM32U0xx_HAL_Driver/Src/stm32u0xx_hal_rtc.c ****   * @}
1919:Drivers/STM32U0xx_HAL_Driver/Src/stm32u0xx_hal_rtc.c ****   */
1920:Drivers/STM32U0xx_HAL_Driver/Src/stm32u0xx_hal_rtc.c **** /**
1921:Drivers/STM32U0xx_HAL_Driver/Src/stm32u0xx_hal_rtc.c ****   * @}
1922:Drivers/STM32U0xx_HAL_Driver/Src/stm32u0xx_hal_rtc.c ****   */
1923:Drivers/STM32U0xx_HAL_Driver/Src/stm32u0xx_hal_rtc.c **** 
1924:Drivers/STM32U0xx_HAL_Driver/Src/stm32u0xx_hal_rtc.c **** /** @addtogroup RTC_Private_Functions
1925:Drivers/STM32U0xx_HAL_Driver/Src/stm32u0xx_hal_rtc.c ****   * @{
1926:Drivers/STM32U0xx_HAL_Driver/Src/stm32u0xx_hal_rtc.c ****   */
1927:Drivers/STM32U0xx_HAL_Driver/Src/stm32u0xx_hal_rtc.c **** /**
1928:Drivers/STM32U0xx_HAL_Driver/Src/stm32u0xx_hal_rtc.c ****   * @brief  Enter the RTC Initialization mode.
1929:Drivers/STM32U0xx_HAL_Driver/Src/stm32u0xx_hal_rtc.c ****   * @note   The RTC Initialization mode is write protected, use the
1930:Drivers/STM32U0xx_HAL_Driver/Src/stm32u0xx_hal_rtc.c ****   *         __HAL_RTC_WRITEPROTECTION_DISABLE() before calling this function.
1931:Drivers/STM32U0xx_HAL_Driver/Src/stm32u0xx_hal_rtc.c ****   * @param  hrtc RTC handle
1932:Drivers/STM32U0xx_HAL_Driver/Src/stm32u0xx_hal_rtc.c ****   * @retval HAL status
1933:Drivers/STM32U0xx_HAL_Driver/Src/stm32u0xx_hal_rtc.c ****   */
1934:Drivers/STM32U0xx_HAL_Driver/Src/stm32u0xx_hal_rtc.c **** HAL_StatusTypeDef RTC_EnterInitMode(const RTC_HandleTypeDef *hrtc)
 119              		.loc 1 1934 19 view .LVU32
 120              	.LBB55:
1935:Drivers/STM32U0xx_HAL_Driver/Src/stm32u0xx_hal_rtc.c **** {
1936:Drivers/STM32U0xx_HAL_Driver/Src/stm32u0xx_hal_rtc.c ****   uint32_t tickstart;
 121              		.loc 1 1936 3 view .LVU33
1937:Drivers/STM32U0xx_HAL_Driver/Src/stm32u0xx_hal_rtc.c **** 
1938:Drivers/STM32U0xx_HAL_Driver/Src/stm32u0xx_hal_rtc.c ****   UNUSED(hrtc);
 122              		.loc 1 1938 3 view .LVU34
1939:Drivers/STM32U0xx_HAL_Driver/Src/stm32u0xx_hal_rtc.c ****   /* Check if the Initialization mode is set */
1940:Drivers/STM32U0xx_HAL_Driver/Src/stm32u0xx_hal_rtc.c ****   if (READ_BIT(RTC->ICSR, RTC_ICSR_INITF) == 0U)
 123              		.loc 1 1940 3 view .LVU35
 124              		.loc 1 1940 7 is_stmt 0 view .LVU36
 125 0026 EB68     		ldr	r3, [r5, #12]
 126              		.loc 1 1940 6 view .LVU37
 127 0028 5B06     		lsls	r3, r3, #25
 128 002a 35D5     		bpl	.L21
 129              	.L6:
 130              	.LVL5:
 131              		.loc 1 1940 6 view .LVU38
 132              	.LBE55:
 133              	.LBE54:
 335:Drivers/STM32U0xx_HAL_Driver/Src/stm32u0xx_hal_rtc.c ****       /* Set RTC_CR register */
 134              		.loc 1 335 7 is_stmt 1 view .LVU39
 135 002c 354D     		ldr	r5, .L23
 136 002e 364A     		ldr	r2, .L23+4
 137 0030 AB69     		ldr	r3, [r5, #24]
 138 0032 1340     		ands	r3, r2
 139 0034 AB61     		str	r3, [r5, #24]
 337:Drivers/STM32U0xx_HAL_Driver/Src/stm32u0xx_hal_rtc.c **** 
 140              		.loc 1 337 7 view .LVU40
 141 0036 2169     		ldr	r1, [r4, #16]
ARM GAS  C:\Users\upo\AppData\Local\Temp\ccIlAiYO.s 			page 38


 142 0038 6368     		ldr	r3, [r4, #4]
 143 003a AA69     		ldr	r2, [r5, #24]
 144 003c 0B43     		orrs	r3, r1
 145 003e 1343     		orrs	r3, r2
 146 0040 A269     		ldr	r2, [r4, #24]
 147 0042 1343     		orrs	r3, r2
 148 0044 AB61     		str	r3, [r5, #24]
 340:Drivers/STM32U0xx_HAL_Driver/Src/stm32u0xx_hal_rtc.c **** 
 149              		.loc 1 340 7 view .LVU41
 150 0046 A368     		ldr	r3, [r4, #8]
 151 0048 E268     		ldr	r2, [r4, #12]
 152 004a 1B04     		lsls	r3, r3, #16
 153 004c 1343     		orrs	r3, r2
 154 004e 2B61     		str	r3, [r5, #16]
 343:Drivers/STM32U0xx_HAL_Driver/Src/stm32u0xx_hal_rtc.c **** 
 155              		.loc 1 343 7 view .LVU42
 156 0050 A16A     		ldr	r1, [r4, #40]
 157 0052 636A     		ldr	r3, [r4, #36]
 158 0054 EA68     		ldr	r2, [r5, #12]
 159 0056 0B43     		orrs	r3, r1
 160 0058 2C49     		ldr	r1, .L23+8
 161 005a 0A40     		ands	r2, r1
 162 005c 1343     		orrs	r3, r2
 346:Drivers/STM32U0xx_HAL_Driver/Src/stm32u0xx_hal_rtc.c **** 
 163              		.loc 1 346 7 is_stmt 0 view .LVU43
 164 005e 8022     		movs	r2, #128
 343:Drivers/STM32U0xx_HAL_Driver/Src/stm32u0xx_hal_rtc.c **** 
 165              		.loc 1 343 7 view .LVU44
 166 0060 EB60     		str	r3, [r5, #12]
 346:Drivers/STM32U0xx_HAL_Driver/Src/stm32u0xx_hal_rtc.c **** 
 167              		.loc 1 346 7 is_stmt 1 view .LVU45
 168 0062 EB68     		ldr	r3, [r5, #12]
 169 0064 9343     		bics	r3, r2
 170 0066 EB60     		str	r3, [r5, #12]
 349:Drivers/STM32U0xx_HAL_Driver/Src/stm32u0xx_hal_rtc.c ****       {
 171              		.loc 1 349 7 view .LVU46
 349:Drivers/STM32U0xx_HAL_Driver/Src/stm32u0xx_hal_rtc.c ****       {
 172              		.loc 1 349 11 is_stmt 0 view .LVU47
 173 0068 2023     		movs	r3, #32
 174 006a AA69     		ldr	r2, [r5, #24]
 349:Drivers/STM32U0xx_HAL_Driver/Src/stm32u0xx_hal_rtc.c ****       {
 175              		.loc 1 349 10 view .LVU48
 176 006c 1342     		tst	r3, r2
 177 006e 34D0     		beq	.L22
 178              	.L11:
 179              	.LVL6:
 363:Drivers/STM32U0xx_HAL_Driver/Src/stm32u0xx_hal_rtc.c ****                    RTC_CR_TAMPALRM_PU | RTC_CR_TAMPALRM_TYPE | RTC_CR_OUT2EN, \
 180              		.loc 1 363 9 is_stmt 1 view .LVU49
 181 0070 2449     		ldr	r1, .L23
 182 0072 E069     		ldr	r0, [r4, #28]
 183 0074 8A69     		ldr	r2, [r1, #24]
 184 0076 236A     		ldr	r3, [r4, #32]
 185 0078 D200     		lsls	r2, r2, #3
 186 007a 0343     		orrs	r3, r0
 187 007c D208     		lsrs	r2, r2, #3
 188 007e 1343     		orrs	r3, r2
 189 0080 6269     		ldr	r2, [r4, #20]
ARM GAS  C:\Users\upo\AppData\Local\Temp\ccIlAiYO.s 			page 39


 371:Drivers/STM32U0xx_HAL_Driver/Src/stm32u0xx_hal_rtc.c ****       }
 190              		.loc 1 371 21 is_stmt 0 view .LVU50
 191 0082 0020     		movs	r0, #0
 363:Drivers/STM32U0xx_HAL_Driver/Src/stm32u0xx_hal_rtc.c ****                    RTC_CR_TAMPALRM_PU | RTC_CR_TAMPALRM_TYPE | RTC_CR_OUT2EN, \
 192              		.loc 1 363 9 view .LVU51
 193 0084 1343     		orrs	r3, r2
 194 0086 8B61     		str	r3, [r1, #24]
 368:Drivers/STM32U0xx_HAL_Driver/Src/stm32u0xx_hal_rtc.c **** 
 195              		.loc 1 368 9 is_stmt 1 view .LVU52
 368:Drivers/STM32U0xx_HAL_Driver/Src/stm32u0xx_hal_rtc.c **** 
 196              		.loc 1 368 9 view .LVU53
 197 0088 FF23     		movs	r3, #255
 371:Drivers/STM32U0xx_HAL_Driver/Src/stm32u0xx_hal_rtc.c ****       }
 198              		.loc 1 371 21 is_stmt 0 view .LVU54
 199 008a 0122     		movs	r2, #1
 368:Drivers/STM32U0xx_HAL_Driver/Src/stm32u0xx_hal_rtc.c **** 
 200              		.loc 1 368 9 view .LVU55
 201 008c 4B62     		str	r3, [r1, #36]
 368:Drivers/STM32U0xx_HAL_Driver/Src/stm32u0xx_hal_rtc.c **** 
 202              		.loc 1 368 9 is_stmt 1 view .LVU56
 371:Drivers/STM32U0xx_HAL_Driver/Src/stm32u0xx_hal_rtc.c ****       }
 203              		.loc 1 371 9 view .LVU57
 204              	.LVL7:
 376:Drivers/STM32U0xx_HAL_Driver/Src/stm32u0xx_hal_rtc.c **** }
 205              		.loc 1 376 3 view .LVU58
 371:Drivers/STM32U0xx_HAL_Driver/Src/stm32u0xx_hal_rtc.c ****       }
 206              		.loc 1 371 21 is_stmt 0 view .LVU59
 207 008e D23B     		subs	r3, r3, #210
 208 0090 E254     		strb	r2, [r4, r3]
 209              	.LVL8:
 210              	.L18:
 377:Drivers/STM32U0xx_HAL_Driver/Src/stm32u0xx_hal_rtc.c **** 
 211              		.loc 1 377 1 view .LVU60
 212              		@ sp needed
 213              	.LVL9:
 377:Drivers/STM32U0xx_HAL_Driver/Src/stm32u0xx_hal_rtc.c **** 
 214              		.loc 1 377 1 view .LVU61
 215 0092 80BC     		pop	{r7}
 216 0094 B846     		mov	r8, r7
 217 0096 F0BD     		pop	{r4, r5, r6, r7, pc}
 218              	.LVL10:
 219              	.L21:
 220              	.LBB57:
 221              	.LBB56:
1941:Drivers/STM32U0xx_HAL_Driver/Src/stm32u0xx_hal_rtc.c ****   {
1942:Drivers/STM32U0xx_HAL_Driver/Src/stm32u0xx_hal_rtc.c ****     /* Set the Initialization mode */
1943:Drivers/STM32U0xx_HAL_Driver/Src/stm32u0xx_hal_rtc.c ****     SET_BIT(RTC->ICSR, RTC_ICSR_INIT);
 222              		.loc 1 1943 5 is_stmt 1 view .LVU62
 223 0098 EB68     		ldr	r3, [r5, #12]
 224 009a 7E32     		adds	r2, r2, #126
 225 009c 1343     		orrs	r3, r2
 226 009e EB60     		str	r3, [r5, #12]
1944:Drivers/STM32U0xx_HAL_Driver/Src/stm32u0xx_hal_rtc.c **** 
1945:Drivers/STM32U0xx_HAL_Driver/Src/stm32u0xx_hal_rtc.c ****     tickstart = HAL_GetTick();
 227              		.loc 1 1945 5 view .LVU63
 228              		.loc 1 1945 17 is_stmt 0 view .LVU64
 229 00a0 FFF7FEFF 		bl	HAL_GetTick
ARM GAS  C:\Users\upo\AppData\Local\Temp\ccIlAiYO.s 			page 40


 230              	.LVL11:
1946:Drivers/STM32U0xx_HAL_Driver/Src/stm32u0xx_hal_rtc.c ****     /* Wait till RTC is in INIT state and if Time out is reached exit */
1947:Drivers/STM32U0xx_HAL_Driver/Src/stm32u0xx_hal_rtc.c ****     while (READ_BIT(RTC->ICSR, RTC_ICSR_INITF) == 0U)
1948:Drivers/STM32U0xx_HAL_Driver/Src/stm32u0xx_hal_rtc.c ****     {
1949:Drivers/STM32U0xx_HAL_Driver/Src/stm32u0xx_hal_rtc.c ****       if ((HAL_GetTick()  - tickstart) > RTC_TIMEOUT_VALUE)
 231              		.loc 1 1949 10 view .LVU65
 232 00a4 FA23     		movs	r3, #250
 233 00a6 9B00     		lsls	r3, r3, #2
1945:Drivers/STM32U0xx_HAL_Driver/Src/stm32u0xx_hal_rtc.c ****     /* Wait till RTC is in INIT state and if Time out is reached exit */
 234              		.loc 1 1945 17 view .LVU66
 235 00a8 0600     		movs	r6, r0
 236              	.LVL12:
1947:Drivers/STM32U0xx_HAL_Driver/Src/stm32u0xx_hal_rtc.c ****     {
 237              		.loc 1 1947 5 is_stmt 1 view .LVU67
1947:Drivers/STM32U0xx_HAL_Driver/Src/stm32u0xx_hal_rtc.c ****     {
 238              		.loc 1 1947 12 is_stmt 0 view .LVU68
 239 00aa 4027     		movs	r7, #64
 240              		.loc 1 1949 10 view .LVU69
 241 00ac 9846     		mov	r8, r3
1947:Drivers/STM32U0xx_HAL_Driver/Src/stm32u0xx_hal_rtc.c ****     {
 242              		.loc 1 1947 11 view .LVU70
 243 00ae 04E0     		b	.L7
 244              	.LVL13:
 245              	.L9:
 246              		.loc 1 1949 7 is_stmt 1 view .LVU71
 247              		.loc 1 1949 12 is_stmt 0 view .LVU72
 248 00b0 FFF7FEFF 		bl	HAL_GetTick
 249              	.LVL14:
 250              		.loc 1 1949 27 view .LVU73
 251 00b4 801B     		subs	r0, r0, r6
 252              		.loc 1 1949 10 view .LVU74
 253 00b6 4045     		cmp	r0, r8
 254 00b8 08D8     		bhi	.L8
 255              	.L7:
1947:Drivers/STM32U0xx_HAL_Driver/Src/stm32u0xx_hal_rtc.c ****     {
 256              		.loc 1 1947 48 is_stmt 1 view .LVU75
1947:Drivers/STM32U0xx_HAL_Driver/Src/stm32u0xx_hal_rtc.c ****     {
 257              		.loc 1 1947 12 is_stmt 0 view .LVU76
 258 00ba EB68     		ldr	r3, [r5, #12]
1947:Drivers/STM32U0xx_HAL_Driver/Src/stm32u0xx_hal_rtc.c ****     {
 259              		.loc 1 1947 48 view .LVU77
 260 00bc 1F42     		tst	r7, r3
 261 00be F7D0     		beq	.L9
 262 00c0 B4E7     		b	.L6
 263              	.LVL15:
 264              	.L20:
1947:Drivers/STM32U0xx_HAL_Driver/Src/stm32u0xx_hal_rtc.c ****     {
 265              		.loc 1 1947 48 view .LVU78
 266              	.LBE56:
 267              	.LBE57:
 308:Drivers/STM32U0xx_HAL_Driver/Src/stm32u0xx_hal_rtc.c **** 
 268              		.loc 1 308 7 is_stmt 1 view .LVU79
 308:Drivers/STM32U0xx_HAL_Driver/Src/stm32u0xx_hal_rtc.c **** 
 269              		.loc 1 308 18 is_stmt 0 view .LVU80
 270 00c2 2C33     		adds	r3, r3, #44
 271 00c4 C254     		strb	r2, [r0, r3]
 311:Drivers/STM32U0xx_HAL_Driver/Src/stm32u0xx_hal_rtc.c ****     }
ARM GAS  C:\Users\upo\AppData\Local\Temp\ccIlAiYO.s 			page 41


 272              		.loc 1 311 7 is_stmt 1 view .LVU81
 273 00c6 FFF7FEFF 		bl	HAL_RTC_MspInit
 274              	.LVL16:
 311:Drivers/STM32U0xx_HAL_Driver/Src/stm32u0xx_hal_rtc.c ****     }
 275              		.loc 1 311 7 is_stmt 0 view .LVU82
 276 00ca A4E7     		b	.L5
 277              	.L8:
 325:Drivers/STM32U0xx_HAL_Driver/Src/stm32u0xx_hal_rtc.c **** 
 278              		.loc 1 325 7 is_stmt 1 view .LVU83
 325:Drivers/STM32U0xx_HAL_Driver/Src/stm32u0xx_hal_rtc.c **** 
 279              		.loc 1 325 7 view .LVU84
 280 00cc FF23     		movs	r3, #255
 328:Drivers/STM32U0xx_HAL_Driver/Src/stm32u0xx_hal_rtc.c **** 
 281              		.loc 1 328 19 is_stmt 0 view .LVU85
 282 00ce 0422     		movs	r2, #4
 325:Drivers/STM32U0xx_HAL_Driver/Src/stm32u0xx_hal_rtc.c **** 
 283              		.loc 1 325 7 view .LVU86
 284 00d0 6B62     		str	r3, [r5, #36]
 325:Drivers/STM32U0xx_HAL_Driver/Src/stm32u0xx_hal_rtc.c **** 
 285              		.loc 1 325 7 is_stmt 1 view .LVU87
 328:Drivers/STM32U0xx_HAL_Driver/Src/stm32u0xx_hal_rtc.c **** 
 286              		.loc 1 328 7 view .LVU88
 328:Drivers/STM32U0xx_HAL_Driver/Src/stm32u0xx_hal_rtc.c **** 
 287              		.loc 1 328 19 is_stmt 0 view .LVU89
 288 00d2 D23B     		subs	r3, r3, #210
 289 00d4 E254     		strb	r2, [r4, r3]
 330:Drivers/STM32U0xx_HAL_Driver/Src/stm32u0xx_hal_rtc.c ****     }
 290              		.loc 1 330 7 is_stmt 1 view .LVU90
 291              	.LVL17:
 292              	.L4:
 247:Drivers/STM32U0xx_HAL_Driver/Src/stm32u0xx_hal_rtc.c **** 
 293              		.loc 1 247 21 is_stmt 0 view .LVU91
 294 00d6 0120     		movs	r0, #1
 295 00d8 DBE7     		b	.L18
 296              	.LVL18:
 297              	.L22:
 351:Drivers/STM32U0xx_HAL_Driver/Src/stm32u0xx_hal_rtc.c ****         {
 298              		.loc 1 351 9 is_stmt 1 view .LVU92
 299              	.LBB58:
 300              	.LBI58:
1866:Drivers/STM32U0xx_HAL_Driver/Src/stm32u0xx_hal_rtc.c **** {
 301              		.loc 1 1866 19 view .LVU93
 302              	.LBB59:
1868:Drivers/STM32U0xx_HAL_Driver/Src/stm32u0xx_hal_rtc.c **** 
 303              		.loc 1 1868 3 view .LVU94
1870:Drivers/STM32U0xx_HAL_Driver/Src/stm32u0xx_hal_rtc.c ****   /* Clear RSF flag */
 304              		.loc 1 1870 3 view .LVU95
1872:Drivers/STM32U0xx_HAL_Driver/Src/stm32u0xx_hal_rtc.c **** 
 305              		.loc 1 1872 3 view .LVU96
 306 00da EA68     		ldr	r2, [r5, #12]
1877:Drivers/STM32U0xx_HAL_Driver/Src/stm32u0xx_hal_rtc.c ****   {
 307              		.loc 1 1877 10 is_stmt 0 view .LVU97
 308 00dc 2027     		movs	r7, #32
1872:Drivers/STM32U0xx_HAL_Driver/Src/stm32u0xx_hal_rtc.c **** 
 309              		.loc 1 1872 3 view .LVU98
 310 00de 9A43     		bics	r2, r3
 311 00e0 EA60     		str	r2, [r5, #12]
ARM GAS  C:\Users\upo\AppData\Local\Temp\ccIlAiYO.s 			page 42


1874:Drivers/STM32U0xx_HAL_Driver/Src/stm32u0xx_hal_rtc.c **** 
 312              		.loc 1 1874 3 is_stmt 1 view .LVU99
1874:Drivers/STM32U0xx_HAL_Driver/Src/stm32u0xx_hal_rtc.c **** 
 313              		.loc 1 1874 15 is_stmt 0 view .LVU100
 314 00e2 FFF7FEFF 		bl	HAL_GetTick
 315              	.LVL19:
1879:Drivers/STM32U0xx_HAL_Driver/Src/stm32u0xx_hal_rtc.c ****     {
 316              		.loc 1 1879 8 view .LVU101
 317 00e6 FA23     		movs	r3, #250
 318 00e8 9B00     		lsls	r3, r3, #2
1874:Drivers/STM32U0xx_HAL_Driver/Src/stm32u0xx_hal_rtc.c **** 
 319              		.loc 1 1874 15 view .LVU102
 320 00ea 0600     		movs	r6, r0
 321              	.LVL20:
1877:Drivers/STM32U0xx_HAL_Driver/Src/stm32u0xx_hal_rtc.c ****   {
 322              		.loc 1 1877 3 is_stmt 1 view .LVU103
1879:Drivers/STM32U0xx_HAL_Driver/Src/stm32u0xx_hal_rtc.c ****     {
 323              		.loc 1 1879 8 is_stmt 0 view .LVU104
 324 00ec 9846     		mov	r8, r3
1877:Drivers/STM32U0xx_HAL_Driver/Src/stm32u0xx_hal_rtc.c ****   {
 325              		.loc 1 1877 9 view .LVU105
 326 00ee 04E0     		b	.L12
 327              	.LVL21:
 328              	.L14:
1879:Drivers/STM32U0xx_HAL_Driver/Src/stm32u0xx_hal_rtc.c ****     {
 329              		.loc 1 1879 5 is_stmt 1 view .LVU106
1879:Drivers/STM32U0xx_HAL_Driver/Src/stm32u0xx_hal_rtc.c ****     {
 330              		.loc 1 1879 10 is_stmt 0 view .LVU107
 331 00f0 FFF7FEFF 		bl	HAL_GetTick
 332              	.LVL22:
1879:Drivers/STM32U0xx_HAL_Driver/Src/stm32u0xx_hal_rtc.c ****     {
 333              		.loc 1 1879 24 view .LVU108
 334 00f4 801B     		subs	r0, r0, r6
1879:Drivers/STM32U0xx_HAL_Driver/Src/stm32u0xx_hal_rtc.c ****     {
 335              		.loc 1 1879 8 view .LVU109
 336 00f6 4045     		cmp	r0, r8
 337 00f8 E8D8     		bhi	.L8
 338              	.L12:
1877:Drivers/STM32U0xx_HAL_Driver/Src/stm32u0xx_hal_rtc.c ****   {
 339              		.loc 1 1877 44 is_stmt 1 view .LVU110
1877:Drivers/STM32U0xx_HAL_Driver/Src/stm32u0xx_hal_rtc.c ****   {
 340              		.loc 1 1877 10 is_stmt 0 view .LVU111
 341 00fa EB68     		ldr	r3, [r5, #12]
1877:Drivers/STM32U0xx_HAL_Driver/Src/stm32u0xx_hal_rtc.c ****   {
 342              		.loc 1 1877 44 view .LVU112
 343 00fc 1F42     		tst	r7, r3
 344 00fe F7D0     		beq	.L14
 345 0100 B6E7     		b	.L11
 346              	.L24:
 347 0102 C046     		.align	2
 348              	.L23:
 349 0104 00280040 		.word	1073752064
 350 0108 BFFF8FFB 		.word	-74448961
 351 010c FFE0FFFF 		.word	-7937
 352              	.LBE59:
 353              	.LBE58:
 354              		.cfi_endproc
ARM GAS  C:\Users\upo\AppData\Local\Temp\ccIlAiYO.s 			page 43


 355              	.LFE334:
 357              		.section	.text.HAL_RTC_MspDeInit,"ax",%progbits
 358              		.align	1
 359              		.p2align 2,,3
 360              		.weak	HAL_RTC_MspDeInit
 361              		.syntax unified
 362              		.code	16
 363              		.thumb_func
 365              	HAL_RTC_MspDeInit:
 366              	.LFB361:
 367              		.cfi_startproc
 769:Drivers/STM32U0xx_HAL_Driver/Src/stm32u0xx_hal_rtc.c **** {
 368              		.loc 1 769 13 is_stmt 1 view -0
 369              		@ args = 0, pretend = 0, frame = 0
 370              		@ frame_needed = 0, uses_anonymous_args = 0
 371              		@ link register save eliminated.
 372              		@ sp needed
 373 0000 7047     		bx	lr
 374              		.cfi_endproc
 375              	.LFE361:
 377 0002 C046     		.section	.text.HAL_RTC_DeInit,"ax",%progbits
 378              		.align	1
 379              		.p2align 2,,3
 380              		.global	HAL_RTC_DeInit
 381              		.syntax unified
 382              		.code	16
 383              		.thumb_func
 385              	HAL_RTC_DeInit:
 386              	.LVL23:
 387              	.LFB335:
 386:Drivers/STM32U0xx_HAL_Driver/Src/stm32u0xx_hal_rtc.c ****   HAL_StatusTypeDef status;
 388              		.loc 1 386 1 view -0
 389              		.cfi_startproc
 390              		@ args = 0, pretend = 0, frame = 0
 391              		@ frame_needed = 0, uses_anonymous_args = 0
 387:Drivers/STM32U0xx_HAL_Driver/Src/stm32u0xx_hal_rtc.c **** 
 392              		.loc 1 387 3 view .LVU115
 390:Drivers/STM32U0xx_HAL_Driver/Src/stm32u0xx_hal_rtc.c **** 
 393              		.loc 1 390 3 view .LVU116
 386:Drivers/STM32U0xx_HAL_Driver/Src/stm32u0xx_hal_rtc.c ****   HAL_StatusTypeDef status;
 394              		.loc 1 386 1 is_stmt 0 view .LVU117
 395 0000 F0B5     		push	{r4, r5, r6, r7, lr}
 396              	.LCFI2:
 397              		.cfi_def_cfa_offset 20
 398              		.cfi_offset 4, -20
 399              		.cfi_offset 5, -16
 400              		.cfi_offset 6, -12
 401              		.cfi_offset 7, -8
 402              		.cfi_offset 14, -4
 390:Drivers/STM32U0xx_HAL_Driver/Src/stm32u0xx_hal_rtc.c **** 
 403              		.loc 1 390 15 view .LVU118
 404 0002 2D23     		movs	r3, #45
 386:Drivers/STM32U0xx_HAL_Driver/Src/stm32u0xx_hal_rtc.c ****   HAL_StatusTypeDef status;
 405              		.loc 1 386 1 view .LVU119
 406 0004 C646     		mov	lr, r8
 390:Drivers/STM32U0xx_HAL_Driver/Src/stm32u0xx_hal_rtc.c **** 
 407              		.loc 1 390 15 view .LVU120
ARM GAS  C:\Users\upo\AppData\Local\Temp\ccIlAiYO.s 			page 44


 408 0006 0222     		movs	r2, #2
 393:Drivers/STM32U0xx_HAL_Driver/Src/stm32u0xx_hal_rtc.c **** 
 409              		.loc 1 393 3 view .LVU121
 410 0008 314C     		ldr	r4, .L41
 386:Drivers/STM32U0xx_HAL_Driver/Src/stm32u0xx_hal_rtc.c ****   HAL_StatusTypeDef status;
 411              		.loc 1 386 1 view .LVU122
 412 000a 00B5     		push	{lr}
 413              	.LCFI3:
 414              		.cfi_def_cfa_offset 24
 415              		.cfi_offset 8, -24
 390:Drivers/STM32U0xx_HAL_Driver/Src/stm32u0xx_hal_rtc.c **** 
 416              		.loc 1 390 15 view .LVU123
 417 000c C254     		strb	r2, [r0, r3]
 393:Drivers/STM32U0xx_HAL_Driver/Src/stm32u0xx_hal_rtc.c **** 
 418              		.loc 1 393 3 is_stmt 1 view .LVU124
 393:Drivers/STM32U0xx_HAL_Driver/Src/stm32u0xx_hal_rtc.c **** 
 419              		.loc 1 393 3 view .LVU125
 420 000e 9D33     		adds	r3, r3, #157
 421 0010 6362     		str	r3, [r4, #36]
 393:Drivers/STM32U0xx_HAL_Driver/Src/stm32u0xx_hal_rtc.c **** 
 422              		.loc 1 393 3 view .LVU126
 423 0012 773B     		subs	r3, r3, #119
 424 0014 6362     		str	r3, [r4, #36]
 393:Drivers/STM32U0xx_HAL_Driver/Src/stm32u0xx_hal_rtc.c **** 
 425              		.loc 1 393 3 view .LVU127
 395:Drivers/STM32U0xx_HAL_Driver/Src/stm32u0xx_hal_rtc.c **** 
 426              		.loc 1 395 3 view .LVU128
 427              	.LBB64:
 428              	.LBB65:
1940:Drivers/STM32U0xx_HAL_Driver/Src/stm32u0xx_hal_rtc.c ****   {
 429              		.loc 1 1940 7 is_stmt 0 view .LVU129
 430 0016 E368     		ldr	r3, [r4, #12]
 431              	.LBE65:
 432              	.LBE64:
 386:Drivers/STM32U0xx_HAL_Driver/Src/stm32u0xx_hal_rtc.c ****   HAL_StatusTypeDef status;
 433              		.loc 1 386 1 view .LVU130
 434 0018 0500     		movs	r5, r0
 435              	.LVL24:
 436              	.LBB69:
 437              	.LBI64:
1934:Drivers/STM32U0xx_HAL_Driver/Src/stm32u0xx_hal_rtc.c **** {
 438              		.loc 1 1934 19 is_stmt 1 view .LVU131
 439              	.LBB66:
1936:Drivers/STM32U0xx_HAL_Driver/Src/stm32u0xx_hal_rtc.c **** 
 440              		.loc 1 1936 3 view .LVU132
1938:Drivers/STM32U0xx_HAL_Driver/Src/stm32u0xx_hal_rtc.c ****   /* Check if the Initialization mode is set */
 441              		.loc 1 1938 3 view .LVU133
1940:Drivers/STM32U0xx_HAL_Driver/Src/stm32u0xx_hal_rtc.c ****   {
 442              		.loc 1 1940 3 view .LVU134
1940:Drivers/STM32U0xx_HAL_Driver/Src/stm32u0xx_hal_rtc.c ****   {
 443              		.loc 1 1940 6 is_stmt 0 view .LVU135
 444 001a 5B06     		lsls	r3, r3, #25
 445 001c 38D5     		bpl	.L40
 446              	.LVL25:
 447              	.L27:
1940:Drivers/STM32U0xx_HAL_Driver/Src/stm32u0xx_hal_rtc.c ****   {
 448              		.loc 1 1940 6 view .LVU136
ARM GAS  C:\Users\upo\AppData\Local\Temp\ccIlAiYO.s 			page 45


 449              	.LBE66:
 450              	.LBE69:
 406:Drivers/STM32U0xx_HAL_Driver/Src/stm32u0xx_hal_rtc.c ****     WRITE_REG(RTC->DR, (uint32_t)(RTC_DR_WDU_0 | RTC_DR_MU_0 | RTC_DR_DU_0));
 451              		.loc 1 406 5 is_stmt 1 view .LVU137
 452 001e 0023     		movs	r3, #0
 453 0020 2B4C     		ldr	r4, .L41
 407:Drivers/STM32U0xx_HAL_Driver/Src/stm32u0xx_hal_rtc.c ****     CLEAR_REG(RTC->TR);
 454              		.loc 1 407 5 is_stmt 0 view .LVU138
 455 0022 2C4A     		ldr	r2, .L41+4
 406:Drivers/STM32U0xx_HAL_Driver/Src/stm32u0xx_hal_rtc.c ****     WRITE_REG(RTC->DR, (uint32_t)(RTC_DR_WDU_0 | RTC_DR_MU_0 | RTC_DR_DU_0));
 456              		.loc 1 406 5 view .LVU139
 457 0024 A361     		str	r3, [r4, #24]
 407:Drivers/STM32U0xx_HAL_Driver/Src/stm32u0xx_hal_rtc.c ****     CLEAR_REG(RTC->TR);
 458              		.loc 1 407 5 is_stmt 1 view .LVU140
 459 0026 6260     		str	r2, [r4, #4]
 408:Drivers/STM32U0xx_HAL_Driver/Src/stm32u0xx_hal_rtc.c ****     WRITE_REG(RTC->WUTR, RTC_WUTR_WUT);
 460              		.loc 1 408 5 view .LVU141
 409:Drivers/STM32U0xx_HAL_Driver/Src/stm32u0xx_hal_rtc.c ****     WRITE_REG(RTC->PRER, ((uint32_t)(RTC_PRER_PREDIV_A | 0xFFU)));
 461              		.loc 1 409 5 is_stmt 0 view .LVU142
 462 0028 2B4A     		ldr	r2, .L41+8
 408:Drivers/STM32U0xx_HAL_Driver/Src/stm32u0xx_hal_rtc.c ****     WRITE_REG(RTC->WUTR, RTC_WUTR_WUT);
 463              		.loc 1 408 5 view .LVU143
 464 002a 2360     		str	r3, [r4]
 409:Drivers/STM32U0xx_HAL_Driver/Src/stm32u0xx_hal_rtc.c ****     WRITE_REG(RTC->PRER, ((uint32_t)(RTC_PRER_PREDIV_A | 0xFFU)));
 465              		.loc 1 409 5 is_stmt 1 view .LVU144
 466 002c 6261     		str	r2, [r4, #20]
 410:Drivers/STM32U0xx_HAL_Driver/Src/stm32u0xx_hal_rtc.c ****     CLEAR_REG(RTC->ALRMAR);
 467              		.loc 1 410 5 view .LVU145
 468 002e 2B4A     		ldr	r2, .L41+12
 469              	.LBB70:
 470              	.LBB71:
1877:Drivers/STM32U0xx_HAL_Driver/Src/stm32u0xx_hal_rtc.c ****   {
 471              		.loc 1 1877 10 is_stmt 0 view .LVU146
 472 0030 2027     		movs	r7, #32
 473              	.LBE71:
 474              	.LBE70:
 410:Drivers/STM32U0xx_HAL_Driver/Src/stm32u0xx_hal_rtc.c ****     CLEAR_REG(RTC->ALRMAR);
 475              		.loc 1 410 5 view .LVU147
 476 0032 2261     		str	r2, [r4, #16]
 411:Drivers/STM32U0xx_HAL_Driver/Src/stm32u0xx_hal_rtc.c ****     CLEAR_REG(RTC->ALRMBR);
 477              		.loc 1 411 5 is_stmt 1 view .LVU148
 421:Drivers/STM32U0xx_HAL_Driver/Src/stm32u0xx_hal_rtc.c **** 
 478              		.loc 1 421 5 is_stmt 0 view .LVU149
 479 0034 8022     		movs	r2, #128
 411:Drivers/STM32U0xx_HAL_Driver/Src/stm32u0xx_hal_rtc.c ****     CLEAR_REG(RTC->ALRMBR);
 480              		.loc 1 411 5 view .LVU150
 481 0036 2364     		str	r3, [r4, #64]
 412:Drivers/STM32U0xx_HAL_Driver/Src/stm32u0xx_hal_rtc.c ****     CLEAR_REG(RTC->SHIFTR);
 482              		.loc 1 412 5 is_stmt 1 view .LVU151
 483 0038 A364     		str	r3, [r4, #72]
 413:Drivers/STM32U0xx_HAL_Driver/Src/stm32u0xx_hal_rtc.c ****     CLEAR_REG(RTC->CALR);
 484              		.loc 1 413 5 view .LVU152
 485 003a E362     		str	r3, [r4, #44]
 414:Drivers/STM32U0xx_HAL_Driver/Src/stm32u0xx_hal_rtc.c ****     CLEAR_REG(RTC->ALRMASSR);
 486              		.loc 1 414 5 view .LVU153
 487 003c A362     		str	r3, [r4, #40]
 415:Drivers/STM32U0xx_HAL_Driver/Src/stm32u0xx_hal_rtc.c ****     CLEAR_REG(RTC->ALRMBSSR);
ARM GAS  C:\Users\upo\AppData\Local\Temp\ccIlAiYO.s 			page 46


 488              		.loc 1 415 5 view .LVU154
 489 003e 6364     		str	r3, [r4, #68]
 416:Drivers/STM32U0xx_HAL_Driver/Src/stm32u0xx_hal_rtc.c ****     WRITE_REG(RTC->SCR, RTC_SCR_CITSF | RTC_SCR_CTSOVF | RTC_SCR_CTSF | RTC_SCR_CWUTF | RTC_SCR_CAL
 490              		.loc 1 416 5 view .LVU155
 491 0040 E364     		str	r3, [r4, #76]
 417:Drivers/STM32U0xx_HAL_Driver/Src/stm32u0xx_hal_rtc.c ****               RTC_SCR_CALRAF);
 492              		.loc 1 417 5 view .LVU156
 493 0042 3F33     		adds	r3, r3, #63
 494 0044 E365     		str	r3, [r4, #92]
 421:Drivers/STM32U0xx_HAL_Driver/Src/stm32u0xx_hal_rtc.c **** 
 495              		.loc 1 421 5 view .LVU157
 496 0046 E368     		ldr	r3, [r4, #12]
 497 0048 9343     		bics	r3, r2
 498 004a E360     		str	r3, [r4, #12]
 423:Drivers/STM32U0xx_HAL_Driver/Src/stm32u0xx_hal_rtc.c **** 
 499              		.loc 1 423 5 view .LVU158
 500              	.LVL26:
 501              	.LBB73:
 502              	.LBI70:
1866:Drivers/STM32U0xx_HAL_Driver/Src/stm32u0xx_hal_rtc.c **** {
 503              		.loc 1 1866 19 view .LVU159
 504              	.LBB72:
1868:Drivers/STM32U0xx_HAL_Driver/Src/stm32u0xx_hal_rtc.c **** 
 505              		.loc 1 1868 3 view .LVU160
1870:Drivers/STM32U0xx_HAL_Driver/Src/stm32u0xx_hal_rtc.c ****   /* Clear RSF flag */
 506              		.loc 1 1870 3 view .LVU161
1872:Drivers/STM32U0xx_HAL_Driver/Src/stm32u0xx_hal_rtc.c **** 
 507              		.loc 1 1872 3 view .LVU162
 508 004c E368     		ldr	r3, [r4, #12]
 509 004e 603A     		subs	r2, r2, #96
 510 0050 9343     		bics	r3, r2
 511 0052 E360     		str	r3, [r4, #12]
1874:Drivers/STM32U0xx_HAL_Driver/Src/stm32u0xx_hal_rtc.c **** 
 512              		.loc 1 1874 3 view .LVU163
1874:Drivers/STM32U0xx_HAL_Driver/Src/stm32u0xx_hal_rtc.c **** 
 513              		.loc 1 1874 15 is_stmt 0 view .LVU164
 514 0054 FFF7FEFF 		bl	HAL_GetTick
 515              	.LVL27:
1879:Drivers/STM32U0xx_HAL_Driver/Src/stm32u0xx_hal_rtc.c ****     {
 516              		.loc 1 1879 8 view .LVU165
 517 0058 FA23     		movs	r3, #250
 518 005a 9B00     		lsls	r3, r3, #2
1874:Drivers/STM32U0xx_HAL_Driver/Src/stm32u0xx_hal_rtc.c **** 
 519              		.loc 1 1874 15 view .LVU166
 520 005c 0600     		movs	r6, r0
 521              	.LVL28:
1877:Drivers/STM32U0xx_HAL_Driver/Src/stm32u0xx_hal_rtc.c ****   {
 522              		.loc 1 1877 3 is_stmt 1 view .LVU167
1879:Drivers/STM32U0xx_HAL_Driver/Src/stm32u0xx_hal_rtc.c ****     {
 523              		.loc 1 1879 8 is_stmt 0 view .LVU168
 524 005e 9846     		mov	r8, r3
1877:Drivers/STM32U0xx_HAL_Driver/Src/stm32u0xx_hal_rtc.c ****   {
 525              		.loc 1 1877 9 view .LVU169
 526 0060 04E0     		b	.L31
 527              	.LVL29:
 528              	.L33:
1879:Drivers/STM32U0xx_HAL_Driver/Src/stm32u0xx_hal_rtc.c ****     {
ARM GAS  C:\Users\upo\AppData\Local\Temp\ccIlAiYO.s 			page 47


 529              		.loc 1 1879 5 is_stmt 1 view .LVU170
1879:Drivers/STM32U0xx_HAL_Driver/Src/stm32u0xx_hal_rtc.c ****     {
 530              		.loc 1 1879 10 is_stmt 0 view .LVU171
 531 0062 FFF7FEFF 		bl	HAL_GetTick
 532              	.LVL30:
1879:Drivers/STM32U0xx_HAL_Driver/Src/stm32u0xx_hal_rtc.c ****     {
 533              		.loc 1 1879 24 view .LVU172
 534 0066 801B     		subs	r0, r0, r6
1879:Drivers/STM32U0xx_HAL_Driver/Src/stm32u0xx_hal_rtc.c ****     {
 535              		.loc 1 1879 8 view .LVU173
 536 0068 4045     		cmp	r0, r8
 537 006a 24D8     		bhi	.L29
 538              	.L31:
1877:Drivers/STM32U0xx_HAL_Driver/Src/stm32u0xx_hal_rtc.c ****   {
 539              		.loc 1 1877 44 is_stmt 1 view .LVU174
1877:Drivers/STM32U0xx_HAL_Driver/Src/stm32u0xx_hal_rtc.c ****   {
 540              		.loc 1 1877 10 is_stmt 0 view .LVU175
 541 006c E368     		ldr	r3, [r4, #12]
1877:Drivers/STM32U0xx_HAL_Driver/Src/stm32u0xx_hal_rtc.c ****   {
 542              		.loc 1 1877 44 view .LVU176
 543 006e 1F42     		tst	r7, r3
 544 0070 F7D0     		beq	.L33
 545              	.LVL31:
1877:Drivers/STM32U0xx_HAL_Driver/Src/stm32u0xx_hal_rtc.c ****   {
 546              		.loc 1 1877 44 view .LVU177
 547              	.LBE72:
 548              	.LBE73:
 425:Drivers/STM32U0xx_HAL_Driver/Src/stm32u0xx_hal_rtc.c ****     {
 549              		.loc 1 425 5 is_stmt 1 view .LVU178
 432:Drivers/STM32U0xx_HAL_Driver/Src/stm32u0xx_hal_rtc.c ****       CLEAR_REG(TAMP->CR2);
 550              		.loc 1 432 7 view .LVU179
 551 0072 0026     		movs	r6, #0
 552 0074 1A4B     		ldr	r3, .L41+16
 455:Drivers/STM32U0xx_HAL_Driver/Src/stm32u0xx_hal_rtc.c **** #endif /* (USE_HAL_RTC_REGISTER_CALLBACKS) */
 553              		.loc 1 455 5 is_stmt 0 view .LVU180
 554 0076 2800     		movs	r0, r5
 432:Drivers/STM32U0xx_HAL_Driver/Src/stm32u0xx_hal_rtc.c ****       CLEAR_REG(TAMP->CR2);
 555              		.loc 1 432 7 view .LVU181
 556 0078 1E60     		str	r6, [r3]
 433:Drivers/STM32U0xx_HAL_Driver/Src/stm32u0xx_hal_rtc.c ****       CLEAR_REG(TAMP->CR3);
 557              		.loc 1 433 7 is_stmt 1 view .LVU182
 558 007a 5E60     		str	r6, [r3, #4]
 434:Drivers/STM32U0xx_HAL_Driver/Src/stm32u0xx_hal_rtc.c ****       CLEAR_REG(TAMP->FLTCR);
 559              		.loc 1 434 7 view .LVU183
 560 007c 9E60     		str	r6, [r3, #8]
 435:Drivers/STM32U0xx_HAL_Driver/Src/stm32u0xx_hal_rtc.c ****     }
 561              		.loc 1 435 7 view .LVU184
 562 007e DE60     		str	r6, [r3, #12]
 440:Drivers/STM32U0xx_HAL_Driver/Src/stm32u0xx_hal_rtc.c **** 
 563              		.loc 1 440 3 view .LVU185
 440:Drivers/STM32U0xx_HAL_Driver/Src/stm32u0xx_hal_rtc.c **** 
 564              		.loc 1 440 3 view .LVU186
 565 0080 FF23     		movs	r3, #255
 566 0082 6362     		str	r3, [r4, #36]
 440:Drivers/STM32U0xx_HAL_Driver/Src/stm32u0xx_hal_rtc.c **** 
 567              		.loc 1 440 3 view .LVU187
 442:Drivers/STM32U0xx_HAL_Driver/Src/stm32u0xx_hal_rtc.c ****   {
ARM GAS  C:\Users\upo\AppData\Local\Temp\ccIlAiYO.s 			page 48


 568              		.loc 1 442 3 view .LVU188
 455:Drivers/STM32U0xx_HAL_Driver/Src/stm32u0xx_hal_rtc.c **** #endif /* (USE_HAL_RTC_REGISTER_CALLBACKS) */
 569              		.loc 1 455 5 view .LVU189
 570 0084 FFF7FEFF 		bl	HAL_RTC_MspDeInit
 571              	.LVL32:
 458:Drivers/STM32U0xx_HAL_Driver/Src/stm32u0xx_hal_rtc.c ****   }
 572              		.loc 1 458 5 view .LVU190
 458:Drivers/STM32U0xx_HAL_Driver/Src/stm32u0xx_hal_rtc.c ****   }
 573              		.loc 1 458 17 is_stmt 0 view .LVU191
 574 0088 2D23     		movs	r3, #45
 423:Drivers/STM32U0xx_HAL_Driver/Src/stm32u0xx_hal_rtc.c **** 
 575              		.loc 1 423 14 view .LVU192
 576 008a 0020     		movs	r0, #0
 458:Drivers/STM32U0xx_HAL_Driver/Src/stm32u0xx_hal_rtc.c ****   }
 577              		.loc 1 458 17 view .LVU193
 578 008c EE54     		strb	r6, [r5, r3]
 579 008e 18E0     		b	.L36
 580              	.LVL33:
 581              	.L40:
 582              	.LBB74:
 583              	.LBB67:
1943:Drivers/STM32U0xx_HAL_Driver/Src/stm32u0xx_hal_rtc.c **** 
 584              		.loc 1 1943 5 is_stmt 1 view .LVU194
 585 0090 E368     		ldr	r3, [r4, #12]
 586 0092 7E32     		adds	r2, r2, #126
 587 0094 1343     		orrs	r3, r2
 588 0096 E360     		str	r3, [r4, #12]
1945:Drivers/STM32U0xx_HAL_Driver/Src/stm32u0xx_hal_rtc.c ****     /* Wait till RTC is in INIT state and if Time out is reached exit */
 589              		.loc 1 1945 5 view .LVU195
1945:Drivers/STM32U0xx_HAL_Driver/Src/stm32u0xx_hal_rtc.c ****     /* Wait till RTC is in INIT state and if Time out is reached exit */
 590              		.loc 1 1945 17 is_stmt 0 view .LVU196
 591 0098 FFF7FEFF 		bl	HAL_GetTick
 592              	.LVL34:
 593              		.loc 1 1949 10 view .LVU197
 594 009c FA23     		movs	r3, #250
 595 009e 9B00     		lsls	r3, r3, #2
1945:Drivers/STM32U0xx_HAL_Driver/Src/stm32u0xx_hal_rtc.c ****     /* Wait till RTC is in INIT state and if Time out is reached exit */
 596              		.loc 1 1945 17 view .LVU198
 597 00a0 0600     		movs	r6, r0
 598              	.LVL35:
1947:Drivers/STM32U0xx_HAL_Driver/Src/stm32u0xx_hal_rtc.c ****     {
 599              		.loc 1 1947 5 is_stmt 1 view .LVU199
1947:Drivers/STM32U0xx_HAL_Driver/Src/stm32u0xx_hal_rtc.c ****     {
 600              		.loc 1 1947 12 is_stmt 0 view .LVU200
 601 00a2 4027     		movs	r7, #64
 602              		.loc 1 1949 10 view .LVU201
 603 00a4 9846     		mov	r8, r3
 604              	.LVL36:
 605              	.L28:
1947:Drivers/STM32U0xx_HAL_Driver/Src/stm32u0xx_hal_rtc.c ****     {
 606              		.loc 1 1947 48 is_stmt 1 view .LVU202
1947:Drivers/STM32U0xx_HAL_Driver/Src/stm32u0xx_hal_rtc.c ****     {
 607              		.loc 1 1947 12 is_stmt 0 view .LVU203
 608 00a6 E368     		ldr	r3, [r4, #12]
1947:Drivers/STM32U0xx_HAL_Driver/Src/stm32u0xx_hal_rtc.c ****     {
 609              		.loc 1 1947 48 view .LVU204
 610 00a8 1F42     		tst	r7, r3
ARM GAS  C:\Users\upo\AppData\Local\Temp\ccIlAiYO.s 			page 49


 611 00aa B8D1     		bne	.L27
 612              		.loc 1 1949 7 is_stmt 1 view .LVU205
 613              		.loc 1 1949 12 is_stmt 0 view .LVU206
 614 00ac FFF7FEFF 		bl	HAL_GetTick
 615              	.LVL37:
 616              		.loc 1 1949 27 view .LVU207
 617 00b0 801B     		subs	r0, r0, r6
 618              		.loc 1 1949 10 view .LVU208
 619 00b2 4045     		cmp	r0, r8
 620 00b4 F7D9     		bls	.L28
 621              	.LVL38:
 622              	.L29:
 623              		.loc 1 1949 10 view .LVU209
 624              	.LBE67:
 625              	.LBE74:
 398:Drivers/STM32U0xx_HAL_Driver/Src/stm32u0xx_hal_rtc.c ****   {
 626              		.loc 1 398 3 is_stmt 1 view .LVU210
 401:Drivers/STM32U0xx_HAL_Driver/Src/stm32u0xx_hal_rtc.c ****   }
 627              		.loc 1 401 5 view .LVU211
 401:Drivers/STM32U0xx_HAL_Driver/Src/stm32u0xx_hal_rtc.c ****   }
 628              		.loc 1 401 17 is_stmt 0 view .LVU212
 629 00b6 2D23     		movs	r3, #45
 630 00b8 0422     		movs	r2, #4
 631              	.LBB75:
 632              	.LBB68:
1950:Drivers/STM32U0xx_HAL_Driver/Src/stm32u0xx_hal_rtc.c ****       {
1951:Drivers/STM32U0xx_HAL_Driver/Src/stm32u0xx_hal_rtc.c ****         return HAL_TIMEOUT;
 633              		.loc 1 1951 16 view .LVU213
 634 00ba 0320     		movs	r0, #3
 635              	.LBE68:
 636              	.LBE75:
 401:Drivers/STM32U0xx_HAL_Driver/Src/stm32u0xx_hal_rtc.c ****   }
 637              		.loc 1 401 17 view .LVU214
 638 00bc EA54     		strb	r2, [r5, r3]
 440:Drivers/STM32U0xx_HAL_Driver/Src/stm32u0xx_hal_rtc.c **** 
 639              		.loc 1 440 3 is_stmt 1 view .LVU215
 440:Drivers/STM32U0xx_HAL_Driver/Src/stm32u0xx_hal_rtc.c **** 
 640              		.loc 1 440 3 view .LVU216
 641 00be D233     		adds	r3, r3, #210
 642 00c0 6362     		str	r3, [r4, #36]
 440:Drivers/STM32U0xx_HAL_Driver/Src/stm32u0xx_hal_rtc.c **** 
 643              		.loc 1 440 3 view .LVU217
 442:Drivers/STM32U0xx_HAL_Driver/Src/stm32u0xx_hal_rtc.c ****   {
 644              		.loc 1 442 3 view .LVU218
 645              	.LVL39:
 646              	.L36:
 462:Drivers/STM32U0xx_HAL_Driver/Src/stm32u0xx_hal_rtc.c **** 
 647              		.loc 1 462 3 view .LVU219
 462:Drivers/STM32U0xx_HAL_Driver/Src/stm32u0xx_hal_rtc.c **** 
 648              		.loc 1 462 3 view .LVU220
 649 00c2 2C23     		movs	r3, #44
 465:Drivers/STM32U0xx_HAL_Driver/Src/stm32u0xx_hal_rtc.c **** 
 650              		.loc 1 465 1 is_stmt 0 view .LVU221
 651              		@ sp needed
 462:Drivers/STM32U0xx_HAL_Driver/Src/stm32u0xx_hal_rtc.c **** 
 652              		.loc 1 462 3 view .LVU222
 653 00c4 0022     		movs	r2, #0
ARM GAS  C:\Users\upo\AppData\Local\Temp\ccIlAiYO.s 			page 50


 654 00c6 EA54     		strb	r2, [r5, r3]
 462:Drivers/STM32U0xx_HAL_Driver/Src/stm32u0xx_hal_rtc.c **** 
 655              		.loc 1 462 3 is_stmt 1 view .LVU223
 464:Drivers/STM32U0xx_HAL_Driver/Src/stm32u0xx_hal_rtc.c **** }
 656              		.loc 1 464 3 view .LVU224
 657              	.LVL40:
 465:Drivers/STM32U0xx_HAL_Driver/Src/stm32u0xx_hal_rtc.c **** 
 658              		.loc 1 465 1 is_stmt 0 view .LVU225
 659 00c8 80BC     		pop	{r7}
 660 00ca B846     		mov	r8, r7
 661 00cc F0BD     		pop	{r4, r5, r6, r7, pc}
 662              	.L42:
 663 00ce C046     		.align	2
 664              	.L41:
 665 00d0 00280040 		.word	1073752064
 666 00d4 01210000 		.word	8449
 667 00d8 FFFF0000 		.word	65535
 668 00dc FF007F00 		.word	8323327
 669 00e0 00B00040 		.word	1073786880
 670              		.cfi_endproc
 671              	.LFE335:
 673              		.section	.text.HAL_RTC_SetTime,"ax",%progbits
 674              		.align	1
 675              		.p2align 2,,3
 676              		.global	HAL_RTC_SetTime
 677              		.syntax unified
 678              		.code	16
 679              		.thumb_func
 681              	HAL_RTC_SetTime:
 682              	.LVL41:
 683              	.LFB338:
 814:Drivers/STM32U0xx_HAL_Driver/Src/stm32u0xx_hal_rtc.c ****   uint32_t tmpreg;
 684              		.loc 1 814 1 is_stmt 1 view -0
 685              		.cfi_startproc
 686              		@ args = 0, pretend = 0, frame = 0
 687              		@ frame_needed = 0, uses_anonymous_args = 0
 815:Drivers/STM32U0xx_HAL_Driver/Src/stm32u0xx_hal_rtc.c **** 
 688              		.loc 1 815 3 view .LVU227
 827:Drivers/STM32U0xx_HAL_Driver/Src/stm32u0xx_hal_rtc.c **** 
 689              		.loc 1 827 3 view .LVU228
 827:Drivers/STM32U0xx_HAL_Driver/Src/stm32u0xx_hal_rtc.c **** 
 690              		.loc 1 827 3 view .LVU229
 814:Drivers/STM32U0xx_HAL_Driver/Src/stm32u0xx_hal_rtc.c ****   uint32_t tmpreg;
 691              		.loc 1 814 1 is_stmt 0 view .LVU230
 692 0000 F0B5     		push	{r4, r5, r6, r7, lr}
 693              	.LCFI4:
 694              		.cfi_def_cfa_offset 20
 695              		.cfi_offset 4, -20
 696              		.cfi_offset 5, -16
 697              		.cfi_offset 6, -12
 698              		.cfi_offset 7, -8
 699              		.cfi_offset 14, -4
 700 0002 4F46     		mov	r7, r9
 701 0004 D646     		mov	lr, r10
 702 0006 4646     		mov	r6, r8
 827:Drivers/STM32U0xx_HAL_Driver/Src/stm32u0xx_hal_rtc.c **** 
 703              		.loc 1 827 3 view .LVU231
ARM GAS  C:\Users\upo\AppData\Local\Temp\ccIlAiYO.s 			page 51


 704 0008 2C23     		movs	r3, #44
 814:Drivers/STM32U0xx_HAL_Driver/Src/stm32u0xx_hal_rtc.c ****   uint32_t tmpreg;
 705              		.loc 1 814 1 view .LVU232
 706 000a C0B5     		push	{r6, r7, lr}
 707              	.LCFI5:
 708              		.cfi_def_cfa_offset 32
 709              		.cfi_offset 8, -32
 710              		.cfi_offset 9, -28
 711              		.cfi_offset 10, -24
 814:Drivers/STM32U0xx_HAL_Driver/Src/stm32u0xx_hal_rtc.c ****   uint32_t tmpreg;
 712              		.loc 1 814 1 view .LVU233
 713 000c 1500     		movs	r5, r2
 827:Drivers/STM32U0xx_HAL_Driver/Src/stm32u0xx_hal_rtc.c **** 
 714              		.loc 1 827 3 view .LVU234
 715 000e C25C     		ldrb	r2, [r0, r3]
 716              	.LVL42:
 814:Drivers/STM32U0xx_HAL_Driver/Src/stm32u0xx_hal_rtc.c ****   uint32_t tmpreg;
 717              		.loc 1 814 1 view .LVU235
 718 0010 0400     		movs	r4, r0
 719 0012 0F00     		movs	r7, r1
 827:Drivers/STM32U0xx_HAL_Driver/Src/stm32u0xx_hal_rtc.c **** 
 720              		.loc 1 827 3 view .LVU236
 721 0014 012A     		cmp	r2, #1
 722 0016 00D1     		bne	.LCB610
 723 0018 B4E0     		b	.L67	@long jump
 724              	.LCB610:
 827:Drivers/STM32U0xx_HAL_Driver/Src/stm32u0xx_hal_rtc.c **** 
 725              		.loc 1 827 3 is_stmt 1 discriminator 2 view .LVU237
 726 001a 0122     		movs	r2, #1
 832:Drivers/STM32U0xx_HAL_Driver/Src/stm32u0xx_hal_rtc.c **** 
 727              		.loc 1 832 3 is_stmt 0 discriminator 2 view .LVU238
 728 001c 5F4E     		ldr	r6, .L75
 827:Drivers/STM32U0xx_HAL_Driver/Src/stm32u0xx_hal_rtc.c **** 
 729              		.loc 1 827 3 discriminator 2 view .LVU239
 730 001e C254     		strb	r2, [r0, r3]
 827:Drivers/STM32U0xx_HAL_Driver/Src/stm32u0xx_hal_rtc.c **** 
 731              		.loc 1 827 3 is_stmt 1 discriminator 2 view .LVU240
 829:Drivers/STM32U0xx_HAL_Driver/Src/stm32u0xx_hal_rtc.c **** 
 732              		.loc 1 829 3 discriminator 2 view .LVU241
 829:Drivers/STM32U0xx_HAL_Driver/Src/stm32u0xx_hal_rtc.c **** 
 733              		.loc 1 829 15 is_stmt 0 discriminator 2 view .LVU242
 734 0020 0133     		adds	r3, r3, #1
 735 0022 0132     		adds	r2, r2, #1
 736 0024 C254     		strb	r2, [r0, r3]
 832:Drivers/STM32U0xx_HAL_Driver/Src/stm32u0xx_hal_rtc.c **** 
 737              		.loc 1 832 3 is_stmt 1 discriminator 2 view .LVU243
 832:Drivers/STM32U0xx_HAL_Driver/Src/stm32u0xx_hal_rtc.c **** 
 738              		.loc 1 832 3 discriminator 2 view .LVU244
 739 0026 9D33     		adds	r3, r3, #157
 740 0028 7362     		str	r3, [r6, #36]
 832:Drivers/STM32U0xx_HAL_Driver/Src/stm32u0xx_hal_rtc.c **** 
 741              		.loc 1 832 3 discriminator 2 view .LVU245
 742 002a 773B     		subs	r3, r3, #119
 743 002c 7362     		str	r3, [r6, #36]
 832:Drivers/STM32U0xx_HAL_Driver/Src/stm32u0xx_hal_rtc.c **** 
 744              		.loc 1 832 3 discriminator 2 view .LVU246
 835:Drivers/STM32U0xx_HAL_Driver/Src/stm32u0xx_hal_rtc.c ****   {
ARM GAS  C:\Users\upo\AppData\Local\Temp\ccIlAiYO.s 			page 52


 745              		.loc 1 835 3 discriminator 2 view .LVU247
 746              	.LVL43:
 747              	.LBB86:
 748              	.LBI86:
1934:Drivers/STM32U0xx_HAL_Driver/Src/stm32u0xx_hal_rtc.c **** {
 749              		.loc 1 1934 19 discriminator 2 view .LVU248
 750              	.LBB87:
1936:Drivers/STM32U0xx_HAL_Driver/Src/stm32u0xx_hal_rtc.c **** 
 751              		.loc 1 1936 3 discriminator 2 view .LVU249
1938:Drivers/STM32U0xx_HAL_Driver/Src/stm32u0xx_hal_rtc.c ****   /* Check if the Initialization mode is set */
 752              		.loc 1 1938 3 discriminator 2 view .LVU250
1940:Drivers/STM32U0xx_HAL_Driver/Src/stm32u0xx_hal_rtc.c ****   {
 753              		.loc 1 1940 3 discriminator 2 view .LVU251
1940:Drivers/STM32U0xx_HAL_Driver/Src/stm32u0xx_hal_rtc.c ****   {
 754              		.loc 1 1940 7 is_stmt 0 discriminator 2 view .LVU252
 755 002e F368     		ldr	r3, [r6, #12]
1940:Drivers/STM32U0xx_HAL_Driver/Src/stm32u0xx_hal_rtc.c ****   {
 756              		.loc 1 1940 6 discriminator 2 view .LVU253
 757 0030 5B06     		lsls	r3, r3, #25
 758 0032 00D4     		bmi	.LCB640
 759 0034 85E0     		b	.L73	@long jump
 760              	.LCB640:
 761              	.LVL44:
 762              	.L45:
1940:Drivers/STM32U0xx_HAL_Driver/Src/stm32u0xx_hal_rtc.c ****   {
 763              		.loc 1 1940 6 discriminator 2 view .LVU254
 764              	.LBE87:
 765              	.LBE86:
 851:Drivers/STM32U0xx_HAL_Driver/Src/stm32u0xx_hal_rtc.c ****     {
 766              		.loc 1 851 5 is_stmt 1 view .LVU255
 851:Drivers/STM32U0xx_HAL_Driver/Src/stm32u0xx_hal_rtc.c ****     {
 767              		.loc 1 851 9 is_stmt 0 view .LVU256
 768 0036 C021     		movs	r1, #192
 769 0038 584A     		ldr	r2, .L75
 770 003a 8900     		lsls	r1, r1, #2
 771 003c D368     		ldr	r3, [r2, #12]
 772 003e 0B40     		ands	r3, r1
 851:Drivers/STM32U0xx_HAL_Driver/Src/stm32u0xx_hal_rtc.c ****     {
 773              		.loc 1 851 8 view .LVU257
 774 0040 8021     		movs	r1, #128
 775 0042 4900     		lsls	r1, r1, #1
 776 0044 8B42     		cmp	r3, r1
 777 0046 50D0     		beq	.L49
 853:Drivers/STM32U0xx_HAL_Driver/Src/stm32u0xx_hal_rtc.c ****       {
 778              		.loc 1 853 7 is_stmt 1 view .LVU258
 855:Drivers/STM32U0xx_HAL_Driver/Src/stm32u0xx_hal_rtc.c ****         {
 779              		.loc 1 855 13 is_stmt 0 view .LVU259
 780 0048 9369     		ldr	r3, [r2, #24]
 853:Drivers/STM32U0xx_HAL_Driver/Src/stm32u0xx_hal_rtc.c ****       {
 781              		.loc 1 853 10 view .LVU260
 782 004a 002D     		cmp	r5, #0
 783 004c 30D1     		bne	.L50
 855:Drivers/STM32U0xx_HAL_Driver/Src/stm32u0xx_hal_rtc.c ****         {
 784              		.loc 1 855 9 is_stmt 1 view .LVU261
 855:Drivers/STM32U0xx_HAL_Driver/Src/stm32u0xx_hal_rtc.c ****         {
 785              		.loc 1 855 13 is_stmt 0 view .LVU262
 786 004e 4022     		movs	r2, #64
ARM GAS  C:\Users\upo\AppData\Local\Temp\ccIlAiYO.s 			page 53


 787 0050 1100     		movs	r1, r2
 788 0052 1940     		ands	r1, r3
 855:Drivers/STM32U0xx_HAL_Driver/Src/stm32u0xx_hal_rtc.c ****         {
 789              		.loc 1 855 12 view .LVU263
 790 0054 1A42     		tst	r2, r3
 791 0056 00D1     		bne	.LCB667
 792 0058 9CE0     		b	.L51	@long jump
 793              	.LCB667:
 891:Drivers/STM32U0xx_HAL_Driver/Src/stm32u0xx_hal_rtc.c ****       }
 794              		.loc 1 891 20 view .LVU264
 795 005a F978     		ldrb	r1, [r7, #3]
 891:Drivers/STM32U0xx_HAL_Driver/Src/stm32u0xx_hal_rtc.c ****       }
 796              		.loc 1 891 50 view .LVU265
 797 005c 8905     		lsls	r1, r1, #22
 798              	.L52:
 863:Drivers/STM32U0xx_HAL_Driver/Src/stm32u0xx_hal_rtc.c ****         }
 799              		.loc 1 863 11 is_stmt 1 view .LVU266
 865:Drivers/STM32U0xx_HAL_Driver/Src/stm32u0xx_hal_rtc.c ****         assert_param(IS_RTC_SECONDS(sTime->Seconds));
 800              		.loc 1 865 9 view .LVU267
 866:Drivers/STM32U0xx_HAL_Driver/Src/stm32u0xx_hal_rtc.c **** 
 801              		.loc 1 866 9 view .LVU268
 868:Drivers/STM32U0xx_HAL_Driver/Src/stm32u0xx_hal_rtc.c ****                             ((uint32_t)RTC_ByteToBcd2(sTime->Minutes) << RTC_TR_MNU_Pos) | \
 802              		.loc 1 868 9 view .LVU269
 868:Drivers/STM32U0xx_HAL_Driver/Src/stm32u0xx_hal_rtc.c ****                             ((uint32_t)RTC_ByteToBcd2(sTime->Minutes) << RTC_TR_MNU_Pos) | \
 803              		.loc 1 868 40 is_stmt 0 view .LVU270
 804 005e 3B78     		ldrb	r3, [r7]
 805              	.LVL45:
 806              	.LBB89:
 807              	.LBI89:
1952:Drivers/STM32U0xx_HAL_Driver/Src/stm32u0xx_hal_rtc.c ****       }
1953:Drivers/STM32U0xx_HAL_Driver/Src/stm32u0xx_hal_rtc.c ****     }
1954:Drivers/STM32U0xx_HAL_Driver/Src/stm32u0xx_hal_rtc.c ****   }
1955:Drivers/STM32U0xx_HAL_Driver/Src/stm32u0xx_hal_rtc.c **** 
1956:Drivers/STM32U0xx_HAL_Driver/Src/stm32u0xx_hal_rtc.c ****   return HAL_OK;
1957:Drivers/STM32U0xx_HAL_Driver/Src/stm32u0xx_hal_rtc.c **** }
1958:Drivers/STM32U0xx_HAL_Driver/Src/stm32u0xx_hal_rtc.c **** 
1959:Drivers/STM32U0xx_HAL_Driver/Src/stm32u0xx_hal_rtc.c **** /**
1960:Drivers/STM32U0xx_HAL_Driver/Src/stm32u0xx_hal_rtc.c ****   * @brief  Exit the RTC Initialization mode.
1961:Drivers/STM32U0xx_HAL_Driver/Src/stm32u0xx_hal_rtc.c ****   * @param  hrtc RTC handle
1962:Drivers/STM32U0xx_HAL_Driver/Src/stm32u0xx_hal_rtc.c ****   * @retval HAL status
1963:Drivers/STM32U0xx_HAL_Driver/Src/stm32u0xx_hal_rtc.c ****   */
1964:Drivers/STM32U0xx_HAL_Driver/Src/stm32u0xx_hal_rtc.c **** HAL_StatusTypeDef RTC_ExitInitMode(RTC_HandleTypeDef *hrtc)
1965:Drivers/STM32U0xx_HAL_Driver/Src/stm32u0xx_hal_rtc.c **** {
1966:Drivers/STM32U0xx_HAL_Driver/Src/stm32u0xx_hal_rtc.c ****   HAL_StatusTypeDef status = HAL_OK;
1967:Drivers/STM32U0xx_HAL_Driver/Src/stm32u0xx_hal_rtc.c **** 
1968:Drivers/STM32U0xx_HAL_Driver/Src/stm32u0xx_hal_rtc.c ****   /* Exit Initialization mode */
1969:Drivers/STM32U0xx_HAL_Driver/Src/stm32u0xx_hal_rtc.c ****   CLEAR_BIT(RTC->ICSR, RTC_ICSR_INIT);
1970:Drivers/STM32U0xx_HAL_Driver/Src/stm32u0xx_hal_rtc.c **** 
1971:Drivers/STM32U0xx_HAL_Driver/Src/stm32u0xx_hal_rtc.c ****   /* If CR_BYPSHAD bit = 0, wait for synchro */
1972:Drivers/STM32U0xx_HAL_Driver/Src/stm32u0xx_hal_rtc.c ****   if (READ_BIT(RTC->CR, RTC_CR_BYPSHAD) == 0U)
1973:Drivers/STM32U0xx_HAL_Driver/Src/stm32u0xx_hal_rtc.c ****   {
1974:Drivers/STM32U0xx_HAL_Driver/Src/stm32u0xx_hal_rtc.c ****     if (HAL_RTC_WaitForSynchro(hrtc) != HAL_OK)
1975:Drivers/STM32U0xx_HAL_Driver/Src/stm32u0xx_hal_rtc.c ****     {
1976:Drivers/STM32U0xx_HAL_Driver/Src/stm32u0xx_hal_rtc.c ****       /* Change RTC state */
1977:Drivers/STM32U0xx_HAL_Driver/Src/stm32u0xx_hal_rtc.c ****       hrtc->State = HAL_RTC_STATE_TIMEOUT;
1978:Drivers/STM32U0xx_HAL_Driver/Src/stm32u0xx_hal_rtc.c ****       status = HAL_TIMEOUT;
1979:Drivers/STM32U0xx_HAL_Driver/Src/stm32u0xx_hal_rtc.c ****     }
ARM GAS  C:\Users\upo\AppData\Local\Temp\ccIlAiYO.s 			page 54


1980:Drivers/STM32U0xx_HAL_Driver/Src/stm32u0xx_hal_rtc.c ****   }
