ARM GAS  C:\Users\upo\AppData\Local\Temp\ccsCunJj.s 			page 1


   1              		.cpu cortex-m0plus
   2              		.arch armv6s-m
   3              		.fpu softvfp
   4              		.eabi_attribute 20, 1
   5              		.eabi_attribute 21, 1
   6              		.eabi_attribute 23, 3
   7              		.eabi_attribute 24, 1
   8              		.eabi_attribute 25, 1
   9              		.eabi_attribute 26, 1
  10              		.eabi_attribute 30, 1
  11              		.eabi_attribute 34, 0
  12              		.eabi_attribute 18, 4
  13              		.file	"stm32u0xx_hal.c"
  14              		.text
  15              	.Ltext0:
  16              		.cfi_sections	.debug_frame
  17              		.file 1 "Drivers/STM32U0xx_HAL_Driver/Src/stm32u0xx_hal.c"
  18              		.section	.text.HAL_MspInit,"ax",%progbits
  19              		.align	1
  20              		.weak	HAL_MspInit
  21              		.syntax unified
  22              		.code	16
  23              		.thumb_func
  25              	HAL_MspInit:
  26              	.LFB336:
   1:Drivers/STM32U0xx_HAL_Driver/Src/stm32u0xx_hal.c **** /**
   2:Drivers/STM32U0xx_HAL_Driver/Src/stm32u0xx_hal.c ****   ******************************************************************************
   3:Drivers/STM32U0xx_HAL_Driver/Src/stm32u0xx_hal.c ****   * @file    stm32u0xx_hal.c
   4:Drivers/STM32U0xx_HAL_Driver/Src/stm32u0xx_hal.c ****   * @author  GPM Application Team
   5:Drivers/STM32U0xx_HAL_Driver/Src/stm32u0xx_hal.c ****   * @brief   HAL module driver.
   6:Drivers/STM32U0xx_HAL_Driver/Src/stm32u0xx_hal.c ****   *          This is the common part of the HAL initialization
   7:Drivers/STM32U0xx_HAL_Driver/Src/stm32u0xx_hal.c ****   *
   8:Drivers/STM32U0xx_HAL_Driver/Src/stm32u0xx_hal.c ****   @verbatim
   9:Drivers/STM32U0xx_HAL_Driver/Src/stm32u0xx_hal.c ****   ==============================================================================
  10:Drivers/STM32U0xx_HAL_Driver/Src/stm32u0xx_hal.c ****                      ##### How to use this driver #####
  11:Drivers/STM32U0xx_HAL_Driver/Src/stm32u0xx_hal.c ****   ==============================================================================
  12:Drivers/STM32U0xx_HAL_Driver/Src/stm32u0xx_hal.c ****     [..]
  13:Drivers/STM32U0xx_HAL_Driver/Src/stm32u0xx_hal.c ****     The common HAL driver contains a set of generic and common APIs that can be
  14:Drivers/STM32U0xx_HAL_Driver/Src/stm32u0xx_hal.c ****     used by the PPP peripheral drivers and the user to start using the HAL.
  15:Drivers/STM32U0xx_HAL_Driver/Src/stm32u0xx_hal.c ****     [..]
  16:Drivers/STM32U0xx_HAL_Driver/Src/stm32u0xx_hal.c ****     The HAL contains two APIs categories:
  17:Drivers/STM32U0xx_HAL_Driver/Src/stm32u0xx_hal.c ****          (+) Common HAL APIs
  18:Drivers/STM32U0xx_HAL_Driver/Src/stm32u0xx_hal.c ****          (+) Services HAL APIs
  19:Drivers/STM32U0xx_HAL_Driver/Src/stm32u0xx_hal.c **** 
  20:Drivers/STM32U0xx_HAL_Driver/Src/stm32u0xx_hal.c ****   @endverbatim
  21:Drivers/STM32U0xx_HAL_Driver/Src/stm32u0xx_hal.c ****   ******************************************************************************
  22:Drivers/STM32U0xx_HAL_Driver/Src/stm32u0xx_hal.c ****   * @attention
  23:Drivers/STM32U0xx_HAL_Driver/Src/stm32u0xx_hal.c ****   *
  24:Drivers/STM32U0xx_HAL_Driver/Src/stm32u0xx_hal.c ****   * Copyright (c) 2023 STMicroelectronics.
  25:Drivers/STM32U0xx_HAL_Driver/Src/stm32u0xx_hal.c ****   * All rights reserved.
  26:Drivers/STM32U0xx_HAL_Driver/Src/stm32u0xx_hal.c ****   *
  27:Drivers/STM32U0xx_HAL_Driver/Src/stm32u0xx_hal.c ****   * This software is licensed under terms that can be found in the LICENSE file
  28:Drivers/STM32U0xx_HAL_Driver/Src/stm32u0xx_hal.c ****   * in the root directory of this software component.
  29:Drivers/STM32U0xx_HAL_Driver/Src/stm32u0xx_hal.c ****   * If no LICENSE file comes with this software, it is provided AS-IS.
  30:Drivers/STM32U0xx_HAL_Driver/Src/stm32u0xx_hal.c ****   *
  31:Drivers/STM32U0xx_HAL_Driver/Src/stm32u0xx_hal.c ****   ******************************************************************************
  32:Drivers/STM32U0xx_HAL_Driver/Src/stm32u0xx_hal.c ****   */
ARM GAS  C:\Users\upo\AppData\Local\Temp\ccsCunJj.s 			page 2


  33:Drivers/STM32U0xx_HAL_Driver/Src/stm32u0xx_hal.c **** 
  34:Drivers/STM32U0xx_HAL_Driver/Src/stm32u0xx_hal.c **** /* Includes ------------------------------------------------------------------*/
  35:Drivers/STM32U0xx_HAL_Driver/Src/stm32u0xx_hal.c **** #include "stm32u0xx_hal.h"
  36:Drivers/STM32U0xx_HAL_Driver/Src/stm32u0xx_hal.c **** 
  37:Drivers/STM32U0xx_HAL_Driver/Src/stm32u0xx_hal.c **** /** @addtogroup STM32U0xx_HAL_Driver
  38:Drivers/STM32U0xx_HAL_Driver/Src/stm32u0xx_hal.c ****   * @{
  39:Drivers/STM32U0xx_HAL_Driver/Src/stm32u0xx_hal.c ****   */
  40:Drivers/STM32U0xx_HAL_Driver/Src/stm32u0xx_hal.c **** 
  41:Drivers/STM32U0xx_HAL_Driver/Src/stm32u0xx_hal.c **** /** @addtogroup HAL
  42:Drivers/STM32U0xx_HAL_Driver/Src/stm32u0xx_hal.c ****   * @brief HAL module driver
  43:Drivers/STM32U0xx_HAL_Driver/Src/stm32u0xx_hal.c ****   * @{
  44:Drivers/STM32U0xx_HAL_Driver/Src/stm32u0xx_hal.c ****   */
  45:Drivers/STM32U0xx_HAL_Driver/Src/stm32u0xx_hal.c **** 
  46:Drivers/STM32U0xx_HAL_Driver/Src/stm32u0xx_hal.c **** #ifdef HAL_MODULE_ENABLED
  47:Drivers/STM32U0xx_HAL_Driver/Src/stm32u0xx_hal.c **** 
  48:Drivers/STM32U0xx_HAL_Driver/Src/stm32u0xx_hal.c **** /* Private typedef -----------------------------------------------------------*/
  49:Drivers/STM32U0xx_HAL_Driver/Src/stm32u0xx_hal.c **** /* Private define ------------------------------------------------------------*/
  50:Drivers/STM32U0xx_HAL_Driver/Src/stm32u0xx_hal.c **** 
  51:Drivers/STM32U0xx_HAL_Driver/Src/stm32u0xx_hal.c **** /** @defgroup HAL_Private_Constants HAL Private Constants
  52:Drivers/STM32U0xx_HAL_Driver/Src/stm32u0xx_hal.c ****   * @{
  53:Drivers/STM32U0xx_HAL_Driver/Src/stm32u0xx_hal.c ****   */
  54:Drivers/STM32U0xx_HAL_Driver/Src/stm32u0xx_hal.c **** /**
  55:Drivers/STM32U0xx_HAL_Driver/Src/stm32u0xx_hal.c ****   * @brief STM32U0xx HAL Driver version number
  56:Drivers/STM32U0xx_HAL_Driver/Src/stm32u0xx_hal.c ****   */
  57:Drivers/STM32U0xx_HAL_Driver/Src/stm32u0xx_hal.c **** #define __STM32U0xx_HAL_VERSION_MAIN   (0x01U) /*!< [31:24] main version */
  58:Drivers/STM32U0xx_HAL_Driver/Src/stm32u0xx_hal.c **** #define __STM32U0xx_HAL_VERSION_SUB1   (0x00U) /*!< [23:16] sub1 version */
  59:Drivers/STM32U0xx_HAL_Driver/Src/stm32u0xx_hal.c **** #define __STM32U0xx_HAL_VERSION_SUB2   (0x00U) /*!< [15:8]  sub2 version */
  60:Drivers/STM32U0xx_HAL_Driver/Src/stm32u0xx_hal.c **** #define __STM32U0xx_HAL_VERSION_RC     (0x00U) /*!< [7:0]  release candidate */
  61:Drivers/STM32U0xx_HAL_Driver/Src/stm32u0xx_hal.c **** #define __STM32U0xx_HAL_VERSION         ((__STM32U0xx_HAL_VERSION_MAIN << 24U)\
  62:Drivers/STM32U0xx_HAL_Driver/Src/stm32u0xx_hal.c ****                                          |(__STM32U0xx_HAL_VERSION_SUB1 << 16U)\
  63:Drivers/STM32U0xx_HAL_Driver/Src/stm32u0xx_hal.c ****                                          |(__STM32U0xx_HAL_VERSION_SUB2 << 8U )\
  64:Drivers/STM32U0xx_HAL_Driver/Src/stm32u0xx_hal.c ****                                          |(__STM32U0xx_HAL_VERSION_RC))
  65:Drivers/STM32U0xx_HAL_Driver/Src/stm32u0xx_hal.c **** 
  66:Drivers/STM32U0xx_HAL_Driver/Src/stm32u0xx_hal.c **** #if defined(VREFBUF)
  67:Drivers/STM32U0xx_HAL_Driver/Src/stm32u0xx_hal.c **** #define VREFBUF_TIMEOUT_VALUE     10U   /*!<  10 ms */
  68:Drivers/STM32U0xx_HAL_Driver/Src/stm32u0xx_hal.c **** #endif /* VREFBUF */
  69:Drivers/STM32U0xx_HAL_Driver/Src/stm32u0xx_hal.c **** 
  70:Drivers/STM32U0xx_HAL_Driver/Src/stm32u0xx_hal.c **** /**
  71:Drivers/STM32U0xx_HAL_Driver/Src/stm32u0xx_hal.c ****   * @}
  72:Drivers/STM32U0xx_HAL_Driver/Src/stm32u0xx_hal.c ****   */
  73:Drivers/STM32U0xx_HAL_Driver/Src/stm32u0xx_hal.c **** 
  74:Drivers/STM32U0xx_HAL_Driver/Src/stm32u0xx_hal.c **** /* Private macro -------------------------------------------------------------*/
  75:Drivers/STM32U0xx_HAL_Driver/Src/stm32u0xx_hal.c **** /* Exported variables ---------------------------------------------------------*/
  76:Drivers/STM32U0xx_HAL_Driver/Src/stm32u0xx_hal.c **** /** @defgroup HAL_Exported_Variables HAL Exported Variables
  77:Drivers/STM32U0xx_HAL_Driver/Src/stm32u0xx_hal.c ****   * @{
  78:Drivers/STM32U0xx_HAL_Driver/Src/stm32u0xx_hal.c ****   */
  79:Drivers/STM32U0xx_HAL_Driver/Src/stm32u0xx_hal.c **** __IO uint32_t uwTick;
  80:Drivers/STM32U0xx_HAL_Driver/Src/stm32u0xx_hal.c **** uint32_t uwTickPrio = (1UL << __NVIC_PRIO_BITS); /* Invalid PRIO */
  81:Drivers/STM32U0xx_HAL_Driver/Src/stm32u0xx_hal.c **** uint32_t uwTickFreq = HAL_TICK_FREQ_DEFAULT;  /* 1KHz */
  82:Drivers/STM32U0xx_HAL_Driver/Src/stm32u0xx_hal.c **** /**
  83:Drivers/STM32U0xx_HAL_Driver/Src/stm32u0xx_hal.c ****   * @}
  84:Drivers/STM32U0xx_HAL_Driver/Src/stm32u0xx_hal.c ****   */
  85:Drivers/STM32U0xx_HAL_Driver/Src/stm32u0xx_hal.c **** 
  86:Drivers/STM32U0xx_HAL_Driver/Src/stm32u0xx_hal.c **** /* Private function prototypes -----------------------------------------------*/
  87:Drivers/STM32U0xx_HAL_Driver/Src/stm32u0xx_hal.c **** /* Exported functions --------------------------------------------------------*/
  88:Drivers/STM32U0xx_HAL_Driver/Src/stm32u0xx_hal.c **** 
  89:Drivers/STM32U0xx_HAL_Driver/Src/stm32u0xx_hal.c **** /** @addtogroup HAL_Exported_Functions
ARM GAS  C:\Users\upo\AppData\Local\Temp\ccsCunJj.s 			page 3


  90:Drivers/STM32U0xx_HAL_Driver/Src/stm32u0xx_hal.c ****   * @{
  91:Drivers/STM32U0xx_HAL_Driver/Src/stm32u0xx_hal.c ****   */
  92:Drivers/STM32U0xx_HAL_Driver/Src/stm32u0xx_hal.c **** 
  93:Drivers/STM32U0xx_HAL_Driver/Src/stm32u0xx_hal.c **** /** @addtogroup HAL_Exported_Functions_Group1
  94:Drivers/STM32U0xx_HAL_Driver/Src/stm32u0xx_hal.c ****   *  @brief    HAL Initialization and Configuration functions
  95:Drivers/STM32U0xx_HAL_Driver/Src/stm32u0xx_hal.c ****   *
  96:Drivers/STM32U0xx_HAL_Driver/Src/stm32u0xx_hal.c **** @verbatim
  97:Drivers/STM32U0xx_HAL_Driver/Src/stm32u0xx_hal.c ****  ===============================================================================
  98:Drivers/STM32U0xx_HAL_Driver/Src/stm32u0xx_hal.c ****            ##### HAL Initialization and Configuration functions #####
  99:Drivers/STM32U0xx_HAL_Driver/Src/stm32u0xx_hal.c ****  ===============================================================================
 100:Drivers/STM32U0xx_HAL_Driver/Src/stm32u0xx_hal.c ****     [..]  This section provides functions allowing to:
 101:Drivers/STM32U0xx_HAL_Driver/Src/stm32u0xx_hal.c ****       (+) Initialize the Flash interface the NVIC allocation and initial time base
 102:Drivers/STM32U0xx_HAL_Driver/Src/stm32u0xx_hal.c ****           clock configuration.
 103:Drivers/STM32U0xx_HAL_Driver/Src/stm32u0xx_hal.c ****       (+) De-initialize common part of the HAL.
 104:Drivers/STM32U0xx_HAL_Driver/Src/stm32u0xx_hal.c ****       (+) Configure the time base source to have 1ms time base with a dedicated
 105:Drivers/STM32U0xx_HAL_Driver/Src/stm32u0xx_hal.c ****           Tick interrupt priority.
 106:Drivers/STM32U0xx_HAL_Driver/Src/stm32u0xx_hal.c ****         (++) SysTick timer is used by default as source of time base, but user
 107:Drivers/STM32U0xx_HAL_Driver/Src/stm32u0xx_hal.c ****              can eventually implement his proper time base source (a general purpose
 108:Drivers/STM32U0xx_HAL_Driver/Src/stm32u0xx_hal.c ****              timer for example or other time source), keeping in mind that Time base
 109:Drivers/STM32U0xx_HAL_Driver/Src/stm32u0xx_hal.c ****              duration should be kept 1ms since PPP_TIMEOUT_VALUEs are defined and
 110:Drivers/STM32U0xx_HAL_Driver/Src/stm32u0xx_hal.c ****              handled in milliseconds basis.
 111:Drivers/STM32U0xx_HAL_Driver/Src/stm32u0xx_hal.c ****         (++) Time base configuration function (HAL_InitTick ()) is called automatically
 112:Drivers/STM32U0xx_HAL_Driver/Src/stm32u0xx_hal.c ****              at the beginning of the program after reset by HAL_Init() or at any time
 113:Drivers/STM32U0xx_HAL_Driver/Src/stm32u0xx_hal.c ****              when clock is configured, by HAL_RCC_ClockConfig().
 114:Drivers/STM32U0xx_HAL_Driver/Src/stm32u0xx_hal.c ****         (++) Source of time base is configured  to generate interrupts at regular
 115:Drivers/STM32U0xx_HAL_Driver/Src/stm32u0xx_hal.c ****              time intervals. Care must be taken if HAL_Delay() is called from a
 116:Drivers/STM32U0xx_HAL_Driver/Src/stm32u0xx_hal.c ****              peripheral ISR process, the Tick interrupt line must have higher priority
 117:Drivers/STM32U0xx_HAL_Driver/Src/stm32u0xx_hal.c ****             (numerically lower) than the peripheral interrupt. Otherwise the caller
 118:Drivers/STM32U0xx_HAL_Driver/Src/stm32u0xx_hal.c ****             ISR process will be blocked.
 119:Drivers/STM32U0xx_HAL_Driver/Src/stm32u0xx_hal.c ****        (++) functions affecting time base configurations are declared as __weak
 120:Drivers/STM32U0xx_HAL_Driver/Src/stm32u0xx_hal.c ****              to make  override possible  in case of other  implementations in user file.
 121:Drivers/STM32U0xx_HAL_Driver/Src/stm32u0xx_hal.c **** @endverbatim
 122:Drivers/STM32U0xx_HAL_Driver/Src/stm32u0xx_hal.c ****   * @{
 123:Drivers/STM32U0xx_HAL_Driver/Src/stm32u0xx_hal.c ****   */
 124:Drivers/STM32U0xx_HAL_Driver/Src/stm32u0xx_hal.c **** 
 125:Drivers/STM32U0xx_HAL_Driver/Src/stm32u0xx_hal.c **** /**
 126:Drivers/STM32U0xx_HAL_Driver/Src/stm32u0xx_hal.c ****   * @brief  Configure the Flash prefetch and the Instruction cache,
 127:Drivers/STM32U0xx_HAL_Driver/Src/stm32u0xx_hal.c ****   *         the time base source, NVIC and any required global low level hardware
 128:Drivers/STM32U0xx_HAL_Driver/Src/stm32u0xx_hal.c ****   *         by calling the HAL_MspInit() callback function to be optionally defined in user file
 129:Drivers/STM32U0xx_HAL_Driver/Src/stm32u0xx_hal.c ****   *         stm32g0xx_hal_msp.c.
 130:Drivers/STM32U0xx_HAL_Driver/Src/stm32u0xx_hal.c ****   *
 131:Drivers/STM32U0xx_HAL_Driver/Src/stm32u0xx_hal.c ****   * @note   HAL_Init() function is called at the beginning of program after reset and before
 132:Drivers/STM32U0xx_HAL_Driver/Src/stm32u0xx_hal.c ****   *         the clock configuration.
 133:Drivers/STM32U0xx_HAL_Driver/Src/stm32u0xx_hal.c ****   *
 134:Drivers/STM32U0xx_HAL_Driver/Src/stm32u0xx_hal.c ****   * @note   In the default implementation the System Timer (Systick) is used as source of time base
 135:Drivers/STM32U0xx_HAL_Driver/Src/stm32u0xx_hal.c ****   *         The Systick configuration is based on HSI clock, as HSI is the clock
 136:Drivers/STM32U0xx_HAL_Driver/Src/stm32u0xx_hal.c ****   *         used after a system Reset.
 137:Drivers/STM32U0xx_HAL_Driver/Src/stm32u0xx_hal.c ****   *         Once done, time base tick starts incrementing: the tick variable counter is incremented
 138:Drivers/STM32U0xx_HAL_Driver/Src/stm32u0xx_hal.c ****   *         each 1ms in the SysTick_Handler() interrupt handler.
 139:Drivers/STM32U0xx_HAL_Driver/Src/stm32u0xx_hal.c ****   *
 140:Drivers/STM32U0xx_HAL_Driver/Src/stm32u0xx_hal.c ****   * @retval HAL status
 141:Drivers/STM32U0xx_HAL_Driver/Src/stm32u0xx_hal.c ****   */
 142:Drivers/STM32U0xx_HAL_Driver/Src/stm32u0xx_hal.c **** HAL_StatusTypeDef HAL_Init(void)
 143:Drivers/STM32U0xx_HAL_Driver/Src/stm32u0xx_hal.c **** {
 144:Drivers/STM32U0xx_HAL_Driver/Src/stm32u0xx_hal.c ****   HAL_StatusTypeDef  status = HAL_OK;
 145:Drivers/STM32U0xx_HAL_Driver/Src/stm32u0xx_hal.c **** 
 146:Drivers/STM32U0xx_HAL_Driver/Src/stm32u0xx_hal.c ****   /* Configure Flash prefetch, Instruction cache             */
ARM GAS  C:\Users\upo\AppData\Local\Temp\ccsCunJj.s 			page 4


 147:Drivers/STM32U0xx_HAL_Driver/Src/stm32u0xx_hal.c ****   /* Default configuration at reset is:                      */
 148:Drivers/STM32U0xx_HAL_Driver/Src/stm32u0xx_hal.c ****   /* - Prefetch disabled                                     */
 149:Drivers/STM32U0xx_HAL_Driver/Src/stm32u0xx_hal.c ****   /* - Instruction cache enabled                             */
 150:Drivers/STM32U0xx_HAL_Driver/Src/stm32u0xx_hal.c **** 
 151:Drivers/STM32U0xx_HAL_Driver/Src/stm32u0xx_hal.c **** #if (INSTRUCTION_CACHE_ENABLE == 0U)
 152:Drivers/STM32U0xx_HAL_Driver/Src/stm32u0xx_hal.c ****   __HAL_FLASH_INSTRUCTION_CACHE_DISABLE();
 153:Drivers/STM32U0xx_HAL_Driver/Src/stm32u0xx_hal.c **** #endif /* INSTRUCTION_CACHE_ENABLE */
 154:Drivers/STM32U0xx_HAL_Driver/Src/stm32u0xx_hal.c **** 
 155:Drivers/STM32U0xx_HAL_Driver/Src/stm32u0xx_hal.c **** #if (PREFETCH_ENABLE != 0U)
 156:Drivers/STM32U0xx_HAL_Driver/Src/stm32u0xx_hal.c ****   __HAL_FLASH_PREFETCH_BUFFER_ENABLE();
 157:Drivers/STM32U0xx_HAL_Driver/Src/stm32u0xx_hal.c **** #endif /* PREFETCH_ENABLE */
 158:Drivers/STM32U0xx_HAL_Driver/Src/stm32u0xx_hal.c **** 
 159:Drivers/STM32U0xx_HAL_Driver/Src/stm32u0xx_hal.c ****   /* Use SysTick as time base source and configure 1ms tick (default clock after Reset is HSI) */
 160:Drivers/STM32U0xx_HAL_Driver/Src/stm32u0xx_hal.c ****   if (HAL_InitTick(TICK_INT_PRIORITY) != HAL_OK)
 161:Drivers/STM32U0xx_HAL_Driver/Src/stm32u0xx_hal.c ****   {
 162:Drivers/STM32U0xx_HAL_Driver/Src/stm32u0xx_hal.c ****     status = HAL_ERROR;
 163:Drivers/STM32U0xx_HAL_Driver/Src/stm32u0xx_hal.c ****   }
 164:Drivers/STM32U0xx_HAL_Driver/Src/stm32u0xx_hal.c ****   else
 165:Drivers/STM32U0xx_HAL_Driver/Src/stm32u0xx_hal.c ****   {
 166:Drivers/STM32U0xx_HAL_Driver/Src/stm32u0xx_hal.c ****     /* Init the low level hardware */
 167:Drivers/STM32U0xx_HAL_Driver/Src/stm32u0xx_hal.c ****     HAL_MspInit();
 168:Drivers/STM32U0xx_HAL_Driver/Src/stm32u0xx_hal.c ****   }
 169:Drivers/STM32U0xx_HAL_Driver/Src/stm32u0xx_hal.c **** 
 170:Drivers/STM32U0xx_HAL_Driver/Src/stm32u0xx_hal.c ****   /* Return function status */
 171:Drivers/STM32U0xx_HAL_Driver/Src/stm32u0xx_hal.c ****   return status;
 172:Drivers/STM32U0xx_HAL_Driver/Src/stm32u0xx_hal.c **** }
 173:Drivers/STM32U0xx_HAL_Driver/Src/stm32u0xx_hal.c **** 
 174:Drivers/STM32U0xx_HAL_Driver/Src/stm32u0xx_hal.c **** /**
 175:Drivers/STM32U0xx_HAL_Driver/Src/stm32u0xx_hal.c ****   * @brief  This function de-Initializes common part of the HAL and stops the source of time base.
 176:Drivers/STM32U0xx_HAL_Driver/Src/stm32u0xx_hal.c ****   * @note   This function is optional.
 177:Drivers/STM32U0xx_HAL_Driver/Src/stm32u0xx_hal.c ****   * @retval HAL status
 178:Drivers/STM32U0xx_HAL_Driver/Src/stm32u0xx_hal.c ****   */
 179:Drivers/STM32U0xx_HAL_Driver/Src/stm32u0xx_hal.c **** HAL_StatusTypeDef HAL_DeInit(void)
 180:Drivers/STM32U0xx_HAL_Driver/Src/stm32u0xx_hal.c **** {
 181:Drivers/STM32U0xx_HAL_Driver/Src/stm32u0xx_hal.c ****   /* Reset of all peripherals */
 182:Drivers/STM32U0xx_HAL_Driver/Src/stm32u0xx_hal.c ****   __HAL_RCC_APB1_GRP1_FORCE_RESET();
 183:Drivers/STM32U0xx_HAL_Driver/Src/stm32u0xx_hal.c ****   __HAL_RCC_APB1_GRP1_RELEASE_RESET();
 184:Drivers/STM32U0xx_HAL_Driver/Src/stm32u0xx_hal.c **** 
 185:Drivers/STM32U0xx_HAL_Driver/Src/stm32u0xx_hal.c ****   __HAL_RCC_APB1_GRP2_FORCE_RESET();
 186:Drivers/STM32U0xx_HAL_Driver/Src/stm32u0xx_hal.c ****   __HAL_RCC_APB1_GRP2_RELEASE_RESET();
 187:Drivers/STM32U0xx_HAL_Driver/Src/stm32u0xx_hal.c **** 
 188:Drivers/STM32U0xx_HAL_Driver/Src/stm32u0xx_hal.c ****   __HAL_RCC_AHB_FORCE_RESET();
 189:Drivers/STM32U0xx_HAL_Driver/Src/stm32u0xx_hal.c ****   __HAL_RCC_AHB_RELEASE_RESET();
 190:Drivers/STM32U0xx_HAL_Driver/Src/stm32u0xx_hal.c **** 
 191:Drivers/STM32U0xx_HAL_Driver/Src/stm32u0xx_hal.c ****   __HAL_RCC_IOP_FORCE_RESET();
 192:Drivers/STM32U0xx_HAL_Driver/Src/stm32u0xx_hal.c ****   __HAL_RCC_IOP_RELEASE_RESET();
 193:Drivers/STM32U0xx_HAL_Driver/Src/stm32u0xx_hal.c ****   /* De-Init the low level hardware */
 194:Drivers/STM32U0xx_HAL_Driver/Src/stm32u0xx_hal.c ****   HAL_MspDeInit();
 195:Drivers/STM32U0xx_HAL_Driver/Src/stm32u0xx_hal.c **** 
 196:Drivers/STM32U0xx_HAL_Driver/Src/stm32u0xx_hal.c ****   /* Return function status */
 197:Drivers/STM32U0xx_HAL_Driver/Src/stm32u0xx_hal.c ****   return HAL_OK;
 198:Drivers/STM32U0xx_HAL_Driver/Src/stm32u0xx_hal.c **** }
 199:Drivers/STM32U0xx_HAL_Driver/Src/stm32u0xx_hal.c **** 
 200:Drivers/STM32U0xx_HAL_Driver/Src/stm32u0xx_hal.c **** /**
 201:Drivers/STM32U0xx_HAL_Driver/Src/stm32u0xx_hal.c ****   * @brief  Initialize the MSP.
 202:Drivers/STM32U0xx_HAL_Driver/Src/stm32u0xx_hal.c ****   * @retval None
 203:Drivers/STM32U0xx_HAL_Driver/Src/stm32u0xx_hal.c ****   */
ARM GAS  C:\Users\upo\AppData\Local\Temp\ccsCunJj.s 			page 5


 204:Drivers/STM32U0xx_HAL_Driver/Src/stm32u0xx_hal.c **** __weak void HAL_MspInit(void)
 205:Drivers/STM32U0xx_HAL_Driver/Src/stm32u0xx_hal.c **** {
  27              		.loc 1 205 1 view -0
  28              		.cfi_startproc
  29              		@ args = 0, pretend = 0, frame = 0
  30              		@ frame_needed = 0, uses_anonymous_args = 0
  31              		@ link register save eliminated.
 206:Drivers/STM32U0xx_HAL_Driver/Src/stm32u0xx_hal.c ****   /* NOTE : This function should not be modified, when the callback is needed,
 207:Drivers/STM32U0xx_HAL_Driver/Src/stm32u0xx_hal.c ****             the HAL_MspInit could be implemented in the user file
 208:Drivers/STM32U0xx_HAL_Driver/Src/stm32u0xx_hal.c ****    */
 209:Drivers/STM32U0xx_HAL_Driver/Src/stm32u0xx_hal.c **** }
  32              		.loc 1 209 1 view .LVU1
  33              		@ sp needed
  34 0000 7047     		bx	lr
  35              		.cfi_endproc
  36              	.LFE336:
  38              		.section	.text.HAL_MspDeInit,"ax",%progbits
  39              		.align	1
  40              		.weak	HAL_MspDeInit
  41              		.syntax unified
  42              		.code	16
  43              		.thumb_func
  45              	HAL_MspDeInit:
  46              	.LFB337:
 210:Drivers/STM32U0xx_HAL_Driver/Src/stm32u0xx_hal.c **** 
 211:Drivers/STM32U0xx_HAL_Driver/Src/stm32u0xx_hal.c **** /**
 212:Drivers/STM32U0xx_HAL_Driver/Src/stm32u0xx_hal.c ****   * @brief  DeInitializes the MSP.
 213:Drivers/STM32U0xx_HAL_Driver/Src/stm32u0xx_hal.c ****   * @retval None
 214:Drivers/STM32U0xx_HAL_Driver/Src/stm32u0xx_hal.c ****   */
 215:Drivers/STM32U0xx_HAL_Driver/Src/stm32u0xx_hal.c **** __weak void HAL_MspDeInit(void)
 216:Drivers/STM32U0xx_HAL_Driver/Src/stm32u0xx_hal.c **** {
  47              		.loc 1 216 1 view -0
  48              		.cfi_startproc
  49              		@ args = 0, pretend = 0, frame = 0
  50              		@ frame_needed = 0, uses_anonymous_args = 0
  51              		@ link register save eliminated.
 217:Drivers/STM32U0xx_HAL_Driver/Src/stm32u0xx_hal.c ****   /* NOTE : This function should not be modified, when the callback is needed,
 218:Drivers/STM32U0xx_HAL_Driver/Src/stm32u0xx_hal.c ****             the HAL_MspDeInit could be implemented in the user file
 219:Drivers/STM32U0xx_HAL_Driver/Src/stm32u0xx_hal.c ****    */
 220:Drivers/STM32U0xx_HAL_Driver/Src/stm32u0xx_hal.c **** }
  52              		.loc 1 220 1 view .LVU3
  53              		@ sp needed
  54 0000 7047     		bx	lr
  55              		.cfi_endproc
  56              	.LFE337:
  58              		.section	.text.HAL_DeInit,"ax",%progbits
  59              		.align	1
  60              		.global	HAL_DeInit
  61              		.syntax unified
  62              		.code	16
  63              		.thumb_func
  65              	HAL_DeInit:
  66              	.LFB335:
 180:Drivers/STM32U0xx_HAL_Driver/Src/stm32u0xx_hal.c ****   /* Reset of all peripherals */
  67              		.loc 1 180 1 view -0
  68              		.cfi_startproc
  69              		@ args = 0, pretend = 0, frame = 0
ARM GAS  C:\Users\upo\AppData\Local\Temp\ccsCunJj.s 			page 6


  70              		@ frame_needed = 0, uses_anonymous_args = 0
  71 0000 10B5     		push	{r4, lr}
  72              	.LCFI0:
  73              		.cfi_def_cfa_offset 8
  74              		.cfi_offset 4, -8
  75              		.cfi_offset 14, -4
 182:Drivers/STM32U0xx_HAL_Driver/Src/stm32u0xx_hal.c ****   __HAL_RCC_APB1_GRP1_RELEASE_RESET();
  76              		.loc 1 182 3 view .LVU5
 182:Drivers/STM32U0xx_HAL_Driver/Src/stm32u0xx_hal.c ****   __HAL_RCC_APB1_GRP1_RELEASE_RESET();
  77              		.loc 1 182 3 view .LVU6
  78 0002 084B     		ldr	r3, .L4
  79 0004 0121     		movs	r1, #1
  80 0006 4942     		rsbs	r1, r1, #0
  81 0008 9963     		str	r1, [r3, #56]
 182:Drivers/STM32U0xx_HAL_Driver/Src/stm32u0xx_hal.c ****   __HAL_RCC_APB1_GRP1_RELEASE_RESET();
  82              		.loc 1 182 3 view .LVU7
 183:Drivers/STM32U0xx_HAL_Driver/Src/stm32u0xx_hal.c **** 
  83              		.loc 1 183 3 view .LVU8
 183:Drivers/STM32U0xx_HAL_Driver/Src/stm32u0xx_hal.c **** 
  84              		.loc 1 183 3 view .LVU9
  85 000a 0022     		movs	r2, #0
  86 000c 9A63     		str	r2, [r3, #56]
 183:Drivers/STM32U0xx_HAL_Driver/Src/stm32u0xx_hal.c **** 
  87              		.loc 1 183 3 view .LVU10
 185:Drivers/STM32U0xx_HAL_Driver/Src/stm32u0xx_hal.c ****   __HAL_RCC_APB1_GRP2_RELEASE_RESET();
  88              		.loc 1 185 3 view .LVU11
  89 000e 1964     		str	r1, [r3, #64]
 186:Drivers/STM32U0xx_HAL_Driver/Src/stm32u0xx_hal.c **** 
  90              		.loc 1 186 3 view .LVU12
  91 0010 1A64     		str	r2, [r3, #64]
 188:Drivers/STM32U0xx_HAL_Driver/Src/stm32u0xx_hal.c ****   __HAL_RCC_AHB_RELEASE_RESET();
  92              		.loc 1 188 3 view .LVU13
 188:Drivers/STM32U0xx_HAL_Driver/Src/stm32u0xx_hal.c ****   __HAL_RCC_AHB_RELEASE_RESET();
  93              		.loc 1 188 3 view .LVU14
  94 0012 9962     		str	r1, [r3, #40]
 188:Drivers/STM32U0xx_HAL_Driver/Src/stm32u0xx_hal.c ****   __HAL_RCC_AHB_RELEASE_RESET();
  95              		.loc 1 188 3 view .LVU15
 189:Drivers/STM32U0xx_HAL_Driver/Src/stm32u0xx_hal.c **** 
  96              		.loc 1 189 3 view .LVU16
 189:Drivers/STM32U0xx_HAL_Driver/Src/stm32u0xx_hal.c **** 
  97              		.loc 1 189 3 view .LVU17
  98 0014 9A62     		str	r2, [r3, #40]
 189:Drivers/STM32U0xx_HAL_Driver/Src/stm32u0xx_hal.c **** 
  99              		.loc 1 189 3 view .LVU18
 191:Drivers/STM32U0xx_HAL_Driver/Src/stm32u0xx_hal.c ****   __HAL_RCC_IOP_RELEASE_RESET();
 100              		.loc 1 191 3 view .LVU19
 191:Drivers/STM32U0xx_HAL_Driver/Src/stm32u0xx_hal.c ****   __HAL_RCC_IOP_RELEASE_RESET();
 101              		.loc 1 191 3 view .LVU20
 102 0016 D962     		str	r1, [r3, #44]
 191:Drivers/STM32U0xx_HAL_Driver/Src/stm32u0xx_hal.c ****   __HAL_RCC_IOP_RELEASE_RESET();
 103              		.loc 1 191 3 view .LVU21
 192:Drivers/STM32U0xx_HAL_Driver/Src/stm32u0xx_hal.c ****   /* De-Init the low level hardware */
 104              		.loc 1 192 3 view .LVU22
 192:Drivers/STM32U0xx_HAL_Driver/Src/stm32u0xx_hal.c ****   /* De-Init the low level hardware */
 105              		.loc 1 192 3 view .LVU23
 106 0018 DA62     		str	r2, [r3, #44]
 192:Drivers/STM32U0xx_HAL_Driver/Src/stm32u0xx_hal.c ****   /* De-Init the low level hardware */
ARM GAS  C:\Users\upo\AppData\Local\Temp\ccsCunJj.s 			page 7


 107              		.loc 1 192 3 view .LVU24
 194:Drivers/STM32U0xx_HAL_Driver/Src/stm32u0xx_hal.c **** 
 108              		.loc 1 194 3 view .LVU25
 109 001a FFF7FEFF 		bl	HAL_MspDeInit
 110              	.LVL0:
 197:Drivers/STM32U0xx_HAL_Driver/Src/stm32u0xx_hal.c **** }
 111              		.loc 1 197 3 view .LVU26
 198:Drivers/STM32U0xx_HAL_Driver/Src/stm32u0xx_hal.c **** 
 112              		.loc 1 198 1 is_stmt 0 view .LVU27
 113 001e 0020     		movs	r0, #0
 114              		@ sp needed
 115 0020 10BD     		pop	{r4, pc}
 116              	.L5:
 117 0022 C046     		.align	2
 118              	.L4:
 119 0024 00100240 		.word	1073876992
 120              		.cfi_endproc
 121              	.LFE335:
 123              		.global	__aeabi_uidiv
 124              		.section	.text.HAL_InitTick,"ax",%progbits
 125              		.align	1
 126              		.weak	HAL_InitTick
 127              		.syntax unified
 128              		.code	16
 129              		.thumb_func
 131              	HAL_InitTick:
 132              	.LVL1:
 133              	.LFB338:
 221:Drivers/STM32U0xx_HAL_Driver/Src/stm32u0xx_hal.c **** 
 222:Drivers/STM32U0xx_HAL_Driver/Src/stm32u0xx_hal.c **** /**
 223:Drivers/STM32U0xx_HAL_Driver/Src/stm32u0xx_hal.c ****   * @brief This function configures the source of the time base:
 224:Drivers/STM32U0xx_HAL_Driver/Src/stm32u0xx_hal.c ****   *        The time source is configured  to have 1ms time base with a dedicated
 225:Drivers/STM32U0xx_HAL_Driver/Src/stm32u0xx_hal.c ****   *        Tick interrupt priority.
 226:Drivers/STM32U0xx_HAL_Driver/Src/stm32u0xx_hal.c ****   * @note This function is called  automatically at the beginning of program after
 227:Drivers/STM32U0xx_HAL_Driver/Src/stm32u0xx_hal.c ****   *       reset by HAL_Init() or at any time when clock is reconfigured  by HAL_RCC_ClockConfig().
 228:Drivers/STM32U0xx_HAL_Driver/Src/stm32u0xx_hal.c ****   * @note In the default implementation, SysTick timer is the source of time base.
 229:Drivers/STM32U0xx_HAL_Driver/Src/stm32u0xx_hal.c ****   *       It is used to generate interrupts at regular time intervals.
 230:Drivers/STM32U0xx_HAL_Driver/Src/stm32u0xx_hal.c ****   *       Care must be taken if HAL_Delay() is called from a peripheral ISR process,
 231:Drivers/STM32U0xx_HAL_Driver/Src/stm32u0xx_hal.c ****   *       The SysTick interrupt must have higher priority (numerically lower)
 232:Drivers/STM32U0xx_HAL_Driver/Src/stm32u0xx_hal.c ****   *       than the peripheral interrupt. Otherwise the caller ISR process will be blocked.
 233:Drivers/STM32U0xx_HAL_Driver/Src/stm32u0xx_hal.c ****   *       The function is declared as __weak  to be overwritten  in case of other
 234:Drivers/STM32U0xx_HAL_Driver/Src/stm32u0xx_hal.c ****   *       implementation  in user file.
 235:Drivers/STM32U0xx_HAL_Driver/Src/stm32u0xx_hal.c ****   * @param TickPriority Tick interrupt priority.
 236:Drivers/STM32U0xx_HAL_Driver/Src/stm32u0xx_hal.c ****   * @retval HAL status
 237:Drivers/STM32U0xx_HAL_Driver/Src/stm32u0xx_hal.c ****   */
 238:Drivers/STM32U0xx_HAL_Driver/Src/stm32u0xx_hal.c **** __weak HAL_StatusTypeDef HAL_InitTick(uint32_t TickPriority)
 239:Drivers/STM32U0xx_HAL_Driver/Src/stm32u0xx_hal.c **** {
 134              		.loc 1 239 1 is_stmt 1 view -0
 135              		.cfi_startproc
 136              		@ args = 0, pretend = 0, frame = 0
 137              		@ frame_needed = 0, uses_anonymous_args = 0
 138              		.loc 1 239 1 is_stmt 0 view .LVU29
 139 0000 10B5     		push	{r4, lr}
 140              	.LCFI1:
 141              		.cfi_def_cfa_offset 8
 142              		.cfi_offset 4, -8
 143              		.cfi_offset 14, -4
ARM GAS  C:\Users\upo\AppData\Local\Temp\ccsCunJj.s 			page 8


 144 0002 0400     		movs	r4, r0
 240:Drivers/STM32U0xx_HAL_Driver/Src/stm32u0xx_hal.c ****   HAL_StatusTypeDef  status = HAL_OK;
 145              		.loc 1 240 3 is_stmt 1 view .LVU30
 146              	.LVL2:
 241:Drivers/STM32U0xx_HAL_Driver/Src/stm32u0xx_hal.c **** 
 242:Drivers/STM32U0xx_HAL_Driver/Src/stm32u0xx_hal.c ****   if (uwTickFreq != 0U)
 147              		.loc 1 242 3 view .LVU31
 148              		.loc 1 242 18 is_stmt 0 view .LVU32
 149 0004 114B     		ldr	r3, .L13
 150 0006 1968     		ldr	r1, [r3]
 151              		.loc 1 242 6 view .LVU33
 152 0008 0029     		cmp	r1, #0
 153 000a 01D1     		bne	.L11
 243:Drivers/STM32U0xx_HAL_Driver/Src/stm32u0xx_hal.c ****   {
 244:Drivers/STM32U0xx_HAL_Driver/Src/stm32u0xx_hal.c ****     /*Configure the SysTick to have interrupt in 1ms time basis*/
 245:Drivers/STM32U0xx_HAL_Driver/Src/stm32u0xx_hal.c ****     if (HAL_SYSTICK_Config(SystemCoreClock / (1000U / uwTickFreq)) == 0U)
 246:Drivers/STM32U0xx_HAL_Driver/Src/stm32u0xx_hal.c ****     {
 247:Drivers/STM32U0xx_HAL_Driver/Src/stm32u0xx_hal.c ****       /* Configure the SysTick IRQ priority */
 248:Drivers/STM32U0xx_HAL_Driver/Src/stm32u0xx_hal.c ****       if (TickPriority < (1UL << __NVIC_PRIO_BITS))
 249:Drivers/STM32U0xx_HAL_Driver/Src/stm32u0xx_hal.c ****       {
 250:Drivers/STM32U0xx_HAL_Driver/Src/stm32u0xx_hal.c ****         HAL_NVIC_SetPriority(SysTick_IRQn, TickPriority, 0U);
 251:Drivers/STM32U0xx_HAL_Driver/Src/stm32u0xx_hal.c ****         uwTickPrio = TickPriority;
 252:Drivers/STM32U0xx_HAL_Driver/Src/stm32u0xx_hal.c ****       }
 253:Drivers/STM32U0xx_HAL_Driver/Src/stm32u0xx_hal.c ****       else
 254:Drivers/STM32U0xx_HAL_Driver/Src/stm32u0xx_hal.c ****       {
 255:Drivers/STM32U0xx_HAL_Driver/Src/stm32u0xx_hal.c ****         status = HAL_ERROR;
 256:Drivers/STM32U0xx_HAL_Driver/Src/stm32u0xx_hal.c ****       }
 257:Drivers/STM32U0xx_HAL_Driver/Src/stm32u0xx_hal.c ****     }
 258:Drivers/STM32U0xx_HAL_Driver/Src/stm32u0xx_hal.c ****     else
 259:Drivers/STM32U0xx_HAL_Driver/Src/stm32u0xx_hal.c ****     {
 260:Drivers/STM32U0xx_HAL_Driver/Src/stm32u0xx_hal.c ****       status = HAL_ERROR;
 261:Drivers/STM32U0xx_HAL_Driver/Src/stm32u0xx_hal.c ****     }
 262:Drivers/STM32U0xx_HAL_Driver/Src/stm32u0xx_hal.c ****   }
 263:Drivers/STM32U0xx_HAL_Driver/Src/stm32u0xx_hal.c ****   else
 264:Drivers/STM32U0xx_HAL_Driver/Src/stm32u0xx_hal.c ****   {
 265:Drivers/STM32U0xx_HAL_Driver/Src/stm32u0xx_hal.c ****     status = HAL_ERROR;
 154              		.loc 1 265 12 view .LVU34
 155 000c 0120     		movs	r0, #1
 156              	.LVL3:
 157              	.L7:
 266:Drivers/STM32U0xx_HAL_Driver/Src/stm32u0xx_hal.c ****   }
 267:Drivers/STM32U0xx_HAL_Driver/Src/stm32u0xx_hal.c **** 
 268:Drivers/STM32U0xx_HAL_Driver/Src/stm32u0xx_hal.c ****   /* Return function status */
 269:Drivers/STM32U0xx_HAL_Driver/Src/stm32u0xx_hal.c ****   return status;
 158              		.loc 1 269 3 is_stmt 1 view .LVU35
 270:Drivers/STM32U0xx_HAL_Driver/Src/stm32u0xx_hal.c **** }
 159              		.loc 1 270 1 is_stmt 0 view .LVU36
 160              		@ sp needed
 161              	.LVL4:
 162              		.loc 1 270 1 view .LVU37
 163 000e 10BD     		pop	{r4, pc}
 164              	.LVL5:
 165              	.L11:
 245:Drivers/STM32U0xx_HAL_Driver/Src/stm32u0xx_hal.c ****     {
 166              		.loc 1 245 5 is_stmt 1 view .LVU38
 245:Drivers/STM32U0xx_HAL_Driver/Src/stm32u0xx_hal.c ****     {
 167              		.loc 1 245 53 is_stmt 0 view .LVU39
ARM GAS  C:\Users\upo\AppData\Local\Temp\ccsCunJj.s 			page 9


 168 0010 FA20     		movs	r0, #250
 169              	.LVL6:
 245:Drivers/STM32U0xx_HAL_Driver/Src/stm32u0xx_hal.c ****     {
 170              		.loc 1 245 53 view .LVU40
 171 0012 8000     		lsls	r0, r0, #2
 172 0014 FFF7FEFF 		bl	__aeabi_uidiv
 173              	.LVL7:
 174 0018 0100     		movs	r1, r0
 245:Drivers/STM32U0xx_HAL_Driver/Src/stm32u0xx_hal.c ****     {
 175              		.loc 1 245 9 view .LVU41
 176 001a 0D4B     		ldr	r3, .L13+4
 177 001c 1868     		ldr	r0, [r3]
 178 001e FFF7FEFF 		bl	__aeabi_uidiv
 179              	.LVL8:
 180 0022 FFF7FEFF 		bl	HAL_SYSTICK_Config
 181              	.LVL9:
 245:Drivers/STM32U0xx_HAL_Driver/Src/stm32u0xx_hal.c ****     {
 182              		.loc 1 245 8 view .LVU42
 183 0026 0028     		cmp	r0, #0
 184 0028 0DD1     		bne	.L9
 248:Drivers/STM32U0xx_HAL_Driver/Src/stm32u0xx_hal.c ****       {
 185              		.loc 1 248 7 is_stmt 1 view .LVU43
 248:Drivers/STM32U0xx_HAL_Driver/Src/stm32u0xx_hal.c ****       {
 186              		.loc 1 248 10 is_stmt 0 view .LVU44
 187 002a 032C     		cmp	r4, #3
 188 002c 01D9     		bls	.L12
 255:Drivers/STM32U0xx_HAL_Driver/Src/stm32u0xx_hal.c ****       }
 189              		.loc 1 255 16 view .LVU45
 190 002e 0120     		movs	r0, #1
 191 0030 EDE7     		b	.L7
 192              	.L12:
 250:Drivers/STM32U0xx_HAL_Driver/Src/stm32u0xx_hal.c ****         uwTickPrio = TickPriority;
 193              		.loc 1 250 9 is_stmt 1 view .LVU46
 194 0032 0130     		adds	r0, r0, #1
 195 0034 0022     		movs	r2, #0
 196 0036 2100     		movs	r1, r4
 197 0038 4042     		rsbs	r0, r0, #0
 198 003a FFF7FEFF 		bl	HAL_NVIC_SetPriority
 199              	.LVL10:
 251:Drivers/STM32U0xx_HAL_Driver/Src/stm32u0xx_hal.c ****       }
 200              		.loc 1 251 9 view .LVU47
 251:Drivers/STM32U0xx_HAL_Driver/Src/stm32u0xx_hal.c ****       }
 201              		.loc 1 251 20 is_stmt 0 view .LVU48
 202 003e 054B     		ldr	r3, .L13+8
 203 0040 1C60     		str	r4, [r3]
 240:Drivers/STM32U0xx_HAL_Driver/Src/stm32u0xx_hal.c **** 
 204              		.loc 1 240 22 view .LVU49
 205 0042 0020     		movs	r0, #0
 206 0044 E3E7     		b	.L7
 207              	.L9:
 260:Drivers/STM32U0xx_HAL_Driver/Src/stm32u0xx_hal.c ****     }
 208              		.loc 1 260 14 view .LVU50
 209 0046 0120     		movs	r0, #1
 210 0048 E1E7     		b	.L7
 211              	.L14:
 212 004a C046     		.align	2
 213              	.L13:
ARM GAS  C:\Users\upo\AppData\Local\Temp\ccsCunJj.s 			page 10


 214 004c 00000000 		.word	uwTickFreq
 215 0050 00000000 		.word	SystemCoreClock
 216 0054 00000000 		.word	uwTickPrio
 217              		.cfi_endproc
 218              	.LFE338:
 220              		.section	.text.HAL_Init,"ax",%progbits
 221              		.align	1
 222              		.global	HAL_Init
 223              		.syntax unified
 224              		.code	16
 225              		.thumb_func
 227              	HAL_Init:
 228              	.LFB334:
 143:Drivers/STM32U0xx_HAL_Driver/Src/stm32u0xx_hal.c ****   HAL_StatusTypeDef  status = HAL_OK;
 229              		.loc 1 143 1 is_stmt 1 view -0
 230              		.cfi_startproc
 231              		@ args = 0, pretend = 0, frame = 0
 232              		@ frame_needed = 0, uses_anonymous_args = 0
 233 0000 10B5     		push	{r4, lr}
 234              	.LCFI2:
 235              		.cfi_def_cfa_offset 8
 236              		.cfi_offset 4, -8
 237              		.cfi_offset 14, -4
 144:Drivers/STM32U0xx_HAL_Driver/Src/stm32u0xx_hal.c **** 
 238              		.loc 1 144 3 view .LVU52
 239              	.LVL11:
 160:Drivers/STM32U0xx_HAL_Driver/Src/stm32u0xx_hal.c ****   {
 240              		.loc 1 160 3 view .LVU53
 160:Drivers/STM32U0xx_HAL_Driver/Src/stm32u0xx_hal.c ****   {
 241              		.loc 1 160 7 is_stmt 0 view .LVU54
 242 0002 0320     		movs	r0, #3
 243 0004 FFF7FEFF 		bl	HAL_InitTick
 244              	.LVL12:
 245 0008 041E     		subs	r4, r0, #0
 160:Drivers/STM32U0xx_HAL_Driver/Src/stm32u0xx_hal.c ****   {
 246              		.loc 1 160 6 view .LVU55
 247 000a 02D0     		beq	.L18
 162:Drivers/STM32U0xx_HAL_Driver/Src/stm32u0xx_hal.c ****   }
 248              		.loc 1 162 12 view .LVU56
 249 000c 0124     		movs	r4, #1
 250              	.L16:
 251              	.LVL13:
 171:Drivers/STM32U0xx_HAL_Driver/Src/stm32u0xx_hal.c **** }
 252              		.loc 1 171 3 is_stmt 1 view .LVU57
 172:Drivers/STM32U0xx_HAL_Driver/Src/stm32u0xx_hal.c **** 
 253              		.loc 1 172 1 is_stmt 0 view .LVU58
 254 000e 2000     		movs	r0, r4
 255              		@ sp needed
 256              	.LVL14:
 172:Drivers/STM32U0xx_HAL_Driver/Src/stm32u0xx_hal.c **** 
 257              		.loc 1 172 1 view .LVU59
 258 0010 10BD     		pop	{r4, pc}
 259              	.LVL15:
 260              	.L18:
 167:Drivers/STM32U0xx_HAL_Driver/Src/stm32u0xx_hal.c ****   }
 261              		.loc 1 167 5 is_stmt 1 view .LVU60
 262 0012 FFF7FEFF 		bl	HAL_MspInit
ARM GAS  C:\Users\upo\AppData\Local\Temp\ccsCunJj.s 			page 11


 263              	.LVL16:
 264 0016 FAE7     		b	.L16
 265              		.cfi_endproc
 266              	.LFE334:
 268              		.section	.text.HAL_IncTick,"ax",%progbits
 269              		.align	1
 270              		.weak	HAL_IncTick
 271              		.syntax unified
 272              		.code	16
 273              		.thumb_func
 275              	HAL_IncTick:
 276              	.LFB339:
 271:Drivers/STM32U0xx_HAL_Driver/Src/stm32u0xx_hal.c **** 
 272:Drivers/STM32U0xx_HAL_Driver/Src/stm32u0xx_hal.c **** /**
 273:Drivers/STM32U0xx_HAL_Driver/Src/stm32u0xx_hal.c ****   * @}
 274:Drivers/STM32U0xx_HAL_Driver/Src/stm32u0xx_hal.c ****   */
 275:Drivers/STM32U0xx_HAL_Driver/Src/stm32u0xx_hal.c **** 
 276:Drivers/STM32U0xx_HAL_Driver/Src/stm32u0xx_hal.c **** /** @addtogroup HAL_Exported_Functions_Group2
 277:Drivers/STM32U0xx_HAL_Driver/Src/stm32u0xx_hal.c ****   *  @brief    HAL Control functions
 278:Drivers/STM32U0xx_HAL_Driver/Src/stm32u0xx_hal.c ****   *
 279:Drivers/STM32U0xx_HAL_Driver/Src/stm32u0xx_hal.c **** @verbatim
 280:Drivers/STM32U0xx_HAL_Driver/Src/stm32u0xx_hal.c ****  ===============================================================================
 281:Drivers/STM32U0xx_HAL_Driver/Src/stm32u0xx_hal.c ****                       ##### HAL Control functions #####
 282:Drivers/STM32U0xx_HAL_Driver/Src/stm32u0xx_hal.c ****  ===============================================================================
 283:Drivers/STM32U0xx_HAL_Driver/Src/stm32u0xx_hal.c ****     [..]  This section provides functions allowing to:
 284:Drivers/STM32U0xx_HAL_Driver/Src/stm32u0xx_hal.c ****       (+) Provide a tick value in millisecond
 285:Drivers/STM32U0xx_HAL_Driver/Src/stm32u0xx_hal.c ****       (+) Provide a blocking delay in millisecond
 286:Drivers/STM32U0xx_HAL_Driver/Src/stm32u0xx_hal.c ****       (+) Suspend the time base source interrupt
 287:Drivers/STM32U0xx_HAL_Driver/Src/stm32u0xx_hal.c ****       (+) Resume the time base source interrupt
 288:Drivers/STM32U0xx_HAL_Driver/Src/stm32u0xx_hal.c ****       (+) Get the HAL API driver version
 289:Drivers/STM32U0xx_HAL_Driver/Src/stm32u0xx_hal.c ****       (+) Get the device identifier
 290:Drivers/STM32U0xx_HAL_Driver/Src/stm32u0xx_hal.c ****       (+) Get the device revision identifier
 291:Drivers/STM32U0xx_HAL_Driver/Src/stm32u0xx_hal.c **** 
 292:Drivers/STM32U0xx_HAL_Driver/Src/stm32u0xx_hal.c **** @endverbatim
 293:Drivers/STM32U0xx_HAL_Driver/Src/stm32u0xx_hal.c ****   * @{
 294:Drivers/STM32U0xx_HAL_Driver/Src/stm32u0xx_hal.c ****   */
 295:Drivers/STM32U0xx_HAL_Driver/Src/stm32u0xx_hal.c **** 
 296:Drivers/STM32U0xx_HAL_Driver/Src/stm32u0xx_hal.c **** /**
 297:Drivers/STM32U0xx_HAL_Driver/Src/stm32u0xx_hal.c ****   * @brief This function is called to increment  a global variable "uwTick"
 298:Drivers/STM32U0xx_HAL_Driver/Src/stm32u0xx_hal.c ****   *        used as application time base.
 299:Drivers/STM32U0xx_HAL_Driver/Src/stm32u0xx_hal.c ****   * @note In the default implementation, this variable is incremented each 1ms
 300:Drivers/STM32U0xx_HAL_Driver/Src/stm32u0xx_hal.c ****   *       in SysTick ISR.
 301:Drivers/STM32U0xx_HAL_Driver/Src/stm32u0xx_hal.c ****   * @note This function is declared as __weak to be overwritten in case of other
 302:Drivers/STM32U0xx_HAL_Driver/Src/stm32u0xx_hal.c ****   *      implementations in user file.
 303:Drivers/STM32U0xx_HAL_Driver/Src/stm32u0xx_hal.c ****   * @retval None
 304:Drivers/STM32U0xx_HAL_Driver/Src/stm32u0xx_hal.c ****   */
 305:Drivers/STM32U0xx_HAL_Driver/Src/stm32u0xx_hal.c **** __weak void HAL_IncTick(void)
 306:Drivers/STM32U0xx_HAL_Driver/Src/stm32u0xx_hal.c **** {
 277              		.loc 1 306 1 view -0
 278              		.cfi_startproc
 279              		@ args = 0, pretend = 0, frame = 0
 280              		@ frame_needed = 0, uses_anonymous_args = 0
 281              		@ link register save eliminated.
 307:Drivers/STM32U0xx_HAL_Driver/Src/stm32u0xx_hal.c ****   uwTick += uwTickFreq;
 282              		.loc 1 307 3 view .LVU62
 283              		.loc 1 307 10 is_stmt 0 view .LVU63
 284 0000 034A     		ldr	r2, .L20
ARM GAS  C:\Users\upo\AppData\Local\Temp\ccsCunJj.s 			page 12


 285 0002 1368     		ldr	r3, [r2]
 286 0004 0349     		ldr	r1, .L20+4
 287 0006 0968     		ldr	r1, [r1]
 288 0008 5B18     		adds	r3, r3, r1
 289 000a 1360     		str	r3, [r2]
 308:Drivers/STM32U0xx_HAL_Driver/Src/stm32u0xx_hal.c **** }
 290              		.loc 1 308 1 view .LVU64
 291              		@ sp needed
 292 000c 7047     		bx	lr
 293              	.L21:
 294 000e C046     		.align	2
 295              	.L20:
 296 0010 00000000 		.word	uwTick
 297 0014 00000000 		.word	uwTickFreq
 298              		.cfi_endproc
 299              	.LFE339:
 301              		.section	.text.HAL_GetTick,"ax",%progbits
 302              		.align	1
 303              		.weak	HAL_GetTick
 304              		.syntax unified
 305              		.code	16
 306              		.thumb_func
 308              	HAL_GetTick:
 309              	.LFB340:
 309:Drivers/STM32U0xx_HAL_Driver/Src/stm32u0xx_hal.c **** 
 310:Drivers/STM32U0xx_HAL_Driver/Src/stm32u0xx_hal.c **** /**
 311:Drivers/STM32U0xx_HAL_Driver/Src/stm32u0xx_hal.c ****   * @brief Provides a tick value in millisecond.
 312:Drivers/STM32U0xx_HAL_Driver/Src/stm32u0xx_hal.c ****   * @note This function is declared as __weak to be overwritten in case of other
 313:Drivers/STM32U0xx_HAL_Driver/Src/stm32u0xx_hal.c ****   *       implementations in user file.
 314:Drivers/STM32U0xx_HAL_Driver/Src/stm32u0xx_hal.c ****   * @retval tick value
 315:Drivers/STM32U0xx_HAL_Driver/Src/stm32u0xx_hal.c ****   */
 316:Drivers/STM32U0xx_HAL_Driver/Src/stm32u0xx_hal.c **** __weak uint32_t HAL_GetTick(void)
 317:Drivers/STM32U0xx_HAL_Driver/Src/stm32u0xx_hal.c **** {
 310              		.loc 1 317 1 is_stmt 1 view -0
 311              		.cfi_startproc
 312              		@ args = 0, pretend = 0, frame = 0
 313              		@ frame_needed = 0, uses_anonymous_args = 0
 314              		@ link register save eliminated.
 318:Drivers/STM32U0xx_HAL_Driver/Src/stm32u0xx_hal.c ****   return uwTick;
 315              		.loc 1 318 3 view .LVU66
 316              		.loc 1 318 10 is_stmt 0 view .LVU67
 317 0000 014B     		ldr	r3, .L23
 318 0002 1868     		ldr	r0, [r3]
 319:Drivers/STM32U0xx_HAL_Driver/Src/stm32u0xx_hal.c **** }
 319              		.loc 1 319 1 view .LVU68
 320              		@ sp needed
 321 0004 7047     		bx	lr
 322              	.L24:
 323 0006 C046     		.align	2
 324              	.L23:
 325 0008 00000000 		.word	uwTick
 326              		.cfi_endproc
 327              	.LFE340:
 329              		.section	.text.HAL_GetTickPrio,"ax",%progbits
 330              		.align	1
 331              		.global	HAL_GetTickPrio
 332              		.syntax unified
ARM GAS  C:\Users\upo\AppData\Local\Temp\ccsCunJj.s 			page 13


 333              		.code	16
 334              		.thumb_func
 336              	HAL_GetTickPrio:
 337              	.LFB341:
 320:Drivers/STM32U0xx_HAL_Driver/Src/stm32u0xx_hal.c **** 
 321:Drivers/STM32U0xx_HAL_Driver/Src/stm32u0xx_hal.c **** /**
 322:Drivers/STM32U0xx_HAL_Driver/Src/stm32u0xx_hal.c ****   * @brief This function returns a tick priority.
 323:Drivers/STM32U0xx_HAL_Driver/Src/stm32u0xx_hal.c ****   * @retval tick priority
 324:Drivers/STM32U0xx_HAL_Driver/Src/stm32u0xx_hal.c ****   */
 325:Drivers/STM32U0xx_HAL_Driver/Src/stm32u0xx_hal.c **** uint32_t HAL_GetTickPrio(void)
 326:Drivers/STM32U0xx_HAL_Driver/Src/stm32u0xx_hal.c **** {
 338              		.loc 1 326 1 is_stmt 1 view -0
 339              		.cfi_startproc
 340              		@ args = 0, pretend = 0, frame = 0
 341              		@ frame_needed = 0, uses_anonymous_args = 0
 342              		@ link register save eliminated.
 327:Drivers/STM32U0xx_HAL_Driver/Src/stm32u0xx_hal.c ****   return uwTickPrio;
 343              		.loc 1 327 3 view .LVU70
 344              		.loc 1 327 10 is_stmt 0 view .LVU71
 345 0000 014B     		ldr	r3, .L26
 346 0002 1868     		ldr	r0, [r3]
 328:Drivers/STM32U0xx_HAL_Driver/Src/stm32u0xx_hal.c **** }
 347              		.loc 1 328 1 view .LVU72
 348              		@ sp needed
 349 0004 7047     		bx	lr
 350              	.L27:
 351 0006 C046     		.align	2
 352              	.L26:
 353 0008 00000000 		.word	uwTickPrio
 354              		.cfi_endproc
 355              	.LFE341:
 357              		.section	.text.HAL_SetTickFreq,"ax",%progbits
 358              		.align	1
 359              		.global	HAL_SetTickFreq
 360              		.syntax unified
 361              		.code	16
 362              		.thumb_func
 364              	HAL_SetTickFreq:
 365              	.LVL17:
 366              	.LFB342:
 329:Drivers/STM32U0xx_HAL_Driver/Src/stm32u0xx_hal.c **** 
 330:Drivers/STM32U0xx_HAL_Driver/Src/stm32u0xx_hal.c **** /**
 331:Drivers/STM32U0xx_HAL_Driver/Src/stm32u0xx_hal.c ****   * @brief Set new tick Freq.
 332:Drivers/STM32U0xx_HAL_Driver/Src/stm32u0xx_hal.c ****   * @retval Status
 333:Drivers/STM32U0xx_HAL_Driver/Src/stm32u0xx_hal.c ****   */
 334:Drivers/STM32U0xx_HAL_Driver/Src/stm32u0xx_hal.c **** HAL_StatusTypeDef HAL_SetTickFreq(uint32_t Freq)
 335:Drivers/STM32U0xx_HAL_Driver/Src/stm32u0xx_hal.c **** {
 367              		.loc 1 335 1 is_stmt 1 view -0
 368              		.cfi_startproc
 369              		@ args = 0, pretend = 0, frame = 0
 370              		@ frame_needed = 0, uses_anonymous_args = 0
 371              		.loc 1 335 1 is_stmt 0 view .LVU74
 372 0000 10B5     		push	{r4, lr}
 373              	.LCFI3:
 374              		.cfi_def_cfa_offset 8
 375              		.cfi_offset 4, -8
 376              		.cfi_offset 14, -4
ARM GAS  C:\Users\upo\AppData\Local\Temp\ccsCunJj.s 			page 14


 336:Drivers/STM32U0xx_HAL_Driver/Src/stm32u0xx_hal.c ****   HAL_StatusTypeDef status  = HAL_OK;
 377              		.loc 1 336 3 is_stmt 1 view .LVU75
 378              	.LVL18:
 337:Drivers/STM32U0xx_HAL_Driver/Src/stm32u0xx_hal.c ****   assert_param(IS_TICKFREQ(Freq));
 379              		.loc 1 337 3 view .LVU76
 338:Drivers/STM32U0xx_HAL_Driver/Src/stm32u0xx_hal.c **** 
 339:Drivers/STM32U0xx_HAL_Driver/Src/stm32u0xx_hal.c ****   if (uwTickFreq != Freq)
 380              		.loc 1 339 3 view .LVU77
 381              		.loc 1 339 18 is_stmt 0 view .LVU78
 382 0002 064B     		ldr	r3, .L32
 383 0004 1B68     		ldr	r3, [r3]
 384              		.loc 1 339 6 view .LVU79
 385 0006 8342     		cmp	r3, r0
 386 0008 01D1     		bne	.L31
 336:Drivers/STM32U0xx_HAL_Driver/Src/stm32u0xx_hal.c ****   assert_param(IS_TICKFREQ(Freq));
 387              		.loc 1 336 21 view .LVU80
 388 000a 0020     		movs	r0, #0
 389              	.LVL19:
 390              	.L29:
 340:Drivers/STM32U0xx_HAL_Driver/Src/stm32u0xx_hal.c ****   {
 341:Drivers/STM32U0xx_HAL_Driver/Src/stm32u0xx_hal.c ****     uwTickFreq = Freq;
 342:Drivers/STM32U0xx_HAL_Driver/Src/stm32u0xx_hal.c **** 
 343:Drivers/STM32U0xx_HAL_Driver/Src/stm32u0xx_hal.c ****     /* Apply the new tick Freq  */
 344:Drivers/STM32U0xx_HAL_Driver/Src/stm32u0xx_hal.c ****     status = HAL_InitTick(uwTickPrio);
 345:Drivers/STM32U0xx_HAL_Driver/Src/stm32u0xx_hal.c ****   }
 346:Drivers/STM32U0xx_HAL_Driver/Src/stm32u0xx_hal.c **** 
 347:Drivers/STM32U0xx_HAL_Driver/Src/stm32u0xx_hal.c ****   return status;
 391              		.loc 1 347 3 is_stmt 1 view .LVU81
 348:Drivers/STM32U0xx_HAL_Driver/Src/stm32u0xx_hal.c **** }
 392              		.loc 1 348 1 is_stmt 0 view .LVU82
 393              		@ sp needed
 394 000c 10BD     		pop	{r4, pc}
 395              	.LVL20:
 396              	.L31:
 341:Drivers/STM32U0xx_HAL_Driver/Src/stm32u0xx_hal.c **** 
 397              		.loc 1 341 5 is_stmt 1 view .LVU83
 341:Drivers/STM32U0xx_HAL_Driver/Src/stm32u0xx_hal.c **** 
 398              		.loc 1 341 16 is_stmt 0 view .LVU84
 399 000e 034B     		ldr	r3, .L32
 400 0010 1860     		str	r0, [r3]
 344:Drivers/STM32U0xx_HAL_Driver/Src/stm32u0xx_hal.c ****   }
 401              		.loc 1 344 5 is_stmt 1 view .LVU85
 344:Drivers/STM32U0xx_HAL_Driver/Src/stm32u0xx_hal.c ****   }
 402              		.loc 1 344 14 is_stmt 0 view .LVU86
 403 0012 034B     		ldr	r3, .L32+4
 404 0014 1868     		ldr	r0, [r3]
 405              	.LVL21:
 344:Drivers/STM32U0xx_HAL_Driver/Src/stm32u0xx_hal.c ****   }
 406              		.loc 1 344 14 view .LVU87
 407 0016 FFF7FEFF 		bl	HAL_InitTick
 408              	.LVL22:
 344:Drivers/STM32U0xx_HAL_Driver/Src/stm32u0xx_hal.c ****   }
 409              		.loc 1 344 14 view .LVU88
 410 001a F7E7     		b	.L29
 411              	.L33:
 412              		.align	2
 413              	.L32:
ARM GAS  C:\Users\upo\AppData\Local\Temp\ccsCunJj.s 			page 15


 414 001c 00000000 		.word	uwTickFreq
 415 0020 00000000 		.word	uwTickPrio
 416              		.cfi_endproc
 417              	.LFE342:
 419              		.section	.text.HAL_GetTickFreq,"ax",%progbits
 420              		.align	1
 421              		.global	HAL_GetTickFreq
 422              		.syntax unified
 423              		.code	16
 424              		.thumb_func
 426              	HAL_GetTickFreq:
 427              	.LFB343:
 349:Drivers/STM32U0xx_HAL_Driver/Src/stm32u0xx_hal.c **** 
 350:Drivers/STM32U0xx_HAL_Driver/Src/stm32u0xx_hal.c **** /**
 351:Drivers/STM32U0xx_HAL_Driver/Src/stm32u0xx_hal.c ****   * @brief return tick frequency.
 352:Drivers/STM32U0xx_HAL_Driver/Src/stm32u0xx_hal.c ****   * @retval tick period in Hz
 353:Drivers/STM32U0xx_HAL_Driver/Src/stm32u0xx_hal.c ****   */
 354:Drivers/STM32U0xx_HAL_Driver/Src/stm32u0xx_hal.c **** uint32_t HAL_GetTickFreq(void)
 355:Drivers/STM32U0xx_HAL_Driver/Src/stm32u0xx_hal.c **** {
 428              		.loc 1 355 1 is_stmt 1 view -0
 429              		.cfi_startproc
 430              		@ args = 0, pretend = 0, frame = 0
 431              		@ frame_needed = 0, uses_anonymous_args = 0
 432              		@ link register save eliminated.
 356:Drivers/STM32U0xx_HAL_Driver/Src/stm32u0xx_hal.c ****   return uwTickFreq;
 433              		.loc 1 356 3 view .LVU90
 434              		.loc 1 356 10 is_stmt 0 view .LVU91
 435 0000 014B     		ldr	r3, .L35
 436 0002 1868     		ldr	r0, [r3]
 357:Drivers/STM32U0xx_HAL_Driver/Src/stm32u0xx_hal.c **** }
 437              		.loc 1 357 1 view .LVU92
 438              		@ sp needed
 439 0004 7047     		bx	lr
 440              	.L36:
 441 0006 C046     		.align	2
 442              	.L35:
 443 0008 00000000 		.word	uwTickFreq
 444              		.cfi_endproc
 445              	.LFE343:
 447              		.section	.text.HAL_Delay,"ax",%progbits
 448              		.align	1
 449              		.weak	HAL_Delay
 450              		.syntax unified
 451              		.code	16
 452              		.thumb_func
 454              	HAL_Delay:
 455              	.LVL23:
 456              	.LFB344:
 358:Drivers/STM32U0xx_HAL_Driver/Src/stm32u0xx_hal.c **** 
 359:Drivers/STM32U0xx_HAL_Driver/Src/stm32u0xx_hal.c **** /**
 360:Drivers/STM32U0xx_HAL_Driver/Src/stm32u0xx_hal.c ****   * @brief This function provides minimum delay (in milliseconds) based
 361:Drivers/STM32U0xx_HAL_Driver/Src/stm32u0xx_hal.c ****   *        on variable incremented.
 362:Drivers/STM32U0xx_HAL_Driver/Src/stm32u0xx_hal.c ****   * @note In the default implementation , SysTick timer is the source of time base.
 363:Drivers/STM32U0xx_HAL_Driver/Src/stm32u0xx_hal.c ****   *       It is used to generate interrupts at regular time intervals where uwTick
 364:Drivers/STM32U0xx_HAL_Driver/Src/stm32u0xx_hal.c ****   *       is incremented.
 365:Drivers/STM32U0xx_HAL_Driver/Src/stm32u0xx_hal.c ****   * @note This function is declared as __weak to be overwritten in case of other
 366:Drivers/STM32U0xx_HAL_Driver/Src/stm32u0xx_hal.c ****   *       implementations in user file.
ARM GAS  C:\Users\upo\AppData\Local\Temp\ccsCunJj.s 			page 16


 367:Drivers/STM32U0xx_HAL_Driver/Src/stm32u0xx_hal.c ****   * @param Delay  specifies the delay time length, in milliseconds.
 368:Drivers/STM32U0xx_HAL_Driver/Src/stm32u0xx_hal.c ****   * @retval None
 369:Drivers/STM32U0xx_HAL_Driver/Src/stm32u0xx_hal.c ****   */
 370:Drivers/STM32U0xx_HAL_Driver/Src/stm32u0xx_hal.c **** __weak void HAL_Delay(uint32_t Delay)
 371:Drivers/STM32U0xx_HAL_Driver/Src/stm32u0xx_hal.c **** {
 457              		.loc 1 371 1 is_stmt 1 view -0
 458              		.cfi_startproc
 459              		@ args = 0, pretend = 0, frame = 0
 460              		@ frame_needed = 0, uses_anonymous_args = 0
 461              		.loc 1 371 1 is_stmt 0 view .LVU94
 462 0000 70B5     		push	{r4, r5, r6, lr}
 463              	.LCFI4:
 464              		.cfi_def_cfa_offset 16
 465              		.cfi_offset 4, -16
 466              		.cfi_offset 5, -12
 467              		.cfi_offset 6, -8
 468              		.cfi_offset 14, -4
 469 0002 0400     		movs	r4, r0
 372:Drivers/STM32U0xx_HAL_Driver/Src/stm32u0xx_hal.c ****   uint32_t tickstart = HAL_GetTick();
 470              		.loc 1 372 3 is_stmt 1 view .LVU95
 471              		.loc 1 372 24 is_stmt 0 view .LVU96
 472 0004 FFF7FEFF 		bl	HAL_GetTick
 473              	.LVL24:
 474              		.loc 1 372 24 view .LVU97
 475 0008 0500     		movs	r5, r0
 476              	.LVL25:
 373:Drivers/STM32U0xx_HAL_Driver/Src/stm32u0xx_hal.c ****   uint32_t wait = Delay;
 477              		.loc 1 373 3 is_stmt 1 view .LVU98
 374:Drivers/STM32U0xx_HAL_Driver/Src/stm32u0xx_hal.c **** 
 375:Drivers/STM32U0xx_HAL_Driver/Src/stm32u0xx_hal.c ****   /* Add a freq to guarantee minimum wait */
 376:Drivers/STM32U0xx_HAL_Driver/Src/stm32u0xx_hal.c ****   if (wait < HAL_MAX_DELAY)
 478              		.loc 1 376 3 view .LVU99
 479              		.loc 1 376 6 is_stmt 0 view .LVU100
 480 000a 631C     		adds	r3, r4, #1
 481 000c 02D0     		beq	.L39
 377:Drivers/STM32U0xx_HAL_Driver/Src/stm32u0xx_hal.c ****   {
 378:Drivers/STM32U0xx_HAL_Driver/Src/stm32u0xx_hal.c ****     wait += (uint32_t)(uwTickFreq);
 482              		.loc 1 378 5 is_stmt 1 view .LVU101
 483              		.loc 1 378 13 is_stmt 0 view .LVU102
 484 000e 044B     		ldr	r3, .L41
 485 0010 1B68     		ldr	r3, [r3]
 486              		.loc 1 378 10 view .LVU103
 487 0012 E418     		adds	r4, r4, r3
 488              	.LVL26:
 489              	.L39:
 379:Drivers/STM32U0xx_HAL_Driver/Src/stm32u0xx_hal.c ****   }
 380:Drivers/STM32U0xx_HAL_Driver/Src/stm32u0xx_hal.c **** 
 381:Drivers/STM32U0xx_HAL_Driver/Src/stm32u0xx_hal.c ****   while ((HAL_GetTick() - tickstart) < wait)
 382:Drivers/STM32U0xx_HAL_Driver/Src/stm32u0xx_hal.c ****   {
 383:Drivers/STM32U0xx_HAL_Driver/Src/stm32u0xx_hal.c ****   }
 490              		.loc 1 383 3 is_stmt 1 discriminator 1 view .LVU104
 381:Drivers/STM32U0xx_HAL_Driver/Src/stm32u0xx_hal.c ****   {
 491              		.loc 1 381 38 discriminator 1 view .LVU105
 381:Drivers/STM32U0xx_HAL_Driver/Src/stm32u0xx_hal.c ****   {
 492              		.loc 1 381 11 is_stmt 0 discriminator 1 view .LVU106
 493 0014 FFF7FEFF 		bl	HAL_GetTick
 494              	.LVL27:
ARM GAS  C:\Users\upo\AppData\Local\Temp\ccsCunJj.s 			page 17


 381:Drivers/STM32U0xx_HAL_Driver/Src/stm32u0xx_hal.c ****   {
 495              		.loc 1 381 25 discriminator 1 view .LVU107
 496 0018 401B     		subs	r0, r0, r5
 381:Drivers/STM32U0xx_HAL_Driver/Src/stm32u0xx_hal.c ****   {
 497              		.loc 1 381 38 discriminator 1 view .LVU108
 498 001a A042     		cmp	r0, r4
 499 001c FAD3     		bcc	.L39
 384:Drivers/STM32U0xx_HAL_Driver/Src/stm32u0xx_hal.c **** }
 500              		.loc 1 384 1 view .LVU109
 501              		@ sp needed
 502              	.LVL28:
 503              	.LVL29:
 504              		.loc 1 384 1 view .LVU110
 505 001e 70BD     		pop	{r4, r5, r6, pc}
 506              	.L42:
 507              		.align	2
 508              	.L41:
 509 0020 00000000 		.word	uwTickFreq
 510              		.cfi_endproc
 511              	.LFE344:
 513              		.section	.text.HAL_SuspendTick,"ax",%progbits
 514              		.align	1
 515              		.weak	HAL_SuspendTick
 516              		.syntax unified
 517              		.code	16
 518              		.thumb_func
 520              	HAL_SuspendTick:
 521              	.LFB345:
 385:Drivers/STM32U0xx_HAL_Driver/Src/stm32u0xx_hal.c **** 
 386:Drivers/STM32U0xx_HAL_Driver/Src/stm32u0xx_hal.c **** /**
 387:Drivers/STM32U0xx_HAL_Driver/Src/stm32u0xx_hal.c ****   * @brief Suspend Tick increment.
 388:Drivers/STM32U0xx_HAL_Driver/Src/stm32u0xx_hal.c ****   * @note In the default implementation , SysTick timer is the source of time base. It is
 389:Drivers/STM32U0xx_HAL_Driver/Src/stm32u0xx_hal.c ****   *       used to generate interrupts at regular time intervals. Once HAL_SuspendTick()
 390:Drivers/STM32U0xx_HAL_Driver/Src/stm32u0xx_hal.c ****   *       is called, the SysTick interrupt will be disabled and so Tick increment
 391:Drivers/STM32U0xx_HAL_Driver/Src/stm32u0xx_hal.c ****   *       is suspended.
 392:Drivers/STM32U0xx_HAL_Driver/Src/stm32u0xx_hal.c ****   * @note This function is declared as __weak to be overwritten in case of other
 393:Drivers/STM32U0xx_HAL_Driver/Src/stm32u0xx_hal.c ****   *       implementations in user file.
 394:Drivers/STM32U0xx_HAL_Driver/Src/stm32u0xx_hal.c ****   * @retval None
 395:Drivers/STM32U0xx_HAL_Driver/Src/stm32u0xx_hal.c ****   */
 396:Drivers/STM32U0xx_HAL_Driver/Src/stm32u0xx_hal.c **** __weak void HAL_SuspendTick(void)
 397:Drivers/STM32U0xx_HAL_Driver/Src/stm32u0xx_hal.c **** {
 522              		.loc 1 397 1 is_stmt 1 view -0
 523              		.cfi_startproc
 524              		@ args = 0, pretend = 0, frame = 0
 525              		@ frame_needed = 0, uses_anonymous_args = 0
 526              		@ link register save eliminated.
 398:Drivers/STM32U0xx_HAL_Driver/Src/stm32u0xx_hal.c ****   /* Disable SysTick Interrupt */
 399:Drivers/STM32U0xx_HAL_Driver/Src/stm32u0xx_hal.c ****   CLEAR_BIT(SysTick->CTRL, SysTick_CTRL_TICKINT_Msk);
 527              		.loc 1 399 3 view .LVU112
 528 0000 024A     		ldr	r2, .L44
 529 0002 1368     		ldr	r3, [r2]
 530 0004 0221     		movs	r1, #2
 531 0006 8B43     		bics	r3, r1
 532 0008 1360     		str	r3, [r2]
 400:Drivers/STM32U0xx_HAL_Driver/Src/stm32u0xx_hal.c **** }
 533              		.loc 1 400 1 is_stmt 0 view .LVU113
 534              		@ sp needed
ARM GAS  C:\Users\upo\AppData\Local\Temp\ccsCunJj.s 			page 18


 535 000a 7047     		bx	lr
 536              	.L45:
 537              		.align	2
 538              	.L44:
 539 000c 10E000E0 		.word	-536813552
 540              		.cfi_endproc
 541              	.LFE345:
 543              		.section	.text.HAL_ResumeTick,"ax",%progbits
 544              		.align	1
 545              		.weak	HAL_ResumeTick
 546              		.syntax unified
 547              		.code	16
 548              		.thumb_func
 550              	HAL_ResumeTick:
 551              	.LFB346:
 401:Drivers/STM32U0xx_HAL_Driver/Src/stm32u0xx_hal.c **** 
 402:Drivers/STM32U0xx_HAL_Driver/Src/stm32u0xx_hal.c **** /**
 403:Drivers/STM32U0xx_HAL_Driver/Src/stm32u0xx_hal.c ****   * @brief Resume Tick increment.
 404:Drivers/STM32U0xx_HAL_Driver/Src/stm32u0xx_hal.c ****   * @note In the default implementation , SysTick timer is the source of time base. It is
 405:Drivers/STM32U0xx_HAL_Driver/Src/stm32u0xx_hal.c ****   *       used to generate interrupts at regular time intervals. Once HAL_ResumeTick()
 406:Drivers/STM32U0xx_HAL_Driver/Src/stm32u0xx_hal.c ****   *       is called, the SysTick interrupt will be enabled and so Tick increment
 407:Drivers/STM32U0xx_HAL_Driver/Src/stm32u0xx_hal.c ****   *       is resumed.
 408:Drivers/STM32U0xx_HAL_Driver/Src/stm32u0xx_hal.c ****   * @note This function is declared as __weak to be overwritten in case of other
 409:Drivers/STM32U0xx_HAL_Driver/Src/stm32u0xx_hal.c ****   *       implementations in user file.
 410:Drivers/STM32U0xx_HAL_Driver/Src/stm32u0xx_hal.c ****   * @retval None
 411:Drivers/STM32U0xx_HAL_Driver/Src/stm32u0xx_hal.c ****   */
 412:Drivers/STM32U0xx_HAL_Driver/Src/stm32u0xx_hal.c **** __weak void HAL_ResumeTick(void)
 413:Drivers/STM32U0xx_HAL_Driver/Src/stm32u0xx_hal.c **** {
 552              		.loc 1 413 1 is_stmt 1 view -0
 553              		.cfi_startproc
 554              		@ args = 0, pretend = 0, frame = 0
 555              		@ frame_needed = 0, uses_anonymous_args = 0
 556              		@ link register save eliminated.
 414:Drivers/STM32U0xx_HAL_Driver/Src/stm32u0xx_hal.c ****   /* Enable SysTick Interrupt */
 415:Drivers/STM32U0xx_HAL_Driver/Src/stm32u0xx_hal.c ****   SET_BIT(SysTick->CTRL, SysTick_CTRL_TICKINT_Msk);
 557              		.loc 1 415 3 view .LVU115
 558 0000 024A     		ldr	r2, .L47
 559 0002 1368     		ldr	r3, [r2]
 560 0004 0221     		movs	r1, #2
 561 0006 0B43     		orrs	r3, r1
 562 0008 1360     		str	r3, [r2]
 416:Drivers/STM32U0xx_HAL_Driver/Src/stm32u0xx_hal.c **** }
 563              		.loc 1 416 1 is_stmt 0 view .LVU116
 564              		@ sp needed
 565 000a 7047     		bx	lr
 566              	.L48:
 567              		.align	2
 568              	.L47:
 569 000c 10E000E0 		.word	-536813552
 570              		.cfi_endproc
 571              	.LFE346:
 573              		.section	.text.HAL_GetHalVersion,"ax",%progbits
 574              		.align	1
 575              		.global	HAL_GetHalVersion
 576              		.syntax unified
 577              		.code	16
 578              		.thumb_func
ARM GAS  C:\Users\upo\AppData\Local\Temp\ccsCunJj.s 			page 19


 580              	HAL_GetHalVersion:
 581              	.LFB347:
 417:Drivers/STM32U0xx_HAL_Driver/Src/stm32u0xx_hal.c **** 
 418:Drivers/STM32U0xx_HAL_Driver/Src/stm32u0xx_hal.c **** /**
 419:Drivers/STM32U0xx_HAL_Driver/Src/stm32u0xx_hal.c ****   * @brief  Returns the HAL revision
 420:Drivers/STM32U0xx_HAL_Driver/Src/stm32u0xx_hal.c ****   * @retval version : 0xXYZR (8bits for each decimal, R for RC)
 421:Drivers/STM32U0xx_HAL_Driver/Src/stm32u0xx_hal.c ****   */
 422:Drivers/STM32U0xx_HAL_Driver/Src/stm32u0xx_hal.c **** uint32_t HAL_GetHalVersion(void)
 423:Drivers/STM32U0xx_HAL_Driver/Src/stm32u0xx_hal.c **** {
 582              		.loc 1 423 1 is_stmt 1 view -0
 583              		.cfi_startproc
 584              		@ args = 0, pretend = 0, frame = 0
 585              		@ frame_needed = 0, uses_anonymous_args = 0
 586              		@ link register save eliminated.
 424:Drivers/STM32U0xx_HAL_Driver/Src/stm32u0xx_hal.c ****   return __STM32U0xx_HAL_VERSION;
 587              		.loc 1 424 3 view .LVU118
 588              		.loc 1 424 10 is_stmt 0 view .LVU119
 589 0000 8020     		movs	r0, #128
 425:Drivers/STM32U0xx_HAL_Driver/Src/stm32u0xx_hal.c **** }
 590              		.loc 1 425 1 view .LVU120
 591 0002 4004     		lsls	r0, r0, #17
 592              		@ sp needed
 593 0004 7047     		bx	lr
 594              		.cfi_endproc
 595              	.LFE347:
 597              		.section	.text.HAL_GetREVID,"ax",%progbits
 598              		.align	1
 599              		.global	HAL_GetREVID
 600              		.syntax unified
 601              		.code	16
 602              		.thumb_func
 604              	HAL_GetREVID:
 605              	.LFB348:
 426:Drivers/STM32U0xx_HAL_Driver/Src/stm32u0xx_hal.c **** 
 427:Drivers/STM32U0xx_HAL_Driver/Src/stm32u0xx_hal.c **** /**
 428:Drivers/STM32U0xx_HAL_Driver/Src/stm32u0xx_hal.c ****   * @brief  Returns the device revision identifier.
 429:Drivers/STM32U0xx_HAL_Driver/Src/stm32u0xx_hal.c ****   * @retval Device revision identifier
 430:Drivers/STM32U0xx_HAL_Driver/Src/stm32u0xx_hal.c ****   */
 431:Drivers/STM32U0xx_HAL_Driver/Src/stm32u0xx_hal.c **** uint32_t HAL_GetREVID(void)
 432:Drivers/STM32U0xx_HAL_Driver/Src/stm32u0xx_hal.c **** {
 606              		.loc 1 432 1 is_stmt 1 view -0
 607              		.cfi_startproc
 608              		@ args = 0, pretend = 0, frame = 0
 609              		@ frame_needed = 0, uses_anonymous_args = 0
 610              		@ link register save eliminated.
 433:Drivers/STM32U0xx_HAL_Driver/Src/stm32u0xx_hal.c ****   return ((DBGMCU->IDCODE & DBGMCU_IDCODE_REV_ID) >> 16U);
 611              		.loc 1 433 3 view .LVU122
 612              		.loc 1 433 18 is_stmt 0 view .LVU123
 613 0000 014B     		ldr	r3, .L51
 614 0002 1868     		ldr	r0, [r3]
 615              		.loc 1 433 51 view .LVU124
 616 0004 000C     		lsrs	r0, r0, #16
 434:Drivers/STM32U0xx_HAL_Driver/Src/stm32u0xx_hal.c **** }
 617              		.loc 1 434 1 view .LVU125
 618              		@ sp needed
 619 0006 7047     		bx	lr
 620              	.L52:
ARM GAS  C:\Users\upo\AppData\Local\Temp\ccsCunJj.s 			page 20


 621              		.align	2
 622              	.L51:
 623 0008 00580140 		.word	1073829888
 624              		.cfi_endproc
 625              	.LFE348:
 627              		.section	.text.HAL_GetDEVID,"ax",%progbits
 628              		.align	1
 629              		.global	HAL_GetDEVID
 630              		.syntax unified
 631              		.code	16
 632              		.thumb_func
 634              	HAL_GetDEVID:
 635              	.LFB349:
 435:Drivers/STM32U0xx_HAL_Driver/Src/stm32u0xx_hal.c **** 
 436:Drivers/STM32U0xx_HAL_Driver/Src/stm32u0xx_hal.c **** /**
 437:Drivers/STM32U0xx_HAL_Driver/Src/stm32u0xx_hal.c ****   * @brief  Returns the device identifier.
 438:Drivers/STM32U0xx_HAL_Driver/Src/stm32u0xx_hal.c ****   * @retval Device identifier
 439:Drivers/STM32U0xx_HAL_Driver/Src/stm32u0xx_hal.c ****   */
 440:Drivers/STM32U0xx_HAL_Driver/Src/stm32u0xx_hal.c **** uint32_t HAL_GetDEVID(void)
 441:Drivers/STM32U0xx_HAL_Driver/Src/stm32u0xx_hal.c **** {
 636              		.loc 1 441 1 is_stmt 1 view -0
 637              		.cfi_startproc
 638              		@ args = 0, pretend = 0, frame = 0
 639              		@ frame_needed = 0, uses_anonymous_args = 0
 640              		@ link register save eliminated.
 442:Drivers/STM32U0xx_HAL_Driver/Src/stm32u0xx_hal.c ****   return ((DBGMCU->IDCODE) & DBGMCU_IDCODE_DEV_ID);
 641              		.loc 1 442 3 view .LVU127
 642              		.loc 1 442 18 is_stmt 0 view .LVU128
 643 0000 024B     		ldr	r3, .L54
 644 0002 1868     		ldr	r0, [r3]
 645              		.loc 1 442 28 view .LVU129
 646 0004 0005     		lsls	r0, r0, #20
 647 0006 000D     		lsrs	r0, r0, #20
 443:Drivers/STM32U0xx_HAL_Driver/Src/stm32u0xx_hal.c **** }
 648              		.loc 1 443 1 view .LVU130
 649              		@ sp needed
 650 0008 7047     		bx	lr
 651              	.L55:
 652 000a C046     		.align	2
 653              	.L54:
 654 000c 00580140 		.word	1073829888
 655              		.cfi_endproc
 656              	.LFE349:
 658              		.section	.text.HAL_GetUIDw0,"ax",%progbits
 659              		.align	1
 660              		.global	HAL_GetUIDw0
 661              		.syntax unified
 662              		.code	16
 663              		.thumb_func
 665              	HAL_GetUIDw0:
 666              	.LFB350:
 444:Drivers/STM32U0xx_HAL_Driver/Src/stm32u0xx_hal.c **** 
 445:Drivers/STM32U0xx_HAL_Driver/Src/stm32u0xx_hal.c **** /**
 446:Drivers/STM32U0xx_HAL_Driver/Src/stm32u0xx_hal.c ****   * @brief  Return the first word of the unique device identifier (UID based on 96 bits)
 447:Drivers/STM32U0xx_HAL_Driver/Src/stm32u0xx_hal.c ****   * @retval Device identifier
 448:Drivers/STM32U0xx_HAL_Driver/Src/stm32u0xx_hal.c ****   */
 449:Drivers/STM32U0xx_HAL_Driver/Src/stm32u0xx_hal.c **** uint32_t HAL_GetUIDw0(void)
ARM GAS  C:\Users\upo\AppData\Local\Temp\ccsCunJj.s 			page 21


 450:Drivers/STM32U0xx_HAL_Driver/Src/stm32u0xx_hal.c **** {
 667              		.loc 1 450 1 is_stmt 1 view -0
 668              		.cfi_startproc
 669              		@ args = 0, pretend = 0, frame = 0
 670              		@ frame_needed = 0, uses_anonymous_args = 0
 671              		@ link register save eliminated.
 451:Drivers/STM32U0xx_HAL_Driver/Src/stm32u0xx_hal.c ****   return (READ_REG(*((uint32_t *)UID_BASE)));
 672              		.loc 1 451 3 view .LVU132
 673              		.loc 1 451 11 is_stmt 0 view .LVU133
 674 0000 014B     		ldr	r3, .L57
 675 0002 1868     		ldr	r0, [r3]
 452:Drivers/STM32U0xx_HAL_Driver/Src/stm32u0xx_hal.c **** }
 676              		.loc 1 452 1 view .LVU134
 677              		@ sp needed
 678 0004 7047     		bx	lr
 679              	.L58:
 680 0006 C046     		.align	2
 681              	.L57:
 682 0008 506EFF1F 		.word	536833616
 683              		.cfi_endproc
 684              	.LFE350:
 686              		.section	.text.HAL_GetUIDw1,"ax",%progbits
 687              		.align	1
 688              		.global	HAL_GetUIDw1
 689              		.syntax unified
 690              		.code	16
 691              		.thumb_func
 693              	HAL_GetUIDw1:
 694              	.LFB351:
 453:Drivers/STM32U0xx_HAL_Driver/Src/stm32u0xx_hal.c **** 
 454:Drivers/STM32U0xx_HAL_Driver/Src/stm32u0xx_hal.c **** /**
 455:Drivers/STM32U0xx_HAL_Driver/Src/stm32u0xx_hal.c ****   * @brief  Return the second word of the unique device identifier (UID based on 96 bits)
 456:Drivers/STM32U0xx_HAL_Driver/Src/stm32u0xx_hal.c ****   * @retval Device identifier
 457:Drivers/STM32U0xx_HAL_Driver/Src/stm32u0xx_hal.c ****   */
 458:Drivers/STM32U0xx_HAL_Driver/Src/stm32u0xx_hal.c **** uint32_t HAL_GetUIDw1(void)
 459:Drivers/STM32U0xx_HAL_Driver/Src/stm32u0xx_hal.c **** {
 695              		.loc 1 459 1 is_stmt 1 view -0
 696              		.cfi_startproc
 697              		@ args = 0, pretend = 0, frame = 0
 698              		@ frame_needed = 0, uses_anonymous_args = 0
 699              		@ link register save eliminated.
 460:Drivers/STM32U0xx_HAL_Driver/Src/stm32u0xx_hal.c ****   return (READ_REG(*((uint32_t *)(UID_BASE + 4U))));
 700              		.loc 1 460 3 view .LVU136
 701              		.loc 1 460 11 is_stmt 0 view .LVU137
 702 0000 014B     		ldr	r3, .L60
 703 0002 1868     		ldr	r0, [r3]
 461:Drivers/STM32U0xx_HAL_Driver/Src/stm32u0xx_hal.c **** }
 704              		.loc 1 461 1 view .LVU138
 705              		@ sp needed
 706 0004 7047     		bx	lr
 707              	.L61:
 708 0006 C046     		.align	2
 709              	.L60:
 710 0008 546EFF1F 		.word	536833620
 711              		.cfi_endproc
 712              	.LFE351:
 714              		.section	.text.HAL_GetUIDw2,"ax",%progbits
ARM GAS  C:\Users\upo\AppData\Local\Temp\ccsCunJj.s 			page 22


 715              		.align	1
 716              		.global	HAL_GetUIDw2
 717              		.syntax unified
 718              		.code	16
 719              		.thumb_func
 721              	HAL_GetUIDw2:
 722              	.LFB352:
 462:Drivers/STM32U0xx_HAL_Driver/Src/stm32u0xx_hal.c **** 
 463:Drivers/STM32U0xx_HAL_Driver/Src/stm32u0xx_hal.c **** /**
 464:Drivers/STM32U0xx_HAL_Driver/Src/stm32u0xx_hal.c ****   * @brief  Return the third word of the unique device identifier (UID based on 96 bits)
 465:Drivers/STM32U0xx_HAL_Driver/Src/stm32u0xx_hal.c ****   * @retval Device identifier
 466:Drivers/STM32U0xx_HAL_Driver/Src/stm32u0xx_hal.c ****   */
 467:Drivers/STM32U0xx_HAL_Driver/Src/stm32u0xx_hal.c **** uint32_t HAL_GetUIDw2(void)
 468:Drivers/STM32U0xx_HAL_Driver/Src/stm32u0xx_hal.c **** {
 723              		.loc 1 468 1 is_stmt 1 view -0
 724              		.cfi_startproc
 725              		@ args = 0, pretend = 0, frame = 0
 726              		@ frame_needed = 0, uses_anonymous_args = 0
 727              		@ link register save eliminated.
 469:Drivers/STM32U0xx_HAL_Driver/Src/stm32u0xx_hal.c ****   return (READ_REG(*((uint32_t *)(UID_BASE + 8U))));
 728              		.loc 1 469 3 view .LVU140
 729              		.loc 1 469 11 is_stmt 0 view .LVU141
 730 0000 014B     		ldr	r3, .L63
 731 0002 1868     		ldr	r0, [r3]
 470:Drivers/STM32U0xx_HAL_Driver/Src/stm32u0xx_hal.c **** }
 732              		.loc 1 470 1 view .LVU142
 733              		@ sp needed
 734 0004 7047     		bx	lr
 735              	.L64:
 736 0006 C046     		.align	2
 737              	.L63:
 738 0008 586EFF1F 		.word	536833624
 739              		.cfi_endproc
 740              	.LFE352:
 742              		.section	.text.HAL_DBGMCU_EnableDBGStopMode,"ax",%progbits
 743              		.align	1
 744              		.global	HAL_DBGMCU_EnableDBGStopMode
 745              		.syntax unified
 746              		.code	16
 747              		.thumb_func
 749              	HAL_DBGMCU_EnableDBGStopMode:
 750              	.LFB353:
 471:Drivers/STM32U0xx_HAL_Driver/Src/stm32u0xx_hal.c **** /**
 472:Drivers/STM32U0xx_HAL_Driver/Src/stm32u0xx_hal.c ****   * @}
 473:Drivers/STM32U0xx_HAL_Driver/Src/stm32u0xx_hal.c ****   */
 474:Drivers/STM32U0xx_HAL_Driver/Src/stm32u0xx_hal.c **** 
 475:Drivers/STM32U0xx_HAL_Driver/Src/stm32u0xx_hal.c **** /** @addtogroup HAL_Exported_Functions_Group3
 476:Drivers/STM32U0xx_HAL_Driver/Src/stm32u0xx_hal.c ****   *  @brief    HAL Debug functions
 477:Drivers/STM32U0xx_HAL_Driver/Src/stm32u0xx_hal.c ****   *
 478:Drivers/STM32U0xx_HAL_Driver/Src/stm32u0xx_hal.c **** @verbatim
 479:Drivers/STM32U0xx_HAL_Driver/Src/stm32u0xx_hal.c ****  ===============================================================================
 480:Drivers/STM32U0xx_HAL_Driver/Src/stm32u0xx_hal.c ****                       ##### HAL Debug functions #####
 481:Drivers/STM32U0xx_HAL_Driver/Src/stm32u0xx_hal.c ****  ===============================================================================
 482:Drivers/STM32U0xx_HAL_Driver/Src/stm32u0xx_hal.c ****     [..]  This section provides functions allowing to:
 483:Drivers/STM32U0xx_HAL_Driver/Src/stm32u0xx_hal.c ****       (+) Enable/Disable Debug module during STOP mode
 484:Drivers/STM32U0xx_HAL_Driver/Src/stm32u0xx_hal.c ****       (+) Enable/Disable Debug module during STANDBY mode
 485:Drivers/STM32U0xx_HAL_Driver/Src/stm32u0xx_hal.c **** 
ARM GAS  C:\Users\upo\AppData\Local\Temp\ccsCunJj.s 			page 23


 486:Drivers/STM32U0xx_HAL_Driver/Src/stm32u0xx_hal.c **** @endverbatim
 487:Drivers/STM32U0xx_HAL_Driver/Src/stm32u0xx_hal.c ****   * @{
 488:Drivers/STM32U0xx_HAL_Driver/Src/stm32u0xx_hal.c ****   */
 489:Drivers/STM32U0xx_HAL_Driver/Src/stm32u0xx_hal.c **** 
 490:Drivers/STM32U0xx_HAL_Driver/Src/stm32u0xx_hal.c **** /**
 491:Drivers/STM32U0xx_HAL_Driver/Src/stm32u0xx_hal.c ****   * @brief  Enable the Debug Module during STOP mode
 492:Drivers/STM32U0xx_HAL_Driver/Src/stm32u0xx_hal.c ****   * @retval None
 493:Drivers/STM32U0xx_HAL_Driver/Src/stm32u0xx_hal.c ****   */
 494:Drivers/STM32U0xx_HAL_Driver/Src/stm32u0xx_hal.c **** void HAL_DBGMCU_EnableDBGStopMode(void)
 495:Drivers/STM32U0xx_HAL_Driver/Src/stm32u0xx_hal.c **** {
 751              		.loc 1 495 1 is_stmt 1 view -0
 752              		.cfi_startproc
 753              		@ args = 0, pretend = 0, frame = 0
 754              		@ frame_needed = 0, uses_anonymous_args = 0
 755              		@ link register save eliminated.
 496:Drivers/STM32U0xx_HAL_Driver/Src/stm32u0xx_hal.c ****   SET_BIT(DBGMCU->CR, DBGMCU_CR_DBG_STOP);
 756              		.loc 1 496 3 view .LVU144
 757 0000 024A     		ldr	r2, .L66
 758 0002 5368     		ldr	r3, [r2, #4]
 759 0004 0221     		movs	r1, #2
 760 0006 0B43     		orrs	r3, r1
 761 0008 5360     		str	r3, [r2, #4]
 497:Drivers/STM32U0xx_HAL_Driver/Src/stm32u0xx_hal.c **** }
 762              		.loc 1 497 1 is_stmt 0 view .LVU145
 763              		@ sp needed
 764 000a 7047     		bx	lr
 765              	.L67:
 766              		.align	2
 767              	.L66:
 768 000c 00580140 		.word	1073829888
 769              		.cfi_endproc
 770              	.LFE353:
 772              		.section	.text.HAL_DBGMCU_DisableDBGStopMode,"ax",%progbits
 773              		.align	1
 774              		.global	HAL_DBGMCU_DisableDBGStopMode
 775              		.syntax unified
 776              		.code	16
 777              		.thumb_func
 779              	HAL_DBGMCU_DisableDBGStopMode:
 780              	.LFB354:
 498:Drivers/STM32U0xx_HAL_Driver/Src/stm32u0xx_hal.c **** 
 499:Drivers/STM32U0xx_HAL_Driver/Src/stm32u0xx_hal.c **** /**
 500:Drivers/STM32U0xx_HAL_Driver/Src/stm32u0xx_hal.c ****   * @brief  Disable the Debug Module during STOP mode
 501:Drivers/STM32U0xx_HAL_Driver/Src/stm32u0xx_hal.c ****   * @retval None
 502:Drivers/STM32U0xx_HAL_Driver/Src/stm32u0xx_hal.c ****   */
 503:Drivers/STM32U0xx_HAL_Driver/Src/stm32u0xx_hal.c **** void HAL_DBGMCU_DisableDBGStopMode(void)
 504:Drivers/STM32U0xx_HAL_Driver/Src/stm32u0xx_hal.c **** {
 781              		.loc 1 504 1 is_stmt 1 view -0
 782              		.cfi_startproc
 783              		@ args = 0, pretend = 0, frame = 0
 784              		@ frame_needed = 0, uses_anonymous_args = 0
 785              		@ link register save eliminated.
 505:Drivers/STM32U0xx_HAL_Driver/Src/stm32u0xx_hal.c ****   CLEAR_BIT(DBGMCU->CR, DBGMCU_CR_DBG_STOP);
 786              		.loc 1 505 3 view .LVU147
 787 0000 024A     		ldr	r2, .L69
 788 0002 5368     		ldr	r3, [r2, #4]
 789 0004 0221     		movs	r1, #2
ARM GAS  C:\Users\upo\AppData\Local\Temp\ccsCunJj.s 			page 24


 790 0006 8B43     		bics	r3, r1
 791 0008 5360     		str	r3, [r2, #4]
 506:Drivers/STM32U0xx_HAL_Driver/Src/stm32u0xx_hal.c **** }
 792              		.loc 1 506 1 is_stmt 0 view .LVU148
 793              		@ sp needed
 794 000a 7047     		bx	lr
 795              	.L70:
 796              		.align	2
 797              	.L69:
 798 000c 00580140 		.word	1073829888
 799              		.cfi_endproc
 800              	.LFE354:
 802              		.section	.text.HAL_DBGMCU_EnableDBGStandbyMode,"ax",%progbits
 803              		.align	1
 804              		.global	HAL_DBGMCU_EnableDBGStandbyMode
 805              		.syntax unified
 806              		.code	16
 807              		.thumb_func
 809              	HAL_DBGMCU_EnableDBGStandbyMode:
 810              	.LFB355:
 507:Drivers/STM32U0xx_HAL_Driver/Src/stm32u0xx_hal.c **** 
 508:Drivers/STM32U0xx_HAL_Driver/Src/stm32u0xx_hal.c **** /**
 509:Drivers/STM32U0xx_HAL_Driver/Src/stm32u0xx_hal.c ****   * @brief  Enable the Debug Module during STANDBY mode
 510:Drivers/STM32U0xx_HAL_Driver/Src/stm32u0xx_hal.c ****   * @retval None
 511:Drivers/STM32U0xx_HAL_Driver/Src/stm32u0xx_hal.c ****   */
 512:Drivers/STM32U0xx_HAL_Driver/Src/stm32u0xx_hal.c **** void HAL_DBGMCU_EnableDBGStandbyMode(void)
 513:Drivers/STM32U0xx_HAL_Driver/Src/stm32u0xx_hal.c **** {
 811              		.loc 1 513 1 is_stmt 1 view -0
 812              		.cfi_startproc
 813              		@ args = 0, pretend = 0, frame = 0
 814              		@ frame_needed = 0, uses_anonymous_args = 0
 815              		@ link register save eliminated.
 514:Drivers/STM32U0xx_HAL_Driver/Src/stm32u0xx_hal.c ****   SET_BIT(DBGMCU->CR, DBGMCU_CR_DBG_STANDBY);
 816              		.loc 1 514 3 view .LVU150
 817 0000 024A     		ldr	r2, .L72
 818 0002 5368     		ldr	r3, [r2, #4]
 819 0004 0421     		movs	r1, #4
 820 0006 0B43     		orrs	r3, r1
 821 0008 5360     		str	r3, [r2, #4]
 515:Drivers/STM32U0xx_HAL_Driver/Src/stm32u0xx_hal.c **** }
 822              		.loc 1 515 1 is_stmt 0 view .LVU151
 823              		@ sp needed
 824 000a 7047     		bx	lr
 825              	.L73:
 826              		.align	2
 827              	.L72:
 828 000c 00580140 		.word	1073829888
 829              		.cfi_endproc
 830              	.LFE355:
 832              		.section	.text.HAL_DBGMCU_DisableDBGStandbyMode,"ax",%progbits
 833              		.align	1
 834              		.global	HAL_DBGMCU_DisableDBGStandbyMode
 835              		.syntax unified
 836              		.code	16
 837              		.thumb_func
 839              	HAL_DBGMCU_DisableDBGStandbyMode:
 840              	.LFB356:
ARM GAS  C:\Users\upo\AppData\Local\Temp\ccsCunJj.s 			page 25


 516:Drivers/STM32U0xx_HAL_Driver/Src/stm32u0xx_hal.c **** 
 517:Drivers/STM32U0xx_HAL_Driver/Src/stm32u0xx_hal.c **** /**
 518:Drivers/STM32U0xx_HAL_Driver/Src/stm32u0xx_hal.c ****   * @brief  Disable the Debug Module during STANDBY mode
 519:Drivers/STM32U0xx_HAL_Driver/Src/stm32u0xx_hal.c ****   * @retval None
 520:Drivers/STM32U0xx_HAL_Driver/Src/stm32u0xx_hal.c ****   */
 521:Drivers/STM32U0xx_HAL_Driver/Src/stm32u0xx_hal.c **** void HAL_DBGMCU_DisableDBGStandbyMode(void)
 522:Drivers/STM32U0xx_HAL_Driver/Src/stm32u0xx_hal.c **** {
 841              		.loc 1 522 1 is_stmt 1 view -0
 842              		.cfi_startproc
 843              		@ args = 0, pretend = 0, frame = 0
 844              		@ frame_needed = 0, uses_anonymous_args = 0
 845              		@ link register save eliminated.
 523:Drivers/STM32U0xx_HAL_Driver/Src/stm32u0xx_hal.c ****   CLEAR_BIT(DBGMCU->CR, DBGMCU_CR_DBG_STANDBY);
 846              		.loc 1 523 3 view .LVU153
 847 0000 024A     		ldr	r2, .L75
 848 0002 5368     		ldr	r3, [r2, #4]
 849 0004 0421     		movs	r1, #4
 850 0006 8B43     		bics	r3, r1
 851 0008 5360     		str	r3, [r2, #4]
 524:Drivers/STM32U0xx_HAL_Driver/Src/stm32u0xx_hal.c **** }
 852              		.loc 1 524 1 is_stmt 0 view .LVU154
 853              		@ sp needed
 854 000a 7047     		bx	lr
 855              	.L76:
 856              		.align	2
 857              	.L75:
 858 000c 00580140 		.word	1073829888
 859              		.cfi_endproc
 860              	.LFE356:
 862              		.section	.text.HAL_SYSCFG_VREFBUF_VoltageScalingConfig,"ax",%progbits
 863              		.align	1
 864              		.global	HAL_SYSCFG_VREFBUF_VoltageScalingConfig
 865              		.syntax unified
 866              		.code	16
 867              		.thumb_func
 869              	HAL_SYSCFG_VREFBUF_VoltageScalingConfig:
 870              	.LVL30:
 871              	.LFB357:
 525:Drivers/STM32U0xx_HAL_Driver/Src/stm32u0xx_hal.c **** 
 526:Drivers/STM32U0xx_HAL_Driver/Src/stm32u0xx_hal.c **** /**
 527:Drivers/STM32U0xx_HAL_Driver/Src/stm32u0xx_hal.c ****   * @}
 528:Drivers/STM32U0xx_HAL_Driver/Src/stm32u0xx_hal.c ****   */
 529:Drivers/STM32U0xx_HAL_Driver/Src/stm32u0xx_hal.c **** 
 530:Drivers/STM32U0xx_HAL_Driver/Src/stm32u0xx_hal.c **** /** @addtogroup HAL_Exported_Functions_Group4
 531:Drivers/STM32U0xx_HAL_Driver/Src/stm32u0xx_hal.c ****   *  @brief    SYSCFG configuration functions
 532:Drivers/STM32U0xx_HAL_Driver/Src/stm32u0xx_hal.c ****   *
 533:Drivers/STM32U0xx_HAL_Driver/Src/stm32u0xx_hal.c **** @verbatim
 534:Drivers/STM32U0xx_HAL_Driver/Src/stm32u0xx_hal.c ****  ===============================================================================
 535:Drivers/STM32U0xx_HAL_Driver/Src/stm32u0xx_hal.c ****                       ##### HAL SYSCFG configuration functions #####
 536:Drivers/STM32U0xx_HAL_Driver/Src/stm32u0xx_hal.c ****  ===============================================================================
 537:Drivers/STM32U0xx_HAL_Driver/Src/stm32u0xx_hal.c ****     [..]  This section provides functions allowing to:
 538:Drivers/STM32U0xx_HAL_Driver/Src/stm32u0xx_hal.c ****       (+) Enable/Disable Pin remap
 539:Drivers/STM32U0xx_HAL_Driver/Src/stm32u0xx_hal.c ****       (+) Configure the Voltage reference buffer
 540:Drivers/STM32U0xx_HAL_Driver/Src/stm32u0xx_hal.c ****       (+) Enable/Disable the Voltage reference buffer
 541:Drivers/STM32U0xx_HAL_Driver/Src/stm32u0xx_hal.c ****       (+) Enable/Disable the I/O analog switch voltage booster
 542:Drivers/STM32U0xx_HAL_Driver/Src/stm32u0xx_hal.c ****       (+) Enable/Disable dead battery behavior(*)
 543:Drivers/STM32U0xx_HAL_Driver/Src/stm32u0xx_hal.c ****       (+) Configure Clamping Diode on specific pins(*)
ARM GAS  C:\Users\upo\AppData\Local\Temp\ccsCunJj.s 			page 26


 544:Drivers/STM32U0xx_HAL_Driver/Src/stm32u0xx_hal.c ****    (*) Feature not available on all devices
 545:Drivers/STM32U0xx_HAL_Driver/Src/stm32u0xx_hal.c **** 
 546:Drivers/STM32U0xx_HAL_Driver/Src/stm32u0xx_hal.c **** @endverbatim
 547:Drivers/STM32U0xx_HAL_Driver/Src/stm32u0xx_hal.c ****   * @{
 548:Drivers/STM32U0xx_HAL_Driver/Src/stm32u0xx_hal.c ****   */
 549:Drivers/STM32U0xx_HAL_Driver/Src/stm32u0xx_hal.c **** #if defined(VREFBUF)
 550:Drivers/STM32U0xx_HAL_Driver/Src/stm32u0xx_hal.c **** /**
 551:Drivers/STM32U0xx_HAL_Driver/Src/stm32u0xx_hal.c ****   * @brief Configure the internal voltage reference buffer voltage scale.
 552:Drivers/STM32U0xx_HAL_Driver/Src/stm32u0xx_hal.c ****   * @param  VoltageScaling specifies the output voltage to achieve
 553:Drivers/STM32U0xx_HAL_Driver/Src/stm32u0xx_hal.c ****   *         This parameter can be one of the following values:
 554:Drivers/STM32U0xx_HAL_Driver/Src/stm32u0xx_hal.c ****   *         @arg @ref SYSCFG_VREFBUF_VoltageScale
 555:Drivers/STM32U0xx_HAL_Driver/Src/stm32u0xx_hal.c ****   * @retval None
 556:Drivers/STM32U0xx_HAL_Driver/Src/stm32u0xx_hal.c ****   */
 557:Drivers/STM32U0xx_HAL_Driver/Src/stm32u0xx_hal.c **** void HAL_SYSCFG_VREFBUF_VoltageScalingConfig(uint32_t VoltageScaling)
 558:Drivers/STM32U0xx_HAL_Driver/Src/stm32u0xx_hal.c **** {
 872              		.loc 1 558 1 is_stmt 1 view -0
 873              		.cfi_startproc
 874              		@ args = 0, pretend = 0, frame = 0
 875              		@ frame_needed = 0, uses_anonymous_args = 0
 876              		@ link register save eliminated.
 559:Drivers/STM32U0xx_HAL_Driver/Src/stm32u0xx_hal.c ****   /* Check the parameters */
 560:Drivers/STM32U0xx_HAL_Driver/Src/stm32u0xx_hal.c ****   assert_param(IS_SYSCFG_VREFBUF_VOLTAGE_SCALE(VoltageScaling));
 877              		.loc 1 560 3 view .LVU156
 561:Drivers/STM32U0xx_HAL_Driver/Src/stm32u0xx_hal.c **** 
 562:Drivers/STM32U0xx_HAL_Driver/Src/stm32u0xx_hal.c ****   MODIFY_REG(VREFBUF->CSR, VREFBUF_CSR_VRS, VoltageScaling);
 878              		.loc 1 562 3 view .LVU157
 879 0000 034A     		ldr	r2, .L78
 880 0002 1368     		ldr	r3, [r2]
 881 0004 0421     		movs	r1, #4
 882 0006 8B43     		bics	r3, r1
 883 0008 0343     		orrs	r3, r0
 884 000a 1360     		str	r3, [r2]
 563:Drivers/STM32U0xx_HAL_Driver/Src/stm32u0xx_hal.c **** }
 885              		.loc 1 563 1 is_stmt 0 view .LVU158
 886              		@ sp needed
 887 000c 7047     		bx	lr
 888              	.L79:
 889 000e C046     		.align	2
 890              	.L78:
 891 0010 30000140 		.word	1073807408
 892              		.cfi_endproc
 893              	.LFE357:
 895              		.section	.text.HAL_SYSCFG_VREFBUF_HighImpedanceConfig,"ax",%progbits
 896              		.align	1
 897              		.global	HAL_SYSCFG_VREFBUF_HighImpedanceConfig
 898              		.syntax unified
 899              		.code	16
 900              		.thumb_func
 902              	HAL_SYSCFG_VREFBUF_HighImpedanceConfig:
 903              	.LVL31:
 904              	.LFB358:
 564:Drivers/STM32U0xx_HAL_Driver/Src/stm32u0xx_hal.c **** 
 565:Drivers/STM32U0xx_HAL_Driver/Src/stm32u0xx_hal.c **** /**
 566:Drivers/STM32U0xx_HAL_Driver/Src/stm32u0xx_hal.c ****   * @brief Configure the internal voltage reference buffer high impedance mode.
 567:Drivers/STM32U0xx_HAL_Driver/Src/stm32u0xx_hal.c ****   * @param  Mode specifies the high impedance mode
 568:Drivers/STM32U0xx_HAL_Driver/Src/stm32u0xx_hal.c ****   *          This parameter can be one of the following values:
 569:Drivers/STM32U0xx_HAL_Driver/Src/stm32u0xx_hal.c ****   *          @arg @ref SYSCFG_VREFBUF_HighImpedance
ARM GAS  C:\Users\upo\AppData\Local\Temp\ccsCunJj.s 			page 27


 570:Drivers/STM32U0xx_HAL_Driver/Src/stm32u0xx_hal.c ****   * @retval None
 571:Drivers/STM32U0xx_HAL_Driver/Src/stm32u0xx_hal.c ****   */
 572:Drivers/STM32U0xx_HAL_Driver/Src/stm32u0xx_hal.c **** void HAL_SYSCFG_VREFBUF_HighImpedanceConfig(uint32_t Mode)
 573:Drivers/STM32U0xx_HAL_Driver/Src/stm32u0xx_hal.c **** {
 905              		.loc 1 573 1 is_stmt 1 view -0
 906              		.cfi_startproc
 907              		@ args = 0, pretend = 0, frame = 0
 908              		@ frame_needed = 0, uses_anonymous_args = 0
 909              		@ link register save eliminated.
 574:Drivers/STM32U0xx_HAL_Driver/Src/stm32u0xx_hal.c ****   /* Check the parameters */
 575:Drivers/STM32U0xx_HAL_Driver/Src/stm32u0xx_hal.c ****   assert_param(IS_SYSCFG_VREFBUF_HIGH_IMPEDANCE(Mode));
 910              		.loc 1 575 3 view .LVU160
 576:Drivers/STM32U0xx_HAL_Driver/Src/stm32u0xx_hal.c **** 
 577:Drivers/STM32U0xx_HAL_Driver/Src/stm32u0xx_hal.c ****   MODIFY_REG(VREFBUF->CSR, VREFBUF_CSR_HIZ, Mode);
 911              		.loc 1 577 3 view .LVU161
 912 0000 034A     		ldr	r2, .L81
 913 0002 1368     		ldr	r3, [r2]
 914 0004 0221     		movs	r1, #2
 915 0006 8B43     		bics	r3, r1
 916 0008 0343     		orrs	r3, r0
 917 000a 1360     		str	r3, [r2]
 578:Drivers/STM32U0xx_HAL_Driver/Src/stm32u0xx_hal.c **** }
 918              		.loc 1 578 1 is_stmt 0 view .LVU162
 919              		@ sp needed
 920 000c 7047     		bx	lr
 921              	.L82:
 922 000e C046     		.align	2
 923              	.L81:
 924 0010 30000140 		.word	1073807408
 925              		.cfi_endproc
 926              	.LFE358:
 928              		.section	.text.HAL_SYSCFG_VREFBUF_TrimmingConfig,"ax",%progbits
 929              		.align	1
 930              		.global	HAL_SYSCFG_VREFBUF_TrimmingConfig
 931              		.syntax unified
 932              		.code	16
 933              		.thumb_func
 935              	HAL_SYSCFG_VREFBUF_TrimmingConfig:
 936              	.LVL32:
 937              	.LFB359:
 579:Drivers/STM32U0xx_HAL_Driver/Src/stm32u0xx_hal.c **** 
 580:Drivers/STM32U0xx_HAL_Driver/Src/stm32u0xx_hal.c **** /**
 581:Drivers/STM32U0xx_HAL_Driver/Src/stm32u0xx_hal.c ****   * @brief  Tune the Internal Voltage Reference buffer (VREFBUF).
 582:Drivers/STM32U0xx_HAL_Driver/Src/stm32u0xx_hal.c ****   * @retval None
 583:Drivers/STM32U0xx_HAL_Driver/Src/stm32u0xx_hal.c ****   */
 584:Drivers/STM32U0xx_HAL_Driver/Src/stm32u0xx_hal.c **** void HAL_SYSCFG_VREFBUF_TrimmingConfig(uint32_t TrimmingValue)
 585:Drivers/STM32U0xx_HAL_Driver/Src/stm32u0xx_hal.c **** {
 938              		.loc 1 585 1 is_stmt 1 view -0
 939              		.cfi_startproc
 940              		@ args = 0, pretend = 0, frame = 0
 941              		@ frame_needed = 0, uses_anonymous_args = 0
 942              		@ link register save eliminated.
 586:Drivers/STM32U0xx_HAL_Driver/Src/stm32u0xx_hal.c ****   /* Check the parameters */
 587:Drivers/STM32U0xx_HAL_Driver/Src/stm32u0xx_hal.c ****   assert_param(IS_SYSCFG_VREFBUF_TRIMMING(TrimmingValue));
 943              		.loc 1 587 3 view .LVU164
 588:Drivers/STM32U0xx_HAL_Driver/Src/stm32u0xx_hal.c **** 
 589:Drivers/STM32U0xx_HAL_Driver/Src/stm32u0xx_hal.c ****   MODIFY_REG(VREFBUF->CCR, VREFBUF_CCR_TRIM, TrimmingValue);
ARM GAS  C:\Users\upo\AppData\Local\Temp\ccsCunJj.s 			page 28


 944              		.loc 1 589 3 view .LVU165
 945 0000 034A     		ldr	r2, .L84
 946 0002 5368     		ldr	r3, [r2, #4]
 947 0004 3F21     		movs	r1, #63
 948 0006 8B43     		bics	r3, r1
 949 0008 0343     		orrs	r3, r0
 950 000a 5360     		str	r3, [r2, #4]
 590:Drivers/STM32U0xx_HAL_Driver/Src/stm32u0xx_hal.c **** }
 951              		.loc 1 590 1 is_stmt 0 view .LVU166
 952              		@ sp needed
 953 000c 7047     		bx	lr
 954              	.L85:
 955 000e C046     		.align	2
 956              	.L84:
 957 0010 30000140 		.word	1073807408
 958              		.cfi_endproc
 959              	.LFE359:
 961              		.section	.text.HAL_SYSCFG_EnableVREFBUF,"ax",%progbits
 962              		.align	1
 963              		.global	HAL_SYSCFG_EnableVREFBUF
 964              		.syntax unified
 965              		.code	16
 966              		.thumb_func
 968              	HAL_SYSCFG_EnableVREFBUF:
 969              	.LFB360:
 591:Drivers/STM32U0xx_HAL_Driver/Src/stm32u0xx_hal.c **** 
 592:Drivers/STM32U0xx_HAL_Driver/Src/stm32u0xx_hal.c **** /**
 593:Drivers/STM32U0xx_HAL_Driver/Src/stm32u0xx_hal.c ****   * @brief  Enable the Internal Voltage Reference buffer (VREFBUF).
 594:Drivers/STM32U0xx_HAL_Driver/Src/stm32u0xx_hal.c ****   * @retval HAL_OK/HAL_TIMEOUT
 595:Drivers/STM32U0xx_HAL_Driver/Src/stm32u0xx_hal.c ****   */
 596:Drivers/STM32U0xx_HAL_Driver/Src/stm32u0xx_hal.c **** HAL_StatusTypeDef HAL_SYSCFG_EnableVREFBUF(void)
 597:Drivers/STM32U0xx_HAL_Driver/Src/stm32u0xx_hal.c **** {
 970              		.loc 1 597 1 is_stmt 1 view -0
 971              		.cfi_startproc
 972              		@ args = 0, pretend = 0, frame = 0
 973              		@ frame_needed = 0, uses_anonymous_args = 0
 974 0000 10B5     		push	{r4, lr}
 975              	.LCFI5:
 976              		.cfi_def_cfa_offset 8
 977              		.cfi_offset 4, -8
 978              		.cfi_offset 14, -4
 598:Drivers/STM32U0xx_HAL_Driver/Src/stm32u0xx_hal.c ****   uint32_t  tickstart;
 979              		.loc 1 598 3 view .LVU168
 599:Drivers/STM32U0xx_HAL_Driver/Src/stm32u0xx_hal.c **** 
 600:Drivers/STM32U0xx_HAL_Driver/Src/stm32u0xx_hal.c ****   SET_BIT(VREFBUF->CSR, VREFBUF_CSR_ENVR);
 980              		.loc 1 600 3 view .LVU169
 981 0002 0A4A     		ldr	r2, .L92
 982 0004 1368     		ldr	r3, [r2]
 983 0006 0121     		movs	r1, #1
 984 0008 0B43     		orrs	r3, r1
 985 000a 1360     		str	r3, [r2]
 601:Drivers/STM32U0xx_HAL_Driver/Src/stm32u0xx_hal.c **** 
 602:Drivers/STM32U0xx_HAL_Driver/Src/stm32u0xx_hal.c ****   /* Get Start Tick*/
 603:Drivers/STM32U0xx_HAL_Driver/Src/stm32u0xx_hal.c ****   tickstart = HAL_GetTick();
 986              		.loc 1 603 3 view .LVU170
 987              		.loc 1 603 15 is_stmt 0 view .LVU171
 988 000c FFF7FEFF 		bl	HAL_GetTick
ARM GAS  C:\Users\upo\AppData\Local\Temp\ccsCunJj.s 			page 29


 989              	.LVL33:
 990 0010 0400     		movs	r4, r0
 991              	.LVL34:
 604:Drivers/STM32U0xx_HAL_Driver/Src/stm32u0xx_hal.c **** 
 605:Drivers/STM32U0xx_HAL_Driver/Src/stm32u0xx_hal.c ****   /* Wait for VRR bit */
 606:Drivers/STM32U0xx_HAL_Driver/Src/stm32u0xx_hal.c ****   while (READ_BIT(VREFBUF->CSR, VREFBUF_CSR_VRR) == 0x00U)
 992              		.loc 1 606 3 is_stmt 1 view .LVU172
 993              	.L87:
 994              		.loc 1 606 50 view .LVU173
 995              		.loc 1 606 10 is_stmt 0 view .LVU174
 996 0012 064B     		ldr	r3, .L92
 997 0014 1B68     		ldr	r3, [r3]
 998              		.loc 1 606 50 view .LVU175
 999 0016 1B07     		lsls	r3, r3, #28
 1000 0018 06D4     		bmi	.L91
 607:Drivers/STM32U0xx_HAL_Driver/Src/stm32u0xx_hal.c ****   {
 608:Drivers/STM32U0xx_HAL_Driver/Src/stm32u0xx_hal.c ****     if ((HAL_GetTick() - tickstart) > VREFBUF_TIMEOUT_VALUE)
 1001              		.loc 1 608 5 is_stmt 1 view .LVU176
 1002              		.loc 1 608 10 is_stmt 0 view .LVU177
 1003 001a FFF7FEFF 		bl	HAL_GetTick
 1004              	.LVL35:
 1005              		.loc 1 608 24 view .LVU178
 1006 001e 001B     		subs	r0, r0, r4
 1007              		.loc 1 608 8 view .LVU179
 1008 0020 0A28     		cmp	r0, #10
 1009 0022 F6D9     		bls	.L87
 609:Drivers/STM32U0xx_HAL_Driver/Src/stm32u0xx_hal.c ****     {
 610:Drivers/STM32U0xx_HAL_Driver/Src/stm32u0xx_hal.c ****       return HAL_TIMEOUT;
 1010              		.loc 1 610 14 view .LVU180
 1011 0024 0320     		movs	r0, #3
 1012 0026 00E0     		b	.L88
 1013              	.L91:
 611:Drivers/STM32U0xx_HAL_Driver/Src/stm32u0xx_hal.c ****     }
 612:Drivers/STM32U0xx_HAL_Driver/Src/stm32u0xx_hal.c ****   }
 613:Drivers/STM32U0xx_HAL_Driver/Src/stm32u0xx_hal.c **** 
 614:Drivers/STM32U0xx_HAL_Driver/Src/stm32u0xx_hal.c ****   return HAL_OK;
 1014              		.loc 1 614 10 view .LVU181
 1015 0028 0020     		movs	r0, #0
 1016              	.L88:
 615:Drivers/STM32U0xx_HAL_Driver/Src/stm32u0xx_hal.c **** }
 1017              		.loc 1 615 1 view .LVU182
 1018              		@ sp needed
 1019              	.LVL36:
 1020              		.loc 1 615 1 view .LVU183
 1021 002a 10BD     		pop	{r4, pc}
 1022              	.L93:
 1023              		.align	2
 1024              	.L92:
 1025 002c 30000140 		.word	1073807408
 1026              		.cfi_endproc
 1027              	.LFE360:
 1029              		.section	.text.HAL_SYSCFG_DisableVREFBUF,"ax",%progbits
 1030              		.align	1
 1031              		.global	HAL_SYSCFG_DisableVREFBUF
 1032              		.syntax unified
 1033              		.code	16
 1034              		.thumb_func
ARM GAS  C:\Users\upo\AppData\Local\Temp\ccsCunJj.s 			page 30


 1036              	HAL_SYSCFG_DisableVREFBUF:
 1037              	.LFB361:
 616:Drivers/STM32U0xx_HAL_Driver/Src/stm32u0xx_hal.c **** 
 617:Drivers/STM32U0xx_HAL_Driver/Src/stm32u0xx_hal.c **** /**
 618:Drivers/STM32U0xx_HAL_Driver/Src/stm32u0xx_hal.c ****   * @brief  Disable the Internal Voltage Reference buffer (VREFBUF).
 619:Drivers/STM32U0xx_HAL_Driver/Src/stm32u0xx_hal.c ****   *
 620:Drivers/STM32U0xx_HAL_Driver/Src/stm32u0xx_hal.c ****   * @retval None
 621:Drivers/STM32U0xx_HAL_Driver/Src/stm32u0xx_hal.c ****   */
 622:Drivers/STM32U0xx_HAL_Driver/Src/stm32u0xx_hal.c **** void HAL_SYSCFG_DisableVREFBUF(void)
 623:Drivers/STM32U0xx_HAL_Driver/Src/stm32u0xx_hal.c **** {
 1038              		.loc 1 623 1 is_stmt 1 view -0
 1039              		.cfi_startproc
 1040              		@ args = 0, pretend = 0, frame = 0
 1041              		@ frame_needed = 0, uses_anonymous_args = 0
 1042              		@ link register save eliminated.
 624:Drivers/STM32U0xx_HAL_Driver/Src/stm32u0xx_hal.c ****   CLEAR_BIT(VREFBUF->CSR, VREFBUF_CSR_ENVR);
 1043              		.loc 1 624 3 view .LVU185
 1044 0000 024A     		ldr	r2, .L95
 1045 0002 1368     		ldr	r3, [r2]
 1046 0004 0121     		movs	r1, #1
 1047 0006 8B43     		bics	r3, r1
 1048 0008 1360     		str	r3, [r2]
 625:Drivers/STM32U0xx_HAL_Driver/Src/stm32u0xx_hal.c **** }
 1049              		.loc 1 625 1 is_stmt 0 view .LVU186
 1050              		@ sp needed
 1051 000a 7047     		bx	lr
 1052              	.L96:
 1053              		.align	2
 1054              	.L95:
 1055 000c 30000140 		.word	1073807408
 1056              		.cfi_endproc
 1057              	.LFE361:
 1059              		.section	.text.HAL_SYSCFG_EnableIOAnalogSwitchBooster,"ax",%progbits
 1060              		.align	1
 1061              		.global	HAL_SYSCFG_EnableIOAnalogSwitchBooster
 1062              		.syntax unified
 1063              		.code	16
 1064              		.thumb_func
 1066              	HAL_SYSCFG_EnableIOAnalogSwitchBooster:
 1067              	.LFB362:
 626:Drivers/STM32U0xx_HAL_Driver/Src/stm32u0xx_hal.c **** #endif /* VREFBUF */
 627:Drivers/STM32U0xx_HAL_Driver/Src/stm32u0xx_hal.c **** 
 628:Drivers/STM32U0xx_HAL_Driver/Src/stm32u0xx_hal.c **** /**
 629:Drivers/STM32U0xx_HAL_Driver/Src/stm32u0xx_hal.c ****   * @brief  Enable the I/O analog switch voltage booster
 630:Drivers/STM32U0xx_HAL_Driver/Src/stm32u0xx_hal.c ****   * @retval None
 631:Drivers/STM32U0xx_HAL_Driver/Src/stm32u0xx_hal.c ****   */
 632:Drivers/STM32U0xx_HAL_Driver/Src/stm32u0xx_hal.c **** void HAL_SYSCFG_EnableIOAnalogSwitchBooster(void)
 633:Drivers/STM32U0xx_HAL_Driver/Src/stm32u0xx_hal.c **** {
 1068              		.loc 1 633 1 is_stmt 1 view -0
 1069              		.cfi_startproc
 1070              		@ args = 0, pretend = 0, frame = 0
 1071              		@ frame_needed = 0, uses_anonymous_args = 0
 1072              		@ link register save eliminated.
 634:Drivers/STM32U0xx_HAL_Driver/Src/stm32u0xx_hal.c ****   SET_BIT(SYSCFG->CFGR1, SYSCFG_CFGR1_BOOSTEN);
 1073              		.loc 1 634 3 view .LVU188
 1074 0000 034A     		ldr	r2, .L98
 1075 0002 1168     		ldr	r1, [r2]
ARM GAS  C:\Users\upo\AppData\Local\Temp\ccsCunJj.s 			page 31


 1076 0004 8023     		movs	r3, #128
 1077 0006 5B00     		lsls	r3, r3, #1
 1078 0008 0B43     		orrs	r3, r1
 1079 000a 1360     		str	r3, [r2]
 635:Drivers/STM32U0xx_HAL_Driver/Src/stm32u0xx_hal.c **** }
 1080              		.loc 1 635 1 is_stmt 0 view .LVU189
 1081              		@ sp needed
 1082 000c 7047     		bx	lr
 1083              	.L99:
 1084 000e C046     		.align	2
 1085              	.L98:
 1086 0010 00000140 		.word	1073807360
 1087              		.cfi_endproc
 1088              	.LFE362:
 1090              		.section	.text.HAL_SYSCFG_DisableIOAnalogSwitchBooster,"ax",%progbits
 1091              		.align	1
 1092              		.global	HAL_SYSCFG_DisableIOAnalogSwitchBooster
 1093              		.syntax unified
 1094              		.code	16
 1095              		.thumb_func
 1097              	HAL_SYSCFG_DisableIOAnalogSwitchBooster:
 1098              	.LFB363:
 636:Drivers/STM32U0xx_HAL_Driver/Src/stm32u0xx_hal.c **** 
 637:Drivers/STM32U0xx_HAL_Driver/Src/stm32u0xx_hal.c **** /**
 638:Drivers/STM32U0xx_HAL_Driver/Src/stm32u0xx_hal.c ****   * @brief  Disable the I/O analog switch voltage booster
 639:Drivers/STM32U0xx_HAL_Driver/Src/stm32u0xx_hal.c ****   * @retval None
 640:Drivers/STM32U0xx_HAL_Driver/Src/stm32u0xx_hal.c ****   */
 641:Drivers/STM32U0xx_HAL_Driver/Src/stm32u0xx_hal.c **** void HAL_SYSCFG_DisableIOAnalogSwitchBooster(void)
 642:Drivers/STM32U0xx_HAL_Driver/Src/stm32u0xx_hal.c **** {
 1099              		.loc 1 642 1 is_stmt 1 view -0
 1100              		.cfi_startproc
 1101              		@ args = 0, pretend = 0, frame = 0
 1102              		@ frame_needed = 0, uses_anonymous_args = 0
 1103              		@ link register save eliminated.
 643:Drivers/STM32U0xx_HAL_Driver/Src/stm32u0xx_hal.c ****   CLEAR_BIT(SYSCFG->CFGR1, SYSCFG_CFGR1_BOOSTEN);
 1104              		.loc 1 643 3 view .LVU191
 1105 0000 024A     		ldr	r2, .L101
 1106 0002 1368     		ldr	r3, [r2]
 1107 0004 0249     		ldr	r1, .L101+4
 1108 0006 0B40     		ands	r3, r1
 1109 0008 1360     		str	r3, [r2]
 644:Drivers/STM32U0xx_HAL_Driver/Src/stm32u0xx_hal.c **** }
 1110              		.loc 1 644 1 is_stmt 0 view .LVU192
 1111              		@ sp needed
 1112 000a 7047     		bx	lr
 1113              	.L102:
 1114              		.align	2
 1115              	.L101:
 1116 000c 00000140 		.word	1073807360
 1117 0010 FFFEFFFF 		.word	-257
 1118              		.cfi_endproc
 1119              	.LFE363:
 1121              		.section	.text.HAL_SYSCFG_EnableRemap,"ax",%progbits
 1122              		.align	1
 1123              		.global	HAL_SYSCFG_EnableRemap
 1124              		.syntax unified
 1125              		.code	16
ARM GAS  C:\Users\upo\AppData\Local\Temp\ccsCunJj.s 			page 32


 1126              		.thumb_func
 1128              	HAL_SYSCFG_EnableRemap:
 1129              	.LVL37:
 1130              	.LFB364:
 645:Drivers/STM32U0xx_HAL_Driver/Src/stm32u0xx_hal.c **** 
 646:Drivers/STM32U0xx_HAL_Driver/Src/stm32u0xx_hal.c **** /**
 647:Drivers/STM32U0xx_HAL_Driver/Src/stm32u0xx_hal.c ****   * @brief  Enable the remap on PA11_PA12
 648:Drivers/STM32U0xx_HAL_Driver/Src/stm32u0xx_hal.c ****   * @param  PinRemap specifies which pins have to be remapped
 649:Drivers/STM32U0xx_HAL_Driver/Src/stm32u0xx_hal.c ****   *         This parameter can be any combination of the following values:
 650:Drivers/STM32U0xx_HAL_Driver/Src/stm32u0xx_hal.c ****   *         @arg @ref SYSCFG_REMAP_PA11
 651:Drivers/STM32U0xx_HAL_Driver/Src/stm32u0xx_hal.c ****   *         @arg @ref SYSCFG_REMAP_PA12
 652:Drivers/STM32U0xx_HAL_Driver/Src/stm32u0xx_hal.c ****   * @retval None
 653:Drivers/STM32U0xx_HAL_Driver/Src/stm32u0xx_hal.c ****   */
 654:Drivers/STM32U0xx_HAL_Driver/Src/stm32u0xx_hal.c **** void HAL_SYSCFG_EnableRemap(uint32_t PinRemap)
 655:Drivers/STM32U0xx_HAL_Driver/Src/stm32u0xx_hal.c **** {
 1131              		.loc 1 655 1 is_stmt 1 view -0
 1132              		.cfi_startproc
 1133              		@ args = 0, pretend = 0, frame = 0
 1134              		@ frame_needed = 0, uses_anonymous_args = 0
 1135              		@ link register save eliminated.
 656:Drivers/STM32U0xx_HAL_Driver/Src/stm32u0xx_hal.c ****   /* Check the parameter */
 657:Drivers/STM32U0xx_HAL_Driver/Src/stm32u0xx_hal.c ****   assert_param(IS_HAL_REMAP_PIN(PinRemap));
 1136              		.loc 1 657 3 view .LVU194
 658:Drivers/STM32U0xx_HAL_Driver/Src/stm32u0xx_hal.c ****   SET_BIT(SYSCFG->CFGR1, PinRemap);
 1137              		.loc 1 658 3 view .LVU195
 1138 0000 024A     		ldr	r2, .L104
 1139 0002 1368     		ldr	r3, [r2]
 1140 0004 0343     		orrs	r3, r0
 1141 0006 1360     		str	r3, [r2]
 659:Drivers/STM32U0xx_HAL_Driver/Src/stm32u0xx_hal.c **** }
 1142              		.loc 1 659 1 is_stmt 0 view .LVU196
 1143              		@ sp needed
 1144 0008 7047     		bx	lr
 1145              	.L105:
 1146 000a C046     		.align	2
 1147              	.L104:
 1148 000c 00000140 		.word	1073807360
 1149              		.cfi_endproc
 1150              	.LFE364:
 1152              		.section	.text.HAL_SYSCFG_DisableRemap,"ax",%progbits
 1153              		.align	1
 1154              		.global	HAL_SYSCFG_DisableRemap
 1155              		.syntax unified
 1156              		.code	16
 1157              		.thumb_func
 1159              	HAL_SYSCFG_DisableRemap:
 1160              	.LVL38:
 1161              	.LFB365:
 660:Drivers/STM32U0xx_HAL_Driver/Src/stm32u0xx_hal.c **** 
 661:Drivers/STM32U0xx_HAL_Driver/Src/stm32u0xx_hal.c **** /**
 662:Drivers/STM32U0xx_HAL_Driver/Src/stm32u0xx_hal.c ****   * @brief  Disable the remap on PA11_PA12
 663:Drivers/STM32U0xx_HAL_Driver/Src/stm32u0xx_hal.c ****   * @param  PinRemap specifies which pins will behave normally
 664:Drivers/STM32U0xx_HAL_Driver/Src/stm32u0xx_hal.c ****   *         This parameter can be any combination of the following values:
 665:Drivers/STM32U0xx_HAL_Driver/Src/stm32u0xx_hal.c ****   *         @arg @ref SYSCFG_REMAP_PA11
 666:Drivers/STM32U0xx_HAL_Driver/Src/stm32u0xx_hal.c ****   *         @arg @ref SYSCFG_REMAP_PA12
 667:Drivers/STM32U0xx_HAL_Driver/Src/stm32u0xx_hal.c ****   * @retval None
 668:Drivers/STM32U0xx_HAL_Driver/Src/stm32u0xx_hal.c ****   */
ARM GAS  C:\Users\upo\AppData\Local\Temp\ccsCunJj.s 			page 33


 669:Drivers/STM32U0xx_HAL_Driver/Src/stm32u0xx_hal.c **** void HAL_SYSCFG_DisableRemap(uint32_t PinRemap)
 670:Drivers/STM32U0xx_HAL_Driver/Src/stm32u0xx_hal.c **** {
 1162              		.loc 1 670 1 is_stmt 1 view -0
 1163              		.cfi_startproc
 1164              		@ args = 0, pretend = 0, frame = 0
 1165              		@ frame_needed = 0, uses_anonymous_args = 0
 1166              		@ link register save eliminated.
 671:Drivers/STM32U0xx_HAL_Driver/Src/stm32u0xx_hal.c ****   /* Check the parameter */
 672:Drivers/STM32U0xx_HAL_Driver/Src/stm32u0xx_hal.c ****   assert_param(IS_HAL_REMAP_PIN(PinRemap));
 1167              		.loc 1 672 3 view .LVU198
 673:Drivers/STM32U0xx_HAL_Driver/Src/stm32u0xx_hal.c ****   CLEAR_BIT(SYSCFG->CFGR1, PinRemap);
 1168              		.loc 1 673 3 view .LVU199
 1169 0000 024A     		ldr	r2, .L107
 1170 0002 1368     		ldr	r3, [r2]
 1171 0004 8343     		bics	r3, r0
 1172 0006 1360     		str	r3, [r2]
 674:Drivers/STM32U0xx_HAL_Driver/Src/stm32u0xx_hal.c **** }
 1173              		.loc 1 674 1 is_stmt 0 view .LVU200
 1174              		@ sp needed
 1175 0008 7047     		bx	lr
 1176              	.L108:
 1177 000a C046     		.align	2
 1178              	.L107:
 1179 000c 00000140 		.word	1073807360
 1180              		.cfi_endproc
 1181              	.LFE365:
 1183              		.section	.text.HAL_SYSCFG_EnableTSCComparatorMode,"ax",%progbits
 1184              		.align	1
 1185              		.global	HAL_SYSCFG_EnableTSCComparatorMode
 1186              		.syntax unified
 1187              		.code	16
 1188              		.thumb_func
 1190              	HAL_SYSCFG_EnableTSCComparatorMode:
 1191              	.LFB366:
 675:Drivers/STM32U0xx_HAL_Driver/Src/stm32u0xx_hal.c **** 
 676:Drivers/STM32U0xx_HAL_Driver/Src/stm32u0xx_hal.c **** /**
 677:Drivers/STM32U0xx_HAL_Driver/Src/stm32u0xx_hal.c ****   * @brief  Enable TSC Comparator Mode
 678:Drivers/STM32U0xx_HAL_Driver/Src/stm32u0xx_hal.c ****   * @retval None
 679:Drivers/STM32U0xx_HAL_Driver/Src/stm32u0xx_hal.c ****   */
 680:Drivers/STM32U0xx_HAL_Driver/Src/stm32u0xx_hal.c **** void HAL_SYSCFG_EnableTSCComparatorMode(void)
 681:Drivers/STM32U0xx_HAL_Driver/Src/stm32u0xx_hal.c **** {
 1192              		.loc 1 681 1 is_stmt 1 view -0
 1193              		.cfi_startproc
 1194              		@ args = 0, pretend = 0, frame = 0
 1195              		@ frame_needed = 0, uses_anonymous_args = 0
 1196              		@ link register save eliminated.
 682:Drivers/STM32U0xx_HAL_Driver/Src/stm32u0xx_hal.c ****   SET_BIT(SYSCFG->TSCCR, SYSCFG_TSCCR_TSCIOCTRL);
 1197              		.loc 1 682 3 view .LVU202
 1198 0000 024A     		ldr	r2, .L110
 1199 0002 536A     		ldr	r3, [r2, #36]
 1200 0004 2021     		movs	r1, #32
 1201 0006 0B43     		orrs	r3, r1
 1202 0008 5362     		str	r3, [r2, #36]
 683:Drivers/STM32U0xx_HAL_Driver/Src/stm32u0xx_hal.c **** }
 1203              		.loc 1 683 1 is_stmt 0 view .LVU203
 1204              		@ sp needed
 1205 000a 7047     		bx	lr
ARM GAS  C:\Users\upo\AppData\Local\Temp\ccsCunJj.s 			page 34


 1206              	.L111:
 1207              		.align	2
 1208              	.L110:
 1209 000c 00000140 		.word	1073807360
 1210              		.cfi_endproc
 1211              	.LFE366:
 1213              		.section	.text.HAL_SYSCFG_DisableTSCComparatorMode,"ax",%progbits
 1214              		.align	1
 1215              		.global	HAL_SYSCFG_DisableTSCComparatorMode
 1216              		.syntax unified
 1217              		.code	16
 1218              		.thumb_func
 1220              	HAL_SYSCFG_DisableTSCComparatorMode:
 1221              	.LFB367:
 684:Drivers/STM32U0xx_HAL_Driver/Src/stm32u0xx_hal.c **** 
 685:Drivers/STM32U0xx_HAL_Driver/Src/stm32u0xx_hal.c **** /**
 686:Drivers/STM32U0xx_HAL_Driver/Src/stm32u0xx_hal.c ****   * @brief  Disable TSC Comparator Mode
 687:Drivers/STM32U0xx_HAL_Driver/Src/stm32u0xx_hal.c ****   * @retval None
 688:Drivers/STM32U0xx_HAL_Driver/Src/stm32u0xx_hal.c ****   */
 689:Drivers/STM32U0xx_HAL_Driver/Src/stm32u0xx_hal.c **** void HAL_SYSCFG_DisableTSCComparatorMode(void)
 690:Drivers/STM32U0xx_HAL_Driver/Src/stm32u0xx_hal.c **** {
 1222              		.loc 1 690 1 is_stmt 1 view -0
 1223              		.cfi_startproc
 1224              		@ args = 0, pretend = 0, frame = 0
 1225              		@ frame_needed = 0, uses_anonymous_args = 0
 1226              		@ link register save eliminated.
 691:Drivers/STM32U0xx_HAL_Driver/Src/stm32u0xx_hal.c ****   CLEAR_BIT(SYSCFG->TSCCR, SYSCFG_TSCCR_TSCIOCTRL);
 1227              		.loc 1 691 3 view .LVU205
 1228 0000 024A     		ldr	r2, .L113
 1229 0002 536A     		ldr	r3, [r2, #36]
 1230 0004 2021     		movs	r1, #32
 1231 0006 8B43     		bics	r3, r1
 1232 0008 5362     		str	r3, [r2, #36]
 692:Drivers/STM32U0xx_HAL_Driver/Src/stm32u0xx_hal.c **** }
 1233              		.loc 1 692 1 is_stmt 0 view .LVU206
 1234              		@ sp needed
 1235 000a 7047     		bx	lr
 1236              	.L114:
 1237              		.align	2
 1238              	.L113:
 1239 000c 00000140 		.word	1073807360
 1240              		.cfi_endproc
 1241              	.LFE367:
 1243              		.section	.text.HAL_SYSCFG_SetTSCComparatorModeIO,"ax",%progbits
 1244              		.align	1
 1245              		.global	HAL_SYSCFG_SetTSCComparatorModeIO
 1246              		.syntax unified
 1247              		.code	16
 1248              		.thumb_func
 1250              	HAL_SYSCFG_SetTSCComparatorModeIO:
 1251              	.LVL39:
 1252              	.LFB368:
 693:Drivers/STM32U0xx_HAL_Driver/Src/stm32u0xx_hal.c **** 
 694:Drivers/STM32U0xx_HAL_Driver/Src/stm32u0xx_hal.c **** /**
 695:Drivers/STM32U0xx_HAL_Driver/Src/stm32u0xx_hal.c ****   * @brief  Set configuration of TSC comparator mode
 696:Drivers/STM32U0xx_HAL_Driver/Src/stm32u0xx_hal.c ****   * @param  CompModeIOGRP specifies which comparator mode group IO will be configured.
 697:Drivers/STM32U0xx_HAL_Driver/Src/stm32u0xx_hal.c ****   *         This parameter can be any combination of the following values:
ARM GAS  C:\Users\upo\AppData\Local\Temp\ccsCunJj.s 			page 35


 698:Drivers/STM32U0xx_HAL_Driver/Src/stm32u0xx_hal.c ****   *         @arg @ref SYSCFG_COMPMODE_GROUP
 699:Drivers/STM32U0xx_HAL_Driver/Src/stm32u0xx_hal.c ****   * @retval None
 700:Drivers/STM32U0xx_HAL_Driver/Src/stm32u0xx_hal.c ****   */
 701:Drivers/STM32U0xx_HAL_Driver/Src/stm32u0xx_hal.c **** void HAL_SYSCFG_SetTSCComparatorModeIO(uint32_t CompModeIOGRP)
 702:Drivers/STM32U0xx_HAL_Driver/Src/stm32u0xx_hal.c **** {
 1253              		.loc 1 702 1 is_stmt 1 view -0
 1254              		.cfi_startproc
 1255              		@ args = 0, pretend = 0, frame = 0
 1256              		@ frame_needed = 0, uses_anonymous_args = 0
 1257              		@ link register save eliminated.
 703:Drivers/STM32U0xx_HAL_Driver/Src/stm32u0xx_hal.c ****   /* Check the parameter */
 704:Drivers/STM32U0xx_HAL_Driver/Src/stm32u0xx_hal.c ****   assert_param(IS_SYSCFG_COMPMODE(CompModeIOGRP));
 1258              		.loc 1 704 3 view .LVU208
 705:Drivers/STM32U0xx_HAL_Driver/Src/stm32u0xx_hal.c **** 
 706:Drivers/STM32U0xx_HAL_Driver/Src/stm32u0xx_hal.c ****   SET_BIT(SYSCFG->TSCCR, CompModeIOGRP);
 1259              		.loc 1 706 3 view .LVU209
 1260 0000 024A     		ldr	r2, .L116
 1261 0002 536A     		ldr	r3, [r2, #36]
 1262 0004 0343     		orrs	r3, r0
 1263 0006 5362     		str	r3, [r2, #36]
 707:Drivers/STM32U0xx_HAL_Driver/Src/stm32u0xx_hal.c **** }
 1264              		.loc 1 707 1 is_stmt 0 view .LVU210
 1265              		@ sp needed
 1266 0008 7047     		bx	lr
 1267              	.L117:
 1268 000a C046     		.align	2
 1269              	.L116:
 1270 000c 00000140 		.word	1073807360
 1271              		.cfi_endproc
 1272              	.LFE368:
 1274              		.section	.text.HAL_SYSCFG_GetTSCComparatorModeIO,"ax",%progbits
 1275              		.align	1
 1276              		.global	HAL_SYSCFG_GetTSCComparatorModeIO
 1277              		.syntax unified
 1278              		.code	16
 1279              		.thumb_func
 1281              	HAL_SYSCFG_GetTSCComparatorModeIO:
 1282              	.LVL40:
 1283              	.LFB369:
 708:Drivers/STM32U0xx_HAL_Driver/Src/stm32u0xx_hal.c **** 
 709:Drivers/STM32U0xx_HAL_Driver/Src/stm32u0xx_hal.c **** /**
 710:Drivers/STM32U0xx_HAL_Driver/Src/stm32u0xx_hal.c ****   * @brief  Get the configuration of TSC comparator mode
 711:Drivers/STM32U0xx_HAL_Driver/Src/stm32u0xx_hal.c ****   * @param  CompModeIOGRP specifies which comparator mode group IO will be configured.
 712:Drivers/STM32U0xx_HAL_Driver/Src/stm32u0xx_hal.c ****   *         This parameter can be any combination of the following values:
 713:Drivers/STM32U0xx_HAL_Driver/Src/stm32u0xx_hal.c ****   *         @arg @ref SYSCFG_COMPMODE_GROUP
 714:Drivers/STM32U0xx_HAL_Driver/Src/stm32u0xx_hal.c ****   * @retval State of bit (1 or 0).
 715:Drivers/STM32U0xx_HAL_Driver/Src/stm32u0xx_hal.c ****   */
 716:Drivers/STM32U0xx_HAL_Driver/Src/stm32u0xx_hal.c **** uint32_t HAL_SYSCFG_GetTSCComparatorModeIO(uint32_t CompModeIOGRP)
 717:Drivers/STM32U0xx_HAL_Driver/Src/stm32u0xx_hal.c **** {
 1284              		.loc 1 717 1 is_stmt 1 view -0
 1285              		.cfi_startproc
 1286              		@ args = 0, pretend = 0, frame = 0
 1287              		@ frame_needed = 0, uses_anonymous_args = 0
 1288              		@ link register save eliminated.
 718:Drivers/STM32U0xx_HAL_Driver/Src/stm32u0xx_hal.c ****   /* Check the parameter */
 719:Drivers/STM32U0xx_HAL_Driver/Src/stm32u0xx_hal.c ****   assert_param(IS_SYSCFG_COMPMODE(CompModeIOGRP));
 1289              		.loc 1 719 3 view .LVU212
ARM GAS  C:\Users\upo\AppData\Local\Temp\ccsCunJj.s 			page 36


 720:Drivers/STM32U0xx_HAL_Driver/Src/stm32u0xx_hal.c **** 
 721:Drivers/STM32U0xx_HAL_Driver/Src/stm32u0xx_hal.c ****   return ((READ_BIT(SYSCFG->TSCCR, CompModeIOGRP) == CompModeIOGRP) ? 1UL : 0UL);
 1290              		.loc 1 721 3 view .LVU213
 1291              		.loc 1 721 12 is_stmt 0 view .LVU214
 1292 0000 044B     		ldr	r3, .L122
 1293 0002 5B6A     		ldr	r3, [r3, #36]
 1294 0004 0340     		ands	r3, r0
 1295              		.loc 1 721 75 view .LVU215
 1296 0006 8342     		cmp	r3, r0
 1297 0008 01D0     		beq	.L121
 1298 000a 0020     		movs	r0, #0
 1299              	.LVL41:
 1300              	.L118:
 722:Drivers/STM32U0xx_HAL_Driver/Src/stm32u0xx_hal.c **** }
 1301              		.loc 1 722 1 view .LVU216
 1302              		@ sp needed
 1303 000c 7047     		bx	lr
 1304              	.LVL42:
 1305              	.L121:
 721:Drivers/STM32U0xx_HAL_Driver/Src/stm32u0xx_hal.c **** }
 1306              		.loc 1 721 75 view .LVU217
 1307 000e 0120     		movs	r0, #1
 1308              	.LVL43:
 721:Drivers/STM32U0xx_HAL_Driver/Src/stm32u0xx_hal.c **** }
 1309              		.loc 1 721 75 view .LVU218
 1310 0010 FCE7     		b	.L118
 1311              	.L123:
 1312 0012 C046     		.align	2
 1313              	.L122:
 1314 0014 00000140 		.word	1073807360
 1315              		.cfi_endproc
 1316              	.LFE369:
 1318              		.section	.text.HAL_SYSCFG_ClearTSCComparatorModeIO,"ax",%progbits
 1319              		.align	1
 1320              		.global	HAL_SYSCFG_ClearTSCComparatorModeIO
 1321              		.syntax unified
 1322              		.code	16
 1323              		.thumb_func
 1325              	HAL_SYSCFG_ClearTSCComparatorModeIO:
 1326              	.LVL44:
 1327              	.LFB370:
 723:Drivers/STM32U0xx_HAL_Driver/Src/stm32u0xx_hal.c **** 
 724:Drivers/STM32U0xx_HAL_Driver/Src/stm32u0xx_hal.c **** /**
 725:Drivers/STM32U0xx_HAL_Driver/Src/stm32u0xx_hal.c ****   * @brief  Clear configuration of TSC comparator mode
 726:Drivers/STM32U0xx_HAL_Driver/Src/stm32u0xx_hal.c ****   * @param  CompModeIOGRP specifies which group will
 727:Drivers/STM32U0xx_HAL_Driver/Src/stm32u0xx_hal.c ****   *         This parameter can be any combination of the following values:
 728:Drivers/STM32U0xx_HAL_Driver/Src/stm32u0xx_hal.c ****   *         @arg @ref SYSCFG_COMPMODE_GROUP
 729:Drivers/STM32U0xx_HAL_Driver/Src/stm32u0xx_hal.c ****   * @retval None
 730:Drivers/STM32U0xx_HAL_Driver/Src/stm32u0xx_hal.c ****   */
 731:Drivers/STM32U0xx_HAL_Driver/Src/stm32u0xx_hal.c **** void HAL_SYSCFG_ClearTSCComparatorModeIO(uint32_t CompModeIOGRP)
 732:Drivers/STM32U0xx_HAL_Driver/Src/stm32u0xx_hal.c **** {
 1328              		.loc 1 732 1 is_stmt 1 view -0
 1329              		.cfi_startproc
 1330              		@ args = 0, pretend = 0, frame = 0
 1331              		@ frame_needed = 0, uses_anonymous_args = 0
 1332              		@ link register save eliminated.
 733:Drivers/STM32U0xx_HAL_Driver/Src/stm32u0xx_hal.c ****   /* Check the parameter */
ARM GAS  C:\Users\upo\AppData\Local\Temp\ccsCunJj.s 			page 37


 734:Drivers/STM32U0xx_HAL_Driver/Src/stm32u0xx_hal.c ****   assert_param(IS_SYSCFG_COMPMODE(CompModeIOGRP));
 1333              		.loc 1 734 3 view .LVU220
 735:Drivers/STM32U0xx_HAL_Driver/Src/stm32u0xx_hal.c **** 
 736:Drivers/STM32U0xx_HAL_Driver/Src/stm32u0xx_hal.c ****   CLEAR_BIT(SYSCFG->TSCCR, CompModeIOGRP);
 1334              		.loc 1 736 3 view .LVU221
 1335 0000 024A     		ldr	r2, .L125
 1336 0002 536A     		ldr	r3, [r2, #36]
 1337 0004 8343     		bics	r3, r0
 1338 0006 5362     		str	r3, [r2, #36]
 737:Drivers/STM32U0xx_HAL_Driver/Src/stm32u0xx_hal.c **** }
 1339              		.loc 1 737 1 is_stmt 0 view .LVU222
 1340              		@ sp needed
 1341 0008 7047     		bx	lr
 1342              	.L126:
 1343 000a C046     		.align	2
 1344              	.L125:
 1345 000c 00000140 		.word	1073807360
 1346              		.cfi_endproc
 1347              	.LFE370:
 1349              		.section	.text.HAL_SYSCFG_LockSRAM2,"ax",%progbits
 1350              		.align	1
 1351              		.global	HAL_SYSCFG_LockSRAM2
 1352              		.syntax unified
 1353              		.code	16
 1354              		.thumb_func
 1356              	HAL_SYSCFG_LockSRAM2:
 1357              	.LFB371:
 738:Drivers/STM32U0xx_HAL_Driver/Src/stm32u0xx_hal.c **** 
 739:Drivers/STM32U0xx_HAL_Driver/Src/stm32u0xx_hal.c **** /**
 740:Drivers/STM32U0xx_HAL_Driver/Src/stm32u0xx_hal.c ****   * @brief  SRAM2 page write protection lock prior to erase
 741:Drivers/STM32U0xx_HAL_Driver/Src/stm32u0xx_hal.c ****   * @retval None
 742:Drivers/STM32U0xx_HAL_Driver/Src/stm32u0xx_hal.c ****   */
 743:Drivers/STM32U0xx_HAL_Driver/Src/stm32u0xx_hal.c **** void HAL_SYSCFG_LockSRAM2(void)
 744:Drivers/STM32U0xx_HAL_Driver/Src/stm32u0xx_hal.c **** {
 1358              		.loc 1 744 1 is_stmt 1 view -0
 1359              		.cfi_startproc
 1360              		@ args = 0, pretend = 0, frame = 0
 1361              		@ frame_needed = 0, uses_anonymous_args = 0
 1362              		@ link register save eliminated.
 745:Drivers/STM32U0xx_HAL_Driver/Src/stm32u0xx_hal.c ****   /* Writing a wrong key reactivates the write protection */
 746:Drivers/STM32U0xx_HAL_Driver/Src/stm32u0xx_hal.c ****   WRITE_REG(SYSCFG->SKR, 0x00);
 1363              		.loc 1 746 3 view .LVU224
 1364 0000 014B     		ldr	r3, .L128
 1365 0002 0022     		movs	r2, #0
 1366 0004 1A62     		str	r2, [r3, #32]
 747:Drivers/STM32U0xx_HAL_Driver/Src/stm32u0xx_hal.c **** }
 1367              		.loc 1 747 1 is_stmt 0 view .LVU225
 1368              		@ sp needed
 1369 0006 7047     		bx	lr
 1370              	.L129:
 1371              		.align	2
 1372              	.L128:
 1373 0008 00000140 		.word	1073807360
 1374              		.cfi_endproc
 1375              	.LFE371:
 1377              		.section	.text.HAL_SYSCFG_UnlockSRAM2,"ax",%progbits
 1378              		.align	1
ARM GAS  C:\Users\upo\AppData\Local\Temp\ccsCunJj.s 			page 38


 1379              		.global	HAL_SYSCFG_UnlockSRAM2
 1380              		.syntax unified
 1381              		.code	16
 1382              		.thumb_func
 1384              	HAL_SYSCFG_UnlockSRAM2:
 1385              	.LFB372:
 748:Drivers/STM32U0xx_HAL_Driver/Src/stm32u0xx_hal.c **** 
 749:Drivers/STM32U0xx_HAL_Driver/Src/stm32u0xx_hal.c **** /**
 750:Drivers/STM32U0xx_HAL_Driver/Src/stm32u0xx_hal.c ****   * @brief  SRAM2 page write protection unlock prior to erase
 751:Drivers/STM32U0xx_HAL_Driver/Src/stm32u0xx_hal.c ****   * @retval None
 752:Drivers/STM32U0xx_HAL_Driver/Src/stm32u0xx_hal.c ****   */
 753:Drivers/STM32U0xx_HAL_Driver/Src/stm32u0xx_hal.c **** void HAL_SYSCFG_UnlockSRAM2(void)
 754:Drivers/STM32U0xx_HAL_Driver/Src/stm32u0xx_hal.c **** {
 1386              		.loc 1 754 1 is_stmt 1 view -0
 1387              		.cfi_startproc
 1388              		@ args = 0, pretend = 0, frame = 0
 1389              		@ frame_needed = 0, uses_anonymous_args = 0
 1390              		@ link register save eliminated.
 755:Drivers/STM32U0xx_HAL_Driver/Src/stm32u0xx_hal.c ****   /* Unlock the write protection of SRAM2  */
 756:Drivers/STM32U0xx_HAL_Driver/Src/stm32u0xx_hal.c ****   WRITE_REG(SYSCFG->SKR, 0xCA);
 1391              		.loc 1 756 3 view .LVU227
 1392 0000 024B     		ldr	r3, .L131
 1393 0002 CA22     		movs	r2, #202
 1394 0004 1A62     		str	r2, [r3, #32]
 757:Drivers/STM32U0xx_HAL_Driver/Src/stm32u0xx_hal.c ****   WRITE_REG(SYSCFG->SKR, 0x53);
 1395              		.loc 1 757 3 view .LVU228
 1396 0006 773A     		subs	r2, r2, #119
 1397 0008 1A62     		str	r2, [r3, #32]
 758:Drivers/STM32U0xx_HAL_Driver/Src/stm32u0xx_hal.c **** }
 1398              		.loc 1 758 1 is_stmt 0 view .LVU229
 1399              		@ sp needed
 1400 000a 7047     		bx	lr
 1401              	.L132:
 1402              		.align	2
 1403              	.L131:
 1404 000c 00000140 		.word	1073807360
 1405              		.cfi_endproc
 1406              	.LFE372:
 1408              		.section	.text.HAL_SYSCFG_EraseSRAM2,"ax",%progbits
 1409              		.align	1
 1410              		.global	HAL_SYSCFG_EraseSRAM2
 1411              		.syntax unified
 1412              		.code	16
 1413              		.thumb_func
 1415              	HAL_SYSCFG_EraseSRAM2:
 1416              	.LFB373:
 759:Drivers/STM32U0xx_HAL_Driver/Src/stm32u0xx_hal.c **** 
 760:Drivers/STM32U0xx_HAL_Driver/Src/stm32u0xx_hal.c **** /**
 761:Drivers/STM32U0xx_HAL_Driver/Src/stm32u0xx_hal.c ****   * @brief  Start a hardware SRAM2 erase operation.
 762:Drivers/STM32U0xx_HAL_Driver/Src/stm32u0xx_hal.c ****   * @note   As long as SRAM2 is not erased the SRAM2ER bit will be set.
 763:Drivers/STM32U0xx_HAL_Driver/Src/stm32u0xx_hal.c ****   *         This bit is automatically reset at the end of the SRAM2 erase operation.
 764:Drivers/STM32U0xx_HAL_Driver/Src/stm32u0xx_hal.c ****   * @retval None
 765:Drivers/STM32U0xx_HAL_Driver/Src/stm32u0xx_hal.c ****   */
 766:Drivers/STM32U0xx_HAL_Driver/Src/stm32u0xx_hal.c **** void HAL_SYSCFG_EraseSRAM2(void)
 767:Drivers/STM32U0xx_HAL_Driver/Src/stm32u0xx_hal.c **** {
 1417              		.loc 1 767 1 is_stmt 1 view -0
 1418              		.cfi_startproc
ARM GAS  C:\Users\upo\AppData\Local\Temp\ccsCunJj.s 			page 39


 1419              		@ args = 0, pretend = 0, frame = 0
 1420              		@ frame_needed = 0, uses_anonymous_args = 0
 1421              		@ link register save eliminated.
 768:Drivers/STM32U0xx_HAL_Driver/Src/stm32u0xx_hal.c ****   /* Starts a hardware SRAM2 erase operation*/
 769:Drivers/STM32U0xx_HAL_Driver/Src/stm32u0xx_hal.c ****   SET_BIT(SYSCFG->SCSR, SYSCFG_SCSR_SRAM2ER);
 1422              		.loc 1 769 3 view .LVU231
 1423 0000 024A     		ldr	r2, .L134
 1424 0002 D369     		ldr	r3, [r2, #28]
 1425 0004 0121     		movs	r1, #1
 1426 0006 0B43     		orrs	r3, r1
 1427 0008 D361     		str	r3, [r2, #28]
 770:Drivers/STM32U0xx_HAL_Driver/Src/stm32u0xx_hal.c **** }
 1428              		.loc 1 770 1 is_stmt 0 view .LVU232
 1429              		@ sp needed
 1430 000a 7047     		bx	lr
 1431              	.L135:
 1432              		.align	2
 1433              	.L134:
 1434 000c 00000140 		.word	1073807360
 1435              		.cfi_endproc
 1436              	.LFE373:
 1438              		.global	uwTickFreq
 1439              		.section	.data.uwTickFreq,"aw"
 1440              		.align	2
 1443              	uwTickFreq:
 1444 0000 01000000 		.word	1
 1445              		.global	uwTickPrio
 1446              		.section	.data.uwTickPrio,"aw"
 1447              		.align	2
 1450              	uwTickPrio:
 1451 0000 04000000 		.word	4
 1452              		.global	uwTick
 1453              		.section	.bss.uwTick,"aw",%nobits
 1454              		.align	2
 1457              	uwTick:
 1458 0000 00000000 		.space	4
 1459              		.text
 1460              	.Letext0:
 1461              		.file 2 "Drivers/CMSIS/Device/ST/STM32U0xx/Include/stm32u073xx.h"
 1462              		.file 3 "C:\\ST\\STM32CubeCLT_1.15.0\\GNU-tools-for-STM32\\bin/../lib/gcc/arm-none-eabi/12.3.1/../
 1463              		.file 4 "C:\\ST\\STM32CubeCLT_1.15.0\\GNU-tools-for-STM32\\bin/../lib/gcc/arm-none-eabi/12.3.1/../
 1464              		.file 5 "Drivers/CMSIS/Include/core_cm0plus.h"
 1465              		.file 6 "Drivers/STM32U0xx_HAL_Driver/Inc/stm32u0xx_hal_def.h"
 1466              		.file 7 "Drivers/CMSIS/Device/ST/STM32U0xx/Include/system_stm32u0xx.h"
 1467              		.file 8 "Drivers/STM32U0xx_HAL_Driver/Inc/stm32u0xx_hal.h"
 1468              		.file 9 "Drivers/STM32U0xx_HAL_Driver/Inc/stm32u0xx_ll_dma.h"
 1469              		.file 10 "Drivers/STM32U0xx_HAL_Driver/Inc/stm32u0xx_hal_cortex.h"
ARM GAS  C:\Users\upo\AppData\Local\Temp\ccsCunJj.s 			page 40

