ARM GAS  C:\Users\upo\AppData\Local\Temp\ccpTke7S.s 			page 1


   1              		.cpu cortex-m0plus
   2              		.arch armv6s-m
   3              		.fpu softvfp
   4              		.eabi_attribute 20, 1
   5              		.eabi_attribute 21, 1
   6              		.eabi_attribute 23, 3
   7              		.eabi_attribute 24, 1
   8              		.eabi_attribute 25, 1
   9              		.eabi_attribute 26, 1
  10              		.eabi_attribute 30, 2
  11              		.eabi_attribute 34, 0
  12              		.eabi_attribute 18, 4
  13              		.file	"stm32u0xx_it.c"
  14              		.text
  15              	.Ltext0:
  16              		.cfi_sections	.debug_frame
  17              		.file 1 "Core/Src/stm32u0xx_it.c"
  18              		.section	.text.NMI_Handler,"ax",%progbits
  19              		.align	1
  20              		.p2align 2,,3
  21              		.global	NMI_Handler
  22              		.syntax unified
  23              		.code	16
  24              		.thumb_func
  26              	NMI_Handler:
  27              	.LFB1425:
   1:Core/Src/stm32u0xx_it.c **** /* USER CODE BEGIN Header */
   2:Core/Src/stm32u0xx_it.c **** /**
   3:Core/Src/stm32u0xx_it.c ****   ******************************************************************************
   4:Core/Src/stm32u0xx_it.c ****   * @file    stm32u0xx_it.c
   5:Core/Src/stm32u0xx_it.c ****   * @brief   Interrupt Service Routines.
   6:Core/Src/stm32u0xx_it.c ****   ******************************************************************************
   7:Core/Src/stm32u0xx_it.c ****   * @attention
   8:Core/Src/stm32u0xx_it.c ****   *
   9:Core/Src/stm32u0xx_it.c ****   * Copyright (c) 2024 STMicroelectronics.
  10:Core/Src/stm32u0xx_it.c ****   * All rights reserved.
  11:Core/Src/stm32u0xx_it.c ****   *
  12:Core/Src/stm32u0xx_it.c ****   * This software is licensed under terms that can be found in the LICENSE file
  13:Core/Src/stm32u0xx_it.c ****   * in the root directory of this software component.
  14:Core/Src/stm32u0xx_it.c ****   * If no LICENSE file comes with this software, it is provided AS-IS.
  15:Core/Src/stm32u0xx_it.c ****   *
  16:Core/Src/stm32u0xx_it.c ****   ******************************************************************************
  17:Core/Src/stm32u0xx_it.c ****   */
  18:Core/Src/stm32u0xx_it.c **** /* USER CODE END Header */
  19:Core/Src/stm32u0xx_it.c **** 
  20:Core/Src/stm32u0xx_it.c **** /* Includes ------------------------------------------------------------------*/
  21:Core/Src/stm32u0xx_it.c **** #include "main.h"
  22:Core/Src/stm32u0xx_it.c **** #include "stm32u0xx_it.h"
  23:Core/Src/stm32u0xx_it.c **** /* Private includes ----------------------------------------------------------*/
  24:Core/Src/stm32u0xx_it.c **** /* USER CODE BEGIN Includes */
  25:Core/Src/stm32u0xx_it.c **** /* USER CODE END Includes */
  26:Core/Src/stm32u0xx_it.c **** 
  27:Core/Src/stm32u0xx_it.c **** /* Private typedef -----------------------------------------------------------*/
  28:Core/Src/stm32u0xx_it.c **** /* USER CODE BEGIN TD */
  29:Core/Src/stm32u0xx_it.c **** 
  30:Core/Src/stm32u0xx_it.c **** /* USER CODE END TD */
  31:Core/Src/stm32u0xx_it.c **** 
ARM GAS  C:\Users\upo\AppData\Local\Temp\ccpTke7S.s 			page 2


  32:Core/Src/stm32u0xx_it.c **** /* Private define ------------------------------------------------------------*/
  33:Core/Src/stm32u0xx_it.c **** /* USER CODE BEGIN PD */
  34:Core/Src/stm32u0xx_it.c **** 
  35:Core/Src/stm32u0xx_it.c **** /* USER CODE END PD */
  36:Core/Src/stm32u0xx_it.c **** 
  37:Core/Src/stm32u0xx_it.c **** /* Private macro -------------------------------------------------------------*/
  38:Core/Src/stm32u0xx_it.c **** /* USER CODE BEGIN PM */
  39:Core/Src/stm32u0xx_it.c **** 
  40:Core/Src/stm32u0xx_it.c **** /* USER CODE END PM */
  41:Core/Src/stm32u0xx_it.c **** 
  42:Core/Src/stm32u0xx_it.c **** /* Private variables ---------------------------------------------------------*/
  43:Core/Src/stm32u0xx_it.c **** /* USER CODE BEGIN PV */
  44:Core/Src/stm32u0xx_it.c **** extern RTC_HandleTypeDef hrtc;
  45:Core/Src/stm32u0xx_it.c **** /* USER CODE END PV */
  46:Core/Src/stm32u0xx_it.c **** 
  47:Core/Src/stm32u0xx_it.c **** /* Private function prototypes -----------------------------------------------*/
  48:Core/Src/stm32u0xx_it.c **** /* USER CODE BEGIN PFP */
  49:Core/Src/stm32u0xx_it.c **** 
  50:Core/Src/stm32u0xx_it.c **** /* USER CODE END PFP */
  51:Core/Src/stm32u0xx_it.c **** 
  52:Core/Src/stm32u0xx_it.c **** /* Private user code ---------------------------------------------------------*/
  53:Core/Src/stm32u0xx_it.c **** /* USER CODE BEGIN 0 */
  54:Core/Src/stm32u0xx_it.c **** 
  55:Core/Src/stm32u0xx_it.c **** /* USER CODE END 0 */
  56:Core/Src/stm32u0xx_it.c **** 
  57:Core/Src/stm32u0xx_it.c **** /* External variables --------------------------------------------------------*/
  58:Core/Src/stm32u0xx_it.c **** extern RTC_HandleTypeDef hrtc;
  59:Core/Src/stm32u0xx_it.c **** /* USER CODE BEGIN EV */
  60:Core/Src/stm32u0xx_it.c **** 
  61:Core/Src/stm32u0xx_it.c **** /* USER CODE END EV */
  62:Core/Src/stm32u0xx_it.c **** 
  63:Core/Src/stm32u0xx_it.c **** /******************************************************************************/
  64:Core/Src/stm32u0xx_it.c **** /*           Cortex Processor Interruption and Exception Handlers          */
  65:Core/Src/stm32u0xx_it.c **** /******************************************************************************/
  66:Core/Src/stm32u0xx_it.c **** /**
  67:Core/Src/stm32u0xx_it.c ****   * @brief This function handles Non maskable interrupt.
  68:Core/Src/stm32u0xx_it.c ****   */
  69:Core/Src/stm32u0xx_it.c **** void NMI_Handler(void)
  70:Core/Src/stm32u0xx_it.c **** {
  28              		.loc 1 70 1 view -0
  29              		.cfi_startproc
  30              		@ Volatile: function does not return.
  31              		@ args = 0, pretend = 0, frame = 0
  32              		@ frame_needed = 0, uses_anonymous_args = 0
  33              		@ link register save eliminated.
  34              	.L2:
  71:Core/Src/stm32u0xx_it.c ****   /* USER CODE BEGIN NonMaskableInt_IRQn 0 */
  72:Core/Src/stm32u0xx_it.c **** 
  73:Core/Src/stm32u0xx_it.c ****   /* USER CODE END NonMaskableInt_IRQn 0 */
  74:Core/Src/stm32u0xx_it.c ****   /* USER CODE BEGIN NonMaskableInt_IRQn 1 */
  75:Core/Src/stm32u0xx_it.c ****    while (1)
  35              		.loc 1 75 4 discriminator 1 view .LVU1
  76:Core/Src/stm32u0xx_it.c ****   {
  77:Core/Src/stm32u0xx_it.c ****   }
  36              		.loc 1 77 3 discriminator 1 view .LVU2
  75:Core/Src/stm32u0xx_it.c ****   {
  37              		.loc 1 75 10 discriminator 1 view .LVU3
ARM GAS  C:\Users\upo\AppData\Local\Temp\ccpTke7S.s 			page 3


  38 0000 FEE7     		b	.L2
  39              		.cfi_endproc
  40              	.LFE1425:
  42 0002 C046     		.section	.text.HardFault_Handler,"ax",%progbits
  43              		.align	1
  44              		.p2align 2,,3
  45              		.global	HardFault_Handler
  46              		.syntax unified
  47              		.code	16
  48              		.thumb_func
  50              	HardFault_Handler:
  51              	.LFB1426:
  78:Core/Src/stm32u0xx_it.c ****   /* USER CODE END NonMaskableInt_IRQn 1 */
  79:Core/Src/stm32u0xx_it.c **** }
  80:Core/Src/stm32u0xx_it.c **** 
  81:Core/Src/stm32u0xx_it.c **** /**
  82:Core/Src/stm32u0xx_it.c ****   * @brief This function handles Hard fault interrupt.
  83:Core/Src/stm32u0xx_it.c ****   */
  84:Core/Src/stm32u0xx_it.c **** void HardFault_Handler(void)
  85:Core/Src/stm32u0xx_it.c **** {
  52              		.loc 1 85 1 view -0
  53              		.cfi_startproc
  54              		@ Volatile: function does not return.
  55              		@ args = 0, pretend = 0, frame = 0
  56              		@ frame_needed = 0, uses_anonymous_args = 0
  57              		@ link register save eliminated.
  58              	.L5:
  86:Core/Src/stm32u0xx_it.c ****   /* USER CODE BEGIN HardFault_IRQn 0 */
  87:Core/Src/stm32u0xx_it.c **** 
  88:Core/Src/stm32u0xx_it.c ****   /* USER CODE END HardFault_IRQn 0 */
  89:Core/Src/stm32u0xx_it.c ****   while (1)
  59              		.loc 1 89 3 discriminator 1 view .LVU5
  90:Core/Src/stm32u0xx_it.c ****   {
  91:Core/Src/stm32u0xx_it.c ****     /* USER CODE BEGIN W1_HardFault_IRQn 0 */
  92:Core/Src/stm32u0xx_it.c ****     /* USER CODE END W1_HardFault_IRQn 0 */
  93:Core/Src/stm32u0xx_it.c ****   }
  60              		.loc 1 93 3 discriminator 1 view .LVU6
  89:Core/Src/stm32u0xx_it.c ****   {
  61              		.loc 1 89 9 discriminator 1 view .LVU7
  62 0000 FEE7     		b	.L5
  63              		.cfi_endproc
  64              	.LFE1426:
  66 0002 C046     		.section	.text.SVC_Handler,"ax",%progbits
  67              		.align	1
  68              		.p2align 2,,3
  69              		.global	SVC_Handler
  70              		.syntax unified
  71              		.code	16
  72              		.thumb_func
  74              	SVC_Handler:
  75              	.LFB1427:
  94:Core/Src/stm32u0xx_it.c **** }
  95:Core/Src/stm32u0xx_it.c **** 
  96:Core/Src/stm32u0xx_it.c **** /**
  97:Core/Src/stm32u0xx_it.c ****   * @brief This function handles System service call via SVC instruction.
  98:Core/Src/stm32u0xx_it.c ****   */
  99:Core/Src/stm32u0xx_it.c **** void SVC_Handler(void)
ARM GAS  C:\Users\upo\AppData\Local\Temp\ccpTke7S.s 			page 4


 100:Core/Src/stm32u0xx_it.c **** {
  76              		.loc 1 100 1 view -0
  77              		.cfi_startproc
  78              		@ args = 0, pretend = 0, frame = 0
  79              		@ frame_needed = 0, uses_anonymous_args = 0
  80              		@ link register save eliminated.
 101:Core/Src/stm32u0xx_it.c ****   /* USER CODE BEGIN SVCall_IRQn 0 */
 102:Core/Src/stm32u0xx_it.c **** 
 103:Core/Src/stm32u0xx_it.c ****   /* USER CODE END SVCall_IRQn 0 */
 104:Core/Src/stm32u0xx_it.c ****   /* USER CODE BEGIN SVCall_IRQn 1 */
 105:Core/Src/stm32u0xx_it.c **** 
 106:Core/Src/stm32u0xx_it.c ****   /* USER CODE END SVCall_IRQn 1 */
 107:Core/Src/stm32u0xx_it.c **** }
  81              		.loc 1 107 1 view .LVU9
  82              		@ sp needed
  83 0000 7047     		bx	lr
  84              		.cfi_endproc
  85              	.LFE1427:
  87 0002 C046     		.section	.text.PendSV_Handler,"ax",%progbits
  88              		.align	1
  89              		.p2align 2,,3
  90              		.global	PendSV_Handler
  91              		.syntax unified
  92              		.code	16
  93              		.thumb_func
  95              	PendSV_Handler:
  96              	.LFB1432:
  97              		.cfi_startproc
 108:Core/Src/stm32u0xx_it.c **** 
 109:Core/Src/stm32u0xx_it.c **** /**
 110:Core/Src/stm32u0xx_it.c ****   * @brief This function handles Pendable request for system service.
 111:Core/Src/stm32u0xx_it.c ****   */
 112:Core/Src/stm32u0xx_it.c **** void PendSV_Handler(void)
  98              		.loc 1 112 6 view -0
  99              		@ args = 0, pretend = 0, frame = 0
 100              		@ frame_needed = 0, uses_anonymous_args = 0
 101              		@ link register save eliminated.
 102              		@ sp needed
 103 0000 7047     		bx	lr
 104              		.cfi_endproc
 105              	.LFE1432:
 107 0002 C046     		.section	.text.SysTick_Handler,"ax",%progbits
 108              		.align	1
 109              		.p2align 2,,3
 110              		.global	SysTick_Handler
 111              		.syntax unified
 112              		.code	16
 113              		.thumb_func
 115              	SysTick_Handler:
 116              	.LFB1429:
 113:Core/Src/stm32u0xx_it.c **** {
 114:Core/Src/stm32u0xx_it.c ****   /* USER CODE BEGIN PendSV_IRQn 0 */
 115:Core/Src/stm32u0xx_it.c **** 
 116:Core/Src/stm32u0xx_it.c ****   /* USER CODE END PendSV_IRQn 0 */
 117:Core/Src/stm32u0xx_it.c ****   /* USER CODE BEGIN PendSV_IRQn 1 */
 118:Core/Src/stm32u0xx_it.c **** 
 119:Core/Src/stm32u0xx_it.c ****   /* USER CODE END PendSV_IRQn 1 */
ARM GAS  C:\Users\upo\AppData\Local\Temp\ccpTke7S.s 			page 5


 120:Core/Src/stm32u0xx_it.c **** }
 121:Core/Src/stm32u0xx_it.c **** 
 122:Core/Src/stm32u0xx_it.c **** /**
 123:Core/Src/stm32u0xx_it.c ****   * @brief This function handles System tick timer.
 124:Core/Src/stm32u0xx_it.c ****   */
 125:Core/Src/stm32u0xx_it.c **** void SysTick_Handler(void)
 126:Core/Src/stm32u0xx_it.c **** {
 117              		.loc 1 126 1 view -0
 118              		.cfi_startproc
 119              		@ args = 0, pretend = 0, frame = 0
 120              		@ frame_needed = 0, uses_anonymous_args = 0
 127:Core/Src/stm32u0xx_it.c ****   /* USER CODE BEGIN SysTick_IRQn 0 */
 128:Core/Src/stm32u0xx_it.c **** 
 129:Core/Src/stm32u0xx_it.c ****   /* USER CODE END SysTick_IRQn 0 */
 130:Core/Src/stm32u0xx_it.c ****   HAL_IncTick();
 121              		.loc 1 130 3 view .LVU12
 126:Core/Src/stm32u0xx_it.c ****   /* USER CODE BEGIN SysTick_IRQn 0 */
 122              		.loc 1 126 1 is_stmt 0 view .LVU13
 123 0000 10B5     		push	{r4, lr}
 124              	.LCFI0:
 125              		.cfi_def_cfa_offset 8
 126              		.cfi_offset 4, -8
 127              		.cfi_offset 14, -4
 128              		.loc 1 130 3 view .LVU14
 129 0002 FFF7FEFF 		bl	HAL_IncTick
 130              	.LVL0:
 131:Core/Src/stm32u0xx_it.c ****   /* USER CODE BEGIN SysTick_IRQn 1 */
 132:Core/Src/stm32u0xx_it.c **** 
 133:Core/Src/stm32u0xx_it.c ****   /* USER CODE END SysTick_IRQn 1 */
 134:Core/Src/stm32u0xx_it.c **** }
 131              		.loc 1 134 1 view .LVU15
 132              		@ sp needed
 133 0006 10BD     		pop	{r4, pc}
 134              		.cfi_endproc
 135              	.LFE1429:
 137              		.section	.text.RTC_TAMP_IRQHandler,"ax",%progbits
 138              		.align	1
 139              		.p2align 2,,3
 140              		.global	RTC_TAMP_IRQHandler
 141              		.syntax unified
 142              		.code	16
 143              		.thumb_func
 145              	RTC_TAMP_IRQHandler:
 146              	.LFB1430:
 135:Core/Src/stm32u0xx_it.c **** 
 136:Core/Src/stm32u0xx_it.c **** /******************************************************************************/
 137:Core/Src/stm32u0xx_it.c **** /* STM32U0xx Peripheral Interrupt Handlers                                    */
 138:Core/Src/stm32u0xx_it.c **** /* Add here the Interrupt Handlers for the used peripherals.                  */
 139:Core/Src/stm32u0xx_it.c **** /* For the available peripheral interrupt handler names,                      */
 140:Core/Src/stm32u0xx_it.c **** /* please refer to the startup file (startup_stm32u0xx.s).                    */
 141:Core/Src/stm32u0xx_it.c **** /******************************************************************************/
 142:Core/Src/stm32u0xx_it.c **** 
 143:Core/Src/stm32u0xx_it.c **** /**
 144:Core/Src/stm32u0xx_it.c ****   * @brief This function handles RTC and TAMP interrupts (combined EXTI lines 20 & 21).
 145:Core/Src/stm32u0xx_it.c ****   */
 146:Core/Src/stm32u0xx_it.c **** void RTC_TAMP_IRQHandler(void)
 147:Core/Src/stm32u0xx_it.c **** {
ARM GAS  C:\Users\upo\AppData\Local\Temp\ccpTke7S.s 			page 6


 147              		.loc 1 147 1 is_stmt 1 view -0
 148              		.cfi_startproc
 149              		@ args = 0, pretend = 0, frame = 0
 150              		@ frame_needed = 0, uses_anonymous_args = 0
 148:Core/Src/stm32u0xx_it.c ****   /* USER CODE BEGIN RTC_TAMP_IRQn 0 */
 149:Core/Src/stm32u0xx_it.c **** 
 150:Core/Src/stm32u0xx_it.c ****   /* USER CODE END RTC_TAMP_IRQn 0 */
 151:Core/Src/stm32u0xx_it.c ****   HAL_RTCEx_WakeUpTimerIRQHandler(&hrtc);
 151              		.loc 1 151 3 view .LVU17
 147:Core/Src/stm32u0xx_it.c ****   /* USER CODE BEGIN RTC_TAMP_IRQn 0 */
 152              		.loc 1 147 1 is_stmt 0 view .LVU18
 153 0000 10B5     		push	{r4, lr}
 154              	.LCFI1:
 155              		.cfi_def_cfa_offset 8
 156              		.cfi_offset 4, -8
 157              		.cfi_offset 14, -4
 158              		.loc 1 151 3 view .LVU19
 159 0002 0248     		ldr	r0, .L10
 160 0004 FFF7FEFF 		bl	HAL_RTCEx_WakeUpTimerIRQHandler
 161              	.LVL1:
 152:Core/Src/stm32u0xx_it.c ****   /* USER CODE BEGIN RTC_TAMP_IRQn 1 */
 153:Core/Src/stm32u0xx_it.c **** 
 154:Core/Src/stm32u0xx_it.c ****   /* USER CODE END RTC_TAMP_IRQn 1 */
 155:Core/Src/stm32u0xx_it.c **** }
 162              		.loc 1 155 1 view .LVU20
 163              		@ sp needed
 164 0008 10BD     		pop	{r4, pc}
 165              	.L11:
 166 000a C046     		.align	2
 167              	.L10:
 168 000c 00000000 		.word	hrtc
 169              		.cfi_endproc
 170              	.LFE1430:
 172              		.text
 173              	.Letext0:
 174              		.file 2 "C:\\ST\\STM32CubeCLT_1.15.0\\GNU-tools-for-STM32\\bin/../lib/gcc/arm-none-eabi/12.3.1/../
 175              		.file 3 "C:\\ST\\STM32CubeCLT_1.15.0\\GNU-tools-for-STM32\\bin/../lib/gcc/arm-none-eabi/12.3.1/../
 176              		.file 4 "Drivers/CMSIS/Device/ST/STM32U0xx/Include/stm32u073xx.h"
 177              		.file 5 "Drivers/STM32U0xx_HAL_Driver/Inc/stm32u0xx_hal_def.h"
 178              		.file 6 "Drivers/STM32U0xx_HAL_Driver/Inc/stm32u0xx_hal_rtc.h"
 179              		.file 7 "Drivers/STM32U0xx_HAL_Driver/Inc/stm32u0xx_ll_dma.h"
 180              		.file 8 "Drivers/STM32U0xx_HAL_Driver/Inc/stm32u0xx_ll_usart.h"
 181              		.file 9 "Drivers/STM32U0xx_HAL_Driver/Inc/stm32u0xx_hal.h"
 182              		.file 10 "Drivers/STM32U0xx_HAL_Driver/Inc/stm32u0xx_hal_rtc_ex.h"
ARM GAS  C:\Users\upo\AppData\Local\Temp\ccpTke7S.s 			page 7

