ARM GAS  C:\Users\upo\AppData\Local\Temp\ccMLO1b7.s 			page 1


   1              		.cpu cortex-m0plus
   2              		.arch armv6s-m
   3              		.fpu softvfp
   4              		.eabi_attribute 20, 1
   5              		.eabi_attribute 21, 1
   6              		.eabi_attribute 23, 3
   7              		.eabi_attribute 24, 1
   8              		.eabi_attribute 25, 1
   9              		.eabi_attribute 26, 1
  10              		.eabi_attribute 30, 2
  11              		.eabi_attribute 34, 0
  12              		.eabi_attribute 18, 4
  13              		.file	"stm32u0xx_hal_rcc_ex.c"
  14              		.text
  15              	.Ltext0:
  16              		.cfi_sections	.debug_frame
  17              		.file 1 "Drivers/STM32U0xx_HAL_Driver/Src/stm32u0xx_hal_rcc_ex.c"
  18              		.section	.text.HAL_RCCEx_PeriphCLKConfig,"ax",%progbits
  19              		.align	1
  20              		.p2align 2,,3
  21              		.global	HAL_RCCEx_PeriphCLKConfig
  22              		.syntax unified
  23              		.code	16
  24              		.thumb_func
  26              	HAL_RCCEx_PeriphCLKConfig:
  27              	.LVL0:
  28              	.LFB334:
   1:Drivers/STM32U0xx_HAL_Driver/Src/stm32u0xx_hal_rcc_ex.c **** /**
   2:Drivers/STM32U0xx_HAL_Driver/Src/stm32u0xx_hal_rcc_ex.c ****   ******************************************************************************
   3:Drivers/STM32U0xx_HAL_Driver/Src/stm32u0xx_hal_rcc_ex.c ****   * @file    stm32u0xx_hal_rcc_ex.c
   4:Drivers/STM32U0xx_HAL_Driver/Src/stm32u0xx_hal_rcc_ex.c ****   * @author  MCD Application Team
   5:Drivers/STM32U0xx_HAL_Driver/Src/stm32u0xx_hal_rcc_ex.c ****   * @brief   Extended RCC HAL module driver.
   6:Drivers/STM32U0xx_HAL_Driver/Src/stm32u0xx_hal_rcc_ex.c ****   *          This file provides firmware functions to manage the following
   7:Drivers/STM32U0xx_HAL_Driver/Src/stm32u0xx_hal_rcc_ex.c ****   *          functionalities RCC extended peripheral:
   8:Drivers/STM32U0xx_HAL_Driver/Src/stm32u0xx_hal_rcc_ex.c ****   *           + Extended Peripheral Control functions
   9:Drivers/STM32U0xx_HAL_Driver/Src/stm32u0xx_hal_rcc_ex.c ****   *           + Extended Clock management functions
  10:Drivers/STM32U0xx_HAL_Driver/Src/stm32u0xx_hal_rcc_ex.c ****   *           + Extended Clock Recovery System Control functions
  11:Drivers/STM32U0xx_HAL_Driver/Src/stm32u0xx_hal_rcc_ex.c ****   *
  12:Drivers/STM32U0xx_HAL_Driver/Src/stm32u0xx_hal_rcc_ex.c ****   ******************************************************************************
  13:Drivers/STM32U0xx_HAL_Driver/Src/stm32u0xx_hal_rcc_ex.c ****   * @attention
  14:Drivers/STM32U0xx_HAL_Driver/Src/stm32u0xx_hal_rcc_ex.c ****   *
  15:Drivers/STM32U0xx_HAL_Driver/Src/stm32u0xx_hal_rcc_ex.c ****   * Copyright (c) 2023 STMicroelectronics.
  16:Drivers/STM32U0xx_HAL_Driver/Src/stm32u0xx_hal_rcc_ex.c ****   * All rights reserved.
  17:Drivers/STM32U0xx_HAL_Driver/Src/stm32u0xx_hal_rcc_ex.c ****   *
  18:Drivers/STM32U0xx_HAL_Driver/Src/stm32u0xx_hal_rcc_ex.c ****   * This software is licensed under terms that can be found in the LICENSE file
  19:Drivers/STM32U0xx_HAL_Driver/Src/stm32u0xx_hal_rcc_ex.c ****   * in the root directory of this software component.
  20:Drivers/STM32U0xx_HAL_Driver/Src/stm32u0xx_hal_rcc_ex.c ****   * If no LICENSE file comes with this software, it is provided AS-IS.
  21:Drivers/STM32U0xx_HAL_Driver/Src/stm32u0xx_hal_rcc_ex.c ****   *
  22:Drivers/STM32U0xx_HAL_Driver/Src/stm32u0xx_hal_rcc_ex.c ****   ******************************************************************************
  23:Drivers/STM32U0xx_HAL_Driver/Src/stm32u0xx_hal_rcc_ex.c ****   */
  24:Drivers/STM32U0xx_HAL_Driver/Src/stm32u0xx_hal_rcc_ex.c **** 
  25:Drivers/STM32U0xx_HAL_Driver/Src/stm32u0xx_hal_rcc_ex.c **** /* Includes ------------------------------------------------------------------*/
  26:Drivers/STM32U0xx_HAL_Driver/Src/stm32u0xx_hal_rcc_ex.c **** #include "stm32u0xx_hal.h"
  27:Drivers/STM32U0xx_HAL_Driver/Src/stm32u0xx_hal_rcc_ex.c **** 
  28:Drivers/STM32U0xx_HAL_Driver/Src/stm32u0xx_hal_rcc_ex.c **** /** @addtogroup STM32U0xx_HAL_Driver
  29:Drivers/STM32U0xx_HAL_Driver/Src/stm32u0xx_hal_rcc_ex.c ****   * @{
  30:Drivers/STM32U0xx_HAL_Driver/Src/stm32u0xx_hal_rcc_ex.c ****   */
ARM GAS  C:\Users\upo\AppData\Local\Temp\ccMLO1b7.s 			page 2


  31:Drivers/STM32U0xx_HAL_Driver/Src/stm32u0xx_hal_rcc_ex.c **** 
  32:Drivers/STM32U0xx_HAL_Driver/Src/stm32u0xx_hal_rcc_ex.c **** /** @defgroup RCCEx RCCEx
  33:Drivers/STM32U0xx_HAL_Driver/Src/stm32u0xx_hal_rcc_ex.c ****   * @brief RCC Extended HAL module driver
  34:Drivers/STM32U0xx_HAL_Driver/Src/stm32u0xx_hal_rcc_ex.c ****   * @{
  35:Drivers/STM32U0xx_HAL_Driver/Src/stm32u0xx_hal_rcc_ex.c ****   */
  36:Drivers/STM32U0xx_HAL_Driver/Src/stm32u0xx_hal_rcc_ex.c **** 
  37:Drivers/STM32U0xx_HAL_Driver/Src/stm32u0xx_hal_rcc_ex.c **** #ifdef HAL_RCC_MODULE_ENABLED
  38:Drivers/STM32U0xx_HAL_Driver/Src/stm32u0xx_hal_rcc_ex.c **** 
  39:Drivers/STM32U0xx_HAL_Driver/Src/stm32u0xx_hal_rcc_ex.c **** /* Private typedef -----------------------------------------------------------*/
  40:Drivers/STM32U0xx_HAL_Driver/Src/stm32u0xx_hal_rcc_ex.c **** /* Private defines -----------------------------------------------------------*/
  41:Drivers/STM32U0xx_HAL_Driver/Src/stm32u0xx_hal_rcc_ex.c **** /** @defgroup RCCEx_Private_Constants RCCEx Private Constants
  42:Drivers/STM32U0xx_HAL_Driver/Src/stm32u0xx_hal_rcc_ex.c ****   * @{
  43:Drivers/STM32U0xx_HAL_Driver/Src/stm32u0xx_hal_rcc_ex.c ****   */
  44:Drivers/STM32U0xx_HAL_Driver/Src/stm32u0xx_hal_rcc_ex.c **** #define __LSCO_CLK_ENABLE()       __HAL_RCC_GPIOA_CLK_ENABLE()
  45:Drivers/STM32U0xx_HAL_Driver/Src/stm32u0xx_hal_rcc_ex.c **** #define LSCO_GPIO_PORT            GPIOA
  46:Drivers/STM32U0xx_HAL_Driver/Src/stm32u0xx_hal_rcc_ex.c **** #define LSCO_PIN                  GPIO_PIN_2
  47:Drivers/STM32U0xx_HAL_Driver/Src/stm32u0xx_hal_rcc_ex.c **** 
  48:Drivers/STM32U0xx_HAL_Driver/Src/stm32u0xx_hal_rcc_ex.c **** /**
  49:Drivers/STM32U0xx_HAL_Driver/Src/stm32u0xx_hal_rcc_ex.c ****   * @}
  50:Drivers/STM32U0xx_HAL_Driver/Src/stm32u0xx_hal_rcc_ex.c ****   */
  51:Drivers/STM32U0xx_HAL_Driver/Src/stm32u0xx_hal_rcc_ex.c **** 
  52:Drivers/STM32U0xx_HAL_Driver/Src/stm32u0xx_hal_rcc_ex.c **** /* Private macros ------------------------------------------------------------*/
  53:Drivers/STM32U0xx_HAL_Driver/Src/stm32u0xx_hal_rcc_ex.c **** /* Private variables ---------------------------------------------------------*/
  54:Drivers/STM32U0xx_HAL_Driver/Src/stm32u0xx_hal_rcc_ex.c **** /* Private function prototypes -----------------------------------------------*/
  55:Drivers/STM32U0xx_HAL_Driver/Src/stm32u0xx_hal_rcc_ex.c **** /** @defgroup RCCEx_Private_Functions RCCEx Private Functions
  56:Drivers/STM32U0xx_HAL_Driver/Src/stm32u0xx_hal_rcc_ex.c ****   * @{
  57:Drivers/STM32U0xx_HAL_Driver/Src/stm32u0xx_hal_rcc_ex.c ****   */
  58:Drivers/STM32U0xx_HAL_Driver/Src/stm32u0xx_hal_rcc_ex.c **** static HAL_StatusTypeDef RCCEx_PLLSource_Enable(uint32_t PllSource);
  59:Drivers/STM32U0xx_HAL_Driver/Src/stm32u0xx_hal_rcc_ex.c **** 
  60:Drivers/STM32U0xx_HAL_Driver/Src/stm32u0xx_hal_rcc_ex.c **** /**
  61:Drivers/STM32U0xx_HAL_Driver/Src/stm32u0xx_hal_rcc_ex.c ****   * @}
  62:Drivers/STM32U0xx_HAL_Driver/Src/stm32u0xx_hal_rcc_ex.c ****   */
  63:Drivers/STM32U0xx_HAL_Driver/Src/stm32u0xx_hal_rcc_ex.c **** 
  64:Drivers/STM32U0xx_HAL_Driver/Src/stm32u0xx_hal_rcc_ex.c **** /* Exported functions --------------------------------------------------------*/
  65:Drivers/STM32U0xx_HAL_Driver/Src/stm32u0xx_hal_rcc_ex.c **** 
  66:Drivers/STM32U0xx_HAL_Driver/Src/stm32u0xx_hal_rcc_ex.c **** /** @defgroup RCCEx_Exported_Functions RCCEx Exported Functions
  67:Drivers/STM32U0xx_HAL_Driver/Src/stm32u0xx_hal_rcc_ex.c ****   * @{
  68:Drivers/STM32U0xx_HAL_Driver/Src/stm32u0xx_hal_rcc_ex.c ****   */
  69:Drivers/STM32U0xx_HAL_Driver/Src/stm32u0xx_hal_rcc_ex.c **** 
  70:Drivers/STM32U0xx_HAL_Driver/Src/stm32u0xx_hal_rcc_ex.c **** /** @defgroup RCCEx_Exported_Functions_Group1 Extended Peripheral Control functions
  71:Drivers/STM32U0xx_HAL_Driver/Src/stm32u0xx_hal_rcc_ex.c ****   *  @brief  Extended Peripheral Control functions
  72:Drivers/STM32U0xx_HAL_Driver/Src/stm32u0xx_hal_rcc_ex.c ****   *
  73:Drivers/STM32U0xx_HAL_Driver/Src/stm32u0xx_hal_rcc_ex.c **** @verbatim
  74:Drivers/STM32U0xx_HAL_Driver/Src/stm32u0xx_hal_rcc_ex.c ****  ===============================================================================
  75:Drivers/STM32U0xx_HAL_Driver/Src/stm32u0xx_hal_rcc_ex.c ****                 ##### Extended Peripheral Control functions  #####
  76:Drivers/STM32U0xx_HAL_Driver/Src/stm32u0xx_hal_rcc_ex.c ****  ===============================================================================
  77:Drivers/STM32U0xx_HAL_Driver/Src/stm32u0xx_hal_rcc_ex.c ****     [..]
  78:Drivers/STM32U0xx_HAL_Driver/Src/stm32u0xx_hal_rcc_ex.c ****     This subsection provides a set of functions allowing to control the RCC Clocks
  79:Drivers/STM32U0xx_HAL_Driver/Src/stm32u0xx_hal_rcc_ex.c ****     frequencies.
  80:Drivers/STM32U0xx_HAL_Driver/Src/stm32u0xx_hal_rcc_ex.c ****     [..]
  81:Drivers/STM32U0xx_HAL_Driver/Src/stm32u0xx_hal_rcc_ex.c ****     (@) Important note: Care must be taken when HAL_RCCEx_PeriphCLKConfig() is used to
  82:Drivers/STM32U0xx_HAL_Driver/Src/stm32u0xx_hal_rcc_ex.c ****         select the RTC clock source; in this case the Backup domain will be reset in
  83:Drivers/STM32U0xx_HAL_Driver/Src/stm32u0xx_hal_rcc_ex.c ****         order to modify the RTC Clock source, as consequence RTC registers (including
  84:Drivers/STM32U0xx_HAL_Driver/Src/stm32u0xx_hal_rcc_ex.c ****         the backup registers) are set to their reset values.
  85:Drivers/STM32U0xx_HAL_Driver/Src/stm32u0xx_hal_rcc_ex.c **** 
  86:Drivers/STM32U0xx_HAL_Driver/Src/stm32u0xx_hal_rcc_ex.c **** @endverbatim
  87:Drivers/STM32U0xx_HAL_Driver/Src/stm32u0xx_hal_rcc_ex.c ****   * @{
ARM GAS  C:\Users\upo\AppData\Local\Temp\ccMLO1b7.s 			page 3


  88:Drivers/STM32U0xx_HAL_Driver/Src/stm32u0xx_hal_rcc_ex.c ****   */
  89:Drivers/STM32U0xx_HAL_Driver/Src/stm32u0xx_hal_rcc_ex.c **** /**
  90:Drivers/STM32U0xx_HAL_Driver/Src/stm32u0xx_hal_rcc_ex.c ****   * @brief  Initialize the RCC extended peripherals clocks according to the specified
  91:Drivers/STM32U0xx_HAL_Driver/Src/stm32u0xx_hal_rcc_ex.c ****   *         parameters in the RCC_PeriphCLKInitTypeDef.
  92:Drivers/STM32U0xx_HAL_Driver/Src/stm32u0xx_hal_rcc_ex.c ****   * @param  PeriphClkInit  pointer to an RCC_PeriphCLKInitTypeDef structure that
  93:Drivers/STM32U0xx_HAL_Driver/Src/stm32u0xx_hal_rcc_ex.c ****   *         contains a field PeriphClockSelection which can be a combination of the following value
  94:Drivers/STM32U0xx_HAL_Driver/Src/stm32u0xx_hal_rcc_ex.c ****   *            @arg @ref RCC_PERIPHCLK_USART1  USART1 peripheral clock
  95:Drivers/STM32U0xx_HAL_Driver/Src/stm32u0xx_hal_rcc_ex.c ****   *            @arg @ref RCC_PERIPHCLK_USART2  USART2 peripheral clock
  96:Drivers/STM32U0xx_HAL_Driver/Src/stm32u0xx_hal_rcc_ex.c ****   *            @arg @ref RCC_PERIPHCLK_LPUART1  LPUART1 peripheral clock
  97:Drivers/STM32U0xx_HAL_Driver/Src/stm32u0xx_hal_rcc_ex.c ****   *            @arg @ref RCC_PERIPHCLK_LPUART2  LPUART2 peripheral clock
  98:Drivers/STM32U0xx_HAL_Driver/Src/stm32u0xx_hal_rcc_ex.c ****   *            @arg @ref RCC_PERIPHCLK_LPUART3  LPUART3 peripheral clock
  99:Drivers/STM32U0xx_HAL_Driver/Src/stm32u0xx_hal_rcc_ex.c ****   *            @arg @ref RCC_PERIPHCLK_I2C1  I2C1 peripheral clock
 100:Drivers/STM32U0xx_HAL_Driver/Src/stm32u0xx_hal_rcc_ex.c ****   *            @arg @ref RCC_PERIPHCLK_I2C3  I2C3 peripheral clock
 101:Drivers/STM32U0xx_HAL_Driver/Src/stm32u0xx_hal_rcc_ex.c ****   *            @arg @ref RCC_PERIPHCLK_LPTIM1  LPTIM1 peripheral clock
 102:Drivers/STM32U0xx_HAL_Driver/Src/stm32u0xx_hal_rcc_ex.c ****   *            @arg @ref RCC_PERIPHCLK_LPTIM2  LPTIM2 peripheral clock
 103:Drivers/STM32U0xx_HAL_Driver/Src/stm32u0xx_hal_rcc_ex.c ****   *            @arg @ref RCC_PERIPHCLK_LPTIM3  LPTIM3 peripheral clock
 104:Drivers/STM32U0xx_HAL_Driver/Src/stm32u0xx_hal_rcc_ex.c ****   *            @arg @ref RCC_PERIPHCLK_TIM1  TIM1 peripheral clock
 105:Drivers/STM32U0xx_HAL_Driver/Src/stm32u0xx_hal_rcc_ex.c ****   *            @arg @ref RCC_PERIPHCLK_TIM15  TIM15 peripheral clock
 106:Drivers/STM32U0xx_HAL_Driver/Src/stm32u0xx_hal_rcc_ex.c ****   *            @arg @ref RCC_PERIPHCLK_USB  USB peripheral clock
 107:Drivers/STM32U0xx_HAL_Driver/Src/stm32u0xx_hal_rcc_ex.c ****   *            @arg @ref RCC_PERIPHCLK_ADC  ADC peripheral clock
 108:Drivers/STM32U0xx_HAL_Driver/Src/stm32u0xx_hal_rcc_ex.c ****   *
 109:Drivers/STM32U0xx_HAL_Driver/Src/stm32u0xx_hal_rcc_ex.c ****   * @note   Care must be taken when HAL_RCCEx_PeriphCLKConfig() is used to select
 110:Drivers/STM32U0xx_HAL_Driver/Src/stm32u0xx_hal_rcc_ex.c ****   *         the RTC clock source: in this case the access to Backup domain is enabled.
 111:Drivers/STM32U0xx_HAL_Driver/Src/stm32u0xx_hal_rcc_ex.c ****   *
 112:Drivers/STM32U0xx_HAL_Driver/Src/stm32u0xx_hal_rcc_ex.c ****   * @retval HAL status
 113:Drivers/STM32U0xx_HAL_Driver/Src/stm32u0xx_hal_rcc_ex.c ****   */
 114:Drivers/STM32U0xx_HAL_Driver/Src/stm32u0xx_hal_rcc_ex.c **** HAL_StatusTypeDef HAL_RCCEx_PeriphCLKConfig(const RCC_PeriphCLKInitTypeDef  *PeriphClkInit)
 115:Drivers/STM32U0xx_HAL_Driver/Src/stm32u0xx_hal_rcc_ex.c **** {
  29              		.loc 1 115 1 view -0
  30              		.cfi_startproc
  31              		@ args = 0, pretend = 0, frame = 8
  32              		@ frame_needed = 0, uses_anonymous_args = 0
 116:Drivers/STM32U0xx_HAL_Driver/Src/stm32u0xx_hal_rcc_ex.c ****   uint32_t tmpregister;
  33              		.loc 1 116 3 view .LVU1
 117:Drivers/STM32U0xx_HAL_Driver/Src/stm32u0xx_hal_rcc_ex.c ****   uint32_t tickstart;
  34              		.loc 1 117 3 view .LVU2
 118:Drivers/STM32U0xx_HAL_Driver/Src/stm32u0xx_hal_rcc_ex.c ****   HAL_StatusTypeDef ret = HAL_OK;      /* Intermediate status */
  35              		.loc 1 118 3 view .LVU3
 119:Drivers/STM32U0xx_HAL_Driver/Src/stm32u0xx_hal_rcc_ex.c ****   HAL_StatusTypeDef status = HAL_OK;   /* Final status */
  36              		.loc 1 119 3 view .LVU4
 120:Drivers/STM32U0xx_HAL_Driver/Src/stm32u0xx_hal_rcc_ex.c **** 
 121:Drivers/STM32U0xx_HAL_Driver/Src/stm32u0xx_hal_rcc_ex.c ****   /* Check the parameters */
 122:Drivers/STM32U0xx_HAL_Driver/Src/stm32u0xx_hal_rcc_ex.c ****   assert_param(IS_RCC_PERIPHCLOCK(PeriphClkInit->PeriphClockSelection));
  37              		.loc 1 122 3 view .LVU5
 123:Drivers/STM32U0xx_HAL_Driver/Src/stm32u0xx_hal_rcc_ex.c **** 
 124:Drivers/STM32U0xx_HAL_Driver/Src/stm32u0xx_hal_rcc_ex.c ****   /*-------------------------- RTC clock source configuration ----------------------*/
 125:Drivers/STM32U0xx_HAL_Driver/Src/stm32u0xx_hal_rcc_ex.c ****   if ((PeriphClkInit->PeriphClockSelection & RCC_PERIPHCLK_RTC) == RCC_PERIPHCLK_RTC)
  38              		.loc 1 125 3 view .LVU6
 115:Drivers/STM32U0xx_HAL_Driver/Src/stm32u0xx_hal_rcc_ex.c ****   uint32_t tmpregister;
  39              		.loc 1 115 1 is_stmt 0 view .LVU7
  40 0000 F0B5     		push	{r4, r5, r6, r7, lr}
  41              	.LCFI0:
  42              		.cfi_def_cfa_offset 20
  43              		.cfi_offset 4, -20
  44              		.cfi_offset 5, -16
  45              		.cfi_offset 6, -12
  46              		.cfi_offset 7, -8
ARM GAS  C:\Users\upo\AppData\Local\Temp\ccMLO1b7.s 			page 4


  47              		.cfi_offset 14, -4
  48 0002 D646     		mov	lr, r10
  49 0004 4F46     		mov	r7, r9
  50 0006 4646     		mov	r6, r8
  51 0008 C0B5     		push	{r6, r7, lr}
  52              	.LCFI1:
  53              		.cfi_def_cfa_offset 32
  54              		.cfi_offset 8, -32
  55              		.cfi_offset 9, -28
  56              		.cfi_offset 10, -24
  57              		.loc 1 125 21 view .LVU8
  58 000a 0368     		ldr	r3, [r0]
 115:Drivers/STM32U0xx_HAL_Driver/Src/stm32u0xx_hal_rcc_ex.c ****   uint32_t tmpregister;
  59              		.loc 1 115 1 view .LVU9
  60 000c 0400     		movs	r4, r0
  61 000e 82B0     		sub	sp, sp, #8
  62              	.LCFI2:
  63              		.cfi_def_cfa_offset 40
 119:Drivers/STM32U0xx_HAL_Driver/Src/stm32u0xx_hal_rcc_ex.c **** 
  64              		.loc 1 119 21 view .LVU10
  65 0010 0020     		movs	r0, #0
  66              	.LVL1:
  67              		.loc 1 125 6 view .LVU11
  68 0012 1A04     		lsls	r2, r3, #16
  69 0014 59D5     		bpl	.L2
  70              	.LBB2:
 126:Drivers/STM32U0xx_HAL_Driver/Src/stm32u0xx_hal_rcc_ex.c ****   {
 127:Drivers/STM32U0xx_HAL_Driver/Src/stm32u0xx_hal_rcc_ex.c ****     FlagStatus       pwrclkchanged = RESET;
  71              		.loc 1 127 5 is_stmt 1 view .LVU12
  72              	.LVL2:
 128:Drivers/STM32U0xx_HAL_Driver/Src/stm32u0xx_hal_rcc_ex.c **** 
 129:Drivers/STM32U0xx_HAL_Driver/Src/stm32u0xx_hal_rcc_ex.c ****     /* Check for RTC Parameters used to output RTCCLK */
 130:Drivers/STM32U0xx_HAL_Driver/Src/stm32u0xx_hal_rcc_ex.c ****     assert_param(IS_RCC_RTCCLKSOURCE(PeriphClkInit->RTCClockSelection));
  73              		.loc 1 130 5 view .LVU13
 131:Drivers/STM32U0xx_HAL_Driver/Src/stm32u0xx_hal_rcc_ex.c **** 
 132:Drivers/STM32U0xx_HAL_Driver/Src/stm32u0xx_hal_rcc_ex.c ****     /* Enable Power Clock */
 133:Drivers/STM32U0xx_HAL_Driver/Src/stm32u0xx_hal_rcc_ex.c ****     if (__HAL_RCC_PWR_IS_CLK_DISABLED())
  74              		.loc 1 133 5 view .LVU14
  75              		.loc 1 133 9 is_stmt 0 view .LVU15
  76 0016 8022     		movs	r2, #128
  77 0018 9F4B     		ldr	r3, .L113
  78 001a 5205     		lsls	r2, r2, #21
  79 001c 996D     		ldr	r1, [r3, #88]
 127:Drivers/STM32U0xx_HAL_Driver/Src/stm32u0xx_hal_rcc_ex.c **** 
  80              		.loc 1 127 22 view .LVU16
  81 001e 8246     		mov	r10, r0
  82              		.loc 1 133 8 view .LVU17
  83 0020 1142     		tst	r1, r2
  84 0022 00D1     		bne	.LCB53
  85 0024 01E1     		b	.L106	@long jump
  86              	.LCB53:
  87              	.LVL3:
  88              	.L3:
 134:Drivers/STM32U0xx_HAL_Driver/Src/stm32u0xx_hal_rcc_ex.c ****     {
 135:Drivers/STM32U0xx_HAL_Driver/Src/stm32u0xx_hal_rcc_ex.c ****       __HAL_RCC_PWR_CLK_ENABLE();
 136:Drivers/STM32U0xx_HAL_Driver/Src/stm32u0xx_hal_rcc_ex.c ****       pwrclkchanged = SET;
 137:Drivers/STM32U0xx_HAL_Driver/Src/stm32u0xx_hal_rcc_ex.c ****     }
ARM GAS  C:\Users\upo\AppData\Local\Temp\ccMLO1b7.s 			page 5


 138:Drivers/STM32U0xx_HAL_Driver/Src/stm32u0xx_hal_rcc_ex.c **** 
 139:Drivers/STM32U0xx_HAL_Driver/Src/stm32u0xx_hal_rcc_ex.c ****     /* Enable write access to Backup domain */
 140:Drivers/STM32U0xx_HAL_Driver/Src/stm32u0xx_hal_rcc_ex.c ****     SET_BIT(PWR->CR1, PWR_CR1_DBP);
  89              		.loc 1 140 5 is_stmt 1 view .LVU18
  90 0026 8027     		movs	r7, #128
  91 0028 9C4D     		ldr	r5, .L113+4
  92 002a 7F00     		lsls	r7, r7, #1
  93 002c 2B68     		ldr	r3, [r5]
  94 002e 3B43     		orrs	r3, r7
  95 0030 2B60     		str	r3, [r5]
 141:Drivers/STM32U0xx_HAL_Driver/Src/stm32u0xx_hal_rcc_ex.c **** 
 142:Drivers/STM32U0xx_HAL_Driver/Src/stm32u0xx_hal_rcc_ex.c ****     /* Wait for Backup domain Write protection disable */
 143:Drivers/STM32U0xx_HAL_Driver/Src/stm32u0xx_hal_rcc_ex.c ****     tickstart = HAL_GetTick();
  96              		.loc 1 143 5 view .LVU19
  97              		.loc 1 143 17 is_stmt 0 view .LVU20
  98 0032 FFF7FEFF 		bl	HAL_GetTick
  99              	.LVL4:
 100 0036 0600     		movs	r6, r0
 101              	.LVL5:
 144:Drivers/STM32U0xx_HAL_Driver/Src/stm32u0xx_hal_rcc_ex.c **** 
 145:Drivers/STM32U0xx_HAL_Driver/Src/stm32u0xx_hal_rcc_ex.c ****     while (READ_BIT(PWR->CR1, PWR_CR1_DBP) == 0U)
 102              		.loc 1 145 5 is_stmt 1 view .LVU21
 103              		.loc 1 145 11 is_stmt 0 view .LVU22
 104 0038 05E0     		b	.L4
 105              	.LVL6:
 106              	.L6:
 146:Drivers/STM32U0xx_HAL_Driver/Src/stm32u0xx_hal_rcc_ex.c ****     {
 147:Drivers/STM32U0xx_HAL_Driver/Src/stm32u0xx_hal_rcc_ex.c ****       if ((HAL_GetTick() - tickstart) > RCC_DBP_TIMEOUT_VALUE)
 107              		.loc 1 147 7 is_stmt 1 view .LVU23
 108              		.loc 1 147 12 is_stmt 0 view .LVU24
 109 003a FFF7FEFF 		bl	HAL_GetTick
 110              	.LVL7:
 111              		.loc 1 147 26 view .LVU25
 112 003e 801B     		subs	r0, r0, r6
 113              		.loc 1 147 10 view .LVU26
 114 0040 0228     		cmp	r0, #2
 115 0042 00D9     		bls	.LCB79
 116 0044 FBE0     		b	.L5	@long jump
 117              	.LCB79:
 118              	.L4:
 145:Drivers/STM32U0xx_HAL_Driver/Src/stm32u0xx_hal_rcc_ex.c ****     {
 119              		.loc 1 145 44 is_stmt 1 view .LVU27
 145:Drivers/STM32U0xx_HAL_Driver/Src/stm32u0xx_hal_rcc_ex.c ****     {
 120              		.loc 1 145 12 is_stmt 0 view .LVU28
 121 0046 2B68     		ldr	r3, [r5]
 145:Drivers/STM32U0xx_HAL_Driver/Src/stm32u0xx_hal_rcc_ex.c ****     {
 122              		.loc 1 145 44 view .LVU29
 123 0048 3B42     		tst	r3, r7
 124 004a F6D0     		beq	.L6
 148:Drivers/STM32U0xx_HAL_Driver/Src/stm32u0xx_hal_rcc_ex.c ****       {
 149:Drivers/STM32U0xx_HAL_Driver/Src/stm32u0xx_hal_rcc_ex.c ****         ret = HAL_TIMEOUT;
 150:Drivers/STM32U0xx_HAL_Driver/Src/stm32u0xx_hal_rcc_ex.c ****         break;
 151:Drivers/STM32U0xx_HAL_Driver/Src/stm32u0xx_hal_rcc_ex.c ****       }
 152:Drivers/STM32U0xx_HAL_Driver/Src/stm32u0xx_hal_rcc_ex.c ****     }
 153:Drivers/STM32U0xx_HAL_Driver/Src/stm32u0xx_hal_rcc_ex.c **** 
 154:Drivers/STM32U0xx_HAL_Driver/Src/stm32u0xx_hal_rcc_ex.c ****     if (ret == HAL_OK)
 125              		.loc 1 154 5 is_stmt 1 view .LVU30
ARM GAS  C:\Users\upo\AppData\Local\Temp\ccMLO1b7.s 			page 6


 155:Drivers/STM32U0xx_HAL_Driver/Src/stm32u0xx_hal_rcc_ex.c ****     {
 156:Drivers/STM32U0xx_HAL_Driver/Src/stm32u0xx_hal_rcc_ex.c ****       /* Reset the Backup domain only if the RTC Clock source selection is modified from default */
 157:Drivers/STM32U0xx_HAL_Driver/Src/stm32u0xx_hal_rcc_ex.c ****       tmpregister = READ_BIT(RCC->BDCR, RCC_BDCR_RTCSEL);
 126              		.loc 1 157 7 view .LVU31
 127              		.loc 1 157 21 is_stmt 0 view .LVU32
 128 004c 9023     		movs	r3, #144
 129 004e 924D     		ldr	r5, .L113
 130              		.loc 1 157 19 view .LVU33
 131 0050 C022     		movs	r2, #192
 132              		.loc 1 157 21 view .LVU34
 133 0052 E958     		ldr	r1, [r5, r3]
 134              		.loc 1 157 19 view .LVU35
 135 0054 9200     		lsls	r2, r2, #2
 136 0056 0E00     		movs	r6, r1
 137              	.LVL8:
 158:Drivers/STM32U0xx_HAL_Driver/Src/stm32u0xx_hal_rcc_ex.c **** 
 159:Drivers/STM32U0xx_HAL_Driver/Src/stm32u0xx_hal_rcc_ex.c ****       if ((tmpregister != RCC_RTCCLKSOURCE_NONE) && (tmpregister != PeriphClkInit->RTCClockSelectio
 138              		.loc 1 159 82 view .LVU36
 139 0058 206C     		ldr	r0, [r4, #64]
 157:Drivers/STM32U0xx_HAL_Driver/Src/stm32u0xx_hal_rcc_ex.c **** 
 140              		.loc 1 157 19 view .LVU37
 141 005a 1640     		ands	r6, r2
 142              	.LVL9:
 143              		.loc 1 159 7 is_stmt 1 view .LVU38
 144              		.loc 1 159 10 is_stmt 0 view .LVU39
 145 005c 1142     		tst	r1, r2
 146 005e 27D0     		beq	.L11
 147              		.loc 1 159 50 discriminator 1 view .LVU40
 148 0060 8642     		cmp	r6, r0
 149 0062 25D0     		beq	.L11
 160:Drivers/STM32U0xx_HAL_Driver/Src/stm32u0xx_hal_rcc_ex.c ****       {
 161:Drivers/STM32U0xx_HAL_Driver/Src/stm32u0xx_hal_rcc_ex.c ****         /* Store the content of BDCR register before the reset of Backup Domain */
 162:Drivers/STM32U0xx_HAL_Driver/Src/stm32u0xx_hal_rcc_ex.c ****         tmpregister = READ_BIT(RCC->BDCR, ~(RCC_BDCR_RTCSEL));
 150              		.loc 1 162 9 is_stmt 1 view .LVU41
 151              		.loc 1 162 23 is_stmt 0 view .LVU42
 152 0064 EA58     		ldr	r2, [r5, r3]
 163:Drivers/STM32U0xx_HAL_Driver/Src/stm32u0xx_hal_rcc_ex.c ****         /* RTC Clock selection can be changed only if the Backup Domain is reset */
 164:Drivers/STM32U0xx_HAL_Driver/Src/stm32u0xx_hal_rcc_ex.c ****         __HAL_RCC_BACKUPRESET_FORCE();
 153              		.loc 1 164 9 view .LVU43
 154 0066 EE58     		ldr	r6, [r5, r3]
 155              	.LVL10:
 162:Drivers/STM32U0xx_HAL_Driver/Src/stm32u0xx_hal_rcc_ex.c ****         /* RTC Clock selection can be changed only if the Backup Domain is reset */
 156              		.loc 1 162 21 view .LVU44
 157 0068 8D49     		ldr	r1, .L113+8
 158              	.LVL11:
 159              		.loc 1 164 9 view .LVU45
 160 006a B446     		mov	ip, r6
 161 006c 8026     		movs	r6, #128
 162 006e 6746     		mov	r7, ip
 163 0070 7602     		lsls	r6, r6, #9
 164 0072 3E43     		orrs	r6, r7
 165 0074 EE50     		str	r6, [r5, r3]
 165:Drivers/STM32U0xx_HAL_Driver/Src/stm32u0xx_hal_rcc_ex.c ****         __HAL_RCC_BACKUPRESET_RELEASE();
 166              		.loc 1 165 9 view .LVU46
 167 0076 EE58     		ldr	r6, [r5, r3]
 168 0078 8A4F     		ldr	r7, .L113+12
 162:Drivers/STM32U0xx_HAL_Driver/Src/stm32u0xx_hal_rcc_ex.c ****         /* RTC Clock selection can be changed only if the Backup Domain is reset */
ARM GAS  C:\Users\upo\AppData\Local\Temp\ccMLO1b7.s 			page 7


 169              		.loc 1 162 21 view .LVU47
 170 007a 1140     		ands	r1, r2
 171              	.LVL12:
 164:Drivers/STM32U0xx_HAL_Driver/Src/stm32u0xx_hal_rcc_ex.c ****         __HAL_RCC_BACKUPRESET_RELEASE();
 172              		.loc 1 164 9 is_stmt 1 view .LVU48
 173              		.loc 1 165 9 view .LVU49
 174 007c 3E40     		ands	r6, r7
 175 007e EE50     		str	r6, [r5, r3]
 166:Drivers/STM32U0xx_HAL_Driver/Src/stm32u0xx_hal_rcc_ex.c ****         /* Restore the Content of BDCR register */
 167:Drivers/STM32U0xx_HAL_Driver/Src/stm32u0xx_hal_rcc_ex.c ****         RCC->BDCR = tmpregister;
 176              		.loc 1 167 9 view .LVU50
 177              		.loc 1 167 19 is_stmt 0 view .LVU51
 178 0080 E950     		str	r1, [r5, r3]
 179              	.LVL13:
 168:Drivers/STM32U0xx_HAL_Driver/Src/stm32u0xx_hal_rcc_ex.c ****       }
 169:Drivers/STM32U0xx_HAL_Driver/Src/stm32u0xx_hal_rcc_ex.c **** 
 170:Drivers/STM32U0xx_HAL_Driver/Src/stm32u0xx_hal_rcc_ex.c ****       /* Wait for LSE reactivation if LSE was enable prior to Backup Domain reset */
 171:Drivers/STM32U0xx_HAL_Driver/Src/stm32u0xx_hal_rcc_ex.c ****       if (HAL_IS_BIT_SET(tmpregister, RCC_BDCR_LSEON))
 180              		.loc 1 171 7 is_stmt 1 view .LVU52
 181              		.loc 1 171 10 is_stmt 0 view .LVU53
 182 0082 D207     		lsls	r2, r2, #31
 183 0084 14D5     		bpl	.L11
 172:Drivers/STM32U0xx_HAL_Driver/Src/stm32u0xx_hal_rcc_ex.c ****       {
 173:Drivers/STM32U0xx_HAL_Driver/Src/stm32u0xx_hal_rcc_ex.c ****         /* Get Start Tick*/
 174:Drivers/STM32U0xx_HAL_Driver/Src/stm32u0xx_hal_rcc_ex.c ****         tickstart = HAL_GetTick();
 184              		.loc 1 174 9 is_stmt 1 view .LVU54
 185              		.loc 1 174 21 is_stmt 0 view .LVU55
 186 0086 FFF7FEFF 		bl	HAL_GetTick
 187              	.LVL14:
 175:Drivers/STM32U0xx_HAL_Driver/Src/stm32u0xx_hal_rcc_ex.c **** 
 176:Drivers/STM32U0xx_HAL_Driver/Src/stm32u0xx_hal_rcc_ex.c ****         /* Wait till LSE is ready */
 177:Drivers/STM32U0xx_HAL_Driver/Src/stm32u0xx_hal_rcc_ex.c ****         while (READ_BIT(RCC->BDCR, RCC_BDCR_LSERDY) == 0U)
 188              		.loc 1 177 16 view .LVU56
 189 008a 9023     		movs	r3, #144
 190 008c 9946     		mov	r9, r3
 191 008e 8E3B     		subs	r3, r3, #142
 174:Drivers/STM32U0xx_HAL_Driver/Src/stm32u0xx_hal_rcc_ex.c **** 
 192              		.loc 1 174 21 view .LVU57
 193 0090 0600     		movs	r6, r0
 194              	.LVL15:
 195              		.loc 1 177 9 is_stmt 1 view .LVU58
 196              		.loc 1 177 16 is_stmt 0 view .LVU59
 197 0092 9846     		mov	r8, r3
 198              		.loc 1 177 15 view .LVU60
 199 0094 06E0     		b	.L12
 200              	.LVL16:
 201              	.L13:
 178:Drivers/STM32U0xx_HAL_Driver/Src/stm32u0xx_hal_rcc_ex.c ****         {
 179:Drivers/STM32U0xx_HAL_Driver/Src/stm32u0xx_hal_rcc_ex.c ****           if ((HAL_GetTick() - tickstart) > RCC_LSE_TIMEOUT_VALUE)
 202              		.loc 1 179 11 is_stmt 1 view .LVU61
 203              		.loc 1 179 16 is_stmt 0 view .LVU62
 204 0096 FFF7FEFF 		bl	HAL_GetTick
 205              	.LVL17:
 206              		.loc 1 179 14 view .LVU63
 207 009a 834B     		ldr	r3, .L113+16
 208              		.loc 1 179 30 view .LVU64
 209 009c 801B     		subs	r0, r0, r6
ARM GAS  C:\Users\upo\AppData\Local\Temp\ccMLO1b7.s 			page 8


 210              		.loc 1 179 14 view .LVU65
 211 009e 9842     		cmp	r0, r3
 212 00a0 00D9     		bls	.LCB154
 213 00a2 CCE0     		b	.L5	@long jump
 214              	.LCB154:
 215              	.L12:
 177:Drivers/STM32U0xx_HAL_Driver/Src/stm32u0xx_hal_rcc_ex.c ****         {
 216              		.loc 1 177 53 is_stmt 1 view .LVU66
 177:Drivers/STM32U0xx_HAL_Driver/Src/stm32u0xx_hal_rcc_ex.c ****         {
 217              		.loc 1 177 16 is_stmt 0 view .LVU67
 218 00a4 4B46     		mov	r3, r9
 177:Drivers/STM32U0xx_HAL_Driver/Src/stm32u0xx_hal_rcc_ex.c ****         {
 219              		.loc 1 177 53 view .LVU68
 220 00a6 4246     		mov	r2, r8
 177:Drivers/STM32U0xx_HAL_Driver/Src/stm32u0xx_hal_rcc_ex.c ****         {
 221              		.loc 1 177 16 view .LVU69
 222 00a8 EB58     		ldr	r3, [r5, r3]
 177:Drivers/STM32U0xx_HAL_Driver/Src/stm32u0xx_hal_rcc_ex.c ****         {
 223              		.loc 1 177 53 view .LVU70
 224 00aa 1A42     		tst	r2, r3
 225 00ac F3D0     		beq	.L13
 180:Drivers/STM32U0xx_HAL_Driver/Src/stm32u0xx_hal_rcc_ex.c ****           {
 181:Drivers/STM32U0xx_HAL_Driver/Src/stm32u0xx_hal_rcc_ex.c ****             ret = HAL_TIMEOUT;
 182:Drivers/STM32U0xx_HAL_Driver/Src/stm32u0xx_hal_rcc_ex.c ****             break;
 183:Drivers/STM32U0xx_HAL_Driver/Src/stm32u0xx_hal_rcc_ex.c ****           }
 184:Drivers/STM32U0xx_HAL_Driver/Src/stm32u0xx_hal_rcc_ex.c ****         }
 185:Drivers/STM32U0xx_HAL_Driver/Src/stm32u0xx_hal_rcc_ex.c ****       }
 186:Drivers/STM32U0xx_HAL_Driver/Src/stm32u0xx_hal_rcc_ex.c **** 
 187:Drivers/STM32U0xx_HAL_Driver/Src/stm32u0xx_hal_rcc_ex.c ****       if (ret == HAL_OK)
 226              		.loc 1 187 7 is_stmt 1 view .LVU71
 188:Drivers/STM32U0xx_HAL_Driver/Src/stm32u0xx_hal_rcc_ex.c ****       {
 189:Drivers/STM32U0xx_HAL_Driver/Src/stm32u0xx_hal_rcc_ex.c ****         /* Apply new RTC clock source selection */
 190:Drivers/STM32U0xx_HAL_Driver/Src/stm32u0xx_hal_rcc_ex.c ****         __HAL_RCC_RTC_CONFIG(PeriphClkInit->RTCClockSelection);
 227              		.loc 1 190 9 is_stmt 0 view .LVU72
 228 00ae 206C     		ldr	r0, [r4, #64]
 229              	.LVL18:
 230              	.L11:
 231              		.loc 1 190 9 is_stmt 1 view .LVU73
 232 00b0 9022     		movs	r2, #144
 233 00b2 7949     		ldr	r1, .L113
 234 00b4 7A4D     		ldr	r5, .L113+8
 235 00b6 8B58     		ldr	r3, [r1, r2]
 236 00b8 2B40     		ands	r3, r5
 237 00ba 0343     		orrs	r3, r0
 238 00bc 8B50     		str	r3, [r1, r2]
 191:Drivers/STM32U0xx_HAL_Driver/Src/stm32u0xx_hal_rcc_ex.c ****       }
 192:Drivers/STM32U0xx_HAL_Driver/Src/stm32u0xx_hal_rcc_ex.c ****       else
 193:Drivers/STM32U0xx_HAL_Driver/Src/stm32u0xx_hal_rcc_ex.c ****       {
 194:Drivers/STM32U0xx_HAL_Driver/Src/stm32u0xx_hal_rcc_ex.c ****         /* set overall return value */
 195:Drivers/STM32U0xx_HAL_Driver/Src/stm32u0xx_hal_rcc_ex.c ****         status = ret;
 196:Drivers/STM32U0xx_HAL_Driver/Src/stm32u0xx_hal_rcc_ex.c ****       }
 197:Drivers/STM32U0xx_HAL_Driver/Src/stm32u0xx_hal_rcc_ex.c ****     }
 198:Drivers/STM32U0xx_HAL_Driver/Src/stm32u0xx_hal_rcc_ex.c ****     else
 199:Drivers/STM32U0xx_HAL_Driver/Src/stm32u0xx_hal_rcc_ex.c ****     {
 200:Drivers/STM32U0xx_HAL_Driver/Src/stm32u0xx_hal_rcc_ex.c ****       /* set overall return value */
 201:Drivers/STM32U0xx_HAL_Driver/Src/stm32u0xx_hal_rcc_ex.c ****       status = ret;
 202:Drivers/STM32U0xx_HAL_Driver/Src/stm32u0xx_hal_rcc_ex.c ****     }
ARM GAS  C:\Users\upo\AppData\Local\Temp\ccMLO1b7.s 			page 9


 203:Drivers/STM32U0xx_HAL_Driver/Src/stm32u0xx_hal_rcc_ex.c **** 
 204:Drivers/STM32U0xx_HAL_Driver/Src/stm32u0xx_hal_rcc_ex.c ****     /* Restore clock configuration if changed */
 205:Drivers/STM32U0xx_HAL_Driver/Src/stm32u0xx_hal_rcc_ex.c ****     if (pwrclkchanged == SET)
 239              		.loc 1 205 8 is_stmt 0 view .LVU74
 240 00be 5246     		mov	r2, r10
 241              	.LBE2:
 119:Drivers/STM32U0xx_HAL_Driver/Src/stm32u0xx_hal_rcc_ex.c **** 
 242              		.loc 1 119 21 view .LVU75
 243 00c0 0020     		movs	r0, #0
 244              	.LVL19:
 245              	.LBB4:
 246              		.loc 1 205 5 is_stmt 1 view .LVU76
 247              	.LBE4:
 206:Drivers/STM32U0xx_HAL_Driver/Src/stm32u0xx_hal_rcc_ex.c ****     {
 207:Drivers/STM32U0xx_HAL_Driver/Src/stm32u0xx_hal_rcc_ex.c ****       __HAL_RCC_PWR_CLK_DISABLE();
 208:Drivers/STM32U0xx_HAL_Driver/Src/stm32u0xx_hal_rcc_ex.c ****     }
 209:Drivers/STM32U0xx_HAL_Driver/Src/stm32u0xx_hal_rcc_ex.c ****   }
 210:Drivers/STM32U0xx_HAL_Driver/Src/stm32u0xx_hal_rcc_ex.c **** 
 211:Drivers/STM32U0xx_HAL_Driver/Src/stm32u0xx_hal_rcc_ex.c ****   /*-------------------------- USART1 clock source configuration -------------------*/
 212:Drivers/STM32U0xx_HAL_Driver/Src/stm32u0xx_hal_rcc_ex.c ****   if (((PeriphClkInit->PeriphClockSelection) & RCC_PERIPHCLK_USART1) == RCC_PERIPHCLK_USART1)
 248              		.loc 1 212 22 is_stmt 0 view .LVU77
 249 00c2 2368     		ldr	r3, [r4]
 250              	.LBB5:
 205:Drivers/STM32U0xx_HAL_Driver/Src/stm32u0xx_hal_rcc_ex.c ****     {
 251              		.loc 1 205 8 view .LVU78
 252 00c4 012A     		cmp	r2, #1
 253 00c6 00D1     		bne	.LCB191
 254 00c8 BFE0     		b	.L107	@long jump
 255              	.LCB191:
 256              	.LVL20:
 257              	.L2:
 205:Drivers/STM32U0xx_HAL_Driver/Src/stm32u0xx_hal_rcc_ex.c ****     {
 258              		.loc 1 205 8 view .LVU79
 259              	.LBE5:
 260              		.loc 1 212 3 is_stmt 1 view .LVU80
 261              		.loc 1 212 6 is_stmt 0 view .LVU81
 262 00ca DA07     		lsls	r2, r3, #31
 263 00cc 07D5     		bpl	.L16
 213:Drivers/STM32U0xx_HAL_Driver/Src/stm32u0xx_hal_rcc_ex.c ****   {
 214:Drivers/STM32U0xx_HAL_Driver/Src/stm32u0xx_hal_rcc_ex.c ****     /* Check the parameters */
 215:Drivers/STM32U0xx_HAL_Driver/Src/stm32u0xx_hal_rcc_ex.c ****     assert_param(IS_RCC_USART1CLKSOURCE(PeriphClkInit->Usart1ClockSelection));
 264              		.loc 1 215 5 is_stmt 1 view .LVU82
 216:Drivers/STM32U0xx_HAL_Driver/Src/stm32u0xx_hal_rcc_ex.c **** 
 217:Drivers/STM32U0xx_HAL_Driver/Src/stm32u0xx_hal_rcc_ex.c ****     /* Configure the USART1 clock source */
 218:Drivers/STM32U0xx_HAL_Driver/Src/stm32u0xx_hal_rcc_ex.c ****     __HAL_RCC_USART1_CONFIG(PeriphClkInit->Usart1ClockSelection);
 265              		.loc 1 218 5 view .LVU83
 266 00ce 8821     		movs	r1, #136
 267 00d0 0326     		movs	r6, #3
 268 00d2 714D     		ldr	r5, .L113
 269 00d4 6A58     		ldr	r2, [r5, r1]
 270 00d6 B243     		bics	r2, r6
 271 00d8 6668     		ldr	r6, [r4, #4]
 272 00da 3243     		orrs	r2, r6
 273 00dc 6A50     		str	r2, [r5, r1]
 274              	.L16:
 219:Drivers/STM32U0xx_HAL_Driver/Src/stm32u0xx_hal_rcc_ex.c ****   }
 220:Drivers/STM32U0xx_HAL_Driver/Src/stm32u0xx_hal_rcc_ex.c **** 
ARM GAS  C:\Users\upo\AppData\Local\Temp\ccMLO1b7.s 			page 10


 221:Drivers/STM32U0xx_HAL_Driver/Src/stm32u0xx_hal_rcc_ex.c ****   /*-------------------------- USART2 clock source configuration -------------------*/
 222:Drivers/STM32U0xx_HAL_Driver/Src/stm32u0xx_hal_rcc_ex.c ****   if (((PeriphClkInit->PeriphClockSelection) & RCC_PERIPHCLK_USART2) == RCC_PERIPHCLK_USART2)
 275              		.loc 1 222 3 view .LVU84
 276              		.loc 1 222 6 is_stmt 0 view .LVU85
 277 00de 9A07     		lsls	r2, r3, #30
 278 00e0 07D5     		bpl	.L17
 223:Drivers/STM32U0xx_HAL_Driver/Src/stm32u0xx_hal_rcc_ex.c ****   {
 224:Drivers/STM32U0xx_HAL_Driver/Src/stm32u0xx_hal_rcc_ex.c ****     /* Check the parameters */
 225:Drivers/STM32U0xx_HAL_Driver/Src/stm32u0xx_hal_rcc_ex.c ****     assert_param(IS_RCC_USART2CLKSOURCE(PeriphClkInit->Usart2ClockSelection));
 279              		.loc 1 225 5 is_stmt 1 view .LVU86
 226:Drivers/STM32U0xx_HAL_Driver/Src/stm32u0xx_hal_rcc_ex.c **** 
 227:Drivers/STM32U0xx_HAL_Driver/Src/stm32u0xx_hal_rcc_ex.c ****     /* Configure the USART2 clock source */
 228:Drivers/STM32U0xx_HAL_Driver/Src/stm32u0xx_hal_rcc_ex.c ****     __HAL_RCC_USART2_CONFIG(PeriphClkInit->Usart2ClockSelection);
 280              		.loc 1 228 5 view .LVU87
 281 00e2 8821     		movs	r1, #136
 282 00e4 0C26     		movs	r6, #12
 283 00e6 6C4D     		ldr	r5, .L113
 284 00e8 6A58     		ldr	r2, [r5, r1]
 285 00ea B243     		bics	r2, r6
 286 00ec A668     		ldr	r6, [r4, #8]
 287 00ee 3243     		orrs	r2, r6
 288 00f0 6A50     		str	r2, [r5, r1]
 289              	.L17:
 229:Drivers/STM32U0xx_HAL_Driver/Src/stm32u0xx_hal_rcc_ex.c ****   }
 230:Drivers/STM32U0xx_HAL_Driver/Src/stm32u0xx_hal_rcc_ex.c **** 
 231:Drivers/STM32U0xx_HAL_Driver/Src/stm32u0xx_hal_rcc_ex.c ****   /*-------------------------- LPUART1 clock source configuration ------------------*/
 232:Drivers/STM32U0xx_HAL_Driver/Src/stm32u0xx_hal_rcc_ex.c ****   if (((PeriphClkInit->PeriphClockSelection) & RCC_PERIPHCLK_LPUART1) == RCC_PERIPHCLK_LPUART1)
 290              		.loc 1 232 3 view .LVU88
 291              		.loc 1 232 6 is_stmt 0 view .LVU89
 292 00f2 DA06     		lsls	r2, r3, #27
 293 00f4 07D5     		bpl	.L18
 233:Drivers/STM32U0xx_HAL_Driver/Src/stm32u0xx_hal_rcc_ex.c ****   {
 234:Drivers/STM32U0xx_HAL_Driver/Src/stm32u0xx_hal_rcc_ex.c ****     /* Check the parameters */
 235:Drivers/STM32U0xx_HAL_Driver/Src/stm32u0xx_hal_rcc_ex.c ****     assert_param(IS_RCC_LPUART1CLKSOURCE(PeriphClkInit->Lpuart1ClockSelection));
 294              		.loc 1 235 5 is_stmt 1 view .LVU90
 236:Drivers/STM32U0xx_HAL_Driver/Src/stm32u0xx_hal_rcc_ex.c **** 
 237:Drivers/STM32U0xx_HAL_Driver/Src/stm32u0xx_hal_rcc_ex.c ****     /* Configure the LPUART1 clock source */
 238:Drivers/STM32U0xx_HAL_Driver/Src/stm32u0xx_hal_rcc_ex.c ****     __HAL_RCC_LPUART1_CONFIG(PeriphClkInit->Lpuart1ClockSelection);
 295              		.loc 1 238 5 view .LVU91
 296 00f6 8821     		movs	r1, #136
 297 00f8 674D     		ldr	r5, .L113
 298 00fa 6C4E     		ldr	r6, .L113+20
 299 00fc 6A58     		ldr	r2, [r5, r1]
 300 00fe 3240     		ands	r2, r6
 301 0100 6669     		ldr	r6, [r4, #20]
 302 0102 3243     		orrs	r2, r6
 303 0104 6A50     		str	r2, [r5, r1]
 304              	.L18:
 239:Drivers/STM32U0xx_HAL_Driver/Src/stm32u0xx_hal_rcc_ex.c ****   }
 240:Drivers/STM32U0xx_HAL_Driver/Src/stm32u0xx_hal_rcc_ex.c **** 
 241:Drivers/STM32U0xx_HAL_Driver/Src/stm32u0xx_hal_rcc_ex.c ****   /*-------------------------- LPUART2 clock source configuration ------------------*/
 242:Drivers/STM32U0xx_HAL_Driver/Src/stm32u0xx_hal_rcc_ex.c ****   if (((PeriphClkInit->PeriphClockSelection) & RCC_PERIPHCLK_LPUART2) == RCC_PERIPHCLK_LPUART2)
 305              		.loc 1 242 3 view .LVU92
 306              		.loc 1 242 6 is_stmt 0 view .LVU93
 307 0106 1A07     		lsls	r2, r3, #28
 308 0108 07D5     		bpl	.L19
 243:Drivers/STM32U0xx_HAL_Driver/Src/stm32u0xx_hal_rcc_ex.c ****   {
ARM GAS  C:\Users\upo\AppData\Local\Temp\ccMLO1b7.s 			page 11


 244:Drivers/STM32U0xx_HAL_Driver/Src/stm32u0xx_hal_rcc_ex.c ****     /* Check the parameters */
 245:Drivers/STM32U0xx_HAL_Driver/Src/stm32u0xx_hal_rcc_ex.c ****     assert_param(IS_RCC_LPUART2CLKSOURCE(PeriphClkInit->Lpuart2ClockSelection));
 309              		.loc 1 245 5 is_stmt 1 view .LVU94
 246:Drivers/STM32U0xx_HAL_Driver/Src/stm32u0xx_hal_rcc_ex.c **** 
 247:Drivers/STM32U0xx_HAL_Driver/Src/stm32u0xx_hal_rcc_ex.c ****     /* Configure the LPUART2 clock source */
 248:Drivers/STM32U0xx_HAL_Driver/Src/stm32u0xx_hal_rcc_ex.c ****     __HAL_RCC_LPUART2_CONFIG(PeriphClkInit->Lpuart2ClockSelection);
 310              		.loc 1 248 5 view .LVU95
 311 010a 8821     		movs	r1, #136
 312 010c 624D     		ldr	r5, .L113
 313 010e 644E     		ldr	r6, .L113+8
 314 0110 6A58     		ldr	r2, [r5, r1]
 315 0112 3240     		ands	r2, r6
 316 0114 2669     		ldr	r6, [r4, #16]
 317 0116 3243     		orrs	r2, r6
 318 0118 6A50     		str	r2, [r5, r1]
 319              	.L19:
 249:Drivers/STM32U0xx_HAL_Driver/Src/stm32u0xx_hal_rcc_ex.c ****   }
 250:Drivers/STM32U0xx_HAL_Driver/Src/stm32u0xx_hal_rcc_ex.c **** #if defined (LPUART3)
 251:Drivers/STM32U0xx_HAL_Driver/Src/stm32u0xx_hal_rcc_ex.c ****   /*-------------------------- LPUART3 clock source configuration ------------------*/
 252:Drivers/STM32U0xx_HAL_Driver/Src/stm32u0xx_hal_rcc_ex.c ****   if (((PeriphClkInit->PeriphClockSelection) & RCC_PERIPHCLK_LPUART3) == RCC_PERIPHCLK_LPUART3)
 320              		.loc 1 252 3 view .LVU96
 321              		.loc 1 252 6 is_stmt 0 view .LVU97
 322 011a 5A07     		lsls	r2, r3, #29
 323 011c 07D5     		bpl	.L20
 253:Drivers/STM32U0xx_HAL_Driver/Src/stm32u0xx_hal_rcc_ex.c ****   {
 254:Drivers/STM32U0xx_HAL_Driver/Src/stm32u0xx_hal_rcc_ex.c ****     /* Check the parameters */
 255:Drivers/STM32U0xx_HAL_Driver/Src/stm32u0xx_hal_rcc_ex.c ****     assert_param(IS_RCC_LPUART3CLKSOURCE(PeriphClkInit->Lpuart3ClockSelection));
 324              		.loc 1 255 5 is_stmt 1 view .LVU98
 256:Drivers/STM32U0xx_HAL_Driver/Src/stm32u0xx_hal_rcc_ex.c **** 
 257:Drivers/STM32U0xx_HAL_Driver/Src/stm32u0xx_hal_rcc_ex.c ****     /* Configure the LPUART3 clock source */
 258:Drivers/STM32U0xx_HAL_Driver/Src/stm32u0xx_hal_rcc_ex.c ****     __HAL_RCC_LPUART3_CONFIG(PeriphClkInit->Lpuart3ClockSelection);
 325              		.loc 1 258 5 view .LVU99
 326 011e 8821     		movs	r1, #136
 327 0120 C026     		movs	r6, #192
 328 0122 5D4D     		ldr	r5, .L113
 329 0124 6A58     		ldr	r2, [r5, r1]
 330 0126 B243     		bics	r2, r6
 331 0128 E668     		ldr	r6, [r4, #12]
 332 012a 3243     		orrs	r2, r6
 333 012c 6A50     		str	r2, [r5, r1]
 334              	.L20:
 259:Drivers/STM32U0xx_HAL_Driver/Src/stm32u0xx_hal_rcc_ex.c ****   }
 260:Drivers/STM32U0xx_HAL_Driver/Src/stm32u0xx_hal_rcc_ex.c **** #endif /* LPUART3 */
 261:Drivers/STM32U0xx_HAL_Driver/Src/stm32u0xx_hal_rcc_ex.c ****   /*-------------------------- I2C1 clock source configuration ---------------------*/
 262:Drivers/STM32U0xx_HAL_Driver/Src/stm32u0xx_hal_rcc_ex.c ****   if (((PeriphClkInit->PeriphClockSelection) & RCC_PERIPHCLK_I2C1) == RCC_PERIPHCLK_I2C1)
 335              		.loc 1 262 3 view .LVU100
 336              		.loc 1 262 6 is_stmt 0 view .LVU101
 337 012e 9A06     		lsls	r2, r3, #26
 338 0130 07D5     		bpl	.L21
 263:Drivers/STM32U0xx_HAL_Driver/Src/stm32u0xx_hal_rcc_ex.c ****   {
 264:Drivers/STM32U0xx_HAL_Driver/Src/stm32u0xx_hal_rcc_ex.c ****     /* Check the parameters */
 265:Drivers/STM32U0xx_HAL_Driver/Src/stm32u0xx_hal_rcc_ex.c ****     assert_param(IS_RCC_I2C1CLKSOURCE(PeriphClkInit->I2c1ClockSelection));
 339              		.loc 1 265 5 is_stmt 1 view .LVU102
 266:Drivers/STM32U0xx_HAL_Driver/Src/stm32u0xx_hal_rcc_ex.c **** 
 267:Drivers/STM32U0xx_HAL_Driver/Src/stm32u0xx_hal_rcc_ex.c ****     /* Configure the I2C1 clock source */
 268:Drivers/STM32U0xx_HAL_Driver/Src/stm32u0xx_hal_rcc_ex.c ****     __HAL_RCC_I2C1_CONFIG(PeriphClkInit->I2c1ClockSelection);
 340              		.loc 1 268 5 view .LVU103
ARM GAS  C:\Users\upo\AppData\Local\Temp\ccMLO1b7.s 			page 12


 341 0132 8821     		movs	r1, #136
 342 0134 584D     		ldr	r5, .L113
 343 0136 5E4E     		ldr	r6, .L113+24
 344 0138 6A58     		ldr	r2, [r5, r1]
 345 013a 3240     		ands	r2, r6
 346 013c A669     		ldr	r6, [r4, #24]
 347 013e 3243     		orrs	r2, r6
 348 0140 6A50     		str	r2, [r5, r1]
 349              	.L21:
 269:Drivers/STM32U0xx_HAL_Driver/Src/stm32u0xx_hal_rcc_ex.c ****   }
 270:Drivers/STM32U0xx_HAL_Driver/Src/stm32u0xx_hal_rcc_ex.c **** 
 271:Drivers/STM32U0xx_HAL_Driver/Src/stm32u0xx_hal_rcc_ex.c ****   /*-------------------------- I2C3 clock source configuration ---------------------*/
 272:Drivers/STM32U0xx_HAL_Driver/Src/stm32u0xx_hal_rcc_ex.c ****   if (((PeriphClkInit->PeriphClockSelection) & RCC_PERIPHCLK_I2C3) == RCC_PERIPHCLK_I2C3)
 350              		.loc 1 272 3 view .LVU104
 351              		.loc 1 272 6 is_stmt 0 view .LVU105
 352 0142 5A06     		lsls	r2, r3, #25
 353 0144 07D5     		bpl	.L22
 273:Drivers/STM32U0xx_HAL_Driver/Src/stm32u0xx_hal_rcc_ex.c ****   {
 274:Drivers/STM32U0xx_HAL_Driver/Src/stm32u0xx_hal_rcc_ex.c ****     /* Check the parameters */
 275:Drivers/STM32U0xx_HAL_Driver/Src/stm32u0xx_hal_rcc_ex.c ****     assert_param(IS_RCC_I2C3CLKSOURCE(PeriphClkInit->I2c3ClockSelection));
 354              		.loc 1 275 5 is_stmt 1 view .LVU106
 276:Drivers/STM32U0xx_HAL_Driver/Src/stm32u0xx_hal_rcc_ex.c **** 
 277:Drivers/STM32U0xx_HAL_Driver/Src/stm32u0xx_hal_rcc_ex.c ****     /* Configure the I2C3 clock source */
 278:Drivers/STM32U0xx_HAL_Driver/Src/stm32u0xx_hal_rcc_ex.c ****     __HAL_RCC_I2C3_CONFIG(PeriphClkInit->I2c3ClockSelection);
 355              		.loc 1 278 5 view .LVU107
 356 0146 8821     		movs	r1, #136
 357 0148 534D     		ldr	r5, .L113
 358 014a 5A4E     		ldr	r6, .L113+28
 359 014c 6A58     		ldr	r2, [r5, r1]
 360 014e 3240     		ands	r2, r6
 361 0150 E669     		ldr	r6, [r4, #28]
 362 0152 3243     		orrs	r2, r6
 363 0154 6A50     		str	r2, [r5, r1]
 364              	.L22:
 279:Drivers/STM32U0xx_HAL_Driver/Src/stm32u0xx_hal_rcc_ex.c ****   }
 280:Drivers/STM32U0xx_HAL_Driver/Src/stm32u0xx_hal_rcc_ex.c **** 
 281:Drivers/STM32U0xx_HAL_Driver/Src/stm32u0xx_hal_rcc_ex.c ****   /*----------------------- LPTIM1 clock source configuration -------------------*/
 282:Drivers/STM32U0xx_HAL_Driver/Src/stm32u0xx_hal_rcc_ex.c ****   if (((PeriphClkInit->PeriphClockSelection) & RCC_PERIPHCLK_LPTIM1) == (RCC_PERIPHCLK_LPTIM1))
 365              		.loc 1 282 3 view .LVU108
 366              		.loc 1 282 6 is_stmt 0 view .LVU109
 367 0156 1A06     		lsls	r2, r3, #24
 368 0158 07D5     		bpl	.L23
 283:Drivers/STM32U0xx_HAL_Driver/Src/stm32u0xx_hal_rcc_ex.c ****   {
 284:Drivers/STM32U0xx_HAL_Driver/Src/stm32u0xx_hal_rcc_ex.c ****     assert_param(IS_RCC_LPTIM1CLKSOURCE(PeriphClkInit->Lptim1ClockSelection));
 369              		.loc 1 284 5 is_stmt 1 view .LVU110
 285:Drivers/STM32U0xx_HAL_Driver/Src/stm32u0xx_hal_rcc_ex.c ****     __HAL_RCC_LPTIM1_CONFIG(PeriphClkInit->Lptim1ClockSelection);
 370              		.loc 1 285 5 view .LVU111
 371 015a 8821     		movs	r1, #136
 372 015c 4E4D     		ldr	r5, .L113
 373 015e 564E     		ldr	r6, .L113+32
 374 0160 6A58     		ldr	r2, [r5, r1]
 375 0162 3240     		ands	r2, r6
 376 0164 266A     		ldr	r6, [r4, #32]
 377 0166 3243     		orrs	r2, r6
 378 0168 6A50     		str	r2, [r5, r1]
 379              	.L23:
 286:Drivers/STM32U0xx_HAL_Driver/Src/stm32u0xx_hal_rcc_ex.c ****   }
ARM GAS  C:\Users\upo\AppData\Local\Temp\ccMLO1b7.s 			page 13


 287:Drivers/STM32U0xx_HAL_Driver/Src/stm32u0xx_hal_rcc_ex.c **** 
 288:Drivers/STM32U0xx_HAL_Driver/Src/stm32u0xx_hal_rcc_ex.c ****   /*-------------------------- LPTIM2 clock source configuration -------------------*/
 289:Drivers/STM32U0xx_HAL_Driver/Src/stm32u0xx_hal_rcc_ex.c ****   if (((PeriphClkInit->PeriphClockSelection) & RCC_PERIPHCLK_LPTIM2) == (RCC_PERIPHCLK_LPTIM2))
 380              		.loc 1 289 3 view .LVU112
 381              		.loc 1 289 6 is_stmt 0 view .LVU113
 382 016a DA05     		lsls	r2, r3, #23
 383 016c 07D5     		bpl	.L24
 290:Drivers/STM32U0xx_HAL_Driver/Src/stm32u0xx_hal_rcc_ex.c ****   {
 291:Drivers/STM32U0xx_HAL_Driver/Src/stm32u0xx_hal_rcc_ex.c ****     assert_param(IS_RCC_LPTIM2CLKSOURCE(PeriphClkInit->Lptim2ClockSelection));
 384              		.loc 1 291 5 is_stmt 1 view .LVU114
 292:Drivers/STM32U0xx_HAL_Driver/Src/stm32u0xx_hal_rcc_ex.c ****     __HAL_RCC_LPTIM2_CONFIG(PeriphClkInit->Lptim2ClockSelection);
 385              		.loc 1 292 5 view .LVU115
 386 016e 8821     		movs	r1, #136
 387 0170 494D     		ldr	r5, .L113
 388 0172 524E     		ldr	r6, .L113+36
 389 0174 6A58     		ldr	r2, [r5, r1]
 390 0176 3240     		ands	r2, r6
 391 0178 666A     		ldr	r6, [r4, #36]
 392 017a 3243     		orrs	r2, r6
 393 017c 6A50     		str	r2, [r5, r1]
 394              	.L24:
 293:Drivers/STM32U0xx_HAL_Driver/Src/stm32u0xx_hal_rcc_ex.c ****   }
 294:Drivers/STM32U0xx_HAL_Driver/Src/stm32u0xx_hal_rcc_ex.c **** #if defined (LPTIM3)
 295:Drivers/STM32U0xx_HAL_Driver/Src/stm32u0xx_hal_rcc_ex.c ****   /*----------------------- LPTIM3 clock source configuration -------------------*/
 296:Drivers/STM32U0xx_HAL_Driver/Src/stm32u0xx_hal_rcc_ex.c ****   if (((PeriphClkInit->PeriphClockSelection) & RCC_PERIPHCLK_LPTIM3) == (RCC_PERIPHCLK_LPTIM3))
 395              		.loc 1 296 3 view .LVU116
 396              		.loc 1 296 6 is_stmt 0 view .LVU117
 397 017e 9A05     		lsls	r2, r3, #22
 398 0180 07D5     		bpl	.L25
 297:Drivers/STM32U0xx_HAL_Driver/Src/stm32u0xx_hal_rcc_ex.c ****   {
 298:Drivers/STM32U0xx_HAL_Driver/Src/stm32u0xx_hal_rcc_ex.c ****     assert_param(IS_RCC_LPTIM3CLKSOURCE(PeriphClkInit->Lptim3ClockSelection));
 399              		.loc 1 298 5 is_stmt 1 view .LVU118
 299:Drivers/STM32U0xx_HAL_Driver/Src/stm32u0xx_hal_rcc_ex.c ****     __HAL_RCC_LPTIM3_CONFIG(PeriphClkInit->Lptim3ClockSelection);
 400              		.loc 1 299 5 view .LVU119
 401 0182 8821     		movs	r1, #136
 402 0184 444D     		ldr	r5, .L113
 403 0186 4E4E     		ldr	r6, .L113+40
 404 0188 6A58     		ldr	r2, [r5, r1]
 405 018a 3240     		ands	r2, r6
 406 018c A66A     		ldr	r6, [r4, #40]
 407 018e 3243     		orrs	r2, r6
 408 0190 6A50     		str	r2, [r5, r1]
 409              	.L25:
 300:Drivers/STM32U0xx_HAL_Driver/Src/stm32u0xx_hal_rcc_ex.c ****   }
 301:Drivers/STM32U0xx_HAL_Driver/Src/stm32u0xx_hal_rcc_ex.c **** #endif /* LPTIM3 */
 302:Drivers/STM32U0xx_HAL_Driver/Src/stm32u0xx_hal_rcc_ex.c ****   /*-------------------------- ADC clock source configuration ----------------*/
 303:Drivers/STM32U0xx_HAL_Driver/Src/stm32u0xx_hal_rcc_ex.c ****   if (((PeriphClkInit->PeriphClockSelection) & RCC_PERIPHCLK_ADC) == RCC_PERIPHCLK_ADC)
 410              		.loc 1 303 3 view .LVU120
 411              		.loc 1 303 6 is_stmt 0 view .LVU121
 412 0192 5A04     		lsls	r2, r3, #17
 413 0194 0BD5     		bpl	.L26
 304:Drivers/STM32U0xx_HAL_Driver/Src/stm32u0xx_hal_rcc_ex.c ****   {
 305:Drivers/STM32U0xx_HAL_Driver/Src/stm32u0xx_hal_rcc_ex.c ****     /* Check the parameters */
 306:Drivers/STM32U0xx_HAL_Driver/Src/stm32u0xx_hal_rcc_ex.c ****     assert_param(IS_RCC_ADCCLKSOURCE(PeriphClkInit->AdcClockSelection));
 414              		.loc 1 306 5 is_stmt 1 view .LVU122
 307:Drivers/STM32U0xx_HAL_Driver/Src/stm32u0xx_hal_rcc_ex.c ****     if (PeriphClkInit->AdcClockSelection == RCC_ADCCLKSOURCE_PLLP)
 415              		.loc 1 307 5 view .LVU123
ARM GAS  C:\Users\upo\AppData\Local\Temp\ccMLO1b7.s 			page 14


 416              		.loc 1 307 8 is_stmt 0 view .LVU124
 417 0196 8022     		movs	r2, #128
 418              		.loc 1 307 22 view .LVU125
 419 0198 E66B     		ldr	r6, [r4, #60]
 420              		.loc 1 307 8 view .LVU126
 421 019a 5205     		lsls	r2, r2, #21
 422 019c 9642     		cmp	r6, r2
 423 019e 5AD0     		beq	.L108
 424              	.L27:
 308:Drivers/STM32U0xx_HAL_Driver/Src/stm32u0xx_hal_rcc_ex.c ****     {
 309:Drivers/STM32U0xx_HAL_Driver/Src/stm32u0xx_hal_rcc_ex.c ****       __HAL_RCC_PLLCLKOUT_ENABLE(RCC_PLL_DIVP);
 310:Drivers/STM32U0xx_HAL_Driver/Src/stm32u0xx_hal_rcc_ex.c ****     }
 311:Drivers/STM32U0xx_HAL_Driver/Src/stm32u0xx_hal_rcc_ex.c ****     /* Configure the ADC1 clock source */
 312:Drivers/STM32U0xx_HAL_Driver/Src/stm32u0xx_hal_rcc_ex.c ****     __HAL_RCC_ADC_CONFIG(PeriphClkInit->AdcClockSelection);
 425              		.loc 1 312 5 is_stmt 1 view .LVU127
 426 01a0 8821     		movs	r1, #136
 427 01a2 3D4D     		ldr	r5, .L113
 428 01a4 474F     		ldr	r7, .L113+44
 429 01a6 6A58     		ldr	r2, [r5, r1]
 430 01a8 3A40     		ands	r2, r7
 431 01aa 3243     		orrs	r2, r6
 432 01ac 6A50     		str	r2, [r5, r1]
 433              	.L26:
 313:Drivers/STM32U0xx_HAL_Driver/Src/stm32u0xx_hal_rcc_ex.c ****   }
 314:Drivers/STM32U0xx_HAL_Driver/Src/stm32u0xx_hal_rcc_ex.c **** #if defined (USB_DRD_FS)
 315:Drivers/STM32U0xx_HAL_Driver/Src/stm32u0xx_hal_rcc_ex.c ****   /*-------------------------- USB clock source configuration ----------------*/
 316:Drivers/STM32U0xx_HAL_Driver/Src/stm32u0xx_hal_rcc_ex.c ****   if (((PeriphClkInit->PeriphClockSelection) & RCC_PERIPHCLK_USB) == RCC_PERIPHCLK_USB)
 434              		.loc 1 316 3 view .LVU128
 435              		.loc 1 316 6 is_stmt 0 view .LVU129
 436 01ae DA04     		lsls	r2, r3, #19
 437 01b0 0BD5     		bpl	.L28
 317:Drivers/STM32U0xx_HAL_Driver/Src/stm32u0xx_hal_rcc_ex.c ****   {
 318:Drivers/STM32U0xx_HAL_Driver/Src/stm32u0xx_hal_rcc_ex.c ****     /* Check the parameters */
 319:Drivers/STM32U0xx_HAL_Driver/Src/stm32u0xx_hal_rcc_ex.c ****     assert_param(IS_RCC_USBCLKSOURCE(PeriphClkInit->UsbClockSelection));
 438              		.loc 1 319 5 is_stmt 1 view .LVU130
 320:Drivers/STM32U0xx_HAL_Driver/Src/stm32u0xx_hal_rcc_ex.c ****     if (PeriphClkInit->UsbClockSelection == RCC_USBCLKSOURCE_PLLQ)
 439              		.loc 1 320 5 view .LVU131
 440              		.loc 1 320 8 is_stmt 0 view .LVU132
 441 01b2 8022     		movs	r2, #128
 442              		.loc 1 320 22 view .LVU133
 443 01b4 666B     		ldr	r6, [r4, #52]
 444              		.loc 1 320 8 view .LVU134
 445 01b6 1205     		lsls	r2, r2, #20
 446 01b8 9642     		cmp	r6, r2
 447 01ba 53D0     		beq	.L109
 448              	.L29:
 321:Drivers/STM32U0xx_HAL_Driver/Src/stm32u0xx_hal_rcc_ex.c ****     {
 322:Drivers/STM32U0xx_HAL_Driver/Src/stm32u0xx_hal_rcc_ex.c ****       __HAL_RCC_PLLCLKOUT_ENABLE(RCC_PLL_DIVQ);
 323:Drivers/STM32U0xx_HAL_Driver/Src/stm32u0xx_hal_rcc_ex.c ****     }
 324:Drivers/STM32U0xx_HAL_Driver/Src/stm32u0xx_hal_rcc_ex.c ****     /* Configure the USB clock source */
 325:Drivers/STM32U0xx_HAL_Driver/Src/stm32u0xx_hal_rcc_ex.c ****     __HAL_RCC_USB_CONFIG(PeriphClkInit->UsbClockSelection);
 449              		.loc 1 325 5 is_stmt 1 view .LVU135
 450 01bc 8821     		movs	r1, #136
 451 01be 364D     		ldr	r5, .L113
 452 01c0 414F     		ldr	r7, .L113+48
 453 01c2 6A58     		ldr	r2, [r5, r1]
 454 01c4 3A40     		ands	r2, r7
ARM GAS  C:\Users\upo\AppData\Local\Temp\ccMLO1b7.s 			page 15


 455 01c6 3243     		orrs	r2, r6
 456 01c8 6A50     		str	r2, [r5, r1]
 457              	.L28:
 326:Drivers/STM32U0xx_HAL_Driver/Src/stm32u0xx_hal_rcc_ex.c **** 
 327:Drivers/STM32U0xx_HAL_Driver/Src/stm32u0xx_hal_rcc_ex.c ****   }
 328:Drivers/STM32U0xx_HAL_Driver/Src/stm32u0xx_hal_rcc_ex.c **** #endif /* USB_DRD_FS */
 329:Drivers/STM32U0xx_HAL_Driver/Src/stm32u0xx_hal_rcc_ex.c ****   /*-------------------------- RNG clock source configuration ----------------*/
 330:Drivers/STM32U0xx_HAL_Driver/Src/stm32u0xx_hal_rcc_ex.c ****   if (((PeriphClkInit->PeriphClockSelection) & RCC_PERIPHCLK_RNG) == RCC_PERIPHCLK_RNG)
 458              		.loc 1 330 3 view .LVU136
 459              		.loc 1 330 6 is_stmt 0 view .LVU137
 460 01ca 9A04     		lsls	r2, r3, #18
 461 01cc 0BD5     		bpl	.L30
 331:Drivers/STM32U0xx_HAL_Driver/Src/stm32u0xx_hal_rcc_ex.c ****   {
 332:Drivers/STM32U0xx_HAL_Driver/Src/stm32u0xx_hal_rcc_ex.c ****     /* Check the parameters */
 333:Drivers/STM32U0xx_HAL_Driver/Src/stm32u0xx_hal_rcc_ex.c ****     assert_param(IS_RCC_RNGCLKSOURCE(PeriphClkInit->RngClockSelection));
 462              		.loc 1 333 5 is_stmt 1 view .LVU138
 334:Drivers/STM32U0xx_HAL_Driver/Src/stm32u0xx_hal_rcc_ex.c ****     if (PeriphClkInit->RngClockSelection == RCC_RNGCLKSOURCE_PLLQ)
 463              		.loc 1 334 5 view .LVU139
 464              		.loc 1 334 8 is_stmt 0 view .LVU140
 465 01ce 8022     		movs	r2, #128
 466              		.loc 1 334 22 view .LVU141
 467 01d0 A66B     		ldr	r6, [r4, #56]
 468              		.loc 1 334 8 view .LVU142
 469 01d2 1205     		lsls	r2, r2, #20
 470 01d4 9642     		cmp	r6, r2
 471 01d6 4CD0     		beq	.L110
 472              	.L31:
 335:Drivers/STM32U0xx_HAL_Driver/Src/stm32u0xx_hal_rcc_ex.c ****     {
 336:Drivers/STM32U0xx_HAL_Driver/Src/stm32u0xx_hal_rcc_ex.c ****       __HAL_RCC_PLLCLKOUT_ENABLE(RCC_PLL_DIVQ);
 337:Drivers/STM32U0xx_HAL_Driver/Src/stm32u0xx_hal_rcc_ex.c ****     }
 338:Drivers/STM32U0xx_HAL_Driver/Src/stm32u0xx_hal_rcc_ex.c ****     /* Configure the RNG clock source */
 339:Drivers/STM32U0xx_HAL_Driver/Src/stm32u0xx_hal_rcc_ex.c ****     __HAL_RCC_RNG_CONFIG(PeriphClkInit->RngClockSelection);
 473              		.loc 1 339 5 is_stmt 1 view .LVU143
 474 01d8 8821     		movs	r1, #136
 475 01da 2F4D     		ldr	r5, .L113
 476 01dc 3A4F     		ldr	r7, .L113+48
 477 01de 6A58     		ldr	r2, [r5, r1]
 478 01e0 3A40     		ands	r2, r7
 479 01e2 3243     		orrs	r2, r6
 480 01e4 6A50     		str	r2, [r5, r1]
 481              	.L30:
 340:Drivers/STM32U0xx_HAL_Driver/Src/stm32u0xx_hal_rcc_ex.c **** 
 341:Drivers/STM32U0xx_HAL_Driver/Src/stm32u0xx_hal_rcc_ex.c ****   }
 342:Drivers/STM32U0xx_HAL_Driver/Src/stm32u0xx_hal_rcc_ex.c ****   /*-------------------------- TIM1 clock source configuration ----------------*/
 343:Drivers/STM32U0xx_HAL_Driver/Src/stm32u0xx_hal_rcc_ex.c ****   if (((PeriphClkInit->PeriphClockSelection) & RCC_PERIPHCLK_TIM1) == RCC_PERIPHCLK_TIM1)
 482              		.loc 1 343 3 view .LVU144
 483              		.loc 1 343 6 is_stmt 0 view .LVU145
 484 01e6 5A05     		lsls	r2, r3, #21
 485 01e8 0BD5     		bpl	.L32
 344:Drivers/STM32U0xx_HAL_Driver/Src/stm32u0xx_hal_rcc_ex.c ****   {
 345:Drivers/STM32U0xx_HAL_Driver/Src/stm32u0xx_hal_rcc_ex.c **** 
 346:Drivers/STM32U0xx_HAL_Driver/Src/stm32u0xx_hal_rcc_ex.c ****     /* Check the parameters */
 347:Drivers/STM32U0xx_HAL_Driver/Src/stm32u0xx_hal_rcc_ex.c ****     assert_param(IS_RCC_TIM1CLKSOURCE(PeriphClkInit->Tim1ClockSelection));
 486              		.loc 1 347 5 is_stmt 1 view .LVU146
 348:Drivers/STM32U0xx_HAL_Driver/Src/stm32u0xx_hal_rcc_ex.c ****     if (PeriphClkInit->Tim1ClockSelection == RCC_TIM1CLKSOURCE_PLLQ)
 487              		.loc 1 348 5 view .LVU147
 488              		.loc 1 348 8 is_stmt 0 view .LVU148
ARM GAS  C:\Users\upo\AppData\Local\Temp\ccMLO1b7.s 			page 16


 489 01ea 8022     		movs	r2, #128
 490              		.loc 1 348 22 view .LVU149
 491 01ec E16A     		ldr	r1, [r4, #44]
 492              		.loc 1 348 8 view .LVU150
 493 01ee 5204     		lsls	r2, r2, #17
 494 01f0 9142     		cmp	r1, r2
 495 01f2 45D0     		beq	.L111
 496              	.L33:
 349:Drivers/STM32U0xx_HAL_Driver/Src/stm32u0xx_hal_rcc_ex.c ****     {
 350:Drivers/STM32U0xx_HAL_Driver/Src/stm32u0xx_hal_rcc_ex.c ****       __HAL_RCC_PLLCLKOUT_ENABLE(RCC_PLL_DIVQ);
 351:Drivers/STM32U0xx_HAL_Driver/Src/stm32u0xx_hal_rcc_ex.c ****     }
 352:Drivers/STM32U0xx_HAL_Driver/Src/stm32u0xx_hal_rcc_ex.c ****     /* Configure the TIM1 clock source */
 353:Drivers/STM32U0xx_HAL_Driver/Src/stm32u0xx_hal_rcc_ex.c ****     __HAL_RCC_TIM1_CONFIG(PeriphClkInit->Tim1ClockSelection);
 497              		.loc 1 353 5 is_stmt 1 view .LVU151
 498 01f4 8825     		movs	r5, #136
 499 01f6 284E     		ldr	r6, .L113
 500 01f8 344F     		ldr	r7, .L113+52
 501 01fa 7259     		ldr	r2, [r6, r5]
 502 01fc 3A40     		ands	r2, r7
 503 01fe 0A43     		orrs	r2, r1
 504 0200 7251     		str	r2, [r6, r5]
 505              	.L32:
 354:Drivers/STM32U0xx_HAL_Driver/Src/stm32u0xx_hal_rcc_ex.c **** 
 355:Drivers/STM32U0xx_HAL_Driver/Src/stm32u0xx_hal_rcc_ex.c ****   }
 356:Drivers/STM32U0xx_HAL_Driver/Src/stm32u0xx_hal_rcc_ex.c ****   /*-------------------------- TIM15 clock source configuration ----------------*/
 357:Drivers/STM32U0xx_HAL_Driver/Src/stm32u0xx_hal_rcc_ex.c ****   if (((PeriphClkInit->PeriphClockSelection) & RCC_PERIPHCLK_TIM15) == RCC_PERIPHCLK_TIM15)
 506              		.loc 1 357 3 view .LVU152
 507              		.loc 1 357 6 is_stmt 0 view .LVU153
 508 0202 1B05     		lsls	r3, r3, #20
 509 0204 0BD5     		bpl	.L39
 358:Drivers/STM32U0xx_HAL_Driver/Src/stm32u0xx_hal_rcc_ex.c ****   {
 359:Drivers/STM32U0xx_HAL_Driver/Src/stm32u0xx_hal_rcc_ex.c ****     /* Check the parameters */
 360:Drivers/STM32U0xx_HAL_Driver/Src/stm32u0xx_hal_rcc_ex.c ****     assert_param(IS_RCC_TIM15CLKSOURCE(PeriphClkInit->Tim15ClockSelection));
 510              		.loc 1 360 5 is_stmt 1 view .LVU154
 361:Drivers/STM32U0xx_HAL_Driver/Src/stm32u0xx_hal_rcc_ex.c ****     if (PeriphClkInit->Tim15ClockSelection == RCC_TIM15CLKSOURCE_PLLQ)
 511              		.loc 1 361 5 view .LVU155
 512              		.loc 1 361 8 is_stmt 0 view .LVU156
 513 0206 8023     		movs	r3, #128
 514              		.loc 1 361 22 view .LVU157
 515 0208 246B     		ldr	r4, [r4, #48]
 516              	.LVL21:
 517              		.loc 1 361 8 view .LVU158
 518 020a 9B04     		lsls	r3, r3, #18
 519 020c 9C42     		cmp	r4, r3
 520 020e 3CD0     		beq	.L112
 521              	.L35:
 362:Drivers/STM32U0xx_HAL_Driver/Src/stm32u0xx_hal_rcc_ex.c ****     {
 363:Drivers/STM32U0xx_HAL_Driver/Src/stm32u0xx_hal_rcc_ex.c ****       __HAL_RCC_PLLCLKOUT_ENABLE(RCC_PLL_DIVQ);
 364:Drivers/STM32U0xx_HAL_Driver/Src/stm32u0xx_hal_rcc_ex.c ****     }
 365:Drivers/STM32U0xx_HAL_Driver/Src/stm32u0xx_hal_rcc_ex.c ****     /* Configure the TIM1 clock source */
 366:Drivers/STM32U0xx_HAL_Driver/Src/stm32u0xx_hal_rcc_ex.c ****     __HAL_RCC_TIM15_CONFIG(PeriphClkInit->Tim15ClockSelection);
 522              		.loc 1 366 5 is_stmt 1 view .LVU159
 523 0210 8822     		movs	r2, #136
 524 0212 2149     		ldr	r1, .L113
 525 0214 2D4D     		ldr	r5, .L113+52
 526 0216 8B58     		ldr	r3, [r1, r2]
 527 0218 2B40     		ands	r3, r5
ARM GAS  C:\Users\upo\AppData\Local\Temp\ccMLO1b7.s 			page 17


 528 021a 2343     		orrs	r3, r4
 529 021c 8B50     		str	r3, [r1, r2]
 367:Drivers/STM32U0xx_HAL_Driver/Src/stm32u0xx_hal_rcc_ex.c **** 
 368:Drivers/STM32U0xx_HAL_Driver/Src/stm32u0xx_hal_rcc_ex.c ****   }
 369:Drivers/STM32U0xx_HAL_Driver/Src/stm32u0xx_hal_rcc_ex.c **** 
 370:Drivers/STM32U0xx_HAL_Driver/Src/stm32u0xx_hal_rcc_ex.c ****   return status;
 530              		.loc 1 370 3 view .LVU160
 531              	.L39:
 371:Drivers/STM32U0xx_HAL_Driver/Src/stm32u0xx_hal_rcc_ex.c **** }
 532              		.loc 1 371 1 is_stmt 0 view .LVU161
 533 021e 02B0     		add	sp, sp, #8
 534              		@ sp needed
 535 0220 E0BC     		pop	{r5, r6, r7}
 536 0222 BA46     		mov	r10, r7
 537 0224 B146     		mov	r9, r6
 538 0226 A846     		mov	r8, r5
 539 0228 F0BD     		pop	{r4, r5, r6, r7, pc}
 540              	.LVL22:
 541              	.L106:
 542              	.LBB6:
 135:Drivers/STM32U0xx_HAL_Driver/Src/stm32u0xx_hal_rcc_ex.c ****       pwrclkchanged = SET;
 543              		.loc 1 135 7 is_stmt 1 view .LVU162
 544              	.LBB3:
 135:Drivers/STM32U0xx_HAL_Driver/Src/stm32u0xx_hal_rcc_ex.c ****       pwrclkchanged = SET;
 545              		.loc 1 135 7 view .LVU163
 135:Drivers/STM32U0xx_HAL_Driver/Src/stm32u0xx_hal_rcc_ex.c ****       pwrclkchanged = SET;
 546              		.loc 1 135 7 view .LVU164
 547 022a 996D     		ldr	r1, [r3, #88]
 548 022c 1143     		orrs	r1, r2
 549 022e 9965     		str	r1, [r3, #88]
 135:Drivers/STM32U0xx_HAL_Driver/Src/stm32u0xx_hal_rcc_ex.c ****       pwrclkchanged = SET;
 550              		.loc 1 135 7 view .LVU165
 551 0230 9B6D     		ldr	r3, [r3, #88]
 552 0232 1340     		ands	r3, r2
 553 0234 0193     		str	r3, [sp, #4]
 135:Drivers/STM32U0xx_HAL_Driver/Src/stm32u0xx_hal_rcc_ex.c ****       pwrclkchanged = SET;
 554              		.loc 1 135 7 view .LVU166
 555 0236 019B     		ldr	r3, [sp, #4]
 556              	.LBE3:
 135:Drivers/STM32U0xx_HAL_Driver/Src/stm32u0xx_hal_rcc_ex.c ****       pwrclkchanged = SET;
 557              		.loc 1 135 7 view .LVU167
 136:Drivers/STM32U0xx_HAL_Driver/Src/stm32u0xx_hal_rcc_ex.c ****     }
 558              		.loc 1 136 7 view .LVU168
 559              	.LVL23:
 136:Drivers/STM32U0xx_HAL_Driver/Src/stm32u0xx_hal_rcc_ex.c ****     }
 560              		.loc 1 136 21 is_stmt 0 view .LVU169
 561 0238 0123     		movs	r3, #1
 562 023a 9A46     		mov	r10, r3
 563 023c F3E6     		b	.L3
 564              	.LVL24:
 565              	.L5:
 205:Drivers/STM32U0xx_HAL_Driver/Src/stm32u0xx_hal_rcc_ex.c ****     {
 566              		.loc 1 205 8 view .LVU170
 567 023e 5246     		mov	r2, r10
 195:Drivers/STM32U0xx_HAL_Driver/Src/stm32u0xx_hal_rcc_ex.c ****       }
 568              		.loc 1 195 16 view .LVU171
 569 0240 0320     		movs	r0, #3
ARM GAS  C:\Users\upo\AppData\Local\Temp\ccMLO1b7.s 			page 18


 570              	.LVL25:
 205:Drivers/STM32U0xx_HAL_Driver/Src/stm32u0xx_hal_rcc_ex.c ****     {
 571              		.loc 1 205 5 is_stmt 1 view .LVU172
 572              	.LBE6:
 212:Drivers/STM32U0xx_HAL_Driver/Src/stm32u0xx_hal_rcc_ex.c ****   {
 573              		.loc 1 212 22 is_stmt 0 view .LVU173
 574 0242 2368     		ldr	r3, [r4]
 575              	.LBB7:
 205:Drivers/STM32U0xx_HAL_Driver/Src/stm32u0xx_hal_rcc_ex.c ****     {
 576              		.loc 1 205 8 view .LVU174
 577 0244 012A     		cmp	r2, #1
 578 0246 00D0     		beq	.LCB555
 579 0248 3FE7     		b	.L2	@long jump
 580              	.LCB555:
 581              	.LVL26:
 582              	.L107:
 207:Drivers/STM32U0xx_HAL_Driver/Src/stm32u0xx_hal_rcc_ex.c ****     }
 583              		.loc 1 207 7 is_stmt 1 view .LVU175
 584 024a 1349     		ldr	r1, .L113
 585 024c 204D     		ldr	r5, .L113+56
 586 024e 8A6D     		ldr	r2, [r1, #88]
 587 0250 2A40     		ands	r2, r5
 588 0252 8A65     		str	r2, [r1, #88]
 589 0254 39E7     		b	.L2
 590              	.LVL27:
 591              	.L108:
 207:Drivers/STM32U0xx_HAL_Driver/Src/stm32u0xx_hal_rcc_ex.c ****     }
 592              		.loc 1 207 7 is_stmt 0 view .LVU176
 593              	.LBE7:
 309:Drivers/STM32U0xx_HAL_Driver/Src/stm32u0xx_hal_rcc_ex.c ****     }
 594              		.loc 1 309 7 is_stmt 1 view .LVU177
 595 0256 8022     		movs	r2, #128
 596 0258 0F49     		ldr	r1, .L113
 597 025a 5202     		lsls	r2, r2, #9
 598 025c CD68     		ldr	r5, [r1, #12]
 599 025e 2A43     		orrs	r2, r5
 600 0260 CA60     		str	r2, [r1, #12]
 601 0262 9DE7     		b	.L27
 602              	.L109:
 322:Drivers/STM32U0xx_HAL_Driver/Src/stm32u0xx_hal_rcc_ex.c ****     }
 603              		.loc 1 322 7 view .LVU178
 604 0264 8022     		movs	r2, #128
 605 0266 0C49     		ldr	r1, .L113
 606 0268 5204     		lsls	r2, r2, #17
 607 026a CD68     		ldr	r5, [r1, #12]
 608 026c 2A43     		orrs	r2, r5
 609 026e CA60     		str	r2, [r1, #12]
 610 0270 A4E7     		b	.L29
 611              	.L110:
 336:Drivers/STM32U0xx_HAL_Driver/Src/stm32u0xx_hal_rcc_ex.c ****     }
 612              		.loc 1 336 7 view .LVU179
 613 0272 8022     		movs	r2, #128
 614 0274 0849     		ldr	r1, .L113
 615 0276 5204     		lsls	r2, r2, #17
 616 0278 CD68     		ldr	r5, [r1, #12]
 617 027a 2A43     		orrs	r2, r5
 618 027c CA60     		str	r2, [r1, #12]
ARM GAS  C:\Users\upo\AppData\Local\Temp\ccMLO1b7.s 			page 19


 619 027e ABE7     		b	.L31
 620              	.L111:
 350:Drivers/STM32U0xx_HAL_Driver/Src/stm32u0xx_hal_rcc_ex.c ****     }
 621              		.loc 1 350 7 view .LVU180
 622 0280 054D     		ldr	r5, .L113
 623 0282 EA68     		ldr	r2, [r5, #12]
 624 0284 0A43     		orrs	r2, r1
 625 0286 EA60     		str	r2, [r5, #12]
 626 0288 B4E7     		b	.L33
 627              	.LVL28:
 628              	.L112:
 363:Drivers/STM32U0xx_HAL_Driver/Src/stm32u0xx_hal_rcc_ex.c ****     }
 629              		.loc 1 363 7 view .LVU181
 630 028a 8023     		movs	r3, #128
 631 028c 024A     		ldr	r2, .L113
 632 028e 5B04     		lsls	r3, r3, #17
 633 0290 D168     		ldr	r1, [r2, #12]
 634 0292 0B43     		orrs	r3, r1
 635 0294 D360     		str	r3, [r2, #12]
 636 0296 BBE7     		b	.L35
 637              	.L114:
 638              		.align	2
 639              	.L113:
 640 0298 00100240 		.word	1073876992
 641 029c 00700040 		.word	1073770496
 642 02a0 FFFCFFFF 		.word	-769
 643 02a4 FFFFFEFF 		.word	-65537
 644 02a8 88130000 		.word	5000
 645 02ac FFF3FFFF 		.word	-3073
 646 02b0 FFCFFFFF 		.word	-12289
 647 02b4 FFFFFCFF 		.word	-196609
 648 02b8 FFFFF3FF 		.word	-786433
 649 02bc FFFFCFFF 		.word	-3145729
 650 02c0 FFFF3FFF 		.word	-12582913
 651 02c4 FFFFFFCF 		.word	-805306369
 652 02c8 FFFFFFF3 		.word	-201326593
 653 02cc FFFFFFFE 		.word	-16777217
 654 02d0 FFFFFFEF 		.word	-268435457
 655              		.cfi_endproc
 656              	.LFE334:
 658              		.section	.text.HAL_RCCEx_GetPeriphCLKConfig,"ax",%progbits
 659              		.align	1
 660              		.p2align 2,,3
 661              		.global	HAL_RCCEx_GetPeriphCLKConfig
 662              		.syntax unified
 663              		.code	16
 664              		.thumb_func
 666              	HAL_RCCEx_GetPeriphCLKConfig:
 667              	.LVL29:
 668              	.LFB335:
 372:Drivers/STM32U0xx_HAL_Driver/Src/stm32u0xx_hal_rcc_ex.c **** /**
 373:Drivers/STM32U0xx_HAL_Driver/Src/stm32u0xx_hal_rcc_ex.c ****   * @brief  Get the RCC_ClkInitStruct according to the internal RCC configuration registers.
 374:Drivers/STM32U0xx_HAL_Driver/Src/stm32u0xx_hal_rcc_ex.c ****   * @param  PeriphClkInit  pointer to an RCC_PeriphCLKInitTypeDef structure that
 375:Drivers/STM32U0xx_HAL_Driver/Src/stm32u0xx_hal_rcc_ex.c ****   *         returns the configuration information for the Extended Peripherals
 376:Drivers/STM32U0xx_HAL_Driver/Src/stm32u0xx_hal_rcc_ex.c ****   *         clocks(USART1, USART2, LPUART1, LPUART2, LPUART3, I2C1, I2C2, I2C3, I2C4, LPTIM1,
 377:Drivers/STM32U0xx_HAL_Driver/Src/stm32u0xx_hal_rcc_ex.c ****   *         LPTIM2, LPTIM3, USB, TIM1, LCD, SPI1, SPI2, SPI3, RTC, RNG, ADC, DAC, IWDG).
 378:Drivers/STM32U0xx_HAL_Driver/Src/stm32u0xx_hal_rcc_ex.c ****   * @retval None
ARM GAS  C:\Users\upo\AppData\Local\Temp\ccMLO1b7.s 			page 20


 379:Drivers/STM32U0xx_HAL_Driver/Src/stm32u0xx_hal_rcc_ex.c ****   */
 380:Drivers/STM32U0xx_HAL_Driver/Src/stm32u0xx_hal_rcc_ex.c **** void HAL_RCCEx_GetPeriphCLKConfig(RCC_PeriphCLKInitTypeDef  *PeriphClkInit)
 381:Drivers/STM32U0xx_HAL_Driver/Src/stm32u0xx_hal_rcc_ex.c **** {
 669              		.loc 1 381 1 view -0
 670              		.cfi_startproc
 671              		@ args = 0, pretend = 0, frame = 0
 672              		@ frame_needed = 0, uses_anonymous_args = 0
 382:Drivers/STM32U0xx_HAL_Driver/Src/stm32u0xx_hal_rcc_ex.c ****   /* Set all possible values for the extended clock type parameter------------*/
 383:Drivers/STM32U0xx_HAL_Driver/Src/stm32u0xx_hal_rcc_ex.c ****   PeriphClkInit->PeriphClockSelection = RCC_PERIPHCLK_RTC  | RCC_PERIPHCLK_USART1 | RCC_PERIPHCLK_U
 673              		.loc 1 383 3 view .LVU183
 384:Drivers/STM32U0xx_HAL_Driver/Src/stm32u0xx_hal_rcc_ex.c ****                                         RCC_PERIPHCLK_LPUART1 | RCC_PERIPHCLK_LPUART2 | RCC_PERIPHC
 385:Drivers/STM32U0xx_HAL_Driver/Src/stm32u0xx_hal_rcc_ex.c ****                                         RCC_PERIPHCLK_I2C3 | RCC_PERIPHCLK_LPTIM1 | RCC_PERIPHCLK_L
 386:Drivers/STM32U0xx_HAL_Driver/Src/stm32u0xx_hal_rcc_ex.c ****                                         RCC_PERIPHCLK_TIM1 | RCC_PERIPHCLK_TIM15 | RCC_PERIPHCLK_RN
 387:Drivers/STM32U0xx_HAL_Driver/Src/stm32u0xx_hal_rcc_ex.c ****                                         RCC_PERIPHCLK_ADC ;
 388:Drivers/STM32U0xx_HAL_Driver/Src/stm32u0xx_hal_rcc_ex.c **** 
 389:Drivers/STM32U0xx_HAL_Driver/Src/stm32u0xx_hal_rcc_ex.c **** #if defined(LPUART3)
 390:Drivers/STM32U0xx_HAL_Driver/Src/stm32u0xx_hal_rcc_ex.c ****   PeriphClkInit->PeriphClockSelection |= RCC_PERIPHCLK_LPUART3;
 674              		.loc 1 390 3 view .LVU184
 391:Drivers/STM32U0xx_HAL_Driver/Src/stm32u0xx_hal_rcc_ex.c **** #endif /* LPUART3*/
 392:Drivers/STM32U0xx_HAL_Driver/Src/stm32u0xx_hal_rcc_ex.c **** #if defined(LPTIM3)
 393:Drivers/STM32U0xx_HAL_Driver/Src/stm32u0xx_hal_rcc_ex.c ****   PeriphClkInit->PeriphClockSelection |= RCC_PERIPHCLK_LPTIM3;
 675              		.loc 1 393 3 view .LVU185
 394:Drivers/STM32U0xx_HAL_Driver/Src/stm32u0xx_hal_rcc_ex.c **** #endif /* LPTIM3 */
 395:Drivers/STM32U0xx_HAL_Driver/Src/stm32u0xx_hal_rcc_ex.c **** #if defined(USB_DRD_FS)
 396:Drivers/STM32U0xx_HAL_Driver/Src/stm32u0xx_hal_rcc_ex.c ****   PeriphClkInit->PeriphClockSelection |= RCC_PERIPHCLK_USB;
 676              		.loc 1 396 3 view .LVU186
 397:Drivers/STM32U0xx_HAL_Driver/Src/stm32u0xx_hal_rcc_ex.c **** #endif /* USB_DRD_FS */
 398:Drivers/STM32U0xx_HAL_Driver/Src/stm32u0xx_hal_rcc_ex.c ****   /* Get the RTC clock source ---------------------------------------------*/
 399:Drivers/STM32U0xx_HAL_Driver/Src/stm32u0xx_hal_rcc_ex.c ****   PeriphClkInit->RTCClockSelection   = __HAL_RCC_GET_RTC_SOURCE();
 677              		.loc 1 399 40 is_stmt 0 view .LVU187
 678 0000 9022     		movs	r2, #144
 381:Drivers/STM32U0xx_HAL_Driver/Src/stm32u0xx_hal_rcc_ex.c ****   /* Set all possible values for the extended clock type parameter------------*/
 679              		.loc 1 381 1 view .LVU188
 680 0002 30B5     		push	{r4, r5, lr}
 681              	.LCFI3:
 682              		.cfi_def_cfa_offset 12
 683              		.cfi_offset 4, -12
 684              		.cfi_offset 5, -8
 685              		.cfi_offset 14, -4
 686              		.loc 1 399 40 view .LVU189
 687 0004 C024     		movs	r4, #192
 400:Drivers/STM32U0xx_HAL_Driver/Src/stm32u0xx_hal_rcc_ex.c **** 
 401:Drivers/STM32U0xx_HAL_Driver/Src/stm32u0xx_hal_rcc_ex.c ****   /* Get the USART1 clock source ---------------------------------------------*/
 402:Drivers/STM32U0xx_HAL_Driver/Src/stm32u0xx_hal_rcc_ex.c ****   PeriphClkInit->Usart1ClockSelection   = __HAL_RCC_GET_USART1_SOURCE();
 403:Drivers/STM32U0xx_HAL_Driver/Src/stm32u0xx_hal_rcc_ex.c **** 
 404:Drivers/STM32U0xx_HAL_Driver/Src/stm32u0xx_hal_rcc_ex.c ****   /* Get the USART2 clock source ---------------------------------------------*/
 405:Drivers/STM32U0xx_HAL_Driver/Src/stm32u0xx_hal_rcc_ex.c ****   PeriphClkInit->Usart2ClockSelection   = __HAL_RCC_GET_USART2_SOURCE();
 406:Drivers/STM32U0xx_HAL_Driver/Src/stm32u0xx_hal_rcc_ex.c **** 
 407:Drivers/STM32U0xx_HAL_Driver/Src/stm32u0xx_hal_rcc_ex.c ****   /* Get the LPUART1 clock source --------------------------------------------*/
 408:Drivers/STM32U0xx_HAL_Driver/Src/stm32u0xx_hal_rcc_ex.c ****   PeriphClkInit->Lpuart1ClockSelection  = __HAL_RCC_GET_LPUART1_SOURCE();
 409:Drivers/STM32U0xx_HAL_Driver/Src/stm32u0xx_hal_rcc_ex.c **** 
 410:Drivers/STM32U0xx_HAL_Driver/Src/stm32u0xx_hal_rcc_ex.c ****   /* Get the LPUART2 clock source --------------------------------------------*/
 411:Drivers/STM32U0xx_HAL_Driver/Src/stm32u0xx_hal_rcc_ex.c ****   PeriphClkInit->Lpuart2ClockSelection  = __HAL_RCC_GET_LPUART2_SOURCE();
 412:Drivers/STM32U0xx_HAL_Driver/Src/stm32u0xx_hal_rcc_ex.c **** 
 413:Drivers/STM32U0xx_HAL_Driver/Src/stm32u0xx_hal_rcc_ex.c **** #if defined (LPUART3)
 414:Drivers/STM32U0xx_HAL_Driver/Src/stm32u0xx_hal_rcc_ex.c ****   /* Get the LPUART3 clock source --------------------------------------------*/
 415:Drivers/STM32U0xx_HAL_Driver/Src/stm32u0xx_hal_rcc_ex.c ****   PeriphClkInit->Lpuart3ClockSelection  = __HAL_RCC_GET_LPUART3_SOURCE();
ARM GAS  C:\Users\upo\AppData\Local\Temp\ccMLO1b7.s 			page 21


 416:Drivers/STM32U0xx_HAL_Driver/Src/stm32u0xx_hal_rcc_ex.c **** #endif /* LPUART3 */
 417:Drivers/STM32U0xx_HAL_Driver/Src/stm32u0xx_hal_rcc_ex.c **** 
 418:Drivers/STM32U0xx_HAL_Driver/Src/stm32u0xx_hal_rcc_ex.c ****   /* Get the I2C1 clock source -----------------------------------------------*/
 419:Drivers/STM32U0xx_HAL_Driver/Src/stm32u0xx_hal_rcc_ex.c ****   PeriphClkInit->I2c1ClockSelection     = __HAL_RCC_GET_I2C1_SOURCE();
 420:Drivers/STM32U0xx_HAL_Driver/Src/stm32u0xx_hal_rcc_ex.c **** 
 421:Drivers/STM32U0xx_HAL_Driver/Src/stm32u0xx_hal_rcc_ex.c ****   /* Get the I2C3 clock source -----------------------------------------------*/
 422:Drivers/STM32U0xx_HAL_Driver/Src/stm32u0xx_hal_rcc_ex.c ****   PeriphClkInit->I2c3ClockSelection     = __HAL_RCC_GET_I2C3_SOURCE();
 423:Drivers/STM32U0xx_HAL_Driver/Src/stm32u0xx_hal_rcc_ex.c **** 
 424:Drivers/STM32U0xx_HAL_Driver/Src/stm32u0xx_hal_rcc_ex.c ****   /* Get the LPTIM1 clock source ---------------------------------------------*/
 425:Drivers/STM32U0xx_HAL_Driver/Src/stm32u0xx_hal_rcc_ex.c ****   PeriphClkInit->Lptim1ClockSelection  = __HAL_RCC_GET_LPTIM1_SOURCE();
 426:Drivers/STM32U0xx_HAL_Driver/Src/stm32u0xx_hal_rcc_ex.c **** 
 427:Drivers/STM32U0xx_HAL_Driver/Src/stm32u0xx_hal_rcc_ex.c ****   /* Get the LPTIM2 clock source ---------------------------------------------*/
 428:Drivers/STM32U0xx_HAL_Driver/Src/stm32u0xx_hal_rcc_ex.c ****   PeriphClkInit->Lptim2ClockSelection   = __HAL_RCC_GET_LPTIM2_SOURCE();
 429:Drivers/STM32U0xx_HAL_Driver/Src/stm32u0xx_hal_rcc_ex.c **** 
 430:Drivers/STM32U0xx_HAL_Driver/Src/stm32u0xx_hal_rcc_ex.c **** #if defined (LPTIM3)
 431:Drivers/STM32U0xx_HAL_Driver/Src/stm32u0xx_hal_rcc_ex.c ****   /* Get the LPTIM3 clock source ---------------------------------------------*/
 432:Drivers/STM32U0xx_HAL_Driver/Src/stm32u0xx_hal_rcc_ex.c ****   PeriphClkInit->Lptim3ClockSelection   = __HAL_RCC_GET_LPTIM3_SOURCE();
 433:Drivers/STM32U0xx_HAL_Driver/Src/stm32u0xx_hal_rcc_ex.c **** #endif /* LPTIM3 */
 434:Drivers/STM32U0xx_HAL_Driver/Src/stm32u0xx_hal_rcc_ex.c **** 
 435:Drivers/STM32U0xx_HAL_Driver/Src/stm32u0xx_hal_rcc_ex.c ****   /* Get the ADC clock source -----------------------------------------------*/
 436:Drivers/STM32U0xx_HAL_Driver/Src/stm32u0xx_hal_rcc_ex.c ****   PeriphClkInit->AdcClockSelection      = __HAL_RCC_GET_ADC_SOURCE();
 437:Drivers/STM32U0xx_HAL_Driver/Src/stm32u0xx_hal_rcc_ex.c **** 
 438:Drivers/STM32U0xx_HAL_Driver/Src/stm32u0xx_hal_rcc_ex.c ****   /* Get the TIM1 clock source -----------------------------------------------*/
 439:Drivers/STM32U0xx_HAL_Driver/Src/stm32u0xx_hal_rcc_ex.c ****   PeriphClkInit->Tim1ClockSelection     = __HAL_RCC_GET_TIM1_SOURCE();
 440:Drivers/STM32U0xx_HAL_Driver/Src/stm32u0xx_hal_rcc_ex.c **** 
 441:Drivers/STM32U0xx_HAL_Driver/Src/stm32u0xx_hal_rcc_ex.c ****   /* Get the TIM15 clock source -----------------------------------------------*/
 442:Drivers/STM32U0xx_HAL_Driver/Src/stm32u0xx_hal_rcc_ex.c ****   PeriphClkInit->Tim15ClockSelection     = __HAL_RCC_GET_TIM15_SOURCE();
 443:Drivers/STM32U0xx_HAL_Driver/Src/stm32u0xx_hal_rcc_ex.c **** 
 444:Drivers/STM32U0xx_HAL_Driver/Src/stm32u0xx_hal_rcc_ex.c **** #if defined (USB_DRD_FS)
 445:Drivers/STM32U0xx_HAL_Driver/Src/stm32u0xx_hal_rcc_ex.c ****   /* Get the USB clock source -------------------------------------------------*/
 446:Drivers/STM32U0xx_HAL_Driver/Src/stm32u0xx_hal_rcc_ex.c ****   PeriphClkInit->UsbClockSelection     = __HAL_RCC_GET_USB_SOURCE();
 447:Drivers/STM32U0xx_HAL_Driver/Src/stm32u0xx_hal_rcc_ex.c **** #endif /* USB_DRD_FS */
 448:Drivers/STM32U0xx_HAL_Driver/Src/stm32u0xx_hal_rcc_ex.c **** 
 449:Drivers/STM32U0xx_HAL_Driver/Src/stm32u0xx_hal_rcc_ex.c ****   /* Get the RNG clock source -------------------------------------------------*/
 450:Drivers/STM32U0xx_HAL_Driver/Src/stm32u0xx_hal_rcc_ex.c ****   PeriphClkInit->RngClockSelection     = __HAL_RCC_GET_RNG_SOURCE();
 451:Drivers/STM32U0xx_HAL_Driver/Src/stm32u0xx_hal_rcc_ex.c **** 
 452:Drivers/STM32U0xx_HAL_Driver/Src/stm32u0xx_hal_rcc_ex.c **** }
 688              		.loc 1 452 1 view .LVU190
 689              		@ sp needed
 396:Drivers/STM32U0xx_HAL_Driver/Src/stm32u0xx_hal_rcc_ex.c **** #endif /* USB_DRD_FS */
 690              		.loc 1 396 39 view .LVU191
 691 0006 264B     		ldr	r3, .L116
 399:Drivers/STM32U0xx_HAL_Driver/Src/stm32u0xx_hal_rcc_ex.c **** 
 692              		.loc 1 399 40 view .LVU192
 693 0008 A400     		lsls	r4, r4, #2
 396:Drivers/STM32U0xx_HAL_Driver/Src/stm32u0xx_hal_rcc_ex.c **** #endif /* USB_DRD_FS */
 694              		.loc 1 396 39 view .LVU193
 695 000a 0360     		str	r3, [r0]
 399:Drivers/STM32U0xx_HAL_Driver/Src/stm32u0xx_hal_rcc_ex.c **** 
 696              		.loc 1 399 3 is_stmt 1 view .LVU194
 399:Drivers/STM32U0xx_HAL_Driver/Src/stm32u0xx_hal_rcc_ex.c **** 
 697              		.loc 1 399 40 is_stmt 0 view .LVU195
 698 000c 254B     		ldr	r3, .L116+4
 402:Drivers/STM32U0xx_HAL_Driver/Src/stm32u0xx_hal_rcc_ex.c **** 
 699              		.loc 1 402 43 view .LVU196
 700 000e 0321     		movs	r1, #3
 399:Drivers/STM32U0xx_HAL_Driver/Src/stm32u0xx_hal_rcc_ex.c **** 
ARM GAS  C:\Users\upo\AppData\Local\Temp\ccMLO1b7.s 			page 22


 701              		.loc 1 399 40 view .LVU197
 702 0010 9A58     		ldr	r2, [r3, r2]
 703 0012 2240     		ands	r2, r4
 399:Drivers/STM32U0xx_HAL_Driver/Src/stm32u0xx_hal_rcc_ex.c **** 
 704              		.loc 1 399 38 view .LVU198
 705 0014 0264     		str	r2, [r0, #64]
 402:Drivers/STM32U0xx_HAL_Driver/Src/stm32u0xx_hal_rcc_ex.c **** 
 706              		.loc 1 402 3 is_stmt 1 view .LVU199
 402:Drivers/STM32U0xx_HAL_Driver/Src/stm32u0xx_hal_rcc_ex.c **** 
 707              		.loc 1 402 43 is_stmt 0 view .LVU200
 708 0016 8822     		movs	r2, #136
 709 0018 9D58     		ldr	r5, [r3, r2]
 710 001a 2940     		ands	r1, r5
 402:Drivers/STM32U0xx_HAL_Driver/Src/stm32u0xx_hal_rcc_ex.c **** 
 711              		.loc 1 402 41 view .LVU201
 712 001c 4160     		str	r1, [r0, #4]
 405:Drivers/STM32U0xx_HAL_Driver/Src/stm32u0xx_hal_rcc_ex.c **** 
 713              		.loc 1 405 3 is_stmt 1 view .LVU202
 405:Drivers/STM32U0xx_HAL_Driver/Src/stm32u0xx_hal_rcc_ex.c **** 
 714              		.loc 1 405 43 is_stmt 0 view .LVU203
 715 001e 0C21     		movs	r1, #12
 716 0020 9D58     		ldr	r5, [r3, r2]
 717 0022 2940     		ands	r1, r5
 408:Drivers/STM32U0xx_HAL_Driver/Src/stm32u0xx_hal_rcc_ex.c **** 
 718              		.loc 1 408 43 view .LVU204
 719 0024 C025     		movs	r5, #192
 405:Drivers/STM32U0xx_HAL_Driver/Src/stm32u0xx_hal_rcc_ex.c **** 
 720              		.loc 1 405 41 view .LVU205
 721 0026 8160     		str	r1, [r0, #8]
 408:Drivers/STM32U0xx_HAL_Driver/Src/stm32u0xx_hal_rcc_ex.c **** 
 722              		.loc 1 408 3 is_stmt 1 view .LVU206
 408:Drivers/STM32U0xx_HAL_Driver/Src/stm32u0xx_hal_rcc_ex.c **** 
 723              		.loc 1 408 43 is_stmt 0 view .LVU207
 724 0028 9958     		ldr	r1, [r3, r2]
 725 002a 2D01     		lsls	r5, r5, #4
 726 002c 2940     		ands	r1, r5
 408:Drivers/STM32U0xx_HAL_Driver/Src/stm32u0xx_hal_rcc_ex.c **** 
 727              		.loc 1 408 41 view .LVU208
 728 002e 4161     		str	r1, [r0, #20]
 411:Drivers/STM32U0xx_HAL_Driver/Src/stm32u0xx_hal_rcc_ex.c **** 
 729              		.loc 1 411 3 is_stmt 1 view .LVU209
 411:Drivers/STM32U0xx_HAL_Driver/Src/stm32u0xx_hal_rcc_ex.c **** 
 730              		.loc 1 411 43 is_stmt 0 view .LVU210
 731 0030 9958     		ldr	r1, [r3, r2]
 732 0032 2140     		ands	r1, r4
 411:Drivers/STM32U0xx_HAL_Driver/Src/stm32u0xx_hal_rcc_ex.c **** 
 733              		.loc 1 411 41 view .LVU211
 734 0034 0161     		str	r1, [r0, #16]
 415:Drivers/STM32U0xx_HAL_Driver/Src/stm32u0xx_hal_rcc_ex.c **** #endif /* LPUART3 */
 735              		.loc 1 415 3 is_stmt 1 view .LVU212
 415:Drivers/STM32U0xx_HAL_Driver/Src/stm32u0xx_hal_rcc_ex.c **** #endif /* LPUART3 */
 736              		.loc 1 415 43 is_stmt 0 view .LVU213
 737 0036 C021     		movs	r1, #192
 738 0038 9C58     		ldr	r4, [r3, r2]
 739 003a 2140     		ands	r1, r4
 419:Drivers/STM32U0xx_HAL_Driver/Src/stm32u0xx_hal_rcc_ex.c **** 
 740              		.loc 1 419 43 view .LVU214
ARM GAS  C:\Users\upo\AppData\Local\Temp\ccMLO1b7.s 			page 23


 741 003c C024     		movs	r4, #192
 415:Drivers/STM32U0xx_HAL_Driver/Src/stm32u0xx_hal_rcc_ex.c **** #endif /* LPUART3 */
 742              		.loc 1 415 41 view .LVU215
 743 003e C160     		str	r1, [r0, #12]
 419:Drivers/STM32U0xx_HAL_Driver/Src/stm32u0xx_hal_rcc_ex.c **** 
 744              		.loc 1 419 3 is_stmt 1 view .LVU216
 419:Drivers/STM32U0xx_HAL_Driver/Src/stm32u0xx_hal_rcc_ex.c **** 
 745              		.loc 1 419 43 is_stmt 0 view .LVU217
 746 0040 9958     		ldr	r1, [r3, r2]
 747 0042 A401     		lsls	r4, r4, #6
 748 0044 2140     		ands	r1, r4
 422:Drivers/STM32U0xx_HAL_Driver/Src/stm32u0xx_hal_rcc_ex.c **** 
 749              		.loc 1 422 43 view .LVU218
 750 0046 C024     		movs	r4, #192
 419:Drivers/STM32U0xx_HAL_Driver/Src/stm32u0xx_hal_rcc_ex.c **** 
 751              		.loc 1 419 41 view .LVU219
 752 0048 8161     		str	r1, [r0, #24]
 422:Drivers/STM32U0xx_HAL_Driver/Src/stm32u0xx_hal_rcc_ex.c **** 
 753              		.loc 1 422 3 is_stmt 1 view .LVU220
 422:Drivers/STM32U0xx_HAL_Driver/Src/stm32u0xx_hal_rcc_ex.c **** 
 754              		.loc 1 422 43 is_stmt 0 view .LVU221
 755 004a 9958     		ldr	r1, [r3, r2]
 756 004c A402     		lsls	r4, r4, #10
 757 004e 2140     		ands	r1, r4
 425:Drivers/STM32U0xx_HAL_Driver/Src/stm32u0xx_hal_rcc_ex.c **** 
 758              		.loc 1 425 42 view .LVU222
 759 0050 C024     		movs	r4, #192
 422:Drivers/STM32U0xx_HAL_Driver/Src/stm32u0xx_hal_rcc_ex.c **** 
 760              		.loc 1 422 41 view .LVU223
 761 0052 C161     		str	r1, [r0, #28]
 425:Drivers/STM32U0xx_HAL_Driver/Src/stm32u0xx_hal_rcc_ex.c **** 
 762              		.loc 1 425 3 is_stmt 1 view .LVU224
 425:Drivers/STM32U0xx_HAL_Driver/Src/stm32u0xx_hal_rcc_ex.c **** 
 763              		.loc 1 425 42 is_stmt 0 view .LVU225
 764 0054 9958     		ldr	r1, [r3, r2]
 765 0056 2403     		lsls	r4, r4, #12
 766 0058 2140     		ands	r1, r4
 428:Drivers/STM32U0xx_HAL_Driver/Src/stm32u0xx_hal_rcc_ex.c **** 
 767              		.loc 1 428 43 view .LVU226
 768 005a C024     		movs	r4, #192
 425:Drivers/STM32U0xx_HAL_Driver/Src/stm32u0xx_hal_rcc_ex.c **** 
 769              		.loc 1 425 40 view .LVU227
 770 005c 0162     		str	r1, [r0, #32]
 428:Drivers/STM32U0xx_HAL_Driver/Src/stm32u0xx_hal_rcc_ex.c **** 
 771              		.loc 1 428 3 is_stmt 1 view .LVU228
 428:Drivers/STM32U0xx_HAL_Driver/Src/stm32u0xx_hal_rcc_ex.c **** 
 772              		.loc 1 428 43 is_stmt 0 view .LVU229
 773 005e 9958     		ldr	r1, [r3, r2]
 774 0060 A403     		lsls	r4, r4, #14
 775 0062 2140     		ands	r1, r4
 432:Drivers/STM32U0xx_HAL_Driver/Src/stm32u0xx_hal_rcc_ex.c **** #endif /* LPTIM3 */
 776              		.loc 1 432 43 view .LVU230
 777 0064 C024     		movs	r4, #192
 428:Drivers/STM32U0xx_HAL_Driver/Src/stm32u0xx_hal_rcc_ex.c **** 
 778              		.loc 1 428 41 view .LVU231
 779 0066 4162     		str	r1, [r0, #36]
 432:Drivers/STM32U0xx_HAL_Driver/Src/stm32u0xx_hal_rcc_ex.c **** #endif /* LPTIM3 */
ARM GAS  C:\Users\upo\AppData\Local\Temp\ccMLO1b7.s 			page 24


 780              		.loc 1 432 3 is_stmt 1 view .LVU232
 432:Drivers/STM32U0xx_HAL_Driver/Src/stm32u0xx_hal_rcc_ex.c **** #endif /* LPTIM3 */
 781              		.loc 1 432 43 is_stmt 0 view .LVU233
 782 0068 9958     		ldr	r1, [r3, r2]
 783 006a 2404     		lsls	r4, r4, #16
 784 006c 2140     		ands	r1, r4
 436:Drivers/STM32U0xx_HAL_Driver/Src/stm32u0xx_hal_rcc_ex.c **** 
 785              		.loc 1 436 43 view .LVU234
 786 006e C024     		movs	r4, #192
 432:Drivers/STM32U0xx_HAL_Driver/Src/stm32u0xx_hal_rcc_ex.c **** #endif /* LPTIM3 */
 787              		.loc 1 432 41 view .LVU235
 788 0070 8162     		str	r1, [r0, #40]
 436:Drivers/STM32U0xx_HAL_Driver/Src/stm32u0xx_hal_rcc_ex.c **** 
 789              		.loc 1 436 3 is_stmt 1 view .LVU236
 436:Drivers/STM32U0xx_HAL_Driver/Src/stm32u0xx_hal_rcc_ex.c **** 
 790              		.loc 1 436 43 is_stmt 0 view .LVU237
 791 0072 9958     		ldr	r1, [r3, r2]
 792 0074 A405     		lsls	r4, r4, #22
 793 0076 2140     		ands	r1, r4
 439:Drivers/STM32U0xx_HAL_Driver/Src/stm32u0xx_hal_rcc_ex.c **** 
 794              		.loc 1 439 43 view .LVU238
 795 0078 8024     		movs	r4, #128
 436:Drivers/STM32U0xx_HAL_Driver/Src/stm32u0xx_hal_rcc_ex.c **** 
 796              		.loc 1 436 41 view .LVU239
 797 007a C163     		str	r1, [r0, #60]
 439:Drivers/STM32U0xx_HAL_Driver/Src/stm32u0xx_hal_rcc_ex.c **** 
 798              		.loc 1 439 3 is_stmt 1 view .LVU240
 439:Drivers/STM32U0xx_HAL_Driver/Src/stm32u0xx_hal_rcc_ex.c **** 
 799              		.loc 1 439 43 is_stmt 0 view .LVU241
 800 007c 9958     		ldr	r1, [r3, r2]
 801 007e 6404     		lsls	r4, r4, #17
 802 0080 2140     		ands	r1, r4
 442:Drivers/STM32U0xx_HAL_Driver/Src/stm32u0xx_hal_rcc_ex.c **** 
 803              		.loc 1 442 44 view .LVU242
 804 0082 8024     		movs	r4, #128
 439:Drivers/STM32U0xx_HAL_Driver/Src/stm32u0xx_hal_rcc_ex.c **** 
 805              		.loc 1 439 41 view .LVU243
 806 0084 C162     		str	r1, [r0, #44]
 442:Drivers/STM32U0xx_HAL_Driver/Src/stm32u0xx_hal_rcc_ex.c **** 
 807              		.loc 1 442 3 is_stmt 1 view .LVU244
 442:Drivers/STM32U0xx_HAL_Driver/Src/stm32u0xx_hal_rcc_ex.c **** 
 808              		.loc 1 442 44 is_stmt 0 view .LVU245
 809 0086 9958     		ldr	r1, [r3, r2]
 810 0088 A404     		lsls	r4, r4, #18
 811 008a 2140     		ands	r1, r4
 446:Drivers/STM32U0xx_HAL_Driver/Src/stm32u0xx_hal_rcc_ex.c **** #endif /* USB_DRD_FS */
 812              		.loc 1 446 42 view .LVU246
 813 008c C024     		movs	r4, #192
 442:Drivers/STM32U0xx_HAL_Driver/Src/stm32u0xx_hal_rcc_ex.c **** 
 814              		.loc 1 442 42 view .LVU247
 815 008e 0163     		str	r1, [r0, #48]
 446:Drivers/STM32U0xx_HAL_Driver/Src/stm32u0xx_hal_rcc_ex.c **** #endif /* USB_DRD_FS */
 816              		.loc 1 446 3 is_stmt 1 view .LVU248
 446:Drivers/STM32U0xx_HAL_Driver/Src/stm32u0xx_hal_rcc_ex.c **** #endif /* USB_DRD_FS */
 817              		.loc 1 446 42 is_stmt 0 view .LVU249
 818 0090 9958     		ldr	r1, [r3, r2]
 819 0092 2405     		lsls	r4, r4, #20
ARM GAS  C:\Users\upo\AppData\Local\Temp\ccMLO1b7.s 			page 25


 820 0094 2140     		ands	r1, r4
 446:Drivers/STM32U0xx_HAL_Driver/Src/stm32u0xx_hal_rcc_ex.c **** #endif /* USB_DRD_FS */
 821              		.loc 1 446 40 view .LVU250
 822 0096 4163     		str	r1, [r0, #52]
 450:Drivers/STM32U0xx_HAL_Driver/Src/stm32u0xx_hal_rcc_ex.c **** 
 823              		.loc 1 450 3 is_stmt 1 view .LVU251
 450:Drivers/STM32U0xx_HAL_Driver/Src/stm32u0xx_hal_rcc_ex.c **** 
 824              		.loc 1 450 42 is_stmt 0 view .LVU252
 825 0098 9B58     		ldr	r3, [r3, r2]
 826 009a 2340     		ands	r3, r4
 450:Drivers/STM32U0xx_HAL_Driver/Src/stm32u0xx_hal_rcc_ex.c **** 
 827              		.loc 1 450 40 view .LVU253
 828 009c 8363     		str	r3, [r0, #56]
 829              		.loc 1 452 1 view .LVU254
 830 009e 30BD     		pop	{r4, r5, pc}
 831              	.L117:
 832              		.align	2
 833              	.L116:
 834 00a0 FFFF0000 		.word	65535
 835 00a4 00100240 		.word	1073876992
 836              		.cfi_endproc
 837              	.LFE335:
 839              		.global	__aeabi_uidiv
 840              		.global	__aeabi_idiv
 841              		.section	.text.HAL_RCCEx_GetPLLClockFreq,"ax",%progbits
 842              		.align	1
 843              		.p2align 2,,3
 844              		.global	HAL_RCCEx_GetPLLClockFreq
 845              		.syntax unified
 846              		.code	16
 847              		.thumb_func
 849              	HAL_RCCEx_GetPLLClockFreq:
 850              	.LVL30:
 851              	.LFB337:
 453:Drivers/STM32U0xx_HAL_Driver/Src/stm32u0xx_hal_rcc_ex.c **** 
 454:Drivers/STM32U0xx_HAL_Driver/Src/stm32u0xx_hal_rcc_ex.c **** /**
 455:Drivers/STM32U0xx_HAL_Driver/Src/stm32u0xx_hal_rcc_ex.c ****   * @brief  Return the peripheral clock frequency for peripherals with clock source from PLLSAIs
 456:Drivers/STM32U0xx_HAL_Driver/Src/stm32u0xx_hal_rcc_ex.c ****   * @note   Return 0 if peripheral clock identifier not managed by this API
 457:Drivers/STM32U0xx_HAL_Driver/Src/stm32u0xx_hal_rcc_ex.c ****   * @param  PeriphClk  Peripheral clock identifier
 458:Drivers/STM32U0xx_HAL_Driver/Src/stm32u0xx_hal_rcc_ex.c ****   *         This parameter can be one of the following values:
 459:Drivers/STM32U0xx_HAL_Driver/Src/stm32u0xx_hal_rcc_ex.c ****   *            @arg @ref RCC_PERIPHCLK_ADC  ADC peripheral clock
 460:Drivers/STM32U0xx_HAL_Driver/Src/stm32u0xx_hal_rcc_ex.c ****   *            @arg @ref RCC_PERIPHCLK_I2C1  I2C1 peripheral clock
 461:Drivers/STM32U0xx_HAL_Driver/Src/stm32u0xx_hal_rcc_ex.c ****   *            @arg @ref RCC_PERIPHCLK_I2C3  I2C3 peripheral clock
 462:Drivers/STM32U0xx_HAL_Driver/Src/stm32u0xx_hal_rcc_ex.c ****   *            @arg @ref RCC_PERIPHCLK_LPTIM1  LPTIM1 peripheral clock
 463:Drivers/STM32U0xx_HAL_Driver/Src/stm32u0xx_hal_rcc_ex.c ****   *            @arg @ref RCC_PERIPHCLK_LPTIM2  LPTIM2 peripheral clock
 464:Drivers/STM32U0xx_HAL_Driver/Src/stm32u0xx_hal_rcc_ex.c ****   *            @arg @ref RCC_PERIPHCLK_LPTIM3  LPTIM3 peripheral clock
 465:Drivers/STM32U0xx_HAL_Driver/Src/stm32u0xx_hal_rcc_ex.c ****   *            @arg @ref RCC_PERIPHCLK_LPUART1  LPUART1 peripheral clock
 466:Drivers/STM32U0xx_HAL_Driver/Src/stm32u0xx_hal_rcc_ex.c ****   *            @arg @ref RCC_PERIPHCLK_LPUART2  LPUART2 peripheral clock
 467:Drivers/STM32U0xx_HAL_Driver/Src/stm32u0xx_hal_rcc_ex.c ****   *            @arg @ref RCC_PERIPHCLK_LPUART3  LPUART3 peripheral clock
 468:Drivers/STM32U0xx_HAL_Driver/Src/stm32u0xx_hal_rcc_ex.c ****   *            @arg @ref RCC_PERIPHCLK_USART1  USART1 peripheral clock
 469:Drivers/STM32U0xx_HAL_Driver/Src/stm32u0xx_hal_rcc_ex.c ****   *            @arg @ref RCC_PERIPHCLK_USART2  USART2 peripheral clock
 470:Drivers/STM32U0xx_HAL_Driver/Src/stm32u0xx_hal_rcc_ex.c ****   *            @arg @ref RCC_PERIPHCLK_USART3  USART3 peripheral clock
 471:Drivers/STM32U0xx_HAL_Driver/Src/stm32u0xx_hal_rcc_ex.c ****   *            @arg @ref RCC_PERIPHCLK_USART4  USART4 peripheral clock
 472:Drivers/STM32U0xx_HAL_Driver/Src/stm32u0xx_hal_rcc_ex.c ****   *            @arg @ref RCC_PERIPHCLK_USB  USB peripheral clock (only for devices with USB)
 473:Drivers/STM32U0xx_HAL_Driver/Src/stm32u0xx_hal_rcc_ex.c ****   *            @arg @ref RCC_PERIPHCLK_RNG  RNG peripheral clock (only for devices with RNG)
 474:Drivers/STM32U0xx_HAL_Driver/Src/stm32u0xx_hal_rcc_ex.c ****   *            @arg @ref RCC_PERIPHCLK_TIM1  TIM1 peripheral clock (only for devices with TIM1)
 475:Drivers/STM32U0xx_HAL_Driver/Src/stm32u0xx_hal_rcc_ex.c ****   *            @arg @ref RCC_PERIPHCLK_TIM15  TIM15 peripheral clock (only for devices with TIM15)
ARM GAS  C:\Users\upo\AppData\Local\Temp\ccMLO1b7.s 			page 26


 476:Drivers/STM32U0xx_HAL_Driver/Src/stm32u0xx_hal_rcc_ex.c ****   * @retval Frequency in Hz
 477:Drivers/STM32U0xx_HAL_Driver/Src/stm32u0xx_hal_rcc_ex.c ****   */
 478:Drivers/STM32U0xx_HAL_Driver/Src/stm32u0xx_hal_rcc_ex.c **** uint32_t HAL_RCCEx_GetPeriphCLKFreq(uint32_t PeriphClk)
 479:Drivers/STM32U0xx_HAL_Driver/Src/stm32u0xx_hal_rcc_ex.c **** {
 480:Drivers/STM32U0xx_HAL_Driver/Src/stm32u0xx_hal_rcc_ex.c ****   uint32_t frequency = 0U;
 481:Drivers/STM32U0xx_HAL_Driver/Src/stm32u0xx_hal_rcc_ex.c ****   uint32_t srcclk;    /* no init needed */
 482:Drivers/STM32U0xx_HAL_Driver/Src/stm32u0xx_hal_rcc_ex.c ****   PLL_ClocksTypeDef pll_freq;
 483:Drivers/STM32U0xx_HAL_Driver/Src/stm32u0xx_hal_rcc_ex.c ****   uint32_t msirange;
 484:Drivers/STM32U0xx_HAL_Driver/Src/stm32u0xx_hal_rcc_ex.c ****   /* Check the parameters */
 485:Drivers/STM32U0xx_HAL_Driver/Src/stm32u0xx_hal_rcc_ex.c ****   assert_param(IS_RCC_PERIPHCLOCK(PeriphClk));
 486:Drivers/STM32U0xx_HAL_Driver/Src/stm32u0xx_hal_rcc_ex.c **** 
 487:Drivers/STM32U0xx_HAL_Driver/Src/stm32u0xx_hal_rcc_ex.c ****   if (PeriphClk == RCC_PERIPHCLK_RTC)
 488:Drivers/STM32U0xx_HAL_Driver/Src/stm32u0xx_hal_rcc_ex.c ****   {
 489:Drivers/STM32U0xx_HAL_Driver/Src/stm32u0xx_hal_rcc_ex.c ****     /* Get the current RCC_PERIPHCLK_RTC source */
 490:Drivers/STM32U0xx_HAL_Driver/Src/stm32u0xx_hal_rcc_ex.c ****     srcclk = __HAL_RCC_GET_RTC_SOURCE();
 491:Drivers/STM32U0xx_HAL_Driver/Src/stm32u0xx_hal_rcc_ex.c **** 
 492:Drivers/STM32U0xx_HAL_Driver/Src/stm32u0xx_hal_rcc_ex.c ****     switch (srcclk)
 493:Drivers/STM32U0xx_HAL_Driver/Src/stm32u0xx_hal_rcc_ex.c ****     {
 494:Drivers/STM32U0xx_HAL_Driver/Src/stm32u0xx_hal_rcc_ex.c ****       case RCC_RTCCLKSOURCE_LSE:
 495:Drivers/STM32U0xx_HAL_Driver/Src/stm32u0xx_hal_rcc_ex.c ****         /* Check if LSE is ready */
 496:Drivers/STM32U0xx_HAL_Driver/Src/stm32u0xx_hal_rcc_ex.c ****         if (HAL_IS_BIT_SET(RCC->BDCR, RCC_BDCR_LSERDY))
 497:Drivers/STM32U0xx_HAL_Driver/Src/stm32u0xx_hal_rcc_ex.c ****         {
 498:Drivers/STM32U0xx_HAL_Driver/Src/stm32u0xx_hal_rcc_ex.c ****           frequency = LSE_VALUE;
 499:Drivers/STM32U0xx_HAL_Driver/Src/stm32u0xx_hal_rcc_ex.c ****         }
 500:Drivers/STM32U0xx_HAL_Driver/Src/stm32u0xx_hal_rcc_ex.c ****         break;
 501:Drivers/STM32U0xx_HAL_Driver/Src/stm32u0xx_hal_rcc_ex.c ****       case RCC_RTCCLKSOURCE_LSI:
 502:Drivers/STM32U0xx_HAL_Driver/Src/stm32u0xx_hal_rcc_ex.c ****         /* Check if LSI is ready */
 503:Drivers/STM32U0xx_HAL_Driver/Src/stm32u0xx_hal_rcc_ex.c ****         if (HAL_IS_BIT_SET(RCC->CSR, RCC_CSR_LSIRDY))
 504:Drivers/STM32U0xx_HAL_Driver/Src/stm32u0xx_hal_rcc_ex.c ****         {
 505:Drivers/STM32U0xx_HAL_Driver/Src/stm32u0xx_hal_rcc_ex.c **** #if defined(RCC_CSR_LSIPREDIV)
 506:Drivers/STM32U0xx_HAL_Driver/Src/stm32u0xx_hal_rcc_ex.c ****           if (HAL_IS_BIT_SET(RCC->CSR, RCC_CSR_LSIPREDIV))
 507:Drivers/STM32U0xx_HAL_Driver/Src/stm32u0xx_hal_rcc_ex.c ****           {
 508:Drivers/STM32U0xx_HAL_Driver/Src/stm32u0xx_hal_rcc_ex.c ****             frequency = LSI_VALUE / 128U;
 509:Drivers/STM32U0xx_HAL_Driver/Src/stm32u0xx_hal_rcc_ex.c ****           }
 510:Drivers/STM32U0xx_HAL_Driver/Src/stm32u0xx_hal_rcc_ex.c ****           else
 511:Drivers/STM32U0xx_HAL_Driver/Src/stm32u0xx_hal_rcc_ex.c **** #endif /* RCC_CSR_LSIPREDIV */
 512:Drivers/STM32U0xx_HAL_Driver/Src/stm32u0xx_hal_rcc_ex.c ****           {
 513:Drivers/STM32U0xx_HAL_Driver/Src/stm32u0xx_hal_rcc_ex.c ****             frequency = LSI_VALUE;
 514:Drivers/STM32U0xx_HAL_Driver/Src/stm32u0xx_hal_rcc_ex.c ****           }
 515:Drivers/STM32U0xx_HAL_Driver/Src/stm32u0xx_hal_rcc_ex.c ****         }
 516:Drivers/STM32U0xx_HAL_Driver/Src/stm32u0xx_hal_rcc_ex.c ****         break;
 517:Drivers/STM32U0xx_HAL_Driver/Src/stm32u0xx_hal_rcc_ex.c ****       case RCC_RTCCLKSOURCE_HSE:
 518:Drivers/STM32U0xx_HAL_Driver/Src/stm32u0xx_hal_rcc_ex.c ****         /* Check if HSE is ready */
 519:Drivers/STM32U0xx_HAL_Driver/Src/stm32u0xx_hal_rcc_ex.c ****         if (HAL_IS_BIT_SET(RCC->CR, RCC_CR_HSERDY))
 520:Drivers/STM32U0xx_HAL_Driver/Src/stm32u0xx_hal_rcc_ex.c ****         {
 521:Drivers/STM32U0xx_HAL_Driver/Src/stm32u0xx_hal_rcc_ex.c ****           frequency = HSE_VALUE / 32U;
 522:Drivers/STM32U0xx_HAL_Driver/Src/stm32u0xx_hal_rcc_ex.c ****         }
 523:Drivers/STM32U0xx_HAL_Driver/Src/stm32u0xx_hal_rcc_ex.c ****         break;
 524:Drivers/STM32U0xx_HAL_Driver/Src/stm32u0xx_hal_rcc_ex.c ****       default:
 525:Drivers/STM32U0xx_HAL_Driver/Src/stm32u0xx_hal_rcc_ex.c ****         /* No clock source, frequency default init at 0 */
 526:Drivers/STM32U0xx_HAL_Driver/Src/stm32u0xx_hal_rcc_ex.c ****         break;
 527:Drivers/STM32U0xx_HAL_Driver/Src/stm32u0xx_hal_rcc_ex.c ****     }
 528:Drivers/STM32U0xx_HAL_Driver/Src/stm32u0xx_hal_rcc_ex.c ****   }
 529:Drivers/STM32U0xx_HAL_Driver/Src/stm32u0xx_hal_rcc_ex.c ****   else
 530:Drivers/STM32U0xx_HAL_Driver/Src/stm32u0xx_hal_rcc_ex.c ****   {
 531:Drivers/STM32U0xx_HAL_Driver/Src/stm32u0xx_hal_rcc_ex.c ****     /* Other external peripheral clock source than RTC */
 532:Drivers/STM32U0xx_HAL_Driver/Src/stm32u0xx_hal_rcc_ex.c ****     switch (PeriphClk)
ARM GAS  C:\Users\upo\AppData\Local\Temp\ccMLO1b7.s 			page 27


 533:Drivers/STM32U0xx_HAL_Driver/Src/stm32u0xx_hal_rcc_ex.c ****     {
 534:Drivers/STM32U0xx_HAL_Driver/Src/stm32u0xx_hal_rcc_ex.c ****       case RCC_PERIPHCLK_USART1:
 535:Drivers/STM32U0xx_HAL_Driver/Src/stm32u0xx_hal_rcc_ex.c ****       {
 536:Drivers/STM32U0xx_HAL_Driver/Src/stm32u0xx_hal_rcc_ex.c ****         /* Get the current USART1 source */
 537:Drivers/STM32U0xx_HAL_Driver/Src/stm32u0xx_hal_rcc_ex.c ****         srcclk = __HAL_RCC_GET_USART1_SOURCE();
 538:Drivers/STM32U0xx_HAL_Driver/Src/stm32u0xx_hal_rcc_ex.c **** 
 539:Drivers/STM32U0xx_HAL_Driver/Src/stm32u0xx_hal_rcc_ex.c ****         switch (srcclk)
 540:Drivers/STM32U0xx_HAL_Driver/Src/stm32u0xx_hal_rcc_ex.c ****         {
 541:Drivers/STM32U0xx_HAL_Driver/Src/stm32u0xx_hal_rcc_ex.c ****           case RCC_USART1CLKSOURCE_PCLK1:
 542:Drivers/STM32U0xx_HAL_Driver/Src/stm32u0xx_hal_rcc_ex.c ****             frequency = HAL_RCC_GetPCLK1Freq();
 543:Drivers/STM32U0xx_HAL_Driver/Src/stm32u0xx_hal_rcc_ex.c ****             break;
 544:Drivers/STM32U0xx_HAL_Driver/Src/stm32u0xx_hal_rcc_ex.c ****           case RCC_USART1CLKSOURCE_SYSCLK:
 545:Drivers/STM32U0xx_HAL_Driver/Src/stm32u0xx_hal_rcc_ex.c ****             frequency = HAL_RCC_GetSysClockFreq();
 546:Drivers/STM32U0xx_HAL_Driver/Src/stm32u0xx_hal_rcc_ex.c ****             break;
 547:Drivers/STM32U0xx_HAL_Driver/Src/stm32u0xx_hal_rcc_ex.c ****           case RCC_USART1CLKSOURCE_HSI:
 548:Drivers/STM32U0xx_HAL_Driver/Src/stm32u0xx_hal_rcc_ex.c ****             if (HAL_IS_BIT_SET(RCC->CR, RCC_CR_HSIRDY))
 549:Drivers/STM32U0xx_HAL_Driver/Src/stm32u0xx_hal_rcc_ex.c ****             {
 550:Drivers/STM32U0xx_HAL_Driver/Src/stm32u0xx_hal_rcc_ex.c ****               frequency = HSI_VALUE;
 551:Drivers/STM32U0xx_HAL_Driver/Src/stm32u0xx_hal_rcc_ex.c ****             }
 552:Drivers/STM32U0xx_HAL_Driver/Src/stm32u0xx_hal_rcc_ex.c ****             break;
 553:Drivers/STM32U0xx_HAL_Driver/Src/stm32u0xx_hal_rcc_ex.c ****           case RCC_USART1CLKSOURCE_LSE:
 554:Drivers/STM32U0xx_HAL_Driver/Src/stm32u0xx_hal_rcc_ex.c ****             if (HAL_IS_BIT_SET(RCC->BDCR, RCC_BDCR_LSERDY))
 555:Drivers/STM32U0xx_HAL_Driver/Src/stm32u0xx_hal_rcc_ex.c ****             {
 556:Drivers/STM32U0xx_HAL_Driver/Src/stm32u0xx_hal_rcc_ex.c ****               frequency = LSE_VALUE;
 557:Drivers/STM32U0xx_HAL_Driver/Src/stm32u0xx_hal_rcc_ex.c ****             }
 558:Drivers/STM32U0xx_HAL_Driver/Src/stm32u0xx_hal_rcc_ex.c ****             break;
 559:Drivers/STM32U0xx_HAL_Driver/Src/stm32u0xx_hal_rcc_ex.c ****           default:
 560:Drivers/STM32U0xx_HAL_Driver/Src/stm32u0xx_hal_rcc_ex.c ****             /* No clock source, frequency default init at 0 */
 561:Drivers/STM32U0xx_HAL_Driver/Src/stm32u0xx_hal_rcc_ex.c ****             break;
 562:Drivers/STM32U0xx_HAL_Driver/Src/stm32u0xx_hal_rcc_ex.c ****         }
 563:Drivers/STM32U0xx_HAL_Driver/Src/stm32u0xx_hal_rcc_ex.c **** 
 564:Drivers/STM32U0xx_HAL_Driver/Src/stm32u0xx_hal_rcc_ex.c ****         break;
 565:Drivers/STM32U0xx_HAL_Driver/Src/stm32u0xx_hal_rcc_ex.c ****       }
 566:Drivers/STM32U0xx_HAL_Driver/Src/stm32u0xx_hal_rcc_ex.c **** 
 567:Drivers/STM32U0xx_HAL_Driver/Src/stm32u0xx_hal_rcc_ex.c ****       case RCC_PERIPHCLK_USART2:
 568:Drivers/STM32U0xx_HAL_Driver/Src/stm32u0xx_hal_rcc_ex.c ****       {
 569:Drivers/STM32U0xx_HAL_Driver/Src/stm32u0xx_hal_rcc_ex.c ****         /* Get the current USART2 source */
 570:Drivers/STM32U0xx_HAL_Driver/Src/stm32u0xx_hal_rcc_ex.c ****         srcclk = __HAL_RCC_GET_USART2_SOURCE();
 571:Drivers/STM32U0xx_HAL_Driver/Src/stm32u0xx_hal_rcc_ex.c **** 
 572:Drivers/STM32U0xx_HAL_Driver/Src/stm32u0xx_hal_rcc_ex.c ****         switch (srcclk)
 573:Drivers/STM32U0xx_HAL_Driver/Src/stm32u0xx_hal_rcc_ex.c ****         {
 574:Drivers/STM32U0xx_HAL_Driver/Src/stm32u0xx_hal_rcc_ex.c ****           case RCC_USART2CLKSOURCE_PCLK1:
 575:Drivers/STM32U0xx_HAL_Driver/Src/stm32u0xx_hal_rcc_ex.c ****             frequency = HAL_RCC_GetPCLK1Freq();
 576:Drivers/STM32U0xx_HAL_Driver/Src/stm32u0xx_hal_rcc_ex.c ****             break;
 577:Drivers/STM32U0xx_HAL_Driver/Src/stm32u0xx_hal_rcc_ex.c ****           case RCC_USART2CLKSOURCE_SYSCLK:
 578:Drivers/STM32U0xx_HAL_Driver/Src/stm32u0xx_hal_rcc_ex.c ****             frequency = HAL_RCC_GetSysClockFreq();
 579:Drivers/STM32U0xx_HAL_Driver/Src/stm32u0xx_hal_rcc_ex.c ****             break;
 580:Drivers/STM32U0xx_HAL_Driver/Src/stm32u0xx_hal_rcc_ex.c ****           case RCC_USART2CLKSOURCE_HSI:
 581:Drivers/STM32U0xx_HAL_Driver/Src/stm32u0xx_hal_rcc_ex.c ****             if (HAL_IS_BIT_SET(RCC->CR, RCC_CR_HSIRDY))
 582:Drivers/STM32U0xx_HAL_Driver/Src/stm32u0xx_hal_rcc_ex.c ****             {
 583:Drivers/STM32U0xx_HAL_Driver/Src/stm32u0xx_hal_rcc_ex.c ****               frequency = HSI_VALUE;
 584:Drivers/STM32U0xx_HAL_Driver/Src/stm32u0xx_hal_rcc_ex.c ****             }
 585:Drivers/STM32U0xx_HAL_Driver/Src/stm32u0xx_hal_rcc_ex.c ****             break;
 586:Drivers/STM32U0xx_HAL_Driver/Src/stm32u0xx_hal_rcc_ex.c ****           case RCC_USART2CLKSOURCE_LSE:
 587:Drivers/STM32U0xx_HAL_Driver/Src/stm32u0xx_hal_rcc_ex.c ****             if (HAL_IS_BIT_SET(RCC->BDCR, RCC_BDCR_LSERDY))
 588:Drivers/STM32U0xx_HAL_Driver/Src/stm32u0xx_hal_rcc_ex.c ****             {
 589:Drivers/STM32U0xx_HAL_Driver/Src/stm32u0xx_hal_rcc_ex.c ****               frequency = LSE_VALUE;
ARM GAS  C:\Users\upo\AppData\Local\Temp\ccMLO1b7.s 			page 28


 590:Drivers/STM32U0xx_HAL_Driver/Src/stm32u0xx_hal_rcc_ex.c ****             }
 591:Drivers/STM32U0xx_HAL_Driver/Src/stm32u0xx_hal_rcc_ex.c ****             break;
 592:Drivers/STM32U0xx_HAL_Driver/Src/stm32u0xx_hal_rcc_ex.c ****           default:
 593:Drivers/STM32U0xx_HAL_Driver/Src/stm32u0xx_hal_rcc_ex.c ****             /* No clock source, frequency default init at 0 */
 594:Drivers/STM32U0xx_HAL_Driver/Src/stm32u0xx_hal_rcc_ex.c ****             break;
 595:Drivers/STM32U0xx_HAL_Driver/Src/stm32u0xx_hal_rcc_ex.c ****         }
 596:Drivers/STM32U0xx_HAL_Driver/Src/stm32u0xx_hal_rcc_ex.c **** 
 597:Drivers/STM32U0xx_HAL_Driver/Src/stm32u0xx_hal_rcc_ex.c ****         break;
 598:Drivers/STM32U0xx_HAL_Driver/Src/stm32u0xx_hal_rcc_ex.c ****       }
 599:Drivers/STM32U0xx_HAL_Driver/Src/stm32u0xx_hal_rcc_ex.c **** 
 600:Drivers/STM32U0xx_HAL_Driver/Src/stm32u0xx_hal_rcc_ex.c ****       /* USART3 and USART4 source */
 601:Drivers/STM32U0xx_HAL_Driver/Src/stm32u0xx_hal_rcc_ex.c ****       case RCC_PERIPHCLK_USART3:
 602:Drivers/STM32U0xx_HAL_Driver/Src/stm32u0xx_hal_rcc_ex.c ****       case RCC_PERIPHCLK_USART4:
 603:Drivers/STM32U0xx_HAL_Driver/Src/stm32u0xx_hal_rcc_ex.c ****       {
 604:Drivers/STM32U0xx_HAL_Driver/Src/stm32u0xx_hal_rcc_ex.c ****         frequency = HAL_RCC_GetPCLK1Freq();
 605:Drivers/STM32U0xx_HAL_Driver/Src/stm32u0xx_hal_rcc_ex.c ****         break;
 606:Drivers/STM32U0xx_HAL_Driver/Src/stm32u0xx_hal_rcc_ex.c ****       }
 607:Drivers/STM32U0xx_HAL_Driver/Src/stm32u0xx_hal_rcc_ex.c **** 
 608:Drivers/STM32U0xx_HAL_Driver/Src/stm32u0xx_hal_rcc_ex.c ****       case RCC_PERIPHCLK_LPUART1:
 609:Drivers/STM32U0xx_HAL_Driver/Src/stm32u0xx_hal_rcc_ex.c ****       {
 610:Drivers/STM32U0xx_HAL_Driver/Src/stm32u0xx_hal_rcc_ex.c ****         /* Get the current LPUART1 source */
 611:Drivers/STM32U0xx_HAL_Driver/Src/stm32u0xx_hal_rcc_ex.c ****         srcclk = __HAL_RCC_GET_LPUART1_SOURCE();
 612:Drivers/STM32U0xx_HAL_Driver/Src/stm32u0xx_hal_rcc_ex.c **** 
 613:Drivers/STM32U0xx_HAL_Driver/Src/stm32u0xx_hal_rcc_ex.c ****         switch (srcclk)
 614:Drivers/STM32U0xx_HAL_Driver/Src/stm32u0xx_hal_rcc_ex.c ****         {
 615:Drivers/STM32U0xx_HAL_Driver/Src/stm32u0xx_hal_rcc_ex.c ****           case RCC_LPUART1CLKSOURCE_PCLK1:
 616:Drivers/STM32U0xx_HAL_Driver/Src/stm32u0xx_hal_rcc_ex.c ****             frequency = HAL_RCC_GetPCLK1Freq();
 617:Drivers/STM32U0xx_HAL_Driver/Src/stm32u0xx_hal_rcc_ex.c ****             break;
 618:Drivers/STM32U0xx_HAL_Driver/Src/stm32u0xx_hal_rcc_ex.c ****           case RCC_LPUART1CLKSOURCE_SYSCLK:
 619:Drivers/STM32U0xx_HAL_Driver/Src/stm32u0xx_hal_rcc_ex.c ****             frequency = HAL_RCC_GetSysClockFreq();
 620:Drivers/STM32U0xx_HAL_Driver/Src/stm32u0xx_hal_rcc_ex.c ****             break;
 621:Drivers/STM32U0xx_HAL_Driver/Src/stm32u0xx_hal_rcc_ex.c ****           case RCC_LPUART1CLKSOURCE_HSI:
 622:Drivers/STM32U0xx_HAL_Driver/Src/stm32u0xx_hal_rcc_ex.c ****             if (HAL_IS_BIT_SET(RCC->CR, RCC_CR_HSIRDY))
 623:Drivers/STM32U0xx_HAL_Driver/Src/stm32u0xx_hal_rcc_ex.c ****             {
 624:Drivers/STM32U0xx_HAL_Driver/Src/stm32u0xx_hal_rcc_ex.c ****               frequency = HSI_VALUE;
 625:Drivers/STM32U0xx_HAL_Driver/Src/stm32u0xx_hal_rcc_ex.c ****             }
 626:Drivers/STM32U0xx_HAL_Driver/Src/stm32u0xx_hal_rcc_ex.c ****             break;
 627:Drivers/STM32U0xx_HAL_Driver/Src/stm32u0xx_hal_rcc_ex.c ****           case RCC_LPUART1CLKSOURCE_LSE:
 628:Drivers/STM32U0xx_HAL_Driver/Src/stm32u0xx_hal_rcc_ex.c ****             if (HAL_IS_BIT_SET(RCC->BDCR, RCC_BDCR_LSERDY))
 629:Drivers/STM32U0xx_HAL_Driver/Src/stm32u0xx_hal_rcc_ex.c ****             {
 630:Drivers/STM32U0xx_HAL_Driver/Src/stm32u0xx_hal_rcc_ex.c ****               frequency = LSE_VALUE;
 631:Drivers/STM32U0xx_HAL_Driver/Src/stm32u0xx_hal_rcc_ex.c ****             }
 632:Drivers/STM32U0xx_HAL_Driver/Src/stm32u0xx_hal_rcc_ex.c ****             break;
 633:Drivers/STM32U0xx_HAL_Driver/Src/stm32u0xx_hal_rcc_ex.c ****           default:
 634:Drivers/STM32U0xx_HAL_Driver/Src/stm32u0xx_hal_rcc_ex.c ****             /* No clock source, frequency default init at 0 */
 635:Drivers/STM32U0xx_HAL_Driver/Src/stm32u0xx_hal_rcc_ex.c ****             break;
 636:Drivers/STM32U0xx_HAL_Driver/Src/stm32u0xx_hal_rcc_ex.c ****         }
 637:Drivers/STM32U0xx_HAL_Driver/Src/stm32u0xx_hal_rcc_ex.c ****         break;
 638:Drivers/STM32U0xx_HAL_Driver/Src/stm32u0xx_hal_rcc_ex.c ****       }
 639:Drivers/STM32U0xx_HAL_Driver/Src/stm32u0xx_hal_rcc_ex.c ****       case RCC_PERIPHCLK_LPUART2:
 640:Drivers/STM32U0xx_HAL_Driver/Src/stm32u0xx_hal_rcc_ex.c ****       {
 641:Drivers/STM32U0xx_HAL_Driver/Src/stm32u0xx_hal_rcc_ex.c ****         /* Get the current LPUART2 source */
 642:Drivers/STM32U0xx_HAL_Driver/Src/stm32u0xx_hal_rcc_ex.c ****         srcclk = __HAL_RCC_GET_LPUART2_SOURCE();
 643:Drivers/STM32U0xx_HAL_Driver/Src/stm32u0xx_hal_rcc_ex.c **** 
 644:Drivers/STM32U0xx_HAL_Driver/Src/stm32u0xx_hal_rcc_ex.c ****         switch (srcclk)
 645:Drivers/STM32U0xx_HAL_Driver/Src/stm32u0xx_hal_rcc_ex.c ****         {
 646:Drivers/STM32U0xx_HAL_Driver/Src/stm32u0xx_hal_rcc_ex.c ****           case RCC_LPUART2CLKSOURCE_PCLK1:
ARM GAS  C:\Users\upo\AppData\Local\Temp\ccMLO1b7.s 			page 29


 647:Drivers/STM32U0xx_HAL_Driver/Src/stm32u0xx_hal_rcc_ex.c ****             frequency = HAL_RCC_GetPCLK1Freq();
 648:Drivers/STM32U0xx_HAL_Driver/Src/stm32u0xx_hal_rcc_ex.c ****             break;
 649:Drivers/STM32U0xx_HAL_Driver/Src/stm32u0xx_hal_rcc_ex.c ****           case RCC_LPUART2CLKSOURCE_SYSCLK:
 650:Drivers/STM32U0xx_HAL_Driver/Src/stm32u0xx_hal_rcc_ex.c ****             frequency = HAL_RCC_GetSysClockFreq();
 651:Drivers/STM32U0xx_HAL_Driver/Src/stm32u0xx_hal_rcc_ex.c ****             break;
 652:Drivers/STM32U0xx_HAL_Driver/Src/stm32u0xx_hal_rcc_ex.c ****           case RCC_LPUART2CLKSOURCE_HSI:
 653:Drivers/STM32U0xx_HAL_Driver/Src/stm32u0xx_hal_rcc_ex.c ****             if (HAL_IS_BIT_SET(RCC->CR, RCC_CR_HSIRDY))
 654:Drivers/STM32U0xx_HAL_Driver/Src/stm32u0xx_hal_rcc_ex.c ****             {
 655:Drivers/STM32U0xx_HAL_Driver/Src/stm32u0xx_hal_rcc_ex.c ****               frequency = HSI_VALUE;
 656:Drivers/STM32U0xx_HAL_Driver/Src/stm32u0xx_hal_rcc_ex.c ****             }
 657:Drivers/STM32U0xx_HAL_Driver/Src/stm32u0xx_hal_rcc_ex.c ****             break;
 658:Drivers/STM32U0xx_HAL_Driver/Src/stm32u0xx_hal_rcc_ex.c ****           case RCC_LPUART2CLKSOURCE_LSE:
 659:Drivers/STM32U0xx_HAL_Driver/Src/stm32u0xx_hal_rcc_ex.c ****             if (HAL_IS_BIT_SET(RCC->BDCR, RCC_BDCR_LSERDY))
 660:Drivers/STM32U0xx_HAL_Driver/Src/stm32u0xx_hal_rcc_ex.c ****             {
 661:Drivers/STM32U0xx_HAL_Driver/Src/stm32u0xx_hal_rcc_ex.c ****               frequency = LSE_VALUE;
 662:Drivers/STM32U0xx_HAL_Driver/Src/stm32u0xx_hal_rcc_ex.c ****             }
 663:Drivers/STM32U0xx_HAL_Driver/Src/stm32u0xx_hal_rcc_ex.c ****             break;
 664:Drivers/STM32U0xx_HAL_Driver/Src/stm32u0xx_hal_rcc_ex.c ****           default:
 665:Drivers/STM32U0xx_HAL_Driver/Src/stm32u0xx_hal_rcc_ex.c ****             /* No clock source, frequency default init at 0 */
 666:Drivers/STM32U0xx_HAL_Driver/Src/stm32u0xx_hal_rcc_ex.c ****             break;
 667:Drivers/STM32U0xx_HAL_Driver/Src/stm32u0xx_hal_rcc_ex.c ****         }
 668:Drivers/STM32U0xx_HAL_Driver/Src/stm32u0xx_hal_rcc_ex.c ****         break;
 669:Drivers/STM32U0xx_HAL_Driver/Src/stm32u0xx_hal_rcc_ex.c ****       }
 670:Drivers/STM32U0xx_HAL_Driver/Src/stm32u0xx_hal_rcc_ex.c **** #if defined(LPUART3)
 671:Drivers/STM32U0xx_HAL_Driver/Src/stm32u0xx_hal_rcc_ex.c ****       case RCC_PERIPHCLK_LPUART3:
 672:Drivers/STM32U0xx_HAL_Driver/Src/stm32u0xx_hal_rcc_ex.c ****       {
 673:Drivers/STM32U0xx_HAL_Driver/Src/stm32u0xx_hal_rcc_ex.c ****         /* Get the current LPUART3 source */
 674:Drivers/STM32U0xx_HAL_Driver/Src/stm32u0xx_hal_rcc_ex.c ****         srcclk = __HAL_RCC_GET_LPUART3_SOURCE();
 675:Drivers/STM32U0xx_HAL_Driver/Src/stm32u0xx_hal_rcc_ex.c **** 
 676:Drivers/STM32U0xx_HAL_Driver/Src/stm32u0xx_hal_rcc_ex.c ****         switch (srcclk)
 677:Drivers/STM32U0xx_HAL_Driver/Src/stm32u0xx_hal_rcc_ex.c ****         {
 678:Drivers/STM32U0xx_HAL_Driver/Src/stm32u0xx_hal_rcc_ex.c ****           case RCC_LPUART3CLKSOURCE_PCLK1:
 679:Drivers/STM32U0xx_HAL_Driver/Src/stm32u0xx_hal_rcc_ex.c ****             frequency = HAL_RCC_GetPCLK1Freq();
 680:Drivers/STM32U0xx_HAL_Driver/Src/stm32u0xx_hal_rcc_ex.c ****             break;
 681:Drivers/STM32U0xx_HAL_Driver/Src/stm32u0xx_hal_rcc_ex.c ****           case RCC_LPUART3CLKSOURCE_SYSCLK:
 682:Drivers/STM32U0xx_HAL_Driver/Src/stm32u0xx_hal_rcc_ex.c ****             frequency = HAL_RCC_GetSysClockFreq();
 683:Drivers/STM32U0xx_HAL_Driver/Src/stm32u0xx_hal_rcc_ex.c ****             break;
 684:Drivers/STM32U0xx_HAL_Driver/Src/stm32u0xx_hal_rcc_ex.c ****           case RCC_LPUART3CLKSOURCE_HSI:
 685:Drivers/STM32U0xx_HAL_Driver/Src/stm32u0xx_hal_rcc_ex.c ****             if (HAL_IS_BIT_SET(RCC->CR, RCC_CR_HSIRDY))
 686:Drivers/STM32U0xx_HAL_Driver/Src/stm32u0xx_hal_rcc_ex.c ****             {
 687:Drivers/STM32U0xx_HAL_Driver/Src/stm32u0xx_hal_rcc_ex.c ****               frequency = HSI_VALUE;
 688:Drivers/STM32U0xx_HAL_Driver/Src/stm32u0xx_hal_rcc_ex.c ****             }
 689:Drivers/STM32U0xx_HAL_Driver/Src/stm32u0xx_hal_rcc_ex.c ****             break;
 690:Drivers/STM32U0xx_HAL_Driver/Src/stm32u0xx_hal_rcc_ex.c ****           case RCC_LPUART3CLKSOURCE_LSE:
 691:Drivers/STM32U0xx_HAL_Driver/Src/stm32u0xx_hal_rcc_ex.c ****             if (HAL_IS_BIT_SET(RCC->BDCR, RCC_BDCR_LSERDY))
 692:Drivers/STM32U0xx_HAL_Driver/Src/stm32u0xx_hal_rcc_ex.c ****             {
 693:Drivers/STM32U0xx_HAL_Driver/Src/stm32u0xx_hal_rcc_ex.c ****               frequency = LSE_VALUE;
 694:Drivers/STM32U0xx_HAL_Driver/Src/stm32u0xx_hal_rcc_ex.c ****             }
 695:Drivers/STM32U0xx_HAL_Driver/Src/stm32u0xx_hal_rcc_ex.c ****             break;
 696:Drivers/STM32U0xx_HAL_Driver/Src/stm32u0xx_hal_rcc_ex.c ****           default:
 697:Drivers/STM32U0xx_HAL_Driver/Src/stm32u0xx_hal_rcc_ex.c ****             /* No clock source, frequency default init at 0 */
 698:Drivers/STM32U0xx_HAL_Driver/Src/stm32u0xx_hal_rcc_ex.c ****             break;
 699:Drivers/STM32U0xx_HAL_Driver/Src/stm32u0xx_hal_rcc_ex.c ****         }
 700:Drivers/STM32U0xx_HAL_Driver/Src/stm32u0xx_hal_rcc_ex.c ****         break;
 701:Drivers/STM32U0xx_HAL_Driver/Src/stm32u0xx_hal_rcc_ex.c ****       }
 702:Drivers/STM32U0xx_HAL_Driver/Src/stm32u0xx_hal_rcc_ex.c **** #endif /* LPUART3 */
 703:Drivers/STM32U0xx_HAL_Driver/Src/stm32u0xx_hal_rcc_ex.c ****       case RCC_PERIPHCLK_ADC:
ARM GAS  C:\Users\upo\AppData\Local\Temp\ccMLO1b7.s 			page 30


 704:Drivers/STM32U0xx_HAL_Driver/Src/stm32u0xx_hal_rcc_ex.c ****       {
 705:Drivers/STM32U0xx_HAL_Driver/Src/stm32u0xx_hal_rcc_ex.c ****         srcclk = __HAL_RCC_GET_ADC_SOURCE();
 706:Drivers/STM32U0xx_HAL_Driver/Src/stm32u0xx_hal_rcc_ex.c **** 
 707:Drivers/STM32U0xx_HAL_Driver/Src/stm32u0xx_hal_rcc_ex.c ****         switch (srcclk)
 708:Drivers/STM32U0xx_HAL_Driver/Src/stm32u0xx_hal_rcc_ex.c ****         {
 709:Drivers/STM32U0xx_HAL_Driver/Src/stm32u0xx_hal_rcc_ex.c ****           case RCC_ADCCLKSOURCE_SYSCLK:
 710:Drivers/STM32U0xx_HAL_Driver/Src/stm32u0xx_hal_rcc_ex.c ****             frequency = HAL_RCC_GetSysClockFreq();
 711:Drivers/STM32U0xx_HAL_Driver/Src/stm32u0xx_hal_rcc_ex.c ****             break;
 712:Drivers/STM32U0xx_HAL_Driver/Src/stm32u0xx_hal_rcc_ex.c ****           case RCC_ADCCLKSOURCE_HSI:
 713:Drivers/STM32U0xx_HAL_Driver/Src/stm32u0xx_hal_rcc_ex.c ****             if (HAL_IS_BIT_SET(RCC->CR, RCC_CR_HSIRDY))
 714:Drivers/STM32U0xx_HAL_Driver/Src/stm32u0xx_hal_rcc_ex.c ****             {
 715:Drivers/STM32U0xx_HAL_Driver/Src/stm32u0xx_hal_rcc_ex.c ****               frequency = HSI_VALUE;
 716:Drivers/STM32U0xx_HAL_Driver/Src/stm32u0xx_hal_rcc_ex.c ****             }
 717:Drivers/STM32U0xx_HAL_Driver/Src/stm32u0xx_hal_rcc_ex.c ****             else
 718:Drivers/STM32U0xx_HAL_Driver/Src/stm32u0xx_hal_rcc_ex.c ****             {
 719:Drivers/STM32U0xx_HAL_Driver/Src/stm32u0xx_hal_rcc_ex.c ****               frequency = 0U;
 720:Drivers/STM32U0xx_HAL_Driver/Src/stm32u0xx_hal_rcc_ex.c ****             }
 721:Drivers/STM32U0xx_HAL_Driver/Src/stm32u0xx_hal_rcc_ex.c ****             break;
 722:Drivers/STM32U0xx_HAL_Driver/Src/stm32u0xx_hal_rcc_ex.c ****           case RCC_ADCCLKSOURCE_PLLP:
 723:Drivers/STM32U0xx_HAL_Driver/Src/stm32u0xx_hal_rcc_ex.c ****             HAL_RCCEx_GetPLLClockFreq(&pll_freq);
 724:Drivers/STM32U0xx_HAL_Driver/Src/stm32u0xx_hal_rcc_ex.c ****             frequency = pll_freq.PLL_P_Frequency;
 725:Drivers/STM32U0xx_HAL_Driver/Src/stm32u0xx_hal_rcc_ex.c ****             break;
 726:Drivers/STM32U0xx_HAL_Driver/Src/stm32u0xx_hal_rcc_ex.c **** 
 727:Drivers/STM32U0xx_HAL_Driver/Src/stm32u0xx_hal_rcc_ex.c ****           default:
 728:Drivers/STM32U0xx_HAL_Driver/Src/stm32u0xx_hal_rcc_ex.c ****             /* No clock source, frequency default init at 0 */
 729:Drivers/STM32U0xx_HAL_Driver/Src/stm32u0xx_hal_rcc_ex.c ****             break;
 730:Drivers/STM32U0xx_HAL_Driver/Src/stm32u0xx_hal_rcc_ex.c ****         }
 731:Drivers/STM32U0xx_HAL_Driver/Src/stm32u0xx_hal_rcc_ex.c ****         break;
 732:Drivers/STM32U0xx_HAL_Driver/Src/stm32u0xx_hal_rcc_ex.c ****       }
 733:Drivers/STM32U0xx_HAL_Driver/Src/stm32u0xx_hal_rcc_ex.c **** 
 734:Drivers/STM32U0xx_HAL_Driver/Src/stm32u0xx_hal_rcc_ex.c ****       case RCC_PERIPHCLK_I2C1:
 735:Drivers/STM32U0xx_HAL_Driver/Src/stm32u0xx_hal_rcc_ex.c ****       {
 736:Drivers/STM32U0xx_HAL_Driver/Src/stm32u0xx_hal_rcc_ex.c ****         /* Get the current I2C1 source */
 737:Drivers/STM32U0xx_HAL_Driver/Src/stm32u0xx_hal_rcc_ex.c ****         srcclk = __HAL_RCC_GET_I2C1_SOURCE();
 738:Drivers/STM32U0xx_HAL_Driver/Src/stm32u0xx_hal_rcc_ex.c **** 
 739:Drivers/STM32U0xx_HAL_Driver/Src/stm32u0xx_hal_rcc_ex.c ****         switch (srcclk)
 740:Drivers/STM32U0xx_HAL_Driver/Src/stm32u0xx_hal_rcc_ex.c ****         {
 741:Drivers/STM32U0xx_HAL_Driver/Src/stm32u0xx_hal_rcc_ex.c ****           case RCC_I2C1CLKSOURCE_PCLK1:
 742:Drivers/STM32U0xx_HAL_Driver/Src/stm32u0xx_hal_rcc_ex.c ****             frequency = HAL_RCC_GetPCLK1Freq();
 743:Drivers/STM32U0xx_HAL_Driver/Src/stm32u0xx_hal_rcc_ex.c ****             break;
 744:Drivers/STM32U0xx_HAL_Driver/Src/stm32u0xx_hal_rcc_ex.c ****           case RCC_I2C1CLKSOURCE_SYSCLK:
 745:Drivers/STM32U0xx_HAL_Driver/Src/stm32u0xx_hal_rcc_ex.c ****             frequency = HAL_RCC_GetSysClockFreq();
 746:Drivers/STM32U0xx_HAL_Driver/Src/stm32u0xx_hal_rcc_ex.c ****             break;
 747:Drivers/STM32U0xx_HAL_Driver/Src/stm32u0xx_hal_rcc_ex.c ****           case RCC_I2C1CLKSOURCE_HSI:
 748:Drivers/STM32U0xx_HAL_Driver/Src/stm32u0xx_hal_rcc_ex.c ****             if (HAL_IS_BIT_SET(RCC->CR, RCC_CR_HSIRDY))
 749:Drivers/STM32U0xx_HAL_Driver/Src/stm32u0xx_hal_rcc_ex.c ****             {
 750:Drivers/STM32U0xx_HAL_Driver/Src/stm32u0xx_hal_rcc_ex.c ****               frequency = HSI_VALUE;
 751:Drivers/STM32U0xx_HAL_Driver/Src/stm32u0xx_hal_rcc_ex.c ****             }
 752:Drivers/STM32U0xx_HAL_Driver/Src/stm32u0xx_hal_rcc_ex.c ****             break;
 753:Drivers/STM32U0xx_HAL_Driver/Src/stm32u0xx_hal_rcc_ex.c ****           default:
 754:Drivers/STM32U0xx_HAL_Driver/Src/stm32u0xx_hal_rcc_ex.c ****             /* No clock source, frequency default init at 0 */
 755:Drivers/STM32U0xx_HAL_Driver/Src/stm32u0xx_hal_rcc_ex.c ****             break;
 756:Drivers/STM32U0xx_HAL_Driver/Src/stm32u0xx_hal_rcc_ex.c ****         }
 757:Drivers/STM32U0xx_HAL_Driver/Src/stm32u0xx_hal_rcc_ex.c **** 
 758:Drivers/STM32U0xx_HAL_Driver/Src/stm32u0xx_hal_rcc_ex.c ****         break;
 759:Drivers/STM32U0xx_HAL_Driver/Src/stm32u0xx_hal_rcc_ex.c ****       }
 760:Drivers/STM32U0xx_HAL_Driver/Src/stm32u0xx_hal_rcc_ex.c **** 
ARM GAS  C:\Users\upo\AppData\Local\Temp\ccMLO1b7.s 			page 31


 761:Drivers/STM32U0xx_HAL_Driver/Src/stm32u0xx_hal_rcc_ex.c ****       case RCC_PERIPHCLK_I2C3:
 762:Drivers/STM32U0xx_HAL_Driver/Src/stm32u0xx_hal_rcc_ex.c ****       {
 763:Drivers/STM32U0xx_HAL_Driver/Src/stm32u0xx_hal_rcc_ex.c ****         /* Get the current I2C3 source */
 764:Drivers/STM32U0xx_HAL_Driver/Src/stm32u0xx_hal_rcc_ex.c ****         srcclk = __HAL_RCC_GET_I2C3_SOURCE();
 765:Drivers/STM32U0xx_HAL_Driver/Src/stm32u0xx_hal_rcc_ex.c **** 
 766:Drivers/STM32U0xx_HAL_Driver/Src/stm32u0xx_hal_rcc_ex.c ****         switch (srcclk)
 767:Drivers/STM32U0xx_HAL_Driver/Src/stm32u0xx_hal_rcc_ex.c ****         {
 768:Drivers/STM32U0xx_HAL_Driver/Src/stm32u0xx_hal_rcc_ex.c ****           case RCC_I2C3CLKSOURCE_PCLK1:
 769:Drivers/STM32U0xx_HAL_Driver/Src/stm32u0xx_hal_rcc_ex.c ****             frequency = HAL_RCC_GetPCLK1Freq();
 770:Drivers/STM32U0xx_HAL_Driver/Src/stm32u0xx_hal_rcc_ex.c ****             break;
 771:Drivers/STM32U0xx_HAL_Driver/Src/stm32u0xx_hal_rcc_ex.c ****           case RCC_I2C3CLKSOURCE_SYSCLK:
 772:Drivers/STM32U0xx_HAL_Driver/Src/stm32u0xx_hal_rcc_ex.c ****             frequency = HAL_RCC_GetSysClockFreq();
 773:Drivers/STM32U0xx_HAL_Driver/Src/stm32u0xx_hal_rcc_ex.c ****             break;
 774:Drivers/STM32U0xx_HAL_Driver/Src/stm32u0xx_hal_rcc_ex.c ****           case RCC_I2C3CLKSOURCE_HSI:
 775:Drivers/STM32U0xx_HAL_Driver/Src/stm32u0xx_hal_rcc_ex.c ****             if (HAL_IS_BIT_SET(RCC->CR, RCC_CR_HSIRDY))
 776:Drivers/STM32U0xx_HAL_Driver/Src/stm32u0xx_hal_rcc_ex.c ****             {
 777:Drivers/STM32U0xx_HAL_Driver/Src/stm32u0xx_hal_rcc_ex.c ****               frequency = HSI_VALUE;
 778:Drivers/STM32U0xx_HAL_Driver/Src/stm32u0xx_hal_rcc_ex.c ****             }
 779:Drivers/STM32U0xx_HAL_Driver/Src/stm32u0xx_hal_rcc_ex.c ****             break;
 780:Drivers/STM32U0xx_HAL_Driver/Src/stm32u0xx_hal_rcc_ex.c ****           default:
 781:Drivers/STM32U0xx_HAL_Driver/Src/stm32u0xx_hal_rcc_ex.c ****             /* No clock source, frequency default init at 0 */
 782:Drivers/STM32U0xx_HAL_Driver/Src/stm32u0xx_hal_rcc_ex.c ****             break;
 783:Drivers/STM32U0xx_HAL_Driver/Src/stm32u0xx_hal_rcc_ex.c ****         }
 784:Drivers/STM32U0xx_HAL_Driver/Src/stm32u0xx_hal_rcc_ex.c **** 
 785:Drivers/STM32U0xx_HAL_Driver/Src/stm32u0xx_hal_rcc_ex.c ****         break;
 786:Drivers/STM32U0xx_HAL_Driver/Src/stm32u0xx_hal_rcc_ex.c ****       }
 787:Drivers/STM32U0xx_HAL_Driver/Src/stm32u0xx_hal_rcc_ex.c **** 
 788:Drivers/STM32U0xx_HAL_Driver/Src/stm32u0xx_hal_rcc_ex.c ****       case RCC_PERIPHCLK_LPTIM1:
 789:Drivers/STM32U0xx_HAL_Driver/Src/stm32u0xx_hal_rcc_ex.c ****       {
 790:Drivers/STM32U0xx_HAL_Driver/Src/stm32u0xx_hal_rcc_ex.c ****         /* Get the current LPTIM1 source */
 791:Drivers/STM32U0xx_HAL_Driver/Src/stm32u0xx_hal_rcc_ex.c ****         srcclk = __HAL_RCC_GET_LPTIM1_SOURCE();
 792:Drivers/STM32U0xx_HAL_Driver/Src/stm32u0xx_hal_rcc_ex.c **** 
 793:Drivers/STM32U0xx_HAL_Driver/Src/stm32u0xx_hal_rcc_ex.c ****         switch (srcclk)
 794:Drivers/STM32U0xx_HAL_Driver/Src/stm32u0xx_hal_rcc_ex.c ****         {
 795:Drivers/STM32U0xx_HAL_Driver/Src/stm32u0xx_hal_rcc_ex.c ****           case RCC_LPTIM1CLKSOURCE_PCLK1:
 796:Drivers/STM32U0xx_HAL_Driver/Src/stm32u0xx_hal_rcc_ex.c ****             frequency = HAL_RCC_GetPCLK1Freq();
 797:Drivers/STM32U0xx_HAL_Driver/Src/stm32u0xx_hal_rcc_ex.c ****             break;
 798:Drivers/STM32U0xx_HAL_Driver/Src/stm32u0xx_hal_rcc_ex.c ****           case RCC_LPTIM1CLKSOURCE_LSI:
 799:Drivers/STM32U0xx_HAL_Driver/Src/stm32u0xx_hal_rcc_ex.c ****             if (HAL_IS_BIT_SET(RCC->CSR, RCC_CSR_LSIRDY))
 800:Drivers/STM32U0xx_HAL_Driver/Src/stm32u0xx_hal_rcc_ex.c ****             {
 801:Drivers/STM32U0xx_HAL_Driver/Src/stm32u0xx_hal_rcc_ex.c **** #if defined(RCC_CSR_LSIPREDIV)
 802:Drivers/STM32U0xx_HAL_Driver/Src/stm32u0xx_hal_rcc_ex.c ****               if (HAL_IS_BIT_SET(RCC->CSR, RCC_CSR_LSIPREDIV))
 803:Drivers/STM32U0xx_HAL_Driver/Src/stm32u0xx_hal_rcc_ex.c ****               {
 804:Drivers/STM32U0xx_HAL_Driver/Src/stm32u0xx_hal_rcc_ex.c ****                 frequency = LSI_VALUE / 128U;
 805:Drivers/STM32U0xx_HAL_Driver/Src/stm32u0xx_hal_rcc_ex.c ****               }
 806:Drivers/STM32U0xx_HAL_Driver/Src/stm32u0xx_hal_rcc_ex.c ****               else
 807:Drivers/STM32U0xx_HAL_Driver/Src/stm32u0xx_hal_rcc_ex.c **** #endif /* RCC_CSR_LSIPREDIV */
 808:Drivers/STM32U0xx_HAL_Driver/Src/stm32u0xx_hal_rcc_ex.c ****               {
 809:Drivers/STM32U0xx_HAL_Driver/Src/stm32u0xx_hal_rcc_ex.c ****                 frequency = LSI_VALUE;
 810:Drivers/STM32U0xx_HAL_Driver/Src/stm32u0xx_hal_rcc_ex.c ****               }
 811:Drivers/STM32U0xx_HAL_Driver/Src/stm32u0xx_hal_rcc_ex.c ****             }
 812:Drivers/STM32U0xx_HAL_Driver/Src/stm32u0xx_hal_rcc_ex.c ****             break;
 813:Drivers/STM32U0xx_HAL_Driver/Src/stm32u0xx_hal_rcc_ex.c ****           case RCC_LPTIM1CLKSOURCE_HSI:
 814:Drivers/STM32U0xx_HAL_Driver/Src/stm32u0xx_hal_rcc_ex.c ****             if (HAL_IS_BIT_SET(RCC->CR, RCC_CR_HSIRDY))
 815:Drivers/STM32U0xx_HAL_Driver/Src/stm32u0xx_hal_rcc_ex.c ****             {
 816:Drivers/STM32U0xx_HAL_Driver/Src/stm32u0xx_hal_rcc_ex.c ****               frequency = HSI_VALUE;
 817:Drivers/STM32U0xx_HAL_Driver/Src/stm32u0xx_hal_rcc_ex.c ****             }
ARM GAS  C:\Users\upo\AppData\Local\Temp\ccMLO1b7.s 			page 32


 818:Drivers/STM32U0xx_HAL_Driver/Src/stm32u0xx_hal_rcc_ex.c ****             break;
 819:Drivers/STM32U0xx_HAL_Driver/Src/stm32u0xx_hal_rcc_ex.c ****           case RCC_LPTIM1CLKSOURCE_LSE:
 820:Drivers/STM32U0xx_HAL_Driver/Src/stm32u0xx_hal_rcc_ex.c ****             if (HAL_IS_BIT_SET(RCC->BDCR, RCC_BDCR_LSERDY))
 821:Drivers/STM32U0xx_HAL_Driver/Src/stm32u0xx_hal_rcc_ex.c ****             {
 822:Drivers/STM32U0xx_HAL_Driver/Src/stm32u0xx_hal_rcc_ex.c ****               frequency = LSE_VALUE;
 823:Drivers/STM32U0xx_HAL_Driver/Src/stm32u0xx_hal_rcc_ex.c ****             }
 824:Drivers/STM32U0xx_HAL_Driver/Src/stm32u0xx_hal_rcc_ex.c ****             break;
 825:Drivers/STM32U0xx_HAL_Driver/Src/stm32u0xx_hal_rcc_ex.c ****           default:
 826:Drivers/STM32U0xx_HAL_Driver/Src/stm32u0xx_hal_rcc_ex.c ****             /* No clock source, frequency default init at 0 */
 827:Drivers/STM32U0xx_HAL_Driver/Src/stm32u0xx_hal_rcc_ex.c ****             break;
 828:Drivers/STM32U0xx_HAL_Driver/Src/stm32u0xx_hal_rcc_ex.c ****         }
 829:Drivers/STM32U0xx_HAL_Driver/Src/stm32u0xx_hal_rcc_ex.c **** 
 830:Drivers/STM32U0xx_HAL_Driver/Src/stm32u0xx_hal_rcc_ex.c ****         break;
 831:Drivers/STM32U0xx_HAL_Driver/Src/stm32u0xx_hal_rcc_ex.c ****       }
 832:Drivers/STM32U0xx_HAL_Driver/Src/stm32u0xx_hal_rcc_ex.c **** 
 833:Drivers/STM32U0xx_HAL_Driver/Src/stm32u0xx_hal_rcc_ex.c ****       case RCC_PERIPHCLK_LPTIM2:
 834:Drivers/STM32U0xx_HAL_Driver/Src/stm32u0xx_hal_rcc_ex.c ****       {
 835:Drivers/STM32U0xx_HAL_Driver/Src/stm32u0xx_hal_rcc_ex.c ****         /* Get the current LPTIM2 source */
 836:Drivers/STM32U0xx_HAL_Driver/Src/stm32u0xx_hal_rcc_ex.c ****         srcclk = __HAL_RCC_GET_LPTIM2_SOURCE();
 837:Drivers/STM32U0xx_HAL_Driver/Src/stm32u0xx_hal_rcc_ex.c **** 
 838:Drivers/STM32U0xx_HAL_Driver/Src/stm32u0xx_hal_rcc_ex.c ****         switch (srcclk)
 839:Drivers/STM32U0xx_HAL_Driver/Src/stm32u0xx_hal_rcc_ex.c ****         {
 840:Drivers/STM32U0xx_HAL_Driver/Src/stm32u0xx_hal_rcc_ex.c ****           case RCC_LPTIM2CLKSOURCE_PCLK1:
 841:Drivers/STM32U0xx_HAL_Driver/Src/stm32u0xx_hal_rcc_ex.c ****             frequency = HAL_RCC_GetPCLK1Freq();
 842:Drivers/STM32U0xx_HAL_Driver/Src/stm32u0xx_hal_rcc_ex.c ****             break;
 843:Drivers/STM32U0xx_HAL_Driver/Src/stm32u0xx_hal_rcc_ex.c ****           case RCC_LPTIM2CLKSOURCE_LSI:
 844:Drivers/STM32U0xx_HAL_Driver/Src/stm32u0xx_hal_rcc_ex.c ****             if (HAL_IS_BIT_SET(RCC->CSR, RCC_CSR_LSIRDY))
 845:Drivers/STM32U0xx_HAL_Driver/Src/stm32u0xx_hal_rcc_ex.c ****             {
 846:Drivers/STM32U0xx_HAL_Driver/Src/stm32u0xx_hal_rcc_ex.c **** #if defined(RCC_CSR_LSIPREDIV)
 847:Drivers/STM32U0xx_HAL_Driver/Src/stm32u0xx_hal_rcc_ex.c ****               if (HAL_IS_BIT_SET(RCC->CSR, RCC_CSR_LSIPREDIV))
 848:Drivers/STM32U0xx_HAL_Driver/Src/stm32u0xx_hal_rcc_ex.c ****               {
 849:Drivers/STM32U0xx_HAL_Driver/Src/stm32u0xx_hal_rcc_ex.c ****                 frequency = LSI_VALUE / 128U;
 850:Drivers/STM32U0xx_HAL_Driver/Src/stm32u0xx_hal_rcc_ex.c ****               }
 851:Drivers/STM32U0xx_HAL_Driver/Src/stm32u0xx_hal_rcc_ex.c ****               else
 852:Drivers/STM32U0xx_HAL_Driver/Src/stm32u0xx_hal_rcc_ex.c **** #endif /* RCC_CSR_LSIPREDIV */
 853:Drivers/STM32U0xx_HAL_Driver/Src/stm32u0xx_hal_rcc_ex.c ****               {
 854:Drivers/STM32U0xx_HAL_Driver/Src/stm32u0xx_hal_rcc_ex.c ****                 frequency = LSI_VALUE;
 855:Drivers/STM32U0xx_HAL_Driver/Src/stm32u0xx_hal_rcc_ex.c ****               }
 856:Drivers/STM32U0xx_HAL_Driver/Src/stm32u0xx_hal_rcc_ex.c ****             }
 857:Drivers/STM32U0xx_HAL_Driver/Src/stm32u0xx_hal_rcc_ex.c ****             break;
 858:Drivers/STM32U0xx_HAL_Driver/Src/stm32u0xx_hal_rcc_ex.c ****           case RCC_LPTIM2CLKSOURCE_HSI:
 859:Drivers/STM32U0xx_HAL_Driver/Src/stm32u0xx_hal_rcc_ex.c ****             if (HAL_IS_BIT_SET(RCC->CR, RCC_CR_HSIRDY))
 860:Drivers/STM32U0xx_HAL_Driver/Src/stm32u0xx_hal_rcc_ex.c ****             {
 861:Drivers/STM32U0xx_HAL_Driver/Src/stm32u0xx_hal_rcc_ex.c ****               frequency = HSI_VALUE;
 862:Drivers/STM32U0xx_HAL_Driver/Src/stm32u0xx_hal_rcc_ex.c ****             }
 863:Drivers/STM32U0xx_HAL_Driver/Src/stm32u0xx_hal_rcc_ex.c ****             break;
 864:Drivers/STM32U0xx_HAL_Driver/Src/stm32u0xx_hal_rcc_ex.c ****           case RCC_LPTIM2CLKSOURCE_LSE:
 865:Drivers/STM32U0xx_HAL_Driver/Src/stm32u0xx_hal_rcc_ex.c ****             if (HAL_IS_BIT_SET(RCC->BDCR, RCC_BDCR_LSERDY))
 866:Drivers/STM32U0xx_HAL_Driver/Src/stm32u0xx_hal_rcc_ex.c ****             {
 867:Drivers/STM32U0xx_HAL_Driver/Src/stm32u0xx_hal_rcc_ex.c ****               frequency = LSE_VALUE;
 868:Drivers/STM32U0xx_HAL_Driver/Src/stm32u0xx_hal_rcc_ex.c ****             }
 869:Drivers/STM32U0xx_HAL_Driver/Src/stm32u0xx_hal_rcc_ex.c ****             break;
 870:Drivers/STM32U0xx_HAL_Driver/Src/stm32u0xx_hal_rcc_ex.c ****           default:
 871:Drivers/STM32U0xx_HAL_Driver/Src/stm32u0xx_hal_rcc_ex.c ****             /* No clock source, frequency default init at 0 */
 872:Drivers/STM32U0xx_HAL_Driver/Src/stm32u0xx_hal_rcc_ex.c ****             break;
 873:Drivers/STM32U0xx_HAL_Driver/Src/stm32u0xx_hal_rcc_ex.c ****         }
 874:Drivers/STM32U0xx_HAL_Driver/Src/stm32u0xx_hal_rcc_ex.c ****         break;
ARM GAS  C:\Users\upo\AppData\Local\Temp\ccMLO1b7.s 			page 33


 875:Drivers/STM32U0xx_HAL_Driver/Src/stm32u0xx_hal_rcc_ex.c ****       }
 876:Drivers/STM32U0xx_HAL_Driver/Src/stm32u0xx_hal_rcc_ex.c **** #if defined (LPTIM3)
 877:Drivers/STM32U0xx_HAL_Driver/Src/stm32u0xx_hal_rcc_ex.c ****       case RCC_PERIPHCLK_LPTIM3:
 878:Drivers/STM32U0xx_HAL_Driver/Src/stm32u0xx_hal_rcc_ex.c ****       {
 879:Drivers/STM32U0xx_HAL_Driver/Src/stm32u0xx_hal_rcc_ex.c ****         /* Get the current LPTIM3 source */
 880:Drivers/STM32U0xx_HAL_Driver/Src/stm32u0xx_hal_rcc_ex.c ****         srcclk = __HAL_RCC_GET_LPTIM3_SOURCE();
 881:Drivers/STM32U0xx_HAL_Driver/Src/stm32u0xx_hal_rcc_ex.c **** 
 882:Drivers/STM32U0xx_HAL_Driver/Src/stm32u0xx_hal_rcc_ex.c ****         switch (srcclk)
 883:Drivers/STM32U0xx_HAL_Driver/Src/stm32u0xx_hal_rcc_ex.c ****         {
 884:Drivers/STM32U0xx_HAL_Driver/Src/stm32u0xx_hal_rcc_ex.c ****           case RCC_LPTIM3CLKSOURCE_PCLK1:
 885:Drivers/STM32U0xx_HAL_Driver/Src/stm32u0xx_hal_rcc_ex.c ****             frequency = HAL_RCC_GetPCLK1Freq();
 886:Drivers/STM32U0xx_HAL_Driver/Src/stm32u0xx_hal_rcc_ex.c ****             break;
 887:Drivers/STM32U0xx_HAL_Driver/Src/stm32u0xx_hal_rcc_ex.c ****           case RCC_LPTIM3CLKSOURCE_LSI:
 888:Drivers/STM32U0xx_HAL_Driver/Src/stm32u0xx_hal_rcc_ex.c ****             if (HAL_IS_BIT_SET(RCC->CSR, RCC_CSR_LSIRDY))
 889:Drivers/STM32U0xx_HAL_Driver/Src/stm32u0xx_hal_rcc_ex.c ****             {
 890:Drivers/STM32U0xx_HAL_Driver/Src/stm32u0xx_hal_rcc_ex.c **** #if defined(RCC_CSR_LSIPREDIV)
 891:Drivers/STM32U0xx_HAL_Driver/Src/stm32u0xx_hal_rcc_ex.c ****               if (HAL_IS_BIT_SET(RCC->CSR, RCC_CSR_LSIPREDIV))
 892:Drivers/STM32U0xx_HAL_Driver/Src/stm32u0xx_hal_rcc_ex.c ****               {
 893:Drivers/STM32U0xx_HAL_Driver/Src/stm32u0xx_hal_rcc_ex.c ****                 frequency = LSI_VALUE / 128U;
 894:Drivers/STM32U0xx_HAL_Driver/Src/stm32u0xx_hal_rcc_ex.c ****               }
 895:Drivers/STM32U0xx_HAL_Driver/Src/stm32u0xx_hal_rcc_ex.c ****               else
 896:Drivers/STM32U0xx_HAL_Driver/Src/stm32u0xx_hal_rcc_ex.c **** #endif /* RCC_CSR_LSIPREDIV */
 897:Drivers/STM32U0xx_HAL_Driver/Src/stm32u0xx_hal_rcc_ex.c ****               {
 898:Drivers/STM32U0xx_HAL_Driver/Src/stm32u0xx_hal_rcc_ex.c ****                 frequency = LSI_VALUE;
 899:Drivers/STM32U0xx_HAL_Driver/Src/stm32u0xx_hal_rcc_ex.c ****               }
 900:Drivers/STM32U0xx_HAL_Driver/Src/stm32u0xx_hal_rcc_ex.c ****             }
 901:Drivers/STM32U0xx_HAL_Driver/Src/stm32u0xx_hal_rcc_ex.c ****             break;
 902:Drivers/STM32U0xx_HAL_Driver/Src/stm32u0xx_hal_rcc_ex.c ****           case RCC_LPTIM3CLKSOURCE_HSI:
 903:Drivers/STM32U0xx_HAL_Driver/Src/stm32u0xx_hal_rcc_ex.c ****             if (HAL_IS_BIT_SET(RCC->CR, RCC_CR_HSIRDY))
 904:Drivers/STM32U0xx_HAL_Driver/Src/stm32u0xx_hal_rcc_ex.c ****             {
 905:Drivers/STM32U0xx_HAL_Driver/Src/stm32u0xx_hal_rcc_ex.c ****               frequency = HSI_VALUE;
 906:Drivers/STM32U0xx_HAL_Driver/Src/stm32u0xx_hal_rcc_ex.c ****             }
 907:Drivers/STM32U0xx_HAL_Driver/Src/stm32u0xx_hal_rcc_ex.c ****             break;
 908:Drivers/STM32U0xx_HAL_Driver/Src/stm32u0xx_hal_rcc_ex.c ****           case RCC_LPTIM3CLKSOURCE_LSE:
 909:Drivers/STM32U0xx_HAL_Driver/Src/stm32u0xx_hal_rcc_ex.c ****             if (HAL_IS_BIT_SET(RCC->BDCR, RCC_BDCR_LSERDY))
 910:Drivers/STM32U0xx_HAL_Driver/Src/stm32u0xx_hal_rcc_ex.c ****             {
 911:Drivers/STM32U0xx_HAL_Driver/Src/stm32u0xx_hal_rcc_ex.c ****               frequency = LSE_VALUE;
 912:Drivers/STM32U0xx_HAL_Driver/Src/stm32u0xx_hal_rcc_ex.c ****             }
 913:Drivers/STM32U0xx_HAL_Driver/Src/stm32u0xx_hal_rcc_ex.c ****             break;
 914:Drivers/STM32U0xx_HAL_Driver/Src/stm32u0xx_hal_rcc_ex.c ****           default:
 915:Drivers/STM32U0xx_HAL_Driver/Src/stm32u0xx_hal_rcc_ex.c ****             /* No clock source, frequency default init at 0 */
 916:Drivers/STM32U0xx_HAL_Driver/Src/stm32u0xx_hal_rcc_ex.c ****             break;
 917:Drivers/STM32U0xx_HAL_Driver/Src/stm32u0xx_hal_rcc_ex.c ****         }
 918:Drivers/STM32U0xx_HAL_Driver/Src/stm32u0xx_hal_rcc_ex.c **** 
 919:Drivers/STM32U0xx_HAL_Driver/Src/stm32u0xx_hal_rcc_ex.c ****         break;
 920:Drivers/STM32U0xx_HAL_Driver/Src/stm32u0xx_hal_rcc_ex.c ****       }
 921:Drivers/STM32U0xx_HAL_Driver/Src/stm32u0xx_hal_rcc_ex.c **** #endif /* LPTIM3 */
 922:Drivers/STM32U0xx_HAL_Driver/Src/stm32u0xx_hal_rcc_ex.c ****       case RCC_PERIPHCLK_TIM1:
 923:Drivers/STM32U0xx_HAL_Driver/Src/stm32u0xx_hal_rcc_ex.c ****       {
 924:Drivers/STM32U0xx_HAL_Driver/Src/stm32u0xx_hal_rcc_ex.c ****         /* Get the current TIM1 source */
 925:Drivers/STM32U0xx_HAL_Driver/Src/stm32u0xx_hal_rcc_ex.c ****         srcclk = __HAL_RCC_GET_TIM1_SOURCE();
 926:Drivers/STM32U0xx_HAL_Driver/Src/stm32u0xx_hal_rcc_ex.c ****         switch (srcclk)
 927:Drivers/STM32U0xx_HAL_Driver/Src/stm32u0xx_hal_rcc_ex.c ****         {
 928:Drivers/STM32U0xx_HAL_Driver/Src/stm32u0xx_hal_rcc_ex.c ****           case RCC_TIM1CLKSOURCE_PCLK1:
 929:Drivers/STM32U0xx_HAL_Driver/Src/stm32u0xx_hal_rcc_ex.c ****             if ((READ_BIT(RCC->CFGR, RCC_CFGR_PPRE) == RCC_HCLK_DIV1))
 930:Drivers/STM32U0xx_HAL_Driver/Src/stm32u0xx_hal_rcc_ex.c ****             {
 931:Drivers/STM32U0xx_HAL_Driver/Src/stm32u0xx_hal_rcc_ex.c ****               frequency = HAL_RCC_GetPCLK1Freq();
ARM GAS  C:\Users\upo\AppData\Local\Temp\ccMLO1b7.s 			page 34


 932:Drivers/STM32U0xx_HAL_Driver/Src/stm32u0xx_hal_rcc_ex.c ****             }
 933:Drivers/STM32U0xx_HAL_Driver/Src/stm32u0xx_hal_rcc_ex.c ****             else
 934:Drivers/STM32U0xx_HAL_Driver/Src/stm32u0xx_hal_rcc_ex.c ****             {
 935:Drivers/STM32U0xx_HAL_Driver/Src/stm32u0xx_hal_rcc_ex.c ****               frequency = (HAL_RCC_GetPCLK1Freq() * 2U);
 936:Drivers/STM32U0xx_HAL_Driver/Src/stm32u0xx_hal_rcc_ex.c ****             }
 937:Drivers/STM32U0xx_HAL_Driver/Src/stm32u0xx_hal_rcc_ex.c ****             break;
 938:Drivers/STM32U0xx_HAL_Driver/Src/stm32u0xx_hal_rcc_ex.c ****           case RCC_TIM1CLKSOURCE_PLLQ:
 939:Drivers/STM32U0xx_HAL_Driver/Src/stm32u0xx_hal_rcc_ex.c ****             HAL_RCCEx_GetPLLClockFreq(&pll_freq);
 940:Drivers/STM32U0xx_HAL_Driver/Src/stm32u0xx_hal_rcc_ex.c ****             frequency = pll_freq.PLL_Q_Frequency;
 941:Drivers/STM32U0xx_HAL_Driver/Src/stm32u0xx_hal_rcc_ex.c ****             break;
 942:Drivers/STM32U0xx_HAL_Driver/Src/stm32u0xx_hal_rcc_ex.c ****           default:
 943:Drivers/STM32U0xx_HAL_Driver/Src/stm32u0xx_hal_rcc_ex.c ****             /* No clock source, frequency default init at 0 */
 944:Drivers/STM32U0xx_HAL_Driver/Src/stm32u0xx_hal_rcc_ex.c ****             break;
 945:Drivers/STM32U0xx_HAL_Driver/Src/stm32u0xx_hal_rcc_ex.c ****         }
 946:Drivers/STM32U0xx_HAL_Driver/Src/stm32u0xx_hal_rcc_ex.c ****         break;
 947:Drivers/STM32U0xx_HAL_Driver/Src/stm32u0xx_hal_rcc_ex.c ****       }
 948:Drivers/STM32U0xx_HAL_Driver/Src/stm32u0xx_hal_rcc_ex.c ****       case RCC_PERIPHCLK_TIM15:
 949:Drivers/STM32U0xx_HAL_Driver/Src/stm32u0xx_hal_rcc_ex.c ****       {
 950:Drivers/STM32U0xx_HAL_Driver/Src/stm32u0xx_hal_rcc_ex.c ****         /* Get the current TIM15 source */
 951:Drivers/STM32U0xx_HAL_Driver/Src/stm32u0xx_hal_rcc_ex.c ****         srcclk = __HAL_RCC_GET_TIM15_SOURCE();
 952:Drivers/STM32U0xx_HAL_Driver/Src/stm32u0xx_hal_rcc_ex.c ****         switch (srcclk)
 953:Drivers/STM32U0xx_HAL_Driver/Src/stm32u0xx_hal_rcc_ex.c ****         {
 954:Drivers/STM32U0xx_HAL_Driver/Src/stm32u0xx_hal_rcc_ex.c ****           case RCC_TIM15CLKSOURCE_PCLK1:
 955:Drivers/STM32U0xx_HAL_Driver/Src/stm32u0xx_hal_rcc_ex.c ****             if ((READ_BIT(RCC->CFGR, RCC_CFGR_PPRE) == RCC_HCLK_DIV1))
 956:Drivers/STM32U0xx_HAL_Driver/Src/stm32u0xx_hal_rcc_ex.c ****             {
 957:Drivers/STM32U0xx_HAL_Driver/Src/stm32u0xx_hal_rcc_ex.c ****               frequency = HAL_RCC_GetPCLK1Freq();
 958:Drivers/STM32U0xx_HAL_Driver/Src/stm32u0xx_hal_rcc_ex.c ****             }
 959:Drivers/STM32U0xx_HAL_Driver/Src/stm32u0xx_hal_rcc_ex.c ****             else
 960:Drivers/STM32U0xx_HAL_Driver/Src/stm32u0xx_hal_rcc_ex.c ****             {
 961:Drivers/STM32U0xx_HAL_Driver/Src/stm32u0xx_hal_rcc_ex.c ****               frequency = (HAL_RCC_GetPCLK1Freq() * 2U);
 962:Drivers/STM32U0xx_HAL_Driver/Src/stm32u0xx_hal_rcc_ex.c ****             }
 963:Drivers/STM32U0xx_HAL_Driver/Src/stm32u0xx_hal_rcc_ex.c ****             break;
 964:Drivers/STM32U0xx_HAL_Driver/Src/stm32u0xx_hal_rcc_ex.c ****           case RCC_TIM15CLKSOURCE_PLLQ:
 965:Drivers/STM32U0xx_HAL_Driver/Src/stm32u0xx_hal_rcc_ex.c ****             HAL_RCCEx_GetPLLClockFreq(&pll_freq);
 966:Drivers/STM32U0xx_HAL_Driver/Src/stm32u0xx_hal_rcc_ex.c ****             frequency = pll_freq.PLL_Q_Frequency;
 967:Drivers/STM32U0xx_HAL_Driver/Src/stm32u0xx_hal_rcc_ex.c ****             break;
 968:Drivers/STM32U0xx_HAL_Driver/Src/stm32u0xx_hal_rcc_ex.c ****           default:
 969:Drivers/STM32U0xx_HAL_Driver/Src/stm32u0xx_hal_rcc_ex.c ****             /* No clock source, frequency default init at 0 */
 970:Drivers/STM32U0xx_HAL_Driver/Src/stm32u0xx_hal_rcc_ex.c ****             break;
 971:Drivers/STM32U0xx_HAL_Driver/Src/stm32u0xx_hal_rcc_ex.c ****         }
 972:Drivers/STM32U0xx_HAL_Driver/Src/stm32u0xx_hal_rcc_ex.c ****         break;
 973:Drivers/STM32U0xx_HAL_Driver/Src/stm32u0xx_hal_rcc_ex.c ****       }
 974:Drivers/STM32U0xx_HAL_Driver/Src/stm32u0xx_hal_rcc_ex.c **** #if defined (USB_DRD_FS)
 975:Drivers/STM32U0xx_HAL_Driver/Src/stm32u0xx_hal_rcc_ex.c ****       case RCC_PERIPHCLK_USB:
 976:Drivers/STM32U0xx_HAL_Driver/Src/stm32u0xx_hal_rcc_ex.c ****       {
 977:Drivers/STM32U0xx_HAL_Driver/Src/stm32u0xx_hal_rcc_ex.c ****         /* Get the current USB source */
 978:Drivers/STM32U0xx_HAL_Driver/Src/stm32u0xx_hal_rcc_ex.c ****         srcclk = __HAL_RCC_GET_USB_SOURCE();
 979:Drivers/STM32U0xx_HAL_Driver/Src/stm32u0xx_hal_rcc_ex.c ****         switch (srcclk)
 980:Drivers/STM32U0xx_HAL_Driver/Src/stm32u0xx_hal_rcc_ex.c ****         {
 981:Drivers/STM32U0xx_HAL_Driver/Src/stm32u0xx_hal_rcc_ex.c ****           case RCC_USBCLKSOURCE_HSI48:
 982:Drivers/STM32U0xx_HAL_Driver/Src/stm32u0xx_hal_rcc_ex.c ****             frequency = HSI48_VALUE;
 983:Drivers/STM32U0xx_HAL_Driver/Src/stm32u0xx_hal_rcc_ex.c ****             break;
 984:Drivers/STM32U0xx_HAL_Driver/Src/stm32u0xx_hal_rcc_ex.c ****           case RCC_USBCLKSOURCE_MSI:
 985:Drivers/STM32U0xx_HAL_Driver/Src/stm32u0xx_hal_rcc_ex.c ****             if (HAL_IS_BIT_SET(RCC->CR, RCC_CR_MSIRDY))
 986:Drivers/STM32U0xx_HAL_Driver/Src/stm32u0xx_hal_rcc_ex.c ****             {
 987:Drivers/STM32U0xx_HAL_Driver/Src/stm32u0xx_hal_rcc_ex.c ****               msirange = (__HAL_RCC_GET_MSI_RANGE() >> 4U);
 988:Drivers/STM32U0xx_HAL_Driver/Src/stm32u0xx_hal_rcc_ex.c ****               if (msirange > 11U)
ARM GAS  C:\Users\upo\AppData\Local\Temp\ccMLO1b7.s 			page 35


 989:Drivers/STM32U0xx_HAL_Driver/Src/stm32u0xx_hal_rcc_ex.c ****               {
 990:Drivers/STM32U0xx_HAL_Driver/Src/stm32u0xx_hal_rcc_ex.c ****                 msirange = 11U;
 991:Drivers/STM32U0xx_HAL_Driver/Src/stm32u0xx_hal_rcc_ex.c ****               }
 992:Drivers/STM32U0xx_HAL_Driver/Src/stm32u0xx_hal_rcc_ex.c ****               frequency = MSIRangeTable[msirange];
 993:Drivers/STM32U0xx_HAL_Driver/Src/stm32u0xx_hal_rcc_ex.c ****             }
 994:Drivers/STM32U0xx_HAL_Driver/Src/stm32u0xx_hal_rcc_ex.c ****             break;
 995:Drivers/STM32U0xx_HAL_Driver/Src/stm32u0xx_hal_rcc_ex.c ****           case RCC_USBCLKSOURCE_PLLQ:
 996:Drivers/STM32U0xx_HAL_Driver/Src/stm32u0xx_hal_rcc_ex.c ****             HAL_RCCEx_GetPLLClockFreq(&pll_freq);
 997:Drivers/STM32U0xx_HAL_Driver/Src/stm32u0xx_hal_rcc_ex.c ****             frequency = pll_freq.PLL_Q_Frequency;
 998:Drivers/STM32U0xx_HAL_Driver/Src/stm32u0xx_hal_rcc_ex.c ****             break;
 999:Drivers/STM32U0xx_HAL_Driver/Src/stm32u0xx_hal_rcc_ex.c ****           /* Clock not enabled for USB */
1000:Drivers/STM32U0xx_HAL_Driver/Src/stm32u0xx_hal_rcc_ex.c ****           case RCC_USBCLKSOURCE_NONE:
1001:Drivers/STM32U0xx_HAL_Driver/Src/stm32u0xx_hal_rcc_ex.c ****             frequency = 0U;
1002:Drivers/STM32U0xx_HAL_Driver/Src/stm32u0xx_hal_rcc_ex.c ****             break;
1003:Drivers/STM32U0xx_HAL_Driver/Src/stm32u0xx_hal_rcc_ex.c ****           default:
1004:Drivers/STM32U0xx_HAL_Driver/Src/stm32u0xx_hal_rcc_ex.c ****             /* No clock source, frequency default init at 0 */
1005:Drivers/STM32U0xx_HAL_Driver/Src/stm32u0xx_hal_rcc_ex.c ****             break;
1006:Drivers/STM32U0xx_HAL_Driver/Src/stm32u0xx_hal_rcc_ex.c ****         }
1007:Drivers/STM32U0xx_HAL_Driver/Src/stm32u0xx_hal_rcc_ex.c ****         break;
1008:Drivers/STM32U0xx_HAL_Driver/Src/stm32u0xx_hal_rcc_ex.c ****       }
1009:Drivers/STM32U0xx_HAL_Driver/Src/stm32u0xx_hal_rcc_ex.c **** #endif /* USB_DRD_FS */
1010:Drivers/STM32U0xx_HAL_Driver/Src/stm32u0xx_hal_rcc_ex.c ****       case RCC_PERIPHCLK_RNG:
1011:Drivers/STM32U0xx_HAL_Driver/Src/stm32u0xx_hal_rcc_ex.c ****       {
1012:Drivers/STM32U0xx_HAL_Driver/Src/stm32u0xx_hal_rcc_ex.c ****         /* Get the current RNG source */
1013:Drivers/STM32U0xx_HAL_Driver/Src/stm32u0xx_hal_rcc_ex.c ****         srcclk = __HAL_RCC_GET_RNG_SOURCE();
1014:Drivers/STM32U0xx_HAL_Driver/Src/stm32u0xx_hal_rcc_ex.c ****         switch (srcclk)
1015:Drivers/STM32U0xx_HAL_Driver/Src/stm32u0xx_hal_rcc_ex.c ****         {
1016:Drivers/STM32U0xx_HAL_Driver/Src/stm32u0xx_hal_rcc_ex.c ****           case RCC_RNGCLKSOURCE_HSI48:
1017:Drivers/STM32U0xx_HAL_Driver/Src/stm32u0xx_hal_rcc_ex.c ****             frequency = HSI48_VALUE;
1018:Drivers/STM32U0xx_HAL_Driver/Src/stm32u0xx_hal_rcc_ex.c ****             break;
1019:Drivers/STM32U0xx_HAL_Driver/Src/stm32u0xx_hal_rcc_ex.c ****           case RCC_RNGCLKSOURCE_MSI:
1020:Drivers/STM32U0xx_HAL_Driver/Src/stm32u0xx_hal_rcc_ex.c ****             if (HAL_IS_BIT_SET(RCC->CR, RCC_CR_MSIRDY))
1021:Drivers/STM32U0xx_HAL_Driver/Src/stm32u0xx_hal_rcc_ex.c ****             {
1022:Drivers/STM32U0xx_HAL_Driver/Src/stm32u0xx_hal_rcc_ex.c ****               msirange = (__HAL_RCC_GET_MSI_RANGE() >> 4U);
1023:Drivers/STM32U0xx_HAL_Driver/Src/stm32u0xx_hal_rcc_ex.c ****               if (msirange > 11U)
1024:Drivers/STM32U0xx_HAL_Driver/Src/stm32u0xx_hal_rcc_ex.c ****               {
1025:Drivers/STM32U0xx_HAL_Driver/Src/stm32u0xx_hal_rcc_ex.c ****                 msirange = 11U;
1026:Drivers/STM32U0xx_HAL_Driver/Src/stm32u0xx_hal_rcc_ex.c ****               }
1027:Drivers/STM32U0xx_HAL_Driver/Src/stm32u0xx_hal_rcc_ex.c ****               frequency = MSIRangeTable[msirange];
1028:Drivers/STM32U0xx_HAL_Driver/Src/stm32u0xx_hal_rcc_ex.c ****             }
1029:Drivers/STM32U0xx_HAL_Driver/Src/stm32u0xx_hal_rcc_ex.c ****             break;
1030:Drivers/STM32U0xx_HAL_Driver/Src/stm32u0xx_hal_rcc_ex.c ****           case RCC_RNGCLKSOURCE_PLLQ:
1031:Drivers/STM32U0xx_HAL_Driver/Src/stm32u0xx_hal_rcc_ex.c ****             HAL_RCCEx_GetPLLClockFreq(&pll_freq);
1032:Drivers/STM32U0xx_HAL_Driver/Src/stm32u0xx_hal_rcc_ex.c ****             frequency = pll_freq.PLL_Q_Frequency;
1033:Drivers/STM32U0xx_HAL_Driver/Src/stm32u0xx_hal_rcc_ex.c ****             break;
1034:Drivers/STM32U0xx_HAL_Driver/Src/stm32u0xx_hal_rcc_ex.c ****           /* Clock not enabled for RNG */
1035:Drivers/STM32U0xx_HAL_Driver/Src/stm32u0xx_hal_rcc_ex.c ****           case RCC_RNGCLKSOURCE_NONE:
1036:Drivers/STM32U0xx_HAL_Driver/Src/stm32u0xx_hal_rcc_ex.c ****             frequency = 0U;
1037:Drivers/STM32U0xx_HAL_Driver/Src/stm32u0xx_hal_rcc_ex.c ****             break;
1038:Drivers/STM32U0xx_HAL_Driver/Src/stm32u0xx_hal_rcc_ex.c ****           default:
1039:Drivers/STM32U0xx_HAL_Driver/Src/stm32u0xx_hal_rcc_ex.c ****             /* No clock source, frequency default init at 0 */
1040:Drivers/STM32U0xx_HAL_Driver/Src/stm32u0xx_hal_rcc_ex.c ****             break;
1041:Drivers/STM32U0xx_HAL_Driver/Src/stm32u0xx_hal_rcc_ex.c ****         }
1042:Drivers/STM32U0xx_HAL_Driver/Src/stm32u0xx_hal_rcc_ex.c ****         break;
1043:Drivers/STM32U0xx_HAL_Driver/Src/stm32u0xx_hal_rcc_ex.c ****       }
1044:Drivers/STM32U0xx_HAL_Driver/Src/stm32u0xx_hal_rcc_ex.c ****       default:
1045:Drivers/STM32U0xx_HAL_Driver/Src/stm32u0xx_hal_rcc_ex.c ****         break;
ARM GAS  C:\Users\upo\AppData\Local\Temp\ccMLO1b7.s 			page 36


1046:Drivers/STM32U0xx_HAL_Driver/Src/stm32u0xx_hal_rcc_ex.c ****     }
1047:Drivers/STM32U0xx_HAL_Driver/Src/stm32u0xx_hal_rcc_ex.c ****   }
1048:Drivers/STM32U0xx_HAL_Driver/Src/stm32u0xx_hal_rcc_ex.c ****   return (frequency);
1049:Drivers/STM32U0xx_HAL_Driver/Src/stm32u0xx_hal_rcc_ex.c **** }
1050:Drivers/STM32U0xx_HAL_Driver/Src/stm32u0xx_hal_rcc_ex.c **** 
1051:Drivers/STM32U0xx_HAL_Driver/Src/stm32u0xx_hal_rcc_ex.c **** /**
1052:Drivers/STM32U0xx_HAL_Driver/Src/stm32u0xx_hal_rcc_ex.c ****   * @brief  Returns the PLL clock frequencies :PLL_P_Frequency,PLL_R_Frequency and PLL_Q_Frequency
1053:Drivers/STM32U0xx_HAL_Driver/Src/stm32u0xx_hal_rcc_ex.c ****   * @note   The PLL clock frequencies computed by this function is not the real
1054:Drivers/STM32U0xx_HAL_Driver/Src/stm32u0xx_hal_rcc_ex.c ****   *         frequency in the chip. It is calculated based on the predefined
1055:Drivers/STM32U0xx_HAL_Driver/Src/stm32u0xx_hal_rcc_ex.c ****   *         constant and the selected clock source:
1056:Drivers/STM32U0xx_HAL_Driver/Src/stm32u0xx_hal_rcc_ex.c ****   * @note   The function returns values based on HSE_VALUE, HSI_VALUE or MSI Value multiplied/divid
1057:Drivers/STM32U0xx_HAL_Driver/Src/stm32u0xx_hal_rcc_ex.c ****   * @note   This function can be used by the user application to compute the
1058:Drivers/STM32U0xx_HAL_Driver/Src/stm32u0xx_hal_rcc_ex.c ****   *         baud-rate for the communication peripherals or configure other parameters.
1059:Drivers/STM32U0xx_HAL_Driver/Src/stm32u0xx_hal_rcc_ex.c ****   *
1060:Drivers/STM32U0xx_HAL_Driver/Src/stm32u0xx_hal_rcc_ex.c ****   * @note   Each time PLLCLK changes, this function must be called to update the
1061:Drivers/STM32U0xx_HAL_Driver/Src/stm32u0xx_hal_rcc_ex.c ****   *         right PLLCLK value. Otherwise, any configuration based on this function will be incorre
1062:Drivers/STM32U0xx_HAL_Driver/Src/stm32u0xx_hal_rcc_ex.c ****   * @param  PLL_Clocks structure.
1063:Drivers/STM32U0xx_HAL_Driver/Src/stm32u0xx_hal_rcc_ex.c ****   * @retval None
1064:Drivers/STM32U0xx_HAL_Driver/Src/stm32u0xx_hal_rcc_ex.c ****   */
1065:Drivers/STM32U0xx_HAL_Driver/Src/stm32u0xx_hal_rcc_ex.c **** 
1066:Drivers/STM32U0xx_HAL_Driver/Src/stm32u0xx_hal_rcc_ex.c **** void HAL_RCCEx_GetPLLClockFreq(PLL_ClocksTypeDef *PLL_Clocks)
1067:Drivers/STM32U0xx_HAL_Driver/Src/stm32u0xx_hal_rcc_ex.c **** {
 852              		.loc 1 1067 1 is_stmt 1 view -0
 853              		.cfi_startproc
 854              		@ args = 0, pretend = 0, frame = 0
 855              		@ frame_needed = 0, uses_anonymous_args = 0
1068:Drivers/STM32U0xx_HAL_Driver/Src/stm32u0xx_hal_rcc_ex.c ****   uint32_t pllsource;
 856              		.loc 1 1068 3 view .LVU256
1069:Drivers/STM32U0xx_HAL_Driver/Src/stm32u0xx_hal_rcc_ex.c ****   uint32_t pllm;
 857              		.loc 1 1069 3 view .LVU257
1070:Drivers/STM32U0xx_HAL_Driver/Src/stm32u0xx_hal_rcc_ex.c ****   uint32_t plln;
 858              		.loc 1 1070 3 view .LVU258
1071:Drivers/STM32U0xx_HAL_Driver/Src/stm32u0xx_hal_rcc_ex.c ****   uint32_t pllvco;
 859              		.loc 1 1071 3 view .LVU259
1072:Drivers/STM32U0xx_HAL_Driver/Src/stm32u0xx_hal_rcc_ex.c ****   uint32_t msirange;
 860              		.loc 1 1072 3 view .LVU260
1073:Drivers/STM32U0xx_HAL_Driver/Src/stm32u0xx_hal_rcc_ex.c **** 
1074:Drivers/STM32U0xx_HAL_Driver/Src/stm32u0xx_hal_rcc_ex.c ****   plln = ((RCC->PLLCFGR & RCC_PLLCFGR_PLLN) >> RCC_PLLCFGR_PLLN_Pos);
 861              		.loc 1 1074 3 view .LVU261
1075:Drivers/STM32U0xx_HAL_Driver/Src/stm32u0xx_hal_rcc_ex.c ****   pllsource = (RCC->PLLCFGR & RCC_PLLCFGR_PLLSRC);
 862              		.loc 1 1075 13 is_stmt 0 view .LVU262
 863 0000 0322     		movs	r2, #3
1074:Drivers/STM32U0xx_HAL_Driver/Src/stm32u0xx_hal_rcc_ex.c ****   pllsource = (RCC->PLLCFGR & RCC_PLLCFGR_PLLSRC);
 864              		.loc 1 1074 15 view .LVU263
 865 0002 2F4B     		ldr	r3, .L140
1067:Drivers/STM32U0xx_HAL_Driver/Src/stm32u0xx_hal_rcc_ex.c ****   uint32_t pllsource;
 866              		.loc 1 1067 1 view .LVU264
 867 0004 70B5     		push	{r4, r5, r6, lr}
 868              	.LCFI4:
 869              		.cfi_def_cfa_offset 16
 870              		.cfi_offset 4, -16
 871              		.cfi_offset 5, -12
 872              		.cfi_offset 6, -8
 873              		.cfi_offset 14, -4
1074:Drivers/STM32U0xx_HAL_Driver/Src/stm32u0xx_hal_rcc_ex.c ****   pllsource = (RCC->PLLCFGR & RCC_PLLCFGR_PLLSRC);
 874              		.loc 1 1074 15 view .LVU265
 875 0006 DD68     		ldr	r5, [r3, #12]
ARM GAS  C:\Users\upo\AppData\Local\Temp\ccMLO1b7.s 			page 37


 876              		.loc 1 1075 19 view .LVU266
 877 0008 D968     		ldr	r1, [r3, #12]
1067:Drivers/STM32U0xx_HAL_Driver/Src/stm32u0xx_hal_rcc_ex.c ****   uint32_t pllsource;
 878              		.loc 1 1067 1 view .LVU267
 879 000a 0400     		movs	r4, r0
 880              		.loc 1 1075 13 view .LVU268
 881 000c 0A40     		ands	r2, r1
1076:Drivers/STM32U0xx_HAL_Driver/Src/stm32u0xx_hal_rcc_ex.c ****   pllm = ((RCC->PLLCFGR & RCC_PLLCFGR_PLLM) >> RCC_PLLCFGR_PLLM_Pos) + 1U;
 882              		.loc 1 1076 15 view .LVU269
 883 000e D968     		ldr	r1, [r3, #12]
1077:Drivers/STM32U0xx_HAL_Driver/Src/stm32u0xx_hal_rcc_ex.c ****   msirange = (__HAL_RCC_GET_MSI_RANGE() >> 4U);
 884              		.loc 1 1077 15 view .LVU270
 885 0010 1868     		ldr	r0, [r3]
 886              	.LVL31:
1076:Drivers/STM32U0xx_HAL_Driver/Src/stm32u0xx_hal_rcc_ex.c ****   pllm = ((RCC->PLLCFGR & RCC_PLLCFGR_PLLM) >> RCC_PLLCFGR_PLLM_Pos) + 1U;
 887              		.loc 1 1076 45 view .LVU271
 888 0012 4906     		lsls	r1, r1, #25
1074:Drivers/STM32U0xx_HAL_Driver/Src/stm32u0xx_hal_rcc_ex.c ****   pllsource = (RCC->PLLCFGR & RCC_PLLCFGR_PLLSRC);
 889              		.loc 1 1074 8 view .LVU272
 890 0014 6D04     		lsls	r5, r5, #17
1076:Drivers/STM32U0xx_HAL_Driver/Src/stm32u0xx_hal_rcc_ex.c ****   pllm = ((RCC->PLLCFGR & RCC_PLLCFGR_PLLM) >> RCC_PLLCFGR_PLLM_Pos) + 1U;
 891              		.loc 1 1076 45 view .LVU273
 892 0016 490F     		lsrs	r1, r1, #29
1074:Drivers/STM32U0xx_HAL_Driver/Src/stm32u0xx_hal_rcc_ex.c ****   pllsource = (RCC->PLLCFGR & RCC_PLLCFGR_PLLSRC);
 893              		.loc 1 1074 8 view .LVU274
 894 0018 6D0E     		lsrs	r5, r5, #25
 895              	.LVL32:
1075:Drivers/STM32U0xx_HAL_Driver/Src/stm32u0xx_hal_rcc_ex.c ****   pllm = ((RCC->PLLCFGR & RCC_PLLCFGR_PLLM) >> RCC_PLLCFGR_PLLM_Pos) + 1U;
 896              		.loc 1 1075 3 is_stmt 1 view .LVU275
1076:Drivers/STM32U0xx_HAL_Driver/Src/stm32u0xx_hal_rcc_ex.c ****   msirange = (__HAL_RCC_GET_MSI_RANGE() >> 4U);
 897              		.loc 1 1076 3 view .LVU276
1076:Drivers/STM32U0xx_HAL_Driver/Src/stm32u0xx_hal_rcc_ex.c ****   msirange = (__HAL_RCC_GET_MSI_RANGE() >> 4U);
 898              		.loc 1 1076 8 is_stmt 0 view .LVU277
 899 001a 0131     		adds	r1, r1, #1
 900              	.LVL33:
 901              		.loc 1 1077 3 is_stmt 1 view .LVU278
 902              		.loc 1 1077 41 is_stmt 0 view .LVU279
 903 001c 0007     		lsls	r0, r0, #28
 904 001e 3FD5     		bpl	.L119
 905              		.loc 1 1077 15 discriminator 1 view .LVU280
 906 0020 1B68     		ldr	r3, [r3]
 907              		.loc 1 1077 41 discriminator 1 view .LVU281
 908 0022 1B06     		lsls	r3, r3, #24
 909 0024 1B0F     		lsrs	r3, r3, #28
 910              	.L120:
 911              	.LVL34:
1078:Drivers/STM32U0xx_HAL_Driver/Src/stm32u0xx_hal_rcc_ex.c ****   if (msirange > 11U)
 912              		.loc 1 1078 3 is_stmt 1 discriminator 4 view .LVU282
 913              		.loc 1 1078 6 is_stmt 0 discriminator 4 view .LVU283
 914 0026 0B2B     		cmp	r3, #11
 915 0028 00D9     		bls	.L121
 916 002a 0B23     		movs	r3, #11
 917              	.LVL35:
 918              	.L121:
1079:Drivers/STM32U0xx_HAL_Driver/Src/stm32u0xx_hal_rcc_ex.c ****   {
1080:Drivers/STM32U0xx_HAL_Driver/Src/stm32u0xx_hal_rcc_ex.c ****     msirange = 11U;
1081:Drivers/STM32U0xx_HAL_Driver/Src/stm32u0xx_hal_rcc_ex.c ****   }
ARM GAS  C:\Users\upo\AppData\Local\Temp\ccMLO1b7.s 			page 38


1082:Drivers/STM32U0xx_HAL_Driver/Src/stm32u0xx_hal_rcc_ex.c ****   switch (pllsource)
 919              		.loc 1 1082 3 is_stmt 1 discriminator 4 view .LVU284
 920 002c 022A     		cmp	r2, #2
 921 002e 3CD0     		beq	.L122
 922              		.loc 1 1082 3 is_stmt 0 view .LVU285
 923 0030 032A     		cmp	r2, #3
 924 0032 3FD0     		beq	.L123
1083:Drivers/STM32U0xx_HAL_Driver/Src/stm32u0xx_hal_rcc_ex.c ****   {
1084:Drivers/STM32U0xx_HAL_Driver/Src/stm32u0xx_hal_rcc_ex.c **** 
1085:Drivers/STM32U0xx_HAL_Driver/Src/stm32u0xx_hal_rcc_ex.c ****     case RCC_PLLSOURCE_HSI:  /* HSI used as PLL clock source */
1086:Drivers/STM32U0xx_HAL_Driver/Src/stm32u0xx_hal_rcc_ex.c ****       pllvco = (HSI_VALUE / pllm) * plln;
1087:Drivers/STM32U0xx_HAL_Driver/Src/stm32u0xx_hal_rcc_ex.c ****       break;
1088:Drivers/STM32U0xx_HAL_Driver/Src/stm32u0xx_hal_rcc_ex.c **** 
1089:Drivers/STM32U0xx_HAL_Driver/Src/stm32u0xx_hal_rcc_ex.c ****     case RCC_PLLSOURCE_MSI:  /* MSI used as PLL clock source */
1090:Drivers/STM32U0xx_HAL_Driver/Src/stm32u0xx_hal_rcc_ex.c ****       pllvco = ((MSIRangeTable[msirange] / pllm) * plln);
1091:Drivers/STM32U0xx_HAL_Driver/Src/stm32u0xx_hal_rcc_ex.c ****       break;
1092:Drivers/STM32U0xx_HAL_Driver/Src/stm32u0xx_hal_rcc_ex.c **** 
1093:Drivers/STM32U0xx_HAL_Driver/Src/stm32u0xx_hal_rcc_ex.c ****     case RCC_PLLSOURCE_HSE:  /* HSE used as PLL clock source */
1094:Drivers/STM32U0xx_HAL_Driver/Src/stm32u0xx_hal_rcc_ex.c ****       pllvco = (HSE_VALUE / pllm) * plln;
1095:Drivers/STM32U0xx_HAL_Driver/Src/stm32u0xx_hal_rcc_ex.c ****       break;
1096:Drivers/STM32U0xx_HAL_Driver/Src/stm32u0xx_hal_rcc_ex.c **** 
1097:Drivers/STM32U0xx_HAL_Driver/Src/stm32u0xx_hal_rcc_ex.c ****     default:
1098:Drivers/STM32U0xx_HAL_Driver/Src/stm32u0xx_hal_rcc_ex.c ****       pllvco = ((MSIRangeTable[msirange] / pllm) * plln);
 925              		.loc 1 1098 7 is_stmt 1 view .LVU286
 926              		.loc 1 1098 31 is_stmt 0 view .LVU287
 927 0034 234A     		ldr	r2, .L140+4
 928              	.LVL36:
 929              		.loc 1 1098 31 view .LVU288
 930 0036 9B00     		lsls	r3, r3, #2
 931              	.LVL37:
 932              		.loc 1 1098 42 view .LVU289
 933 0038 9858     		ldr	r0, [r3, r2]
 934 003a FFF7FEFF 		bl	__aeabi_uidiv
 935              	.LVL38:
 936              		.loc 1 1098 14 view .LVU290
 937 003e 4543     		muls	r5, r0
 938              	.LVL39:
1099:Drivers/STM32U0xx_HAL_Driver/Src/stm32u0xx_hal_rcc_ex.c ****       break;
 939              		.loc 1 1099 7 is_stmt 1 view .LVU291
 940              	.L126:
1100:Drivers/STM32U0xx_HAL_Driver/Src/stm32u0xx_hal_rcc_ex.c ****   }
1101:Drivers/STM32U0xx_HAL_Driver/Src/stm32u0xx_hal_rcc_ex.c **** 
1102:Drivers/STM32U0xx_HAL_Driver/Src/stm32u0xx_hal_rcc_ex.c ****   if (__HAL_RCC_GET_PLLCLKOUT_CONFIG(RCC_PLL_DIVP) != 0U)
 941              		.loc 1 1102 3 view .LVU292
 942              		.loc 1 1102 7 is_stmt 0 view .LVU293
 943 0040 1F49     		ldr	r1, .L140
 944 0042 8023     		movs	r3, #128
 945 0044 CA68     		ldr	r2, [r1, #12]
 946 0046 5B02     		lsls	r3, r3, #9
 947 0048 1000     		movs	r0, r2
 948 004a 1840     		ands	r0, r3
 949              		.loc 1 1102 6 view .LVU294
 950 004c 1A42     		tst	r2, r3
 951 004e 06D0     		beq	.L127
1103:Drivers/STM32U0xx_HAL_Driver/Src/stm32u0xx_hal_rcc_ex.c ****   {
1104:Drivers/STM32U0xx_HAL_Driver/Src/stm32u0xx_hal_rcc_ex.c ****     PLL_Clocks->PLL_P_Frequency = (uint32_t)(pllvco / (((RCC->PLLCFGR & RCC_PLLCFGR_PLLP) \
 952              		.loc 1 1104 5 is_stmt 1 view .LVU295
ARM GAS  C:\Users\upo\AppData\Local\Temp\ccMLO1b7.s 			page 39


 953              		.loc 1 1104 61 is_stmt 0 view .LVU296
 954 0050 C968     		ldr	r1, [r1, #12]
 955              		.loc 1 1104 35 view .LVU297
 956 0052 2800     		movs	r0, r5
1105:Drivers/STM32U0xx_HAL_Driver/Src/stm32u0xx_hal_rcc_ex.c ****                                                         >> RCC_PLLCFGR_PLLP_Pos) + 1U));
 957              		.loc 1 1105 57 view .LVU298
 958 0054 8902     		lsls	r1, r1, #10
 959 0056 C90E     		lsrs	r1, r1, #27
 960              		.loc 1 1105 82 view .LVU299
 961 0058 0131     		adds	r1, r1, #1
1104:Drivers/STM32U0xx_HAL_Driver/Src/stm32u0xx_hal_rcc_ex.c ****                                                         >> RCC_PLLCFGR_PLLP_Pos) + 1U));
 962              		.loc 1 1104 35 view .LVU300
 963 005a FFF7FEFF 		bl	__aeabi_uidiv
 964              	.LVL40:
 965              	.L127:
1106:Drivers/STM32U0xx_HAL_Driver/Src/stm32u0xx_hal_rcc_ex.c ****   }
1107:Drivers/STM32U0xx_HAL_Driver/Src/stm32u0xx_hal_rcc_ex.c ****   else
1108:Drivers/STM32U0xx_HAL_Driver/Src/stm32u0xx_hal_rcc_ex.c ****   {
1109:Drivers/STM32U0xx_HAL_Driver/Src/stm32u0xx_hal_rcc_ex.c ****     PLL_Clocks->PLL_P_Frequency = 0;
1110:Drivers/STM32U0xx_HAL_Driver/Src/stm32u0xx_hal_rcc_ex.c ****   }
1111:Drivers/STM32U0xx_HAL_Driver/Src/stm32u0xx_hal_rcc_ex.c **** 
1112:Drivers/STM32U0xx_HAL_Driver/Src/stm32u0xx_hal_rcc_ex.c ****   if (__HAL_RCC_GET_PLLCLKOUT_CONFIG(RCC_PLL_DIVQ) != 0U)
 966              		.loc 1 1112 7 view .LVU301
 967 005e 1849     		ldr	r1, .L140
 968 0060 2060     		str	r0, [r4]
 969              		.loc 1 1112 3 is_stmt 1 view .LVU302
 970              		.loc 1 1112 7 is_stmt 0 view .LVU303
 971 0062 CA68     		ldr	r2, [r1, #12]
 972 0064 8023     		movs	r3, #128
 973 0066 1000     		movs	r0, r2
 974 0068 5B04     		lsls	r3, r3, #17
 975 006a 1840     		ands	r0, r3
 976              		.loc 1 1112 6 view .LVU304
 977 006c 1A42     		tst	r2, r3
 978 006e 06D0     		beq	.L128
1113:Drivers/STM32U0xx_HAL_Driver/Src/stm32u0xx_hal_rcc_ex.c ****   {
1114:Drivers/STM32U0xx_HAL_Driver/Src/stm32u0xx_hal_rcc_ex.c ****     PLL_Clocks->PLL_Q_Frequency = (uint32_t)(pllvco / (((RCC->PLLCFGR & RCC_PLLCFGR_PLLQ) \
 979              		.loc 1 1114 5 is_stmt 1 view .LVU305
 980              		.loc 1 1114 61 is_stmt 0 view .LVU306
 981 0070 C968     		ldr	r1, [r1, #12]
 982              		.loc 1 1114 35 view .LVU307
 983 0072 2800     		movs	r0, r5
1115:Drivers/STM32U0xx_HAL_Driver/Src/stm32u0xx_hal_rcc_ex.c ****                                                         >> RCC_PLLCFGR_PLLQ_Pos) + 1U));
 984              		.loc 1 1115 57 view .LVU308
 985 0074 0901     		lsls	r1, r1, #4
 986 0076 490F     		lsrs	r1, r1, #29
 987              		.loc 1 1115 82 view .LVU309
 988 0078 0131     		adds	r1, r1, #1
1114:Drivers/STM32U0xx_HAL_Driver/Src/stm32u0xx_hal_rcc_ex.c ****                                                         >> RCC_PLLCFGR_PLLQ_Pos) + 1U));
 989              		.loc 1 1114 35 view .LVU310
 990 007a FFF7FEFF 		bl	__aeabi_uidiv
 991              	.LVL41:
 992              	.L128:
1116:Drivers/STM32U0xx_HAL_Driver/Src/stm32u0xx_hal_rcc_ex.c ****   }
1117:Drivers/STM32U0xx_HAL_Driver/Src/stm32u0xx_hal_rcc_ex.c ****   else
1118:Drivers/STM32U0xx_HAL_Driver/Src/stm32u0xx_hal_rcc_ex.c ****   {
1119:Drivers/STM32U0xx_HAL_Driver/Src/stm32u0xx_hal_rcc_ex.c ****     PLL_Clocks->PLL_Q_Frequency = 0;
ARM GAS  C:\Users\upo\AppData\Local\Temp\ccMLO1b7.s 			page 40


1120:Drivers/STM32U0xx_HAL_Driver/Src/stm32u0xx_hal_rcc_ex.c ****   }
1121:Drivers/STM32U0xx_HAL_Driver/Src/stm32u0xx_hal_rcc_ex.c **** 
1122:Drivers/STM32U0xx_HAL_Driver/Src/stm32u0xx_hal_rcc_ex.c ****   if (__HAL_RCC_GET_PLLCLKOUT_CONFIG(RCC_PLL_DIVR) != 0U)
 993              		.loc 1 1122 7 view .LVU311
 994 007e 1049     		ldr	r1, .L140
 995 0080 6060     		str	r0, [r4, #4]
 996              		.loc 1 1122 3 is_stmt 1 view .LVU312
 997              		.loc 1 1122 7 is_stmt 0 view .LVU313
 998 0082 CA68     		ldr	r2, [r1, #12]
 999 0084 8023     		movs	r3, #128
 1000 0086 1000     		movs	r0, r2
 1001 0088 5B05     		lsls	r3, r3, #21
 1002 008a 1840     		ands	r0, r3
 1003              		.loc 1 1122 6 view .LVU314
 1004 008c 1A42     		tst	r2, r3
 1005 008e 05D0     		beq	.L129
1123:Drivers/STM32U0xx_HAL_Driver/Src/stm32u0xx_hal_rcc_ex.c ****   {
1124:Drivers/STM32U0xx_HAL_Driver/Src/stm32u0xx_hal_rcc_ex.c ****     PLL_Clocks->PLL_R_Frequency = (uint32_t)(pllvco / (((RCC->PLLCFGR & RCC_PLLCFGR_PLLR) \
 1006              		.loc 1 1124 5 is_stmt 1 view .LVU315
 1007              		.loc 1 1124 61 is_stmt 0 view .LVU316
 1008 0090 C968     		ldr	r1, [r1, #12]
 1009              		.loc 1 1124 35 view .LVU317
 1010 0092 2800     		movs	r0, r5
1125:Drivers/STM32U0xx_HAL_Driver/Src/stm32u0xx_hal_rcc_ex.c ****                                                         >> RCC_PLLCFGR_PLLR_Pos) + 1U));
 1011              		.loc 1 1125 57 view .LVU318
 1012 0094 490F     		lsrs	r1, r1, #29
 1013              		.loc 1 1125 82 view .LVU319
 1014 0096 0131     		adds	r1, r1, #1
1124:Drivers/STM32U0xx_HAL_Driver/Src/stm32u0xx_hal_rcc_ex.c ****                                                         >> RCC_PLLCFGR_PLLR_Pos) + 1U));
 1015              		.loc 1 1124 35 view .LVU320
 1016 0098 FFF7FEFF 		bl	__aeabi_uidiv
 1017              	.LVL42:
 1018              	.L129:
1126:Drivers/STM32U0xx_HAL_Driver/Src/stm32u0xx_hal_rcc_ex.c ****   }
1127:Drivers/STM32U0xx_HAL_Driver/Src/stm32u0xx_hal_rcc_ex.c ****   else
1128:Drivers/STM32U0xx_HAL_Driver/Src/stm32u0xx_hal_rcc_ex.c ****   {
1129:Drivers/STM32U0xx_HAL_Driver/Src/stm32u0xx_hal_rcc_ex.c ****     PLL_Clocks->PLL_R_Frequency = 0;
1130:Drivers/STM32U0xx_HAL_Driver/Src/stm32u0xx_hal_rcc_ex.c ****   }
1131:Drivers/STM32U0xx_HAL_Driver/Src/stm32u0xx_hal_rcc_ex.c **** }
 1019              		.loc 1 1131 1 view .LVU321
 1020              		@ sp needed
 1021 009c A060     		str	r0, [r4, #8]
 1022              	.LVL43:
 1023              	.LVL44:
 1024              		.loc 1 1131 1 view .LVU322
 1025 009e 70BD     		pop	{r4, r5, r6, pc}
 1026              	.LVL45:
 1027              	.L119:
1077:Drivers/STM32U0xx_HAL_Driver/Src/stm32u0xx_hal_rcc_ex.c ****   if (msirange > 11U)
 1028              		.loc 1 1077 15 discriminator 2 view .LVU323
 1029 00a0 9420     		movs	r0, #148
 1030 00a2 1B58     		ldr	r3, [r3, r0]
1077:Drivers/STM32U0xx_HAL_Driver/Src/stm32u0xx_hal_rcc_ex.c ****   if (msirange > 11U)
 1031              		.loc 1 1077 41 discriminator 2 view .LVU324
 1032 00a4 1B05     		lsls	r3, r3, #20
 1033 00a6 1B0F     		lsrs	r3, r3, #28
 1034 00a8 BDE7     		b	.L120
ARM GAS  C:\Users\upo\AppData\Local\Temp\ccMLO1b7.s 			page 41


 1035              	.LVL46:
 1036              	.L122:
1086:Drivers/STM32U0xx_HAL_Driver/Src/stm32u0xx_hal_rcc_ex.c ****       break;
 1037              		.loc 1 1086 7 is_stmt 1 view .LVU325
1086:Drivers/STM32U0xx_HAL_Driver/Src/stm32u0xx_hal_rcc_ex.c ****       break;
 1038              		.loc 1 1086 27 is_stmt 0 view .LVU326
 1039 00aa 0748     		ldr	r0, .L140+8
 1040 00ac FFF7FEFF 		bl	__aeabi_uidiv
 1041              	.LVL47:
1086:Drivers/STM32U0xx_HAL_Driver/Src/stm32u0xx_hal_rcc_ex.c ****       break;
 1042              		.loc 1 1086 14 view .LVU327
 1043 00b0 4543     		muls	r5, r0
 1044              	.LVL48:
1087:Drivers/STM32U0xx_HAL_Driver/Src/stm32u0xx_hal_rcc_ex.c **** 
 1045              		.loc 1 1087 7 is_stmt 1 view .LVU328
 1046 00b2 C5E7     		b	.L126
 1047              	.LVL49:
 1048              	.L123:
1094:Drivers/STM32U0xx_HAL_Driver/Src/stm32u0xx_hal_rcc_ex.c ****       break;
 1049              		.loc 1 1094 7 view .LVU329
1094:Drivers/STM32U0xx_HAL_Driver/Src/stm32u0xx_hal_rcc_ex.c ****       break;
 1050              		.loc 1 1094 27 is_stmt 0 view .LVU330
 1051 00b4 0548     		ldr	r0, .L140+12
 1052 00b6 FFF7FEFF 		bl	__aeabi_uidiv
 1053              	.LVL50:
1094:Drivers/STM32U0xx_HAL_Driver/Src/stm32u0xx_hal_rcc_ex.c ****       break;
 1054              		.loc 1 1094 14 view .LVU331
 1055 00ba 4543     		muls	r5, r0
 1056              	.LVL51:
1095:Drivers/STM32U0xx_HAL_Driver/Src/stm32u0xx_hal_rcc_ex.c **** 
 1057              		.loc 1 1095 7 is_stmt 1 view .LVU332
 1058 00bc C0E7     		b	.L126
 1059              	.L141:
 1060 00be C046     		.align	2
 1061              	.L140:
 1062 00c0 00100240 		.word	1073876992
 1063 00c4 00000000 		.word	MSIRangeTable
 1064 00c8 0024F400 		.word	16000000
 1065 00cc 00093D00 		.word	4000000
 1066              		.cfi_endproc
 1067              	.LFE337:
 1069              		.section	.text.HAL_RCCEx_GetPeriphCLKFreq,"ax",%progbits
 1070              		.align	1
 1071              		.p2align 2,,3
 1072              		.global	HAL_RCCEx_GetPeriphCLKFreq
 1073              		.syntax unified
 1074              		.code	16
 1075              		.thumb_func
 1077              	HAL_RCCEx_GetPeriphCLKFreq:
 1078              	.LVL52:
 1079              	.LFB336:
 479:Drivers/STM32U0xx_HAL_Driver/Src/stm32u0xx_hal_rcc_ex.c ****   uint32_t frequency = 0U;
 1080              		.loc 1 479 1 view -0
 1081              		.cfi_startproc
 1082              		@ args = 0, pretend = 0, frame = 16
 1083              		@ frame_needed = 0, uses_anonymous_args = 0
 480:Drivers/STM32U0xx_HAL_Driver/Src/stm32u0xx_hal_rcc_ex.c ****   uint32_t srcclk;    /* no init needed */
ARM GAS  C:\Users\upo\AppData\Local\Temp\ccMLO1b7.s 			page 42


 1084              		.loc 1 480 3 view .LVU334
 481:Drivers/STM32U0xx_HAL_Driver/Src/stm32u0xx_hal_rcc_ex.c ****   PLL_ClocksTypeDef pll_freq;
 1085              		.loc 1 481 3 view .LVU335
 482:Drivers/STM32U0xx_HAL_Driver/Src/stm32u0xx_hal_rcc_ex.c ****   uint32_t msirange;
 1086              		.loc 1 482 3 view .LVU336
 483:Drivers/STM32U0xx_HAL_Driver/Src/stm32u0xx_hal_rcc_ex.c ****   /* Check the parameters */
 1087              		.loc 1 483 3 view .LVU337
 485:Drivers/STM32U0xx_HAL_Driver/Src/stm32u0xx_hal_rcc_ex.c **** 
 1088              		.loc 1 485 3 view .LVU338
 487:Drivers/STM32U0xx_HAL_Driver/Src/stm32u0xx_hal_rcc_ex.c ****   {
 1089              		.loc 1 487 3 view .LVU339
 487:Drivers/STM32U0xx_HAL_Driver/Src/stm32u0xx_hal_rcc_ex.c ****   {
 1090              		.loc 1 487 6 is_stmt 0 view .LVU340
 1091 0000 8023     		movs	r3, #128
 479:Drivers/STM32U0xx_HAL_Driver/Src/stm32u0xx_hal_rcc_ex.c ****   uint32_t frequency = 0U;
 1092              		.loc 1 479 1 view .LVU341
 1093 0002 10B5     		push	{r4, lr}
 1094              	.LCFI5:
 1095              		.cfi_def_cfa_offset 8
 1096              		.cfi_offset 4, -8
 1097              		.cfi_offset 14, -4
 487:Drivers/STM32U0xx_HAL_Driver/Src/stm32u0xx_hal_rcc_ex.c ****   {
 1098              		.loc 1 487 6 view .LVU342
 1099 0004 1B02     		lsls	r3, r3, #8
 479:Drivers/STM32U0xx_HAL_Driver/Src/stm32u0xx_hal_rcc_ex.c ****   uint32_t frequency = 0U;
 1100              		.loc 1 479 1 view .LVU343
 1101 0006 84B0     		sub	sp, sp, #16
 1102              	.LCFI6:
 1103              		.cfi_def_cfa_offset 24
 487:Drivers/STM32U0xx_HAL_Driver/Src/stm32u0xx_hal_rcc_ex.c ****   {
 1104              		.loc 1 487 6 view .LVU344
 1105 0008 9842     		cmp	r0, r3
 1106 000a 00D1     		bne	.LCB1009
 1107 000c 9EE0     		b	.L358	@long jump
 1108              	.LCB1009:
 532:Drivers/STM32U0xx_HAL_Driver/Src/stm32u0xx_hal_rcc_ex.c ****     {
 1109              		.loc 1 532 5 is_stmt 1 view .LVU345
 1110 000e 8023     		movs	r3, #128
 1111 0010 5B00     		lsls	r3, r3, #1
 1112 0012 9842     		cmp	r0, r3
 1113 0014 00D1     		bne	.LCB1014
 1114 0016 AFE1     		b	.L147	@long jump
 1115              	.LCB1014:
 1116 0018 09D8     		bhi	.L148
 1117 001a 2028     		cmp	r0, #32
 1118 001c 36D8     		bhi	.L149
 1119 001e 0028     		cmp	r0, #0
 1120 0020 18D0     		beq	.L213
 1121 0022 2028     		cmp	r0, #32
 1122 0024 16D8     		bhi	.L213
 1123 0026 B44B     		ldr	r3, .L362
 1124 0028 8000     		lsls	r0, r0, #2
 1125              	.LVL53:
 532:Drivers/STM32U0xx_HAL_Driver/Src/stm32u0xx_hal_rcc_ex.c ****     {
 1126              		.loc 1 532 5 is_stmt 0 view .LVU346
 1127 002a 1B58     		ldr	r3, [r3, r0]
 1128 002c 9F46     		mov	pc, r3
ARM GAS  C:\Users\upo\AppData\Local\Temp\ccMLO1b7.s 			page 43


 1129              		.section	.rodata.HAL_RCCEx_GetPeriphCLKFreq,"a",%progbits
 1130              		.align	2
 1131              	.L151:
 1132 0000 54000000 		.word	.L213
 1133 0004 1A020000 		.word	.L156
 1134 0008 64020000 		.word	.L155
 1135 000c 54000000 		.word	.L213
 1136 0010 7E020000 		.word	.L154
 1137 0014 54000000 		.word	.L213
 1138 0018 54000000 		.word	.L213
 1139 001c 54000000 		.word	.L213
 1140 0020 98020000 		.word	.L153
 1141 0024 54000000 		.word	.L213
 1142 0028 54000000 		.word	.L213
 1143 002c 54000000 		.word	.L213
 1144 0030 54000000 		.word	.L213
 1145 0034 54000000 		.word	.L213
 1146 0038 54000000 		.word	.L213
 1147 003c 54000000 		.word	.L213
 1148 0040 BE020000 		.word	.L152
 1149 0044 54000000 		.word	.L213
 1150 0048 54000000 		.word	.L213
 1151 004c 54000000 		.word	.L213
 1152 0050 54000000 		.word	.L213
 1153 0054 54000000 		.word	.L213
 1154 0058 54000000 		.word	.L213
 1155 005c 54000000 		.word	.L213
 1156 0060 54000000 		.word	.L213
 1157 0064 54000000 		.word	.L213
 1158 0068 54000000 		.word	.L213
 1159 006c 54000000 		.word	.L213
 1160 0070 54000000 		.word	.L213
 1161 0074 54000000 		.word	.L213
 1162 0078 54000000 		.word	.L213
 1163 007c 54000000 		.word	.L213
 1164 0080 34020000 		.word	.L150
 1165              		.section	.text.HAL_RCCEx_GetPeriphCLKFreq
 1166              	.LVL54:
 1167              	.L148:
 532:Drivers/STM32U0xx_HAL_Driver/Src/stm32u0xx_hal_rcc_ex.c ****     {
 1168              		.loc 1 532 5 view .LVU347
 1169 002e 8023     		movs	r3, #128
 1170 0030 5B01     		lsls	r3, r3, #5
 1171 0032 9842     		cmp	r0, r3
 1172 0034 00D1     		bne	.LCB1039
 1173 0036 8BE1     		b	.L159	@long jump
 1174              	.LCB1039:
 1175 0038 0FD9     		bls	.L359
 1176 003a 8023     		movs	r3, #128
 1177 003c DB01     		lsls	r3, r3, #7
 1178 003e 9842     		cmp	r0, r3
 1179 0040 00D1     		bne	.LCB1045
 1180 0042 CAE0     		b	.L164	@long jump
 1181              	.LCB1045:
 1182 0044 3CD9     		bls	.L360
 1183 0046 AD4B     		ldr	r3, .L362+4
 1184 0048 9C46     		mov	ip, r3
ARM GAS  C:\Users\upo\AppData\Local\Temp\ccMLO1b7.s 			page 44


 1185 004a AD4B     		ldr	r3, .L362+8
 1186 004c 6044     		add	r0, r0, ip
 1187              	.LVL55:
 532:Drivers/STM32U0xx_HAL_Driver/Src/stm32u0xx_hal_rcc_ex.c ****     {
 1188              		.loc 1 532 5 view .LVU348
 1189 004e 1842     		tst	r0, r3
 1190 0050 00D1     		bne	.LCB1055
 1191 0052 A3E0     		b	.L325	@long jump
 1192              	.LCB1055:
 1193              	.LVL56:
 1194              	.L213:
 532:Drivers/STM32U0xx_HAL_Driver/Src/stm32u0xx_hal_rcc_ex.c ****     {
 1195              		.loc 1 532 5 view .LVU349
 1196 0054 0020     		movs	r0, #0
 1197              	.LVL57:
 1198              	.L142:
1049:Drivers/STM32U0xx_HAL_Driver/Src/stm32u0xx_hal_rcc_ex.c **** 
 1199              		.loc 1 1049 1 view .LVU350
 1200 0056 04B0     		add	sp, sp, #16
 1201              		@ sp needed
 1202 0058 10BD     		pop	{r4, pc}
 1203              	.LVL58:
 1204              	.L359:
 532:Drivers/STM32U0xx_HAL_Driver/Src/stm32u0xx_hal_rcc_ex.c ****     {
 1205              		.loc 1 532 5 view .LVU351
 1206 005a 8023     		movs	r3, #128
 1207 005c DB00     		lsls	r3, r3, #3
 1208 005e 9842     		cmp	r0, r3
 1209 0060 00D1     		bne	.LCB1077
 1210 0062 CFE0     		b	.L161	@long jump
 1211              	.LCB1077:
 1212 0064 8022     		movs	r2, #128
 1213 0066 1201     		lsls	r2, r2, #4
 1214 0068 9042     		cmp	r0, r2
 1215 006a 55D1     		bne	.L361
 951:Drivers/STM32U0xx_HAL_Driver/Src/stm32u0xx_hal_rcc_ex.c ****         switch (srcclk)
 1216              		.loc 1 951 9 is_stmt 1 view .LVU352
 951:Drivers/STM32U0xx_HAL_Driver/Src/stm32u0xx_hal_rcc_ex.c ****         switch (srcclk)
 1217              		.loc 1 951 18 is_stmt 0 view .LVU353
 1218 006c 8823     		movs	r3, #136
 1219 006e A54A     		ldr	r2, .L362+12
 1220 0070 D358     		ldr	r3, [r2, r3]
 1221              	.LVL59:
 952:Drivers/STM32U0xx_HAL_Driver/Src/stm32u0xx_hal_rcc_ex.c ****         {
 1222              		.loc 1 952 9 is_stmt 1 view .LVU354
 1223 0072 9B01     		lsls	r3, r3, #6
 1224 0074 00D5     		bpl	.LCB1091
 1225 0076 CBE0     		b	.L200	@long jump
 1226              	.LCB1091:
 1227              	.LVL60:
 1228              	.L322:
 929:Drivers/STM32U0xx_HAL_Driver/Src/stm32u0xx_hal_rcc_ex.c ****             {
 1229              		.loc 1 929 13 view .LVU355
 929:Drivers/STM32U0xx_HAL_Driver/Src/stm32u0xx_hal_rcc_ex.c ****             {
 1230              		.loc 1 929 18 is_stmt 0 view .LVU356
 1231 0078 E023     		movs	r3, #224
 1232 007a 9268     		ldr	r2, [r2, #8]
ARM GAS  C:\Users\upo\AppData\Local\Temp\ccMLO1b7.s 			page 45


 1233 007c DB01     		lsls	r3, r3, #7
 929:Drivers/STM32U0xx_HAL_Driver/Src/stm32u0xx_hal_rcc_ex.c ****             {
 1234              		.loc 1 929 16 view .LVU357
 1235 007e 1A42     		tst	r2, r3
 1236 0080 00D1     		bne	.LCB1101
 1237 0082 8BE0     		b	.L325	@long jump
 1238              	.LCB1101:
 935:Drivers/STM32U0xx_HAL_Driver/Src/stm32u0xx_hal_rcc_ex.c ****             }
 1239              		.loc 1 935 15 is_stmt 1 view .LVU358
 935:Drivers/STM32U0xx_HAL_Driver/Src/stm32u0xx_hal_rcc_ex.c ****             }
 1240              		.loc 1 935 28 is_stmt 0 view .LVU359
 1241 0084 FFF7FEFF 		bl	HAL_RCC_GetPCLK1Freq
 1242              	.LVL61:
 935:Drivers/STM32U0xx_HAL_Driver/Src/stm32u0xx_hal_rcc_ex.c ****             }
 1243              		.loc 1 935 25 view .LVU360
 1244 0088 4000     		lsls	r0, r0, #1
 1245              	.LVL62:
 935:Drivers/STM32U0xx_HAL_Driver/Src/stm32u0xx_hal_rcc_ex.c ****             }
 1246              		.loc 1 935 25 view .LVU361
 1247 008a E4E7     		b	.L142
 1248              	.LVL63:
 1249              	.L149:
 532:Drivers/STM32U0xx_HAL_Driver/Src/stm32u0xx_hal_rcc_ex.c ****     {
 1250              		.loc 1 532 5 view .LVU362
 1251 008c 4028     		cmp	r0, #64
 1252 008e 74D0     		beq	.L157
 1253 0090 8028     		cmp	r0, #128
 1254 0092 DFD1     		bne	.L213
 791:Drivers/STM32U0xx_HAL_Driver/Src/stm32u0xx_hal_rcc_ex.c **** 
 1255              		.loc 1 791 9 is_stmt 1 view .LVU363
 791:Drivers/STM32U0xx_HAL_Driver/Src/stm32u0xx_hal_rcc_ex.c **** 
 1256              		.loc 1 791 18 is_stmt 0 view .LVU364
 1257 0094 8823     		movs	r3, #136
 791:Drivers/STM32U0xx_HAL_Driver/Src/stm32u0xx_hal_rcc_ex.c **** 
 1258              		.loc 1 791 16 view .LVU365
 1259 0096 C022     		movs	r2, #192
 1260 0098 8021     		movs	r1, #128
 791:Drivers/STM32U0xx_HAL_Driver/Src/stm32u0xx_hal_rcc_ex.c **** 
 1261              		.loc 1 791 18 view .LVU366
 1262 009a 9A48     		ldr	r0, .L362+12
 1263              	.LVL64:
 791:Drivers/STM32U0xx_HAL_Driver/Src/stm32u0xx_hal_rcc_ex.c **** 
 1264              		.loc 1 791 16 view .LVU367
 1265 009c 1203     		lsls	r2, r2, #12
 791:Drivers/STM32U0xx_HAL_Driver/Src/stm32u0xx_hal_rcc_ex.c **** 
 1266              		.loc 1 791 18 view .LVU368
 1267 009e C358     		ldr	r3, [r0, r3]
 1268 00a0 0903     		lsls	r1, r1, #12
 791:Drivers/STM32U0xx_HAL_Driver/Src/stm32u0xx_hal_rcc_ex.c **** 
 1269              		.loc 1 791 16 view .LVU369
 1270 00a2 1340     		ands	r3, r2
 1271              	.LVL65:
 793:Drivers/STM32U0xx_HAL_Driver/Src/stm32u0xx_hal_rcc_ex.c ****         {
 1272              		.loc 1 793 9 is_stmt 1 view .LVU370
 1273 00a4 8B42     		cmp	r3, r1
 1274 00a6 00D1     		bne	.LCB1131
 1275 00a8 1CE1     		b	.L187	@long jump
ARM GAS  C:\Users\upo\AppData\Local\Temp\ccMLO1b7.s 			page 46


 1276              	.LCB1131:
 1277 00aa 00D9     		bls	.LCB1133
 1278 00ac 34E1     		b	.L188	@long jump
 1279              	.LCB1133:
 1280 00ae 002B     		cmp	r3, #0
 1281 00b0 74D0     		beq	.L325
 1282 00b2 8022     		movs	r2, #128
 1283 00b4 D202     		lsls	r2, r2, #11
 1284 00b6 9342     		cmp	r3, r2
 1285 00b8 CCD1     		bne	.L213
 888:Drivers/STM32U0xx_HAL_Driver/Src/stm32u0xx_hal_rcc_ex.c ****             {
 1286              		.loc 1 888 13 view .LVU371
 888:Drivers/STM32U0xx_HAL_Driver/Src/stm32u0xx_hal_rcc_ex.c ****             {
 1287              		.loc 1 888 17 is_stmt 0 view .LVU372
 1288 00ba 924C     		ldr	r4, .L362+12
 1289              	.LVL66:
 1290              	.L331:
 888:Drivers/STM32U0xx_HAL_Driver/Src/stm32u0xx_hal_rcc_ex.c ****             {
 1291              		.loc 1 888 17 view .LVU373
 1292 00bc 9421     		movs	r1, #148
 1293 00be 7BE0     		b	.L334
 1294              	.LVL67:
 1295              	.L360:
 532:Drivers/STM32U0xx_HAL_Driver/Src/stm32u0xx_hal_rcc_ex.c ****     {
 1296              		.loc 1 532 5 view .LVU374
 1297 00c0 8023     		movs	r3, #128
 1298 00c2 9B01     		lsls	r3, r3, #6
 1299 00c4 9842     		cmp	r0, r3
 1300 00c6 C5D1     		bne	.L213
1013:Drivers/STM32U0xx_HAL_Driver/Src/stm32u0xx_hal_rcc_ex.c ****         switch (srcclk)
 1301              		.loc 1 1013 9 is_stmt 1 view .LVU375
1013:Drivers/STM32U0xx_HAL_Driver/Src/stm32u0xx_hal_rcc_ex.c ****         switch (srcclk)
 1302              		.loc 1 1013 18 is_stmt 0 view .LVU376
 1303 00c8 8823     		movs	r3, #136
 1304 00ca 8E4A     		ldr	r2, .L362+12
 1305 00cc 8021     		movs	r1, #128
 1306 00ce D358     		ldr	r3, [r2, r3]
1013:Drivers/STM32U0xx_HAL_Driver/Src/stm32u0xx_hal_rcc_ex.c ****         switch (srcclk)
 1307              		.loc 1 1013 16 view .LVU377
 1308 00d0 C022     		movs	r2, #192
 1309 00d2 1205     		lsls	r2, r2, #20
 1310 00d4 1340     		ands	r3, r2
 1311              	.LVL68:
1014:Drivers/STM32U0xx_HAL_Driver/Src/stm32u0xx_hal_rcc_ex.c ****         {
 1312              		.loc 1 1014 9 is_stmt 1 view .LVU378
 1313 00d6 0905     		lsls	r1, r1, #20
 1314 00d8 8B42     		cmp	r3, r1
 1315 00da 00D1     		bne	.LCB1167
 1316 00dc 98E0     		b	.L200	@long jump
 1317              	.LCB1167:
 1318 00de 9342     		cmp	r3, r2
 1319 00e0 00D1     		bne	.LCB1169
 1320 00e2 67E1     		b	.L219	@long jump
 1321              	.LCB1169:
 1322 00e4 8022     		movs	r2, #128
 1323 00e6 0020     		movs	r0, #0
 1324              	.LVL69:
ARM GAS  C:\Users\upo\AppData\Local\Temp\ccMLO1b7.s 			page 47


1014:Drivers/STM32U0xx_HAL_Driver/Src/stm32u0xx_hal_rcc_ex.c ****         {
 1325              		.loc 1 1014 9 is_stmt 0 view .LVU379
 1326 00e8 D204     		lsls	r2, r2, #19
 1327 00ea 9342     		cmp	r3, r2
 1328 00ec B3D1     		bne	.L142
1020:Drivers/STM32U0xx_HAL_Driver/Src/stm32u0xx_hal_rcc_ex.c ****             {
 1329              		.loc 1 1020 13 is_stmt 1 view .LVU380
1020:Drivers/STM32U0xx_HAL_Driver/Src/stm32u0xx_hal_rcc_ex.c ****             {
 1330              		.loc 1 1020 17 is_stmt 0 view .LVU381
 1331 00ee 8549     		ldr	r1, .L362+12
 1332              	.L355:
1020:Drivers/STM32U0xx_HAL_Driver/Src/stm32u0xx_hal_rcc_ex.c ****             {
 1333              		.loc 1 1020 17 view .LVU382
 1334 00f0 0222     		movs	r2, #2
 1335 00f2 1000     		movs	r0, r2
 1336 00f4 0B68     		ldr	r3, [r1]
 1337              	.LVL70:
1020:Drivers/STM32U0xx_HAL_Driver/Src/stm32u0xx_hal_rcc_ex.c ****             {
 1338              		.loc 1 1020 17 view .LVU383
 1339 00f6 1840     		ands	r0, r3
1020:Drivers/STM32U0xx_HAL_Driver/Src/stm32u0xx_hal_rcc_ex.c ****             {
 1340              		.loc 1 1020 16 view .LVU384
 1341 00f8 1A42     		tst	r2, r3
 1342 00fa ACD0     		beq	.L142
1022:Drivers/STM32U0xx_HAL_Driver/Src/stm32u0xx_hal_rcc_ex.c ****               if (msirange > 11U)
 1343              		.loc 1 1022 15 is_stmt 1 view .LVU385
1022:Drivers/STM32U0xx_HAL_Driver/Src/stm32u0xx_hal_rcc_ex.c ****               if (msirange > 11U)
 1344              		.loc 1 1022 27 is_stmt 0 view .LVU386
 1345 00fc 0B68     		ldr	r3, [r1]
1022:Drivers/STM32U0xx_HAL_Driver/Src/stm32u0xx_hal_rcc_ex.c ****               if (msirange > 11U)
 1346              		.loc 1 1022 53 view .LVU387
 1347 00fe 1B07     		lsls	r3, r3, #28
 1348 0100 00D4     		bmi	.LCB1193
 1349 0102 60E1     		b	.L207	@long jump
 1350              	.LCB1193:
1022:Drivers/STM32U0xx_HAL_Driver/Src/stm32u0xx_hal_rcc_ex.c ****               if (msirange > 11U)
 1351              		.loc 1 1022 27 discriminator 1 view .LVU388
 1352 0104 0B68     		ldr	r3, [r1]
1022:Drivers/STM32U0xx_HAL_Driver/Src/stm32u0xx_hal_rcc_ex.c ****               if (msirange > 11U)
 1353              		.loc 1 1022 53 discriminator 1 view .LVU389
 1354 0106 1B06     		lsls	r3, r3, #24
 1355 0108 1B0F     		lsrs	r3, r3, #28
 1356              	.L208:
 1357              	.LVL71:
1023:Drivers/STM32U0xx_HAL_Driver/Src/stm32u0xx_hal_rcc_ex.c ****               {
 1358              		.loc 1 1023 15 is_stmt 1 discriminator 4 view .LVU390
1027:Drivers/STM32U0xx_HAL_Driver/Src/stm32u0xx_hal_rcc_ex.c ****             }
 1359              		.loc 1 1027 15 discriminator 4 view .LVU391
1027:Drivers/STM32U0xx_HAL_Driver/Src/stm32u0xx_hal_rcc_ex.c ****             }
 1360              		.loc 1 1027 25 is_stmt 0 discriminator 4 view .LVU392
 1361 010a 7F4A     		ldr	r2, .L362+16
1023:Drivers/STM32U0xx_HAL_Driver/Src/stm32u0xx_hal_rcc_ex.c ****               {
 1362              		.loc 1 1023 18 discriminator 4 view .LVU393
 1363 010c 0B2B     		cmp	r3, #11
 1364 010e 00D9     		bls	.L209
 1365 0110 0B23     		movs	r3, #11
 1366              	.LVL72:
ARM GAS  C:\Users\upo\AppData\Local\Temp\ccMLO1b7.s 			page 48


 1367              	.L209:
1027:Drivers/STM32U0xx_HAL_Driver/Src/stm32u0xx_hal_rcc_ex.c ****             }
 1368              		.loc 1 1027 25 discriminator 4 view .LVU394
 1369 0112 9B00     		lsls	r3, r3, #2
 1370 0114 9858     		ldr	r0, [r3, r2]
 1371              	.LVL73:
1027:Drivers/STM32U0xx_HAL_Driver/Src/stm32u0xx_hal_rcc_ex.c ****             }
 1372              		.loc 1 1027 25 discriminator 4 view .LVU395
 1373 0116 9EE7     		b	.L142
 1374              	.LVL74:
 1375              	.L361:
 532:Drivers/STM32U0xx_HAL_Driver/Src/stm32u0xx_hal_rcc_ex.c ****     {
 1376              		.loc 1 532 5 view .LVU396
 1377 0118 8022     		movs	r2, #128
 1378 011a 9200     		lsls	r2, r2, #2
 1379 011c 9042     		cmp	r0, r2
 1380 011e 99D1     		bne	.L213
 880:Drivers/STM32U0xx_HAL_Driver/Src/stm32u0xx_hal_rcc_ex.c **** 
 1381              		.loc 1 880 9 is_stmt 1 view .LVU397
 880:Drivers/STM32U0xx_HAL_Driver/Src/stm32u0xx_hal_rcc_ex.c **** 
 1382              		.loc 1 880 18 is_stmt 0 view .LVU398
 1383 0120 8822     		movs	r2, #136
 880:Drivers/STM32U0xx_HAL_Driver/Src/stm32u0xx_hal_rcc_ex.c **** 
 1384              		.loc 1 880 16 view .LVU399
 1385 0122 C021     		movs	r1, #192
 880:Drivers/STM32U0xx_HAL_Driver/Src/stm32u0xx_hal_rcc_ex.c **** 
 1386              		.loc 1 880 18 view .LVU400
 1387 0124 7748     		ldr	r0, .L362+12
 1388              	.LVL75:
 880:Drivers/STM32U0xx_HAL_Driver/Src/stm32u0xx_hal_rcc_ex.c **** 
 1389              		.loc 1 880 16 view .LVU401
 1390 0126 0904     		lsls	r1, r1, #16
 880:Drivers/STM32U0xx_HAL_Driver/Src/stm32u0xx_hal_rcc_ex.c **** 
 1391              		.loc 1 880 18 view .LVU402
 1392 0128 8258     		ldr	r2, [r0, r2]
 880:Drivers/STM32U0xx_HAL_Driver/Src/stm32u0xx_hal_rcc_ex.c **** 
 1393              		.loc 1 880 16 view .LVU403
 1394 012a 0A40     		ands	r2, r1
 1395              	.LVL76:
 882:Drivers/STM32U0xx_HAL_Driver/Src/stm32u0xx_hal_rcc_ex.c ****         {
 1396              		.loc 1 882 9 is_stmt 1 view .LVU404
 1397 012c 8021     		movs	r1, #128
 1398 012e 0904     		lsls	r1, r1, #16
 1399 0130 8A42     		cmp	r2, r1
 1400 0132 00D1     		bne	.LCB1239
 1401 0134 D8E0     		b	.L195	@long jump
 1402              	.LCB1239:
 1403 0136 00D9     		bls	.LCB1241
 1404 0138 00E1     		b	.L196	@long jump
 1405              	.LCB1241:
 1406 013a 002A     		cmp	r2, #0
 1407 013c 2ED0     		beq	.L325
 1408 013e 8023     		movs	r3, #128
 1409 0140 DB03     		lsls	r3, r3, #15
 1410 0142 9A42     		cmp	r2, r3
 1411 0144 00D0     		beq	.LCB1247
 1412 0146 85E7     		b	.L213	@long jump
ARM GAS  C:\Users\upo\AppData\Local\Temp\ccMLO1b7.s 			page 49


 1413              	.LCB1247:
 888:Drivers/STM32U0xx_HAL_Driver/Src/stm32u0xx_hal_rcc_ex.c ****             {
 1414              		.loc 1 888 13 view .LVU405
 888:Drivers/STM32U0xx_HAL_Driver/Src/stm32u0xx_hal_rcc_ex.c ****             {
 1415              		.loc 1 888 17 is_stmt 0 view .LVU406
 1416 0148 6E4C     		ldr	r4, .L362+12
 1417 014a B7E7     		b	.L331
 1418              	.LVL77:
 1419              	.L358:
 490:Drivers/STM32U0xx_HAL_Driver/Src/stm32u0xx_hal_rcc_ex.c **** 
 1420              		.loc 1 490 5 is_stmt 1 view .LVU407
 490:Drivers/STM32U0xx_HAL_Driver/Src/stm32u0xx_hal_rcc_ex.c **** 
 1421              		.loc 1 490 14 is_stmt 0 view .LVU408
 1422 014c 9024     		movs	r4, #144
 490:Drivers/STM32U0xx_HAL_Driver/Src/stm32u0xx_hal_rcc_ex.c **** 
 1423              		.loc 1 490 12 view .LVU409
 1424 014e C022     		movs	r2, #192
 492:Drivers/STM32U0xx_HAL_Driver/Src/stm32u0xx_hal_rcc_ex.c ****     {
 1425              		.loc 1 492 5 view .LVU410
 1426 0150 8020     		movs	r0, #128
 1427              	.LVL78:
 490:Drivers/STM32U0xx_HAL_Driver/Src/stm32u0xx_hal_rcc_ex.c **** 
 1428              		.loc 1 490 14 view .LVU411
 1429 0152 6C49     		ldr	r1, .L362+12
 490:Drivers/STM32U0xx_HAL_Driver/Src/stm32u0xx_hal_rcc_ex.c **** 
 1430              		.loc 1 490 12 view .LVU412
 1431 0154 9200     		lsls	r2, r2, #2
 490:Drivers/STM32U0xx_HAL_Driver/Src/stm32u0xx_hal_rcc_ex.c **** 
 1432              		.loc 1 490 14 view .LVU413
 1433 0156 0B59     		ldr	r3, [r1, r4]
 492:Drivers/STM32U0xx_HAL_Driver/Src/stm32u0xx_hal_rcc_ex.c ****     {
 1434              		.loc 1 492 5 view .LVU414
 1435 0158 8000     		lsls	r0, r0, #2
 490:Drivers/STM32U0xx_HAL_Driver/Src/stm32u0xx_hal_rcc_ex.c **** 
 1436              		.loc 1 490 12 view .LVU415
 1437 015a 1340     		ands	r3, r2
 1438              	.LVL79:
 492:Drivers/STM32U0xx_HAL_Driver/Src/stm32u0xx_hal_rcc_ex.c ****     {
 1439              		.loc 1 492 5 is_stmt 1 view .LVU416
 1440 015c 8342     		cmp	r3, r0
 1441 015e 2AD0     		beq	.L144
 1442 0160 9342     		cmp	r3, r2
 1443 0162 1ED0     		beq	.L145
 1444 0164 8022     		movs	r2, #128
 1445 0166 0020     		movs	r0, #0
 1446 0168 5200     		lsls	r2, r2, #1
 1447 016a 9342     		cmp	r3, r2
 1448 016c 00D0     		beq	.LCB1276
 1449 016e 72E7     		b	.L142	@long jump
 1450              	.LCB1276:
 496:Drivers/STM32U0xx_HAL_Driver/Src/stm32u0xx_hal_rcc_ex.c ****         {
 1451              		.loc 1 496 9 view .LVU417
 496:Drivers/STM32U0xx_HAL_Driver/Src/stm32u0xx_hal_rcc_ex.c ****         {
 1452              		.loc 1 496 13 is_stmt 0 view .LVU418
 1453 0170 0859     		ldr	r0, [r1, r4]
 496:Drivers/STM32U0xx_HAL_Driver/Src/stm32u0xx_hal_rcc_ex.c ****         {
 1454              		.loc 1 496 12 view .LVU419
ARM GAS  C:\Users\upo\AppData\Local\Temp\ccMLO1b7.s 			page 50


 1455 0172 8007     		lsls	r0, r0, #30
 1456 0174 C00F     		lsrs	r0, r0, #31
 1457 0176 C003     		lsls	r0, r0, #15
 1458 0178 6DE7     		b	.L142
 1459              	.LVL80:
 1460              	.L157:
 764:Drivers/STM32U0xx_HAL_Driver/Src/stm32u0xx_hal_rcc_ex.c **** 
 1461              		.loc 1 764 9 is_stmt 1 view .LVU420
 764:Drivers/STM32U0xx_HAL_Driver/Src/stm32u0xx_hal_rcc_ex.c **** 
 1462              		.loc 1 764 18 is_stmt 0 view .LVU421
 1463 017a 8823     		movs	r3, #136
 764:Drivers/STM32U0xx_HAL_Driver/Src/stm32u0xx_hal_rcc_ex.c **** 
 1464              		.loc 1 764 16 view .LVU422
 1465 017c C021     		movs	r1, #192
 764:Drivers/STM32U0xx_HAL_Driver/Src/stm32u0xx_hal_rcc_ex.c **** 
 1466              		.loc 1 764 18 view .LVU423
 1467 017e 614A     		ldr	r2, .L362+12
 764:Drivers/STM32U0xx_HAL_Driver/Src/stm32u0xx_hal_rcc_ex.c **** 
 1468              		.loc 1 764 16 view .LVU424
 1469 0180 8902     		lsls	r1, r1, #10
 764:Drivers/STM32U0xx_HAL_Driver/Src/stm32u0xx_hal_rcc_ex.c **** 
 1470              		.loc 1 764 18 view .LVU425
 1471 0182 D358     		ldr	r3, [r2, r3]
 764:Drivers/STM32U0xx_HAL_Driver/Src/stm32u0xx_hal_rcc_ex.c **** 
 1472              		.loc 1 764 16 view .LVU426
 1473 0184 0B40     		ands	r3, r1
 1474              	.LVL81:
 766:Drivers/STM32U0xx_HAL_Driver/Src/stm32u0xx_hal_rcc_ex.c ****         {
 1475              		.loc 1 766 9 is_stmt 1 view .LVU427
 1476 0186 8021     		movs	r1, #128
 1477 0188 4902     		lsls	r1, r1, #9
 1478 018a 8B42     		cmp	r3, r1
 1479 018c 37D0     		beq	.L170
 1480 018e 8021     		movs	r1, #128
 1481 0190 8902     		lsls	r1, r1, #10
 1482 0192 8B42     		cmp	r3, r1
 1483 0194 5CD0     		beq	.L186
 1484              	.LVL82:
 1485              	.L350:
 766:Drivers/STM32U0xx_HAL_Driver/Src/stm32u0xx_hal_rcc_ex.c ****         {
 1486              		.loc 1 766 9 is_stmt 0 view .LVU428
 1487 0196 002B     		cmp	r3, #0
 1488 0198 00D0     		beq	.LCB1310
 1489 019a 5BE7     		b	.L213	@long jump
 1490              	.LCB1310:
 1491              	.LVL83:
 1492              	.L325:
 931:Drivers/STM32U0xx_HAL_Driver/Src/stm32u0xx_hal_rcc_ex.c ****             }
 1493              		.loc 1 931 15 is_stmt 1 view .LVU429
 931:Drivers/STM32U0xx_HAL_Driver/Src/stm32u0xx_hal_rcc_ex.c ****             }
 1494              		.loc 1 931 27 is_stmt 0 view .LVU430
 1495 019c FFF7FEFF 		bl	HAL_RCC_GetPCLK1Freq
 1496              	.LVL84:
 931:Drivers/STM32U0xx_HAL_Driver/Src/stm32u0xx_hal_rcc_ex.c ****             }
 1497              		.loc 1 931 27 view .LVU431
 1498 01a0 59E7     		b	.L142
 1499              	.LVL85:
ARM GAS  C:\Users\upo\AppData\Local\Temp\ccMLO1b7.s 			page 51


 1500              	.L145:
 519:Drivers/STM32U0xx_HAL_Driver/Src/stm32u0xx_hal_rcc_ex.c ****         {
 1501              		.loc 1 519 9 is_stmt 1 view .LVU432
 519:Drivers/STM32U0xx_HAL_Driver/Src/stm32u0xx_hal_rcc_ex.c ****         {
 1502              		.loc 1 519 13 is_stmt 0 view .LVU433
 1503 01a2 0A68     		ldr	r2, [r1]
 1504 01a4 8023     		movs	r3, #128
 1505              	.LVL86:
 519:Drivers/STM32U0xx_HAL_Driver/Src/stm32u0xx_hal_rcc_ex.c ****         {
 1506              		.loc 1 519 13 view .LVU434
 1507 01a6 1000     		movs	r0, r2
 1508 01a8 9B02     		lsls	r3, r3, #10
 1509 01aa 1840     		ands	r0, r3
 519:Drivers/STM32U0xx_HAL_Driver/Src/stm32u0xx_hal_rcc_ex.c ****         {
 1510              		.loc 1 519 12 view .LVU435
 1511 01ac 1A42     		tst	r2, r3
 1512 01ae 00D1     		bne	.LCB1330
 1513 01b0 51E7     		b	.L142	@long jump
 1514              	.LCB1330:
 521:Drivers/STM32U0xx_HAL_Driver/Src/stm32u0xx_hal_rcc_ex.c ****         }
 1515              		.loc 1 521 21 view .LVU436
 1516 01b2 5648     		ldr	r0, .L362+20
 1517 01b4 4FE7     		b	.L142
 1518              	.LVL87:
 1519              	.L144:
 503:Drivers/STM32U0xx_HAL_Driver/Src/stm32u0xx_hal_rcc_ex.c ****         {
 1520              		.loc 1 503 9 is_stmt 1 view .LVU437
 503:Drivers/STM32U0xx_HAL_Driver/Src/stm32u0xx_hal_rcc_ex.c ****         {
 1521              		.loc 1 503 13 is_stmt 0 view .LVU438
 1522 01b6 9424     		movs	r4, #148
 1523              	.LVL88:
 1524              	.L334:
 888:Drivers/STM32U0xx_HAL_Driver/Src/stm32u0xx_hal_rcc_ex.c ****             {
 1525              		.loc 1 888 17 view .LVU439
 1526 01b8 0222     		movs	r2, #2
 1527 01ba 1000     		movs	r0, r2
 1528 01bc 6358     		ldr	r3, [r4, r1]
 1529 01be 1840     		ands	r0, r3
 888:Drivers/STM32U0xx_HAL_Driver/Src/stm32u0xx_hal_rcc_ex.c ****             {
 1530              		.loc 1 888 16 view .LVU440
 1531 01c0 1A42     		tst	r2, r3
 1532 01c2 00D1     		bne	.LCB1347
 1533 01c4 47E7     		b	.L142	@long jump
 1534              	.LCB1347:
 891:Drivers/STM32U0xx_HAL_Driver/Src/stm32u0xx_hal_rcc_ex.c ****               {
 1535              		.loc 1 891 15 is_stmt 1 view .LVU441
 891:Drivers/STM32U0xx_HAL_Driver/Src/stm32u0xx_hal_rcc_ex.c ****               {
 1536              		.loc 1 891 19 is_stmt 0 view .LVU442
 1537 01c6 0420     		movs	r0, #4
 1538 01c8 6358     		ldr	r3, [r4, r1]
 1539 01ca 1840     		ands	r0, r3
 508:Drivers/STM32U0xx_HAL_Driver/Src/stm32u0xx_hal_rcc_ex.c ****           }
 1540              		.loc 1 508 23 view .LVU443
 1541 01cc 4342     		rsbs	r3, r0, #0
 1542 01ce 5841     		adcs	r0, r0, r3
 1543 01d0 4F4B     		ldr	r3, .L362+24
 1544 01d2 4042     		rsbs	r0, r0, #0
ARM GAS  C:\Users\upo\AppData\Local\Temp\ccMLO1b7.s 			page 52


 1545 01d4 1840     		ands	r0, r3
 1546 01d6 FA30     		adds	r0, r0, #250
 1547 01d8 3DE7     		b	.L142
 1548              	.LVL89:
 1549              	.L164:
 705:Drivers/STM32U0xx_HAL_Driver/Src/stm32u0xx_hal_rcc_ex.c **** 
 1550              		.loc 1 705 9 is_stmt 1 view .LVU444
 705:Drivers/STM32U0xx_HAL_Driver/Src/stm32u0xx_hal_rcc_ex.c **** 
 1551              		.loc 1 705 18 is_stmt 0 view .LVU445
 1552 01da 8823     		movs	r3, #136
 705:Drivers/STM32U0xx_HAL_Driver/Src/stm32u0xx_hal_rcc_ex.c **** 
 1553              		.loc 1 705 16 view .LVU446
 1554 01dc C021     		movs	r1, #192
 705:Drivers/STM32U0xx_HAL_Driver/Src/stm32u0xx_hal_rcc_ex.c **** 
 1555              		.loc 1 705 18 view .LVU447
 1556 01de 494A     		ldr	r2, .L362+12
 705:Drivers/STM32U0xx_HAL_Driver/Src/stm32u0xx_hal_rcc_ex.c **** 
 1557              		.loc 1 705 16 view .LVU448
 1558 01e0 8905     		lsls	r1, r1, #22
 705:Drivers/STM32U0xx_HAL_Driver/Src/stm32u0xx_hal_rcc_ex.c **** 
 1559              		.loc 1 705 18 view .LVU449
 1560 01e2 D358     		ldr	r3, [r2, r3]
 705:Drivers/STM32U0xx_HAL_Driver/Src/stm32u0xx_hal_rcc_ex.c **** 
 1561              		.loc 1 705 16 view .LVU450
 1562 01e4 0B40     		ands	r3, r1
 1563              	.LVL90:
 707:Drivers/STM32U0xx_HAL_Driver/Src/stm32u0xx_hal_rcc_ex.c ****         {
 1564              		.loc 1 707 9 is_stmt 1 view .LVU451
 1565 01e6 8021     		movs	r1, #128
 1566 01e8 4905     		lsls	r1, r1, #21
 1567 01ea 8B42     		cmp	r3, r1
 1568 01ec 00D1     		bne	.LCB1374
 1569 01ee E3E0     		b	.L183	@long jump
 1570              	.LCB1374:
 1571 01f0 8021     		movs	r1, #128
 1572 01f2 8905     		lsls	r1, r1, #22
 1573 01f4 8B42     		cmp	r3, r1
 1574 01f6 2BD0     		beq	.L186
 1575 01f8 002B     		cmp	r3, #0
 1576 01fa 00D0     		beq	.LCB1380
 1577 01fc 2AE7     		b	.L213	@long jump
 1578              	.LCB1380:
 1579              	.LVL91:
 1580              	.L170:
 545:Drivers/STM32U0xx_HAL_Driver/Src/stm32u0xx_hal_rcc_ex.c ****             break;
 1581              		.loc 1 545 13 view .LVU452
 545:Drivers/STM32U0xx_HAL_Driver/Src/stm32u0xx_hal_rcc_ex.c ****             break;
 1582              		.loc 1 545 25 is_stmt 0 view .LVU453
 1583 01fe FFF7FEFF 		bl	HAL_RCC_GetSysClockFreq
 1584              	.LVL92:
 546:Drivers/STM32U0xx_HAL_Driver/Src/stm32u0xx_hal_rcc_ex.c ****           case RCC_USART1CLKSOURCE_HSI:
 1585              		.loc 1 546 13 is_stmt 1 view .LVU454
 1586 0202 28E7     		b	.L142
 1587              	.LVL93:
 1588              	.L161:
 925:Drivers/STM32U0xx_HAL_Driver/Src/stm32u0xx_hal_rcc_ex.c ****         switch (srcclk)
 1589              		.loc 1 925 9 view .LVU455
ARM GAS  C:\Users\upo\AppData\Local\Temp\ccMLO1b7.s 			page 53


 925:Drivers/STM32U0xx_HAL_Driver/Src/stm32u0xx_hal_rcc_ex.c ****         switch (srcclk)
 1590              		.loc 1 925 18 is_stmt 0 view .LVU456
 1591 0204 8823     		movs	r3, #136
 1592 0206 3F4A     		ldr	r2, .L362+12
 1593 0208 D358     		ldr	r3, [r2, r3]
 1594              	.LVL94:
 926:Drivers/STM32U0xx_HAL_Driver/Src/stm32u0xx_hal_rcc_ex.c ****         {
 1595              		.loc 1 926 9 is_stmt 1 view .LVU457
 1596 020a DB01     		lsls	r3, r3, #7
 1597 020c 00D4     		bmi	.LCB1405
 1598 020e 33E7     		b	.L322	@long jump
 1599              	.LCB1405:
 1600              	.LVL95:
 1601              	.L200:
 939:Drivers/STM32U0xx_HAL_Driver/Src/stm32u0xx_hal_rcc_ex.c ****             frequency = pll_freq.PLL_Q_Frequency;
 1602              		.loc 1 939 13 view .LVU458
 1603 0210 01A8     		add	r0, sp, #4
 1604 0212 FFF7FEFF 		bl	HAL_RCCEx_GetPLLClockFreq
 1605              	.LVL96:
 940:Drivers/STM32U0xx_HAL_Driver/Src/stm32u0xx_hal_rcc_ex.c ****             break;
 1606              		.loc 1 940 13 view .LVU459
 940:Drivers/STM32U0xx_HAL_Driver/Src/stm32u0xx_hal_rcc_ex.c ****             break;
 1607              		.loc 1 940 23 is_stmt 0 view .LVU460
 1608 0216 0298     		ldr	r0, [sp, #8]
 1609              	.LVL97:
 941:Drivers/STM32U0xx_HAL_Driver/Src/stm32u0xx_hal_rcc_ex.c ****           default:
 1610              		.loc 1 941 13 is_stmt 1 view .LVU461
 1611 0218 1DE7     		b	.L142
 1612              	.LVL98:
 1613              	.L156:
 537:Drivers/STM32U0xx_HAL_Driver/Src/stm32u0xx_hal_rcc_ex.c **** 
 1614              		.loc 1 537 9 view .LVU462
 537:Drivers/STM32U0xx_HAL_Driver/Src/stm32u0xx_hal_rcc_ex.c **** 
 1615              		.loc 1 537 18 is_stmt 0 view .LVU463
 1616 021a 8823     		movs	r3, #136
 1617 021c 394A     		ldr	r2, .L362+12
 1618 021e D158     		ldr	r1, [r2, r3]
 537:Drivers/STM32U0xx_HAL_Driver/Src/stm32u0xx_hal_rcc_ex.c **** 
 1619              		.loc 1 537 16 view .LVU464
 1620 0220 853B     		subs	r3, r3, #133
 1621 0222 0B40     		ands	r3, r1
 1622              	.LVL99:
 539:Drivers/STM32U0xx_HAL_Driver/Src/stm32u0xx_hal_rcc_ex.c ****         {
 1623              		.loc 1 539 9 is_stmt 1 view .LVU465
 1624 0224 022B     		cmp	r3, #2
 1625 0226 13D0     		beq	.L186
 1626 0228 032B     		cmp	r3, #3
 1627 022a 00D1     		bne	.LCB1434
 1628 022c 80E0     		b	.L328	@long jump
 1629              	.LCB1434:
 1630 022e 012B     		cmp	r3, #1
 1631 0230 B4D1     		bne	.L325
 1632 0232 E4E7     		b	.L170
 1633              	.LVL100:
 1634              	.L150:
 737:Drivers/STM32U0xx_HAL_Driver/Src/stm32u0xx_hal_rcc_ex.c **** 
 1635              		.loc 1 737 9 view .LVU466
ARM GAS  C:\Users\upo\AppData\Local\Temp\ccMLO1b7.s 			page 54


 737:Drivers/STM32U0xx_HAL_Driver/Src/stm32u0xx_hal_rcc_ex.c **** 
 1636              		.loc 1 737 18 is_stmt 0 view .LVU467
 1637 0234 8823     		movs	r3, #136
 737:Drivers/STM32U0xx_HAL_Driver/Src/stm32u0xx_hal_rcc_ex.c **** 
 1638              		.loc 1 737 16 view .LVU468
 1639 0236 C021     		movs	r1, #192
 737:Drivers/STM32U0xx_HAL_Driver/Src/stm32u0xx_hal_rcc_ex.c **** 
 1640              		.loc 1 737 18 view .LVU469
 1641 0238 324A     		ldr	r2, .L362+12
 737:Drivers/STM32U0xx_HAL_Driver/Src/stm32u0xx_hal_rcc_ex.c **** 
 1642              		.loc 1 737 16 view .LVU470
 1643 023a 8901     		lsls	r1, r1, #6
 737:Drivers/STM32U0xx_HAL_Driver/Src/stm32u0xx_hal_rcc_ex.c **** 
 1644              		.loc 1 737 18 view .LVU471
 1645 023c D358     		ldr	r3, [r2, r3]
 737:Drivers/STM32U0xx_HAL_Driver/Src/stm32u0xx_hal_rcc_ex.c **** 
 1646              		.loc 1 737 16 view .LVU472
 1647 023e 0B40     		ands	r3, r1
 1648              	.LVL101:
 739:Drivers/STM32U0xx_HAL_Driver/Src/stm32u0xx_hal_rcc_ex.c ****         {
 1649              		.loc 1 739 9 is_stmt 1 view .LVU473
 1650 0240 8021     		movs	r1, #128
 1651 0242 4901     		lsls	r1, r1, #5
 1652 0244 8B42     		cmp	r3, r1
 1653 0246 DAD0     		beq	.L170
 1654 0248 8021     		movs	r1, #128
 1655 024a 8901     		lsls	r1, r1, #6
 1656 024c 8B42     		cmp	r3, r1
 1657 024e A2D1     		bne	.L350
 1658              	.L186:
 775:Drivers/STM32U0xx_HAL_Driver/Src/stm32u0xx_hal_rcc_ex.c ****             {
 1659              		.loc 1 775 13 view .LVU474
 775:Drivers/STM32U0xx_HAL_Driver/Src/stm32u0xx_hal_rcc_ex.c ****             {
 1660              		.loc 1 775 17 is_stmt 0 view .LVU475
 1661 0250 1268     		ldr	r2, [r2]
 1662              	.L338:
 859:Drivers/STM32U0xx_HAL_Driver/Src/stm32u0xx_hal_rcc_ex.c ****             {
 1663              		.loc 1 859 17 view .LVU476
 1664 0252 8023     		movs	r3, #128
 1665              	.LVL102:
 859:Drivers/STM32U0xx_HAL_Driver/Src/stm32u0xx_hal_rcc_ex.c ****             {
 1666              		.loc 1 859 17 view .LVU477
 1667 0254 1000     		movs	r0, r2
 1668 0256 DB00     		lsls	r3, r3, #3
 1669 0258 1840     		ands	r0, r3
 859:Drivers/STM32U0xx_HAL_Driver/Src/stm32u0xx_hal_rcc_ex.c ****             {
 1670              		.loc 1 859 16 view .LVU478
 1671 025a 1A42     		tst	r2, r3
 1672 025c 00D1     		bne	.LCB1472
 1673 025e FAE6     		b	.L142	@long jump
 1674              	.LCB1472:
 1675              	.LVL103:
 1676              	.L327:
 550:Drivers/STM32U0xx_HAL_Driver/Src/stm32u0xx_hal_rcc_ex.c ****             }
 1677              		.loc 1 550 25 view .LVU479
 1678 0260 2C48     		ldr	r0, .L362+28
 1679 0262 F8E6     		b	.L142
ARM GAS  C:\Users\upo\AppData\Local\Temp\ccMLO1b7.s 			page 55


 1680              	.L155:
 570:Drivers/STM32U0xx_HAL_Driver/Src/stm32u0xx_hal_rcc_ex.c **** 
 1681              		.loc 1 570 9 is_stmt 1 view .LVU480
 570:Drivers/STM32U0xx_HAL_Driver/Src/stm32u0xx_hal_rcc_ex.c **** 
 1682              		.loc 1 570 18 is_stmt 0 view .LVU481
 1683 0264 8823     		movs	r3, #136
 1684 0266 274A     		ldr	r2, .L362+12
 1685 0268 D158     		ldr	r1, [r2, r3]
 570:Drivers/STM32U0xx_HAL_Driver/Src/stm32u0xx_hal_rcc_ex.c **** 
 1686              		.loc 1 570 16 view .LVU482
 1687 026a 7C3B     		subs	r3, r3, #124
 1688 026c 0B40     		ands	r3, r1
 1689              	.LVL104:
 572:Drivers/STM32U0xx_HAL_Driver/Src/stm32u0xx_hal_rcc_ex.c ****         {
 1690              		.loc 1 572 9 is_stmt 1 view .LVU483
 1691 026e 082B     		cmp	r3, #8
 1692 0270 EED0     		beq	.L186
 1693 0272 6AD8     		bhi	.L172
 1694 0274 002B     		cmp	r3, #0
 1695 0276 91D0     		beq	.L325
 1696 0278 042B     		cmp	r3, #4
 1697 027a C0D0     		beq	.L170
 1698 027c EAE6     		b	.L213
 1699              	.LVL105:
 1700              	.L154:
 674:Drivers/STM32U0xx_HAL_Driver/Src/stm32u0xx_hal_rcc_ex.c **** 
 1701              		.loc 1 674 9 view .LVU484
 674:Drivers/STM32U0xx_HAL_Driver/Src/stm32u0xx_hal_rcc_ex.c **** 
 1702              		.loc 1 674 18 is_stmt 0 view .LVU485
 1703 027e 8823     		movs	r3, #136
 1704 0280 204A     		ldr	r2, .L362+12
 1705 0282 D158     		ldr	r1, [r2, r3]
 674:Drivers/STM32U0xx_HAL_Driver/Src/stm32u0xx_hal_rcc_ex.c **** 
 1706              		.loc 1 674 16 view .LVU486
 1707 0284 3833     		adds	r3, r3, #56
 1708 0286 0B40     		ands	r3, r1
 1709              	.LVL106:
 676:Drivers/STM32U0xx_HAL_Driver/Src/stm32u0xx_hal_rcc_ex.c ****         {
 1710              		.loc 1 676 9 is_stmt 1 view .LVU487
 1711 0288 802B     		cmp	r3, #128
 1712 028a E1D0     		beq	.L186
 1713 028c 4DD8     		bhi	.L181
 1714 028e 002B     		cmp	r3, #0
 1715 0290 84D0     		beq	.L325
 1716 0292 402B     		cmp	r3, #64
 1717 0294 B3D0     		beq	.L170
 1718 0296 DDE6     		b	.L213
 1719              	.LVL107:
 1720              	.L153:
 642:Drivers/STM32U0xx_HAL_Driver/Src/stm32u0xx_hal_rcc_ex.c **** 
 1721              		.loc 1 642 9 view .LVU488
 642:Drivers/STM32U0xx_HAL_Driver/Src/stm32u0xx_hal_rcc_ex.c **** 
 1722              		.loc 1 642 18 is_stmt 0 view .LVU489
 1723 0298 8823     		movs	r3, #136
 642:Drivers/STM32U0xx_HAL_Driver/Src/stm32u0xx_hal_rcc_ex.c **** 
 1724              		.loc 1 642 16 view .LVU490
 1725 029a C022     		movs	r2, #192
ARM GAS  C:\Users\upo\AppData\Local\Temp\ccMLO1b7.s 			page 56


 1726 029c 8021     		movs	r1, #128
 642:Drivers/STM32U0xx_HAL_Driver/Src/stm32u0xx_hal_rcc_ex.c **** 
 1727              		.loc 1 642 18 view .LVU491
 1728 029e 1948     		ldr	r0, .L362+12
 642:Drivers/STM32U0xx_HAL_Driver/Src/stm32u0xx_hal_rcc_ex.c **** 
 1729              		.loc 1 642 16 view .LVU492
 1730 02a0 9200     		lsls	r2, r2, #2
 642:Drivers/STM32U0xx_HAL_Driver/Src/stm32u0xx_hal_rcc_ex.c **** 
 1731              		.loc 1 642 18 view .LVU493
 1732 02a2 C358     		ldr	r3, [r0, r3]
 1733 02a4 8900     		lsls	r1, r1, #2
 642:Drivers/STM32U0xx_HAL_Driver/Src/stm32u0xx_hal_rcc_ex.c **** 
 1734              		.loc 1 642 16 view .LVU494
 1735 02a6 1340     		ands	r3, r2
 1736              	.LVL108:
 644:Drivers/STM32U0xx_HAL_Driver/Src/stm32u0xx_hal_rcc_ex.c ****         {
 1737              		.loc 1 644 9 is_stmt 1 view .LVU495
 1738 02a8 8B42     		cmp	r3, r1
 1739 02aa 1BD0     		beq	.L187
 1740 02ac 34D8     		bhi	.L188
 1741 02ae 002B     		cmp	r3, #0
 1742 02b0 00D1     		bne	.LCB1538
 1743 02b2 73E7     		b	.L325	@long jump
 1744              	.LCB1538:
 1745 02b4 8022     		movs	r2, #128
 1746 02b6 5200     		lsls	r2, r2, #1
 1747 02b8 9342     		cmp	r3, r2
 1748 02ba A0D0     		beq	.L170
 1749 02bc CAE6     		b	.L213
 1750              	.LVL109:
 1751              	.L152:
 611:Drivers/STM32U0xx_HAL_Driver/Src/stm32u0xx_hal_rcc_ex.c **** 
 1752              		.loc 1 611 9 view .LVU496
 611:Drivers/STM32U0xx_HAL_Driver/Src/stm32u0xx_hal_rcc_ex.c **** 
 1753              		.loc 1 611 18 is_stmt 0 view .LVU497
 1754 02be 8823     		movs	r3, #136
 611:Drivers/STM32U0xx_HAL_Driver/Src/stm32u0xx_hal_rcc_ex.c **** 
 1755              		.loc 1 611 16 view .LVU498
 1756 02c0 C022     		movs	r2, #192
 1757 02c2 8021     		movs	r1, #128
 611:Drivers/STM32U0xx_HAL_Driver/Src/stm32u0xx_hal_rcc_ex.c **** 
 1758              		.loc 1 611 18 view .LVU499
 1759 02c4 0F48     		ldr	r0, .L362+12
 611:Drivers/STM32U0xx_HAL_Driver/Src/stm32u0xx_hal_rcc_ex.c **** 
 1760              		.loc 1 611 16 view .LVU500
 1761 02c6 1201     		lsls	r2, r2, #4
 611:Drivers/STM32U0xx_HAL_Driver/Src/stm32u0xx_hal_rcc_ex.c **** 
 1762              		.loc 1 611 18 view .LVU501
 1763 02c8 C358     		ldr	r3, [r0, r3]
 1764 02ca 0901     		lsls	r1, r1, #4
 611:Drivers/STM32U0xx_HAL_Driver/Src/stm32u0xx_hal_rcc_ex.c **** 
 1765              		.loc 1 611 16 view .LVU502
 1766 02cc 1340     		ands	r3, r2
 1767              	.LVL110:
 613:Drivers/STM32U0xx_HAL_Driver/Src/stm32u0xx_hal_rcc_ex.c ****         {
 1768              		.loc 1 613 9 is_stmt 1 view .LVU503
 1769 02ce 8B42     		cmp	r3, r1
ARM GAS  C:\Users\upo\AppData\Local\Temp\ccMLO1b7.s 			page 57


 1770 02d0 08D0     		beq	.L187
 1771 02d2 21D8     		bhi	.L188
 1772 02d4 002B     		cmp	r3, #0
 1773 02d6 00D1     		bne	.LCB1564
 1774 02d8 60E7     		b	.L325	@long jump
 1775              	.LCB1564:
 1776 02da 8022     		movs	r2, #128
 1777 02dc D200     		lsls	r2, r2, #3
 1778 02de 9342     		cmp	r3, r2
 1779 02e0 8DD0     		beq	.L170
 1780 02e2 B7E6     		b	.L213
 1781              	.L187:
 814:Drivers/STM32U0xx_HAL_Driver/Src/stm32u0xx_hal_rcc_ex.c ****             {
 1782              		.loc 1 814 13 view .LVU504
 814:Drivers/STM32U0xx_HAL_Driver/Src/stm32u0xx_hal_rcc_ex.c ****             {
 1783              		.loc 1 814 17 is_stmt 0 view .LVU505
 1784 02e4 0268     		ldr	r2, [r0]
 1785 02e6 B4E7     		b	.L338
 1786              	.LVL111:
 1787              	.L195:
 903:Drivers/STM32U0xx_HAL_Driver/Src/stm32u0xx_hal_rcc_ex.c ****             {
 1788              		.loc 1 903 13 is_stmt 1 view .LVU506
 903:Drivers/STM32U0xx_HAL_Driver/Src/stm32u0xx_hal_rcc_ex.c ****             {
 1789              		.loc 1 903 17 is_stmt 0 view .LVU507
 1790 02e8 0268     		ldr	r2, [r0]
 1791              	.LVL112:
 903:Drivers/STM32U0xx_HAL_Driver/Src/stm32u0xx_hal_rcc_ex.c ****             {
 1792              		.loc 1 903 17 view .LVU508
 1793 02ea 1000     		movs	r0, r2
 1794 02ec 1840     		ands	r0, r3
 903:Drivers/STM32U0xx_HAL_Driver/Src/stm32u0xx_hal_rcc_ex.c ****             {
 1795              		.loc 1 903 16 view .LVU509
 1796 02ee 1A42     		tst	r2, r3
 1797 02f0 00D1     		bne	.LCB1587
 1798 02f2 B0E6     		b	.L142	@long jump
 1799              	.LCB1587:
 1800 02f4 B4E7     		b	.L327
 1801              	.L363:
 1802 02f6 C046     		.align	2
 1803              	.L362:
 1804 02f8 00000000 		.word	.L151
 1805 02fc 0000FFFF 		.word	-65536
 1806 0300 FFFFFEFF 		.word	-65537
 1807 0304 00100240 		.word	1073876992
 1808 0308 00000000 		.word	MSIRangeTable
 1809 030c 48E80100 		.word	125000
 1810 0310 067C0000 		.word	31750
 1811 0314 0024F400 		.word	16000000
 1812              	.LVL113:
 1813              	.L188:
 903:Drivers/STM32U0xx_HAL_Driver/Src/stm32u0xx_hal_rcc_ex.c ****             {
 1814              		.loc 1 903 16 view .LVU510
 1815 0318 9342     		cmp	r3, r2
 1816 031a 00D0     		beq	.LCB1607
 1817 031c 9AE6     		b	.L213	@long jump
 1818              	.LCB1607:
 820:Drivers/STM32U0xx_HAL_Driver/Src/stm32u0xx_hal_rcc_ex.c ****             {
ARM GAS  C:\Users\upo\AppData\Local\Temp\ccMLO1b7.s 			page 58


 1819              		.loc 1 820 13 is_stmt 1 view .LVU511
 820:Drivers/STM32U0xx_HAL_Driver/Src/stm32u0xx_hal_rcc_ex.c ****             {
 1820              		.loc 1 820 17 is_stmt 0 view .LVU512
 1821 031e 9023     		movs	r3, #144
 1822              	.LVL114:
 820:Drivers/STM32U0xx_HAL_Driver/Src/stm32u0xx_hal_rcc_ex.c ****             {
 1823              		.loc 1 820 17 view .LVU513
 1824 0320 C058     		ldr	r0, [r0, r3]
 820:Drivers/STM32U0xx_HAL_Driver/Src/stm32u0xx_hal_rcc_ex.c ****             {
 1825              		.loc 1 820 16 view .LVU514
 1826 0322 8007     		lsls	r0, r0, #30
 1827 0324 C00F     		lsrs	r0, r0, #31
 1828 0326 C003     		lsls	r0, r0, #15
 1829 0328 95E6     		b	.L142
 1830              	.LVL115:
 1831              	.L181:
 820:Drivers/STM32U0xx_HAL_Driver/Src/stm32u0xx_hal_rcc_ex.c ****             {
 1832              		.loc 1 820 16 view .LVU515
 1833 032a C02B     		cmp	r3, #192
 1834 032c 00D0     		beq	.LCB1622
 1835 032e 91E6     		b	.L213	@long jump
 1836              	.LCB1622:
 1837              	.LVL116:
 1838              	.L328:
 909:Drivers/STM32U0xx_HAL_Driver/Src/stm32u0xx_hal_rcc_ex.c ****             {
 1839              		.loc 1 909 17 view .LVU516
 1840 0330 9023     		movs	r3, #144
 1841 0332 D058     		ldr	r0, [r2, r3]
 909:Drivers/STM32U0xx_HAL_Driver/Src/stm32u0xx_hal_rcc_ex.c ****             {
 1842              		.loc 1 909 16 view .LVU517
 1843 0334 8007     		lsls	r0, r0, #30
 1844 0336 C00F     		lsrs	r0, r0, #31
 1845 0338 C003     		lsls	r0, r0, #15
 1846 033a 8CE6     		b	.L142
 1847              	.LVL117:
 1848              	.L196:
 909:Drivers/STM32U0xx_HAL_Driver/Src/stm32u0xx_hal_rcc_ex.c ****             {
 1849              		.loc 1 909 16 view .LVU518
 1850 033c C023     		movs	r3, #192
 1851 033e 1B04     		lsls	r3, r3, #16
 1852 0340 9A42     		cmp	r2, r3
 1853 0342 00D0     		beq	.LCB1639
 1854 0344 86E6     		b	.L213	@long jump
 1855              	.LCB1639:
 909:Drivers/STM32U0xx_HAL_Driver/Src/stm32u0xx_hal_rcc_ex.c ****             {
 1856              		.loc 1 909 13 is_stmt 1 view .LVU519
 909:Drivers/STM32U0xx_HAL_Driver/Src/stm32u0xx_hal_rcc_ex.c ****             {
 1857              		.loc 1 909 17 is_stmt 0 view .LVU520
 1858 0346 224A     		ldr	r2, .L364
 1859              	.LVL118:
 909:Drivers/STM32U0xx_HAL_Driver/Src/stm32u0xx_hal_rcc_ex.c ****             {
 1860              		.loc 1 909 17 view .LVU521
 1861 0348 F2E7     		b	.L328
 1862              	.LVL119:
 1863              	.L172:
 909:Drivers/STM32U0xx_HAL_Driver/Src/stm32u0xx_hal_rcc_ex.c ****             {
 1864              		.loc 1 909 17 view .LVU522
ARM GAS  C:\Users\upo\AppData\Local\Temp\ccMLO1b7.s 			page 59


 1865 034a 0C2B     		cmp	r3, #12
 1866 034c F0D0     		beq	.L328
 1867 034e 81E6     		b	.L213
 1868              	.LVL120:
 1869              	.L159:
 978:Drivers/STM32U0xx_HAL_Driver/Src/stm32u0xx_hal_rcc_ex.c ****         switch (srcclk)
 1870              		.loc 1 978 9 is_stmt 1 view .LVU523
 978:Drivers/STM32U0xx_HAL_Driver/Src/stm32u0xx_hal_rcc_ex.c ****         switch (srcclk)
 1871              		.loc 1 978 18 is_stmt 0 view .LVU524
 1872 0350 8823     		movs	r3, #136
 978:Drivers/STM32U0xx_HAL_Driver/Src/stm32u0xx_hal_rcc_ex.c ****         switch (srcclk)
 1873              		.loc 1 978 16 view .LVU525
 1874 0352 C022     		movs	r2, #192
 1875 0354 8020     		movs	r0, #128
 1876              	.LVL121:
 978:Drivers/STM32U0xx_HAL_Driver/Src/stm32u0xx_hal_rcc_ex.c ****         switch (srcclk)
 1877              		.loc 1 978 18 view .LVU526
 1878 0356 1E49     		ldr	r1, .L364
 978:Drivers/STM32U0xx_HAL_Driver/Src/stm32u0xx_hal_rcc_ex.c ****         switch (srcclk)
 1879              		.loc 1 978 16 view .LVU527
 1880 0358 1205     		lsls	r2, r2, #20
 978:Drivers/STM32U0xx_HAL_Driver/Src/stm32u0xx_hal_rcc_ex.c ****         switch (srcclk)
 1881              		.loc 1 978 18 view .LVU528
 1882 035a CB58     		ldr	r3, [r1, r3]
 1883 035c 0005     		lsls	r0, r0, #20
 978:Drivers/STM32U0xx_HAL_Driver/Src/stm32u0xx_hal_rcc_ex.c ****         switch (srcclk)
 1884              		.loc 1 978 16 view .LVU529
 1885 035e 1340     		ands	r3, r2
 1886              	.LVL122:
 979:Drivers/STM32U0xx_HAL_Driver/Src/stm32u0xx_hal_rcc_ex.c ****         {
 1887              		.loc 1 979 9 is_stmt 1 view .LVU530
 1888 0360 8342     		cmp	r3, r0
 1889 0362 00D1     		bne	.LCB1669
 1890 0364 54E7     		b	.L200	@long jump
 1891              	.LCB1669:
 1892 0366 9342     		cmp	r3, r2
 1893 0368 24D0     		beq	.L219
 1894 036a 8022     		movs	r2, #128
 1895 036c 0020     		movs	r0, #0
 1896 036e D204     		lsls	r2, r2, #19
 1897 0370 9342     		cmp	r3, r2
 1898 0372 00D0     		beq	.LCB1676
 1899 0374 6FE6     		b	.L142	@long jump
 1900              	.LCB1676:
 1901 0376 BBE6     		b	.L355
 1902              	.LVL123:
 1903              	.L147:
 836:Drivers/STM32U0xx_HAL_Driver/Src/stm32u0xx_hal_rcc_ex.c **** 
 1904              		.loc 1 836 9 view .LVU531
 836:Drivers/STM32U0xx_HAL_Driver/Src/stm32u0xx_hal_rcc_ex.c **** 
 1905              		.loc 1 836 18 is_stmt 0 view .LVU532
 1906 0378 8823     		movs	r3, #136
 836:Drivers/STM32U0xx_HAL_Driver/Src/stm32u0xx_hal_rcc_ex.c **** 
 1907              		.loc 1 836 16 view .LVU533
 1908 037a C022     		movs	r2, #192
 1909 037c 8021     		movs	r1, #128
 836:Drivers/STM32U0xx_HAL_Driver/Src/stm32u0xx_hal_rcc_ex.c **** 
ARM GAS  C:\Users\upo\AppData\Local\Temp\ccMLO1b7.s 			page 60


 1910              		.loc 1 836 18 view .LVU534
 1911 037e 144C     		ldr	r4, .L364
 836:Drivers/STM32U0xx_HAL_Driver/Src/stm32u0xx_hal_rcc_ex.c **** 
 1912              		.loc 1 836 16 view .LVU535
 1913 0380 9203     		lsls	r2, r2, #14
 836:Drivers/STM32U0xx_HAL_Driver/Src/stm32u0xx_hal_rcc_ex.c **** 
 1914              		.loc 1 836 18 view .LVU536
 1915 0382 E358     		ldr	r3, [r4, r3]
 1916 0384 8903     		lsls	r1, r1, #14
 836:Drivers/STM32U0xx_HAL_Driver/Src/stm32u0xx_hal_rcc_ex.c **** 
 1917              		.loc 1 836 16 view .LVU537
 1918 0386 1340     		ands	r3, r2
 1919              	.LVL124:
 838:Drivers/STM32U0xx_HAL_Driver/Src/stm32u0xx_hal_rcc_ex.c ****         {
 1920              		.loc 1 838 9 is_stmt 1 view .LVU538
 1921 0388 8B42     		cmp	r3, r1
 1922 038a 1AD0     		beq	.L191
 1923 038c 09D8     		bhi	.L192
 1924 038e 002B     		cmp	r3, #0
 1925 0390 00D1     		bne	.LCB1699
 1926 0392 03E7     		b	.L325	@long jump
 1927              	.LCB1699:
 1928 0394 8022     		movs	r2, #128
 1929 0396 5203     		lsls	r2, r2, #13
 1930 0398 9342     		cmp	r3, r2
 1931 039a 00D0     		beq	.LCB1703
 1932 039c 5AE6     		b	.L213	@long jump
 1933              	.LCB1703:
 888:Drivers/STM32U0xx_HAL_Driver/Src/stm32u0xx_hal_rcc_ex.c ****             {
 1934              		.loc 1 888 17 is_stmt 0 view .LVU539
 1935 039e 9421     		movs	r1, #148
 1936 03a0 0AE7     		b	.L334
 1937              	.L192:
 1938 03a2 9342     		cmp	r3, r2
 1939 03a4 00D0     		beq	.LCB1710
 1940 03a6 55E6     		b	.L213	@long jump
 1941              	.LCB1710:
 865:Drivers/STM32U0xx_HAL_Driver/Src/stm32u0xx_hal_rcc_ex.c ****             {
 1942              		.loc 1 865 13 is_stmt 1 view .LVU540
 865:Drivers/STM32U0xx_HAL_Driver/Src/stm32u0xx_hal_rcc_ex.c ****             {
 1943              		.loc 1 865 17 is_stmt 0 view .LVU541
 1944 03a8 9023     		movs	r3, #144
 1945              	.LVL125:
 865:Drivers/STM32U0xx_HAL_Driver/Src/stm32u0xx_hal_rcc_ex.c ****             {
 1946              		.loc 1 865 17 view .LVU542
 1947 03aa E058     		ldr	r0, [r4, r3]
 1948              	.LVL126:
 865:Drivers/STM32U0xx_HAL_Driver/Src/stm32u0xx_hal_rcc_ex.c ****             {
 1949              		.loc 1 865 16 view .LVU543
 1950 03ac 8007     		lsls	r0, r0, #30
 1951 03ae C00F     		lsrs	r0, r0, #31
 1952 03b0 C003     		lsls	r0, r0, #15
 1953 03b2 50E6     		b	.L142
 1954              	.LVL127:
 1955              	.L219:
 982:Drivers/STM32U0xx_HAL_Driver/Src/stm32u0xx_hal_rcc_ex.c ****             break;
 1956              		.loc 1 982 23 view .LVU544
ARM GAS  C:\Users\upo\AppData\Local\Temp\ccMLO1b7.s 			page 61


 1957 03b4 0748     		ldr	r0, .L364+4
 1958 03b6 4EE6     		b	.L142
 1959              	.LVL128:
 1960              	.L183:
 723:Drivers/STM32U0xx_HAL_Driver/Src/stm32u0xx_hal_rcc_ex.c ****             frequency = pll_freq.PLL_P_Frequency;
 1961              		.loc 1 723 13 is_stmt 1 view .LVU545
 1962 03b8 01A8     		add	r0, sp, #4
 1963              	.LVL129:
 723:Drivers/STM32U0xx_HAL_Driver/Src/stm32u0xx_hal_rcc_ex.c ****             frequency = pll_freq.PLL_P_Frequency;
 1964              		.loc 1 723 13 is_stmt 0 view .LVU546
 1965 03ba FFF7FEFF 		bl	HAL_RCCEx_GetPLLClockFreq
 1966              	.LVL130:
 724:Drivers/STM32U0xx_HAL_Driver/Src/stm32u0xx_hal_rcc_ex.c ****             break;
 1967              		.loc 1 724 13 is_stmt 1 view .LVU547
 724:Drivers/STM32U0xx_HAL_Driver/Src/stm32u0xx_hal_rcc_ex.c ****             break;
 1968              		.loc 1 724 23 is_stmt 0 view .LVU548
 1969 03be 0198     		ldr	r0, [sp, #4]
 1970              	.LVL131:
 725:Drivers/STM32U0xx_HAL_Driver/Src/stm32u0xx_hal_rcc_ex.c **** 
 1971              		.loc 1 725 13 is_stmt 1 view .LVU549
 1972 03c0 49E6     		b	.L142
 1973              	.LVL132:
 1974              	.L191:
 859:Drivers/STM32U0xx_HAL_Driver/Src/stm32u0xx_hal_rcc_ex.c ****             {
 1975              		.loc 1 859 13 view .LVU550
 859:Drivers/STM32U0xx_HAL_Driver/Src/stm32u0xx_hal_rcc_ex.c ****             {
 1976              		.loc 1 859 17 is_stmt 0 view .LVU551
 1977 03c2 2268     		ldr	r2, [r4]
 1978 03c4 45E7     		b	.L338
 1979              	.LVL133:
 1980              	.L207:
1022:Drivers/STM32U0xx_HAL_Driver/Src/stm32u0xx_hal_rcc_ex.c ****               if (msirange > 11U)
 1981              		.loc 1 1022 27 discriminator 2 view .LVU552
 1982 03c6 9423     		movs	r3, #148
 1983 03c8 CB58     		ldr	r3, [r1, r3]
1022:Drivers/STM32U0xx_HAL_Driver/Src/stm32u0xx_hal_rcc_ex.c ****               if (msirange > 11U)
 1984              		.loc 1 1022 53 discriminator 2 view .LVU553
 1985 03ca 1B05     		lsls	r3, r3, #20
 1986 03cc 1B0F     		lsrs	r3, r3, #28
 1987 03ce 9CE6     		b	.L208
 1988              	.L365:
 1989              		.align	2
 1990              	.L364:
 1991 03d0 00100240 		.word	1073876992
 1992 03d4 006CDC02 		.word	48000000
 1993              		.cfi_endproc
 1994              	.LFE336:
 1996              		.section	.text.HAL_RCCEx_EnablePLL,"ax",%progbits
 1997              		.align	1
 1998              		.p2align 2,,3
 1999              		.global	HAL_RCCEx_EnablePLL
 2000              		.syntax unified
 2001              		.code	16
 2002              		.thumb_func
 2004              	HAL_RCCEx_EnablePLL:
 2005              	.LVL134:
 2006              	.LFB338:
ARM GAS  C:\Users\upo\AppData\Local\Temp\ccMLO1b7.s 			page 62


1132:Drivers/STM32U0xx_HAL_Driver/Src/stm32u0xx_hal_rcc_ex.c **** 
1133:Drivers/STM32U0xx_HAL_Driver/Src/stm32u0xx_hal_rcc_ex.c **** /**
1134:Drivers/STM32U0xx_HAL_Driver/Src/stm32u0xx_hal_rcc_ex.c ****   * @brief  Enable PLL.
1135:Drivers/STM32U0xx_HAL_Driver/Src/stm32u0xx_hal_rcc_ex.c ****   * @param  PLLInit  pointer to an RCC_PLLInitTypeDef structure that
1136:Drivers/STM32U0xx_HAL_Driver/Src/stm32u0xx_hal_rcc_ex.c ****   *         contains the configuration information for the PLL
1137:Drivers/STM32U0xx_HAL_Driver/Src/stm32u0xx_hal_rcc_ex.c ****   * @retval HAL status
1138:Drivers/STM32U0xx_HAL_Driver/Src/stm32u0xx_hal_rcc_ex.c ****   */
1139:Drivers/STM32U0xx_HAL_Driver/Src/stm32u0xx_hal_rcc_ex.c **** HAL_StatusTypeDef HAL_RCCEx_EnablePLL(RCC_PLLInitTypeDef  *PLLInit)
1140:Drivers/STM32U0xx_HAL_Driver/Src/stm32u0xx_hal_rcc_ex.c **** {
 2007              		.loc 1 1140 1 is_stmt 1 view -0
 2008              		.cfi_startproc
 2009              		@ args = 0, pretend = 0, frame = 0
 2010              		@ frame_needed = 0, uses_anonymous_args = 0
1141:Drivers/STM32U0xx_HAL_Driver/Src/stm32u0xx_hal_rcc_ex.c ****   uint32_t tickstart;
 2011              		.loc 1 1141 3 view .LVU555
1142:Drivers/STM32U0xx_HAL_Driver/Src/stm32u0xx_hal_rcc_ex.c ****   HAL_StatusTypeDef status = HAL_OK;
 2012              		.loc 1 1142 3 view .LVU556
1143:Drivers/STM32U0xx_HAL_Driver/Src/stm32u0xx_hal_rcc_ex.c **** 
1144:Drivers/STM32U0xx_HAL_Driver/Src/stm32u0xx_hal_rcc_ex.c ****   /* check for PLL Parameters used to output PLLCLK */
1145:Drivers/STM32U0xx_HAL_Driver/Src/stm32u0xx_hal_rcc_ex.c ****   assert_param(IS_RCC_PLLSOURCE(PLLInit->PLLSource));
 2013              		.loc 1 1145 3 view .LVU557
1146:Drivers/STM32U0xx_HAL_Driver/Src/stm32u0xx_hal_rcc_ex.c ****   assert_param(IS_RCC_PLL_DIVM_VALUE(PLLInit->PLLM));
 2014              		.loc 1 1146 3 view .LVU558
1147:Drivers/STM32U0xx_HAL_Driver/Src/stm32u0xx_hal_rcc_ex.c ****   assert_param(IS_RCC_PLL_MULN_VALUE(PLLInit->PLLN));
 2015              		.loc 1 1147 3 view .LVU559
1148:Drivers/STM32U0xx_HAL_Driver/Src/stm32u0xx_hal_rcc_ex.c ****   assert_param(IS_RCC_PLL_DIVP_VALUE(PLLInit->PLLP));
 2016              		.loc 1 1148 3 view .LVU560
1149:Drivers/STM32U0xx_HAL_Driver/Src/stm32u0xx_hal_rcc_ex.c ****   assert_param(IS_RCC_PLL_DIVQ_VALUE(PLLInit->PLLQ));
 2017              		.loc 1 1149 3 view .LVU561
1150:Drivers/STM32U0xx_HAL_Driver/Src/stm32u0xx_hal_rcc_ex.c ****   assert_param(IS_RCC_PLL_DIVR_VALUE(PLLInit->PLLR));
 2018              		.loc 1 1150 3 view .LVU562
1151:Drivers/STM32U0xx_HAL_Driver/Src/stm32u0xx_hal_rcc_ex.c ****   assert_param(IS_RCC_PLLCLOCKOUT_VALUE(PLLInit->PLLClockOut));
 2019              		.loc 1 1151 3 view .LVU563
1152:Drivers/STM32U0xx_HAL_Driver/Src/stm32u0xx_hal_rcc_ex.c **** 
1153:Drivers/STM32U0xx_HAL_Driver/Src/stm32u0xx_hal_rcc_ex.c ****   /* Disable the PLL */
1154:Drivers/STM32U0xx_HAL_Driver/Src/stm32u0xx_hal_rcc_ex.c ****   __HAL_RCC_PLL_DISABLE();
 2020              		.loc 1 1154 3 view .LVU564
1140:Drivers/STM32U0xx_HAL_Driver/Src/stm32u0xx_hal_rcc_ex.c ****   uint32_t tickstart;
 2021              		.loc 1 1140 1 is_stmt 0 view .LVU565
 2022 0000 F8B5     		push	{r3, r4, r5, r6, r7, lr}
 2023              	.LCFI7:
 2024              		.cfi_def_cfa_offset 24
 2025              		.cfi_offset 3, -24
 2026              		.cfi_offset 4, -20
 2027              		.cfi_offset 5, -16
 2028              		.cfi_offset 6, -12
 2029              		.cfi_offset 7, -8
 2030              		.cfi_offset 14, -4
 2031              		.loc 1 1154 3 view .LVU566
 2032 0002 484C     		ldr	r4, .L396
 2033 0004 484A     		ldr	r2, .L396+4
 2034 0006 2368     		ldr	r3, [r4]
1140:Drivers/STM32U0xx_HAL_Driver/Src/stm32u0xx_hal_rcc_ex.c ****   uint32_t tickstart;
 2035              		.loc 1 1140 1 view .LVU567
 2036 0008 0700     		movs	r7, r0
 2037              		.loc 1 1154 3 view .LVU568
 2038 000a 1340     		ands	r3, r2
ARM GAS  C:\Users\upo\AppData\Local\Temp\ccMLO1b7.s 			page 63


 2039 000c 2360     		str	r3, [r4]
1155:Drivers/STM32U0xx_HAL_Driver/Src/stm32u0xx_hal_rcc_ex.c **** 
1156:Drivers/STM32U0xx_HAL_Driver/Src/stm32u0xx_hal_rcc_ex.c ****   /* Get Start Tick*/
1157:Drivers/STM32U0xx_HAL_Driver/Src/stm32u0xx_hal_rcc_ex.c ****   tickstart = HAL_GetTick();
 2040              		.loc 1 1157 3 is_stmt 1 view .LVU569
 2041              		.loc 1 1157 15 is_stmt 0 view .LVU570
 2042 000e FFF7FEFF 		bl	HAL_GetTick
 2043              	.LVL135:
1158:Drivers/STM32U0xx_HAL_Driver/Src/stm32u0xx_hal_rcc_ex.c **** 
1159:Drivers/STM32U0xx_HAL_Driver/Src/stm32u0xx_hal_rcc_ex.c ****   /* Wait till PLL is ready to be updated */
1160:Drivers/STM32U0xx_HAL_Driver/Src/stm32u0xx_hal_rcc_ex.c ****   while (READ_BIT(RCC->CR, RCC_CR_PLLRDY) != 0U)
 2044              		.loc 1 1160 10 view .LVU571
 2045 0012 8026     		movs	r6, #128
1157:Drivers/STM32U0xx_HAL_Driver/Src/stm32u0xx_hal_rcc_ex.c **** 
 2046              		.loc 1 1157 15 view .LVU572
 2047 0014 0500     		movs	r5, r0
 2048              	.LVL136:
 2049              		.loc 1 1160 3 is_stmt 1 view .LVU573
 2050              		.loc 1 1160 10 is_stmt 0 view .LVU574
 2051 0016 B604     		lsls	r6, r6, #18
 2052              		.loc 1 1160 9 view .LVU575
 2053 0018 04E0     		b	.L367
 2054              	.LVL137:
 2055              	.L369:
1161:Drivers/STM32U0xx_HAL_Driver/Src/stm32u0xx_hal_rcc_ex.c ****   {
1162:Drivers/STM32U0xx_HAL_Driver/Src/stm32u0xx_hal_rcc_ex.c ****     if ((HAL_GetTick() - tickstart) > 2U) /* PLL_TIMEOUT_VALUE) */
 2056              		.loc 1 1162 5 is_stmt 1 view .LVU576
 2057              		.loc 1 1162 10 is_stmt 0 view .LVU577
 2058 001a FFF7FEFF 		bl	HAL_GetTick
 2059              	.LVL138:
 2060              		.loc 1 1162 24 view .LVU578
 2061 001e 401B     		subs	r0, r0, r5
 2062              		.loc 1 1162 8 view .LVU579
 2063 0020 0228     		cmp	r0, #2
 2064 0022 69D8     		bhi	.L371
 2065              	.L367:
1160:Drivers/STM32U0xx_HAL_Driver/Src/stm32u0xx_hal_rcc_ex.c ****   {
 2066              		.loc 1 1160 43 is_stmt 1 view .LVU580
1160:Drivers/STM32U0xx_HAL_Driver/Src/stm32u0xx_hal_rcc_ex.c ****   {
 2067              		.loc 1 1160 10 is_stmt 0 view .LVU581
 2068 0024 2368     		ldr	r3, [r4]
1160:Drivers/STM32U0xx_HAL_Driver/Src/stm32u0xx_hal_rcc_ex.c ****   {
 2069              		.loc 1 1160 43 view .LVU582
 2070 0026 3342     		tst	r3, r6
 2071 0028 F7D1     		bne	.L369
1163:Drivers/STM32U0xx_HAL_Driver/Src/stm32u0xx_hal_rcc_ex.c ****     {
1164:Drivers/STM32U0xx_HAL_Driver/Src/stm32u0xx_hal_rcc_ex.c ****       status = HAL_TIMEOUT;
1165:Drivers/STM32U0xx_HAL_Driver/Src/stm32u0xx_hal_rcc_ex.c ****       break;
1166:Drivers/STM32U0xx_HAL_Driver/Src/stm32u0xx_hal_rcc_ex.c ****     }
1167:Drivers/STM32U0xx_HAL_Driver/Src/stm32u0xx_hal_rcc_ex.c ****   }
1168:Drivers/STM32U0xx_HAL_Driver/Src/stm32u0xx_hal_rcc_ex.c **** 
1169:Drivers/STM32U0xx_HAL_Driver/Src/stm32u0xx_hal_rcc_ex.c ****   if (status == HAL_OK)
 2072              		.loc 1 1169 3 is_stmt 1 view .LVU583
1170:Drivers/STM32U0xx_HAL_Driver/Src/stm32u0xx_hal_rcc_ex.c ****   {
1171:Drivers/STM32U0xx_HAL_Driver/Src/stm32u0xx_hal_rcc_ex.c ****     /* Make sure PLLSource is ready */
1172:Drivers/STM32U0xx_HAL_Driver/Src/stm32u0xx_hal_rcc_ex.c ****     status = RCCEx_PLLSource_Enable(PLLInit->PLLSource);
 2073              		.loc 1 1172 5 view .LVU584
ARM GAS  C:\Users\upo\AppData\Local\Temp\ccMLO1b7.s 			page 64


 2074              		.loc 1 1172 14 is_stmt 0 view .LVU585
 2075 002a 7B68     		ldr	r3, [r7, #4]
 2076              	.LVL139:
 2077              	.LBB10:
 2078              	.LBI10:
1173:Drivers/STM32U0xx_HAL_Driver/Src/stm32u0xx_hal_rcc_ex.c **** 
1174:Drivers/STM32U0xx_HAL_Driver/Src/stm32u0xx_hal_rcc_ex.c ****     if (status == HAL_OK)
1175:Drivers/STM32U0xx_HAL_Driver/Src/stm32u0xx_hal_rcc_ex.c ****     {
1176:Drivers/STM32U0xx_HAL_Driver/Src/stm32u0xx_hal_rcc_ex.c ****       /* Configure the PLL clock source, multiplication factor N, */
1177:Drivers/STM32U0xx_HAL_Driver/Src/stm32u0xx_hal_rcc_ex.c ****       /* and division factors M, P, Q and R */
1178:Drivers/STM32U0xx_HAL_Driver/Src/stm32u0xx_hal_rcc_ex.c ****       __HAL_RCC_PLL_CONFIG(PLLInit->PLLSource, PLLInit->PLLM, PLLInit->PLLN,
1179:Drivers/STM32U0xx_HAL_Driver/Src/stm32u0xx_hal_rcc_ex.c ****                            PLLInit->PLLP, PLLInit->PLLQ, PLLInit->PLLR);
1180:Drivers/STM32U0xx_HAL_Driver/Src/stm32u0xx_hal_rcc_ex.c **** 
1181:Drivers/STM32U0xx_HAL_Driver/Src/stm32u0xx_hal_rcc_ex.c ****       /* Configure the PLL Clock output(s) */
1182:Drivers/STM32U0xx_HAL_Driver/Src/stm32u0xx_hal_rcc_ex.c ****       __HAL_RCC_PLLCLKOUT_ENABLE(PLLInit->PLLClockOut);
1183:Drivers/STM32U0xx_HAL_Driver/Src/stm32u0xx_hal_rcc_ex.c **** 
1184:Drivers/STM32U0xx_HAL_Driver/Src/stm32u0xx_hal_rcc_ex.c ****       /* Enable the PLL again by setting PLLON to 1*/
1185:Drivers/STM32U0xx_HAL_Driver/Src/stm32u0xx_hal_rcc_ex.c ****       __HAL_RCC_PLL_ENABLE();
1186:Drivers/STM32U0xx_HAL_Driver/Src/stm32u0xx_hal_rcc_ex.c **** 
1187:Drivers/STM32U0xx_HAL_Driver/Src/stm32u0xx_hal_rcc_ex.c ****       /* Get Start Tick*/
1188:Drivers/STM32U0xx_HAL_Driver/Src/stm32u0xx_hal_rcc_ex.c ****       tickstart = HAL_GetTick();
1189:Drivers/STM32U0xx_HAL_Driver/Src/stm32u0xx_hal_rcc_ex.c **** 
1190:Drivers/STM32U0xx_HAL_Driver/Src/stm32u0xx_hal_rcc_ex.c ****       /* Wait till PLL is ready */
1191:Drivers/STM32U0xx_HAL_Driver/Src/stm32u0xx_hal_rcc_ex.c ****       while (READ_BIT(RCC->CR, RCC_CR_PLLRDY) == 0U)
1192:Drivers/STM32U0xx_HAL_Driver/Src/stm32u0xx_hal_rcc_ex.c ****       {
1193:Drivers/STM32U0xx_HAL_Driver/Src/stm32u0xx_hal_rcc_ex.c ****         if ((HAL_GetTick() - tickstart) > 2U) /* PLL_TIMEOUT_VALUE) */
1194:Drivers/STM32U0xx_HAL_Driver/Src/stm32u0xx_hal_rcc_ex.c ****         {
1195:Drivers/STM32U0xx_HAL_Driver/Src/stm32u0xx_hal_rcc_ex.c ****           status = HAL_TIMEOUT;
1196:Drivers/STM32U0xx_HAL_Driver/Src/stm32u0xx_hal_rcc_ex.c ****           break;
1197:Drivers/STM32U0xx_HAL_Driver/Src/stm32u0xx_hal_rcc_ex.c ****         }
1198:Drivers/STM32U0xx_HAL_Driver/Src/stm32u0xx_hal_rcc_ex.c ****       }
1199:Drivers/STM32U0xx_HAL_Driver/Src/stm32u0xx_hal_rcc_ex.c ****     }
1200:Drivers/STM32U0xx_HAL_Driver/Src/stm32u0xx_hal_rcc_ex.c ****   }
1201:Drivers/STM32U0xx_HAL_Driver/Src/stm32u0xx_hal_rcc_ex.c **** 
1202:Drivers/STM32U0xx_HAL_Driver/Src/stm32u0xx_hal_rcc_ex.c ****   return status;
1203:Drivers/STM32U0xx_HAL_Driver/Src/stm32u0xx_hal_rcc_ex.c **** }
1204:Drivers/STM32U0xx_HAL_Driver/Src/stm32u0xx_hal_rcc_ex.c **** 
1205:Drivers/STM32U0xx_HAL_Driver/Src/stm32u0xx_hal_rcc_ex.c **** /**
1206:Drivers/STM32U0xx_HAL_Driver/Src/stm32u0xx_hal_rcc_ex.c ****   * @brief  Disable PLL.
1207:Drivers/STM32U0xx_HAL_Driver/Src/stm32u0xx_hal_rcc_ex.c ****   * @retval HAL status
1208:Drivers/STM32U0xx_HAL_Driver/Src/stm32u0xx_hal_rcc_ex.c ****   */
1209:Drivers/STM32U0xx_HAL_Driver/Src/stm32u0xx_hal_rcc_ex.c **** HAL_StatusTypeDef HAL_RCCEx_DisablePLL(void)
1210:Drivers/STM32U0xx_HAL_Driver/Src/stm32u0xx_hal_rcc_ex.c **** {
1211:Drivers/STM32U0xx_HAL_Driver/Src/stm32u0xx_hal_rcc_ex.c ****   uint32_t tickstart;
1212:Drivers/STM32U0xx_HAL_Driver/Src/stm32u0xx_hal_rcc_ex.c ****   HAL_StatusTypeDef status = HAL_OK;
1213:Drivers/STM32U0xx_HAL_Driver/Src/stm32u0xx_hal_rcc_ex.c **** 
1214:Drivers/STM32U0xx_HAL_Driver/Src/stm32u0xx_hal_rcc_ex.c ****   /* Disable the PLL */
1215:Drivers/STM32U0xx_HAL_Driver/Src/stm32u0xx_hal_rcc_ex.c ****   __HAL_RCC_PLL_DISABLE();
1216:Drivers/STM32U0xx_HAL_Driver/Src/stm32u0xx_hal_rcc_ex.c **** 
1217:Drivers/STM32U0xx_HAL_Driver/Src/stm32u0xx_hal_rcc_ex.c ****   /* Get Start Tick*/
1218:Drivers/STM32U0xx_HAL_Driver/Src/stm32u0xx_hal_rcc_ex.c ****   tickstart = HAL_GetTick();
1219:Drivers/STM32U0xx_HAL_Driver/Src/stm32u0xx_hal_rcc_ex.c **** 
1220:Drivers/STM32U0xx_HAL_Driver/Src/stm32u0xx_hal_rcc_ex.c ****   /* Wait till PLL is ready */
1221:Drivers/STM32U0xx_HAL_Driver/Src/stm32u0xx_hal_rcc_ex.c ****   while (READ_BIT(RCC->CR, RCC_CR_PLLRDY) != 0U)
1222:Drivers/STM32U0xx_HAL_Driver/Src/stm32u0xx_hal_rcc_ex.c ****   {
1223:Drivers/STM32U0xx_HAL_Driver/Src/stm32u0xx_hal_rcc_ex.c ****     if ((HAL_GetTick() - tickstart) > 2U) /* PLL_TIMEOUT_VALUE) */
1224:Drivers/STM32U0xx_HAL_Driver/Src/stm32u0xx_hal_rcc_ex.c ****     {
ARM GAS  C:\Users\upo\AppData\Local\Temp\ccMLO1b7.s 			page 65


1225:Drivers/STM32U0xx_HAL_Driver/Src/stm32u0xx_hal_rcc_ex.c ****       status = HAL_TIMEOUT;
1226:Drivers/STM32U0xx_HAL_Driver/Src/stm32u0xx_hal_rcc_ex.c ****       break;
1227:Drivers/STM32U0xx_HAL_Driver/Src/stm32u0xx_hal_rcc_ex.c ****     }
1228:Drivers/STM32U0xx_HAL_Driver/Src/stm32u0xx_hal_rcc_ex.c ****   }
1229:Drivers/STM32U0xx_HAL_Driver/Src/stm32u0xx_hal_rcc_ex.c **** 
1230:Drivers/STM32U0xx_HAL_Driver/Src/stm32u0xx_hal_rcc_ex.c ****   /* To save power disable the PLL Source, FRACN and Clock outputs */
1231:Drivers/STM32U0xx_HAL_Driver/Src/stm32u0xx_hal_rcc_ex.c ****   CLEAR_BIT(RCC->PLLCFGR, RCC_PLLCFGR_PLLREN | RCC_PLLCFGR_PLLQEN | RCC_PLLCFGR_PLLPEN | RCC_PLLCFG
1232:Drivers/STM32U0xx_HAL_Driver/Src/stm32u0xx_hal_rcc_ex.c **** 
1233:Drivers/STM32U0xx_HAL_Driver/Src/stm32u0xx_hal_rcc_ex.c ****   return status;
1234:Drivers/STM32U0xx_HAL_Driver/Src/stm32u0xx_hal_rcc_ex.c **** }
1235:Drivers/STM32U0xx_HAL_Driver/Src/stm32u0xx_hal_rcc_ex.c **** 
1236:Drivers/STM32U0xx_HAL_Driver/Src/stm32u0xx_hal_rcc_ex.c **** /**
1237:Drivers/STM32U0xx_HAL_Driver/Src/stm32u0xx_hal_rcc_ex.c ****   * @brief  Configure the oscillator clock source for wakeup from Stop and CSS backup clock.
1238:Drivers/STM32U0xx_HAL_Driver/Src/stm32u0xx_hal_rcc_ex.c ****   * @param  WakeUpClk  Wakeup clock
1239:Drivers/STM32U0xx_HAL_Driver/Src/stm32u0xx_hal_rcc_ex.c ****   *         This parameter can be one of the following values:
1240:Drivers/STM32U0xx_HAL_Driver/Src/stm32u0xx_hal_rcc_ex.c ****   *            @arg @ref RCC_STOP_WAKEUPCLOCK_MSI  MSI oscillator selection
1241:Drivers/STM32U0xx_HAL_Driver/Src/stm32u0xx_hal_rcc_ex.c ****   *            @arg @ref RCC_STOP_WAKEUPCLOCK_HSI  HSI oscillator selection
1242:Drivers/STM32U0xx_HAL_Driver/Src/stm32u0xx_hal_rcc_ex.c ****   * @note   This function shall not be called after the Clock Security System on HSE has been
1243:Drivers/STM32U0xx_HAL_Driver/Src/stm32u0xx_hal_rcc_ex.c ****   *         enabled.
1244:Drivers/STM32U0xx_HAL_Driver/Src/stm32u0xx_hal_rcc_ex.c ****   * @retval None
1245:Drivers/STM32U0xx_HAL_Driver/Src/stm32u0xx_hal_rcc_ex.c ****   */
1246:Drivers/STM32U0xx_HAL_Driver/Src/stm32u0xx_hal_rcc_ex.c **** void HAL_RCCEx_WakeUpStopCLKConfig(uint32_t WakeUpClk)
1247:Drivers/STM32U0xx_HAL_Driver/Src/stm32u0xx_hal_rcc_ex.c **** {
1248:Drivers/STM32U0xx_HAL_Driver/Src/stm32u0xx_hal_rcc_ex.c ****   assert_param(IS_RCC_STOP_WAKEUPCLOCK(WakeUpClk));
1249:Drivers/STM32U0xx_HAL_Driver/Src/stm32u0xx_hal_rcc_ex.c **** 
1250:Drivers/STM32U0xx_HAL_Driver/Src/stm32u0xx_hal_rcc_ex.c ****   __HAL_RCC_WAKEUPSTOP_CLK_CONFIG(WakeUpClk);
1251:Drivers/STM32U0xx_HAL_Driver/Src/stm32u0xx_hal_rcc_ex.c **** }
1252:Drivers/STM32U0xx_HAL_Driver/Src/stm32u0xx_hal_rcc_ex.c **** 
1253:Drivers/STM32U0xx_HAL_Driver/Src/stm32u0xx_hal_rcc_ex.c **** /**
1254:Drivers/STM32U0xx_HAL_Driver/Src/stm32u0xx_hal_rcc_ex.c ****   * @brief  Configure the MSI range after standby mode.
1255:Drivers/STM32U0xx_HAL_Driver/Src/stm32u0xx_hal_rcc_ex.c ****   * @note   After Standby its frequency can be selected between 3 possible values (1, 3.072 or 4 MH
1256:Drivers/STM32U0xx_HAL_Driver/Src/stm32u0xx_hal_rcc_ex.c ****   * @param  MSIRange  MSI range
1257:Drivers/STM32U0xx_HAL_Driver/Src/stm32u0xx_hal_rcc_ex.c ****   *         This parameter can be one of the following values:
1258:Drivers/STM32U0xx_HAL_Driver/Src/stm32u0xx_hal_rcc_ex.c ****   *            @arg @ref RCC_MSIRANGE_4  Range 4 around 4 MHz (reset value)
1259:Drivers/STM32U0xx_HAL_Driver/Src/stm32u0xx_hal_rcc_ex.c ****   *            @arg @ref RCC_MSIRANGE_5  Range 5 around 2 MHz
1260:Drivers/STM32U0xx_HAL_Driver/Src/stm32u0xx_hal_rcc_ex.c ****   *            @arg @ref RCC_MSIRANGE_6  Range 6 around 1.5 MHz
1261:Drivers/STM32U0xx_HAL_Driver/Src/stm32u0xx_hal_rcc_ex.c ****   *            @arg @ref RCC_MSIRANGE_7  Range 7 around 1 MHz
1262:Drivers/STM32U0xx_HAL_Driver/Src/stm32u0xx_hal_rcc_ex.c ****   * @retval None
1263:Drivers/STM32U0xx_HAL_Driver/Src/stm32u0xx_hal_rcc_ex.c ****   */
1264:Drivers/STM32U0xx_HAL_Driver/Src/stm32u0xx_hal_rcc_ex.c **** void HAL_RCCEx_StandbyMSIRangeConfig(uint32_t MSIRange)
1265:Drivers/STM32U0xx_HAL_Driver/Src/stm32u0xx_hal_rcc_ex.c **** {
1266:Drivers/STM32U0xx_HAL_Driver/Src/stm32u0xx_hal_rcc_ex.c ****   assert_param(IS_RCC_MSI_STANDBY_CLOCK_RANGE(MSIRange));
1267:Drivers/STM32U0xx_HAL_Driver/Src/stm32u0xx_hal_rcc_ex.c **** 
1268:Drivers/STM32U0xx_HAL_Driver/Src/stm32u0xx_hal_rcc_ex.c ****   __HAL_RCC_MSI_STANDBY_RANGE_CONFIG(MSIRange);
1269:Drivers/STM32U0xx_HAL_Driver/Src/stm32u0xx_hal_rcc_ex.c **** }
1270:Drivers/STM32U0xx_HAL_Driver/Src/stm32u0xx_hal_rcc_ex.c **** 
1271:Drivers/STM32U0xx_HAL_Driver/Src/stm32u0xx_hal_rcc_ex.c **** /**
1272:Drivers/STM32U0xx_HAL_Driver/Src/stm32u0xx_hal_rcc_ex.c ****   * @brief  Enable the PLL-mode of the MSI.
1273:Drivers/STM32U0xx_HAL_Driver/Src/stm32u0xx_hal_rcc_ex.c ****   * @note   Prior to enable the PLL-mode of the MSI for automatic hardware
1274:Drivers/STM32U0xx_HAL_Driver/Src/stm32u0xx_hal_rcc_ex.c ****   *         calibration LSE oscillator is to be enabled with HAL_RCC_OscConfig().
1275:Drivers/STM32U0xx_HAL_Driver/Src/stm32u0xx_hal_rcc_ex.c ****   * @retval None
1276:Drivers/STM32U0xx_HAL_Driver/Src/stm32u0xx_hal_rcc_ex.c ****   */
1277:Drivers/STM32U0xx_HAL_Driver/Src/stm32u0xx_hal_rcc_ex.c **** void HAL_RCCEx_EnableMSIPLLMode(void)
1278:Drivers/STM32U0xx_HAL_Driver/Src/stm32u0xx_hal_rcc_ex.c **** {
1279:Drivers/STM32U0xx_HAL_Driver/Src/stm32u0xx_hal_rcc_ex.c ****   SET_BIT(RCC->CR, RCC_CR_MSIPLLEN);
1280:Drivers/STM32U0xx_HAL_Driver/Src/stm32u0xx_hal_rcc_ex.c **** }
1281:Drivers/STM32U0xx_HAL_Driver/Src/stm32u0xx_hal_rcc_ex.c **** 
ARM GAS  C:\Users\upo\AppData\Local\Temp\ccMLO1b7.s 			page 66


1282:Drivers/STM32U0xx_HAL_Driver/Src/stm32u0xx_hal_rcc_ex.c **** /**
1283:Drivers/STM32U0xx_HAL_Driver/Src/stm32u0xx_hal_rcc_ex.c ****   * @brief  Disable the PLL-mode of the MSI.
1284:Drivers/STM32U0xx_HAL_Driver/Src/stm32u0xx_hal_rcc_ex.c ****   * @note   PLL-mode of the MSI is automatically reset when LSE oscillator is disabled.
1285:Drivers/STM32U0xx_HAL_Driver/Src/stm32u0xx_hal_rcc_ex.c ****   * @retval None
1286:Drivers/STM32U0xx_HAL_Driver/Src/stm32u0xx_hal_rcc_ex.c ****   */
1287:Drivers/STM32U0xx_HAL_Driver/Src/stm32u0xx_hal_rcc_ex.c **** void HAL_RCCEx_DisableMSIPLLMode(void)
1288:Drivers/STM32U0xx_HAL_Driver/Src/stm32u0xx_hal_rcc_ex.c **** {
1289:Drivers/STM32U0xx_HAL_Driver/Src/stm32u0xx_hal_rcc_ex.c ****   CLEAR_BIT(RCC->CR, RCC_CR_MSIPLLEN);
1290:Drivers/STM32U0xx_HAL_Driver/Src/stm32u0xx_hal_rcc_ex.c **** }
1291:Drivers/STM32U0xx_HAL_Driver/Src/stm32u0xx_hal_rcc_ex.c **** 
1292:Drivers/STM32U0xx_HAL_Driver/Src/stm32u0xx_hal_rcc_ex.c **** /**
1293:Drivers/STM32U0xx_HAL_Driver/Src/stm32u0xx_hal_rcc_ex.c ****   * @brief  Enables the LSE Clock Security System.
1294:Drivers/STM32U0xx_HAL_Driver/Src/stm32u0xx_hal_rcc_ex.c ****   * @retval None
1295:Drivers/STM32U0xx_HAL_Driver/Src/stm32u0xx_hal_rcc_ex.c ****   */
1296:Drivers/STM32U0xx_HAL_Driver/Src/stm32u0xx_hal_rcc_ex.c **** void HAL_RCCEx_EnableLSECSS(void)
1297:Drivers/STM32U0xx_HAL_Driver/Src/stm32u0xx_hal_rcc_ex.c **** {
1298:Drivers/STM32U0xx_HAL_Driver/Src/stm32u0xx_hal_rcc_ex.c ****   SET_BIT(RCC->BDCR, RCC_BDCR_LSECSSON) ;
1299:Drivers/STM32U0xx_HAL_Driver/Src/stm32u0xx_hal_rcc_ex.c **** }
1300:Drivers/STM32U0xx_HAL_Driver/Src/stm32u0xx_hal_rcc_ex.c **** 
1301:Drivers/STM32U0xx_HAL_Driver/Src/stm32u0xx_hal_rcc_ex.c **** /**
1302:Drivers/STM32U0xx_HAL_Driver/Src/stm32u0xx_hal_rcc_ex.c ****   * @brief  Disables the LSE Clock Security System.
1303:Drivers/STM32U0xx_HAL_Driver/Src/stm32u0xx_hal_rcc_ex.c ****   * @note   Once enabled this bit cannot be disabled, except after an LSE failure detection
1304:Drivers/STM32U0xx_HAL_Driver/Src/stm32u0xx_hal_rcc_ex.c ****   *         (LSECSSD=1). In that case the software MUST disable the LSECSSON bit.
1305:Drivers/STM32U0xx_HAL_Driver/Src/stm32u0xx_hal_rcc_ex.c ****   *         Reset by power on reset and RTC software reset (RTCRST bit).
1306:Drivers/STM32U0xx_HAL_Driver/Src/stm32u0xx_hal_rcc_ex.c ****   * @retval None
1307:Drivers/STM32U0xx_HAL_Driver/Src/stm32u0xx_hal_rcc_ex.c ****   */
1308:Drivers/STM32U0xx_HAL_Driver/Src/stm32u0xx_hal_rcc_ex.c **** void HAL_RCCEx_DisableLSECSS(void)
1309:Drivers/STM32U0xx_HAL_Driver/Src/stm32u0xx_hal_rcc_ex.c **** {
1310:Drivers/STM32U0xx_HAL_Driver/Src/stm32u0xx_hal_rcc_ex.c ****   /* Disable LSE CSS */
1311:Drivers/STM32U0xx_HAL_Driver/Src/stm32u0xx_hal_rcc_ex.c ****   CLEAR_BIT(RCC->BDCR, RCC_BDCR_LSECSSON) ;
1312:Drivers/STM32U0xx_HAL_Driver/Src/stm32u0xx_hal_rcc_ex.c **** }
1313:Drivers/STM32U0xx_HAL_Driver/Src/stm32u0xx_hal_rcc_ex.c **** 
1314:Drivers/STM32U0xx_HAL_Driver/Src/stm32u0xx_hal_rcc_ex.c **** /**
1315:Drivers/STM32U0xx_HAL_Driver/Src/stm32u0xx_hal_rcc_ex.c ****   * @brief  Enable the LSE Clock Security System IT & corresponding EXTI line.
1316:Drivers/STM32U0xx_HAL_Driver/Src/stm32u0xx_hal_rcc_ex.c ****   * @note   LSE Clock Security System IT is mapped on RTC EXTI line 27
1317:Drivers/STM32U0xx_HAL_Driver/Src/stm32u0xx_hal_rcc_ex.c ****   * @retval None
1318:Drivers/STM32U0xx_HAL_Driver/Src/stm32u0xx_hal_rcc_ex.c ****   */
1319:Drivers/STM32U0xx_HAL_Driver/Src/stm32u0xx_hal_rcc_ex.c **** void HAL_RCCEx_EnableLSECSS_IT(void)
1320:Drivers/STM32U0xx_HAL_Driver/Src/stm32u0xx_hal_rcc_ex.c **** {
1321:Drivers/STM32U0xx_HAL_Driver/Src/stm32u0xx_hal_rcc_ex.c ****   /* Enable LSE CSS */
1322:Drivers/STM32U0xx_HAL_Driver/Src/stm32u0xx_hal_rcc_ex.c ****   SET_BIT(RCC->BDCR, RCC_BDCR_LSECSSON) ;
1323:Drivers/STM32U0xx_HAL_Driver/Src/stm32u0xx_hal_rcc_ex.c ****   /* Enable LSE CSS IT */
1324:Drivers/STM32U0xx_HAL_Driver/Src/stm32u0xx_hal_rcc_ex.c ****   __HAL_RCC_ENABLE_IT(RCC_IT_LSECSS);
1325:Drivers/STM32U0xx_HAL_Driver/Src/stm32u0xx_hal_rcc_ex.c ****   /* Enable IT on EXTI Line 27 */
1326:Drivers/STM32U0xx_HAL_Driver/Src/stm32u0xx_hal_rcc_ex.c ****   __HAL_RCC_LSECSS_EXTI_ENABLE_IT();
1327:Drivers/STM32U0xx_HAL_Driver/Src/stm32u0xx_hal_rcc_ex.c ****   __HAL_RCC_LSECSS_EXTI_ENABLE_RISING_EDGE();
1328:Drivers/STM32U0xx_HAL_Driver/Src/stm32u0xx_hal_rcc_ex.c **** }
1329:Drivers/STM32U0xx_HAL_Driver/Src/stm32u0xx_hal_rcc_ex.c **** 
1330:Drivers/STM32U0xx_HAL_Driver/Src/stm32u0xx_hal_rcc_ex.c **** /**
1331:Drivers/STM32U0xx_HAL_Driver/Src/stm32u0xx_hal_rcc_ex.c ****   * @brief Handle the RCC LSE Clock Security System interrupt request.
1332:Drivers/STM32U0xx_HAL_Driver/Src/stm32u0xx_hal_rcc_ex.c ****   * @retval None
1333:Drivers/STM32U0xx_HAL_Driver/Src/stm32u0xx_hal_rcc_ex.c ****   */
1334:Drivers/STM32U0xx_HAL_Driver/Src/stm32u0xx_hal_rcc_ex.c **** void HAL_RCCEx_LSECSS_IRQHandler(void)
1335:Drivers/STM32U0xx_HAL_Driver/Src/stm32u0xx_hal_rcc_ex.c **** {
1336:Drivers/STM32U0xx_HAL_Driver/Src/stm32u0xx_hal_rcc_ex.c ****   /* Check RCC LSE CSSF flag  */
1337:Drivers/STM32U0xx_HAL_Driver/Src/stm32u0xx_hal_rcc_ex.c ****   if (__HAL_RCC_GET_IT(RCC_IT_LSECSS))
1338:Drivers/STM32U0xx_HAL_Driver/Src/stm32u0xx_hal_rcc_ex.c ****   {
ARM GAS  C:\Users\upo\AppData\Local\Temp\ccMLO1b7.s 			page 67


1339:Drivers/STM32U0xx_HAL_Driver/Src/stm32u0xx_hal_rcc_ex.c ****     /* RCC LSE Clock Security System interrupt user callback */
1340:Drivers/STM32U0xx_HAL_Driver/Src/stm32u0xx_hal_rcc_ex.c ****     HAL_RCCEx_LSECSS_Callback();
1341:Drivers/STM32U0xx_HAL_Driver/Src/stm32u0xx_hal_rcc_ex.c **** 
1342:Drivers/STM32U0xx_HAL_Driver/Src/stm32u0xx_hal_rcc_ex.c ****     /* Clear RCC LSE CSS pending bit */
1343:Drivers/STM32U0xx_HAL_Driver/Src/stm32u0xx_hal_rcc_ex.c ****     __HAL_RCC_CLEAR_IT(RCC_IT_LSECSS);
1344:Drivers/STM32U0xx_HAL_Driver/Src/stm32u0xx_hal_rcc_ex.c ****   }
1345:Drivers/STM32U0xx_HAL_Driver/Src/stm32u0xx_hal_rcc_ex.c **** }
1346:Drivers/STM32U0xx_HAL_Driver/Src/stm32u0xx_hal_rcc_ex.c **** 
1347:Drivers/STM32U0xx_HAL_Driver/Src/stm32u0xx_hal_rcc_ex.c **** /**
1348:Drivers/STM32U0xx_HAL_Driver/Src/stm32u0xx_hal_rcc_ex.c ****   * @brief  RCCEx LSE Clock Security System interrupt callback.
1349:Drivers/STM32U0xx_HAL_Driver/Src/stm32u0xx_hal_rcc_ex.c ****   * @retval none
1350:Drivers/STM32U0xx_HAL_Driver/Src/stm32u0xx_hal_rcc_ex.c ****   */
1351:Drivers/STM32U0xx_HAL_Driver/Src/stm32u0xx_hal_rcc_ex.c **** __weak void HAL_RCCEx_LSECSS_Callback(void)
1352:Drivers/STM32U0xx_HAL_Driver/Src/stm32u0xx_hal_rcc_ex.c **** {
1353:Drivers/STM32U0xx_HAL_Driver/Src/stm32u0xx_hal_rcc_ex.c ****   /* NOTE : This function should not be modified, when the callback is needed,
1354:Drivers/STM32U0xx_HAL_Driver/Src/stm32u0xx_hal_rcc_ex.c ****             the @ref HAL_RCCEx_LSECSS_Callback should be implemented in the user file
1355:Drivers/STM32U0xx_HAL_Driver/Src/stm32u0xx_hal_rcc_ex.c ****    */
1356:Drivers/STM32U0xx_HAL_Driver/Src/stm32u0xx_hal_rcc_ex.c **** }
1357:Drivers/STM32U0xx_HAL_Driver/Src/stm32u0xx_hal_rcc_ex.c **** 
1358:Drivers/STM32U0xx_HAL_Driver/Src/stm32u0xx_hal_rcc_ex.c **** /**
1359:Drivers/STM32U0xx_HAL_Driver/Src/stm32u0xx_hal_rcc_ex.c ****   * @brief  Select the Low Speed clock source to output on LSCO pin (PA2).
1360:Drivers/STM32U0xx_HAL_Driver/Src/stm32u0xx_hal_rcc_ex.c ****   * @param  LSCOSource  specifies the Low Speed clock source to output.
1361:Drivers/STM32U0xx_HAL_Driver/Src/stm32u0xx_hal_rcc_ex.c ****   *          This parameter can be one of the following values:
1362:Drivers/STM32U0xx_HAL_Driver/Src/stm32u0xx_hal_rcc_ex.c ****   *            @arg @ref RCC_LSCOSOURCE_LSI  LSI clock selected as LSCO source
1363:Drivers/STM32U0xx_HAL_Driver/Src/stm32u0xx_hal_rcc_ex.c ****   *            @arg @ref RCC_LSCOSOURCE_LSE  LSE clock selected as LSCO source
1364:Drivers/STM32U0xx_HAL_Driver/Src/stm32u0xx_hal_rcc_ex.c ****   * @retval None
1365:Drivers/STM32U0xx_HAL_Driver/Src/stm32u0xx_hal_rcc_ex.c ****   */
1366:Drivers/STM32U0xx_HAL_Driver/Src/stm32u0xx_hal_rcc_ex.c **** void HAL_RCCEx_EnableLSCO(uint32_t LSCOSource)
1367:Drivers/STM32U0xx_HAL_Driver/Src/stm32u0xx_hal_rcc_ex.c **** {
1368:Drivers/STM32U0xx_HAL_Driver/Src/stm32u0xx_hal_rcc_ex.c ****   GPIO_InitTypeDef GPIO_InitStruct = {0};
1369:Drivers/STM32U0xx_HAL_Driver/Src/stm32u0xx_hal_rcc_ex.c ****   FlagStatus       pwrclkchanged = RESET;
1370:Drivers/STM32U0xx_HAL_Driver/Src/stm32u0xx_hal_rcc_ex.c ****   FlagStatus       backupchanged = RESET;
1371:Drivers/STM32U0xx_HAL_Driver/Src/stm32u0xx_hal_rcc_ex.c **** 
1372:Drivers/STM32U0xx_HAL_Driver/Src/stm32u0xx_hal_rcc_ex.c ****   /* Check the parameters */
1373:Drivers/STM32U0xx_HAL_Driver/Src/stm32u0xx_hal_rcc_ex.c ****   assert_param(IS_RCC_LSCOSOURCE(LSCOSource));
1374:Drivers/STM32U0xx_HAL_Driver/Src/stm32u0xx_hal_rcc_ex.c **** 
1375:Drivers/STM32U0xx_HAL_Driver/Src/stm32u0xx_hal_rcc_ex.c ****   /* LSCO Pin Clock Enable */
1376:Drivers/STM32U0xx_HAL_Driver/Src/stm32u0xx_hal_rcc_ex.c ****   __LSCO_CLK_ENABLE();
1377:Drivers/STM32U0xx_HAL_Driver/Src/stm32u0xx_hal_rcc_ex.c **** #if defined (LSCO_PIN)
1378:Drivers/STM32U0xx_HAL_Driver/Src/stm32u0xx_hal_rcc_ex.c ****   /* Configure the LSCO pin in analog mode */
1379:Drivers/STM32U0xx_HAL_Driver/Src/stm32u0xx_hal_rcc_ex.c ****   GPIO_InitStruct.Pin = LSCO_PIN;
1380:Drivers/STM32U0xx_HAL_Driver/Src/stm32u0xx_hal_rcc_ex.c ****   GPIO_InitStruct.Mode = GPIO_MODE_ANALOG;
