ARM GAS  C:\Users\upo\AppData\Local\Temp\cc4cKwHi.s 			page 1


   1              		.cpu cortex-m0plus
   2              		.arch armv6s-m
   3              		.fpu softvfp
   4              		.eabi_attribute 20, 1
   5              		.eabi_attribute 21, 1
   6              		.eabi_attribute 23, 3
   7              		.eabi_attribute 24, 1
   8              		.eabi_attribute 25, 1
   9              		.eabi_attribute 26, 1
  10              		.eabi_attribute 30, 2
  11              		.eabi_attribute 34, 0
  12              		.eabi_attribute 18, 4
  13              		.file	"stm32u0xx_hal_exti.c"
  14              		.text
  15              	.Ltext0:
  16              		.cfi_sections	.debug_frame
  17              		.file 1 "Drivers/STM32U0xx_HAL_Driver/Src/stm32u0xx_hal_exti.c"
  18              		.section	.text.HAL_EXTI_SetConfigLine,"ax",%progbits
  19              		.align	1
  20              		.p2align 2,,3
  21              		.global	HAL_EXTI_SetConfigLine
  22              		.syntax unified
  23              		.code	16
  24              		.thumb_func
  26              	HAL_EXTI_SetConfigLine:
  27              	.LVL0:
  28              	.LFB334:
   1:Drivers/STM32U0xx_HAL_Driver/Src/stm32u0xx_hal_exti.c **** /**
   2:Drivers/STM32U0xx_HAL_Driver/Src/stm32u0xx_hal_exti.c ****   ******************************************************************************
   3:Drivers/STM32U0xx_HAL_Driver/Src/stm32u0xx_hal_exti.c ****   * @file    stm32u0xx_hal_exti.c
   4:Drivers/STM32U0xx_HAL_Driver/Src/stm32u0xx_hal_exti.c ****   * @author  MCD Application Team
   5:Drivers/STM32U0xx_HAL_Driver/Src/stm32u0xx_hal_exti.c ****   * @brief   EXTI HAL module driver.
   6:Drivers/STM32U0xx_HAL_Driver/Src/stm32u0xx_hal_exti.c ****   *          This file provides firmware functions to manage the following
   7:Drivers/STM32U0xx_HAL_Driver/Src/stm32u0xx_hal_exti.c ****   *          functionalities of the General Purpose Input/Output (EXTI) peripheral:
   8:Drivers/STM32U0xx_HAL_Driver/Src/stm32u0xx_hal_exti.c ****   *           + Initialization and de-initialization functions
   9:Drivers/STM32U0xx_HAL_Driver/Src/stm32u0xx_hal_exti.c ****   *           + IO operation functions
  10:Drivers/STM32U0xx_HAL_Driver/Src/stm32u0xx_hal_exti.c ****   *
  11:Drivers/STM32U0xx_HAL_Driver/Src/stm32u0xx_hal_exti.c ****   @verbatim
  12:Drivers/STM32U0xx_HAL_Driver/Src/stm32u0xx_hal_exti.c ****   ==============================================================================
  13:Drivers/STM32U0xx_HAL_Driver/Src/stm32u0xx_hal_exti.c ****                     ##### EXTI Peripheral features #####
  14:Drivers/STM32U0xx_HAL_Driver/Src/stm32u0xx_hal_exti.c ****   ==============================================================================
  15:Drivers/STM32U0xx_HAL_Driver/Src/stm32u0xx_hal_exti.c ****   [..]
  16:Drivers/STM32U0xx_HAL_Driver/Src/stm32u0xx_hal_exti.c ****     (+) Each Exti line can be configured within this driver.
  17:Drivers/STM32U0xx_HAL_Driver/Src/stm32u0xx_hal_exti.c **** 
  18:Drivers/STM32U0xx_HAL_Driver/Src/stm32u0xx_hal_exti.c ****     (+) Exti line can be configured in 3 different modes
  19:Drivers/STM32U0xx_HAL_Driver/Src/stm32u0xx_hal_exti.c ****         (++) Interrupt
  20:Drivers/STM32U0xx_HAL_Driver/Src/stm32u0xx_hal_exti.c ****         (++) Event
  21:Drivers/STM32U0xx_HAL_Driver/Src/stm32u0xx_hal_exti.c ****         (++) Both of them
  22:Drivers/STM32U0xx_HAL_Driver/Src/stm32u0xx_hal_exti.c **** 
  23:Drivers/STM32U0xx_HAL_Driver/Src/stm32u0xx_hal_exti.c ****     (+) Configurable Exti lines can be configured with 3 different triggers
  24:Drivers/STM32U0xx_HAL_Driver/Src/stm32u0xx_hal_exti.c ****         (++) Rising
  25:Drivers/STM32U0xx_HAL_Driver/Src/stm32u0xx_hal_exti.c ****         (++) Falling
  26:Drivers/STM32U0xx_HAL_Driver/Src/stm32u0xx_hal_exti.c ****         (++) Both of them
  27:Drivers/STM32U0xx_HAL_Driver/Src/stm32u0xx_hal_exti.c **** 
  28:Drivers/STM32U0xx_HAL_Driver/Src/stm32u0xx_hal_exti.c ****     (+) When set in interrupt mode, configurable Exti lines have two diffenrents
  29:Drivers/STM32U0xx_HAL_Driver/Src/stm32u0xx_hal_exti.c ****         interrupt pending registers which allow to distinguish which transition
  30:Drivers/STM32U0xx_HAL_Driver/Src/stm32u0xx_hal_exti.c ****         occurs:
ARM GAS  C:\Users\upo\AppData\Local\Temp\cc4cKwHi.s 			page 2


  31:Drivers/STM32U0xx_HAL_Driver/Src/stm32u0xx_hal_exti.c ****         (++) Rising edge pending interrupt
  32:Drivers/STM32U0xx_HAL_Driver/Src/stm32u0xx_hal_exti.c ****         (++) Falling
  33:Drivers/STM32U0xx_HAL_Driver/Src/stm32u0xx_hal_exti.c **** 
  34:Drivers/STM32U0xx_HAL_Driver/Src/stm32u0xx_hal_exti.c ****     (+) Exti lines 0 to 15 are linked to gpio pin number 0 to 15. Gpio port can
  35:Drivers/STM32U0xx_HAL_Driver/Src/stm32u0xx_hal_exti.c ****         be selected through multiplexer.
  36:Drivers/STM32U0xx_HAL_Driver/Src/stm32u0xx_hal_exti.c **** 
  37:Drivers/STM32U0xx_HAL_Driver/Src/stm32u0xx_hal_exti.c ****                      ##### How to use this driver #####
  38:Drivers/STM32U0xx_HAL_Driver/Src/stm32u0xx_hal_exti.c ****   ==============================================================================
  39:Drivers/STM32U0xx_HAL_Driver/Src/stm32u0xx_hal_exti.c ****   [..]
  40:Drivers/STM32U0xx_HAL_Driver/Src/stm32u0xx_hal_exti.c **** 
  41:Drivers/STM32U0xx_HAL_Driver/Src/stm32u0xx_hal_exti.c ****     (#) Configure the EXTI line using HAL_EXTI_SetConfigLine().
  42:Drivers/STM32U0xx_HAL_Driver/Src/stm32u0xx_hal_exti.c ****         (++) Choose the interrupt line number by setting "Line" member from
  43:Drivers/STM32U0xx_HAL_Driver/Src/stm32u0xx_hal_exti.c ****              EXTI_ConfigTypeDef structure.
  44:Drivers/STM32U0xx_HAL_Driver/Src/stm32u0xx_hal_exti.c ****         (++) Configure the interrupt and/or event mode using "Mode" member from
  45:Drivers/STM32U0xx_HAL_Driver/Src/stm32u0xx_hal_exti.c ****              EXTI_ConfigTypeDef structure.
  46:Drivers/STM32U0xx_HAL_Driver/Src/stm32u0xx_hal_exti.c ****         (++) For configurable lines, configure rising and/or falling trigger
  47:Drivers/STM32U0xx_HAL_Driver/Src/stm32u0xx_hal_exti.c ****              "Trigger" member from EXTI_ConfigTypeDef structure.
  48:Drivers/STM32U0xx_HAL_Driver/Src/stm32u0xx_hal_exti.c ****         (++) For Exti lines linked to gpio, choose gpio port using "GPIOSel"
  49:Drivers/STM32U0xx_HAL_Driver/Src/stm32u0xx_hal_exti.c ****              member from GPIO_InitTypeDef structure.
  50:Drivers/STM32U0xx_HAL_Driver/Src/stm32u0xx_hal_exti.c **** 
  51:Drivers/STM32U0xx_HAL_Driver/Src/stm32u0xx_hal_exti.c ****     (#) Get current Exti configuration of a dedicated line using
  52:Drivers/STM32U0xx_HAL_Driver/Src/stm32u0xx_hal_exti.c ****         HAL_EXTI_GetConfigLine().
  53:Drivers/STM32U0xx_HAL_Driver/Src/stm32u0xx_hal_exti.c ****         (++) Provide exiting handle as parameter.
  54:Drivers/STM32U0xx_HAL_Driver/Src/stm32u0xx_hal_exti.c ****         (++) Provide pointer on EXTI_ConfigTypeDef structure as second parameter.
  55:Drivers/STM32U0xx_HAL_Driver/Src/stm32u0xx_hal_exti.c **** 
  56:Drivers/STM32U0xx_HAL_Driver/Src/stm32u0xx_hal_exti.c ****     (#) Clear Exti configuration of a dedicated line using HAL_EXTI_GetConfigLine().
  57:Drivers/STM32U0xx_HAL_Driver/Src/stm32u0xx_hal_exti.c ****         (++) Provide exiting handle as parameter.
  58:Drivers/STM32U0xx_HAL_Driver/Src/stm32u0xx_hal_exti.c **** 
  59:Drivers/STM32U0xx_HAL_Driver/Src/stm32u0xx_hal_exti.c ****     (#) Register callback to treat Exti interrupts using HAL_EXTI_RegisterCallback().
  60:Drivers/STM32U0xx_HAL_Driver/Src/stm32u0xx_hal_exti.c ****         (++) Provide exiting handle as first parameter.
  61:Drivers/STM32U0xx_HAL_Driver/Src/stm32u0xx_hal_exti.c ****         (++) Provide which callback will be registered using one value from
  62:Drivers/STM32U0xx_HAL_Driver/Src/stm32u0xx_hal_exti.c ****              EXTI_CallbackIDTypeDef.
  63:Drivers/STM32U0xx_HAL_Driver/Src/stm32u0xx_hal_exti.c ****         (++) Provide callback function pointer.
  64:Drivers/STM32U0xx_HAL_Driver/Src/stm32u0xx_hal_exti.c **** 
  65:Drivers/STM32U0xx_HAL_Driver/Src/stm32u0xx_hal_exti.c ****     (#) Get interrupt pending bit using HAL_EXTI_GetPending().
  66:Drivers/STM32U0xx_HAL_Driver/Src/stm32u0xx_hal_exti.c **** 
  67:Drivers/STM32U0xx_HAL_Driver/Src/stm32u0xx_hal_exti.c ****     (#) Clear interrupt pending bit using HAL_EXTI_GetPending().
  68:Drivers/STM32U0xx_HAL_Driver/Src/stm32u0xx_hal_exti.c **** 
  69:Drivers/STM32U0xx_HAL_Driver/Src/stm32u0xx_hal_exti.c ****     (#) Generate software interrupt using HAL_EXTI_GenerateSWI().
  70:Drivers/STM32U0xx_HAL_Driver/Src/stm32u0xx_hal_exti.c **** 
  71:Drivers/STM32U0xx_HAL_Driver/Src/stm32u0xx_hal_exti.c ****   @endverbatim
  72:Drivers/STM32U0xx_HAL_Driver/Src/stm32u0xx_hal_exti.c ****   ******************************************************************************
  73:Drivers/STM32U0xx_HAL_Driver/Src/stm32u0xx_hal_exti.c ****   * @attention
  74:Drivers/STM32U0xx_HAL_Driver/Src/stm32u0xx_hal_exti.c ****   *
  75:Drivers/STM32U0xx_HAL_Driver/Src/stm32u0xx_hal_exti.c ****   * Copyright (c) 2023 STMicroelectronics.
  76:Drivers/STM32U0xx_HAL_Driver/Src/stm32u0xx_hal_exti.c ****   * All rights reserved.
  77:Drivers/STM32U0xx_HAL_Driver/Src/stm32u0xx_hal_exti.c ****   *
  78:Drivers/STM32U0xx_HAL_Driver/Src/stm32u0xx_hal_exti.c ****   * This software is licensed under terms that can be found in the LICENSE file
  79:Drivers/STM32U0xx_HAL_Driver/Src/stm32u0xx_hal_exti.c ****   * in the root directory of this software component.
  80:Drivers/STM32U0xx_HAL_Driver/Src/stm32u0xx_hal_exti.c ****   * If no LICENSE file comes with this software, it is provided AS-IS.
  81:Drivers/STM32U0xx_HAL_Driver/Src/stm32u0xx_hal_exti.c ****   *
  82:Drivers/STM32U0xx_HAL_Driver/Src/stm32u0xx_hal_exti.c ****   ******************************************************************************
  83:Drivers/STM32U0xx_HAL_Driver/Src/stm32u0xx_hal_exti.c ****   */
  84:Drivers/STM32U0xx_HAL_Driver/Src/stm32u0xx_hal_exti.c **** 
  85:Drivers/STM32U0xx_HAL_Driver/Src/stm32u0xx_hal_exti.c **** /* Includes ------------------------------------------------------------------*/
  86:Drivers/STM32U0xx_HAL_Driver/Src/stm32u0xx_hal_exti.c **** #include "stm32u0xx_hal.h"
  87:Drivers/STM32U0xx_HAL_Driver/Src/stm32u0xx_hal_exti.c **** 
ARM GAS  C:\Users\upo\AppData\Local\Temp\cc4cKwHi.s 			page 3


  88:Drivers/STM32U0xx_HAL_Driver/Src/stm32u0xx_hal_exti.c **** /** @addtogroup STM32U0xx_HAL_Driver
  89:Drivers/STM32U0xx_HAL_Driver/Src/stm32u0xx_hal_exti.c ****   * @{
  90:Drivers/STM32U0xx_HAL_Driver/Src/stm32u0xx_hal_exti.c ****   */
  91:Drivers/STM32U0xx_HAL_Driver/Src/stm32u0xx_hal_exti.c **** 
  92:Drivers/STM32U0xx_HAL_Driver/Src/stm32u0xx_hal_exti.c **** /** @addtogroup EXTI
  93:Drivers/STM32U0xx_HAL_Driver/Src/stm32u0xx_hal_exti.c ****   * @{
  94:Drivers/STM32U0xx_HAL_Driver/Src/stm32u0xx_hal_exti.c ****   */
  95:Drivers/STM32U0xx_HAL_Driver/Src/stm32u0xx_hal_exti.c **** 
  96:Drivers/STM32U0xx_HAL_Driver/Src/stm32u0xx_hal_exti.c **** #ifdef HAL_EXTI_MODULE_ENABLED
  97:Drivers/STM32U0xx_HAL_Driver/Src/stm32u0xx_hal_exti.c **** 
  98:Drivers/STM32U0xx_HAL_Driver/Src/stm32u0xx_hal_exti.c **** /* Private typedef -----------------------------------------------------------*/
  99:Drivers/STM32U0xx_HAL_Driver/Src/stm32u0xx_hal_exti.c **** /* Private defines ------------------------------------------------------------*/
 100:Drivers/STM32U0xx_HAL_Driver/Src/stm32u0xx_hal_exti.c **** /** @defgroup EXTI_Private_Constants EXTI Private Constants
 101:Drivers/STM32U0xx_HAL_Driver/Src/stm32u0xx_hal_exti.c ****   * @{
 102:Drivers/STM32U0xx_HAL_Driver/Src/stm32u0xx_hal_exti.c ****   */
 103:Drivers/STM32U0xx_HAL_Driver/Src/stm32u0xx_hal_exti.c **** #define EXTI_MODE_OFFSET                    0x04U   /* byte offset between CPU IMR/EMR registers */
 104:Drivers/STM32U0xx_HAL_Driver/Src/stm32u0xx_hal_exti.c **** #define EXTI_CONFIG_OFFSET                  0x08U   /* byte offset between Rising/Falling configura
 105:Drivers/STM32U0xx_HAL_Driver/Src/stm32u0xx_hal_exti.c **** /**
 106:Drivers/STM32U0xx_HAL_Driver/Src/stm32u0xx_hal_exti.c ****   * @}
 107:Drivers/STM32U0xx_HAL_Driver/Src/stm32u0xx_hal_exti.c ****   */
 108:Drivers/STM32U0xx_HAL_Driver/Src/stm32u0xx_hal_exti.c **** 
 109:Drivers/STM32U0xx_HAL_Driver/Src/stm32u0xx_hal_exti.c **** /* Private macros ------------------------------------------------------------*/
 110:Drivers/STM32U0xx_HAL_Driver/Src/stm32u0xx_hal_exti.c **** /* Private variables ---------------------------------------------------------*/
 111:Drivers/STM32U0xx_HAL_Driver/Src/stm32u0xx_hal_exti.c **** /* Private function prototypes -----------------------------------------------*/
 112:Drivers/STM32U0xx_HAL_Driver/Src/stm32u0xx_hal_exti.c **** /* Exported functions --------------------------------------------------------*/
 113:Drivers/STM32U0xx_HAL_Driver/Src/stm32u0xx_hal_exti.c **** 
 114:Drivers/STM32U0xx_HAL_Driver/Src/stm32u0xx_hal_exti.c **** /** @addtogroup EXTI_Exported_Functions
 115:Drivers/STM32U0xx_HAL_Driver/Src/stm32u0xx_hal_exti.c ****   * @{
 116:Drivers/STM32U0xx_HAL_Driver/Src/stm32u0xx_hal_exti.c ****   */
 117:Drivers/STM32U0xx_HAL_Driver/Src/stm32u0xx_hal_exti.c **** 
 118:Drivers/STM32U0xx_HAL_Driver/Src/stm32u0xx_hal_exti.c **** /** @addtogroup EXTI_Exported_Functions_Group1
 119:Drivers/STM32U0xx_HAL_Driver/Src/stm32u0xx_hal_exti.c ****   *  @brief    Configuration functions
 120:Drivers/STM32U0xx_HAL_Driver/Src/stm32u0xx_hal_exti.c ****   *
 121:Drivers/STM32U0xx_HAL_Driver/Src/stm32u0xx_hal_exti.c **** @verbatim
 122:Drivers/STM32U0xx_HAL_Driver/Src/stm32u0xx_hal_exti.c ****  ===============================================================================
 123:Drivers/STM32U0xx_HAL_Driver/Src/stm32u0xx_hal_exti.c ****               ##### Configuration functions #####
 124:Drivers/STM32U0xx_HAL_Driver/Src/stm32u0xx_hal_exti.c ****  ===============================================================================
 125:Drivers/STM32U0xx_HAL_Driver/Src/stm32u0xx_hal_exti.c **** 
 126:Drivers/STM32U0xx_HAL_Driver/Src/stm32u0xx_hal_exti.c **** @endverbatim
 127:Drivers/STM32U0xx_HAL_Driver/Src/stm32u0xx_hal_exti.c ****   * @{
 128:Drivers/STM32U0xx_HAL_Driver/Src/stm32u0xx_hal_exti.c ****   */
 129:Drivers/STM32U0xx_HAL_Driver/Src/stm32u0xx_hal_exti.c **** 
 130:Drivers/STM32U0xx_HAL_Driver/Src/stm32u0xx_hal_exti.c **** /**
 131:Drivers/STM32U0xx_HAL_Driver/Src/stm32u0xx_hal_exti.c ****   * @brief  Set configuration of a dedicated Exti line.
 132:Drivers/STM32U0xx_HAL_Driver/Src/stm32u0xx_hal_exti.c ****   * @param  hexti Exti handle.
 133:Drivers/STM32U0xx_HAL_Driver/Src/stm32u0xx_hal_exti.c ****   * @param  pExtiConfig Pointer on EXTI configuration to be set.
 134:Drivers/STM32U0xx_HAL_Driver/Src/stm32u0xx_hal_exti.c ****   * @retval HAL Status.
 135:Drivers/STM32U0xx_HAL_Driver/Src/stm32u0xx_hal_exti.c ****   */
 136:Drivers/STM32U0xx_HAL_Driver/Src/stm32u0xx_hal_exti.c **** HAL_StatusTypeDef HAL_EXTI_SetConfigLine(EXTI_HandleTypeDef *hexti, EXTI_ConfigTypeDef *pExtiConfig
 137:Drivers/STM32U0xx_HAL_Driver/Src/stm32u0xx_hal_exti.c **** {
  29              		.loc 1 137 1 view -0
  30              		.cfi_startproc
  31              		@ args = 0, pretend = 0, frame = 0
  32              		@ frame_needed = 0, uses_anonymous_args = 0
 138:Drivers/STM32U0xx_HAL_Driver/Src/stm32u0xx_hal_exti.c ****   uint32_t *regaddr;
  33              		.loc 1 138 3 view .LVU1
 139:Drivers/STM32U0xx_HAL_Driver/Src/stm32u0xx_hal_exti.c ****   uint32_t regval;
ARM GAS  C:\Users\upo\AppData\Local\Temp\cc4cKwHi.s 			page 4


  34              		.loc 1 139 3 view .LVU2
 140:Drivers/STM32U0xx_HAL_Driver/Src/stm32u0xx_hal_exti.c ****   uint32_t linepos;
  35              		.loc 1 140 3 view .LVU3
 141:Drivers/STM32U0xx_HAL_Driver/Src/stm32u0xx_hal_exti.c ****   uint32_t maskline;
  36              		.loc 1 141 3 view .LVU4
 142:Drivers/STM32U0xx_HAL_Driver/Src/stm32u0xx_hal_exti.c ****   uint32_t offset;
  37              		.loc 1 142 3 view .LVU5
 143:Drivers/STM32U0xx_HAL_Driver/Src/stm32u0xx_hal_exti.c **** 
 144:Drivers/STM32U0xx_HAL_Driver/Src/stm32u0xx_hal_exti.c ****   /* Check null pointer */
 145:Drivers/STM32U0xx_HAL_Driver/Src/stm32u0xx_hal_exti.c ****   if ((hexti == NULL) || (pExtiConfig == NULL))
  38              		.loc 1 145 3 view .LVU6
 137:Drivers/STM32U0xx_HAL_Driver/Src/stm32u0xx_hal_exti.c ****   uint32_t *regaddr;
  39              		.loc 1 137 1 is_stmt 0 view .LVU7
  40 0000 F0B5     		push	{r4, r5, r6, r7, lr}
  41              	.LCFI0:
  42              		.cfi_def_cfa_offset 20
  43              		.cfi_offset 4, -20
  44              		.cfi_offset 5, -16
  45              		.cfi_offset 6, -12
  46              		.cfi_offset 7, -8
  47              		.cfi_offset 14, -4
  48 0002 CE46     		mov	lr, r9
  49 0004 4746     		mov	r7, r8
  50 0006 80B5     		push	{r7, lr}
  51              	.LCFI1:
  52              		.cfi_def_cfa_offset 28
  53              		.cfi_offset 8, -28
  54              		.cfi_offset 9, -24
  55              		.loc 1 145 6 view .LVU8
  56 0008 0028     		cmp	r0, #0
  57 000a 5CD0     		beq	.L15
  58              		.loc 1 145 23 discriminator 1 view .LVU9
  59 000c 0029     		cmp	r1, #0
  60 000e 5AD0     		beq	.L15
 146:Drivers/STM32U0xx_HAL_Driver/Src/stm32u0xx_hal_exti.c ****   {
 147:Drivers/STM32U0xx_HAL_Driver/Src/stm32u0xx_hal_exti.c ****     return HAL_ERROR;
 148:Drivers/STM32U0xx_HAL_Driver/Src/stm32u0xx_hal_exti.c ****   }
 149:Drivers/STM32U0xx_HAL_Driver/Src/stm32u0xx_hal_exti.c **** 
 150:Drivers/STM32U0xx_HAL_Driver/Src/stm32u0xx_hal_exti.c ****   /* Check the parameters */
 151:Drivers/STM32U0xx_HAL_Driver/Src/stm32u0xx_hal_exti.c ****   assert_param(IS_EXTI_LINE(pExtiConfig->Line));
  61              		.loc 1 151 3 is_stmt 1 view .LVU10
 152:Drivers/STM32U0xx_HAL_Driver/Src/stm32u0xx_hal_exti.c ****   assert_param(IS_EXTI_MODE(pExtiConfig->Mode));
  62              		.loc 1 152 3 view .LVU11
 153:Drivers/STM32U0xx_HAL_Driver/Src/stm32u0xx_hal_exti.c **** 
 154:Drivers/STM32U0xx_HAL_Driver/Src/stm32u0xx_hal_exti.c ****   /* Assign line number to handle */
 155:Drivers/STM32U0xx_HAL_Driver/Src/stm32u0xx_hal_exti.c ****   hexti->Line = pExtiConfig->Line;
  63              		.loc 1 155 3 view .LVU12
  64              		.loc 1 155 28 is_stmt 0 view .LVU13
  65 0010 0E68     		ldr	r6, [r1]
 156:Drivers/STM32U0xx_HAL_Driver/Src/stm32u0xx_hal_exti.c **** 
 157:Drivers/STM32U0xx_HAL_Driver/Src/stm32u0xx_hal_exti.c ****   /* compute line register offset and line mask */
 158:Drivers/STM32U0xx_HAL_Driver/Src/stm32u0xx_hal_exti.c ****   offset = ((pExtiConfig->Line & EXTI_REG_MASK) >> EXTI_REG_SHIFT);
 159:Drivers/STM32U0xx_HAL_Driver/Src/stm32u0xx_hal_exti.c ****   linepos = (pExtiConfig->Line & EXTI_PIN_MASK);
  66              		.loc 1 159 11 view .LVU14
  67 0012 1F22     		movs	r2, #31
 155:Drivers/STM32U0xx_HAL_Driver/Src/stm32u0xx_hal_exti.c **** 
  68              		.loc 1 155 15 view .LVU15
ARM GAS  C:\Users\upo\AppData\Local\Temp\cc4cKwHi.s 			page 5


  69 0014 0660     		str	r6, [r0]
 158:Drivers/STM32U0xx_HAL_Driver/Src/stm32u0xx_hal_exti.c ****   linepos = (pExtiConfig->Line & EXTI_PIN_MASK);
  70              		.loc 1 158 3 is_stmt 1 view .LVU16
 158:Drivers/STM32U0xx_HAL_Driver/Src/stm32u0xx_hal_exti.c ****   linepos = (pExtiConfig->Line & EXTI_PIN_MASK);
  71              		.loc 1 158 10 is_stmt 0 view .LVU17
  72 0016 0120     		movs	r0, #1
  73              	.LVL1:
 160:Drivers/STM32U0xx_HAL_Driver/Src/stm32u0xx_hal_exti.c ****   maskline = (1UL << linepos);
  74              		.loc 1 160 12 view .LVU18
  75 0018 0400     		movs	r4, r0
 158:Drivers/STM32U0xx_HAL_Driver/Src/stm32u0xx_hal_exti.c ****   linepos = (pExtiConfig->Line & EXTI_PIN_MASK);
  76              		.loc 1 158 49 view .LVU19
  77 001a 330C     		lsrs	r3, r6, #16
 159:Drivers/STM32U0xx_HAL_Driver/Src/stm32u0xx_hal_exti.c ****   maskline = (1UL << linepos);
  78              		.loc 1 159 11 view .LVU20
  79 001c 3240     		ands	r2, r6
  80              		.loc 1 160 12 view .LVU21
  81 001e 9440     		lsls	r4, r4, r2
 158:Drivers/STM32U0xx_HAL_Driver/Src/stm32u0xx_hal_exti.c ****   linepos = (pExtiConfig->Line & EXTI_PIN_MASK);
  82              		.loc 1 158 10 view .LVU22
  83 0020 0340     		ands	r3, r0
  84              	.LVL2:
 159:Drivers/STM32U0xx_HAL_Driver/Src/stm32u0xx_hal_exti.c ****   maskline = (1UL << linepos);
  85              		.loc 1 159 3 is_stmt 1 view .LVU23
  86              		.loc 1 160 3 view .LVU24
 161:Drivers/STM32U0xx_HAL_Driver/Src/stm32u0xx_hal_exti.c **** 
 162:Drivers/STM32U0xx_HAL_Driver/Src/stm32u0xx_hal_exti.c ****   /* Configure triggers for configurable lines */
 163:Drivers/STM32U0xx_HAL_Driver/Src/stm32u0xx_hal_exti.c ****   if ((pExtiConfig->Line & EXTI_CONFIG) != 0x00U)
  87              		.loc 1 163 3 view .LVU25
  88              		.loc 1 163 6 is_stmt 0 view .LVU26
  89 0022 B501     		lsls	r5, r6, #6
  90 0024 2DD5     		bpl	.L4
 164:Drivers/STM32U0xx_HAL_Driver/Src/stm32u0xx_hal_exti.c ****   {
 165:Drivers/STM32U0xx_HAL_Driver/Src/stm32u0xx_hal_exti.c ****     assert_param(IS_EXTI_TRIGGER(pExtiConfig->Trigger));
  91              		.loc 1 165 5 is_stmt 1 view .LVU27
 166:Drivers/STM32U0xx_HAL_Driver/Src/stm32u0xx_hal_exti.c **** 
 167:Drivers/STM32U0xx_HAL_Driver/Src/stm32u0xx_hal_exti.c ****     /* Configure rising trigger */
 168:Drivers/STM32U0xx_HAL_Driver/Src/stm32u0xx_hal_exti.c ****     regaddr = (uint32_t *)(&EXTI->RTSR1 + (EXTI_CONFIG_OFFSET * offset));
  92              		.loc 1 168 5 view .LVU28
  93              		.loc 1 168 13 is_stmt 0 view .LVU29
  94 0026 2F4F     		ldr	r7, .L22
  95              		.loc 1 168 41 view .LVU30
  96 0028 5D01     		lsls	r5, r3, #5
  97              		.loc 1 168 13 view .LVU31
  98 002a BC46     		mov	ip, r7
  99 002c AC44     		add	ip, ip, r5
 100              	.LVL3:
 169:Drivers/STM32U0xx_HAL_Driver/Src/stm32u0xx_hal_exti.c ****     regval = *regaddr;
 101              		.loc 1 169 5 is_stmt 1 view .LVU32
 102              		.loc 1 169 12 is_stmt 0 view .LVU33
 103 002e 6746     		mov	r7, ip
 104 0030 3F68     		ldr	r7, [r7]
 105 0032 B946     		mov	r9, r7
 106              	.LVL4:
 170:Drivers/STM32U0xx_HAL_Driver/Src/stm32u0xx_hal_exti.c **** 
 171:Drivers/STM32U0xx_HAL_Driver/Src/stm32u0xx_hal_exti.c ****     /* Mask or set line */
 172:Drivers/STM32U0xx_HAL_Driver/Src/stm32u0xx_hal_exti.c ****     if ((pExtiConfig->Trigger & EXTI_TRIGGER_RISING) != 0x00U)
ARM GAS  C:\Users\upo\AppData\Local\Temp\cc4cKwHi.s 			page 6


 107              		.loc 1 172 5 is_stmt 1 view .LVU34
 108              		.loc 1 172 31 is_stmt 0 view .LVU35
 109 0034 8F68     		ldr	r7, [r1, #8]
 110              	.LVL5:
 111              		.loc 1 172 8 view .LVU36
 112 0036 0742     		tst	r7, r0
 113 0038 47D1     		bne	.L18
 173:Drivers/STM32U0xx_HAL_Driver/Src/stm32u0xx_hal_exti.c ****     {
 174:Drivers/STM32U0xx_HAL_Driver/Src/stm32u0xx_hal_exti.c ****       regval |= maskline;
 175:Drivers/STM32U0xx_HAL_Driver/Src/stm32u0xx_hal_exti.c ****     }
 176:Drivers/STM32U0xx_HAL_Driver/Src/stm32u0xx_hal_exti.c ****     else
 177:Drivers/STM32U0xx_HAL_Driver/Src/stm32u0xx_hal_exti.c ****     {
 178:Drivers/STM32U0xx_HAL_Driver/Src/stm32u0xx_hal_exti.c ****       regval &= ~maskline;
 114              		.loc 1 178 7 is_stmt 1 view .LVU37
 115              		.loc 1 178 14 is_stmt 0 view .LVU38
 116 003a 4F46     		mov	r7, r9
 179:Drivers/STM32U0xx_HAL_Driver/Src/stm32u0xx_hal_exti.c ****     }
 180:Drivers/STM32U0xx_HAL_Driver/Src/stm32u0xx_hal_exti.c **** 
 181:Drivers/STM32U0xx_HAL_Driver/Src/stm32u0xx_hal_exti.c ****     /* Store rising trigger mode */
 182:Drivers/STM32U0xx_HAL_Driver/Src/stm32u0xx_hal_exti.c ****     *regaddr = regval;
 117              		.loc 1 182 14 view .LVU39
 118 003c 6046     		mov	r0, ip
 178:Drivers/STM32U0xx_HAL_Driver/Src/stm32u0xx_hal_exti.c ****     }
 119              		.loc 1 178 14 view .LVU40
 120 003e A743     		bics	r7, r4
 121              	.LVL6:
 122              		.loc 1 182 5 is_stmt 1 view .LVU41
 123              		.loc 1 182 14 is_stmt 0 view .LVU42
 124 0040 0760     		str	r7, [r0]
 183:Drivers/STM32U0xx_HAL_Driver/Src/stm32u0xx_hal_exti.c **** 
 184:Drivers/STM32U0xx_HAL_Driver/Src/stm32u0xx_hal_exti.c ****     /* Configure falling trigger */
 185:Drivers/STM32U0xx_HAL_Driver/Src/stm32u0xx_hal_exti.c ****     regaddr = (uint32_t *)(&EXTI->FTSR1 + (EXTI_CONFIG_OFFSET * offset));
 125              		.loc 1 185 5 is_stmt 1 view .LVU43
 126              		.loc 1 185 13 is_stmt 0 view .LVU44
 127 0042 2948     		ldr	r0, .L22+4
 186:Drivers/STM32U0xx_HAL_Driver/Src/stm32u0xx_hal_exti.c ****     regval = *regaddr;
 187:Drivers/STM32U0xx_HAL_Driver/Src/stm32u0xx_hal_exti.c **** 
 188:Drivers/STM32U0xx_HAL_Driver/Src/stm32u0xx_hal_exti.c ****     /* Mask or set line */
 189:Drivers/STM32U0xx_HAL_Driver/Src/stm32u0xx_hal_exti.c ****     if ((pExtiConfig->Trigger & EXTI_TRIGGER_FALLING) != 0x00U)
 128              		.loc 1 189 31 view .LVU45
 129 0044 8F68     		ldr	r7, [r1, #8]
 130              	.LVL7:
 185:Drivers/STM32U0xx_HAL_Driver/Src/stm32u0xx_hal_exti.c ****     regval = *regaddr;
 131              		.loc 1 185 13 view .LVU46
 132 0046 2818     		adds	r0, r5, r0
 133              	.LVL8:
 186:Drivers/STM32U0xx_HAL_Driver/Src/stm32u0xx_hal_exti.c ****     regval = *regaddr;
 134              		.loc 1 186 5 is_stmt 1 view .LVU47
 186:Drivers/STM32U0xx_HAL_Driver/Src/stm32u0xx_hal_exti.c ****     regval = *regaddr;
 135              		.loc 1 186 12 is_stmt 0 view .LVU48
 136 0048 0568     		ldr	r5, [r0]
 137              	.LVL9:
 138              		.loc 1 189 5 is_stmt 1 view .LVU49
 139              		.loc 1 189 8 is_stmt 0 view .LVU50
 140 004a BF07     		lsls	r7, r7, #30
 141 004c 47D5     		bpl	.L7
 142              	.L21:
ARM GAS  C:\Users\upo\AppData\Local\Temp\cc4cKwHi.s 			page 7


 190:Drivers/STM32U0xx_HAL_Driver/Src/stm32u0xx_hal_exti.c ****     {
 191:Drivers/STM32U0xx_HAL_Driver/Src/stm32u0xx_hal_exti.c ****       regval |= maskline;
 143              		.loc 1 191 7 is_stmt 1 view .LVU51
 144              		.loc 1 191 14 is_stmt 0 view .LVU52
 145 004e 2543     		orrs	r5, r4
 146              	.LVL10:
 147              	.L8:
 192:Drivers/STM32U0xx_HAL_Driver/Src/stm32u0xx_hal_exti.c ****     }
 193:Drivers/STM32U0xx_HAL_Driver/Src/stm32u0xx_hal_exti.c ****     else
 194:Drivers/STM32U0xx_HAL_Driver/Src/stm32u0xx_hal_exti.c ****     {
 195:Drivers/STM32U0xx_HAL_Driver/Src/stm32u0xx_hal_exti.c ****       regval &= ~maskline;
 196:Drivers/STM32U0xx_HAL_Driver/Src/stm32u0xx_hal_exti.c ****     }
 197:Drivers/STM32U0xx_HAL_Driver/Src/stm32u0xx_hal_exti.c **** 
 198:Drivers/STM32U0xx_HAL_Driver/Src/stm32u0xx_hal_exti.c ****     /* Store falling trigger mode */
 199:Drivers/STM32U0xx_HAL_Driver/Src/stm32u0xx_hal_exti.c ****     *regaddr = regval;
 148              		.loc 1 199 5 is_stmt 1 view .LVU53
 149              		.loc 1 199 14 is_stmt 0 view .LVU54
 150 0050 0560     		str	r5, [r0]
 200:Drivers/STM32U0xx_HAL_Driver/Src/stm32u0xx_hal_exti.c **** 
 201:Drivers/STM32U0xx_HAL_Driver/Src/stm32u0xx_hal_exti.c ****     /* Configure gpio port selection in case of gpio exti line */
 202:Drivers/STM32U0xx_HAL_Driver/Src/stm32u0xx_hal_exti.c ****     if ((pExtiConfig->Line & EXTI_GPIO) == EXTI_GPIO)
 151              		.loc 1 202 5 is_stmt 1 view .LVU55
 152              		.loc 1 202 28 is_stmt 0 view .LVU56
 153 0052 C025     		movs	r5, #192
 154              	.LVL11:
 155              		.loc 1 202 28 view .LVU57
 156 0054 0868     		ldr	r0, [r1]
 157              	.LVL12:
 158              		.loc 1 202 28 view .LVU58
 159 0056 ED04     		lsls	r5, r5, #19
 160 0058 2840     		ands	r0, r5
 161              		.loc 1 202 8 view .LVU59
 162 005a A842     		cmp	r0, r5
 163 005c 11D1     		bne	.L4
 203:Drivers/STM32U0xx_HAL_Driver/Src/stm32u0xx_hal_exti.c ****     {
 204:Drivers/STM32U0xx_HAL_Driver/Src/stm32u0xx_hal_exti.c ****       assert_param(IS_EXTI_GPIO_PORT(pExtiConfig->GPIOSel));
 164              		.loc 1 204 7 is_stmt 1 view .LVU60
 205:Drivers/STM32U0xx_HAL_Driver/Src/stm32u0xx_hal_exti.c ****       assert_param(IS_EXTI_GPIO_PIN(linepos));
 165              		.loc 1 205 7 view .LVU61
 206:Drivers/STM32U0xx_HAL_Driver/Src/stm32u0xx_hal_exti.c **** 
 207:Drivers/STM32U0xx_HAL_Driver/Src/stm32u0xx_hal_exti.c ****       regval = EXTI->EXTICR[linepos >> 2U];
 166              		.loc 1 207 7 view .LVU62
 167 005e 2148     		ldr	r0, .L22
 168              		.loc 1 207 37 is_stmt 0 view .LVU63
 169 0060 9208     		lsrs	r2, r2, #2
 170              	.LVL13:
 171              		.loc 1 207 37 view .LVU64
 172 0062 8446     		mov	ip, r0
 208:Drivers/STM32U0xx_HAL_Driver/Src/stm32u0xx_hal_exti.c ****       regval &= ~(0xFFU << (8U * (linepos & 0x03U)));
 173              		.loc 1 208 43 view .LVU65
 174 0064 0320     		movs	r0, #3
 175 0066 3040     		ands	r0, r6
 176              		.loc 1 208 25 view .LVU66
 177 0068 FF26     		movs	r6, #255
 178              	.LVL14:
 179              		.loc 1 208 32 view .LVU67
 180 006a C000     		lsls	r0, r0, #3
ARM GAS  C:\Users\upo\AppData\Local\Temp\cc4cKwHi.s 			page 8


 181              		.loc 1 208 25 view .LVU68
 182 006c 8640     		lsls	r6, r6, r0
 183 006e 9200     		lsls	r2, r2, #2
 184 0070 6244     		add	r2, r2, ip
 207:Drivers/STM32U0xx_HAL_Driver/Src/stm32u0xx_hal_exti.c ****       regval &= ~(0xFFU << (8U * (linepos & 0x03U)));
 185              		.loc 1 207 14 view .LVU69
 186 0072 156E     		ldr	r5, [r2, #96]
 187              	.LVL15:
 188              		.loc 1 208 7 is_stmt 1 view .LVU70
 189              		.loc 1 208 14 is_stmt 0 view .LVU71
 190 0074 B543     		bics	r5, r6
 191              	.LVL16:
 192              		.loc 1 208 14 view .LVU72
 193 0076 2E00     		movs	r6, r5
 194              	.LVL17:
 209:Drivers/STM32U0xx_HAL_Driver/Src/stm32u0xx_hal_exti.c ****       regval |= (pExtiConfig->GPIOSel << (8U * (linepos & 0x03U)));
 195              		.loc 1 209 7 is_stmt 1 view .LVU73
 196              		.loc 1 209 39 is_stmt 0 view .LVU74
 197 0078 CD68     		ldr	r5, [r1, #12]
 198              	.LVL18:
 199              		.loc 1 209 39 view .LVU75
 200 007a 8540     		lsls	r5, r5, r0
 201 007c 2800     		movs	r0, r5
 202              		.loc 1 209 14 view .LVU76
 203 007e 3043     		orrs	r0, r6
 204              	.LVL19:
 210:Drivers/STM32U0xx_HAL_Driver/Src/stm32u0xx_hal_exti.c ****       EXTI->EXTICR[linepos >> 2U] = regval;
 205              		.loc 1 210 7 is_stmt 1 view .LVU77
 206              		.loc 1 210 35 is_stmt 0 view .LVU78
 207 0080 1066     		str	r0, [r2, #96]
 208              	.LVL20:
 209              	.L4:
 211:Drivers/STM32U0xx_HAL_Driver/Src/stm32u0xx_hal_exti.c ****     }
 212:Drivers/STM32U0xx_HAL_Driver/Src/stm32u0xx_hal_exti.c ****   }
 213:Drivers/STM32U0xx_HAL_Driver/Src/stm32u0xx_hal_exti.c **** 
 214:Drivers/STM32U0xx_HAL_Driver/Src/stm32u0xx_hal_exti.c ****   /* Configure interrupt mode : read current mode */
 215:Drivers/STM32U0xx_HAL_Driver/Src/stm32u0xx_hal_exti.c ****   regaddr = (uint32_t *)(&EXTI->IMR1 + (EXTI_MODE_OFFSET * offset));
 210              		.loc 1 215 3 is_stmt 1 view .LVU79
 211              		.loc 1 215 11 is_stmt 0 view .LVU80
 212 0082 1A4A     		ldr	r2, .L22+8
 213              		.loc 1 215 38 view .LVU81
 214 0084 1B01     		lsls	r3, r3, #4
 215              	.LVL21:
 216:Drivers/STM32U0xx_HAL_Driver/Src/stm32u0xx_hal_exti.c ****   regval = *regaddr;
 217:Drivers/STM32U0xx_HAL_Driver/Src/stm32u0xx_hal_exti.c **** 
 218:Drivers/STM32U0xx_HAL_Driver/Src/stm32u0xx_hal_exti.c ****   /* Mask or set line */
 219:Drivers/STM32U0xx_HAL_Driver/Src/stm32u0xx_hal_exti.c ****   if ((pExtiConfig->Mode & EXTI_MODE_INTERRUPT) != 0x00U)
 216              		.loc 1 219 26 view .LVU82
 217 0086 4D68     		ldr	r5, [r1, #4]
 215:Drivers/STM32U0xx_HAL_Driver/Src/stm32u0xx_hal_exti.c ****   regval = *regaddr;
 218              		.loc 1 215 11 view .LVU83
 219 0088 9818     		adds	r0, r3, r2
 220              	.LVL22:
 216:Drivers/STM32U0xx_HAL_Driver/Src/stm32u0xx_hal_exti.c ****   regval = *regaddr;
 221              		.loc 1 216 3 is_stmt 1 view .LVU84
 216:Drivers/STM32U0xx_HAL_Driver/Src/stm32u0xx_hal_exti.c ****   regval = *regaddr;
 222              		.loc 1 216 10 is_stmt 0 view .LVU85
ARM GAS  C:\Users\upo\AppData\Local\Temp\cc4cKwHi.s 			page 9


 223 008a 0268     		ldr	r2, [r0]
 224              	.LVL23:
 225              		.loc 1 219 3 is_stmt 1 view .LVU86
 226              		.loc 1 219 6 is_stmt 0 view .LVU87
 227 008c ED07     		lsls	r5, r5, #31
 228 008e 0FD4     		bmi	.L19
 220:Drivers/STM32U0xx_HAL_Driver/Src/stm32u0xx_hal_exti.c ****   {
 221:Drivers/STM32U0xx_HAL_Driver/Src/stm32u0xx_hal_exti.c ****     regval |= maskline;
 222:Drivers/STM32U0xx_HAL_Driver/Src/stm32u0xx_hal_exti.c ****   }
 223:Drivers/STM32U0xx_HAL_Driver/Src/stm32u0xx_hal_exti.c ****   else
 224:Drivers/STM32U0xx_HAL_Driver/Src/stm32u0xx_hal_exti.c ****   {
 225:Drivers/STM32U0xx_HAL_Driver/Src/stm32u0xx_hal_exti.c ****     regval &= ~maskline;
 229              		.loc 1 225 5 is_stmt 1 view .LVU88
 230              		.loc 1 225 12 is_stmt 0 view .LVU89
 231 0090 A243     		bics	r2, r4
 232              	.LVL24:
 226:Drivers/STM32U0xx_HAL_Driver/Src/stm32u0xx_hal_exti.c ****   }
 227:Drivers/STM32U0xx_HAL_Driver/Src/stm32u0xx_hal_exti.c **** 
 228:Drivers/STM32U0xx_HAL_Driver/Src/stm32u0xx_hal_exti.c ****   /* Store interrupt mode */
 229:Drivers/STM32U0xx_HAL_Driver/Src/stm32u0xx_hal_exti.c ****   *regaddr = regval;
 233              		.loc 1 229 3 is_stmt 1 view .LVU90
 234              		.loc 1 229 12 is_stmt 0 view .LVU91
 235 0092 0260     		str	r2, [r0]
 230:Drivers/STM32U0xx_HAL_Driver/Src/stm32u0xx_hal_exti.c **** 
 231:Drivers/STM32U0xx_HAL_Driver/Src/stm32u0xx_hal_exti.c ****   /* Configure event mode : read current mode */
 232:Drivers/STM32U0xx_HAL_Driver/Src/stm32u0xx_hal_exti.c ****   regaddr = (uint32_t *)(&EXTI->EMR1 + (EXTI_MODE_OFFSET * offset));
 236              		.loc 1 232 3 is_stmt 1 view .LVU92
 237              		.loc 1 232 11 is_stmt 0 view .LVU93
 238 0094 164A     		ldr	r2, .L22+12
 239              	.LVL25:
 233:Drivers/STM32U0xx_HAL_Driver/Src/stm32u0xx_hal_exti.c ****   regval = *regaddr;
 234:Drivers/STM32U0xx_HAL_Driver/Src/stm32u0xx_hal_exti.c **** 
 235:Drivers/STM32U0xx_HAL_Driver/Src/stm32u0xx_hal_exti.c ****   /* Mask or set line */
 236:Drivers/STM32U0xx_HAL_Driver/Src/stm32u0xx_hal_exti.c ****   if ((pExtiConfig->Mode & EXTI_MODE_EVENT) != 0x00U)
 240              		.loc 1 236 26 view .LVU94
 241 0096 4968     		ldr	r1, [r1, #4]
 242              	.LVL26:
 232:Drivers/STM32U0xx_HAL_Driver/Src/stm32u0xx_hal_exti.c ****   regval = *regaddr;
 243              		.loc 1 232 11 view .LVU95
 244 0098 9446     		mov	ip, r2
 245 009a 6344     		add	r3, r3, ip
 246              	.LVL27:
 233:Drivers/STM32U0xx_HAL_Driver/Src/stm32u0xx_hal_exti.c ****   regval = *regaddr;
 247              		.loc 1 233 3 is_stmt 1 view .LVU96
 233:Drivers/STM32U0xx_HAL_Driver/Src/stm32u0xx_hal_exti.c ****   regval = *regaddr;
 248              		.loc 1 233 10 is_stmt 0 view .LVU97
 249 009c 1A68     		ldr	r2, [r3]
 250              	.LVL28:
 251              		.loc 1 236 3 is_stmt 1 view .LVU98
 252              		.loc 1 236 6 is_stmt 0 view .LVU99
 253 009e 8907     		lsls	r1, r1, #30
 254 00a0 0FD5     		bpl	.L12
 255              	.L20:
 237:Drivers/STM32U0xx_HAL_Driver/Src/stm32u0xx_hal_exti.c ****   {
 238:Drivers/STM32U0xx_HAL_Driver/Src/stm32u0xx_hal_exti.c ****     regval |= maskline;
 256              		.loc 1 238 5 is_stmt 1 view .LVU100
 257              		.loc 1 238 12 is_stmt 0 view .LVU101
ARM GAS  C:\Users\upo\AppData\Local\Temp\cc4cKwHi.s 			page 10


 258 00a2 2243     		orrs	r2, r4
 259              	.LVL29:
 260              	.L13:
 239:Drivers/STM32U0xx_HAL_Driver/Src/stm32u0xx_hal_exti.c ****   }
 240:Drivers/STM32U0xx_HAL_Driver/Src/stm32u0xx_hal_exti.c ****   else
 241:Drivers/STM32U0xx_HAL_Driver/Src/stm32u0xx_hal_exti.c ****   {
 242:Drivers/STM32U0xx_HAL_Driver/Src/stm32u0xx_hal_exti.c ****     regval &= ~maskline;
 243:Drivers/STM32U0xx_HAL_Driver/Src/stm32u0xx_hal_exti.c ****   }
 244:Drivers/STM32U0xx_HAL_Driver/Src/stm32u0xx_hal_exti.c **** 
 245:Drivers/STM32U0xx_HAL_Driver/Src/stm32u0xx_hal_exti.c ****   /* Store event mode */
 246:Drivers/STM32U0xx_HAL_Driver/Src/stm32u0xx_hal_exti.c ****   *regaddr = regval;
 261              		.loc 1 246 3 is_stmt 1 view .LVU102
 247:Drivers/STM32U0xx_HAL_Driver/Src/stm32u0xx_hal_exti.c **** 
 248:Drivers/STM32U0xx_HAL_Driver/Src/stm32u0xx_hal_exti.c ****   return HAL_OK;
 262              		.loc 1 248 10 is_stmt 0 view .LVU103
 263 00a4 0020     		movs	r0, #0
 246:Drivers/STM32U0xx_HAL_Driver/Src/stm32u0xx_hal_exti.c **** 
 264              		.loc 1 246 12 view .LVU104
 265 00a6 1A60     		str	r2, [r3]
 266              		.loc 1 248 3 is_stmt 1 view .LVU105
 267              	.LVL30:
 268              	.L2:
 249:Drivers/STM32U0xx_HAL_Driver/Src/stm32u0xx_hal_exti.c **** }
 269              		.loc 1 249 1 is_stmt 0 view .LVU106
 270              		@ sp needed
 271 00a8 C0BC     		pop	{r6, r7}
 272 00aa B946     		mov	r9, r7
 273 00ac B046     		mov	r8, r6
 274 00ae F0BD     		pop	{r4, r5, r6, r7, pc}
 275              	.LVL31:
 276              	.L19:
 221:Drivers/STM32U0xx_HAL_Driver/Src/stm32u0xx_hal_exti.c ****   }
 277              		.loc 1 221 5 is_stmt 1 view .LVU107
 221:Drivers/STM32U0xx_HAL_Driver/Src/stm32u0xx_hal_exti.c ****   }
 278              		.loc 1 221 12 is_stmt 0 view .LVU108
 279 00b0 2243     		orrs	r2, r4
 280              	.LVL32:
 229:Drivers/STM32U0xx_HAL_Driver/Src/stm32u0xx_hal_exti.c **** 
 281              		.loc 1 229 3 is_stmt 1 view .LVU109
 229:Drivers/STM32U0xx_HAL_Driver/Src/stm32u0xx_hal_exti.c **** 
 282              		.loc 1 229 12 is_stmt 0 view .LVU110
 283 00b2 0260     		str	r2, [r0]
 232:Drivers/STM32U0xx_HAL_Driver/Src/stm32u0xx_hal_exti.c ****   regval = *regaddr;
 284              		.loc 1 232 3 is_stmt 1 view .LVU111
 232:Drivers/STM32U0xx_HAL_Driver/Src/stm32u0xx_hal_exti.c ****   regval = *regaddr;
 285              		.loc 1 232 11 is_stmt 0 view .LVU112
 286 00b4 0E4A     		ldr	r2, .L22+12
 287              	.LVL33:
 236:Drivers/STM32U0xx_HAL_Driver/Src/stm32u0xx_hal_exti.c ****   {
 288              		.loc 1 236 26 view .LVU113
 289 00b6 4968     		ldr	r1, [r1, #4]
 290              	.LVL34:
 232:Drivers/STM32U0xx_HAL_Driver/Src/stm32u0xx_hal_exti.c ****   regval = *regaddr;
 291              		.loc 1 232 11 view .LVU114
 292 00b8 9446     		mov	ip, r2
 293 00ba 6344     		add	r3, r3, ip
 294              	.LVL35:
ARM GAS  C:\Users\upo\AppData\Local\Temp\cc4cKwHi.s 			page 11


 233:Drivers/STM32U0xx_HAL_Driver/Src/stm32u0xx_hal_exti.c **** 
 295              		.loc 1 233 3 is_stmt 1 view .LVU115
 233:Drivers/STM32U0xx_HAL_Driver/Src/stm32u0xx_hal_exti.c **** 
 296              		.loc 1 233 10 is_stmt 0 view .LVU116
 297 00bc 1A68     		ldr	r2, [r3]
 298              	.LVL36:
 236:Drivers/STM32U0xx_HAL_Driver/Src/stm32u0xx_hal_exti.c ****   {
 299              		.loc 1 236 3 is_stmt 1 view .LVU117
 236:Drivers/STM32U0xx_HAL_Driver/Src/stm32u0xx_hal_exti.c ****   {
 300              		.loc 1 236 6 is_stmt 0 view .LVU118
 301 00be 8907     		lsls	r1, r1, #30
 302 00c0 EFD4     		bmi	.L20
 303              	.L12:
 242:Drivers/STM32U0xx_HAL_Driver/Src/stm32u0xx_hal_exti.c ****   }
 304              		.loc 1 242 5 is_stmt 1 view .LVU119
 242:Drivers/STM32U0xx_HAL_Driver/Src/stm32u0xx_hal_exti.c ****   }
 305              		.loc 1 242 12 is_stmt 0 view .LVU120
 306 00c2 A243     		bics	r2, r4
 307              	.LVL37:
 242:Drivers/STM32U0xx_HAL_Driver/Src/stm32u0xx_hal_exti.c ****   }
 308              		.loc 1 242 12 view .LVU121
 309 00c4 EEE7     		b	.L13
 310              	.LVL38:
 311              	.L15:
 147:Drivers/STM32U0xx_HAL_Driver/Src/stm32u0xx_hal_exti.c ****   }
 312              		.loc 1 147 12 view .LVU122
 313 00c6 0120     		movs	r0, #1
 314              	.LVL39:
 147:Drivers/STM32U0xx_HAL_Driver/Src/stm32u0xx_hal_exti.c ****   }
 315              		.loc 1 147 12 view .LVU123
 316 00c8 EEE7     		b	.L2
 317              	.LVL40:
 318              	.L18:
 174:Drivers/STM32U0xx_HAL_Driver/Src/stm32u0xx_hal_exti.c ****     }
 319              		.loc 1 174 7 is_stmt 1 view .LVU124
 174:Drivers/STM32U0xx_HAL_Driver/Src/stm32u0xx_hal_exti.c ****     }
 320              		.loc 1 174 14 is_stmt 0 view .LVU125
 321 00ca 4F46     		mov	r7, r9
 182:Drivers/STM32U0xx_HAL_Driver/Src/stm32u0xx_hal_exti.c **** 
 322              		.loc 1 182 14 view .LVU126
 323 00cc 6046     		mov	r0, ip
 174:Drivers/STM32U0xx_HAL_Driver/Src/stm32u0xx_hal_exti.c ****     }
 324              		.loc 1 174 14 view .LVU127
 325 00ce 2743     		orrs	r7, r4
 326              	.LVL41:
 182:Drivers/STM32U0xx_HAL_Driver/Src/stm32u0xx_hal_exti.c **** 
 327              		.loc 1 182 5 is_stmt 1 view .LVU128
 182:Drivers/STM32U0xx_HAL_Driver/Src/stm32u0xx_hal_exti.c **** 
 328              		.loc 1 182 14 is_stmt 0 view .LVU129
 329 00d0 0760     		str	r7, [r0]
 185:Drivers/STM32U0xx_HAL_Driver/Src/stm32u0xx_hal_exti.c ****     regval = *regaddr;
 330              		.loc 1 185 5 is_stmt 1 view .LVU130
 185:Drivers/STM32U0xx_HAL_Driver/Src/stm32u0xx_hal_exti.c ****     regval = *regaddr;
 331              		.loc 1 185 13 is_stmt 0 view .LVU131
 332 00d2 0548     		ldr	r0, .L22+4
 189:Drivers/STM32U0xx_HAL_Driver/Src/stm32u0xx_hal_exti.c ****     {
 333              		.loc 1 189 31 view .LVU132
ARM GAS  C:\Users\upo\AppData\Local\Temp\cc4cKwHi.s 			page 12


 334 00d4 8F68     		ldr	r7, [r1, #8]
 335              	.LVL42:
 185:Drivers/STM32U0xx_HAL_Driver/Src/stm32u0xx_hal_exti.c ****     regval = *regaddr;
 336              		.loc 1 185 13 view .LVU133
 337 00d6 2818     		adds	r0, r5, r0
 338              	.LVL43:
 186:Drivers/STM32U0xx_HAL_Driver/Src/stm32u0xx_hal_exti.c **** 
 339              		.loc 1 186 5 is_stmt 1 view .LVU134
 186:Drivers/STM32U0xx_HAL_Driver/Src/stm32u0xx_hal_exti.c **** 
 340              		.loc 1 186 12 is_stmt 0 view .LVU135
 341 00d8 0568     		ldr	r5, [r0]
 342              	.LVL44:
 189:Drivers/STM32U0xx_HAL_Driver/Src/stm32u0xx_hal_exti.c ****     {
 343              		.loc 1 189 5 is_stmt 1 view .LVU136
 189:Drivers/STM32U0xx_HAL_Driver/Src/stm32u0xx_hal_exti.c ****     {
 344              		.loc 1 189 8 is_stmt 0 view .LVU137
 345 00da BF07     		lsls	r7, r7, #30
 346 00dc B7D4     		bmi	.L21
 347              	.L7:
 195:Drivers/STM32U0xx_HAL_Driver/Src/stm32u0xx_hal_exti.c ****     }
 348              		.loc 1 195 7 is_stmt 1 view .LVU138
 195:Drivers/STM32U0xx_HAL_Driver/Src/stm32u0xx_hal_exti.c ****     }
 349              		.loc 1 195 14 is_stmt 0 view .LVU139
 350 00de A543     		bics	r5, r4
 351              	.LVL45:
 195:Drivers/STM32U0xx_HAL_Driver/Src/stm32u0xx_hal_exti.c ****     }
 352              		.loc 1 195 14 view .LVU140
 353 00e0 B6E7     		b	.L8
 354              	.L23:
 355 00e2 C046     		.align	2
 356              	.L22:
 357 00e4 00180240 		.word	1073879040
 358 00e8 04180240 		.word	1073879044
 359 00ec 80180240 		.word	1073879168
 360 00f0 84180240 		.word	1073879172
 361              		.cfi_endproc
 362              	.LFE334:
 364              		.section	.text.HAL_EXTI_GetConfigLine,"ax",%progbits
 365              		.align	1
 366              		.p2align 2,,3
 367              		.global	HAL_EXTI_GetConfigLine
 368              		.syntax unified
 369              		.code	16
 370              		.thumb_func
 372              	HAL_EXTI_GetConfigLine:
 373              	.LVL46:
 374              	.LFB335:
 250:Drivers/STM32U0xx_HAL_Driver/Src/stm32u0xx_hal_exti.c **** 
 251:Drivers/STM32U0xx_HAL_Driver/Src/stm32u0xx_hal_exti.c **** /**
 252:Drivers/STM32U0xx_HAL_Driver/Src/stm32u0xx_hal_exti.c ****   * @brief  Get configuration of a dedicated Exti line.
 253:Drivers/STM32U0xx_HAL_Driver/Src/stm32u0xx_hal_exti.c ****   * @param  hexti Exti handle.
 254:Drivers/STM32U0xx_HAL_Driver/Src/stm32u0xx_hal_exti.c ****   * @param  pExtiConfig Pointer on structure to store Exti configuration.
 255:Drivers/STM32U0xx_HAL_Driver/Src/stm32u0xx_hal_exti.c ****   * @retval HAL Status.
 256:Drivers/STM32U0xx_HAL_Driver/Src/stm32u0xx_hal_exti.c ****   */
 257:Drivers/STM32U0xx_HAL_Driver/Src/stm32u0xx_hal_exti.c **** HAL_StatusTypeDef HAL_EXTI_GetConfigLine(EXTI_HandleTypeDef *hexti, EXTI_ConfigTypeDef *pExtiConfig
 258:Drivers/STM32U0xx_HAL_Driver/Src/stm32u0xx_hal_exti.c **** {
 375              		.loc 1 258 1 is_stmt 1 view -0
ARM GAS  C:\Users\upo\AppData\Local\Temp\cc4cKwHi.s 			page 13


 376              		.cfi_startproc
 377              		@ args = 0, pretend = 0, frame = 0
 378              		@ frame_needed = 0, uses_anonymous_args = 0
 259:Drivers/STM32U0xx_HAL_Driver/Src/stm32u0xx_hal_exti.c ****   uint32_t *regaddr;
 379              		.loc 1 259 3 view .LVU142
 260:Drivers/STM32U0xx_HAL_Driver/Src/stm32u0xx_hal_exti.c ****   uint32_t regval;
 380              		.loc 1 260 3 view .LVU143
 261:Drivers/STM32U0xx_HAL_Driver/Src/stm32u0xx_hal_exti.c ****   uint32_t linepos;
 381              		.loc 1 261 3 view .LVU144
 262:Drivers/STM32U0xx_HAL_Driver/Src/stm32u0xx_hal_exti.c ****   uint32_t maskline;
 382              		.loc 1 262 3 view .LVU145
 263:Drivers/STM32U0xx_HAL_Driver/Src/stm32u0xx_hal_exti.c ****   uint32_t offset;
 383              		.loc 1 263 3 view .LVU146
 264:Drivers/STM32U0xx_HAL_Driver/Src/stm32u0xx_hal_exti.c **** 
 265:Drivers/STM32U0xx_HAL_Driver/Src/stm32u0xx_hal_exti.c ****   /* Check null pointer */
 266:Drivers/STM32U0xx_HAL_Driver/Src/stm32u0xx_hal_exti.c ****   if ((hexti == NULL) || (pExtiConfig == NULL))
 384              		.loc 1 266 3 view .LVU147
 258:Drivers/STM32U0xx_HAL_Driver/Src/stm32u0xx_hal_exti.c ****   uint32_t *regaddr;
 385              		.loc 1 258 1 is_stmt 0 view .LVU148
 386 0000 F0B5     		push	{r4, r5, r6, r7, lr}
 387              	.LCFI2:
 388              		.cfi_def_cfa_offset 20
 389              		.cfi_offset 4, -20
 390              		.cfi_offset 5, -16
 391              		.cfi_offset 6, -12
 392              		.cfi_offset 7, -8
 393              		.cfi_offset 14, -4
 394              		.loc 1 266 6 view .LVU149
 395 0002 0028     		cmp	r0, #0
 396 0004 37D0     		beq	.L32
 397              		.loc 1 266 23 discriminator 1 view .LVU150
 398 0006 0029     		cmp	r1, #0
 399 0008 35D0     		beq	.L32
 267:Drivers/STM32U0xx_HAL_Driver/Src/stm32u0xx_hal_exti.c ****   {
 268:Drivers/STM32U0xx_HAL_Driver/Src/stm32u0xx_hal_exti.c ****     return HAL_ERROR;
 269:Drivers/STM32U0xx_HAL_Driver/Src/stm32u0xx_hal_exti.c ****   }
 270:Drivers/STM32U0xx_HAL_Driver/Src/stm32u0xx_hal_exti.c **** 
 271:Drivers/STM32U0xx_HAL_Driver/Src/stm32u0xx_hal_exti.c ****   /* Check the parameter */
 272:Drivers/STM32U0xx_HAL_Driver/Src/stm32u0xx_hal_exti.c ****   assert_param(IS_EXTI_LINE(hexti->Line));
 400              		.loc 1 272 3 is_stmt 1 view .LVU151
 273:Drivers/STM32U0xx_HAL_Driver/Src/stm32u0xx_hal_exti.c **** 
 274:Drivers/STM32U0xx_HAL_Driver/Src/stm32u0xx_hal_exti.c ****   /* Store handle line number to configiguration structure */
 275:Drivers/STM32U0xx_HAL_Driver/Src/stm32u0xx_hal_exti.c ****   pExtiConfig->Line = hexti->Line;
 401              		.loc 1 275 3 view .LVU152
 276:Drivers/STM32U0xx_HAL_Driver/Src/stm32u0xx_hal_exti.c **** 
 277:Drivers/STM32U0xx_HAL_Driver/Src/stm32u0xx_hal_exti.c ****   /* compute line register offset and line mask */
 278:Drivers/STM32U0xx_HAL_Driver/Src/stm32u0xx_hal_exti.c ****   offset = ((pExtiConfig->Line & EXTI_REG_MASK) >> EXTI_REG_SHIFT);
 279:Drivers/STM32U0xx_HAL_Driver/Src/stm32u0xx_hal_exti.c ****   linepos = (pExtiConfig->Line & EXTI_PIN_MASK);
 402              		.loc 1 279 11 is_stmt 0 view .LVU153
 403 000a 1F25     		movs	r5, #31
 275:Drivers/STM32U0xx_HAL_Driver/Src/stm32u0xx_hal_exti.c **** 
 404              		.loc 1 275 28 view .LVU154
 405 000c 0368     		ldr	r3, [r0]
 278:Drivers/STM32U0xx_HAL_Driver/Src/stm32u0xx_hal_exti.c ****   linepos = (pExtiConfig->Line & EXTI_PIN_MASK);
 406              		.loc 1 278 10 view .LVU155
 407 000e 0120     		movs	r0, #1
 408              	.LVL47:
ARM GAS  C:\Users\upo\AppData\Local\Temp\cc4cKwHi.s 			page 14


 278:Drivers/STM32U0xx_HAL_Driver/Src/stm32u0xx_hal_exti.c ****   linepos = (pExtiConfig->Line & EXTI_PIN_MASK);
 409              		.loc 1 278 49 view .LVU156
 410 0010 1C0C     		lsrs	r4, r3, #16
 411              		.loc 1 279 11 view .LVU157
 412 0012 1D40     		ands	r5, r3
 278:Drivers/STM32U0xx_HAL_Driver/Src/stm32u0xx_hal_exti.c ****   linepos = (pExtiConfig->Line & EXTI_PIN_MASK);
 413              		.loc 1 278 10 view .LVU158
 414 0014 0440     		ands	r4, r0
 280:Drivers/STM32U0xx_HAL_Driver/Src/stm32u0xx_hal_exti.c ****   maskline = (1UL << linepos);
 415              		.loc 1 280 12 view .LVU159
 416 0016 A840     		lsls	r0, r0, r5
 281:Drivers/STM32U0xx_HAL_Driver/Src/stm32u0xx_hal_exti.c **** 
 282:Drivers/STM32U0xx_HAL_Driver/Src/stm32u0xx_hal_exti.c ****   /* 1] Get core mode : interrupt */
 283:Drivers/STM32U0xx_HAL_Driver/Src/stm32u0xx_hal_exti.c ****   regaddr = (uint32_t *)(&EXTI->IMR1 + (EXTI_MODE_OFFSET * offset));
 284:Drivers/STM32U0xx_HAL_Driver/Src/stm32u0xx_hal_exti.c ****   regval = *regaddr;
 417              		.loc 1 284 10 view .LVU160
 418 0018 1E4A     		ldr	r2, .L39
 275:Drivers/STM32U0xx_HAL_Driver/Src/stm32u0xx_hal_exti.c **** 
 419              		.loc 1 275 21 view .LVU161
 420 001a 0B60     		str	r3, [r1]
 278:Drivers/STM32U0xx_HAL_Driver/Src/stm32u0xx_hal_exti.c ****   linepos = (pExtiConfig->Line & EXTI_PIN_MASK);
 421              		.loc 1 278 3 is_stmt 1 view .LVU162
 422              	.LVL48:
 279:Drivers/STM32U0xx_HAL_Driver/Src/stm32u0xx_hal_exti.c ****   maskline = (1UL << linepos);
 423              		.loc 1 279 3 view .LVU163
 280:Drivers/STM32U0xx_HAL_Driver/Src/stm32u0xx_hal_exti.c **** 
 424              		.loc 1 280 3 view .LVU164
 283:Drivers/STM32U0xx_HAL_Driver/Src/stm32u0xx_hal_exti.c ****   regval = *regaddr;
 425              		.loc 1 283 3 view .LVU165
 283:Drivers/STM32U0xx_HAL_Driver/Src/stm32u0xx_hal_exti.c ****   regval = *regaddr;
 426              		.loc 1 283 38 is_stmt 0 view .LVU166
 427 001c 2601     		lsls	r6, r4, #4
 428              	.LVL49:
 429              		.loc 1 284 3 is_stmt 1 view .LVU167
 285:Drivers/STM32U0xx_HAL_Driver/Src/stm32u0xx_hal_exti.c **** 
 286:Drivers/STM32U0xx_HAL_Driver/Src/stm32u0xx_hal_exti.c ****   /* Check if selected line is enable */
 287:Drivers/STM32U0xx_HAL_Driver/Src/stm32u0xx_hal_exti.c ****   if ((regval & maskline) != 0x00U)
 430              		.loc 1 287 3 view .LVU168
 431              		.loc 1 287 15 is_stmt 0 view .LVU169
 432 001e B258     		ldr	r2, [r6, r2]
 433 0020 0240     		ands	r2, r0
 434              		.loc 1 287 6 view .LVU170
 435 0022 571E     		subs	r7, r2, #1
 436 0024 BA41     		sbcs	r2, r2, r7
 288:Drivers/STM32U0xx_HAL_Driver/Src/stm32u0xx_hal_exti.c ****   {
 289:Drivers/STM32U0xx_HAL_Driver/Src/stm32u0xx_hal_exti.c ****     pExtiConfig->Mode = EXTI_MODE_INTERRUPT;
 290:Drivers/STM32U0xx_HAL_Driver/Src/stm32u0xx_hal_exti.c ****   }
 291:Drivers/STM32U0xx_HAL_Driver/Src/stm32u0xx_hal_exti.c ****   else
 292:Drivers/STM32U0xx_HAL_Driver/Src/stm32u0xx_hal_exti.c ****   {
 293:Drivers/STM32U0xx_HAL_Driver/Src/stm32u0xx_hal_exti.c ****     pExtiConfig->Mode = EXTI_MODE_NONE;
 294:Drivers/STM32U0xx_HAL_Driver/Src/stm32u0xx_hal_exti.c ****   }
 295:Drivers/STM32U0xx_HAL_Driver/Src/stm32u0xx_hal_exti.c **** 
 296:Drivers/STM32U0xx_HAL_Driver/Src/stm32u0xx_hal_exti.c ****   /* Get event mode */
 297:Drivers/STM32U0xx_HAL_Driver/Src/stm32u0xx_hal_exti.c ****   regaddr = (uint32_t *)(&EXTI->EMR1 + (EXTI_MODE_OFFSET * offset));
 298:Drivers/STM32U0xx_HAL_Driver/Src/stm32u0xx_hal_exti.c ****   regval = *regaddr;
 437              		.loc 1 298 10 view .LVU171
 438 0026 1C4F     		ldr	r7, .L39+4
ARM GAS  C:\Users\upo\AppData\Local\Temp\cc4cKwHi.s 			page 15


 439 0028 4A60     		str	r2, [r1, #4]
 440              	.LVL50:
 297:Drivers/STM32U0xx_HAL_Driver/Src/stm32u0xx_hal_exti.c ****   regval = *regaddr;
 441              		.loc 1 297 3 is_stmt 1 view .LVU172
 442              		.loc 1 298 3 view .LVU173
 299:Drivers/STM32U0xx_HAL_Driver/Src/stm32u0xx_hal_exti.c **** 
 300:Drivers/STM32U0xx_HAL_Driver/Src/stm32u0xx_hal_exti.c ****   /* Check if selected line is enable */
 301:Drivers/STM32U0xx_HAL_Driver/Src/stm32u0xx_hal_exti.c ****   if ((regval & maskline) != 0x00U)
 443              		.loc 1 301 3 view .LVU174
 444              		.loc 1 301 15 is_stmt 0 view .LVU175
 445 002a F659     		ldr	r6, [r6, r7]
 446              	.LVL51:
 447              		.loc 1 301 6 view .LVU176
 448 002c 0642     		tst	r6, r0
 449 002e 02D0     		beq	.L26
 302:Drivers/STM32U0xx_HAL_Driver/Src/stm32u0xx_hal_exti.c ****   {
 303:Drivers/STM32U0xx_HAL_Driver/Src/stm32u0xx_hal_exti.c ****     pExtiConfig->Mode |= EXTI_MODE_EVENT;
 450              		.loc 1 303 5 is_stmt 1 view .LVU177
 451              		.loc 1 303 23 is_stmt 0 view .LVU178
 452 0030 0226     		movs	r6, #2
 453              	.LVL52:
 454              		.loc 1 303 23 view .LVU179
 455 0032 3243     		orrs	r2, r6
 456 0034 4A60     		str	r2, [r1, #4]
 457              	.LVL53:
 458              	.L26:
 304:Drivers/STM32U0xx_HAL_Driver/Src/stm32u0xx_hal_exti.c ****   }
 305:Drivers/STM32U0xx_HAL_Driver/Src/stm32u0xx_hal_exti.c **** 
 306:Drivers/STM32U0xx_HAL_Driver/Src/stm32u0xx_hal_exti.c ****   /* 2] Get trigger for configurable lines : rising */
 307:Drivers/STM32U0xx_HAL_Driver/Src/stm32u0xx_hal_exti.c ****   if ((pExtiConfig->Line & EXTI_CONFIG) != 0x00U)
 459              		.loc 1 307 3 is_stmt 1 view .LVU180
 460              		.loc 1 307 26 is_stmt 0 view .LVU181
 461 0036 8022     		movs	r2, #128
 462 0038 1E00     		movs	r6, r3
 463 003a 9204     		lsls	r2, r2, #18
 464 003c 1640     		ands	r6, r2
 465              		.loc 1 307 6 view .LVU182
 466 003e 1342     		tst	r3, r2
 467 0040 16D0     		beq	.L27
 308:Drivers/STM32U0xx_HAL_Driver/Src/stm32u0xx_hal_exti.c ****   {
 309:Drivers/STM32U0xx_HAL_Driver/Src/stm32u0xx_hal_exti.c ****     regaddr = (uint32_t *)(&EXTI->RTSR1 + (EXTI_CONFIG_OFFSET * offset));
 468              		.loc 1 309 5 is_stmt 1 view .LVU183
 310:Drivers/STM32U0xx_HAL_Driver/Src/stm32u0xx_hal_exti.c ****     regval = *regaddr;
 311:Drivers/STM32U0xx_HAL_Driver/Src/stm32u0xx_hal_exti.c **** 
 312:Drivers/STM32U0xx_HAL_Driver/Src/stm32u0xx_hal_exti.c ****     /* Get default Trigger and GPIOSel configuration */
 313:Drivers/STM32U0xx_HAL_Driver/Src/stm32u0xx_hal_exti.c ****     pExtiConfig->Trigger = EXTI_TRIGGER_NONE;
 314:Drivers/STM32U0xx_HAL_Driver/Src/stm32u0xx_hal_exti.c ****     pExtiConfig->GPIOSel = 0x00u;
 469              		.loc 1 314 26 is_stmt 0 view .LVU184
 470 0042 0026     		movs	r6, #0
 310:Drivers/STM32U0xx_HAL_Driver/Src/stm32u0xx_hal_exti.c ****     regval = *regaddr;
 471              		.loc 1 310 12 view .LVU185
 472 0044 154A     		ldr	r2, .L39+8
 309:Drivers/STM32U0xx_HAL_Driver/Src/stm32u0xx_hal_exti.c ****     regval = *regaddr;
 473              		.loc 1 309 41 view .LVU186
 474 0046 6401     		lsls	r4, r4, #5
 475              	.LVL54:
 310:Drivers/STM32U0xx_HAL_Driver/Src/stm32u0xx_hal_exti.c ****     regval = *regaddr;
ARM GAS  C:\Users\upo\AppData\Local\Temp\cc4cKwHi.s 			page 16


 476              		.loc 1 310 5 is_stmt 1 view .LVU187
 310:Drivers/STM32U0xx_HAL_Driver/Src/stm32u0xx_hal_exti.c ****     regval = *regaddr;
 477              		.loc 1 310 12 is_stmt 0 view .LVU188
 478 0048 A258     		ldr	r2, [r4, r2]
 479              	.LVL55:
 313:Drivers/STM32U0xx_HAL_Driver/Src/stm32u0xx_hal_exti.c ****     pExtiConfig->GPIOSel = 0x00u;
 480              		.loc 1 313 5 is_stmt 1 view .LVU189
 481              		.loc 1 314 5 view .LVU190
 482              		.loc 1 314 26 is_stmt 0 view .LVU191
 483 004a CE60     		str	r6, [r1, #12]
 315:Drivers/STM32U0xx_HAL_Driver/Src/stm32u0xx_hal_exti.c **** 
 316:Drivers/STM32U0xx_HAL_Driver/Src/stm32u0xx_hal_exti.c ****     /* Check if configuration of selected line is enable */
 317:Drivers/STM32U0xx_HAL_Driver/Src/stm32u0xx_hal_exti.c ****     if ((regval & maskline) != 0x00U)
 484              		.loc 1 317 5 is_stmt 1 view .LVU192
 485              		.loc 1 317 17 is_stmt 0 view .LVU193
 486 004c 0240     		ands	r2, r0
 487              	.LVL56:
 488              		.loc 1 317 8 view .LVU194
 489 004e 561E     		subs	r6, r2, #1
 490 0050 B241     		sbcs	r2, r2, r6
 318:Drivers/STM32U0xx_HAL_Driver/Src/stm32u0xx_hal_exti.c ****     {
 319:Drivers/STM32U0xx_HAL_Driver/Src/stm32u0xx_hal_exti.c ****       pExtiConfig->Trigger = EXTI_TRIGGER_RISING;
 320:Drivers/STM32U0xx_HAL_Driver/Src/stm32u0xx_hal_exti.c ****     }
 321:Drivers/STM32U0xx_HAL_Driver/Src/stm32u0xx_hal_exti.c **** 
 322:Drivers/STM32U0xx_HAL_Driver/Src/stm32u0xx_hal_exti.c ****     /* Get falling configuration */
 323:Drivers/STM32U0xx_HAL_Driver/Src/stm32u0xx_hal_exti.c ****     regaddr = (uint32_t *)(&EXTI->FTSR1 + (EXTI_CONFIG_OFFSET * offset));
 324:Drivers/STM32U0xx_HAL_Driver/Src/stm32u0xx_hal_exti.c ****     regval = *regaddr;
 491              		.loc 1 324 12 view .LVU195
 492 0052 134E     		ldr	r6, .L39+12
 493 0054 8A60     		str	r2, [r1, #8]
 323:Drivers/STM32U0xx_HAL_Driver/Src/stm32u0xx_hal_exti.c ****     regval = *regaddr;
 494              		.loc 1 323 5 is_stmt 1 view .LVU196
 495              	.LVL57:
 496              		.loc 1 324 5 view .LVU197
 325:Drivers/STM32U0xx_HAL_Driver/Src/stm32u0xx_hal_exti.c **** 
 326:Drivers/STM32U0xx_HAL_Driver/Src/stm32u0xx_hal_exti.c ****     /* Check if configuration of selected line is enable */
 327:Drivers/STM32U0xx_HAL_Driver/Src/stm32u0xx_hal_exti.c ****     if ((regval & maskline) != 0x00U)
 497              		.loc 1 327 5 view .LVU198
 498              		.loc 1 327 17 is_stmt 0 view .LVU199
 499 0056 A459     		ldr	r4, [r4, r6]
 500              	.LVL58:
 501              		.loc 1 327 8 view .LVU200
 502 0058 0442     		tst	r4, r0
 503 005a 02D0     		beq	.L28
 328:Drivers/STM32U0xx_HAL_Driver/Src/stm32u0xx_hal_exti.c ****     {
 329:Drivers/STM32U0xx_HAL_Driver/Src/stm32u0xx_hal_exti.c ****       pExtiConfig->Trigger |= EXTI_TRIGGER_FALLING;
 504              		.loc 1 329 7 is_stmt 1 view .LVU201
 505              		.loc 1 329 28 is_stmt 0 view .LVU202
 506 005c 0220     		movs	r0, #2
 507              	.LVL59:
 508              		.loc 1 329 28 view .LVU203
 509 005e 0243     		orrs	r2, r0
 510 0060 8A60     		str	r2, [r1, #8]
 511              	.L28:
 330:Drivers/STM32U0xx_HAL_Driver/Src/stm32u0xx_hal_exti.c ****     }
 331:Drivers/STM32U0xx_HAL_Driver/Src/stm32u0xx_hal_exti.c **** 
 332:Drivers/STM32U0xx_HAL_Driver/Src/stm32u0xx_hal_exti.c ****     /* Get Gpio port selection for gpio lines */
ARM GAS  C:\Users\upo\AppData\Local\Temp\cc4cKwHi.s 			page 17


 333:Drivers/STM32U0xx_HAL_Driver/Src/stm32u0xx_hal_exti.c ****     if ((pExtiConfig->Line & EXTI_GPIO) == EXTI_GPIO)
 512              		.loc 1 333 5 is_stmt 1 view .LVU204
 513              		.loc 1 333 28 is_stmt 0 view .LVU205
 514 0062 C022     		movs	r2, #192
 515 0064 D204     		lsls	r2, r2, #19
 516 0066 1340     		ands	r3, r2
 517              	.LVL60:
 518              		.loc 1 333 8 view .LVU206
 519 0068 9342     		cmp	r3, r2
 520 006a 06D0     		beq	.L29
 521              	.LVL61:
 522              	.L30:
 334:Drivers/STM32U0xx_HAL_Driver/Src/stm32u0xx_hal_exti.c ****     {
 335:Drivers/STM32U0xx_HAL_Driver/Src/stm32u0xx_hal_exti.c ****       assert_param(IS_EXTI_GPIO_PIN(linepos));
 336:Drivers/STM32U0xx_HAL_Driver/Src/stm32u0xx_hal_exti.c ****       regval = EXTI->EXTICR[linepos >> 2U];
 337:Drivers/STM32U0xx_HAL_Driver/Src/stm32u0xx_hal_exti.c ****       pExtiConfig->GPIOSel = ((regval << (8U * (3 - (linepos & 0x03U)))) >> 24);
 338:Drivers/STM32U0xx_HAL_Driver/Src/stm32u0xx_hal_exti.c ****     }
 339:Drivers/STM32U0xx_HAL_Driver/Src/stm32u0xx_hal_exti.c ****   }
 340:Drivers/STM32U0xx_HAL_Driver/Src/stm32u0xx_hal_exti.c ****   else
 341:Drivers/STM32U0xx_HAL_Driver/Src/stm32u0xx_hal_exti.c ****   {
 342:Drivers/STM32U0xx_HAL_Driver/Src/stm32u0xx_hal_exti.c ****     pExtiConfig->Trigger = EXTI_TRIGGER_NONE;
 343:Drivers/STM32U0xx_HAL_Driver/Src/stm32u0xx_hal_exti.c ****     pExtiConfig->GPIOSel = 0x00U;
 344:Drivers/STM32U0xx_HAL_Driver/Src/stm32u0xx_hal_exti.c ****   }
 345:Drivers/STM32U0xx_HAL_Driver/Src/stm32u0xx_hal_exti.c **** 
 346:Drivers/STM32U0xx_HAL_Driver/Src/stm32u0xx_hal_exti.c ****   return HAL_OK;
 523              		.loc 1 346 10 view .LVU207
 524 006c 0020     		movs	r0, #0
 525              	.LVL62:
 526              	.L25:
 347:Drivers/STM32U0xx_HAL_Driver/Src/stm32u0xx_hal_exti.c **** }
 527              		.loc 1 347 1 view .LVU208
 528              		@ sp needed
 529 006e F0BD     		pop	{r4, r5, r6, r7, pc}
 530              	.LVL63:
 531              	.L27:
 342:Drivers/STM32U0xx_HAL_Driver/Src/stm32u0xx_hal_exti.c ****     pExtiConfig->GPIOSel = 0x00U;
 532              		.loc 1 342 5 is_stmt 1 view .LVU209
 342:Drivers/STM32U0xx_HAL_Driver/Src/stm32u0xx_hal_exti.c ****     pExtiConfig->GPIOSel = 0x00U;
 533              		.loc 1 342 26 is_stmt 0 view .LVU210
 534 0070 8E60     		str	r6, [r1, #8]
 343:Drivers/STM32U0xx_HAL_Driver/Src/stm32u0xx_hal_exti.c ****   }
 535              		.loc 1 343 5 is_stmt 1 view .LVU211
 343:Drivers/STM32U0xx_HAL_Driver/Src/stm32u0xx_hal_exti.c ****   }
 536              		.loc 1 343 26 is_stmt 0 view .LVU212
 537 0072 CE60     		str	r6, [r1, #12]
 538 0074 FAE7     		b	.L30
 539              	.LVL64:
 540              	.L32:
 268:Drivers/STM32U0xx_HAL_Driver/Src/stm32u0xx_hal_exti.c ****   }
 541              		.loc 1 268 12 view .LVU213
 542 0076 0120     		movs	r0, #1
 543              	.LVL65:
 268:Drivers/STM32U0xx_HAL_Driver/Src/stm32u0xx_hal_exti.c ****   }
 544              		.loc 1 268 12 view .LVU214
 545 0078 F9E7     		b	.L25
 546              	.LVL66:
 547              	.L29:
ARM GAS  C:\Users\upo\AppData\Local\Temp\cc4cKwHi.s 			page 18


 335:Drivers/STM32U0xx_HAL_Driver/Src/stm32u0xx_hal_exti.c ****       regval = EXTI->EXTICR[linepos >> 2U];
 548              		.loc 1 335 7 is_stmt 1 view .LVU215
 336:Drivers/STM32U0xx_HAL_Driver/Src/stm32u0xx_hal_exti.c ****       pExtiConfig->GPIOSel = ((regval << (8U * (3 - (linepos & 0x03U)))) >> 24);
 549              		.loc 1 336 7 view .LVU216
 336:Drivers/STM32U0xx_HAL_Driver/Src/stm32u0xx_hal_exti.c ****       pExtiConfig->GPIOSel = ((regval << (8U * (3 - (linepos & 0x03U)))) >> 24);
 550              		.loc 1 336 37 is_stmt 0 view .LVU217
 551 007a AB08     		lsrs	r3, r5, #2
 336:Drivers/STM32U0xx_HAL_Driver/Src/stm32u0xx_hal_exti.c ****       pExtiConfig->GPIOSel = ((regval << (8U * (3 - (linepos & 0x03U)))) >> 24);
 552              		.loc 1 336 14 view .LVU218
 553 007c 074A     		ldr	r2, .L39+8
 554 007e 1833     		adds	r3, r3, #24
 555 0080 9B00     		lsls	r3, r3, #2
 556 0082 9B58     		ldr	r3, [r3, r2]
 557              	.LVL67:
 337:Drivers/STM32U0xx_HAL_Driver/Src/stm32u0xx_hal_exti.c ****     }
 558              		.loc 1 337 7 is_stmt 1 view .LVU219
 337:Drivers/STM32U0xx_HAL_Driver/Src/stm32u0xx_hal_exti.c ****     }
 559              		.loc 1 337 51 is_stmt 0 view .LVU220
 560 0084 0322     		movs	r2, #3
 561 0086 AA43     		bics	r2, r5
 337:Drivers/STM32U0xx_HAL_Driver/Src/stm32u0xx_hal_exti.c ****     }
 562              		.loc 1 337 46 view .LVU221
 563 0088 D200     		lsls	r2, r2, #3
 337:Drivers/STM32U0xx_HAL_Driver/Src/stm32u0xx_hal_exti.c ****     }
 564              		.loc 1 337 39 view .LVU222
 565 008a 9340     		lsls	r3, r3, r2
 566              	.LVL68:
 337:Drivers/STM32U0xx_HAL_Driver/Src/stm32u0xx_hal_exti.c ****     }
 567              		.loc 1 337 74 view .LVU223
 568 008c 1B0E     		lsrs	r3, r3, #24
 337:Drivers/STM32U0xx_HAL_Driver/Src/stm32u0xx_hal_exti.c ****     }
 569              		.loc 1 337 28 view .LVU224
 570 008e CB60     		str	r3, [r1, #12]
 571 0090 ECE7     		b	.L30
 572              	.L40:
 573 0092 C046     		.align	2
 574              	.L39:
 575 0094 80180240 		.word	1073879168
 576 0098 84180240 		.word	1073879172
 577 009c 00180240 		.word	1073879040
 578 00a0 04180240 		.word	1073879044
 579              		.cfi_endproc
 580              	.LFE335:
 582              		.section	.text.HAL_EXTI_ClearConfigLine,"ax",%progbits
 583              		.align	1
 584              		.p2align 2,,3
 585              		.global	HAL_EXTI_ClearConfigLine
 586              		.syntax unified
 587              		.code	16
 588              		.thumb_func
 590              	HAL_EXTI_ClearConfigLine:
 591              	.LVL69:
 592              	.LFB336:
 348:Drivers/STM32U0xx_HAL_Driver/Src/stm32u0xx_hal_exti.c **** 
 349:Drivers/STM32U0xx_HAL_Driver/Src/stm32u0xx_hal_exti.c **** /**
 350:Drivers/STM32U0xx_HAL_Driver/Src/stm32u0xx_hal_exti.c ****   * @brief  Clear whole configuration of a dedicated Exti line.
 351:Drivers/STM32U0xx_HAL_Driver/Src/stm32u0xx_hal_exti.c ****   * @param  hexti Exti handle.
ARM GAS  C:\Users\upo\AppData\Local\Temp\cc4cKwHi.s 			page 19


 352:Drivers/STM32U0xx_HAL_Driver/Src/stm32u0xx_hal_exti.c ****   * @retval HAL Status.
 353:Drivers/STM32U0xx_HAL_Driver/Src/stm32u0xx_hal_exti.c ****   */
 354:Drivers/STM32U0xx_HAL_Driver/Src/stm32u0xx_hal_exti.c **** HAL_StatusTypeDef HAL_EXTI_ClearConfigLine(EXTI_HandleTypeDef *hexti)
 355:Drivers/STM32U0xx_HAL_Driver/Src/stm32u0xx_hal_exti.c **** {
 593              		.loc 1 355 1 is_stmt 1 view -0
 594              		.cfi_startproc
 595              		@ args = 0, pretend = 0, frame = 0
 596              		@ frame_needed = 0, uses_anonymous_args = 0
 356:Drivers/STM32U0xx_HAL_Driver/Src/stm32u0xx_hal_exti.c ****   uint32_t *regaddr;
 597              		.loc 1 356 3 view .LVU226
 357:Drivers/STM32U0xx_HAL_Driver/Src/stm32u0xx_hal_exti.c ****   uint32_t regval;
 598              		.loc 1 357 3 view .LVU227
 358:Drivers/STM32U0xx_HAL_Driver/Src/stm32u0xx_hal_exti.c ****   uint32_t linepos;
 599              		.loc 1 358 3 view .LVU228
 359:Drivers/STM32U0xx_HAL_Driver/Src/stm32u0xx_hal_exti.c ****   uint32_t maskline;
 600              		.loc 1 359 3 view .LVU229
 360:Drivers/STM32U0xx_HAL_Driver/Src/stm32u0xx_hal_exti.c ****   uint32_t offset;
 601              		.loc 1 360 3 view .LVU230
 361:Drivers/STM32U0xx_HAL_Driver/Src/stm32u0xx_hal_exti.c **** 
 362:Drivers/STM32U0xx_HAL_Driver/Src/stm32u0xx_hal_exti.c ****   /* Check null pointer */
 363:Drivers/STM32U0xx_HAL_Driver/Src/stm32u0xx_hal_exti.c ****   if (hexti == NULL)
 602              		.loc 1 363 3 view .LVU231
 355:Drivers/STM32U0xx_HAL_Driver/Src/stm32u0xx_hal_exti.c ****   uint32_t *regaddr;
 603              		.loc 1 355 1 is_stmt 0 view .LVU232
 604 0000 F0B5     		push	{r4, r5, r6, r7, lr}
 605              	.LCFI3:
 606              		.cfi_def_cfa_offset 20
 607              		.cfi_offset 4, -20
 608              		.cfi_offset 5, -16
 609              		.cfi_offset 6, -12
 610              		.cfi_offset 7, -8
 611              		.cfi_offset 14, -4
 612 0002 C646     		mov	lr, r8
 613 0004 00B5     		push	{lr}
 614              	.LCFI4:
 615              		.cfi_def_cfa_offset 24
 616              		.cfi_offset 8, -24
 617              		.loc 1 363 6 view .LVU233
 618 0006 0028     		cmp	r0, #0
 619 0008 3ED0     		beq	.L46
 364:Drivers/STM32U0xx_HAL_Driver/Src/stm32u0xx_hal_exti.c ****   {
 365:Drivers/STM32U0xx_HAL_Driver/Src/stm32u0xx_hal_exti.c ****     return HAL_ERROR;
 366:Drivers/STM32U0xx_HAL_Driver/Src/stm32u0xx_hal_exti.c ****   }
 367:Drivers/STM32U0xx_HAL_Driver/Src/stm32u0xx_hal_exti.c **** 
 368:Drivers/STM32U0xx_HAL_Driver/Src/stm32u0xx_hal_exti.c ****   /* Check the parameter */
 369:Drivers/STM32U0xx_HAL_Driver/Src/stm32u0xx_hal_exti.c ****   assert_param(IS_EXTI_LINE(hexti->Line));
 620              		.loc 1 369 3 is_stmt 1 view .LVU234
 370:Drivers/STM32U0xx_HAL_Driver/Src/stm32u0xx_hal_exti.c ****   /* compute line register offset and line mask */
 371:Drivers/STM32U0xx_HAL_Driver/Src/stm32u0xx_hal_exti.c ****   offset = ((hexti->Line & EXTI_REG_MASK) >> EXTI_REG_SHIFT);
 621              		.loc 1 371 3 view .LVU235
 372:Drivers/STM32U0xx_HAL_Driver/Src/stm32u0xx_hal_exti.c ****   linepos = (hexti->Line & EXTI_PIN_MASK);
 622              		.loc 1 372 11 is_stmt 0 view .LVU236
 623 000a 1F24     		movs	r4, #31
 371:Drivers/STM32U0xx_HAL_Driver/Src/stm32u0xx_hal_exti.c ****   linepos = (hexti->Line & EXTI_PIN_MASK);
 624              		.loc 1 371 10 view .LVU237
 625 000c 0122     		movs	r2, #1
 371:Drivers/STM32U0xx_HAL_Driver/Src/stm32u0xx_hal_exti.c ****   linepos = (hexti->Line & EXTI_PIN_MASK);
ARM GAS  C:\Users\upo\AppData\Local\Temp\cc4cKwHi.s 			page 20


 626              		.loc 1 371 19 view .LVU238
 627 000e 0668     		ldr	r6, [r0]
 373:Drivers/STM32U0xx_HAL_Driver/Src/stm32u0xx_hal_exti.c ****   maskline = (1 << linepos);
 374:Drivers/STM32U0xx_HAL_Driver/Src/stm32u0xx_hal_exti.c **** 
 375:Drivers/STM32U0xx_HAL_Driver/Src/stm32u0xx_hal_exti.c ****   /* 1] Clear interrupt mode */
 376:Drivers/STM32U0xx_HAL_Driver/Src/stm32u0xx_hal_exti.c ****   regaddr = (uint32_t *)(&EXTI->IMR1 + (EXTI_MODE_OFFSET * offset));
 628              		.loc 1 376 11 view .LVU239
 629 0010 1E4D     		ldr	r5, .L50
 371:Drivers/STM32U0xx_HAL_Driver/Src/stm32u0xx_hal_exti.c ****   linepos = (hexti->Line & EXTI_PIN_MASK);
 630              		.loc 1 371 43 view .LVU240
 631 0012 330C     		lsrs	r3, r6, #16
 372:Drivers/STM32U0xx_HAL_Driver/Src/stm32u0xx_hal_exti.c ****   maskline = (1 << linepos);
 632              		.loc 1 372 11 view .LVU241
 633 0014 3440     		ands	r4, r6
 371:Drivers/STM32U0xx_HAL_Driver/Src/stm32u0xx_hal_exti.c ****   linepos = (hexti->Line & EXTI_PIN_MASK);
 634              		.loc 1 371 10 view .LVU242
 635 0016 1340     		ands	r3, r2
 636              	.LVL70:
 372:Drivers/STM32U0xx_HAL_Driver/Src/stm32u0xx_hal_exti.c ****   maskline = (1 << linepos);
 637              		.loc 1 372 3 is_stmt 1 view .LVU243
 373:Drivers/STM32U0xx_HAL_Driver/Src/stm32u0xx_hal_exti.c ****   maskline = (1 << linepos);
 638              		.loc 1 373 3 view .LVU244
 639              		.loc 1 376 3 view .LVU245
 373:Drivers/STM32U0xx_HAL_Driver/Src/stm32u0xx_hal_exti.c ****   maskline = (1 << linepos);
 640              		.loc 1 373 17 is_stmt 0 view .LVU246
 641 0018 A240     		lsls	r2, r2, r4
 642              	.LVL71:
 643              		.loc 1 376 11 view .LVU247
 644 001a AC46     		mov	ip, r5
 377:Drivers/STM32U0xx_HAL_Driver/Src/stm32u0xx_hal_exti.c ****   regval = (*regaddr & ~maskline);
 645              		.loc 1 377 24 view .LVU248
 646 001c D543     		mvns	r5, r2
 376:Drivers/STM32U0xx_HAL_Driver/Src/stm32u0xx_hal_exti.c ****   regval = (*regaddr & ~maskline);
 647              		.loc 1 376 38 view .LVU249
 648 001e 1901     		lsls	r1, r3, #4
 376:Drivers/STM32U0xx_HAL_Driver/Src/stm32u0xx_hal_exti.c ****   regval = (*regaddr & ~maskline);
 649              		.loc 1 376 11 view .LVU250
 650 0020 8C44     		add	ip, ip, r1
 651              	.LVL72:
 652              		.loc 1 377 3 is_stmt 1 view .LVU251
 653              		.loc 1 377 24 is_stmt 0 view .LVU252
 654 0022 A846     		mov	r8, r5
 655              	.LVL73:
 378:Drivers/STM32U0xx_HAL_Driver/Src/stm32u0xx_hal_exti.c ****   *regaddr = regval;
 656              		.loc 1 378 3 is_stmt 1 view .LVU253
 377:Drivers/STM32U0xx_HAL_Driver/Src/stm32u0xx_hal_exti.c ****   regval = (*regaddr & ~maskline);
 657              		.loc 1 377 10 is_stmt 0 view .LVU254
 658 0024 6546     		mov	r5, ip
 659              	.LVL74:
 660              		.loc 1 378 12 view .LVU255
 661 0026 6746     		mov	r7, ip
 377:Drivers/STM32U0xx_HAL_Driver/Src/stm32u0xx_hal_exti.c ****   regval = (*regaddr & ~maskline);
 662              		.loc 1 377 10 view .LVU256
 663 0028 2D68     		ldr	r5, [r5]
 664 002a 9543     		bics	r5, r2
 665              	.LVL75:
 666              		.loc 1 378 12 view .LVU257
ARM GAS  C:\Users\upo\AppData\Local\Temp\cc4cKwHi.s 			page 21


 667 002c 3D60     		str	r5, [r7]
 379:Drivers/STM32U0xx_HAL_Driver/Src/stm32u0xx_hal_exti.c **** 
 380:Drivers/STM32U0xx_HAL_Driver/Src/stm32u0xx_hal_exti.c ****   /* 2] Clear event mode */
 381:Drivers/STM32U0xx_HAL_Driver/Src/stm32u0xx_hal_exti.c ****   regaddr = (uint32_t *)(&EXTI->EMR1 + (EXTI_MODE_OFFSET * offset));
 668              		.loc 1 381 3 is_stmt 1 view .LVU258
 669              		.loc 1 381 11 is_stmt 0 view .LVU259
 670 002e 184D     		ldr	r5, .L50+4
 671              	.LVL76:
 672              		.loc 1 381 11 view .LVU260
 673 0030 AC46     		mov	ip, r5
 674              	.LVL77:
 675              		.loc 1 381 11 view .LVU261
 676 0032 6144     		add	r1, r1, ip
 677              	.LVL78:
 382:Drivers/STM32U0xx_HAL_Driver/Src/stm32u0xx_hal_exti.c ****   regval = (*regaddr & ~maskline);
 678              		.loc 1 382 3 is_stmt 1 view .LVU262
 383:Drivers/STM32U0xx_HAL_Driver/Src/stm32u0xx_hal_exti.c ****   *regaddr = regval;
 679              		.loc 1 383 3 view .LVU263
 382:Drivers/STM32U0xx_HAL_Driver/Src/stm32u0xx_hal_exti.c ****   regval = (*regaddr & ~maskline);
 680              		.loc 1 382 10 is_stmt 0 view .LVU264
 681 0034 0D68     		ldr	r5, [r1]
 682 0036 9543     		bics	r5, r2
 683              	.LVL79:
 684              		.loc 1 383 12 view .LVU265
 685 0038 0D60     		str	r5, [r1]
 384:Drivers/STM32U0xx_HAL_Driver/Src/stm32u0xx_hal_exti.c **** 
 385:Drivers/STM32U0xx_HAL_Driver/Src/stm32u0xx_hal_exti.c ****   /* 3] Clear triggers in case of configurable lines */
 386:Drivers/STM32U0xx_HAL_Driver/Src/stm32u0xx_hal_exti.c ****   if ((hexti->Line & EXTI_CONFIG) != 0x00U)
 686              		.loc 1 386 3 is_stmt 1 view .LVU266
 687              		.loc 1 386 20 is_stmt 0 view .LVU267
 688 003a 0268     		ldr	r2, [r0]
 689              	.LVL80:
 690              		.loc 1 386 6 view .LVU268
 691 003c 9201     		lsls	r2, r2, #6
 692 003e 1FD5     		bpl	.L45
 387:Drivers/STM32U0xx_HAL_Driver/Src/stm32u0xx_hal_exti.c ****   {
 388:Drivers/STM32U0xx_HAL_Driver/Src/stm32u0xx_hal_exti.c ****     regaddr = (uint32_t *)(&EXTI->RTSR1 + (EXTI_CONFIG_OFFSET * offset));
 693              		.loc 1 388 5 is_stmt 1 view .LVU269
 389:Drivers/STM32U0xx_HAL_Driver/Src/stm32u0xx_hal_exti.c ****     regval = (*regaddr & ~maskline);
 694              		.loc 1 389 12 is_stmt 0 view .LVU270
 695 0040 4546     		mov	r5, r8
 696              	.LVL81:
 388:Drivers/STM32U0xx_HAL_Driver/Src/stm32u0xx_hal_exti.c ****     regval = (*regaddr & ~maskline);
 697              		.loc 1 388 13 view .LVU271
 698 0042 144A     		ldr	r2, .L50+8
 388:Drivers/STM32U0xx_HAL_Driver/Src/stm32u0xx_hal_exti.c ****     regval = (*regaddr & ~maskline);
 699              		.loc 1 388 41 view .LVU272
 700 0044 5B01     		lsls	r3, r3, #5
 701              	.LVL82:
 388:Drivers/STM32U0xx_HAL_Driver/Src/stm32u0xx_hal_exti.c ****     regval = (*regaddr & ~maskline);
 702              		.loc 1 388 13 view .LVU273
 703 0046 9918     		adds	r1, r3, r2
 704              	.LVL83:
 705              		.loc 1 389 5 is_stmt 1 view .LVU274
 390:Drivers/STM32U0xx_HAL_Driver/Src/stm32u0xx_hal_exti.c ****     *regaddr = regval;
 706              		.loc 1 390 5 view .LVU275
 389:Drivers/STM32U0xx_HAL_Driver/Src/stm32u0xx_hal_exti.c ****     regval = (*regaddr & ~maskline);
ARM GAS  C:\Users\upo\AppData\Local\Temp\cc4cKwHi.s 			page 22


 707              		.loc 1 389 12 is_stmt 0 view .LVU276
 708 0048 0A68     		ldr	r2, [r1]
 391:Drivers/STM32U0xx_HAL_Driver/Src/stm32u0xx_hal_exti.c **** 
 392:Drivers/STM32U0xx_HAL_Driver/Src/stm32u0xx_hal_exti.c ****     regaddr = (uint32_t *)(&EXTI->FTSR1 + (EXTI_CONFIG_OFFSET * offset));
 393:Drivers/STM32U0xx_HAL_Driver/Src/stm32u0xx_hal_exti.c ****     regval = (*regaddr & ~maskline);
 709              		.loc 1 393 12 view .LVU277
 710 004a 4746     		mov	r7, r8
 389:Drivers/STM32U0xx_HAL_Driver/Src/stm32u0xx_hal_exti.c ****     *regaddr = regval;
 711              		.loc 1 389 12 view .LVU278
 712 004c 2A40     		ands	r2, r5
 713              	.LVL84:
 390:Drivers/STM32U0xx_HAL_Driver/Src/stm32u0xx_hal_exti.c ****     *regaddr = regval;
 714              		.loc 1 390 14 view .LVU279
 715 004e 0A60     		str	r2, [r1]
 392:Drivers/STM32U0xx_HAL_Driver/Src/stm32u0xx_hal_exti.c ****     regval = (*regaddr & ~maskline);
 716              		.loc 1 392 5 is_stmt 1 view .LVU280
 392:Drivers/STM32U0xx_HAL_Driver/Src/stm32u0xx_hal_exti.c ****     regval = (*regaddr & ~maskline);
 717              		.loc 1 392 13 is_stmt 0 view .LVU281
 718 0050 114A     		ldr	r2, .L50+12
 719              	.LVL85:
 392:Drivers/STM32U0xx_HAL_Driver/Src/stm32u0xx_hal_exti.c ****     regval = (*regaddr & ~maskline);
 720              		.loc 1 392 13 view .LVU282
 721 0052 9446     		mov	ip, r2
 722 0054 6344     		add	r3, r3, ip
 723              	.LVL86:
 724              		.loc 1 393 5 is_stmt 1 view .LVU283
 394:Drivers/STM32U0xx_HAL_Driver/Src/stm32u0xx_hal_exti.c ****     *regaddr = regval;
 725              		.loc 1 394 5 view .LVU284
 393:Drivers/STM32U0xx_HAL_Driver/Src/stm32u0xx_hal_exti.c ****     *regaddr = regval;
 726              		.loc 1 393 12 is_stmt 0 view .LVU285
 727 0056 1A68     		ldr	r2, [r3]
 728 0058 1740     		ands	r7, r2
 729              	.LVL87:
 730              		.loc 1 394 14 view .LVU286
 731 005a 1F60     		str	r7, [r3]
 395:Drivers/STM32U0xx_HAL_Driver/Src/stm32u0xx_hal_exti.c **** 
 396:Drivers/STM32U0xx_HAL_Driver/Src/stm32u0xx_hal_exti.c ****     /* Get Gpio port selection for gpio lines */
 397:Drivers/STM32U0xx_HAL_Driver/Src/stm32u0xx_hal_exti.c ****     if ((hexti->Line & EXTI_GPIO) != 0x00U)
 732              		.loc 1 397 5 is_stmt 1 view .LVU287
 733              		.loc 1 397 22 is_stmt 0 view .LVU288
 734 005c C023     		movs	r3, #192
 735              	.LVL88:
 736              		.loc 1 397 22 view .LVU289
 737 005e 0268     		ldr	r2, [r0]
 738 0060 DB04     		lsls	r3, r3, #19
 739              		.loc 1 397 8 view .LVU290
 740 0062 1A42     		tst	r2, r3
 741 0064 0CD0     		beq	.L45
 398:Drivers/STM32U0xx_HAL_Driver/Src/stm32u0xx_hal_exti.c ****     {
 399:Drivers/STM32U0xx_HAL_Driver/Src/stm32u0xx_hal_exti.c ****       assert_param(IS_EXTI_GPIO_PIN(linepos));
 742              		.loc 1 399 7 is_stmt 1 view .LVU291
 400:Drivers/STM32U0xx_HAL_Driver/Src/stm32u0xx_hal_exti.c ****       regval = EXTI->EXTICR[linepos >> 2U];
 743              		.loc 1 400 7 view .LVU292
 744 0066 0B4B     		ldr	r3, .L50+8
 401:Drivers/STM32U0xx_HAL_Driver/Src/stm32u0xx_hal_exti.c ****       regval &= ~(0xFFU << (8U * (linepos & 0x03U)));
 745              		.loc 1 401 25 is_stmt 0 view .LVU293
 746 0068 FF21     		movs	r1, #255
ARM GAS  C:\Users\upo\AppData\Local\Temp\cc4cKwHi.s 			page 23


 747              	.LVL89:
 748              		.loc 1 401 25 view .LVU294
 749 006a 9C46     		mov	ip, r3
 750              	.LVL90:
 751              		.loc 1 401 43 view .LVU295
 752 006c 0323     		movs	r3, #3
 753 006e 3340     		ands	r3, r6
 754              		.loc 1 401 32 view .LVU296
 755 0070 DB00     		lsls	r3, r3, #3
 756              		.loc 1 401 25 view .LVU297
 757 0072 9940     		lsls	r1, r1, r3
 400:Drivers/STM32U0xx_HAL_Driver/Src/stm32u0xx_hal_exti.c ****       regval = EXTI->EXTICR[linepos >> 2U];
 758              		.loc 1 400 37 view .LVU298
 759 0074 A408     		lsrs	r4, r4, #2
 760              	.LVL91:
 400:Drivers/STM32U0xx_HAL_Driver/Src/stm32u0xx_hal_exti.c ****       regval = EXTI->EXTICR[linepos >> 2U];
 761              		.loc 1 400 37 view .LVU299
 762 0076 A400     		lsls	r4, r4, #2
 763 0078 6444     		add	r4, r4, ip
 400:Drivers/STM32U0xx_HAL_Driver/Src/stm32u0xx_hal_exti.c ****       regval = EXTI->EXTICR[linepos >> 2U];
 764              		.loc 1 400 14 view .LVU300
 765 007a 226E     		ldr	r2, [r4, #96]
 766              	.LVL92:
 767              		.loc 1 401 7 is_stmt 1 view .LVU301
 768              		.loc 1 401 14 is_stmt 0 view .LVU302
 769 007c 8A43     		bics	r2, r1
 770              	.LVL93:
 402:Drivers/STM32U0xx_HAL_Driver/Src/stm32u0xx_hal_exti.c ****       EXTI->EXTICR[linepos >> 2U] = regval;
 771              		.loc 1 402 7 is_stmt 1 view .LVU303
 772              		.loc 1 402 35 is_stmt 0 view .LVU304
 773 007e 2266     		str	r2, [r4, #96]
 774              	.LVL94:
 775              	.L45:
 403:Drivers/STM32U0xx_HAL_Driver/Src/stm32u0xx_hal_exti.c ****     }
 404:Drivers/STM32U0xx_HAL_Driver/Src/stm32u0xx_hal_exti.c ****   }
 405:Drivers/STM32U0xx_HAL_Driver/Src/stm32u0xx_hal_exti.c **** 
 406:Drivers/STM32U0xx_HAL_Driver/Src/stm32u0xx_hal_exti.c ****   return HAL_OK;
 776              		.loc 1 406 10 view .LVU305
 777 0080 0020     		movs	r0, #0
 778              	.LVL95:
 779              	.L42:
 407:Drivers/STM32U0xx_HAL_Driver/Src/stm32u0xx_hal_exti.c **** }
 780              		.loc 1 407 1 view .LVU306
 781              		@ sp needed
 782 0082 80BC     		pop	{r7}
 783 0084 B846     		mov	r8, r7
 784 0086 F0BD     		pop	{r4, r5, r6, r7, pc}
 785              	.LVL96:
 786              	.L46:
 365:Drivers/STM32U0xx_HAL_Driver/Src/stm32u0xx_hal_exti.c ****   }
 787              		.loc 1 365 12 view .LVU307
 788 0088 0120     		movs	r0, #1
 789              	.LVL97:
 365:Drivers/STM32U0xx_HAL_Driver/Src/stm32u0xx_hal_exti.c ****   }
 790              		.loc 1 365 12 view .LVU308
 791 008a FAE7     		b	.L42
 792              	.L51:
ARM GAS  C:\Users\upo\AppData\Local\Temp\cc4cKwHi.s 			page 24


 793              		.align	2
 794              	.L50:
 795 008c 80180240 		.word	1073879168
 796 0090 84180240 		.word	1073879172
 797 0094 00180240 		.word	1073879040
 798 0098 04180240 		.word	1073879044
 799              		.cfi_endproc
 800              	.LFE336:
 802              		.section	.text.HAL_EXTI_RegisterCallback,"ax",%progbits
 803              		.align	1
 804              		.p2align 2,,3
 805              		.global	HAL_EXTI_RegisterCallback
 806              		.syntax unified
 807              		.code	16
 808              		.thumb_func
 810              	HAL_EXTI_RegisterCallback:
 811              	.LVL98:
 812              	.LFB337:
 408:Drivers/STM32U0xx_HAL_Driver/Src/stm32u0xx_hal_exti.c **** 
 409:Drivers/STM32U0xx_HAL_Driver/Src/stm32u0xx_hal_exti.c **** /**
 410:Drivers/STM32U0xx_HAL_Driver/Src/stm32u0xx_hal_exti.c ****   * @brief  Register callback for a dedicaated Exti line.
 411:Drivers/STM32U0xx_HAL_Driver/Src/stm32u0xx_hal_exti.c ****   * @param  hexti Exti handle.
 412:Drivers/STM32U0xx_HAL_Driver/Src/stm32u0xx_hal_exti.c ****   * @param  CallbackID User callback identifier.
 413:Drivers/STM32U0xx_HAL_Driver/Src/stm32u0xx_hal_exti.c ****   *         This parameter can be one of @arg @ref EXTI_CallbackIDTypeDef values.
 414:Drivers/STM32U0xx_HAL_Driver/Src/stm32u0xx_hal_exti.c ****   * @param  pPendingCbfn function pointer to be stored as callback.
 415:Drivers/STM32U0xx_HAL_Driver/Src/stm32u0xx_hal_exti.c ****   * @retval HAL Status.
 416:Drivers/STM32U0xx_HAL_Driver/Src/stm32u0xx_hal_exti.c ****   */
 417:Drivers/STM32U0xx_HAL_Driver/Src/stm32u0xx_hal_exti.c **** HAL_StatusTypeDef HAL_EXTI_RegisterCallback(EXTI_HandleTypeDef *hexti, EXTI_CallbackIDTypeDef Callb
 418:Drivers/STM32U0xx_HAL_Driver/Src/stm32u0xx_hal_exti.c ****                                             void (*pPendingCbfn)(void))
 419:Drivers/STM32U0xx_HAL_Driver/Src/stm32u0xx_hal_exti.c **** {
 813              		.loc 1 419 1 is_stmt 1 view -0
 814              		.cfi_startproc
 815              		@ args = 0, pretend = 0, frame = 0
 816              		@ frame_needed = 0, uses_anonymous_args = 0
 817              		@ link register save eliminated.
 420:Drivers/STM32U0xx_HAL_Driver/Src/stm32u0xx_hal_exti.c ****   HAL_StatusTypeDef status = HAL_OK;
 818              		.loc 1 420 3 view .LVU310
 421:Drivers/STM32U0xx_HAL_Driver/Src/stm32u0xx_hal_exti.c **** 
 422:Drivers/STM32U0xx_HAL_Driver/Src/stm32u0xx_hal_exti.c ****   switch (CallbackID)
 819              		.loc 1 422 3 view .LVU311
 419:Drivers/STM32U0xx_HAL_Driver/Src/stm32u0xx_hal_exti.c ****   HAL_StatusTypeDef status = HAL_OK;
 820              		.loc 1 419 1 is_stmt 0 view .LVU312
 821 0000 0300     		movs	r3, r0
 822              		.loc 1 422 3 view .LVU313
 823 0002 0129     		cmp	r1, #1
 824 0004 05D0     		beq	.L53
 825 0006 0229     		cmp	r1, #2
 826 0008 0AD0     		beq	.L54
 827 000a 0120     		movs	r0, #1
 828              	.LVL99:
 829              		.loc 1 422 3 view .LVU314
 830 000c 0029     		cmp	r1, #0
 831 000e 03D0     		beq	.L58
 832              	.L55:
 833              	.LVL100:
 423:Drivers/STM32U0xx_HAL_Driver/Src/stm32u0xx_hal_exti.c ****   {
 424:Drivers/STM32U0xx_HAL_Driver/Src/stm32u0xx_hal_exti.c ****     case  HAL_EXTI_COMMON_CB_ID:
ARM GAS  C:\Users\upo\AppData\Local\Temp\cc4cKwHi.s 			page 25


 425:Drivers/STM32U0xx_HAL_Driver/Src/stm32u0xx_hal_exti.c ****       hexti->RisingCallback = pPendingCbfn;
 426:Drivers/STM32U0xx_HAL_Driver/Src/stm32u0xx_hal_exti.c ****       hexti->FallingCallback = pPendingCbfn;
 427:Drivers/STM32U0xx_HAL_Driver/Src/stm32u0xx_hal_exti.c ****       break;
 428:Drivers/STM32U0xx_HAL_Driver/Src/stm32u0xx_hal_exti.c **** 
 429:Drivers/STM32U0xx_HAL_Driver/Src/stm32u0xx_hal_exti.c ****     case  HAL_EXTI_RISING_CB_ID:
 430:Drivers/STM32U0xx_HAL_Driver/Src/stm32u0xx_hal_exti.c ****       hexti->RisingCallback = pPendingCbfn;
 431:Drivers/STM32U0xx_HAL_Driver/Src/stm32u0xx_hal_exti.c ****       break;
 432:Drivers/STM32U0xx_HAL_Driver/Src/stm32u0xx_hal_exti.c **** 
 433:Drivers/STM32U0xx_HAL_Driver/Src/stm32u0xx_hal_exti.c ****     case  HAL_EXTI_FALLING_CB_ID:
 434:Drivers/STM32U0xx_HAL_Driver/Src/stm32u0xx_hal_exti.c ****       hexti->FallingCallback = pPendingCbfn;
 435:Drivers/STM32U0xx_HAL_Driver/Src/stm32u0xx_hal_exti.c ****       break;
 436:Drivers/STM32U0xx_HAL_Driver/Src/stm32u0xx_hal_exti.c **** 
 437:Drivers/STM32U0xx_HAL_Driver/Src/stm32u0xx_hal_exti.c ****     default:
 438:Drivers/STM32U0xx_HAL_Driver/Src/stm32u0xx_hal_exti.c ****       status = HAL_ERROR;
 439:Drivers/STM32U0xx_HAL_Driver/Src/stm32u0xx_hal_exti.c ****       break;
 440:Drivers/STM32U0xx_HAL_Driver/Src/stm32u0xx_hal_exti.c ****   }
 441:Drivers/STM32U0xx_HAL_Driver/Src/stm32u0xx_hal_exti.c **** 
 442:Drivers/STM32U0xx_HAL_Driver/Src/stm32u0xx_hal_exti.c ****   return status;
 834              		.loc 1 442 3 is_stmt 1 view .LVU315
 443:Drivers/STM32U0xx_HAL_Driver/Src/stm32u0xx_hal_exti.c **** }
 835              		.loc 1 443 1 is_stmt 0 view .LVU316
 836              		@ sp needed
 837 0010 7047     		bx	lr
 838              	.LVL101:
 839              	.L53:
 430:Drivers/STM32U0xx_HAL_Driver/Src/stm32u0xx_hal_exti.c ****       break;
 840              		.loc 1 430 7 is_stmt 1 view .LVU317
 430:Drivers/STM32U0xx_HAL_Driver/Src/stm32u0xx_hal_exti.c ****       break;
 841              		.loc 1 430 29 is_stmt 0 view .LVU318
 842 0012 4260     		str	r2, [r0, #4]
 431:Drivers/STM32U0xx_HAL_Driver/Src/stm32u0xx_hal_exti.c **** 
 843              		.loc 1 431 7 is_stmt 1 view .LVU319
 420:Drivers/STM32U0xx_HAL_Driver/Src/stm32u0xx_hal_exti.c **** 
 844              		.loc 1 420 21 is_stmt 0 view .LVU320
 845 0014 0020     		movs	r0, #0
 846              	.LVL102:
 420:Drivers/STM32U0xx_HAL_Driver/Src/stm32u0xx_hal_exti.c **** 
 847              		.loc 1 420 21 view .LVU321
 848 0016 FBE7     		b	.L55
 849              	.L58:
 425:Drivers/STM32U0xx_HAL_Driver/Src/stm32u0xx_hal_exti.c ****       hexti->FallingCallback = pPendingCbfn;
 850              		.loc 1 425 7 is_stmt 1 view .LVU322
 420:Drivers/STM32U0xx_HAL_Driver/Src/stm32u0xx_hal_exti.c **** 
 851              		.loc 1 420 21 is_stmt 0 view .LVU323
 852 0018 0020     		movs	r0, #0
 425:Drivers/STM32U0xx_HAL_Driver/Src/stm32u0xx_hal_exti.c ****       hexti->FallingCallback = pPendingCbfn;
 853              		.loc 1 425 29 view .LVU324
 854 001a 5A60     		str	r2, [r3, #4]
 426:Drivers/STM32U0xx_HAL_Driver/Src/stm32u0xx_hal_exti.c ****       break;
 855              		.loc 1 426 7 is_stmt 1 view .LVU325
 426:Drivers/STM32U0xx_HAL_Driver/Src/stm32u0xx_hal_exti.c ****       break;
 856              		.loc 1 426 30 is_stmt 0 view .LVU326
 857 001c 9A60     		str	r2, [r3, #8]
 427:Drivers/STM32U0xx_HAL_Driver/Src/stm32u0xx_hal_exti.c **** 
 858              		.loc 1 427 7 is_stmt 1 view .LVU327
 859 001e F7E7     		b	.L55
 860              	.LVL103:
ARM GAS  C:\Users\upo\AppData\Local\Temp\cc4cKwHi.s 			page 26


 861              	.L54:
 434:Drivers/STM32U0xx_HAL_Driver/Src/stm32u0xx_hal_exti.c ****       break;
 862              		.loc 1 434 7 view .LVU328
 434:Drivers/STM32U0xx_HAL_Driver/Src/stm32u0xx_hal_exti.c ****       break;
 863              		.loc 1 434 30 is_stmt 0 view .LVU329
 864 0020 8260     		str	r2, [r0, #8]
 435:Drivers/STM32U0xx_HAL_Driver/Src/stm32u0xx_hal_exti.c **** 
 865              		.loc 1 435 7 is_stmt 1 view .LVU330
 420:Drivers/STM32U0xx_HAL_Driver/Src/stm32u0xx_hal_exti.c **** 
 866              		.loc 1 420 21 is_stmt 0 view .LVU331
 867 0022 0020     		movs	r0, #0
 868              	.LVL104:
 420:Drivers/STM32U0xx_HAL_Driver/Src/stm32u0xx_hal_exti.c **** 
 869              		.loc 1 420 21 view .LVU332
 870 0024 F4E7     		b	.L55
 871              		.cfi_endproc
 872              	.LFE337:
 874 0026 C046     		.section	.text.HAL_EXTI_GetHandle,"ax",%progbits
 875              		.align	1
 876              		.p2align 2,,3
 877              		.global	HAL_EXTI_GetHandle
 878              		.syntax unified
 879              		.code	16
 880              		.thumb_func
 882              	HAL_EXTI_GetHandle:
 883              	.LVL105:
 884              	.LFB338:
 444:Drivers/STM32U0xx_HAL_Driver/Src/stm32u0xx_hal_exti.c **** 
 445:Drivers/STM32U0xx_HAL_Driver/Src/stm32u0xx_hal_exti.c **** /**
 446:Drivers/STM32U0xx_HAL_Driver/Src/stm32u0xx_hal_exti.c ****   * @brief  Store line number as handle private field.
 447:Drivers/STM32U0xx_HAL_Driver/Src/stm32u0xx_hal_exti.c ****   * @param  hexti Exti handle.
 448:Drivers/STM32U0xx_HAL_Driver/Src/stm32u0xx_hal_exti.c ****   * @param  ExtiLine Exti line number.
 449:Drivers/STM32U0xx_HAL_Driver/Src/stm32u0xx_hal_exti.c ****   *         This parameter can be from 0 to @ref EXTI_LINE_NB.
 450:Drivers/STM32U0xx_HAL_Driver/Src/stm32u0xx_hal_exti.c ****   * @retval HAL Status.
 451:Drivers/STM32U0xx_HAL_Driver/Src/stm32u0xx_hal_exti.c ****   */
 452:Drivers/STM32U0xx_HAL_Driver/Src/stm32u0xx_hal_exti.c **** HAL_StatusTypeDef HAL_EXTI_GetHandle(EXTI_HandleTypeDef *hexti, uint32_t ExtiLine)
 453:Drivers/STM32U0xx_HAL_Driver/Src/stm32u0xx_hal_exti.c **** {
 885              		.loc 1 453 1 is_stmt 1 view -0
 886              		.cfi_startproc
 887              		@ args = 0, pretend = 0, frame = 0
 888              		@ frame_needed = 0, uses_anonymous_args = 0
 889              		@ link register save eliminated.
 454:Drivers/STM32U0xx_HAL_Driver/Src/stm32u0xx_hal_exti.c ****   /* Check the parameters */
 455:Drivers/STM32U0xx_HAL_Driver/Src/stm32u0xx_hal_exti.c ****   assert_param(IS_EXTI_LINE(ExtiLine));
 890              		.loc 1 455 3 view .LVU334
 456:Drivers/STM32U0xx_HAL_Driver/Src/stm32u0xx_hal_exti.c **** 
 457:Drivers/STM32U0xx_HAL_Driver/Src/stm32u0xx_hal_exti.c ****   /* Check null pointer */
 458:Drivers/STM32U0xx_HAL_Driver/Src/stm32u0xx_hal_exti.c ****   if (hexti == NULL)
 891              		.loc 1 458 3 view .LVU335
 892              		.loc 1 458 6 is_stmt 0 view .LVU336
 893 0000 0028     		cmp	r0, #0
 894 0002 02D0     		beq	.L61
 459:Drivers/STM32U0xx_HAL_Driver/Src/stm32u0xx_hal_exti.c ****   {
 460:Drivers/STM32U0xx_HAL_Driver/Src/stm32u0xx_hal_exti.c ****     return HAL_ERROR;
 461:Drivers/STM32U0xx_HAL_Driver/Src/stm32u0xx_hal_exti.c ****   }
 462:Drivers/STM32U0xx_HAL_Driver/Src/stm32u0xx_hal_exti.c ****   else
 463:Drivers/STM32U0xx_HAL_Driver/Src/stm32u0xx_hal_exti.c ****   {
ARM GAS  C:\Users\upo\AppData\Local\Temp\cc4cKwHi.s 			page 27


 464:Drivers/STM32U0xx_HAL_Driver/Src/stm32u0xx_hal_exti.c ****     /* Store line number as handle private field */
 465:Drivers/STM32U0xx_HAL_Driver/Src/stm32u0xx_hal_exti.c ****     hexti->Line = ExtiLine;
 895              		.loc 1 465 5 is_stmt 1 view .LVU337
 896              		.loc 1 465 17 is_stmt 0 view .LVU338
 897 0004 0160     		str	r1, [r0]
 466:Drivers/STM32U0xx_HAL_Driver/Src/stm32u0xx_hal_exti.c **** 
 467:Drivers/STM32U0xx_HAL_Driver/Src/stm32u0xx_hal_exti.c ****     return HAL_OK;
 898              		.loc 1 467 5 is_stmt 1 view .LVU339
 899              		.loc 1 467 12 is_stmt 0 view .LVU340
 900 0006 0020     		movs	r0, #0
 901              	.LVL106:
 902              	.L60:
 468:Drivers/STM32U0xx_HAL_Driver/Src/stm32u0xx_hal_exti.c ****   }
 469:Drivers/STM32U0xx_HAL_Driver/Src/stm32u0xx_hal_exti.c **** }
 903              		.loc 1 469 1 view .LVU341
 904              		@ sp needed
 905 0008 7047     		bx	lr
 906              	.LVL107:
 907              	.L61:
 460:Drivers/STM32U0xx_HAL_Driver/Src/stm32u0xx_hal_exti.c ****   }
 908              		.loc 1 460 12 view .LVU342
 909 000a 0120     		movs	r0, #1
 910              	.LVL108:
 460:Drivers/STM32U0xx_HAL_Driver/Src/stm32u0xx_hal_exti.c ****   }
 911              		.loc 1 460 12 view .LVU343
 912 000c FCE7     		b	.L60
 913              		.cfi_endproc
 914              	.LFE338:
 916 000e C046     		.section	.text.HAL_EXTI_IRQHandler,"ax",%progbits
 917              		.align	1
 918              		.p2align 2,,3
 919              		.global	HAL_EXTI_IRQHandler
 920              		.syntax unified
 921              		.code	16
 922              		.thumb_func
 924              	HAL_EXTI_IRQHandler:
 925              	.LVL109:
 926              	.LFB339:
 470:Drivers/STM32U0xx_HAL_Driver/Src/stm32u0xx_hal_exti.c **** 
 471:Drivers/STM32U0xx_HAL_Driver/Src/stm32u0xx_hal_exti.c **** /**
 472:Drivers/STM32U0xx_HAL_Driver/Src/stm32u0xx_hal_exti.c ****   * @}
 473:Drivers/STM32U0xx_HAL_Driver/Src/stm32u0xx_hal_exti.c ****   */
 474:Drivers/STM32U0xx_HAL_Driver/Src/stm32u0xx_hal_exti.c **** 
 475:Drivers/STM32U0xx_HAL_Driver/Src/stm32u0xx_hal_exti.c **** /** @addtogroup EXTI_Exported_Functions_Group2
 476:Drivers/STM32U0xx_HAL_Driver/Src/stm32u0xx_hal_exti.c ****   *  @brief EXTI IO functions.
 477:Drivers/STM32U0xx_HAL_Driver/Src/stm32u0xx_hal_exti.c ****   *
 478:Drivers/STM32U0xx_HAL_Driver/Src/stm32u0xx_hal_exti.c **** @verbatim
 479:Drivers/STM32U0xx_HAL_Driver/Src/stm32u0xx_hal_exti.c ****  ===============================================================================
 480:Drivers/STM32U0xx_HAL_Driver/Src/stm32u0xx_hal_exti.c ****                        ##### IO operation functions #####
 481:Drivers/STM32U0xx_HAL_Driver/Src/stm32u0xx_hal_exti.c ****  ===============================================================================
 482:Drivers/STM32U0xx_HAL_Driver/Src/stm32u0xx_hal_exti.c **** 
 483:Drivers/STM32U0xx_HAL_Driver/Src/stm32u0xx_hal_exti.c **** @endverbatim
 484:Drivers/STM32U0xx_HAL_Driver/Src/stm32u0xx_hal_exti.c ****   * @{
 485:Drivers/STM32U0xx_HAL_Driver/Src/stm32u0xx_hal_exti.c ****   */
 486:Drivers/STM32U0xx_HAL_Driver/Src/stm32u0xx_hal_exti.c **** 
 487:Drivers/STM32U0xx_HAL_Driver/Src/stm32u0xx_hal_exti.c **** /**
 488:Drivers/STM32U0xx_HAL_Driver/Src/stm32u0xx_hal_exti.c ****   * @brief  Handle EXTI interrupt request.
ARM GAS  C:\Users\upo\AppData\Local\Temp\cc4cKwHi.s 			page 28


 489:Drivers/STM32U0xx_HAL_Driver/Src/stm32u0xx_hal_exti.c ****   * @param  hexti Exti handle.
 490:Drivers/STM32U0xx_HAL_Driver/Src/stm32u0xx_hal_exti.c ****   * @retval none.
 491:Drivers/STM32U0xx_HAL_Driver/Src/stm32u0xx_hal_exti.c ****   */
 492:Drivers/STM32U0xx_HAL_Driver/Src/stm32u0xx_hal_exti.c **** void HAL_EXTI_IRQHandler(EXTI_HandleTypeDef *hexti)
 493:Drivers/STM32U0xx_HAL_Driver/Src/stm32u0xx_hal_exti.c **** {
 927              		.loc 1 493 1 is_stmt 1 view -0
 928              		.cfi_startproc
 929              		@ args = 0, pretend = 0, frame = 0
 930              		@ frame_needed = 0, uses_anonymous_args = 0
 494:Drivers/STM32U0xx_HAL_Driver/Src/stm32u0xx_hal_exti.c ****   uint32_t *regaddr;
 931              		.loc 1 494 3 view .LVU345
 495:Drivers/STM32U0xx_HAL_Driver/Src/stm32u0xx_hal_exti.c ****   uint32_t regval;
 932              		.loc 1 495 3 view .LVU346
 496:Drivers/STM32U0xx_HAL_Driver/Src/stm32u0xx_hal_exti.c ****   uint32_t maskline;
 933              		.loc 1 496 3 view .LVU347
 497:Drivers/STM32U0xx_HAL_Driver/Src/stm32u0xx_hal_exti.c ****   uint32_t offset;
 934              		.loc 1 497 3 view .LVU348
 498:Drivers/STM32U0xx_HAL_Driver/Src/stm32u0xx_hal_exti.c **** 
 499:Drivers/STM32U0xx_HAL_Driver/Src/stm32u0xx_hal_exti.c ****   /* compute line register offset and line mask */
 500:Drivers/STM32U0xx_HAL_Driver/Src/stm32u0xx_hal_exti.c ****   offset = ((hexti->Line & EXTI_REG_MASK) >> EXTI_REG_SHIFT);
 935              		.loc 1 500 3 view .LVU349
 493:Drivers/STM32U0xx_HAL_Driver/Src/stm32u0xx_hal_exti.c ****   uint32_t *regaddr;
 936              		.loc 1 493 1 is_stmt 0 view .LVU350
 937 0000 70B5     		push	{r4, r5, r6, lr}
 938              	.LCFI5:
 939              		.cfi_def_cfa_offset 16
 940              		.cfi_offset 4, -16
 941              		.cfi_offset 5, -12
 942              		.cfi_offset 6, -8
 943              		.cfi_offset 14, -4
 501:Drivers/STM32U0xx_HAL_Driver/Src/stm32u0xx_hal_exti.c ****   maskline = (1 << (hexti->Line & EXTI_PIN_MASK));
 944              		.loc 1 501 17 view .LVU351
 945 0002 0124     		movs	r4, #1
 946              		.loc 1 501 33 view .LVU352
 947 0004 1F22     		movs	r2, #31
 948              		.loc 1 501 17 view .LVU353
 949 0006 2600     		movs	r6, r4
 500:Drivers/STM32U0xx_HAL_Driver/Src/stm32u0xx_hal_exti.c ****   maskline = (1 << (hexti->Line & EXTI_PIN_MASK));
 950              		.loc 1 500 19 view .LVU354
 951 0008 0368     		ldr	r3, [r0]
 952              	.LVL110:
 953              		.loc 1 501 3 is_stmt 1 view .LVU355
 493:Drivers/STM32U0xx_HAL_Driver/Src/stm32u0xx_hal_exti.c ****   uint32_t *regaddr;
 954              		.loc 1 493 1 is_stmt 0 view .LVU356
 955 000a 0500     		movs	r5, r0
 956              		.loc 1 501 33 view .LVU357
 957 000c 1A40     		ands	r2, r3
 958              		.loc 1 501 17 view .LVU358
 959 000e 9640     		lsls	r6, r6, r2
 960              	.LVL111:
 502:Drivers/STM32U0xx_HAL_Driver/Src/stm32u0xx_hal_exti.c **** 
 503:Drivers/STM32U0xx_HAL_Driver/Src/stm32u0xx_hal_exti.c ****   /* Get rising edge pending bit  */
 504:Drivers/STM32U0xx_HAL_Driver/Src/stm32u0xx_hal_exti.c ****   regaddr = (uint32_t *)(&EXTI->RPR1 + (EXTI_CONFIG_OFFSET * offset));
 961              		.loc 1 504 3 is_stmt 1 view .LVU359
 500:Drivers/STM32U0xx_HAL_Driver/Src/stm32u0xx_hal_exti.c ****   maskline = (1 << (hexti->Line & EXTI_PIN_MASK));
 962              		.loc 1 500 43 is_stmt 0 view .LVU360
 963 0010 1B0C     		lsrs	r3, r3, #16
ARM GAS  C:\Users\upo\AppData\Local\Temp\cc4cKwHi.s 			page 29


 964              	.LVL112:
 500:Drivers/STM32U0xx_HAL_Driver/Src/stm32u0xx_hal_exti.c ****   maskline = (1 << (hexti->Line & EXTI_PIN_MASK));
 965              		.loc 1 500 10 view .LVU361
 966 0012 1C40     		ands	r4, r3
 967              	.LVL113:
 968              		.loc 1 504 11 view .LVU362
 969 0014 0B4B     		ldr	r3, .L75
 970              		.loc 1 504 38 view .LVU363
 971 0016 6401     		lsls	r4, r4, #5
 972              	.LVL114:
 973              		.loc 1 504 11 view .LVU364
 974 0018 E318     		adds	r3, r4, r3
 975              	.LVL115:
 505:Drivers/STM32U0xx_HAL_Driver/Src/stm32u0xx_hal_exti.c ****   regval = (*regaddr & maskline);
 976              		.loc 1 505 3 is_stmt 1 view .LVU365
 506:Drivers/STM32U0xx_HAL_Driver/Src/stm32u0xx_hal_exti.c **** 
 507:Drivers/STM32U0xx_HAL_Driver/Src/stm32u0xx_hal_exti.c ****   if (regval != 0x00U)
 977              		.loc 1 507 3 view .LVU366
 505:Drivers/STM32U0xx_HAL_Driver/Src/stm32u0xx_hal_exti.c ****   regval = (*regaddr & maskline);
 978              		.loc 1 505 10 is_stmt 0 view .LVU367
 979 001a 1A68     		ldr	r2, [r3]
 980              		.loc 1 507 6 view .LVU368
 981 001c 3242     		tst	r2, r6
 982 001e 04D0     		beq	.L64
 508:Drivers/STM32U0xx_HAL_Driver/Src/stm32u0xx_hal_exti.c ****   {
 509:Drivers/STM32U0xx_HAL_Driver/Src/stm32u0xx_hal_exti.c ****     /* Clear pending bit */
 510:Drivers/STM32U0xx_HAL_Driver/Src/stm32u0xx_hal_exti.c ****     *regaddr = maskline;
 983              		.loc 1 510 5 is_stmt 1 view .LVU369
 984              		.loc 1 510 14 is_stmt 0 view .LVU370
 985 0020 1E60     		str	r6, [r3]
 986              	.LVL116:
 511:Drivers/STM32U0xx_HAL_Driver/Src/stm32u0xx_hal_exti.c **** 
 512:Drivers/STM32U0xx_HAL_Driver/Src/stm32u0xx_hal_exti.c ****     /* Call rising callback */
 513:Drivers/STM32U0xx_HAL_Driver/Src/stm32u0xx_hal_exti.c ****     if (hexti->RisingCallback != NULL)
 987              		.loc 1 513 5 is_stmt 1 view .LVU371
 988              		.loc 1 513 14 is_stmt 0 view .LVU372
 989 0022 4368     		ldr	r3, [r0, #4]
 990              	.LVL117:
 991              		.loc 1 513 8 view .LVU373
 992 0024 002B     		cmp	r3, #0
 993 0026 00D0     		beq	.L64
 514:Drivers/STM32U0xx_HAL_Driver/Src/stm32u0xx_hal_exti.c ****     {
 515:Drivers/STM32U0xx_HAL_Driver/Src/stm32u0xx_hal_exti.c ****       hexti->RisingCallback();
 994              		.loc 1 515 7 is_stmt 1 view .LVU374
 995 0028 9847     		blx	r3
 996              	.LVL118:
 997              	.L64:
 516:Drivers/STM32U0xx_HAL_Driver/Src/stm32u0xx_hal_exti.c ****     }
 517:Drivers/STM32U0xx_HAL_Driver/Src/stm32u0xx_hal_exti.c ****   }
 518:Drivers/STM32U0xx_HAL_Driver/Src/stm32u0xx_hal_exti.c **** 
 519:Drivers/STM32U0xx_HAL_Driver/Src/stm32u0xx_hal_exti.c ****   /* Get falling edge pending bit  */
 520:Drivers/STM32U0xx_HAL_Driver/Src/stm32u0xx_hal_exti.c ****   regaddr = (uint32_t *)(&EXTI->FPR1 + (EXTI_CONFIG_OFFSET * offset));
 998              		.loc 1 520 3 view .LVU375
 999              		.loc 1 520 11 is_stmt 0 view .LVU376
 1000 002a 074B     		ldr	r3, .L75+4
 1001 002c 9C46     		mov	ip, r3
 1002 002e 6444     		add	r4, r4, ip
ARM GAS  C:\Users\upo\AppData\Local\Temp\cc4cKwHi.s 			page 30


 1003              	.LVL119:
 521:Drivers/STM32U0xx_HAL_Driver/Src/stm32u0xx_hal_exti.c ****   regval = (*regaddr & maskline);
 1004              		.loc 1 521 3 is_stmt 1 view .LVU377
 522:Drivers/STM32U0xx_HAL_Driver/Src/stm32u0xx_hal_exti.c **** 
 523:Drivers/STM32U0xx_HAL_Driver/Src/stm32u0xx_hal_exti.c ****   if (regval != 0x00U)
 1005              		.loc 1 523 3 view .LVU378
 521:Drivers/STM32U0xx_HAL_Driver/Src/stm32u0xx_hal_exti.c ****   regval = (*regaddr & maskline);
 1006              		.loc 1 521 10 is_stmt 0 view .LVU379
 1007 0030 2368     		ldr	r3, [r4]
 1008              		.loc 1 523 6 view .LVU380
 1009 0032 3342     		tst	r3, r6
 1010 0034 04D0     		beq	.L62
 524:Drivers/STM32U0xx_HAL_Driver/Src/stm32u0xx_hal_exti.c ****   {
 525:Drivers/STM32U0xx_HAL_Driver/Src/stm32u0xx_hal_exti.c ****     /* Clear pending bit */
 526:Drivers/STM32U0xx_HAL_Driver/Src/stm32u0xx_hal_exti.c ****     *regaddr = maskline;
 1011              		.loc 1 526 5 is_stmt 1 view .LVU381
 527:Drivers/STM32U0xx_HAL_Driver/Src/stm32u0xx_hal_exti.c **** 
 528:Drivers/STM32U0xx_HAL_Driver/Src/stm32u0xx_hal_exti.c ****     /* Call rising callback */
 529:Drivers/STM32U0xx_HAL_Driver/Src/stm32u0xx_hal_exti.c ****     if (hexti->FallingCallback != NULL)
 1012              		.loc 1 529 14 is_stmt 0 view .LVU382
 1013 0036 AB68     		ldr	r3, [r5, #8]
 526:Drivers/STM32U0xx_HAL_Driver/Src/stm32u0xx_hal_exti.c **** 
 1014              		.loc 1 526 14 view .LVU383
 1015 0038 2660     		str	r6, [r4]
 1016              	.LVL120:
 1017              		.loc 1 529 5 is_stmt 1 view .LVU384
 1018              		.loc 1 529 8 is_stmt 0 view .LVU385
 1019 003a 002B     		cmp	r3, #0
 1020 003c 00D0     		beq	.L62
 530:Drivers/STM32U0xx_HAL_Driver/Src/stm32u0xx_hal_exti.c ****     {
 531:Drivers/STM32U0xx_HAL_Driver/Src/stm32u0xx_hal_exti.c ****       hexti->FallingCallback();
 1021              		.loc 1 531 7 is_stmt 1 view .LVU386
 1022 003e 9847     		blx	r3
 1023              	.LVL121:
 1024              	.L62:
 532:Drivers/STM32U0xx_HAL_Driver/Src/stm32u0xx_hal_exti.c ****     }
 533:Drivers/STM32U0xx_HAL_Driver/Src/stm32u0xx_hal_exti.c ****   }
 534:Drivers/STM32U0xx_HAL_Driver/Src/stm32u0xx_hal_exti.c **** }
 1025              		.loc 1 534 1 is_stmt 0 view .LVU387
 1026              		@ sp needed
 1027              	.LVL122:
 1028              	.LVL123:
 1029              	.LVL124:
 1030              		.loc 1 534 1 view .LVU388
 1031 0040 70BD     		pop	{r4, r5, r6, pc}
 1032              	.L76:
 1033 0042 C046     		.align	2
 1034              	.L75:
 1035 0044 0C180240 		.word	1073879052
 1036 0048 10180240 		.word	1073879056
 1037              		.cfi_endproc
 1038              	.LFE339:
 1040              		.section	.text.HAL_EXTI_GetPending,"ax",%progbits
 1041              		.align	1
 1042              		.p2align 2,,3
 1043              		.global	HAL_EXTI_GetPending
 1044              		.syntax unified
ARM GAS  C:\Users\upo\AppData\Local\Temp\cc4cKwHi.s 			page 31


 1045              		.code	16
 1046              		.thumb_func
 1048              	HAL_EXTI_GetPending:
 1049              	.LVL125:
 1050              	.LFB340:
 535:Drivers/STM32U0xx_HAL_Driver/Src/stm32u0xx_hal_exti.c **** 
 536:Drivers/STM32U0xx_HAL_Driver/Src/stm32u0xx_hal_exti.c **** /**
 537:Drivers/STM32U0xx_HAL_Driver/Src/stm32u0xx_hal_exti.c ****   * @brief  Get interrupt pending bit of a dedicated line.
 538:Drivers/STM32U0xx_HAL_Driver/Src/stm32u0xx_hal_exti.c ****   * @param  hexti Exti handle.
 539:Drivers/STM32U0xx_HAL_Driver/Src/stm32u0xx_hal_exti.c ****   * @param  Edge Specify which pending edge as to be checked.
 540:Drivers/STM32U0xx_HAL_Driver/Src/stm32u0xx_hal_exti.c ****   *         This parameter can be one of the following values:
 541:Drivers/STM32U0xx_HAL_Driver/Src/stm32u0xx_hal_exti.c ****   *           @arg @ref EXTI_TRIGGER_RISING
 542:Drivers/STM32U0xx_HAL_Driver/Src/stm32u0xx_hal_exti.c ****   *           @arg @ref EXTI_TRIGGER_FALLING
 543:Drivers/STM32U0xx_HAL_Driver/Src/stm32u0xx_hal_exti.c ****   * @retval 1 if interrupt is pending else 0.
 544:Drivers/STM32U0xx_HAL_Driver/Src/stm32u0xx_hal_exti.c ****   */
 545:Drivers/STM32U0xx_HAL_Driver/Src/stm32u0xx_hal_exti.c **** uint32_t HAL_EXTI_GetPending(EXTI_HandleTypeDef *hexti, uint32_t Edge)
 546:Drivers/STM32U0xx_HAL_Driver/Src/stm32u0xx_hal_exti.c **** {
 1051              		.loc 1 546 1 is_stmt 1 view -0
 1052              		.cfi_startproc
 1053              		@ args = 0, pretend = 0, frame = 0
 1054              		@ frame_needed = 0, uses_anonymous_args = 0
 547:Drivers/STM32U0xx_HAL_Driver/Src/stm32u0xx_hal_exti.c ****   uint32_t *regaddr;
 1055              		.loc 1 547 3 view .LVU390
 548:Drivers/STM32U0xx_HAL_Driver/Src/stm32u0xx_hal_exti.c ****   uint32_t regval;
 1056              		.loc 1 548 3 view .LVU391
 549:Drivers/STM32U0xx_HAL_Driver/Src/stm32u0xx_hal_exti.c ****   uint32_t linepos;
 1057              		.loc 1 549 3 view .LVU392
 550:Drivers/STM32U0xx_HAL_Driver/Src/stm32u0xx_hal_exti.c ****   uint32_t maskline;
 1058              		.loc 1 550 3 view .LVU393
 551:Drivers/STM32U0xx_HAL_Driver/Src/stm32u0xx_hal_exti.c ****   uint32_t offset;
 1059              		.loc 1 551 3 view .LVU394
 552:Drivers/STM32U0xx_HAL_Driver/Src/stm32u0xx_hal_exti.c **** 
 553:Drivers/STM32U0xx_HAL_Driver/Src/stm32u0xx_hal_exti.c ****   /* Check parameters */
 554:Drivers/STM32U0xx_HAL_Driver/Src/stm32u0xx_hal_exti.c ****   assert_param(IS_EXTI_CONFIG_LINE(hexti->Line));
 1060              		.loc 1 554 3 view .LVU395
 555:Drivers/STM32U0xx_HAL_Driver/Src/stm32u0xx_hal_exti.c ****   assert_param(IS_EXTI_PENDING_EDGE(Edge));
 1061              		.loc 1 555 3 view .LVU396
 556:Drivers/STM32U0xx_HAL_Driver/Src/stm32u0xx_hal_exti.c **** 
 557:Drivers/STM32U0xx_HAL_Driver/Src/stm32u0xx_hal_exti.c ****   /* compute line register offset and line mask */
 558:Drivers/STM32U0xx_HAL_Driver/Src/stm32u0xx_hal_exti.c ****   offset = ((hexti->Line & EXTI_REG_MASK) >> EXTI_REG_SHIFT);
 1062              		.loc 1 558 3 view .LVU397
 559:Drivers/STM32U0xx_HAL_Driver/Src/stm32u0xx_hal_exti.c ****   linepos = (hexti->Line & EXTI_PIN_MASK);
 560:Drivers/STM32U0xx_HAL_Driver/Src/stm32u0xx_hal_exti.c ****   maskline = (1 << linepos);
 1063              		.loc 1 560 17 is_stmt 0 view .LVU398
 1064 0000 0123     		movs	r3, #1
 559:Drivers/STM32U0xx_HAL_Driver/Src/stm32u0xx_hal_exti.c ****   linepos = (hexti->Line & EXTI_PIN_MASK);
 1065              		.loc 1 559 11 view .LVU399
 1066 0002 1F22     		movs	r2, #31
 546:Drivers/STM32U0xx_HAL_Driver/Src/stm32u0xx_hal_exti.c ****   uint32_t *regaddr;
 1067              		.loc 1 546 1 view .LVU400
 1068 0004 10B5     		push	{r4, lr}
 1069              	.LCFI6:
 1070              		.cfi_def_cfa_offset 8
 1071              		.cfi_offset 4, -8
 1072              		.cfi_offset 14, -4
 1073              		.loc 1 560 17 view .LVU401
 1074 0006 1C00     		movs	r4, r3
ARM GAS  C:\Users\upo\AppData\Local\Temp\cc4cKwHi.s 			page 32


 558:Drivers/STM32U0xx_HAL_Driver/Src/stm32u0xx_hal_exti.c ****   linepos = (hexti->Line & EXTI_PIN_MASK);
 1075              		.loc 1 558 19 view .LVU402
 1076 0008 0068     		ldr	r0, [r0]
 1077              	.LVL126:
 559:Drivers/STM32U0xx_HAL_Driver/Src/stm32u0xx_hal_exti.c ****   linepos = (hexti->Line & EXTI_PIN_MASK);
 1078              		.loc 1 559 3 is_stmt 1 view .LVU403
 559:Drivers/STM32U0xx_HAL_Driver/Src/stm32u0xx_hal_exti.c ****   linepos = (hexti->Line & EXTI_PIN_MASK);
 1079              		.loc 1 559 11 is_stmt 0 view .LVU404
 1080 000a 0240     		ands	r2, r0
 1081              	.LVL127:
 1082              		.loc 1 560 3 is_stmt 1 view .LVU405
 558:Drivers/STM32U0xx_HAL_Driver/Src/stm32u0xx_hal_exti.c ****   linepos = (hexti->Line & EXTI_PIN_MASK);
 1083              		.loc 1 558 43 is_stmt 0 view .LVU406
 1084 000c 000C     		lsrs	r0, r0, #16
 1085              	.LVL128:
 558:Drivers/STM32U0xx_HAL_Driver/Src/stm32u0xx_hal_exti.c ****   linepos = (hexti->Line & EXTI_PIN_MASK);
 1086              		.loc 1 558 10 view .LVU407
 1087 000e 0340     		ands	r3, r0
 1088              	.LVL129:
 1089              		.loc 1 560 17 view .LVU408
 1090 0010 9440     		lsls	r4, r4, r2
 1091              	.LVL130:
 561:Drivers/STM32U0xx_HAL_Driver/Src/stm32u0xx_hal_exti.c **** 
 562:Drivers/STM32U0xx_HAL_Driver/Src/stm32u0xx_hal_exti.c ****   if (Edge != EXTI_TRIGGER_RISING)
 1092              		.loc 1 562 3 is_stmt 1 view .LVU409
 563:Drivers/STM32U0xx_HAL_Driver/Src/stm32u0xx_hal_exti.c ****   {
 564:Drivers/STM32U0xx_HAL_Driver/Src/stm32u0xx_hal_exti.c ****     /* Get falling edge pending bit */
 565:Drivers/STM32U0xx_HAL_Driver/Src/stm32u0xx_hal_exti.c ****     regaddr = (uint32_t *)(&EXTI->FPR1 + (EXTI_CONFIG_OFFSET * offset));
 1093              		.loc 1 565 40 is_stmt 0 view .LVU410
 1094 0012 5B01     		lsls	r3, r3, #5
 1095              	.LVL131:
 562:Drivers/STM32U0xx_HAL_Driver/Src/stm32u0xx_hal_exti.c ****   {
 1096              		.loc 1 562 6 view .LVU411
 1097 0014 0129     		cmp	r1, #1
 1098 0016 06D0     		beq	.L78
 1099              		.loc 1 565 5 is_stmt 1 view .LVU412
 1100              		.loc 1 565 13 is_stmt 0 view .LVU413
 1101 0018 0549     		ldr	r1, .L80
 1102              	.LVL132:
 1103              		.loc 1 565 13 view .LVU414
 1104 001a 8C46     		mov	ip, r1
 1105 001c 6344     		add	r3, r3, ip
 1106              	.LVL133:
 1107              	.L79:
 566:Drivers/STM32U0xx_HAL_Driver/Src/stm32u0xx_hal_exti.c ****   }
 567:Drivers/STM32U0xx_HAL_Driver/Src/stm32u0xx_hal_exti.c ****   else
 568:Drivers/STM32U0xx_HAL_Driver/Src/stm32u0xx_hal_exti.c ****   {
 569:Drivers/STM32U0xx_HAL_Driver/Src/stm32u0xx_hal_exti.c ****     /* Get rising edge pending bit */
 570:Drivers/STM32U0xx_HAL_Driver/Src/stm32u0xx_hal_exti.c ****     regaddr = (uint32_t *)(&EXTI->RPR1 + (EXTI_CONFIG_OFFSET * offset));
 571:Drivers/STM32U0xx_HAL_Driver/Src/stm32u0xx_hal_exti.c ****   }
 572:Drivers/STM32U0xx_HAL_Driver/Src/stm32u0xx_hal_exti.c **** 
 573:Drivers/STM32U0xx_HAL_Driver/Src/stm32u0xx_hal_exti.c ****   /* return 1 if bit is set else 0 */
 574:Drivers/STM32U0xx_HAL_Driver/Src/stm32u0xx_hal_exti.c ****   regval = ((*regaddr & maskline) >> linepos);
 1108              		.loc 1 574 3 is_stmt 1 view .LVU415
 575:Drivers/STM32U0xx_HAL_Driver/Src/stm32u0xx_hal_exti.c ****   return regval;
 1109              		.loc 1 575 3 view .LVU416
 574:Drivers/STM32U0xx_HAL_Driver/Src/stm32u0xx_hal_exti.c ****   return regval;
ARM GAS  C:\Users\upo\AppData\Local\Temp\cc4cKwHi.s 			page 33


 1110              		.loc 1 574 23 is_stmt 0 view .LVU417
 1111 001e 1868     		ldr	r0, [r3]
 576:Drivers/STM32U0xx_HAL_Driver/Src/stm32u0xx_hal_exti.c **** }
 1112              		.loc 1 576 1 view .LVU418
 1113              		@ sp needed
 574:Drivers/STM32U0xx_HAL_Driver/Src/stm32u0xx_hal_exti.c ****   return regval;
 1114              		.loc 1 574 23 view .LVU419
 1115 0020 2040     		ands	r0, r4
 574:Drivers/STM32U0xx_HAL_Driver/Src/stm32u0xx_hal_exti.c ****   return regval;
 1116              		.loc 1 574 10 view .LVU420
 1117 0022 D040     		lsrs	r0, r0, r2
 1118              	.LVL134:
 1119              	.LVL135:
 1120              		.loc 1 576 1 view .LVU421
 1121 0024 10BD     		pop	{r4, pc}
 1122              	.LVL136:
 1123              	.L78:
 570:Drivers/STM32U0xx_HAL_Driver/Src/stm32u0xx_hal_exti.c ****   }
 1124              		.loc 1 570 5 is_stmt 1 view .LVU422
 570:Drivers/STM32U0xx_HAL_Driver/Src/stm32u0xx_hal_exti.c ****   }
 1125              		.loc 1 570 13 is_stmt 0 view .LVU423
 1126 0026 0349     		ldr	r1, .L80+4
 1127              	.LVL137:
 570:Drivers/STM32U0xx_HAL_Driver/Src/stm32u0xx_hal_exti.c ****   }
 1128              		.loc 1 570 13 view .LVU424
 1129 0028 8C46     		mov	ip, r1
 1130 002a 6344     		add	r3, r3, ip
 1131              	.LVL138:
 570:Drivers/STM32U0xx_HAL_Driver/Src/stm32u0xx_hal_exti.c ****   }
 1132              		.loc 1 570 13 view .LVU425
 1133 002c F7E7     		b	.L79
 1134              	.L81:
 1135 002e C046     		.align	2
 1136              	.L80:
 1137 0030 10180240 		.word	1073879056
 1138 0034 0C180240 		.word	1073879052
 1139              		.cfi_endproc
 1140              	.LFE340:
 1142              		.section	.text.HAL_EXTI_ClearPending,"ax",%progbits
 1143              		.align	1
 1144              		.p2align 2,,3
 1145              		.global	HAL_EXTI_ClearPending
 1146              		.syntax unified
 1147              		.code	16
 1148              		.thumb_func
 1150              	HAL_EXTI_ClearPending:
 1151              	.LVL139:
 1152              	.LFB341:
 577:Drivers/STM32U0xx_HAL_Driver/Src/stm32u0xx_hal_exti.c **** 
 578:Drivers/STM32U0xx_HAL_Driver/Src/stm32u0xx_hal_exti.c **** /**
 579:Drivers/STM32U0xx_HAL_Driver/Src/stm32u0xx_hal_exti.c ****   * @brief  Clear interrupt pending bit of a dedicated line.
 580:Drivers/STM32U0xx_HAL_Driver/Src/stm32u0xx_hal_exti.c ****   * @param  hexti Exti handle.
 581:Drivers/STM32U0xx_HAL_Driver/Src/stm32u0xx_hal_exti.c ****   * @param  Edge Specify which pending edge as to be clear.
 582:Drivers/STM32U0xx_HAL_Driver/Src/stm32u0xx_hal_exti.c ****   *         This parameter can be one of the following values:
 583:Drivers/STM32U0xx_HAL_Driver/Src/stm32u0xx_hal_exti.c ****   *           @arg @ref EXTI_TRIGGER_RISING
 584:Drivers/STM32U0xx_HAL_Driver/Src/stm32u0xx_hal_exti.c ****   *           @arg @ref EXTI_TRIGGER_FALLING
 585:Drivers/STM32U0xx_HAL_Driver/Src/stm32u0xx_hal_exti.c ****   * @retval None.
ARM GAS  C:\Users\upo\AppData\Local\Temp\cc4cKwHi.s 			page 34


 586:Drivers/STM32U0xx_HAL_Driver/Src/stm32u0xx_hal_exti.c ****   */
 587:Drivers/STM32U0xx_HAL_Driver/Src/stm32u0xx_hal_exti.c **** void HAL_EXTI_ClearPending(EXTI_HandleTypeDef *hexti, uint32_t Edge)
 588:Drivers/STM32U0xx_HAL_Driver/Src/stm32u0xx_hal_exti.c **** {
 1153              		.loc 1 588 1 is_stmt 1 view -0
 1154              		.cfi_startproc
 1155              		@ args = 0, pretend = 0, frame = 0
 1156              		@ frame_needed = 0, uses_anonymous_args = 0
 589:Drivers/STM32U0xx_HAL_Driver/Src/stm32u0xx_hal_exti.c ****   uint32_t *regaddr;
 1157              		.loc 1 589 3 view .LVU427
 590:Drivers/STM32U0xx_HAL_Driver/Src/stm32u0xx_hal_exti.c ****   uint32_t maskline;
 1158              		.loc 1 590 3 view .LVU428
 591:Drivers/STM32U0xx_HAL_Driver/Src/stm32u0xx_hal_exti.c ****   uint32_t offset;
 1159              		.loc 1 591 3 view .LVU429
 592:Drivers/STM32U0xx_HAL_Driver/Src/stm32u0xx_hal_exti.c **** 
 593:Drivers/STM32U0xx_HAL_Driver/Src/stm32u0xx_hal_exti.c ****   /* Check parameters */
 594:Drivers/STM32U0xx_HAL_Driver/Src/stm32u0xx_hal_exti.c ****   assert_param(IS_EXTI_LINE(hexti->Line));
 1160              		.loc 1 594 3 view .LVU430
 595:Drivers/STM32U0xx_HAL_Driver/Src/stm32u0xx_hal_exti.c ****   assert_param(IS_EXTI_CONFIG_LINE(hexti->Line));
 1161              		.loc 1 595 3 view .LVU431
 596:Drivers/STM32U0xx_HAL_Driver/Src/stm32u0xx_hal_exti.c ****   assert_param(IS_EXTI_PENDING_EDGE(Edge));
 1162              		.loc 1 596 3 view .LVU432
 597:Drivers/STM32U0xx_HAL_Driver/Src/stm32u0xx_hal_exti.c **** 
 598:Drivers/STM32U0xx_HAL_Driver/Src/stm32u0xx_hal_exti.c ****   /* compute line register offset and line mask */
 599:Drivers/STM32U0xx_HAL_Driver/Src/stm32u0xx_hal_exti.c ****   offset = ((hexti->Line & EXTI_REG_MASK) >> EXTI_REG_SHIFT);
 1163              		.loc 1 599 3 view .LVU433
 600:Drivers/STM32U0xx_HAL_Driver/Src/stm32u0xx_hal_exti.c ****   maskline = (1 << (hexti->Line & EXTI_PIN_MASK));
 1164              		.loc 1 600 17 is_stmt 0 view .LVU434
 1165 0000 0123     		movs	r3, #1
 599:Drivers/STM32U0xx_HAL_Driver/Src/stm32u0xx_hal_exti.c ****   maskline = (1 << (hexti->Line & EXTI_PIN_MASK));
 1166              		.loc 1 599 19 view .LVU435
 1167 0002 0268     		ldr	r2, [r0]
 1168              	.LVL140:
 1169              		.loc 1 600 3 is_stmt 1 view .LVU436
 1170              		.loc 1 600 33 is_stmt 0 view .LVU437
 1171 0004 1F20     		movs	r0, #31
 1172              	.LVL141:
 588:Drivers/STM32U0xx_HAL_Driver/Src/stm32u0xx_hal_exti.c ****   uint32_t *regaddr;
 1173              		.loc 1 588 1 view .LVU438
 1174 0006 10B5     		push	{r4, lr}
 1175              	.LCFI7:
 1176              		.cfi_def_cfa_offset 8
 1177              		.cfi_offset 4, -8
 1178              		.cfi_offset 14, -4
 1179              		.loc 1 600 17 view .LVU439
 1180 0008 1C00     		movs	r4, r3
 1181              		.loc 1 600 33 view .LVU440
 1182 000a 1040     		ands	r0, r2
 1183              		.loc 1 600 17 view .LVU441
 1184 000c 8440     		lsls	r4, r4, r0
 599:Drivers/STM32U0xx_HAL_Driver/Src/stm32u0xx_hal_exti.c ****   maskline = (1 << (hexti->Line & EXTI_PIN_MASK));
 1185              		.loc 1 599 43 view .LVU442
 1186 000e 120C     		lsrs	r2, r2, #16
 1187              	.LVL142:
 599:Drivers/STM32U0xx_HAL_Driver/Src/stm32u0xx_hal_exti.c ****   maskline = (1 << (hexti->Line & EXTI_PIN_MASK));
 1188              		.loc 1 599 10 view .LVU443
 1189 0010 1340     		ands	r3, r2
 1190              	.LVL143:
ARM GAS  C:\Users\upo\AppData\Local\Temp\cc4cKwHi.s 			page 35


 1191              		.loc 1 600 17 view .LVU444
 1192 0012 2000     		movs	r0, r4
 1193              	.LVL144:
 601:Drivers/STM32U0xx_HAL_Driver/Src/stm32u0xx_hal_exti.c **** 
 602:Drivers/STM32U0xx_HAL_Driver/Src/stm32u0xx_hal_exti.c ****   if (Edge != EXTI_TRIGGER_RISING)
 1194              		.loc 1 602 3 is_stmt 1 view .LVU445
 603:Drivers/STM32U0xx_HAL_Driver/Src/stm32u0xx_hal_exti.c ****   {
 604:Drivers/STM32U0xx_HAL_Driver/Src/stm32u0xx_hal_exti.c ****     /* Get falling edge pending register address */
 605:Drivers/STM32U0xx_HAL_Driver/Src/stm32u0xx_hal_exti.c ****     regaddr = (uint32_t *)(&EXTI->FPR1 + (EXTI_CONFIG_OFFSET * offset));
 1195              		.loc 1 605 40 is_stmt 0 view .LVU446
 1196 0014 5B01     		lsls	r3, r3, #5
 1197              	.LVL145:
 602:Drivers/STM32U0xx_HAL_Driver/Src/stm32u0xx_hal_exti.c ****   {
 1198              		.loc 1 602 6 view .LVU447
 1199 0016 0129     		cmp	r1, #1
 1200 0018 04D0     		beq	.L83
 1201              		.loc 1 605 5 is_stmt 1 view .LVU448
 1202              		.loc 1 605 13 is_stmt 0 view .LVU449
 1203 001a 044A     		ldr	r2, .L85
 1204 001c 9446     		mov	ip, r2
 1205 001e 6344     		add	r3, r3, ip
 1206              	.LVL146:
 1207              	.L84:
 606:Drivers/STM32U0xx_HAL_Driver/Src/stm32u0xx_hal_exti.c ****   }
 607:Drivers/STM32U0xx_HAL_Driver/Src/stm32u0xx_hal_exti.c ****   else
 608:Drivers/STM32U0xx_HAL_Driver/Src/stm32u0xx_hal_exti.c ****   {
 609:Drivers/STM32U0xx_HAL_Driver/Src/stm32u0xx_hal_exti.c ****     /* Get falling edge pending register address */
 610:Drivers/STM32U0xx_HAL_Driver/Src/stm32u0xx_hal_exti.c ****     regaddr = (uint32_t *)(&EXTI->RPR1 + (EXTI_CONFIG_OFFSET * offset));
 611:Drivers/STM32U0xx_HAL_Driver/Src/stm32u0xx_hal_exti.c ****   }
 612:Drivers/STM32U0xx_HAL_Driver/Src/stm32u0xx_hal_exti.c **** 
 613:Drivers/STM32U0xx_HAL_Driver/Src/stm32u0xx_hal_exti.c ****   /* Clear Pending bit */
 614:Drivers/STM32U0xx_HAL_Driver/Src/stm32u0xx_hal_exti.c ****   *regaddr =  maskline;
 1208              		.loc 1 614 3 is_stmt 1 view .LVU450
 1209              		.loc 1 614 12 is_stmt 0 view .LVU451
 1210 0020 1860     		str	r0, [r3]
 1211              	.LVL147:
 615:Drivers/STM32U0xx_HAL_Driver/Src/stm32u0xx_hal_exti.c **** }
 1212              		.loc 1 615 1 view .LVU452
 1213              		@ sp needed
 1214 0022 10BD     		pop	{r4, pc}
 1215              	.LVL148:
 1216              	.L83:
 610:Drivers/STM32U0xx_HAL_Driver/Src/stm32u0xx_hal_exti.c ****   }
 1217              		.loc 1 610 5 is_stmt 1 view .LVU453
 610:Drivers/STM32U0xx_HAL_Driver/Src/stm32u0xx_hal_exti.c ****   }
 1218              		.loc 1 610 13 is_stmt 0 view .LVU454
 1219 0024 024A     		ldr	r2, .L85+4
 1220 0026 9446     		mov	ip, r2
 1221 0028 6344     		add	r3, r3, ip
 1222              	.LVL149:
 610:Drivers/STM32U0xx_HAL_Driver/Src/stm32u0xx_hal_exti.c ****   }
 1223              		.loc 1 610 13 view .LVU455
 1224 002a F9E7     		b	.L84
 1225              	.L86:
 1226              		.align	2
 1227              	.L85:
 1228 002c 10180240 		.word	1073879056
ARM GAS  C:\Users\upo\AppData\Local\Temp\cc4cKwHi.s 			page 36


 1229 0030 0C180240 		.word	1073879052
 1230              		.cfi_endproc
 1231              	.LFE341:
 1233              		.section	.text.HAL_EXTI_GenerateSWI,"ax",%progbits
 1234              		.align	1
 1235              		.p2align 2,,3
 1236              		.global	HAL_EXTI_GenerateSWI
 1237              		.syntax unified
 1238              		.code	16
 1239              		.thumb_func
 1241              	HAL_EXTI_GenerateSWI:
 1242              	.LVL150:
 1243              	.LFB342:
 616:Drivers/STM32U0xx_HAL_Driver/Src/stm32u0xx_hal_exti.c **** 
 617:Drivers/STM32U0xx_HAL_Driver/Src/stm32u0xx_hal_exti.c **** /**
 618:Drivers/STM32U0xx_HAL_Driver/Src/stm32u0xx_hal_exti.c ****   * @brief  Generate a software interrupt for a dedicated line.
 619:Drivers/STM32U0xx_HAL_Driver/Src/stm32u0xx_hal_exti.c ****   * @param  hexti Exti handle.
 620:Drivers/STM32U0xx_HAL_Driver/Src/stm32u0xx_hal_exti.c ****   * @retval None.
 621:Drivers/STM32U0xx_HAL_Driver/Src/stm32u0xx_hal_exti.c ****   */
 622:Drivers/STM32U0xx_HAL_Driver/Src/stm32u0xx_hal_exti.c **** void HAL_EXTI_GenerateSWI(EXTI_HandleTypeDef *hexti)
 623:Drivers/STM32U0xx_HAL_Driver/Src/stm32u0xx_hal_exti.c **** {
 1244              		.loc 1 623 1 is_stmt 1 view -0
 1245              		.cfi_startproc
 1246              		@ args = 0, pretend = 0, frame = 0
 1247              		@ frame_needed = 0, uses_anonymous_args = 0
 1248              		@ link register save eliminated.
 624:Drivers/STM32U0xx_HAL_Driver/Src/stm32u0xx_hal_exti.c ****   uint32_t *regaddr;
 1249              		.loc 1 624 3 view .LVU457
 625:Drivers/STM32U0xx_HAL_Driver/Src/stm32u0xx_hal_exti.c ****   uint32_t maskline;
 1250              		.loc 1 625 3 view .LVU458
 626:Drivers/STM32U0xx_HAL_Driver/Src/stm32u0xx_hal_exti.c ****   uint32_t offset;
 1251              		.loc 1 626 3 view .LVU459
 627:Drivers/STM32U0xx_HAL_Driver/Src/stm32u0xx_hal_exti.c **** 
 628:Drivers/STM32U0xx_HAL_Driver/Src/stm32u0xx_hal_exti.c ****   /* Check parameter */
 629:Drivers/STM32U0xx_HAL_Driver/Src/stm32u0xx_hal_exti.c ****   assert_param(IS_EXTI_CONFIG_LINE(hexti->Line));
 1252              		.loc 1 629 3 view .LVU460
 630:Drivers/STM32U0xx_HAL_Driver/Src/stm32u0xx_hal_exti.c **** 
 631:Drivers/STM32U0xx_HAL_Driver/Src/stm32u0xx_hal_exti.c ****   /* compute line register offset and line mask */
 632:Drivers/STM32U0xx_HAL_Driver/Src/stm32u0xx_hal_exti.c ****   offset = ((hexti->Line & EXTI_REG_MASK) >> EXTI_REG_SHIFT);
 1253              		.loc 1 632 3 view .LVU461
 633:Drivers/STM32U0xx_HAL_Driver/Src/stm32u0xx_hal_exti.c ****   maskline = (1 << (hexti->Line & EXTI_PIN_MASK));
 634:Drivers/STM32U0xx_HAL_Driver/Src/stm32u0xx_hal_exti.c **** 
 635:Drivers/STM32U0xx_HAL_Driver/Src/stm32u0xx_hal_exti.c ****   regaddr = (uint32_t *)(&EXTI->SWIER1 + (EXTI_CONFIG_OFFSET * offset));
 636:Drivers/STM32U0xx_HAL_Driver/Src/stm32u0xx_hal_exti.c ****   *regaddr = maskline;
 1254              		.loc 1 636 12 is_stmt 0 view .LVU462
 1255 0000 0649     		ldr	r1, .L88
 632:Drivers/STM32U0xx_HAL_Driver/Src/stm32u0xx_hal_exti.c ****   maskline = (1 << (hexti->Line & EXTI_PIN_MASK));
 1256              		.loc 1 632 10 view .LVU463
 1257 0002 0122     		movs	r2, #1
 637:Drivers/STM32U0xx_HAL_Driver/Src/stm32u0xx_hal_exti.c **** }
 1258              		.loc 1 637 1 view .LVU464
 1259              		@ sp needed
 636:Drivers/STM32U0xx_HAL_Driver/Src/stm32u0xx_hal_exti.c **** }
 1260              		.loc 1 636 12 view .LVU465
 1261 0004 8C46     		mov	ip, r1
 633:Drivers/STM32U0xx_HAL_Driver/Src/stm32u0xx_hal_exti.c **** 
 1262              		.loc 1 633 33 view .LVU466
ARM GAS  C:\Users\upo\AppData\Local\Temp\cc4cKwHi.s 			page 37


 1263 0006 1F21     		movs	r1, #31
 632:Drivers/STM32U0xx_HAL_Driver/Src/stm32u0xx_hal_exti.c ****   maskline = (1 << (hexti->Line & EXTI_PIN_MASK));
 1264              		.loc 1 632 19 view .LVU467
 1265 0008 0068     		ldr	r0, [r0]
 1266              	.LVL151:
 633:Drivers/STM32U0xx_HAL_Driver/Src/stm32u0xx_hal_exti.c **** 
 1267              		.loc 1 633 3 is_stmt 1 view .LVU468
 635:Drivers/STM32U0xx_HAL_Driver/Src/stm32u0xx_hal_exti.c ****   *regaddr = maskline;
 1268              		.loc 1 635 3 view .LVU469
 636:Drivers/STM32U0xx_HAL_Driver/Src/stm32u0xx_hal_exti.c **** }
 1269              		.loc 1 636 3 view .LVU470
 632:Drivers/STM32U0xx_HAL_Driver/Src/stm32u0xx_hal_exti.c ****   maskline = (1 << (hexti->Line & EXTI_PIN_MASK));
 1270              		.loc 1 632 43 is_stmt 0 view .LVU471
 1271 000a 030C     		lsrs	r3, r0, #16
 633:Drivers/STM32U0xx_HAL_Driver/Src/stm32u0xx_hal_exti.c **** 
 1272              		.loc 1 633 33 view .LVU472
 1273 000c 0140     		ands	r1, r0
 632:Drivers/STM32U0xx_HAL_Driver/Src/stm32u0xx_hal_exti.c ****   maskline = (1 << (hexti->Line & EXTI_PIN_MASK));
 1274              		.loc 1 632 10 view .LVU473
 1275 000e 1340     		ands	r3, r2
 1276              	.LVL152:
 633:Drivers/STM32U0xx_HAL_Driver/Src/stm32u0xx_hal_exti.c **** 
 1277              		.loc 1 633 17 view .LVU474
 1278 0010 8A40     		lsls	r2, r2, r1
 1279              	.LVL153:
 636:Drivers/STM32U0xx_HAL_Driver/Src/stm32u0xx_hal_exti.c **** }
 1280              		.loc 1 636 12 view .LVU475
 1281 0012 5B01     		lsls	r3, r3, #5
 1282              	.LVL154:
 636:Drivers/STM32U0xx_HAL_Driver/Src/stm32u0xx_hal_exti.c **** }
 1283              		.loc 1 636 12 view .LVU476
 1284 0014 6344     		add	r3, r3, ip
 1285              	.LVL155:
 636:Drivers/STM32U0xx_HAL_Driver/Src/stm32u0xx_hal_exti.c **** }
 1286              		.loc 1 636 12 view .LVU477
 1287 0016 1A60     		str	r2, [r3]
 1288              		.loc 1 637 1 view .LVU478
 1289 0018 7047     		bx	lr
 1290              	.L89:
 1291 001a C046     		.align	2
 1292              	.L88:
 1293 001c 08180240 		.word	1073879048
 1294              		.cfi_endproc
 1295              	.LFE342:
 1297              		.text
 1298              	.Letext0:
 1299              		.file 2 "C:\\ST\\STM32CubeCLT_1.15.0\\GNU-tools-for-STM32\\bin/../lib/gcc/arm-none-eabi/12.3.1/../
 1300              		.file 3 "C:\\ST\\STM32CubeCLT_1.15.0\\GNU-tools-for-STM32\\bin/../lib/gcc/arm-none-eabi/12.3.1/../
 1301              		.file 4 "Drivers/CMSIS/Device/ST/STM32U0xx/Include/stm32u073xx.h"
 1302              		.file 5 "Drivers/STM32U0xx_HAL_Driver/Inc/stm32u0xx_hal_def.h"
 1303              		.file 6 "Drivers/STM32U0xx_HAL_Driver/Inc/stm32u0xx_hal_exti.h"
 1304              		.file 7 "Drivers/STM32U0xx_HAL_Driver/Inc/stm32u0xx_ll_dma.h"
ARM GAS  C:\Users\upo\AppData\Local\Temp\cc4cKwHi.s 			page 38

