ARM GAS  C:\Users\upo\AppData\Local\Temp\ccJiDZ9q.s 			page 1


   1              		.cpu cortex-m0plus
   2              		.arch armv6s-m
   3              		.fpu softvfp
   4              		.eabi_attribute 20, 1
   5              		.eabi_attribute 21, 1
   6              		.eabi_attribute 23, 3
   7              		.eabi_attribute 24, 1
   8              		.eabi_attribute 25, 1
   9              		.eabi_attribute 26, 1
  10              		.eabi_attribute 30, 2
  11              		.eabi_attribute 34, 0
  12              		.eabi_attribute 18, 4
  13              		.file	"stm32u0xx_hal_pwr_ex.c"
  14              		.text
  15              	.Ltext0:
  16              		.cfi_sections	.debug_frame
  17              		.file 1 "Drivers/STM32U0xx_HAL_Driver/Src/stm32u0xx_hal_pwr_ex.c"
  18              		.global	__aeabi_uidiv
  19              		.section	.text.HAL_PWREx_ControlVoltageScaling,"ax",%progbits
  20              		.align	1
  21              		.p2align 2,,3
  22              		.global	HAL_PWREx_ControlVoltageScaling
  23              		.syntax unified
  24              		.code	16
  25              		.thumb_func
  27              	HAL_PWREx_ControlVoltageScaling:
  28              	.LVL0:
  29              	.LFB334:
   1:Drivers/STM32U0xx_HAL_Driver/Src/stm32u0xx_hal_pwr_ex.c **** /**
   2:Drivers/STM32U0xx_HAL_Driver/Src/stm32u0xx_hal_pwr_ex.c ****   ******************************************************************************
   3:Drivers/STM32U0xx_HAL_Driver/Src/stm32u0xx_hal_pwr_ex.c ****   * @file    stm32u0xx_hal_pwr_ex.c
   4:Drivers/STM32U0xx_HAL_Driver/Src/stm32u0xx_hal_pwr_ex.c ****   * @author  MCD Application Team
   5:Drivers/STM32U0xx_HAL_Driver/Src/stm32u0xx_hal_pwr_ex.c ****   * @brief   Extended PWR HAL module driver.
   6:Drivers/STM32U0xx_HAL_Driver/Src/stm32u0xx_hal_pwr_ex.c ****   *          This file provides firmware functions to manage the following
   7:Drivers/STM32U0xx_HAL_Driver/Src/stm32u0xx_hal_pwr_ex.c ****   *          functionalities of the Power Controller extension peripheral :
   8:Drivers/STM32U0xx_HAL_Driver/Src/stm32u0xx_hal_pwr_ex.c ****   *           + Power Supply Control Functions
   9:Drivers/STM32U0xx_HAL_Driver/Src/stm32u0xx_hal_pwr_ex.c ****   *           + Low Power Control Functions
  10:Drivers/STM32U0xx_HAL_Driver/Src/stm32u0xx_hal_pwr_ex.c ****   *           + Voltage Monitoring Functions
  11:Drivers/STM32U0xx_HAL_Driver/Src/stm32u0xx_hal_pwr_ex.c ****   *           + Memories Retention Functions
  12:Drivers/STM32U0xx_HAL_Driver/Src/stm32u0xx_hal_pwr_ex.c ****   *           + I/O Pull-Up Pull-Down Configuration Functions
  13:Drivers/STM32U0xx_HAL_Driver/Src/stm32u0xx_hal_pwr_ex.c ****   *
  14:Drivers/STM32U0xx_HAL_Driver/Src/stm32u0xx_hal_pwr_ex.c ****   ******************************************************************************
  15:Drivers/STM32U0xx_HAL_Driver/Src/stm32u0xx_hal_pwr_ex.c ****   * @attention
  16:Drivers/STM32U0xx_HAL_Driver/Src/stm32u0xx_hal_pwr_ex.c ****   *
  17:Drivers/STM32U0xx_HAL_Driver/Src/stm32u0xx_hal_pwr_ex.c ****   * Copyright (c) 2023 STMicroelectronics.
  18:Drivers/STM32U0xx_HAL_Driver/Src/stm32u0xx_hal_pwr_ex.c ****   * All rights reserved.
  19:Drivers/STM32U0xx_HAL_Driver/Src/stm32u0xx_hal_pwr_ex.c ****   *
  20:Drivers/STM32U0xx_HAL_Driver/Src/stm32u0xx_hal_pwr_ex.c ****   * This software is licensed under terms that can be found in the LICENSE file
  21:Drivers/STM32U0xx_HAL_Driver/Src/stm32u0xx_hal_pwr_ex.c ****   * in the root directory of this software component.
  22:Drivers/STM32U0xx_HAL_Driver/Src/stm32u0xx_hal_pwr_ex.c ****   * If no LICENSE file comes with this software, it is provided AS-IS.
  23:Drivers/STM32U0xx_HAL_Driver/Src/stm32u0xx_hal_pwr_ex.c ****   *
  24:Drivers/STM32U0xx_HAL_Driver/Src/stm32u0xx_hal_pwr_ex.c ****   ******************************************************************************
  25:Drivers/STM32U0xx_HAL_Driver/Src/stm32u0xx_hal_pwr_ex.c ****     @verbatim
  26:Drivers/STM32U0xx_HAL_Driver/Src/stm32u0xx_hal_pwr_ex.c ****   ==============================================================================
  27:Drivers/STM32U0xx_HAL_Driver/Src/stm32u0xx_hal_pwr_ex.c ****                         ##### How to use this driver #####
  28:Drivers/STM32U0xx_HAL_Driver/Src/stm32u0xx_hal_pwr_ex.c ****   ==============================================================================
  29:Drivers/STM32U0xx_HAL_Driver/Src/stm32u0xx_hal_pwr_ex.c ****   [..]
ARM GAS  C:\Users\upo\AppData\Local\Temp\ccJiDZ9q.s 			page 2


  30:Drivers/STM32U0xx_HAL_Driver/Src/stm32u0xx_hal_pwr_ex.c ****    (#) Call HAL_PWREx_ControlVoltageScaling() and HAL_PWREx_GetVoltageRange() to
  31:Drivers/STM32U0xx_HAL_Driver/Src/stm32u0xx_hal_pwr_ex.c ****        set / get the voltage scaling range.
  32:Drivers/STM32U0xx_HAL_Driver/Src/stm32u0xx_hal_pwr_ex.c ****       (+) Voltage scaling can be one of the following values :
  33:Drivers/STM32U0xx_HAL_Driver/Src/stm32u0xx_hal_pwr_ex.c ****              (++) voltage output scale 1 : 1V2
  34:Drivers/STM32U0xx_HAL_Driver/Src/stm32u0xx_hal_pwr_ex.c ****                   => Used when system clock frequency is up to 160 MHz
  35:Drivers/STM32U0xx_HAL_Driver/Src/stm32u0xx_hal_pwr_ex.c ****              (++) voltage output scale 2 : 1V1
  36:Drivers/STM32U0xx_HAL_Driver/Src/stm32u0xx_hal_pwr_ex.c ****                   => Used when system clock frequency is up to 100 MHz
  37:Drivers/STM32U0xx_HAL_Driver/Src/stm32u0xx_hal_pwr_ex.c **** 
  38:Drivers/STM32U0xx_HAL_Driver/Src/stm32u0xx_hal_pwr_ex.c ****    (#) Call HAL_PWREx_EnterSTOP1Mode() function to enter the whole system to
  39:Drivers/STM32U0xx_HAL_Driver/Src/stm32u0xx_hal_pwr_ex.c ****        Stop 1 mode. Wake-up from Stop 1 mode could be following to an event or
  40:Drivers/STM32U0xx_HAL_Driver/Src/stm32u0xx_hal_pwr_ex.c ****        an interrupt according to low power mode intrinsic request called
  41:Drivers/STM32U0xx_HAL_Driver/Src/stm32u0xx_hal_pwr_ex.c ****        (__WFI() or __WFE()). (Regulator state on U0 devices is managed
  42:Drivers/STM32U0xx_HAL_Driver/Src/stm32u0xx_hal_pwr_ex.c ****        internally but regulator parameter is kept for product compatibility).
  43:Drivers/STM32U0xx_HAL_Driver/Src/stm32u0xx_hal_pwr_ex.c **** 
  44:Drivers/STM32U0xx_HAL_Driver/Src/stm32u0xx_hal_pwr_ex.c ****    (#) Call HAL_PWREx_EnterSTOP2Mode() function to enter the whole system to
  45:Drivers/STM32U0xx_HAL_Driver/Src/stm32u0xx_hal_pwr_ex.c ****        Stop 2 mode. Wake-up from Stop 2 mode could be following to an event or
  46:Drivers/STM32U0xx_HAL_Driver/Src/stm32u0xx_hal_pwr_ex.c ****        an interrupt according to low power mode intrinsic request called
  47:Drivers/STM32U0xx_HAL_Driver/Src/stm32u0xx_hal_pwr_ex.c ****        (__WFI() or __WFE()). (Regulator state on U0 devices is managed
  48:Drivers/STM32U0xx_HAL_Driver/Src/stm32u0xx_hal_pwr_ex.c ****        internally but regulator parameter is kept for product compatibility).
  49:Drivers/STM32U0xx_HAL_Driver/Src/stm32u0xx_hal_pwr_ex.c **** 
  50:Drivers/STM32U0xx_HAL_Driver/Src/stm32u0xx_hal_pwr_ex.c ****    (#) Call HAL_PWREx_EnableBatteryCharging() and
  51:Drivers/STM32U0xx_HAL_Driver/Src/stm32u0xx_hal_pwr_ex.c ****        HAL_PWREx_DisableBatteryCharging() to enable / disable the battery
  52:Drivers/STM32U0xx_HAL_Driver/Src/stm32u0xx_hal_pwr_ex.c ****        charging capability when VDD alimentation is available.
  53:Drivers/STM32U0xx_HAL_Driver/Src/stm32u0xx_hal_pwr_ex.c **** 
  54:Drivers/STM32U0xx_HAL_Driver/Src/stm32u0xx_hal_pwr_ex.c ****    (#) Call HAL_PWREx_ConfigPVM() after setting parameters to be configured
  55:Drivers/STM32U0xx_HAL_Driver/Src/stm32u0xx_hal_pwr_ex.c ****        (event mode and PVD type) in order to set up the Peripheral Voltage use
  56:Drivers/STM32U0xx_HAL_Driver/Src/stm32u0xx_hal_pwr_ex.c ****        HAL_PWREx_EnablePVM1(),HAL_PWREx_EnablePVM3() and HAL_PWREx_EnablePVM4()
  57:Drivers/STM32U0xx_HAL_Driver/Src/stm32u0xx_hal_pwr_ex.c ****        functions and use HAL_PWREx_DisablePVM1(),HAL_PWREx_EnablePVM3()
  58:Drivers/STM32U0xx_HAL_Driver/Src/stm32u0xx_hal_pwr_ex.c ****        and HAL_PWREx_EnablePVM4() to stop the PVM VDDx monitoring.
  59:Drivers/STM32U0xx_HAL_Driver/Src/stm32u0xx_hal_pwr_ex.c ****        (+) PVM monitored voltages are :
  60:Drivers/STM32U0xx_HAL_Driver/Src/stm32u0xx_hal_pwr_ex.c ****              (++) VDDUSB versus 1V2
  61:Drivers/STM32U0xx_HAL_Driver/Src/stm32u0xx_hal_pwr_ex.c ****              (++) VDDADC versus 1V62
  62:Drivers/STM32U0xx_HAL_Driver/Src/stm32u0xx_hal_pwr_ex.c ****              (++) VDDDAC versus 2V2
  63:Drivers/STM32U0xx_HAL_Driver/Src/stm32u0xx_hal_pwr_ex.c **** 
  64:Drivers/STM32U0xx_HAL_Driver/Src/stm32u0xx_hal_pwr_ex.c ****    (#) Call HAL_PWREx_PVD_PVM_IRQHandler() function to handle the PWR PVD and
  65:Drivers/STM32U0xx_HAL_Driver/Src/stm32u0xx_hal_pwr_ex.c ****        PVM interrupt request.
  66:Drivers/STM32U0xx_HAL_Driver/Src/stm32u0xx_hal_pwr_ex.c **** 
  67:Drivers/STM32U0xx_HAL_Driver/Src/stm32u0xx_hal_pwr_ex.c ****    (#) Call HAL_PWREx_EnablePullUpPullDownConfig() and
  68:Drivers/STM32U0xx_HAL_Driver/Src/stm32u0xx_hal_pwr_ex.c ****        HAL_PWREx_DisablePullUpPullDownConfig() to I/O enable / disable pull-up
  69:Drivers/STM32U0xx_HAL_Driver/Src/stm32u0xx_hal_pwr_ex.c ****        and pull-down configuration.
  70:Drivers/STM32U0xx_HAL_Driver/Src/stm32u0xx_hal_pwr_ex.c **** 
  71:Drivers/STM32U0xx_HAL_Driver/Src/stm32u0xx_hal_pwr_ex.c ****    (#) Call HAL_PWREx_EnableGPIOPullUp() and HAL_PWREx_EnableGPIOPullDown() to
  72:Drivers/STM32U0xx_HAL_Driver/Src/stm32u0xx_hal_pwr_ex.c ****        apply respectively pull-up and pull-down to selected I/O.
  73:Drivers/STM32U0xx_HAL_Driver/Src/stm32u0xx_hal_pwr_ex.c ****        Call HAL_PWREx_DisableGPIOPullUp() and HAL_PWREx_DisableGPIOPullDown() to
  74:Drivers/STM32U0xx_HAL_Driver/Src/stm32u0xx_hal_pwr_ex.c ****        disable applied respectively pull-up and pull-down to selected I/O.
  75:Drivers/STM32U0xx_HAL_Driver/Src/stm32u0xx_hal_pwr_ex.c **** 
  76:Drivers/STM32U0xx_HAL_Driver/Src/stm32u0xx_hal_pwr_ex.c ****   @endverbatim
  77:Drivers/STM32U0xx_HAL_Driver/Src/stm32u0xx_hal_pwr_ex.c ****   ******************************************************************************
  78:Drivers/STM32U0xx_HAL_Driver/Src/stm32u0xx_hal_pwr_ex.c ****   */
  79:Drivers/STM32U0xx_HAL_Driver/Src/stm32u0xx_hal_pwr_ex.c **** 
  80:Drivers/STM32U0xx_HAL_Driver/Src/stm32u0xx_hal_pwr_ex.c **** /* Includes ------------------------------------------------------------------*/
  81:Drivers/STM32U0xx_HAL_Driver/Src/stm32u0xx_hal_pwr_ex.c **** #include "stm32u0xx_hal.h"
  82:Drivers/STM32U0xx_HAL_Driver/Src/stm32u0xx_hal_pwr_ex.c **** 
  83:Drivers/STM32U0xx_HAL_Driver/Src/stm32u0xx_hal_pwr_ex.c **** /** @addtogroup STM32U0xx_HAL_Driver
  84:Drivers/STM32U0xx_HAL_Driver/Src/stm32u0xx_hal_pwr_ex.c ****   * @{
  85:Drivers/STM32U0xx_HAL_Driver/Src/stm32u0xx_hal_pwr_ex.c ****   */
  86:Drivers/STM32U0xx_HAL_Driver/Src/stm32u0xx_hal_pwr_ex.c **** 
ARM GAS  C:\Users\upo\AppData\Local\Temp\ccJiDZ9q.s 			page 3


  87:Drivers/STM32U0xx_HAL_Driver/Src/stm32u0xx_hal_pwr_ex.c **** /** @defgroup PWREx PWREx
  88:Drivers/STM32U0xx_HAL_Driver/Src/stm32u0xx_hal_pwr_ex.c ****   * @brief PWR Extended HAL module driver
  89:Drivers/STM32U0xx_HAL_Driver/Src/stm32u0xx_hal_pwr_ex.c ****   * @{
  90:Drivers/STM32U0xx_HAL_Driver/Src/stm32u0xx_hal_pwr_ex.c ****   */
  91:Drivers/STM32U0xx_HAL_Driver/Src/stm32u0xx_hal_pwr_ex.c **** 
  92:Drivers/STM32U0xx_HAL_Driver/Src/stm32u0xx_hal_pwr_ex.c **** #ifdef HAL_PWR_MODULE_ENABLED
  93:Drivers/STM32U0xx_HAL_Driver/Src/stm32u0xx_hal_pwr_ex.c **** 
  94:Drivers/STM32U0xx_HAL_Driver/Src/stm32u0xx_hal_pwr_ex.c **** /* Private typedef -----------------------------------------------------------*/
  95:Drivers/STM32U0xx_HAL_Driver/Src/stm32u0xx_hal_pwr_ex.c **** /* Private define ------------------------------------------------------------*/
  96:Drivers/STM32U0xx_HAL_Driver/Src/stm32u0xx_hal_pwr_ex.c **** 
  97:Drivers/STM32U0xx_HAL_Driver/Src/stm32u0xx_hal_pwr_ex.c **** /** @defgroup PWR_Extended_Private_Defines PWR Extended Private Defines
  98:Drivers/STM32U0xx_HAL_Driver/Src/stm32u0xx_hal_pwr_ex.c ****   * @{
  99:Drivers/STM32U0xx_HAL_Driver/Src/stm32u0xx_hal_pwr_ex.c ****   */
 100:Drivers/STM32U0xx_HAL_Driver/Src/stm32u0xx_hal_pwr_ex.c **** #if defined (GPIOE)
 101:Drivers/STM32U0xx_HAL_Driver/Src/stm32u0xx_hal_pwr_ex.c **** /* PORTE pins mask */
 102:Drivers/STM32U0xx_HAL_Driver/Src/stm32u0xx_hal_pwr_ex.c **** #define PWR_PORTE_AVAILABLE_PINS  0x00000388U   /* PE3, PE7..PE9 */
 103:Drivers/STM32U0xx_HAL_Driver/Src/stm32u0xx_hal_pwr_ex.c **** #endif /* GPIOE */
 104:Drivers/STM32U0xx_HAL_Driver/Src/stm32u0xx_hal_pwr_ex.c **** #if defined (PWR_PDCRD_PD0)
 105:Drivers/STM32U0xx_HAL_Driver/Src/stm32u0xx_hal_pwr_ex.c **** #define PWR_PORTD_AVAILABLE_PINS  0x00003F7FU   /* PD0..PD6, PD8..PD13 */
 106:Drivers/STM32U0xx_HAL_Driver/Src/stm32u0xx_hal_pwr_ex.c **** #else
 107:Drivers/STM32U0xx_HAL_Driver/Src/stm32u0xx_hal_pwr_ex.c **** #define PWR_PORTD_AVAILABLE_PINS  0x00000004U   /* PD2 */
 108:Drivers/STM32U0xx_HAL_Driver/Src/stm32u0xx_hal_pwr_ex.c **** #endif /* PWR_PDCRD_PD0 */
 109:Drivers/STM32U0xx_HAL_Driver/Src/stm32u0xx_hal_pwr_ex.c **** /* PORTF pins mask */
 110:Drivers/STM32U0xx_HAL_Driver/Src/stm32u0xx_hal_pwr_ex.c **** #define PWR_PORTF_AVAILABLE_PINS  0x0000000FU   /* PF0..PF3 */
 111:Drivers/STM32U0xx_HAL_Driver/Src/stm32u0xx_hal_pwr_ex.c **** 
 112:Drivers/STM32U0xx_HAL_Driver/Src/stm32u0xx_hal_pwr_ex.c **** /** @defgroup PWREx_PVM_Mode_Mask PWR PVM Mode Mask
 113:Drivers/STM32U0xx_HAL_Driver/Src/stm32u0xx_hal_pwr_ex.c ****   * @{
 114:Drivers/STM32U0xx_HAL_Driver/Src/stm32u0xx_hal_pwr_ex.c ****   */
 115:Drivers/STM32U0xx_HAL_Driver/Src/stm32u0xx_hal_pwr_ex.c **** #define PVM_MODE_IT               0x00010000U   /*!< Mask for interruption yielded by PVM threshold
 116:Drivers/STM32U0xx_HAL_Driver/Src/stm32u0xx_hal_pwr_ex.c **** #define PVM_MODE_EVT              0x00020000U   /*!< Mask for event yielded by PVM threshold crossi
 117:Drivers/STM32U0xx_HAL_Driver/Src/stm32u0xx_hal_pwr_ex.c **** #define PVM_RISING_EDGE           0x00000001U   /*!< Mask for rising edge set as PVM trigger       
 118:Drivers/STM32U0xx_HAL_Driver/Src/stm32u0xx_hal_pwr_ex.c **** #define PVM_FALLING_EDGE          0x00000002U   /*!< Mask for falling edge set as PVM trigger      
 119:Drivers/STM32U0xx_HAL_Driver/Src/stm32u0xx_hal_pwr_ex.c **** /**
 120:Drivers/STM32U0xx_HAL_Driver/Src/stm32u0xx_hal_pwr_ex.c ****   * @}
 121:Drivers/STM32U0xx_HAL_Driver/Src/stm32u0xx_hal_pwr_ex.c ****   */
 122:Drivers/STM32U0xx_HAL_Driver/Src/stm32u0xx_hal_pwr_ex.c **** 
 123:Drivers/STM32U0xx_HAL_Driver/Src/stm32u0xx_hal_pwr_ex.c **** /** @defgroup PWREx_TimeOut_Value PWR Extended Flag Setting Time Out Value
 124:Drivers/STM32U0xx_HAL_Driver/Src/stm32u0xx_hal_pwr_ex.c ****   * @{
 125:Drivers/STM32U0xx_HAL_Driver/Src/stm32u0xx_hal_pwr_ex.c ****   */
 126:Drivers/STM32U0xx_HAL_Driver/Src/stm32u0xx_hal_pwr_ex.c **** #define PWR_FLAG_SETTING_DELAY_US                      50UL   /*!< Time out value for REGLPF and VO
 127:Drivers/STM32U0xx_HAL_Driver/Src/stm32u0xx_hal_pwr_ex.c **** /**
 128:Drivers/STM32U0xx_HAL_Driver/Src/stm32u0xx_hal_pwr_ex.c ****   * @}
 129:Drivers/STM32U0xx_HAL_Driver/Src/stm32u0xx_hal_pwr_ex.c ****   */
 130:Drivers/STM32U0xx_HAL_Driver/Src/stm32u0xx_hal_pwr_ex.c **** 
 131:Drivers/STM32U0xx_HAL_Driver/Src/stm32u0xx_hal_pwr_ex.c **** /**
 132:Drivers/STM32U0xx_HAL_Driver/Src/stm32u0xx_hal_pwr_ex.c ****   * @}
 133:Drivers/STM32U0xx_HAL_Driver/Src/stm32u0xx_hal_pwr_ex.c ****   */
 134:Drivers/STM32U0xx_HAL_Driver/Src/stm32u0xx_hal_pwr_ex.c **** 
 135:Drivers/STM32U0xx_HAL_Driver/Src/stm32u0xx_hal_pwr_ex.c **** /* Private macro -------------------------------------------------------------*/
 136:Drivers/STM32U0xx_HAL_Driver/Src/stm32u0xx_hal_pwr_ex.c **** /* Private variables ---------------------------------------------------------*/
 137:Drivers/STM32U0xx_HAL_Driver/Src/stm32u0xx_hal_pwr_ex.c **** /* Private function prototypes -----------------------------------------------*/
 138:Drivers/STM32U0xx_HAL_Driver/Src/stm32u0xx_hal_pwr_ex.c **** /* Exported functions --------------------------------------------------------*/
 139:Drivers/STM32U0xx_HAL_Driver/Src/stm32u0xx_hal_pwr_ex.c **** 
 140:Drivers/STM32U0xx_HAL_Driver/Src/stm32u0xx_hal_pwr_ex.c **** /** @defgroup PWREx_Exported_Functions PWR Extended Exported Functions
 141:Drivers/STM32U0xx_HAL_Driver/Src/stm32u0xx_hal_pwr_ex.c ****   * @{
 142:Drivers/STM32U0xx_HAL_Driver/Src/stm32u0xx_hal_pwr_ex.c ****   */
 143:Drivers/STM32U0xx_HAL_Driver/Src/stm32u0xx_hal_pwr_ex.c **** 
ARM GAS  C:\Users\upo\AppData\Local\Temp\ccJiDZ9q.s 			page 4


 144:Drivers/STM32U0xx_HAL_Driver/Src/stm32u0xx_hal_pwr_ex.c **** /** @defgroup PWREx_Exported_Functions_Group1 Power Supply Control Functions
 145:Drivers/STM32U0xx_HAL_Driver/Src/stm32u0xx_hal_pwr_ex.c ****   * @brief    Power supply control functions
 146:Drivers/STM32U0xx_HAL_Driver/Src/stm32u0xx_hal_pwr_ex.c ****   *
 147:Drivers/STM32U0xx_HAL_Driver/Src/stm32u0xx_hal_pwr_ex.c **** @verbatim
 148:Drivers/STM32U0xx_HAL_Driver/Src/stm32u0xx_hal_pwr_ex.c ****  ===============================================================================
 149:Drivers/STM32U0xx_HAL_Driver/Src/stm32u0xx_hal_pwr_ex.c ****                   ##### Power supply control functions #####
 150:Drivers/STM32U0xx_HAL_Driver/Src/stm32u0xx_hal_pwr_ex.c ****  ===============================================================================
 151:Drivers/STM32U0xx_HAL_Driver/Src/stm32u0xx_hal_pwr_ex.c ****     [..]
 152:Drivers/STM32U0xx_HAL_Driver/Src/stm32u0xx_hal_pwr_ex.c ****       This section provides functions allowing to control power supply.
 153:Drivers/STM32U0xx_HAL_Driver/Src/stm32u0xx_hal_pwr_ex.c **** 
 154:Drivers/STM32U0xx_HAL_Driver/Src/stm32u0xx_hal_pwr_ex.c ****     [..]
 155:Drivers/STM32U0xx_HAL_Driver/Src/stm32u0xx_hal_pwr_ex.c ****       (+) When exiting the Stop or Standby modes, the regulator is the same than
 156:Drivers/STM32U0xx_HAL_Driver/Src/stm32u0xx_hal_pwr_ex.c ****           when entering low power modes. The voltage range is the Range 2.
 157:Drivers/STM32U0xx_HAL_Driver/Src/stm32u0xx_hal_pwr_ex.c **** 
 158:Drivers/STM32U0xx_HAL_Driver/Src/stm32u0xx_hal_pwr_ex.c ****       (+) Both regulators can provide four different voltages (voltage scaling)
 159:Drivers/STM32U0xx_HAL_Driver/Src/stm32u0xx_hal_pwr_ex.c ****           and can operate in Stop modes.
 160:Drivers/STM32U0xx_HAL_Driver/Src/stm32u0xx_hal_pwr_ex.c ****           Voltage scaling ranges can be one of the following values :
 161:Drivers/STM32U0xx_HAL_Driver/Src/stm32u0xx_hal_pwr_ex.c ****              (++) voltage output scale 1 : 1V2
 162:Drivers/STM32U0xx_HAL_Driver/Src/stm32u0xx_hal_pwr_ex.c ****                   => Used when system clock frequency is up to 160 MHz
 163:Drivers/STM32U0xx_HAL_Driver/Src/stm32u0xx_hal_pwr_ex.c ****              (++) voltage output scale 2 : 1V1
 164:Drivers/STM32U0xx_HAL_Driver/Src/stm32u0xx_hal_pwr_ex.c ****                   => Used when system clock frequency is up to 100 MHz
 165:Drivers/STM32U0xx_HAL_Driver/Src/stm32u0xx_hal_pwr_ex.c **** 
 166:Drivers/STM32U0xx_HAL_Driver/Src/stm32u0xx_hal_pwr_ex.c **** @endverbatim
 167:Drivers/STM32U0xx_HAL_Driver/Src/stm32u0xx_hal_pwr_ex.c ****   * @{
 168:Drivers/STM32U0xx_HAL_Driver/Src/stm32u0xx_hal_pwr_ex.c ****   */
 169:Drivers/STM32U0xx_HAL_Driver/Src/stm32u0xx_hal_pwr_ex.c **** 
 170:Drivers/STM32U0xx_HAL_Driver/Src/stm32u0xx_hal_pwr_ex.c **** /**
 171:Drivers/STM32U0xx_HAL_Driver/Src/stm32u0xx_hal_pwr_ex.c ****   * @brief Configure the main internal regulator output voltage.
 172:Drivers/STM32U0xx_HAL_Driver/Src/stm32u0xx_hal_pwr_ex.c ****   * @param  VoltageScaling specifies the regulator output voltage to achieve
 173:Drivers/STM32U0xx_HAL_Driver/Src/stm32u0xx_hal_pwr_ex.c ****   *         a tradeoff between performance and power consumption.
 174:Drivers/STM32U0xx_HAL_Driver/Src/stm32u0xx_hal_pwr_ex.c ****   *          This parameter can be one of the following values:
 175:Drivers/STM32U0xx_HAL_Driver/Src/stm32u0xx_hal_pwr_ex.c **** 
 176:Drivers/STM32U0xx_HAL_Driver/Src/stm32u0xx_hal_pwr_ex.c ****   * @arg @ref PWR_REGULATOR_VOLTAGE_SCALE1 Regulator voltage output range 1 mode,
 177:Drivers/STM32U0xx_HAL_Driver/Src/stm32u0xx_hal_pwr_ex.c ****   *                                        typical output voltage at 1.2 V,
 178:Drivers/STM32U0xx_HAL_Driver/Src/stm32u0xx_hal_pwr_ex.c ****   *                                        system frequency up to 80 MHz.
 179:Drivers/STM32U0xx_HAL_Driver/Src/stm32u0xx_hal_pwr_ex.c ****   * @arg @ref PWR_REGULATOR_VOLTAGE_SCALE2 Regulator voltage output range 2 mode,
 180:Drivers/STM32U0xx_HAL_Driver/Src/stm32u0xx_hal_pwr_ex.c ****   *                                        typical output voltage at 1.0 V,
 181:Drivers/STM32U0xx_HAL_Driver/Src/stm32u0xx_hal_pwr_ex.c ****   *                                        system frequency up to 26 MHz.
 182:Drivers/STM32U0xx_HAL_Driver/Src/stm32u0xx_hal_pwr_ex.c ****   * @note  When moving from Range 1 to Range 2, the system frequency must be decreased to
 183:Drivers/STM32U0xx_HAL_Driver/Src/stm32u0xx_hal_pwr_ex.c ****   *        a value below 26 MHz before calling HAL_PWREx_ControlVoltageScaling() API.
 184:Drivers/STM32U0xx_HAL_Driver/Src/stm32u0xx_hal_pwr_ex.c ****   *        When moving from Range 2 to Range 1, the system frequency can be increased to
 185:Drivers/STM32U0xx_HAL_Driver/Src/stm32u0xx_hal_pwr_ex.c ****   *        a value up to 80 MHz after calling HAL_PWREx_ControlVoltageScaling() API. For
 186:Drivers/STM32U0xx_HAL_Driver/Src/stm32u0xx_hal_pwr_ex.c ****   *        some devices, the system frequency can be increased up to 120 MHz.
 187:Drivers/STM32U0xx_HAL_Driver/Src/stm32u0xx_hal_pwr_ex.c ****   * @note  When moving from Range 2 to Range 1, the API waits for VOSF flag to be
 188:Drivers/STM32U0xx_HAL_Driver/Src/stm32u0xx_hal_pwr_ex.c ****   *        cleared before returning the status. If the flag is not cleared within
 189:Drivers/STM32U0xx_HAL_Driver/Src/stm32u0xx_hal_pwr_ex.c ****   *        50 microseconds, HAL_TIMEOUT status is reported.
 190:Drivers/STM32U0xx_HAL_Driver/Src/stm32u0xx_hal_pwr_ex.c ****   * @retval HAL Status
 191:Drivers/STM32U0xx_HAL_Driver/Src/stm32u0xx_hal_pwr_ex.c ****   */
 192:Drivers/STM32U0xx_HAL_Driver/Src/stm32u0xx_hal_pwr_ex.c **** HAL_StatusTypeDef HAL_PWREx_ControlVoltageScaling(uint32_t VoltageScaling)
 193:Drivers/STM32U0xx_HAL_Driver/Src/stm32u0xx_hal_pwr_ex.c **** {
  30              		.loc 1 193 1 view -0
  31              		.cfi_startproc
  32              		@ args = 0, pretend = 0, frame = 0
  33              		@ frame_needed = 0, uses_anonymous_args = 0
 194:Drivers/STM32U0xx_HAL_Driver/Src/stm32u0xx_hal_pwr_ex.c ****   uint32_t wait_loop_index;
  34              		.loc 1 194 3 view .LVU1
 195:Drivers/STM32U0xx_HAL_Driver/Src/stm32u0xx_hal_pwr_ex.c ****   assert_param(IS_PWR_VOLTAGE_SCALING_RANGE(VoltageScaling));
ARM GAS  C:\Users\upo\AppData\Local\Temp\ccJiDZ9q.s 			page 5


  35              		.loc 1 195 3 view .LVU2
 196:Drivers/STM32U0xx_HAL_Driver/Src/stm32u0xx_hal_pwr_ex.c **** 
 197:Drivers/STM32U0xx_HAL_Driver/Src/stm32u0xx_hal_pwr_ex.c ****   /* If Set Range 1 */
 198:Drivers/STM32U0xx_HAL_Driver/Src/stm32u0xx_hal_pwr_ex.c ****   if (VoltageScaling == PWR_REGULATOR_VOLTAGE_SCALE1)
  36              		.loc 1 198 3 view .LVU3
  37              		.loc 1 198 6 is_stmt 0 view .LVU4
  38 0000 8023     		movs	r3, #128
 193:Drivers/STM32U0xx_HAL_Driver/Src/stm32u0xx_hal_pwr_ex.c ****   uint32_t wait_loop_index;
  39              		.loc 1 193 1 view .LVU5
  40 0002 10B5     		push	{r4, lr}
  41              	.LCFI0:
  42              		.cfi_def_cfa_offset 8
  43              		.cfi_offset 4, -8
  44              		.cfi_offset 14, -4
  45              		.loc 1 198 6 view .LVU6
  46 0004 9B00     		lsls	r3, r3, #2
  47 0006 9842     		cmp	r0, r3
  48 0008 0FD0     		beq	.L19
 199:Drivers/STM32U0xx_HAL_Driver/Src/stm32u0xx_hal_pwr_ex.c ****   {
 200:Drivers/STM32U0xx_HAL_Driver/Src/stm32u0xx_hal_pwr_ex.c ****     if (READ_BIT(PWR->CR1, PWR_CR1_VOS) != PWR_REGULATOR_VOLTAGE_SCALE1)
 201:Drivers/STM32U0xx_HAL_Driver/Src/stm32u0xx_hal_pwr_ex.c ****     {
 202:Drivers/STM32U0xx_HAL_Driver/Src/stm32u0xx_hal_pwr_ex.c ****       /* Set Range 1 */
 203:Drivers/STM32U0xx_HAL_Driver/Src/stm32u0xx_hal_pwr_ex.c ****       MODIFY_REG(PWR->CR1, PWR_CR1_VOS, PWR_REGULATOR_VOLTAGE_SCALE1);
 204:Drivers/STM32U0xx_HAL_Driver/Src/stm32u0xx_hal_pwr_ex.c ****       /* Wait until VOSF is cleared */
 205:Drivers/STM32U0xx_HAL_Driver/Src/stm32u0xx_hal_pwr_ex.c ****       wait_loop_index = ((PWR_FLAG_SETTING_DELAY_US * SystemCoreClock) / 1000000U) + 1U;
 206:Drivers/STM32U0xx_HAL_Driver/Src/stm32u0xx_hal_pwr_ex.c ****       while ((HAL_IS_BIT_SET(PWR->SR2, PWR_SR2_VOSF)) && (wait_loop_index != 0U))
 207:Drivers/STM32U0xx_HAL_Driver/Src/stm32u0xx_hal_pwr_ex.c ****       {
 208:Drivers/STM32U0xx_HAL_Driver/Src/stm32u0xx_hal_pwr_ex.c ****         wait_loop_index--;
 209:Drivers/STM32U0xx_HAL_Driver/Src/stm32u0xx_hal_pwr_ex.c ****       }
 210:Drivers/STM32U0xx_HAL_Driver/Src/stm32u0xx_hal_pwr_ex.c ****       if (HAL_IS_BIT_SET(PWR->SR2, PWR_SR2_VOSF))
 211:Drivers/STM32U0xx_HAL_Driver/Src/stm32u0xx_hal_pwr_ex.c ****       {
 212:Drivers/STM32U0xx_HAL_Driver/Src/stm32u0xx_hal_pwr_ex.c ****         return HAL_TIMEOUT;
 213:Drivers/STM32U0xx_HAL_Driver/Src/stm32u0xx_hal_pwr_ex.c ****       }
 214:Drivers/STM32U0xx_HAL_Driver/Src/stm32u0xx_hal_pwr_ex.c ****     }
 215:Drivers/STM32U0xx_HAL_Driver/Src/stm32u0xx_hal_pwr_ex.c ****   }
 216:Drivers/STM32U0xx_HAL_Driver/Src/stm32u0xx_hal_pwr_ex.c ****   else
 217:Drivers/STM32U0xx_HAL_Driver/Src/stm32u0xx_hal_pwr_ex.c ****   {
 218:Drivers/STM32U0xx_HAL_Driver/Src/stm32u0xx_hal_pwr_ex.c ****     if (READ_BIT(PWR->CR1, PWR_CR1_VOS) != PWR_REGULATOR_VOLTAGE_SCALE2)
  49              		.loc 1 218 5 is_stmt 1 view .LVU7
  50              		.loc 1 218 9 is_stmt 0 view .LVU8
  51 000a C022     		movs	r2, #192
  52 000c 1A49     		ldr	r1, .L21
  53 000e D200     		lsls	r2, r2, #3
  54 0010 0B68     		ldr	r3, [r1]
  55 0012 1340     		ands	r3, r2
  56              		.loc 1 218 8 view .LVU9
  57 0014 8022     		movs	r2, #128
  58 0016 D200     		lsls	r2, r2, #3
  59 0018 9342     		cmp	r3, r2
  60 001a 04D0     		beq	.L8
 219:Drivers/STM32U0xx_HAL_Driver/Src/stm32u0xx_hal_pwr_ex.c ****     {
 220:Drivers/STM32U0xx_HAL_Driver/Src/stm32u0xx_hal_pwr_ex.c ****       /* Set Range 2 */
 221:Drivers/STM32U0xx_HAL_Driver/Src/stm32u0xx_hal_pwr_ex.c ****       MODIFY_REG(PWR->CR1, PWR_CR1_VOS, PWR_REGULATOR_VOLTAGE_SCALE2);
  61              		.loc 1 221 7 is_stmt 1 view .LVU10
  62 001c 0B68     		ldr	r3, [r1]
  63 001e 1748     		ldr	r0, .L21+4
  64              	.LVL1:
ARM GAS  C:\Users\upo\AppData\Local\Temp\ccJiDZ9q.s 			page 6


  65              		.loc 1 221 7 is_stmt 0 view .LVU11
  66 0020 0340     		ands	r3, r0
  67 0022 1A43     		orrs	r2, r3
  68 0024 0A60     		str	r2, [r1]
  69              	.L8:
 222:Drivers/STM32U0xx_HAL_Driver/Src/stm32u0xx_hal_pwr_ex.c ****       /* No need to wait for VOSF to be cleared for this transition */
 223:Drivers/STM32U0xx_HAL_Driver/Src/stm32u0xx_hal_pwr_ex.c ****     }
 224:Drivers/STM32U0xx_HAL_Driver/Src/stm32u0xx_hal_pwr_ex.c ****   }
 225:Drivers/STM32U0xx_HAL_Driver/Src/stm32u0xx_hal_pwr_ex.c ****   return HAL_OK;
  70              		.loc 1 225 10 view .LVU12
  71 0026 0020     		movs	r0, #0
  72              	.L6:
 226:Drivers/STM32U0xx_HAL_Driver/Src/stm32u0xx_hal_pwr_ex.c **** }
  73              		.loc 1 226 1 view .LVU13
  74              		@ sp needed
  75 0028 10BD     		pop	{r4, pc}
  76              	.LVL2:
  77              	.L19:
 200:Drivers/STM32U0xx_HAL_Driver/Src/stm32u0xx_hal_pwr_ex.c ****     {
  78              		.loc 1 200 5 is_stmt 1 view .LVU14
 200:Drivers/STM32U0xx_HAL_Driver/Src/stm32u0xx_hal_pwr_ex.c ****     {
  79              		.loc 1 200 9 is_stmt 0 view .LVU15
  80 002a C022     		movs	r2, #192
  81 002c 124C     		ldr	r4, .L21
  82 002e D200     		lsls	r2, r2, #3
  83 0030 2368     		ldr	r3, [r4]
  84 0032 1340     		ands	r3, r2
 200:Drivers/STM32U0xx_HAL_Driver/Src/stm32u0xx_hal_pwr_ex.c ****     {
  85              		.loc 1 200 8 view .LVU16
  86 0034 8342     		cmp	r3, r0
  87 0036 F6D0     		beq	.L8
 203:Drivers/STM32U0xx_HAL_Driver/Src/stm32u0xx_hal_pwr_ex.c ****       /* Wait until VOSF is cleared */
  88              		.loc 1 203 7 is_stmt 1 view .LVU17
  89 0038 2368     		ldr	r3, [r4]
  90 003a 104A     		ldr	r2, .L21+4
 205:Drivers/STM32U0xx_HAL_Driver/Src/stm32u0xx_hal_pwr_ex.c ****       while ((HAL_IS_BIT_SET(PWR->SR2, PWR_SR2_VOSF)) && (wait_loop_index != 0U))
  91              		.loc 1 205 72 is_stmt 0 view .LVU18
  92 003c 1049     		ldr	r1, .L21+8
 203:Drivers/STM32U0xx_HAL_Driver/Src/stm32u0xx_hal_pwr_ex.c ****       /* Wait until VOSF is cleared */
  93              		.loc 1 203 7 view .LVU19
  94 003e 1340     		ands	r3, r2
  95 0040 1843     		orrs	r0, r3
  96              	.LVL3:
 205:Drivers/STM32U0xx_HAL_Driver/Src/stm32u0xx_hal_pwr_ex.c ****       while ((HAL_IS_BIT_SET(PWR->SR2, PWR_SR2_VOSF)) && (wait_loop_index != 0U))
  97              		.loc 1 205 53 view .LVU20
  98 0042 104B     		ldr	r3, .L21+12
 203:Drivers/STM32U0xx_HAL_Driver/Src/stm32u0xx_hal_pwr_ex.c ****       /* Wait until VOSF is cleared */
  99              		.loc 1 203 7 view .LVU21
 100 0044 2060     		str	r0, [r4]
 205:Drivers/STM32U0xx_HAL_Driver/Src/stm32u0xx_hal_pwr_ex.c ****       while ((HAL_IS_BIT_SET(PWR->SR2, PWR_SR2_VOSF)) && (wait_loop_index != 0U))
 101              		.loc 1 205 7 is_stmt 1 view .LVU22
 205:Drivers/STM32U0xx_HAL_Driver/Src/stm32u0xx_hal_pwr_ex.c ****       while ((HAL_IS_BIT_SET(PWR->SR2, PWR_SR2_VOSF)) && (wait_loop_index != 0U))
 102              		.loc 1 205 53 is_stmt 0 view .LVU23
 103 0046 1868     		ldr	r0, [r3]
 104 0048 3223     		movs	r3, #50
 105 004a 5843     		muls	r0, r3
 205:Drivers/STM32U0xx_HAL_Driver/Src/stm32u0xx_hal_pwr_ex.c ****       while ((HAL_IS_BIT_SET(PWR->SR2, PWR_SR2_VOSF)) && (wait_loop_index != 0U))
ARM GAS  C:\Users\upo\AppData\Local\Temp\ccJiDZ9q.s 			page 7


 106              		.loc 1 205 72 view .LVU24
 107 004c FFF7FEFF 		bl	__aeabi_uidiv
 108              	.LVL4:
 206:Drivers/STM32U0xx_HAL_Driver/Src/stm32u0xx_hal_pwr_ex.c ****       {
 109              		.loc 1 206 15 view .LVU25
 110 0050 8022     		movs	r2, #128
 111 0052 6369     		ldr	r3, [r4, #20]
 112 0054 D200     		lsls	r2, r2, #3
 205:Drivers/STM32U0xx_HAL_Driver/Src/stm32u0xx_hal_pwr_ex.c ****       while ((HAL_IS_BIT_SET(PWR->SR2, PWR_SR2_VOSF)) && (wait_loop_index != 0U))
 113              		.loc 1 205 23 view .LVU26
 114 0056 0130     		adds	r0, r0, #1
 115              	.LVL5:
 206:Drivers/STM32U0xx_HAL_Driver/Src/stm32u0xx_hal_pwr_ex.c ****       {
 116              		.loc 1 206 7 is_stmt 1 view .LVU27
 206:Drivers/STM32U0xx_HAL_Driver/Src/stm32u0xx_hal_pwr_ex.c ****       {
 117              		.loc 1 206 55 view .LVU28
 118 0058 1342     		tst	r3, r2
 119 005a 02D1     		bne	.L5
 120 005c 05E0     		b	.L4
 121              	.L20:
 206:Drivers/STM32U0xx_HAL_Driver/Src/stm32u0xx_hal_pwr_ex.c ****       {
 122              		.loc 1 206 55 is_stmt 0 discriminator 1 view .LVU29
 123 005e 0028     		cmp	r0, #0
 124 0060 03D0     		beq	.L4
 125              	.L5:
 208:Drivers/STM32U0xx_HAL_Driver/Src/stm32u0xx_hal_pwr_ex.c ****       }
 126              		.loc 1 208 9 is_stmt 1 view .LVU30
 206:Drivers/STM32U0xx_HAL_Driver/Src/stm32u0xx_hal_pwr_ex.c ****       {
 127              		.loc 1 206 15 is_stmt 0 view .LVU31
 128 0062 6369     		ldr	r3, [r4, #20]
 208:Drivers/STM32U0xx_HAL_Driver/Src/stm32u0xx_hal_pwr_ex.c ****       }
 129              		.loc 1 208 24 view .LVU32
 130 0064 0138     		subs	r0, r0, #1
 131              	.LVL6:
 206:Drivers/STM32U0xx_HAL_Driver/Src/stm32u0xx_hal_pwr_ex.c ****       {
 132              		.loc 1 206 55 is_stmt 1 view .LVU33
 133 0066 1342     		tst	r3, r2
 134 0068 F9D1     		bne	.L20
 135              	.L4:
 210:Drivers/STM32U0xx_HAL_Driver/Src/stm32u0xx_hal_pwr_ex.c ****       {
 136              		.loc 1 210 7 view .LVU34
 210:Drivers/STM32U0xx_HAL_Driver/Src/stm32u0xx_hal_pwr_ex.c ****       {
 137              		.loc 1 210 11 is_stmt 0 view .LVU35
 138 006a 034B     		ldr	r3, .L21
 139 006c 5B69     		ldr	r3, [r3, #20]
 210:Drivers/STM32U0xx_HAL_Driver/Src/stm32u0xx_hal_pwr_ex.c ****       {
 140              		.loc 1 210 10 view .LVU36
 141 006e 5B05     		lsls	r3, r3, #21
 142 0070 D9D5     		bpl	.L8
 212:Drivers/STM32U0xx_HAL_Driver/Src/stm32u0xx_hal_pwr_ex.c ****       }
 143              		.loc 1 212 16 view .LVU37
 144 0072 0320     		movs	r0, #3
 145              	.LVL7:
 212:Drivers/STM32U0xx_HAL_Driver/Src/stm32u0xx_hal_pwr_ex.c ****       }
 146              		.loc 1 212 16 view .LVU38
 147 0074 D8E7     		b	.L6
 148              	.L22:
ARM GAS  C:\Users\upo\AppData\Local\Temp\ccJiDZ9q.s 			page 8


 149 0076 C046     		.align	2
 150              	.L21:
 151 0078 00700040 		.word	1073770496
 152 007c FFF9FFFF 		.word	-1537
 153 0080 40420F00 		.word	1000000
 154 0084 00000000 		.word	SystemCoreClock
 155              		.cfi_endproc
 156              	.LFE334:
 158              		.section	.text.HAL_PWREx_GetVoltageRange,"ax",%progbits
 159              		.align	1
 160              		.p2align 2,,3
 161              		.global	HAL_PWREx_GetVoltageRange
 162              		.syntax unified
 163              		.code	16
 164              		.thumb_func
 166              	HAL_PWREx_GetVoltageRange:
 167              	.LFB335:
 227:Drivers/STM32U0xx_HAL_Driver/Src/stm32u0xx_hal_pwr_ex.c **** 
 228:Drivers/STM32U0xx_HAL_Driver/Src/stm32u0xx_hal_pwr_ex.c **** /**
 229:Drivers/STM32U0xx_HAL_Driver/Src/stm32u0xx_hal_pwr_ex.c ****   * @brief Return Voltage Scaling Range.
 230:Drivers/STM32U0xx_HAL_Driver/Src/stm32u0xx_hal_pwr_ex.c ****   * @retval VOS bit field (PWR_REGULATOR_VOLTAGE_SCALE1 or PWR_REGULATOR_VOLTAGE_SCALE2)
 231:Drivers/STM32U0xx_HAL_Driver/Src/stm32u0xx_hal_pwr_ex.c ****   *
 232:Drivers/STM32U0xx_HAL_Driver/Src/stm32u0xx_hal_pwr_ex.c ****   */
 233:Drivers/STM32U0xx_HAL_Driver/Src/stm32u0xx_hal_pwr_ex.c **** uint32_t HAL_PWREx_GetVoltageRange(void)
 234:Drivers/STM32U0xx_HAL_Driver/Src/stm32u0xx_hal_pwr_ex.c **** {
 168              		.loc 1 234 1 is_stmt 1 view -0
 169              		.cfi_startproc
 170              		@ args = 0, pretend = 0, frame = 0
 171              		@ frame_needed = 0, uses_anonymous_args = 0
 172              		@ link register save eliminated.
 235:Drivers/STM32U0xx_HAL_Driver/Src/stm32u0xx_hal_pwr_ex.c ****   return (PWR->CR1 & PWR_CR1_VOS);
 173              		.loc 1 235 3 view .LVU40
 174              		.loc 1 235 14 is_stmt 0 view .LVU41
 175 0000 024B     		ldr	r3, .L24
 236:Drivers/STM32U0xx_HAL_Driver/Src/stm32u0xx_hal_pwr_ex.c **** }
 176              		.loc 1 236 1 view .LVU42
 177              		@ sp needed
 235:Drivers/STM32U0xx_HAL_Driver/Src/stm32u0xx_hal_pwr_ex.c ****   return (PWR->CR1 & PWR_CR1_VOS);
 178              		.loc 1 235 14 view .LVU43
 179 0002 1868     		ldr	r0, [r3]
 235:Drivers/STM32U0xx_HAL_Driver/Src/stm32u0xx_hal_pwr_ex.c ****   return (PWR->CR1 & PWR_CR1_VOS);
 180              		.loc 1 235 20 view .LVU44
 181 0004 C023     		movs	r3, #192
 182 0006 DB00     		lsls	r3, r3, #3
 183 0008 1840     		ands	r0, r3
 184              		.loc 1 236 1 view .LVU45
 185 000a 7047     		bx	lr
 186              	.L25:
 187              		.align	2
 188              	.L24:
 189 000c 00700040 		.word	1073770496
 190              		.cfi_endproc
 191              	.LFE335:
 193              		.section	.text.HAL_PWREx_EnableLowPowerRunMode,"ax",%progbits
 194              		.align	1
 195              		.p2align 2,,3
 196              		.global	HAL_PWREx_EnableLowPowerRunMode
ARM GAS  C:\Users\upo\AppData\Local\Temp\ccJiDZ9q.s 			page 9


 197              		.syntax unified
 198              		.code	16
 199              		.thumb_func
 201              	HAL_PWREx_EnableLowPowerRunMode:
 202              	.LFB336:
 237:Drivers/STM32U0xx_HAL_Driver/Src/stm32u0xx_hal_pwr_ex.c **** 
 238:Drivers/STM32U0xx_HAL_Driver/Src/stm32u0xx_hal_pwr_ex.c **** /**
 239:Drivers/STM32U0xx_HAL_Driver/Src/stm32u0xx_hal_pwr_ex.c ****   * @}
 240:Drivers/STM32U0xx_HAL_Driver/Src/stm32u0xx_hal_pwr_ex.c ****   */
 241:Drivers/STM32U0xx_HAL_Driver/Src/stm32u0xx_hal_pwr_ex.c **** 
 242:Drivers/STM32U0xx_HAL_Driver/Src/stm32u0xx_hal_pwr_ex.c **** /** @defgroup PWREx_Exported_Functions_Group2 Low Power Control Functions
 243:Drivers/STM32U0xx_HAL_Driver/Src/stm32u0xx_hal_pwr_ex.c ****   * @brief    Low power control functions
 244:Drivers/STM32U0xx_HAL_Driver/Src/stm32u0xx_hal_pwr_ex.c ****   *
 245:Drivers/STM32U0xx_HAL_Driver/Src/stm32u0xx_hal_pwr_ex.c **** @verbatim
 246:Drivers/STM32U0xx_HAL_Driver/Src/stm32u0xx_hal_pwr_ex.c ****  ===============================================================================
 247:Drivers/STM32U0xx_HAL_Driver/Src/stm32u0xx_hal_pwr_ex.c ****                      ##### Low power control functions #####
 248:Drivers/STM32U0xx_HAL_Driver/Src/stm32u0xx_hal_pwr_ex.c ****  ===============================================================================
 249:Drivers/STM32U0xx_HAL_Driver/Src/stm32u0xx_hal_pwr_ex.c ****     [..]
 250:Drivers/STM32U0xx_HAL_Driver/Src/stm32u0xx_hal_pwr_ex.c ****       This section provides functions allowing to control low power modes.
 251:Drivers/STM32U0xx_HAL_Driver/Src/stm32u0xx_hal_pwr_ex.c **** 
 252:Drivers/STM32U0xx_HAL_Driver/Src/stm32u0xx_hal_pwr_ex.c ****     *** Low Power modes configuration ***
 253:Drivers/STM32U0xx_HAL_Driver/Src/stm32u0xx_hal_pwr_ex.c ****     =====================================
 254:Drivers/STM32U0xx_HAL_Driver/Src/stm32u0xx_hal_pwr_ex.c ****     [..]
 255:Drivers/STM32U0xx_HAL_Driver/Src/stm32u0xx_hal_pwr_ex.c ****       This section presents 3 principles low power modes :
 256:Drivers/STM32U0xx_HAL_Driver/Src/stm32u0xx_hal_pwr_ex.c **** 
 257:Drivers/STM32U0xx_HAL_Driver/Src/stm32u0xx_hal_pwr_ex.c ****       (+) Stop 1 mode   : Cortex-M4 is stopped, clocks are stopped and the
 258:Drivers/STM32U0xx_HAL_Driver/Src/stm32u0xx_hal_pwr_ex.c ****                           regulator is in low power mode. Only autonomous
 259:Drivers/STM32U0xx_HAL_Driver/Src/stm32u0xx_hal_pwr_ex.c ****                           peripherals can operate in this mode.
 260:Drivers/STM32U0xx_HAL_Driver/Src/stm32u0xx_hal_pwr_ex.c **** 
 261:Drivers/STM32U0xx_HAL_Driver/Src/stm32u0xx_hal_pwr_ex.c ****       (+) Stop 2 mode   : Cortex-M4 is stopped, clocks are stopped and the
 262:Drivers/STM32U0xx_HAL_Driver/Src/stm32u0xx_hal_pwr_ex.c ****                           regulator is in low power mode. No peripheral can
 263:Drivers/STM32U0xx_HAL_Driver/Src/stm32u0xx_hal_pwr_ex.c ****                           operate in this mode. Only RAMs content is preserved.
 264:Drivers/STM32U0xx_HAL_Driver/Src/stm32u0xx_hal_pwr_ex.c **** 
 265:Drivers/STM32U0xx_HAL_Driver/Src/stm32u0xx_hal_pwr_ex.c ****       (+) Shutdown mode : All PWR domains enter Shutdown mode and the VCORE
 266:Drivers/STM32U0xx_HAL_Driver/Src/stm32u0xx_hal_pwr_ex.c ****                           supply regulator is powered off. The SRAMs and
 267:Drivers/STM32U0xx_HAL_Driver/Src/stm32u0xx_hal_pwr_ex.c ****                           register contents are lost except for registers in the
 268:Drivers/STM32U0xx_HAL_Driver/Src/stm32u0xx_hal_pwr_ex.c ****                           Backup domain.
 269:Drivers/STM32U0xx_HAL_Driver/Src/stm32u0xx_hal_pwr_ex.c **** 
 270:Drivers/STM32U0xx_HAL_Driver/Src/stm32u0xx_hal_pwr_ex.c ****    *** Stop 1 mode ***
 271:Drivers/STM32U0xx_HAL_Driver/Src/stm32u0xx_hal_pwr_ex.c ****    ===================
 272:Drivers/STM32U0xx_HAL_Driver/Src/stm32u0xx_hal_pwr_ex.c ****     [..]
 273:Drivers/STM32U0xx_HAL_Driver/Src/stm32u0xx_hal_pwr_ex.c ****       The Stop 1 mode is based on the Cortex-M4 Deepsleep mode combined with
 274:Drivers/STM32U0xx_HAL_Driver/Src/stm32u0xx_hal_pwr_ex.c ****       peripheral clock gating. In Stop 1 mode, all clocks in the VCORE domain
 275:Drivers/STM32U0xx_HAL_Driver/Src/stm32u0xx_hal_pwr_ex.c ****       are stopped.
 276:Drivers/STM32U0xx_HAL_Driver/Src/stm32u0xx_hal_pwr_ex.c ****       The PLL, MSIS, MSIK, HSI16 and HSE oscillators are disabled.
 277:Drivers/STM32U0xx_HAL_Driver/Src/stm32u0xx_hal_pwr_ex.c ****       Some peripherals with the LPBAM capability can switch on HSI16 or MSIS or
 278:Drivers/STM32U0xx_HAL_Driver/Src/stm32u0xx_hal_pwr_ex.c ****       MSIK for transferring data. All SRAMs and register contents are preserved,
 279:Drivers/STM32U0xx_HAL_Driver/Src/stm32u0xx_hal_pwr_ex.c ****       but the SRAMs can be totally or partially switched off to further reduce
 280:Drivers/STM32U0xx_HAL_Driver/Src/stm32u0xx_hal_pwr_ex.c ****       consumption.
 281:Drivers/STM32U0xx_HAL_Driver/Src/stm32u0xx_hal_pwr_ex.c ****       The BOR is always available in Stop 1 mode.
 282:Drivers/STM32U0xx_HAL_Driver/Src/stm32u0xx_hal_pwr_ex.c **** 
 283:Drivers/STM32U0xx_HAL_Driver/Src/stm32u0xx_hal_pwr_ex.c ****       (+) Entry:
 284:Drivers/STM32U0xx_HAL_Driver/Src/stm32u0xx_hal_pwr_ex.c ****           The Stop 1 mode is entered by using the HAL_PWREx_EnterSTOP1Mode()
 285:Drivers/STM32U0xx_HAL_Driver/Src/stm32u0xx_hal_pwr_ex.c ****           function.
 286:Drivers/STM32U0xx_HAL_Driver/Src/stm32u0xx_hal_pwr_ex.c **** 
 287:Drivers/STM32U0xx_HAL_Driver/Src/stm32u0xx_hal_pwr_ex.c ****           (++) PWR_STOPENTRY_WFI: enter Stop 1 mode with WFI instruction.
 288:Drivers/STM32U0xx_HAL_Driver/Src/stm32u0xx_hal_pwr_ex.c ****           (++) PWR_STOPENTRY_WFE: enter Stop 1 mode with WFE instruction.
ARM GAS  C:\Users\upo\AppData\Local\Temp\ccJiDZ9q.s 			page 10


 289:Drivers/STM32U0xx_HAL_Driver/Src/stm32u0xx_hal_pwr_ex.c **** 
 290:Drivers/STM32U0xx_HAL_Driver/Src/stm32u0xx_hal_pwr_ex.c ****       (+) Exit:
 291:Drivers/STM32U0xx_HAL_Driver/Src/stm32u0xx_hal_pwr_ex.c ****           Any EXTI line configured in interrupt mode (the corresponding EXTI
 292:Drivers/STM32U0xx_HAL_Driver/Src/stm32u0xx_hal_pwr_ex.c ****           interrupt vector must be enabled in the NVIC). The interrupt source
 293:Drivers/STM32U0xx_HAL_Driver/Src/stm32u0xx_hal_pwr_ex.c ****           can be external interrupts or peripherals with wakeup capability.
 294:Drivers/STM32U0xx_HAL_Driver/Src/stm32u0xx_hal_pwr_ex.c ****           Any peripheral interrupt occurring when the AHB/APB clocks are present
 295:Drivers/STM32U0xx_HAL_Driver/Src/stm32u0xx_hal_pwr_ex.c ****           due to an autonomous peripheral clock request (the peripheral vector
 296:Drivers/STM32U0xx_HAL_Driver/Src/stm32u0xx_hal_pwr_ex.c ****           must be enabled in the NVIC)
 297:Drivers/STM32U0xx_HAL_Driver/Src/stm32u0xx_hal_pwr_ex.c ****           Any EXTI line configured in event mode.
 298:Drivers/STM32U0xx_HAL_Driver/Src/stm32u0xx_hal_pwr_ex.c **** 
 299:Drivers/STM32U0xx_HAL_Driver/Src/stm32u0xx_hal_pwr_ex.c ****    *** Stop 2 mode ***
 300:Drivers/STM32U0xx_HAL_Driver/Src/stm32u0xx_hal_pwr_ex.c ****    ===================
 301:Drivers/STM32U0xx_HAL_Driver/Src/stm32u0xx_hal_pwr_ex.c ****     [..]
 302:Drivers/STM32U0xx_HAL_Driver/Src/stm32u0xx_hal_pwr_ex.c ****       The Stop 2 mode is based on the Cortex-M4 Deepsleep mode combined with
 303:Drivers/STM32U0xx_HAL_Driver/Src/stm32u0xx_hal_pwr_ex.c ****       peripheral clock gating. In Stop 2 mode, all clocks in the VCORE domain
 304:Drivers/STM32U0xx_HAL_Driver/Src/stm32u0xx_hal_pwr_ex.c ****       are stopped.
 305:Drivers/STM32U0xx_HAL_Driver/Src/stm32u0xx_hal_pwr_ex.c ****       The PLL, MSIS, MSIK, HSI16 and HSE oscillators are disabled.
 306:Drivers/STM32U0xx_HAL_Driver/Src/stm32u0xx_hal_pwr_ex.c ****       All SRAMs and register contents are preserved, but the SRAMs can be
 307:Drivers/STM32U0xx_HAL_Driver/Src/stm32u0xx_hal_pwr_ex.c ****       totally or partially switched off to further reduce consumption.
 308:Drivers/STM32U0xx_HAL_Driver/Src/stm32u0xx_hal_pwr_ex.c ****       The BOR is always available in Stop 2 mode.
 309:Drivers/STM32U0xx_HAL_Driver/Src/stm32u0xx_hal_pwr_ex.c **** 
 310:Drivers/STM32U0xx_HAL_Driver/Src/stm32u0xx_hal_pwr_ex.c ****       (+) Entry:
 311:Drivers/STM32U0xx_HAL_Driver/Src/stm32u0xx_hal_pwr_ex.c ****           The Stop 2 mode is entered by using the HAL_PWREx_EnterSTOP2Mode()
 312:Drivers/STM32U0xx_HAL_Driver/Src/stm32u0xx_hal_pwr_ex.c ****           function.
 313:Drivers/STM32U0xx_HAL_Driver/Src/stm32u0xx_hal_pwr_ex.c **** 
 314:Drivers/STM32U0xx_HAL_Driver/Src/stm32u0xx_hal_pwr_ex.c ****           (++) PWR_STOPENTRY_WFI: enter Stop 2 mode with WFI instruction.
 315:Drivers/STM32U0xx_HAL_Driver/Src/stm32u0xx_hal_pwr_ex.c ****           (++) PWR_STOPENTRY_WFE: enter Stop 23 mode with WFE instruction.
 316:Drivers/STM32U0xx_HAL_Driver/Src/stm32u0xx_hal_pwr_ex.c **** 
 317:Drivers/STM32U0xx_HAL_Driver/Src/stm32u0xx_hal_pwr_ex.c ****       (+) Exit:
 318:Drivers/STM32U0xx_HAL_Driver/Src/stm32u0xx_hal_pwr_ex.c ****           WKUPx pin edge, RTC or TAMP event, external Reset in NRST pin, IWDG
 319:Drivers/STM32U0xx_HAL_Driver/Src/stm32u0xx_hal_pwr_ex.c ****           Reset, BOR reset.
 320:Drivers/STM32U0xx_HAL_Driver/Src/stm32u0xx_hal_pwr_ex.c **** 
 321:Drivers/STM32U0xx_HAL_Driver/Src/stm32u0xx_hal_pwr_ex.c ****   *** Shutdown mode ***
 322:Drivers/STM32U0xx_HAL_Driver/Src/stm32u0xx_hal_pwr_ex.c ****    ====================
 323:Drivers/STM32U0xx_HAL_Driver/Src/stm32u0xx_hal_pwr_ex.c ****     [..]
 324:Drivers/STM32U0xx_HAL_Driver/Src/stm32u0xx_hal_pwr_ex.c ****       The lowest power consumption is reached in Shutdown mode. It is based on
 325:Drivers/STM32U0xx_HAL_Driver/Src/stm32u0xx_hal_pwr_ex.c ****       the Deepsleep mode with the voltage regulator disabled. The VCORE domain
 326:Drivers/STM32U0xx_HAL_Driver/Src/stm32u0xx_hal_pwr_ex.c ****       is consequently powered off.
 327:Drivers/STM32U0xx_HAL_Driver/Src/stm32u0xx_hal_pwr_ex.c ****       The PLL, HSI16, MSIS, MSIK and HSE oscillators are also switched off.
 328:Drivers/STM32U0xx_HAL_Driver/Src/stm32u0xx_hal_pwr_ex.c ****       The SRAMs and register contents are lost except for registers in the
 329:Drivers/STM32U0xx_HAL_Driver/Src/stm32u0xx_hal_pwr_ex.c ****       Backup domain.
 330:Drivers/STM32U0xx_HAL_Driver/Src/stm32u0xx_hal_pwr_ex.c ****       The BOR is not available in Shutdown mode.
 331:Drivers/STM32U0xx_HAL_Driver/Src/stm32u0xx_hal_pwr_ex.c ****       No power voltage monitoring is possible in this mode, therefore the switch
 332:Drivers/STM32U0xx_HAL_Driver/Src/stm32u0xx_hal_pwr_ex.c ****       to Backup domain is not supported.
 333:Drivers/STM32U0xx_HAL_Driver/Src/stm32u0xx_hal_pwr_ex.c **** 
 334:Drivers/STM32U0xx_HAL_Driver/Src/stm32u0xx_hal_pwr_ex.c ****       (+) Entry:
 335:Drivers/STM32U0xx_HAL_Driver/Src/stm32u0xx_hal_pwr_ex.c ****           The Shutdown mode is entered by using the HAL_PWREx_EnterSHUTDOWNMode()
 336:Drivers/STM32U0xx_HAL_Driver/Src/stm32u0xx_hal_pwr_ex.c ****           function.
 337:Drivers/STM32U0xx_HAL_Driver/Src/stm32u0xx_hal_pwr_ex.c **** 
 338:Drivers/STM32U0xx_HAL_Driver/Src/stm32u0xx_hal_pwr_ex.c ****       (+) Exit:
 339:Drivers/STM32U0xx_HAL_Driver/Src/stm32u0xx_hal_pwr_ex.c ****           WKUPx pin edge, RTC/TAMP event, external Reset in NRST pin.
 340:Drivers/STM32U0xx_HAL_Driver/Src/stm32u0xx_hal_pwr_ex.c **** 
 341:Drivers/STM32U0xx_HAL_Driver/Src/stm32u0xx_hal_pwr_ex.c **** @endverbatim
 342:Drivers/STM32U0xx_HAL_Driver/Src/stm32u0xx_hal_pwr_ex.c ****   * @{
 343:Drivers/STM32U0xx_HAL_Driver/Src/stm32u0xx_hal_pwr_ex.c ****   */
 344:Drivers/STM32U0xx_HAL_Driver/Src/stm32u0xx_hal_pwr_ex.c **** 
 345:Drivers/STM32U0xx_HAL_Driver/Src/stm32u0xx_hal_pwr_ex.c **** /**
ARM GAS  C:\Users\upo\AppData\Local\Temp\ccJiDZ9q.s 			page 11


 346:Drivers/STM32U0xx_HAL_Driver/Src/stm32u0xx_hal_pwr_ex.c ****   * @brief Enter Low-power Run mode
 347:Drivers/STM32U0xx_HAL_Driver/Src/stm32u0xx_hal_pwr_ex.c ****   * @note  In Low-power Run mode, all I/O pins keep the same state as in Run mode.
 348:Drivers/STM32U0xx_HAL_Driver/Src/stm32u0xx_hal_pwr_ex.c ****   * @note  When Regulator is set to PWR_LOWPOWERREGULATOR_ON, the user can optionally configure the
 349:Drivers/STM32U0xx_HAL_Driver/Src/stm32u0xx_hal_pwr_ex.c ****   *        Flash in power-down monde in setting the RUN_PD bit in FLASH_ACR register.
 350:Drivers/STM32U0xx_HAL_Driver/Src/stm32u0xx_hal_pwr_ex.c ****   *        Additionally, the clock frequency must be reduced below 2 MHz.
 351:Drivers/STM32U0xx_HAL_Driver/Src/stm32u0xx_hal_pwr_ex.c ****   *        Setting RUN_PD in FLASH_ACR then appropriately reducing the clock frequency must
 352:Drivers/STM32U0xx_HAL_Driver/Src/stm32u0xx_hal_pwr_ex.c ****   *        be done before calling HAL_PWREx_EnableLowPowerRunMode() API.
 353:Drivers/STM32U0xx_HAL_Driver/Src/stm32u0xx_hal_pwr_ex.c ****   * @retval None
 354:Drivers/STM32U0xx_HAL_Driver/Src/stm32u0xx_hal_pwr_ex.c ****   */
 355:Drivers/STM32U0xx_HAL_Driver/Src/stm32u0xx_hal_pwr_ex.c **** void HAL_PWREx_EnableLowPowerRunMode(void)
 356:Drivers/STM32U0xx_HAL_Driver/Src/stm32u0xx_hal_pwr_ex.c **** {
 203              		.loc 1 356 1 is_stmt 1 view -0
 204              		.cfi_startproc
 205              		@ args = 0, pretend = 0, frame = 0
 206              		@ frame_needed = 0, uses_anonymous_args = 0
 207              		@ link register save eliminated.
 357:Drivers/STM32U0xx_HAL_Driver/Src/stm32u0xx_hal_pwr_ex.c ****   /* Set Regulator parameter */
 358:Drivers/STM32U0xx_HAL_Driver/Src/stm32u0xx_hal_pwr_ex.c ****   SET_BIT(PWR->CR1, PWR_CR1_LPR);
 208              		.loc 1 358 3 view .LVU47
 209 0000 8023     		movs	r3, #128
 359:Drivers/STM32U0xx_HAL_Driver/Src/stm32u0xx_hal_pwr_ex.c **** }
 210              		.loc 1 359 1 is_stmt 0 view .LVU48
 211              		@ sp needed
 358:Drivers/STM32U0xx_HAL_Driver/Src/stm32u0xx_hal_pwr_ex.c **** }
 212              		.loc 1 358 3 view .LVU49
 213 0002 034A     		ldr	r2, .L27
 214 0004 DB01     		lsls	r3, r3, #7
 215 0006 1168     		ldr	r1, [r2]
 216 0008 0B43     		orrs	r3, r1
 217 000a 1360     		str	r3, [r2]
 218              		.loc 1 359 1 view .LVU50
 219 000c 7047     		bx	lr
 220              	.L28:
 221 000e C046     		.align	2
 222              	.L27:
 223 0010 00700040 		.word	1073770496
 224              		.cfi_endproc
 225              	.LFE336:
 227              		.section	.text.HAL_PWREx_DisableLowPowerRunMode,"ax",%progbits
 228              		.align	1
 229              		.p2align 2,,3
 230              		.global	HAL_PWREx_DisableLowPowerRunMode
 231              		.syntax unified
 232              		.code	16
 233              		.thumb_func
 235              	HAL_PWREx_DisableLowPowerRunMode:
 236              	.LFB337:
 360:Drivers/STM32U0xx_HAL_Driver/Src/stm32u0xx_hal_pwr_ex.c **** 
 361:Drivers/STM32U0xx_HAL_Driver/Src/stm32u0xx_hal_pwr_ex.c **** /**
 362:Drivers/STM32U0xx_HAL_Driver/Src/stm32u0xx_hal_pwr_ex.c ****   * @brief Exit Low-power Run mode.
 363:Drivers/STM32U0xx_HAL_Driver/Src/stm32u0xx_hal_pwr_ex.c ****   * @note  Before HAL_PWREx_DisableLowPowerRunMode() completion, the function checks that
 364:Drivers/STM32U0xx_HAL_Driver/Src/stm32u0xx_hal_pwr_ex.c ****   *        REGLPF has been properly reset (otherwise, HAL_PWREx_DisableLowPowerRunMode
 365:Drivers/STM32U0xx_HAL_Driver/Src/stm32u0xx_hal_pwr_ex.c ****   *        returns HAL_TIMEOUT status). The system clock frequency can then be
 366:Drivers/STM32U0xx_HAL_Driver/Src/stm32u0xx_hal_pwr_ex.c ****   *        increased above 2 MHz.
 367:Drivers/STM32U0xx_HAL_Driver/Src/stm32u0xx_hal_pwr_ex.c ****   * @retval HAL Status
 368:Drivers/STM32U0xx_HAL_Driver/Src/stm32u0xx_hal_pwr_ex.c ****   */
 369:Drivers/STM32U0xx_HAL_Driver/Src/stm32u0xx_hal_pwr_ex.c **** HAL_StatusTypeDef HAL_PWREx_DisableLowPowerRunMode(void)
ARM GAS  C:\Users\upo\AppData\Local\Temp\ccJiDZ9q.s 			page 12


 370:Drivers/STM32U0xx_HAL_Driver/Src/stm32u0xx_hal_pwr_ex.c **** {
 237              		.loc 1 370 1 is_stmt 1 view -0
 238              		.cfi_startproc
 239              		@ args = 0, pretend = 0, frame = 0
 240              		@ frame_needed = 0, uses_anonymous_args = 0
 371:Drivers/STM32U0xx_HAL_Driver/Src/stm32u0xx_hal_pwr_ex.c ****   uint32_t wait_loop_index;
 241              		.loc 1 371 3 view .LVU52
 372:Drivers/STM32U0xx_HAL_Driver/Src/stm32u0xx_hal_pwr_ex.c **** 
 373:Drivers/STM32U0xx_HAL_Driver/Src/stm32u0xx_hal_pwr_ex.c ****   /* Clear LPR bit */
 374:Drivers/STM32U0xx_HAL_Driver/Src/stm32u0xx_hal_pwr_ex.c ****   CLEAR_BIT(PWR->CR1, PWR_CR1_LPR);
 242              		.loc 1 374 3 view .LVU53
 370:Drivers/STM32U0xx_HAL_Driver/Src/stm32u0xx_hal_pwr_ex.c ****   uint32_t wait_loop_index;
 243              		.loc 1 370 1 is_stmt 0 view .LVU54
 244 0000 10B5     		push	{r4, lr}
 245              	.LCFI1:
 246              		.cfi_def_cfa_offset 8
 247              		.cfi_offset 4, -8
 248              		.cfi_offset 14, -4
 249              		.loc 1 374 3 view .LVU55
 250 0002 104C     		ldr	r4, .L42
 251 0004 104A     		ldr	r2, .L42+4
 252 0006 2368     		ldr	r3, [r4]
 375:Drivers/STM32U0xx_HAL_Driver/Src/stm32u0xx_hal_pwr_ex.c **** 
 376:Drivers/STM32U0xx_HAL_Driver/Src/stm32u0xx_hal_pwr_ex.c ****   /* Wait until REGLPF is reset */
 377:Drivers/STM32U0xx_HAL_Driver/Src/stm32u0xx_hal_pwr_ex.c ****   wait_loop_index = ((PWR_FLAG_SETTING_DELAY_US * SystemCoreClock) / 1000000U) + 1U;
 253              		.loc 1 377 68 view .LVU56
 254 0008 1049     		ldr	r1, .L42+8
 374:Drivers/STM32U0xx_HAL_Driver/Src/stm32u0xx_hal_pwr_ex.c **** 
 255              		.loc 1 374 3 view .LVU57
 256 000a 1340     		ands	r3, r2
 257 000c 2360     		str	r3, [r4]
 258              		.loc 1 377 3 is_stmt 1 view .LVU58
 259              		.loc 1 377 49 is_stmt 0 view .LVU59
 260 000e 104B     		ldr	r3, .L42+12
 261 0010 1868     		ldr	r0, [r3]
 262 0012 3223     		movs	r3, #50
 263 0014 5843     		muls	r0, r3
 264              		.loc 1 377 68 view .LVU60
 265 0016 FFF7FEFF 		bl	__aeabi_uidiv
 266              	.LVL8:
 378:Drivers/STM32U0xx_HAL_Driver/Src/stm32u0xx_hal_pwr_ex.c ****   while ((HAL_IS_BIT_SET(PWR->SR2, PWR_SR2_REGLPF)) && (wait_loop_index != 0U))
 267              		.loc 1 378 11 view .LVU61
 268 001a 8022     		movs	r2, #128
 269 001c 6369     		ldr	r3, [r4, #20]
 270 001e 9200     		lsls	r2, r2, #2
 377:Drivers/STM32U0xx_HAL_Driver/Src/stm32u0xx_hal_pwr_ex.c ****   while ((HAL_IS_BIT_SET(PWR->SR2, PWR_SR2_REGLPF)) && (wait_loop_index != 0U))
 271              		.loc 1 377 19 view .LVU62
 272 0020 0130     		adds	r0, r0, #1
 273              	.LVL9:
 274              		.loc 1 378 3 is_stmt 1 view .LVU63
 275              		.loc 1 378 53 view .LVU64
 276 0022 1342     		tst	r3, r2
 277 0024 02D1     		bne	.L31
 278 0026 05E0     		b	.L30
 279              	.L41:
 280              		.loc 1 378 53 is_stmt 0 discriminator 1 view .LVU65
 281 0028 0028     		cmp	r0, #0
ARM GAS  C:\Users\upo\AppData\Local\Temp\ccJiDZ9q.s 			page 13


 282 002a 03D0     		beq	.L30
 283              	.L31:
 379:Drivers/STM32U0xx_HAL_Driver/Src/stm32u0xx_hal_pwr_ex.c ****   {
 380:Drivers/STM32U0xx_HAL_Driver/Src/stm32u0xx_hal_pwr_ex.c ****     wait_loop_index--;
 284              		.loc 1 380 5 is_stmt 1 view .LVU66
 378:Drivers/STM32U0xx_HAL_Driver/Src/stm32u0xx_hal_pwr_ex.c ****   {
 285              		.loc 1 378 11 is_stmt 0 view .LVU67
 286 002c 6369     		ldr	r3, [r4, #20]
 287              		.loc 1 380 20 view .LVU68
 288 002e 0138     		subs	r0, r0, #1
 289              	.LVL10:
 378:Drivers/STM32U0xx_HAL_Driver/Src/stm32u0xx_hal_pwr_ex.c ****   {
 290              		.loc 1 378 53 is_stmt 1 view .LVU69
 291 0030 1342     		tst	r3, r2
 292 0032 F9D1     		bne	.L41
 293              	.L30:
 381:Drivers/STM32U0xx_HAL_Driver/Src/stm32u0xx_hal_pwr_ex.c ****   }
 382:Drivers/STM32U0xx_HAL_Driver/Src/stm32u0xx_hal_pwr_ex.c ****   if (HAL_IS_BIT_SET(PWR->SR2, PWR_SR2_REGLPF))
 294              		.loc 1 382 3 view .LVU70
 383:Drivers/STM32U0xx_HAL_Driver/Src/stm32u0xx_hal_pwr_ex.c ****   {
 384:Drivers/STM32U0xx_HAL_Driver/Src/stm32u0xx_hal_pwr_ex.c ****     return HAL_TIMEOUT;
 385:Drivers/STM32U0xx_HAL_Driver/Src/stm32u0xx_hal_pwr_ex.c ****   }
 386:Drivers/STM32U0xx_HAL_Driver/Src/stm32u0xx_hal_pwr_ex.c **** 
 387:Drivers/STM32U0xx_HAL_Driver/Src/stm32u0xx_hal_pwr_ex.c ****   return HAL_OK;
 295              		.loc 1 387 10 is_stmt 0 view .LVU71
 296 0034 0320     		movs	r0, #3
 297              	.LVL11:
 388:Drivers/STM32U0xx_HAL_Driver/Src/stm32u0xx_hal_pwr_ex.c **** }
 298              		.loc 1 388 1 view .LVU72
 299              		@ sp needed
 382:Drivers/STM32U0xx_HAL_Driver/Src/stm32u0xx_hal_pwr_ex.c ****   {
 300              		.loc 1 382 7 view .LVU73
 301 0036 034B     		ldr	r3, .L42
 302 0038 5B69     		ldr	r3, [r3, #20]
 303 003a 9B05     		lsls	r3, r3, #22
 387:Drivers/STM32U0xx_HAL_Driver/Src/stm32u0xx_hal_pwr_ex.c **** }
 304              		.loc 1 387 10 view .LVU74
 305 003c DB17     		asrs	r3, r3, #31
 306 003e 1840     		ands	r0, r3
 307              		.loc 1 388 1 view .LVU75
 308 0040 10BD     		pop	{r4, pc}
 309              	.L43:
 310 0042 C046     		.align	2
 311              	.L42:
 312 0044 00700040 		.word	1073770496
 313 0048 FFBFFFFF 		.word	-16385
 314 004c 40420F00 		.word	1000000
 315 0050 00000000 		.word	SystemCoreClock
 316              		.cfi_endproc
 317              	.LFE337:
 319              		.section	.text.HAL_PWREx_EnterSTOP1Mode,"ax",%progbits
 320              		.align	1
 321              		.p2align 2,,3
 322              		.global	HAL_PWREx_EnterSTOP1Mode
 323              		.syntax unified
 324              		.code	16
 325              		.thumb_func
ARM GAS  C:\Users\upo\AppData\Local\Temp\ccJiDZ9q.s 			page 14


 327              	HAL_PWREx_EnterSTOP1Mode:
 328              	.LVL12:
 329              	.LFB338:
 389:Drivers/STM32U0xx_HAL_Driver/Src/stm32u0xx_hal_pwr_ex.c **** 
 390:Drivers/STM32U0xx_HAL_Driver/Src/stm32u0xx_hal_pwr_ex.c **** /**
 391:Drivers/STM32U0xx_HAL_Driver/Src/stm32u0xx_hal_pwr_ex.c ****   * @brief Enter Stop 1 mode.
 392:Drivers/STM32U0xx_HAL_Driver/Src/stm32u0xx_hal_pwr_ex.c ****   * @note  In Stop 1 mode, only low power voltage regulator is ON.
 393:Drivers/STM32U0xx_HAL_Driver/Src/stm32u0xx_hal_pwr_ex.c ****   * @note  In Stop 1 mode, all I/O pins keep the same state as in Run mode.
 394:Drivers/STM32U0xx_HAL_Driver/Src/stm32u0xx_hal_pwr_ex.c ****   * @note  All clocks in the VCORE domain are stopped; the PLL, the MSI,
 395:Drivers/STM32U0xx_HAL_Driver/Src/stm32u0xx_hal_pwr_ex.c ****   *        the HSI and the HSE oscillators are disabled. Some peripherals with the wakeup capabilit
 396:Drivers/STM32U0xx_HAL_Driver/Src/stm32u0xx_hal_pwr_ex.c ****   *        (I2Cx, USARTx and LPUART) can switch on the HSI to receive a frame, and switch off the H
 397:Drivers/STM32U0xx_HAL_Driver/Src/stm32u0xx_hal_pwr_ex.c ****   *        after receiving the frame if it is not a wakeup frame. In this case, the HSI clock is pr
 398:Drivers/STM32U0xx_HAL_Driver/Src/stm32u0xx_hal_pwr_ex.c ****   *        only to the peripheral requesting it.
 399:Drivers/STM32U0xx_HAL_Driver/Src/stm32u0xx_hal_pwr_ex.c ****   *        SRAM and register contents are preserved.
 400:Drivers/STM32U0xx_HAL_Driver/Src/stm32u0xx_hal_pwr_ex.c ****   *        The BOR is available.
 401:Drivers/STM32U0xx_HAL_Driver/Src/stm32u0xx_hal_pwr_ex.c ****   * @note  When exiting Stop 1 mode by issuing an interrupt or a wakeup event,
 402:Drivers/STM32U0xx_HAL_Driver/Src/stm32u0xx_hal_pwr_ex.c ****   *         the HSI RC oscillator is selected as system clock if STOPWUCK bit in RCC_CFGR register
 403:Drivers/STM32U0xx_HAL_Driver/Src/stm32u0xx_hal_pwr_ex.c ****   *         is set; the MSI oscillator is selected if STOPWUCK is cleared.
 404:Drivers/STM32U0xx_HAL_Driver/Src/stm32u0xx_hal_pwr_ex.c ****   * @note  Due to low power mode, an additional startup delay is incurred when waking up from Stop 
 405:Drivers/STM32U0xx_HAL_Driver/Src/stm32u0xx_hal_pwr_ex.c ****   * @param STOPEntry  specifies if Stop mode in entered with WFI or WFE instruction.
 406:Drivers/STM32U0xx_HAL_Driver/Src/stm32u0xx_hal_pwr_ex.c ****   *          This parameter can be one of the following values:
 407:Drivers/STM32U0xx_HAL_Driver/Src/stm32u0xx_hal_pwr_ex.c ****   *            @arg @ref PWR_STOPENTRY_WFI  Enter Stop mode with WFI instruction
 408:Drivers/STM32U0xx_HAL_Driver/Src/stm32u0xx_hal_pwr_ex.c ****   *            @arg @ref PWR_STOPENTRY_WFE  Enter Stop mode with WFE instruction
 409:Drivers/STM32U0xx_HAL_Driver/Src/stm32u0xx_hal_pwr_ex.c ****   * @retval None
 410:Drivers/STM32U0xx_HAL_Driver/Src/stm32u0xx_hal_pwr_ex.c ****   */
 411:Drivers/STM32U0xx_HAL_Driver/Src/stm32u0xx_hal_pwr_ex.c **** void HAL_PWREx_EnterSTOP1Mode(uint8_t STOPEntry)
 412:Drivers/STM32U0xx_HAL_Driver/Src/stm32u0xx_hal_pwr_ex.c **** {
 330              		.loc 1 412 1 is_stmt 1 view -0
 331              		.cfi_startproc
 332              		@ args = 0, pretend = 0, frame = 0
 333              		@ frame_needed = 0, uses_anonymous_args = 0
 334              		@ link register save eliminated.
 413:Drivers/STM32U0xx_HAL_Driver/Src/stm32u0xx_hal_pwr_ex.c ****   /* Check the parameters */
 414:Drivers/STM32U0xx_HAL_Driver/Src/stm32u0xx_hal_pwr_ex.c ****   assert_param(IS_PWR_STOP_ENTRY(STOPEntry));
 335              		.loc 1 414 3 view .LVU77
 415:Drivers/STM32U0xx_HAL_Driver/Src/stm32u0xx_hal_pwr_ex.c **** 
 416:Drivers/STM32U0xx_HAL_Driver/Src/stm32u0xx_hal_pwr_ex.c ****   /* Stop 1 mode with Low-Power Regulator */
 417:Drivers/STM32U0xx_HAL_Driver/Src/stm32u0xx_hal_pwr_ex.c ****   MODIFY_REG(PWR->CR1, PWR_CR1_LPMS, PWR_CR1_LPMS_0);
 336              		.loc 1 417 3 view .LVU78
 337 0000 0721     		movs	r1, #7
 338 0002 0C4A     		ldr	r2, .L48
 339 0004 1368     		ldr	r3, [r2]
 340 0006 8B43     		bics	r3, r1
 341 0008 0639     		subs	r1, r1, #6
 342 000a 0B43     		orrs	r3, r1
 343 000c 1360     		str	r3, [r2]
 418:Drivers/STM32U0xx_HAL_Driver/Src/stm32u0xx_hal_pwr_ex.c **** 
 419:Drivers/STM32U0xx_HAL_Driver/Src/stm32u0xx_hal_pwr_ex.c ****   /* Set SLEEPDEEP bit of Cortex System Control Register */
 420:Drivers/STM32U0xx_HAL_Driver/Src/stm32u0xx_hal_pwr_ex.c ****   SET_BIT(SCB->SCR, ((uint32_t)SCB_SCR_SLEEPDEEP_Msk));
 344              		.loc 1 420 3 view .LVU79
 345 000e 0A4A     		ldr	r2, .L48+4
 346 0010 0331     		adds	r1, r1, #3
 347 0012 1369     		ldr	r3, [r2, #16]
 348 0014 0B43     		orrs	r3, r1
 349 0016 1361     		str	r3, [r2, #16]
 421:Drivers/STM32U0xx_HAL_Driver/Src/stm32u0xx_hal_pwr_ex.c **** 
 422:Drivers/STM32U0xx_HAL_Driver/Src/stm32u0xx_hal_pwr_ex.c ****   /* Select Stop mode entry --------------------------------------------------*/
ARM GAS  C:\Users\upo\AppData\Local\Temp\ccJiDZ9q.s 			page 15


 423:Drivers/STM32U0xx_HAL_Driver/Src/stm32u0xx_hal_pwr_ex.c ****   if (STOPEntry == PWR_STOPENTRY_WFI)
 350              		.loc 1 423 3 view .LVU80
 351              		.loc 1 423 6 is_stmt 0 view .LVU81
 352 0018 0128     		cmp	r0, #1
 353 001a 08D0     		beq	.L47
 424:Drivers/STM32U0xx_HAL_Driver/Src/stm32u0xx_hal_pwr_ex.c ****   {
 425:Drivers/STM32U0xx_HAL_Driver/Src/stm32u0xx_hal_pwr_ex.c ****     /* Request Wait For Interrupt */
 426:Drivers/STM32U0xx_HAL_Driver/Src/stm32u0xx_hal_pwr_ex.c ****     __WFI();
 427:Drivers/STM32U0xx_HAL_Driver/Src/stm32u0xx_hal_pwr_ex.c ****   }
 428:Drivers/STM32U0xx_HAL_Driver/Src/stm32u0xx_hal_pwr_ex.c ****   else
 429:Drivers/STM32U0xx_HAL_Driver/Src/stm32u0xx_hal_pwr_ex.c ****   {
 430:Drivers/STM32U0xx_HAL_Driver/Src/stm32u0xx_hal_pwr_ex.c ****     /* Request Wait For Event */
 431:Drivers/STM32U0xx_HAL_Driver/Src/stm32u0xx_hal_pwr_ex.c ****     __SEV();
 354              		.loc 1 431 5 is_stmt 1 view .LVU82
 355              		.syntax divided
 356              	@ 431 "Drivers/STM32U0xx_HAL_Driver/Src/stm32u0xx_hal_pwr_ex.c" 1
 357 001c 40BF     		sev
 358              	@ 0 "" 2
 432:Drivers/STM32U0xx_HAL_Driver/Src/stm32u0xx_hal_pwr_ex.c ****     __WFE();
 359              		.loc 1 432 5 view .LVU83
 360              	@ 432 "Drivers/STM32U0xx_HAL_Driver/Src/stm32u0xx_hal_pwr_ex.c" 1
 361 001e 20BF     		wfe
 362              	@ 0 "" 2
 433:Drivers/STM32U0xx_HAL_Driver/Src/stm32u0xx_hal_pwr_ex.c ****     __WFE();
 363              		.loc 1 433 5 view .LVU84
 364              	@ 433 "Drivers/STM32U0xx_HAL_Driver/Src/stm32u0xx_hal_pwr_ex.c" 1
 365 0020 20BF     		wfe
 366              	@ 0 "" 2
 367              		.thumb
 368              		.syntax unified
 369              	.L46:
 434:Drivers/STM32U0xx_HAL_Driver/Src/stm32u0xx_hal_pwr_ex.c ****   }
 435:Drivers/STM32U0xx_HAL_Driver/Src/stm32u0xx_hal_pwr_ex.c **** 
 436:Drivers/STM32U0xx_HAL_Driver/Src/stm32u0xx_hal_pwr_ex.c ****   /* Reset SLEEPDEEP bit of Cortex System Control Register */
 437:Drivers/STM32U0xx_HAL_Driver/Src/stm32u0xx_hal_pwr_ex.c ****   CLEAR_BIT(SCB->SCR, ((uint32_t)SCB_SCR_SLEEPDEEP_Msk));
 370              		.loc 1 437 3 view .LVU85
 438:Drivers/STM32U0xx_HAL_Driver/Src/stm32u0xx_hal_pwr_ex.c **** }
 371              		.loc 1 438 1 is_stmt 0 view .LVU86
 372              		@ sp needed
 437:Drivers/STM32U0xx_HAL_Driver/Src/stm32u0xx_hal_pwr_ex.c **** }
 373              		.loc 1 437 3 view .LVU87
 374 0022 0421     		movs	r1, #4
 375 0024 044A     		ldr	r2, .L48+4
 376 0026 1369     		ldr	r3, [r2, #16]
 377 0028 8B43     		bics	r3, r1
 378 002a 1361     		str	r3, [r2, #16]
 379              		.loc 1 438 1 view .LVU88
 380 002c 7047     		bx	lr
 381              	.L47:
 426:Drivers/STM32U0xx_HAL_Driver/Src/stm32u0xx_hal_pwr_ex.c ****   }
 382              		.loc 1 426 5 is_stmt 1 view .LVU89
 383              		.syntax divided
 384              	@ 426 "Drivers/STM32U0xx_HAL_Driver/Src/stm32u0xx_hal_pwr_ex.c" 1
 385 002e 30BF     		wfi
 386              	@ 0 "" 2
 387              		.thumb
 388              		.syntax unified
ARM GAS  C:\Users\upo\AppData\Local\Temp\ccJiDZ9q.s 			page 16


 389 0030 F7E7     		b	.L46
 390              	.L49:
 391 0032 C046     		.align	2
 392              	.L48:
 393 0034 00700040 		.word	1073770496
 394 0038 00ED00E0 		.word	-536810240
 395              		.cfi_endproc
 396              	.LFE338:
 398              		.section	.text.HAL_PWREx_EnterSTOP2Mode,"ax",%progbits
 399              		.align	1
 400              		.p2align 2,,3
 401              		.global	HAL_PWREx_EnterSTOP2Mode
 402              		.syntax unified
 403              		.code	16
 404              		.thumb_func
 406              	HAL_PWREx_EnterSTOP2Mode:
 407              	.LVL13:
 408              	.LFB339:
 439:Drivers/STM32U0xx_HAL_Driver/Src/stm32u0xx_hal_pwr_ex.c **** 
 440:Drivers/STM32U0xx_HAL_Driver/Src/stm32u0xx_hal_pwr_ex.c **** /**
 441:Drivers/STM32U0xx_HAL_Driver/Src/stm32u0xx_hal_pwr_ex.c ****   * @brief Enter Stop 2 mode.
 442:Drivers/STM32U0xx_HAL_Driver/Src/stm32u0xx_hal_pwr_ex.c ****   * @note  In Stop 2 mode, only low power voltage regulator is ON.
 443:Drivers/STM32U0xx_HAL_Driver/Src/stm32u0xx_hal_pwr_ex.c ****   * @note  In Stop 2 mode, all I/O pins keep the same state as in Run mode.
 444:Drivers/STM32U0xx_HAL_Driver/Src/stm32u0xx_hal_pwr_ex.c ****   * @note  All clocks in the VCORE domain are stopped, the PLL, the MSI,
 445:Drivers/STM32U0xx_HAL_Driver/Src/stm32u0xx_hal_pwr_ex.c ****   *        the HSI and the HSE oscillators are disabled. Some peripherals with wakeup capability
 446:Drivers/STM32U0xx_HAL_Driver/Src/stm32u0xx_hal_pwr_ex.c ****   *        (LCD, LPTIM1, I2C3 and LPUART) can switch on the HSI to receive a frame, and switch off 
 447:Drivers/STM32U0xx_HAL_Driver/Src/stm32u0xx_hal_pwr_ex.c ****   *        receiving the frame if it is not a wakeup frame. In this case the HSI clock is propagate
 448:Drivers/STM32U0xx_HAL_Driver/Src/stm32u0xx_hal_pwr_ex.c ****   *        to the peripheral requesting it.
 449:Drivers/STM32U0xx_HAL_Driver/Src/stm32u0xx_hal_pwr_ex.c ****   *        SRAM and register contents are preserved.
 450:Drivers/STM32U0xx_HAL_Driver/Src/stm32u0xx_hal_pwr_ex.c ****   *        The BOR is available.
 451:Drivers/STM32U0xx_HAL_Driver/Src/stm32u0xx_hal_pwr_ex.c ****   *        The voltage regulator is set in low-power mode but LPR bit must be cleared to enter stop
 452:Drivers/STM32U0xx_HAL_Driver/Src/stm32u0xx_hal_pwr_ex.c ****   *        Otherwise, Stop 1 mode is entered.
 453:Drivers/STM32U0xx_HAL_Driver/Src/stm32u0xx_hal_pwr_ex.c ****   * @note  When exiting Stop 2 mode by issuing an interrupt or a wakeup event,
 454:Drivers/STM32U0xx_HAL_Driver/Src/stm32u0xx_hal_pwr_ex.c ****   *         the HSI RC oscillator is selected as system clock if STOPWUCK bit in RCC_CFGR register
 455:Drivers/STM32U0xx_HAL_Driver/Src/stm32u0xx_hal_pwr_ex.c ****   *         is set; the MSI oscillator is selected if STOPWUCK is cleared.
 456:Drivers/STM32U0xx_HAL_Driver/Src/stm32u0xx_hal_pwr_ex.c ****   * @param STOPEntry  specifies if Stop mode in entered with WFI or WFE instruction.
 457:Drivers/STM32U0xx_HAL_Driver/Src/stm32u0xx_hal_pwr_ex.c ****   *          This parameter can be one of the following values:
 458:Drivers/STM32U0xx_HAL_Driver/Src/stm32u0xx_hal_pwr_ex.c ****   *            @arg @ref PWR_STOPENTRY_WFI  Enter Stop mode with WFI instruction
 459:Drivers/STM32U0xx_HAL_Driver/Src/stm32u0xx_hal_pwr_ex.c ****   *            @arg @ref PWR_STOPENTRY_WFE  Enter Stop mode with WFE instruction
 460:Drivers/STM32U0xx_HAL_Driver/Src/stm32u0xx_hal_pwr_ex.c ****   * @retval None
 461:Drivers/STM32U0xx_HAL_Driver/Src/stm32u0xx_hal_pwr_ex.c ****   */
 462:Drivers/STM32U0xx_HAL_Driver/Src/stm32u0xx_hal_pwr_ex.c **** void HAL_PWREx_EnterSTOP2Mode(uint8_t STOPEntry)
 463:Drivers/STM32U0xx_HAL_Driver/Src/stm32u0xx_hal_pwr_ex.c **** {
 409              		.loc 1 463 1 view -0
 410              		.cfi_startproc
 411              		@ args = 0, pretend = 0, frame = 0
 412              		@ frame_needed = 0, uses_anonymous_args = 0
 413              		@ link register save eliminated.
 464:Drivers/STM32U0xx_HAL_Driver/Src/stm32u0xx_hal_pwr_ex.c ****   /* Check the parameter */
 465:Drivers/STM32U0xx_HAL_Driver/Src/stm32u0xx_hal_pwr_ex.c ****   assert_param(IS_PWR_STOP_ENTRY(STOPEntry));
 414              		.loc 1 465 3 view .LVU91
 466:Drivers/STM32U0xx_HAL_Driver/Src/stm32u0xx_hal_pwr_ex.c ****   /* Clear LPR Bit */
 467:Drivers/STM32U0xx_HAL_Driver/Src/stm32u0xx_hal_pwr_ex.c ****   CLEAR_BIT(PWR->CR1, PWR_CR1_LPR);
 415              		.loc 1 467 3 view .LVU92
 416 0000 0E4A     		ldr	r2, .L54
 417 0002 0F49     		ldr	r1, .L54+4
 418 0004 1368     		ldr	r3, [r2]
ARM GAS  C:\Users\upo\AppData\Local\Temp\ccJiDZ9q.s 			page 17


 419 0006 0B40     		ands	r3, r1
 468:Drivers/STM32U0xx_HAL_Driver/Src/stm32u0xx_hal_pwr_ex.c ****   /* Set Stop mode 2 */
 469:Drivers/STM32U0xx_HAL_Driver/Src/stm32u0xx_hal_pwr_ex.c ****   MODIFY_REG(PWR->CR1, PWR_CR1_LPMS, PWR_CR1_LPMS_1);
 420              		.loc 1 469 3 is_stmt 0 view .LVU93
 421 0008 0721     		movs	r1, #7
 467:Drivers/STM32U0xx_HAL_Driver/Src/stm32u0xx_hal_pwr_ex.c ****   /* Set Stop mode 2 */
 422              		.loc 1 467 3 view .LVU94
 423 000a 1360     		str	r3, [r2]
 424              		.loc 1 469 3 is_stmt 1 view .LVU95
 425 000c 1368     		ldr	r3, [r2]
 426 000e 8B43     		bics	r3, r1
 427 0010 0539     		subs	r1, r1, #5
 428 0012 0B43     		orrs	r3, r1
 429 0014 1360     		str	r3, [r2]
 470:Drivers/STM32U0xx_HAL_Driver/Src/stm32u0xx_hal_pwr_ex.c **** 
 471:Drivers/STM32U0xx_HAL_Driver/Src/stm32u0xx_hal_pwr_ex.c ****   /* Set SLEEPDEEP bit of Cortex System Control Register */
 472:Drivers/STM32U0xx_HAL_Driver/Src/stm32u0xx_hal_pwr_ex.c ****   SET_BIT(SCB->SCR, ((uint32_t)SCB_SCR_SLEEPDEEP_Msk));
 430              		.loc 1 472 3 view .LVU96
 431 0016 0B4A     		ldr	r2, .L54+8
 432 0018 0231     		adds	r1, r1, #2
 433 001a 1369     		ldr	r3, [r2, #16]
 434 001c 0B43     		orrs	r3, r1
 435 001e 1361     		str	r3, [r2, #16]
 473:Drivers/STM32U0xx_HAL_Driver/Src/stm32u0xx_hal_pwr_ex.c **** 
 474:Drivers/STM32U0xx_HAL_Driver/Src/stm32u0xx_hal_pwr_ex.c ****   /* Select Stop mode entry --------------------------------------------------*/
 475:Drivers/STM32U0xx_HAL_Driver/Src/stm32u0xx_hal_pwr_ex.c ****   if (STOPEntry == PWR_STOPENTRY_WFI)
 436              		.loc 1 475 3 view .LVU97
 437              		.loc 1 475 6 is_stmt 0 view .LVU98
 438 0020 0128     		cmp	r0, #1
 439 0022 08D0     		beq	.L53
 476:Drivers/STM32U0xx_HAL_Driver/Src/stm32u0xx_hal_pwr_ex.c ****   {
 477:Drivers/STM32U0xx_HAL_Driver/Src/stm32u0xx_hal_pwr_ex.c ****     /* Request Wait For Interrupt */
 478:Drivers/STM32U0xx_HAL_Driver/Src/stm32u0xx_hal_pwr_ex.c ****     __WFI();
 479:Drivers/STM32U0xx_HAL_Driver/Src/stm32u0xx_hal_pwr_ex.c ****   }
 480:Drivers/STM32U0xx_HAL_Driver/Src/stm32u0xx_hal_pwr_ex.c ****   else
 481:Drivers/STM32U0xx_HAL_Driver/Src/stm32u0xx_hal_pwr_ex.c ****   {
 482:Drivers/STM32U0xx_HAL_Driver/Src/stm32u0xx_hal_pwr_ex.c ****     /* Request Wait For Event */
 483:Drivers/STM32U0xx_HAL_Driver/Src/stm32u0xx_hal_pwr_ex.c ****     __SEV();
 440              		.loc 1 483 5 is_stmt 1 view .LVU99
 441              		.syntax divided
 442              	@ 483 "Drivers/STM32U0xx_HAL_Driver/Src/stm32u0xx_hal_pwr_ex.c" 1
 443 0024 40BF     		sev
 444              	@ 0 "" 2
 484:Drivers/STM32U0xx_HAL_Driver/Src/stm32u0xx_hal_pwr_ex.c ****     __WFE();
 445              		.loc 1 484 5 view .LVU100
 446              	@ 484 "Drivers/STM32U0xx_HAL_Driver/Src/stm32u0xx_hal_pwr_ex.c" 1
 447 0026 20BF     		wfe
 448              	@ 0 "" 2
 485:Drivers/STM32U0xx_HAL_Driver/Src/stm32u0xx_hal_pwr_ex.c ****     __WFE();
 449              		.loc 1 485 5 view .LVU101
 450              	@ 485 "Drivers/STM32U0xx_HAL_Driver/Src/stm32u0xx_hal_pwr_ex.c" 1
 451 0028 20BF     		wfe
 452              	@ 0 "" 2
 453              		.thumb
 454              		.syntax unified
 455              	.L52:
 486:Drivers/STM32U0xx_HAL_Driver/Src/stm32u0xx_hal_pwr_ex.c ****   }
ARM GAS  C:\Users\upo\AppData\Local\Temp\ccJiDZ9q.s 			page 18


 487:Drivers/STM32U0xx_HAL_Driver/Src/stm32u0xx_hal_pwr_ex.c **** 
 488:Drivers/STM32U0xx_HAL_Driver/Src/stm32u0xx_hal_pwr_ex.c ****   /* Reset SLEEPDEEP bit of Cortex System Control Register */
 489:Drivers/STM32U0xx_HAL_Driver/Src/stm32u0xx_hal_pwr_ex.c ****   CLEAR_BIT(SCB->SCR, ((uint32_t)SCB_SCR_SLEEPDEEP_Msk));
 456              		.loc 1 489 3 view .LVU102
 490:Drivers/STM32U0xx_HAL_Driver/Src/stm32u0xx_hal_pwr_ex.c **** }
 457              		.loc 1 490 1 is_stmt 0 view .LVU103
 458              		@ sp needed
 489:Drivers/STM32U0xx_HAL_Driver/Src/stm32u0xx_hal_pwr_ex.c **** }
 459              		.loc 1 489 3 view .LVU104
 460 002a 0421     		movs	r1, #4
 461 002c 054A     		ldr	r2, .L54+8
 462 002e 1369     		ldr	r3, [r2, #16]
 463 0030 8B43     		bics	r3, r1
 464 0032 1361     		str	r3, [r2, #16]
 465              		.loc 1 490 1 view .LVU105
 466 0034 7047     		bx	lr
 467              	.L53:
 478:Drivers/STM32U0xx_HAL_Driver/Src/stm32u0xx_hal_pwr_ex.c ****   }
 468              		.loc 1 478 5 is_stmt 1 view .LVU106
 469              		.syntax divided
 470              	@ 478 "Drivers/STM32U0xx_HAL_Driver/Src/stm32u0xx_hal_pwr_ex.c" 1
 471 0036 30BF     		wfi
 472              	@ 0 "" 2
 473              		.thumb
 474              		.syntax unified
 475 0038 F7E7     		b	.L52
 476              	.L55:
 477 003a C046     		.align	2
 478              	.L54:
 479 003c 00700040 		.word	1073770496
 480 0040 FFBFFFFF 		.word	-16385
 481 0044 00ED00E0 		.word	-536810240
 482              		.cfi_endproc
 483              	.LFE339:
 485              		.section	.text.HAL_PWREx_EnablePVM1,"ax",%progbits
 486              		.align	1
 487              		.p2align 2,,3
 488              		.global	HAL_PWREx_EnablePVM1
 489              		.syntax unified
 490              		.code	16
 491              		.thumb_func
 493              	HAL_PWREx_EnablePVM1:
 494              	.LFB340:
 491:Drivers/STM32U0xx_HAL_Driver/Src/stm32u0xx_hal_pwr_ex.c **** /**
 492:Drivers/STM32U0xx_HAL_Driver/Src/stm32u0xx_hal_pwr_ex.c ****   * @}
 493:Drivers/STM32U0xx_HAL_Driver/Src/stm32u0xx_hal_pwr_ex.c ****   */
 494:Drivers/STM32U0xx_HAL_Driver/Src/stm32u0xx_hal_pwr_ex.c **** 
 495:Drivers/STM32U0xx_HAL_Driver/Src/stm32u0xx_hal_pwr_ex.c **** /** @defgroup PWREx_Exported_Functions_Group3 Voltage Monitoring Functions
 496:Drivers/STM32U0xx_HAL_Driver/Src/stm32u0xx_hal_pwr_ex.c ****   * @brief    Voltage monitoring functions
 497:Drivers/STM32U0xx_HAL_Driver/Src/stm32u0xx_hal_pwr_ex.c ****   *
 498:Drivers/STM32U0xx_HAL_Driver/Src/stm32u0xx_hal_pwr_ex.c **** @verbatim
 499:Drivers/STM32U0xx_HAL_Driver/Src/stm32u0xx_hal_pwr_ex.c ****  ===============================================================================
 500:Drivers/STM32U0xx_HAL_Driver/Src/stm32u0xx_hal_pwr_ex.c ****                      ##### Voltage Monitoring Functions #####
 501:Drivers/STM32U0xx_HAL_Driver/Src/stm32u0xx_hal_pwr_ex.c ****  ===============================================================================
 502:Drivers/STM32U0xx_HAL_Driver/Src/stm32u0xx_hal_pwr_ex.c ****     [..]
 503:Drivers/STM32U0xx_HAL_Driver/Src/stm32u0xx_hal_pwr_ex.c ****       This section provides functions allowing voltage monitoring.
 504:Drivers/STM32U0xx_HAL_Driver/Src/stm32u0xx_hal_pwr_ex.c **** 
ARM GAS  C:\Users\upo\AppData\Local\Temp\ccJiDZ9q.s 			page 19


 505:Drivers/STM32U0xx_HAL_Driver/Src/stm32u0xx_hal_pwr_ex.c ****     *** PVM configuration ***
 506:Drivers/STM32U0xx_HAL_Driver/Src/stm32u0xx_hal_pwr_ex.c ****     =========================
 507:Drivers/STM32U0xx_HAL_Driver/Src/stm32u0xx_hal_pwr_ex.c ****     [..]
 508:Drivers/STM32U0xx_HAL_Driver/Src/stm32u0xx_hal_pwr_ex.c ****       (+) The supplies (VDDADC, VDDDAC and VDDUSB) can be independent from VDD and
 509:Drivers/STM32U0xx_HAL_Driver/Src/stm32u0xx_hal_pwr_ex.c ****           can be monitored with three peripheral voltage monitoring (PVM).
 510:Drivers/STM32U0xx_HAL_Driver/Src/stm32u0xx_hal_pwr_ex.c **** 
 511:Drivers/STM32U0xx_HAL_Driver/Src/stm32u0xx_hal_pwr_ex.c ****       (+) Each PVM output is connected to an EXTI line and can generate an
 512:Drivers/STM32U0xx_HAL_Driver/Src/stm32u0xx_hal_pwr_ex.c ****           interrupt if enabled through the EXTI registers. The PVMx output
 513:Drivers/STM32U0xx_HAL_Driver/Src/stm32u0xx_hal_pwr_ex.c ****           interrupt is generated when the independent power supply drops below
 514:Drivers/STM32U0xx_HAL_Driver/Src/stm32u0xx_hal_pwr_ex.c ****           the PVM threshold and/or when it rises above the PVM threshold,
 515:Drivers/STM32U0xx_HAL_Driver/Src/stm32u0xx_hal_pwr_ex.c ****           depending on EXTI line rising/falling edge configuration.
 516:Drivers/STM32U0xx_HAL_Driver/Src/stm32u0xx_hal_pwr_ex.c **** 
 517:Drivers/STM32U0xx_HAL_Driver/Src/stm32u0xx_hal_pwr_ex.c ****       (+) Each PVM can remain active in Stop 0, Stop 1, Stop 2 modes, and the
 518:Drivers/STM32U0xx_HAL_Driver/Src/stm32u0xx_hal_pwr_ex.c ****           PVM interrupt can wake up from the Stop mode.
 519:Drivers/STM32U0xx_HAL_Driver/Src/stm32u0xx_hal_pwr_ex.c **** 
 520:Drivers/STM32U0xx_HAL_Driver/Src/stm32u0xx_hal_pwr_ex.c ****     *** VBAT charging ***
 521:Drivers/STM32U0xx_HAL_Driver/Src/stm32u0xx_hal_pwr_ex.c ****     =====================
 522:Drivers/STM32U0xx_HAL_Driver/Src/stm32u0xx_hal_pwr_ex.c ****     [..]
 523:Drivers/STM32U0xx_HAL_Driver/Src/stm32u0xx_hal_pwr_ex.c ****       When VDD is present, it is possible to charge the external battery on VBAT
 524:Drivers/STM32U0xx_HAL_Driver/Src/stm32u0xx_hal_pwr_ex.c ****       through an internal resistance.
 525:Drivers/STM32U0xx_HAL_Driver/Src/stm32u0xx_hal_pwr_ex.c ****       The VBAT charging is done either through a 5 kOhm resistor or through a 1.5
 526:Drivers/STM32U0xx_HAL_Driver/Src/stm32u0xx_hal_pwr_ex.c ****       kOhm resistor depending on the VBRS bit value in the PWR_BDCR2 register.
 527:Drivers/STM32U0xx_HAL_Driver/Src/stm32u0xx_hal_pwr_ex.c ****       The battery charging is enabled by setting VBE bit in the PWR_BDCR2
 528:Drivers/STM32U0xx_HAL_Driver/Src/stm32u0xx_hal_pwr_ex.c ****       register. It is automatically disabled in VBAT mode.
 529:Drivers/STM32U0xx_HAL_Driver/Src/stm32u0xx_hal_pwr_ex.c **** 
 530:Drivers/STM32U0xx_HAL_Driver/Src/stm32u0xx_hal_pwr_ex.c ****     *** Backup domain monitoring ***
 531:Drivers/STM32U0xx_HAL_Driver/Src/stm32u0xx_hal_pwr_ex.c ****     ================================
 532:Drivers/STM32U0xx_HAL_Driver/Src/stm32u0xx_hal_pwr_ex.c ****     [..]
 533:Drivers/STM32U0xx_HAL_Driver/Src/stm32u0xx_hal_pwr_ex.c ****       When the Backup domain voltage and temperature monitoring is enabled
 534:Drivers/STM32U0xx_HAL_Driver/Src/stm32u0xx_hal_pwr_ex.c ****       (MONEN = 1 in the PWR_BDCR1 register), the Backup domain voltage and the
 535:Drivers/STM32U0xx_HAL_Driver/Src/stm32u0xx_hal_pwr_ex.c ****       temperature are monitored.
 536:Drivers/STM32U0xx_HAL_Driver/Src/stm32u0xx_hal_pwr_ex.c ****       If the Backup domain voltage monitoring internal tamper is enabled in the
 537:Drivers/STM32U0xx_HAL_Driver/Src/stm32u0xx_hal_pwr_ex.c ****       TAMP peripheral (ITAMP1E = 1 in the TAMP_CR1 register), a tamper event is
 538:Drivers/STM32U0xx_HAL_Driver/Src/stm32u0xx_hal_pwr_ex.c ****       generated when the Backup domain voltage is above the functional range.
 539:Drivers/STM32U0xx_HAL_Driver/Src/stm32u0xx_hal_pwr_ex.c ****       In case the Backup domain voltage is below the functional range,
 540:Drivers/STM32U0xx_HAL_Driver/Src/stm32u0xx_hal_pwr_ex.c ****       a Brownout reset is generated, erasing all device including Backup domain.
 541:Drivers/STM32U0xx_HAL_Driver/Src/stm32u0xx_hal_pwr_ex.c **** 
 542:Drivers/STM32U0xx_HAL_Driver/Src/stm32u0xx_hal_pwr_ex.c ****     *** Backup domain battery ***
 543:Drivers/STM32U0xx_HAL_Driver/Src/stm32u0xx_hal_pwr_ex.c ****     =============================
 544:Drivers/STM32U0xx_HAL_Driver/Src/stm32u0xx_hal_pwr_ex.c ****     [..]
 545:Drivers/STM32U0xx_HAL_Driver/Src/stm32u0xx_hal_pwr_ex.c ****       (+) To retain the content of the backup registers and supply the RTC
 546:Drivers/STM32U0xx_HAL_Driver/Src/stm32u0xx_hal_pwr_ex.c ****           function when VDD is turned off, the VBAT pin can be connected to an
 547:Drivers/STM32U0xx_HAL_Driver/Src/stm32u0xx_hal_pwr_ex.c ****           optional backup voltage supplied by a battery or by another source.
 548:Drivers/STM32U0xx_HAL_Driver/Src/stm32u0xx_hal_pwr_ex.c ****           The VBAT pin powers the RTC unit, the LSE oscillator and the PC13 to
 549:Drivers/STM32U0xx_HAL_Driver/Src/stm32u0xx_hal_pwr_ex.c ****           PC15 I/Os, allowing the RTC to operate even when the main power supply
 550:Drivers/STM32U0xx_HAL_Driver/Src/stm32u0xx_hal_pwr_ex.c ****           is turned off. The backup SRAM is optionally powered by VBAT pin when
 551:Drivers/STM32U0xx_HAL_Driver/Src/stm32u0xx_hal_pwr_ex.c ****           the BREN bit is set in the PWR Backup domain control register 1
 552:Drivers/STM32U0xx_HAL_Driver/Src/stm32u0xx_hal_pwr_ex.c ****           (PWR_BDCR1).
 553:Drivers/STM32U0xx_HAL_Driver/Src/stm32u0xx_hal_pwr_ex.c ****           The switch to the VBAT supply is controlled by the power down reset
 554:Drivers/STM32U0xx_HAL_Driver/Src/stm32u0xx_hal_pwr_ex.c ****           embedded in the Reset block.
 555:Drivers/STM32U0xx_HAL_Driver/Src/stm32u0xx_hal_pwr_ex.c **** 
 556:Drivers/STM32U0xx_HAL_Driver/Src/stm32u0xx_hal_pwr_ex.c **** @endverbatim
 557:Drivers/STM32U0xx_HAL_Driver/Src/stm32u0xx_hal_pwr_ex.c ****   * @{
 558:Drivers/STM32U0xx_HAL_Driver/Src/stm32u0xx_hal_pwr_ex.c ****   */
 559:Drivers/STM32U0xx_HAL_Driver/Src/stm32u0xx_hal_pwr_ex.c **** #if defined(USB_DRD_FS)
 560:Drivers/STM32U0xx_HAL_Driver/Src/stm32u0xx_hal_pwr_ex.c **** /**
 561:Drivers/STM32U0xx_HAL_Driver/Src/stm32u0xx_hal_pwr_ex.c ****   * @brief Enable the Power Voltage Monitoring 1: VDDUSB versus 1.2V.
ARM GAS  C:\Users\upo\AppData\Local\Temp\ccJiDZ9q.s 			page 20


 562:Drivers/STM32U0xx_HAL_Driver/Src/stm32u0xx_hal_pwr_ex.c ****   * @retval None
 563:Drivers/STM32U0xx_HAL_Driver/Src/stm32u0xx_hal_pwr_ex.c ****   */
 564:Drivers/STM32U0xx_HAL_Driver/Src/stm32u0xx_hal_pwr_ex.c **** void HAL_PWREx_EnablePVM1(void)
 565:Drivers/STM32U0xx_HAL_Driver/Src/stm32u0xx_hal_pwr_ex.c **** {
 495              		.loc 1 565 1 view -0
 496              		.cfi_startproc
 497              		@ args = 0, pretend = 0, frame = 0
 498              		@ frame_needed = 0, uses_anonymous_args = 0
 499              		@ link register save eliminated.
 566:Drivers/STM32U0xx_HAL_Driver/Src/stm32u0xx_hal_pwr_ex.c ****   SET_BIT(PWR->CR2, PWR_PVM_1);
 500              		.loc 1 566 3 view .LVU108
 501 0000 1021     		movs	r1, #16
 567:Drivers/STM32U0xx_HAL_Driver/Src/stm32u0xx_hal_pwr_ex.c **** }
 502              		.loc 1 567 1 is_stmt 0 view .LVU109
 503              		@ sp needed
 566:Drivers/STM32U0xx_HAL_Driver/Src/stm32u0xx_hal_pwr_ex.c ****   SET_BIT(PWR->CR2, PWR_PVM_1);
 504              		.loc 1 566 3 view .LVU110
 505 0002 024A     		ldr	r2, .L57
 506 0004 5368     		ldr	r3, [r2, #4]
 507 0006 0B43     		orrs	r3, r1
 508 0008 5360     		str	r3, [r2, #4]
 509              		.loc 1 567 1 view .LVU111
 510 000a 7047     		bx	lr
 511              	.L58:
 512              		.align	2
 513              	.L57:
 514 000c 00700040 		.word	1073770496
 515              		.cfi_endproc
 516              	.LFE340:
 518              		.section	.text.HAL_PWREx_DisablePVM1,"ax",%progbits
 519              		.align	1
 520              		.p2align 2,,3
 521              		.global	HAL_PWREx_DisablePVM1
 522              		.syntax unified
 523              		.code	16
 524              		.thumb_func
 526              	HAL_PWREx_DisablePVM1:
 527              	.LFB341:
 568:Drivers/STM32U0xx_HAL_Driver/Src/stm32u0xx_hal_pwr_ex.c **** 
 569:Drivers/STM32U0xx_HAL_Driver/Src/stm32u0xx_hal_pwr_ex.c **** /**
 570:Drivers/STM32U0xx_HAL_Driver/Src/stm32u0xx_hal_pwr_ex.c ****   * @brief Disable the Power Voltage Monitoring 1: VDDUSB versus 1.2V.
 571:Drivers/STM32U0xx_HAL_Driver/Src/stm32u0xx_hal_pwr_ex.c ****   * @retval None
 572:Drivers/STM32U0xx_HAL_Driver/Src/stm32u0xx_hal_pwr_ex.c ****   */
 573:Drivers/STM32U0xx_HAL_Driver/Src/stm32u0xx_hal_pwr_ex.c **** void HAL_PWREx_DisablePVM1(void)
 574:Drivers/STM32U0xx_HAL_Driver/Src/stm32u0xx_hal_pwr_ex.c **** {
 528              		.loc 1 574 1 is_stmt 1 view -0
 529              		.cfi_startproc
 530              		@ args = 0, pretend = 0, frame = 0
 531              		@ frame_needed = 0, uses_anonymous_args = 0
 532              		@ link register save eliminated.
 575:Drivers/STM32U0xx_HAL_Driver/Src/stm32u0xx_hal_pwr_ex.c ****   CLEAR_BIT(PWR->CR2, PWR_PVM_1);
 533              		.loc 1 575 3 view .LVU113
 534 0000 1021     		movs	r1, #16
 576:Drivers/STM32U0xx_HAL_Driver/Src/stm32u0xx_hal_pwr_ex.c **** }
 535              		.loc 1 576 1 is_stmt 0 view .LVU114
 536              		@ sp needed
 575:Drivers/STM32U0xx_HAL_Driver/Src/stm32u0xx_hal_pwr_ex.c ****   CLEAR_BIT(PWR->CR2, PWR_PVM_1);
ARM GAS  C:\Users\upo\AppData\Local\Temp\ccJiDZ9q.s 			page 21


 537              		.loc 1 575 3 view .LVU115
 538 0002 024A     		ldr	r2, .L60
 539 0004 5368     		ldr	r3, [r2, #4]
 540 0006 8B43     		bics	r3, r1
 541 0008 5360     		str	r3, [r2, #4]
 542              		.loc 1 576 1 view .LVU116
 543 000a 7047     		bx	lr
 544              	.L61:
 545              		.align	2
 546              	.L60:
 547 000c 00700040 		.word	1073770496
 548              		.cfi_endproc
 549              	.LFE341:
 551              		.section	.text.HAL_PWREx_EnablePVM3,"ax",%progbits
 552              		.align	1
 553              		.p2align 2,,3
 554              		.global	HAL_PWREx_EnablePVM3
 555              		.syntax unified
 556              		.code	16
 557              		.thumb_func
 559              	HAL_PWREx_EnablePVM3:
 560              	.LFB342:
 577:Drivers/STM32U0xx_HAL_Driver/Src/stm32u0xx_hal_pwr_ex.c **** #endif /* USB_DRD_FS */
 578:Drivers/STM32U0xx_HAL_Driver/Src/stm32u0xx_hal_pwr_ex.c **** /**
 579:Drivers/STM32U0xx_HAL_Driver/Src/stm32u0xx_hal_pwr_ex.c ****   * @brief Enable the Power Voltage Monitoring 2: VDDA versus 1.62V.
 580:Drivers/STM32U0xx_HAL_Driver/Src/stm32u0xx_hal_pwr_ex.c ****   * @retval None
 581:Drivers/STM32U0xx_HAL_Driver/Src/stm32u0xx_hal_pwr_ex.c ****   */
 582:Drivers/STM32U0xx_HAL_Driver/Src/stm32u0xx_hal_pwr_ex.c **** void HAL_PWREx_EnablePVM3(void)
 583:Drivers/STM32U0xx_HAL_Driver/Src/stm32u0xx_hal_pwr_ex.c **** {
 561              		.loc 1 583 1 is_stmt 1 view -0
 562              		.cfi_startproc
 563              		@ args = 0, pretend = 0, frame = 0
 564              		@ frame_needed = 0, uses_anonymous_args = 0
 565              		@ link register save eliminated.
 584:Drivers/STM32U0xx_HAL_Driver/Src/stm32u0xx_hal_pwr_ex.c ****   SET_BIT(PWR->CR2, PWR_PVM_3);
 566              		.loc 1 584 3 view .LVU118
 567 0000 2021     		movs	r1, #32
 585:Drivers/STM32U0xx_HAL_Driver/Src/stm32u0xx_hal_pwr_ex.c **** }
 568              		.loc 1 585 1 is_stmt 0 view .LVU119
 569              		@ sp needed
 584:Drivers/STM32U0xx_HAL_Driver/Src/stm32u0xx_hal_pwr_ex.c ****   SET_BIT(PWR->CR2, PWR_PVM_3);
 570              		.loc 1 584 3 view .LVU120
 571 0002 024A     		ldr	r2, .L63
 572 0004 5368     		ldr	r3, [r2, #4]
 573 0006 0B43     		orrs	r3, r1
 574 0008 5360     		str	r3, [r2, #4]
 575              		.loc 1 585 1 view .LVU121
 576 000a 7047     		bx	lr
 577              	.L64:
 578              		.align	2
 579              	.L63:
 580 000c 00700040 		.word	1073770496
 581              		.cfi_endproc
 582              	.LFE342:
 584              		.section	.text.HAL_PWREx_DisablePVM3,"ax",%progbits
 585              		.align	1
 586              		.p2align 2,,3
ARM GAS  C:\Users\upo\AppData\Local\Temp\ccJiDZ9q.s 			page 22


 587              		.global	HAL_PWREx_DisablePVM3
 588              		.syntax unified
 589              		.code	16
 590              		.thumb_func
 592              	HAL_PWREx_DisablePVM3:
 593              	.LFB343:
 586:Drivers/STM32U0xx_HAL_Driver/Src/stm32u0xx_hal_pwr_ex.c **** 
 587:Drivers/STM32U0xx_HAL_Driver/Src/stm32u0xx_hal_pwr_ex.c **** /**
 588:Drivers/STM32U0xx_HAL_Driver/Src/stm32u0xx_hal_pwr_ex.c ****   * @brief Disable the Power Voltage Monitoring 2: VDDA versus 1.62V.
 589:Drivers/STM32U0xx_HAL_Driver/Src/stm32u0xx_hal_pwr_ex.c ****   * @retval None
 590:Drivers/STM32U0xx_HAL_Driver/Src/stm32u0xx_hal_pwr_ex.c ****   */
 591:Drivers/STM32U0xx_HAL_Driver/Src/stm32u0xx_hal_pwr_ex.c **** void HAL_PWREx_DisablePVM3(void)
 592:Drivers/STM32U0xx_HAL_Driver/Src/stm32u0xx_hal_pwr_ex.c **** {
 594              		.loc 1 592 1 is_stmt 1 view -0
 595              		.cfi_startproc
 596              		@ args = 0, pretend = 0, frame = 0
 597              		@ frame_needed = 0, uses_anonymous_args = 0
 598              		@ link register save eliminated.
 593:Drivers/STM32U0xx_HAL_Driver/Src/stm32u0xx_hal_pwr_ex.c ****   CLEAR_BIT(PWR->CR2, PWR_PVM_3);
 599              		.loc 1 593 3 view .LVU123
 600 0000 2021     		movs	r1, #32
 594:Drivers/STM32U0xx_HAL_Driver/Src/stm32u0xx_hal_pwr_ex.c **** }
 601              		.loc 1 594 1 is_stmt 0 view .LVU124
 602              		@ sp needed
 593:Drivers/STM32U0xx_HAL_Driver/Src/stm32u0xx_hal_pwr_ex.c ****   CLEAR_BIT(PWR->CR2, PWR_PVM_3);
 603              		.loc 1 593 3 view .LVU125
 604 0002 024A     		ldr	r2, .L66
 605 0004 5368     		ldr	r3, [r2, #4]
 606 0006 8B43     		bics	r3, r1
 607 0008 5360     		str	r3, [r2, #4]
 608              		.loc 1 594 1 view .LVU126
 609 000a 7047     		bx	lr
 610              	.L67:
 611              		.align	2
 612              	.L66:
 613 000c 00700040 		.word	1073770496
 614              		.cfi_endproc
 615              	.LFE343:
 617              		.section	.text.HAL_PWREx_EnablePVM4,"ax",%progbits
 618              		.align	1
 619              		.p2align 2,,3
 620              		.global	HAL_PWREx_EnablePVM4
 621              		.syntax unified
 622              		.code	16
 623              		.thumb_func
 625              	HAL_PWREx_EnablePVM4:
 626              	.LFB344:
 595:Drivers/STM32U0xx_HAL_Driver/Src/stm32u0xx_hal_pwr_ex.c **** 
 596:Drivers/STM32U0xx_HAL_Driver/Src/stm32u0xx_hal_pwr_ex.c **** /**
 597:Drivers/STM32U0xx_HAL_Driver/Src/stm32u0xx_hal_pwr_ex.c ****   * @brief Enable the Power Voltage Monitoring 3:  VDDA versus 2.2V.
 598:Drivers/STM32U0xx_HAL_Driver/Src/stm32u0xx_hal_pwr_ex.c ****   * @retval None
 599:Drivers/STM32U0xx_HAL_Driver/Src/stm32u0xx_hal_pwr_ex.c ****   */
 600:Drivers/STM32U0xx_HAL_Driver/Src/stm32u0xx_hal_pwr_ex.c **** void HAL_PWREx_EnablePVM4(void)
 601:Drivers/STM32U0xx_HAL_Driver/Src/stm32u0xx_hal_pwr_ex.c **** {
 627              		.loc 1 601 1 is_stmt 1 view -0
 628              		.cfi_startproc
 629              		@ args = 0, pretend = 0, frame = 0
ARM GAS  C:\Users\upo\AppData\Local\Temp\ccJiDZ9q.s 			page 23


 630              		@ frame_needed = 0, uses_anonymous_args = 0
 631              		@ link register save eliminated.
 602:Drivers/STM32U0xx_HAL_Driver/Src/stm32u0xx_hal_pwr_ex.c ****   SET_BIT(PWR->CR2, PWR_PVM_4);
 632              		.loc 1 602 3 view .LVU128
 633 0000 4021     		movs	r1, #64
 603:Drivers/STM32U0xx_HAL_Driver/Src/stm32u0xx_hal_pwr_ex.c **** }
 634              		.loc 1 603 1 is_stmt 0 view .LVU129
 635              		@ sp needed
 602:Drivers/STM32U0xx_HAL_Driver/Src/stm32u0xx_hal_pwr_ex.c ****   SET_BIT(PWR->CR2, PWR_PVM_4);
 636              		.loc 1 602 3 view .LVU130
 637 0002 024A     		ldr	r2, .L69
 638 0004 5368     		ldr	r3, [r2, #4]
 639 0006 0B43     		orrs	r3, r1
 640 0008 5360     		str	r3, [r2, #4]
 641              		.loc 1 603 1 view .LVU131
 642 000a 7047     		bx	lr
 643              	.L70:
 644              		.align	2
 645              	.L69:
 646 000c 00700040 		.word	1073770496
 647              		.cfi_endproc
 648              	.LFE344:
 650              		.section	.text.HAL_PWREx_DisablePVM4,"ax",%progbits
 651              		.align	1
 652              		.p2align 2,,3
 653              		.global	HAL_PWREx_DisablePVM4
 654              		.syntax unified
 655              		.code	16
 656              		.thumb_func
 658              	HAL_PWREx_DisablePVM4:
 659              	.LFB345:
 604:Drivers/STM32U0xx_HAL_Driver/Src/stm32u0xx_hal_pwr_ex.c **** 
 605:Drivers/STM32U0xx_HAL_Driver/Src/stm32u0xx_hal_pwr_ex.c **** /**
 606:Drivers/STM32U0xx_HAL_Driver/Src/stm32u0xx_hal_pwr_ex.c ****   * @brief Disable the Power Voltage Monitoring 3:  VDDA versus 2.2V.
 607:Drivers/STM32U0xx_HAL_Driver/Src/stm32u0xx_hal_pwr_ex.c ****   * @retval None
 608:Drivers/STM32U0xx_HAL_Driver/Src/stm32u0xx_hal_pwr_ex.c ****   */
 609:Drivers/STM32U0xx_HAL_Driver/Src/stm32u0xx_hal_pwr_ex.c **** void HAL_PWREx_DisablePVM4(void)
 610:Drivers/STM32U0xx_HAL_Driver/Src/stm32u0xx_hal_pwr_ex.c **** {
 660              		.loc 1 610 1 is_stmt 1 view -0
 661              		.cfi_startproc
 662              		@ args = 0, pretend = 0, frame = 0
 663              		@ frame_needed = 0, uses_anonymous_args = 0
 664              		@ link register save eliminated.
 611:Drivers/STM32U0xx_HAL_Driver/Src/stm32u0xx_hal_pwr_ex.c ****   CLEAR_BIT(PWR->CR2, PWR_PVM_4);
 665              		.loc 1 611 3 view .LVU133
 666 0000 4021     		movs	r1, #64
 612:Drivers/STM32U0xx_HAL_Driver/Src/stm32u0xx_hal_pwr_ex.c **** }
 667              		.loc 1 612 1 is_stmt 0 view .LVU134
 668              		@ sp needed
 611:Drivers/STM32U0xx_HAL_Driver/Src/stm32u0xx_hal_pwr_ex.c ****   CLEAR_BIT(PWR->CR2, PWR_PVM_4);
 669              		.loc 1 611 3 view .LVU135
 670 0002 024A     		ldr	r2, .L72
 671 0004 5368     		ldr	r3, [r2, #4]
 672 0006 8B43     		bics	r3, r1
 673 0008 5360     		str	r3, [r2, #4]
 674              		.loc 1 612 1 view .LVU136
 675 000a 7047     		bx	lr
ARM GAS  C:\Users\upo\AppData\Local\Temp\ccJiDZ9q.s 			page 24


 676              	.L73:
 677              		.align	2
 678              	.L72:
 679 000c 00700040 		.word	1073770496
 680              		.cfi_endproc
 681              	.LFE345:
 683              		.section	.text.HAL_PWREx_ConfigPVM,"ax",%progbits
 684              		.align	1
 685              		.p2align 2,,3
 686              		.global	HAL_PWREx_ConfigPVM
 687              		.syntax unified
 688              		.code	16
 689              		.thumb_func
 691              	HAL_PWREx_ConfigPVM:
 692              	.LVL14:
 693              	.LFB346:
 613:Drivers/STM32U0xx_HAL_Driver/Src/stm32u0xx_hal_pwr_ex.c **** 
 614:Drivers/STM32U0xx_HAL_Driver/Src/stm32u0xx_hal_pwr_ex.c **** /**
 615:Drivers/STM32U0xx_HAL_Driver/Src/stm32u0xx_hal_pwr_ex.c ****   * @brief Configure the Peripheral Voltage Monitoring (PVM).
 616:Drivers/STM32U0xx_HAL_Driver/Src/stm32u0xx_hal_pwr_ex.c ****   * @param sConfigPVM: pointer to a PWR_PVMTypeDef structure that contains the
 617:Drivers/STM32U0xx_HAL_Driver/Src/stm32u0xx_hal_pwr_ex.c ****   *        PVM configuration information.
 618:Drivers/STM32U0xx_HAL_Driver/Src/stm32u0xx_hal_pwr_ex.c ****   * @note The API configures a single PVM according to the information contained
 619:Drivers/STM32U0xx_HAL_Driver/Src/stm32u0xx_hal_pwr_ex.c ****   *       in the input structure. To configure several PVMs, the API must be singly
 620:Drivers/STM32U0xx_HAL_Driver/Src/stm32u0xx_hal_pwr_ex.c ****   *       called for each PVM used.
 621:Drivers/STM32U0xx_HAL_Driver/Src/stm32u0xx_hal_pwr_ex.c ****   * @note Refer to the electrical characteristics of your device datasheet for
 622:Drivers/STM32U0xx_HAL_Driver/Src/stm32u0xx_hal_pwr_ex.c ****   *         more details about the voltage thresholds corresponding to each
 623:Drivers/STM32U0xx_HAL_Driver/Src/stm32u0xx_hal_pwr_ex.c ****   *         detection level and to each monitored supply.
 624:Drivers/STM32U0xx_HAL_Driver/Src/stm32u0xx_hal_pwr_ex.c ****   * @retval HAL status
 625:Drivers/STM32U0xx_HAL_Driver/Src/stm32u0xx_hal_pwr_ex.c ****   */
 626:Drivers/STM32U0xx_HAL_Driver/Src/stm32u0xx_hal_pwr_ex.c **** HAL_StatusTypeDef HAL_PWREx_ConfigPVM(const PWR_PVMTypeDef *sConfigPVM)
 627:Drivers/STM32U0xx_HAL_Driver/Src/stm32u0xx_hal_pwr_ex.c **** {
 694              		.loc 1 627 1 is_stmt 1 view -0
 695              		.cfi_startproc
 696              		@ args = 0, pretend = 0, frame = 0
 697              		@ frame_needed = 0, uses_anonymous_args = 0
 628:Drivers/STM32U0xx_HAL_Driver/Src/stm32u0xx_hal_pwr_ex.c ****   HAL_StatusTypeDef status = HAL_OK;
 698              		.loc 1 628 3 view .LVU138
 629:Drivers/STM32U0xx_HAL_Driver/Src/stm32u0xx_hal_pwr_ex.c **** 
 630:Drivers/STM32U0xx_HAL_Driver/Src/stm32u0xx_hal_pwr_ex.c ****   /* Check the parameters */
 631:Drivers/STM32U0xx_HAL_Driver/Src/stm32u0xx_hal_pwr_ex.c ****   assert_param(IS_PWR_PVM_TYPE(sConfigPVM->PVMType));
 699              		.loc 1 631 3 view .LVU139
 632:Drivers/STM32U0xx_HAL_Driver/Src/stm32u0xx_hal_pwr_ex.c ****   assert_param(IS_PWR_PVM_MODE(sConfigPVM->Mode));
 700              		.loc 1 632 3 view .LVU140
 633:Drivers/STM32U0xx_HAL_Driver/Src/stm32u0xx_hal_pwr_ex.c **** 
 634:Drivers/STM32U0xx_HAL_Driver/Src/stm32u0xx_hal_pwr_ex.c ****   /* Configure EXTI 35 to 38 interrupts if so required:
 635:Drivers/STM32U0xx_HAL_Driver/Src/stm32u0xx_hal_pwr_ex.c ****      scan through PVMType to detect which PVMx is set and
 636:Drivers/STM32U0xx_HAL_Driver/Src/stm32u0xx_hal_pwr_ex.c ****      configure the corresponding EXTI line accordingly. */
 637:Drivers/STM32U0xx_HAL_Driver/Src/stm32u0xx_hal_pwr_ex.c ****   switch (sConfigPVM->PVMType)
 701              		.loc 1 637 3 view .LVU141
 702              		.loc 1 637 21 is_stmt 0 view .LVU142
 703 0000 0268     		ldr	r2, [r0]
 627:Drivers/STM32U0xx_HAL_Driver/Src/stm32u0xx_hal_pwr_ex.c ****   HAL_StatusTypeDef status = HAL_OK;
 704              		.loc 1 627 1 view .LVU143
 705 0002 0300     		movs	r3, r0
 706 0004 10B5     		push	{r4, lr}
 707              	.LCFI2:
 708              		.cfi_def_cfa_offset 8
ARM GAS  C:\Users\upo\AppData\Local\Temp\ccJiDZ9q.s 			page 25


 709              		.cfi_offset 4, -8
 710              		.cfi_offset 14, -4
 711              		.loc 1 637 3 view .LVU144
 712 0006 202A     		cmp	r2, #32
 713 0008 05D0     		beq	.L75
 714 000a 402A     		cmp	r2, #64
 715 000c 69D0     		beq	.L76
 716 000e 0120     		movs	r0, #1
 717              	.LVL15:
 718              		.loc 1 637 3 view .LVU145
 719 0010 102A     		cmp	r2, #16
 720 0012 33D0     		beq	.L136
 721              	.LVL16:
 722              	.L77:
 638:Drivers/STM32U0xx_HAL_Driver/Src/stm32u0xx_hal_pwr_ex.c ****   {
 639:Drivers/STM32U0xx_HAL_Driver/Src/stm32u0xx_hal_pwr_ex.c **** #if defined(USB_DRD_FS)
 640:Drivers/STM32U0xx_HAL_Driver/Src/stm32u0xx_hal_pwr_ex.c ****     case PWR_PVM_1:
 641:Drivers/STM32U0xx_HAL_Driver/Src/stm32u0xx_hal_pwr_ex.c ****       /* Clear any previous config. Keep it clear if no event or IT mode is selected */
 642:Drivers/STM32U0xx_HAL_Driver/Src/stm32u0xx_hal_pwr_ex.c ****       __HAL_PWR_PVM1_EXTI_DISABLE_EVENT();
 643:Drivers/STM32U0xx_HAL_Driver/Src/stm32u0xx_hal_pwr_ex.c ****       __HAL_PWR_PVM1_EXTI_DISABLE_IT();
 644:Drivers/STM32U0xx_HAL_Driver/Src/stm32u0xx_hal_pwr_ex.c ****       __HAL_PWR_PVM1_EXTI_DISABLE_FALLING_EDGE();
 645:Drivers/STM32U0xx_HAL_Driver/Src/stm32u0xx_hal_pwr_ex.c ****       __HAL_PWR_PVM1_EXTI_DISABLE_RISING_EDGE();
 646:Drivers/STM32U0xx_HAL_Driver/Src/stm32u0xx_hal_pwr_ex.c **** 
 647:Drivers/STM32U0xx_HAL_Driver/Src/stm32u0xx_hal_pwr_ex.c ****       /* Configure interrupt mode */
 648:Drivers/STM32U0xx_HAL_Driver/Src/stm32u0xx_hal_pwr_ex.c ****       if ((sConfigPVM->Mode & PVM_MODE_IT) == PVM_MODE_IT)
 649:Drivers/STM32U0xx_HAL_Driver/Src/stm32u0xx_hal_pwr_ex.c ****       {
 650:Drivers/STM32U0xx_HAL_Driver/Src/stm32u0xx_hal_pwr_ex.c ****         __HAL_PWR_PVM1_EXTI_ENABLE_IT();
 651:Drivers/STM32U0xx_HAL_Driver/Src/stm32u0xx_hal_pwr_ex.c ****       }
 652:Drivers/STM32U0xx_HAL_Driver/Src/stm32u0xx_hal_pwr_ex.c **** 
 653:Drivers/STM32U0xx_HAL_Driver/Src/stm32u0xx_hal_pwr_ex.c ****       /* Configure event mode */
 654:Drivers/STM32U0xx_HAL_Driver/Src/stm32u0xx_hal_pwr_ex.c ****       if ((sConfigPVM->Mode & PVM_MODE_EVT) == PVM_MODE_EVT)
 655:Drivers/STM32U0xx_HAL_Driver/Src/stm32u0xx_hal_pwr_ex.c ****       {
 656:Drivers/STM32U0xx_HAL_Driver/Src/stm32u0xx_hal_pwr_ex.c ****         __HAL_PWR_PVM1_EXTI_ENABLE_EVENT();
 657:Drivers/STM32U0xx_HAL_Driver/Src/stm32u0xx_hal_pwr_ex.c ****       }
 658:Drivers/STM32U0xx_HAL_Driver/Src/stm32u0xx_hal_pwr_ex.c **** 
 659:Drivers/STM32U0xx_HAL_Driver/Src/stm32u0xx_hal_pwr_ex.c ****       /* Configure the edge */
 660:Drivers/STM32U0xx_HAL_Driver/Src/stm32u0xx_hal_pwr_ex.c ****       if ((sConfigPVM->Mode & PVM_RISING_EDGE) == PVM_RISING_EDGE)
 661:Drivers/STM32U0xx_HAL_Driver/Src/stm32u0xx_hal_pwr_ex.c ****       {
 662:Drivers/STM32U0xx_HAL_Driver/Src/stm32u0xx_hal_pwr_ex.c ****         __HAL_PWR_PVM1_EXTI_ENABLE_RISING_EDGE();
 663:Drivers/STM32U0xx_HAL_Driver/Src/stm32u0xx_hal_pwr_ex.c ****       }
 664:Drivers/STM32U0xx_HAL_Driver/Src/stm32u0xx_hal_pwr_ex.c **** 
 665:Drivers/STM32U0xx_HAL_Driver/Src/stm32u0xx_hal_pwr_ex.c ****       if ((sConfigPVM->Mode & PVM_FALLING_EDGE) == PVM_FALLING_EDGE)
 666:Drivers/STM32U0xx_HAL_Driver/Src/stm32u0xx_hal_pwr_ex.c ****       {
 667:Drivers/STM32U0xx_HAL_Driver/Src/stm32u0xx_hal_pwr_ex.c ****         __HAL_PWR_PVM1_EXTI_ENABLE_FALLING_EDGE();
 668:Drivers/STM32U0xx_HAL_Driver/Src/stm32u0xx_hal_pwr_ex.c ****       }
 669:Drivers/STM32U0xx_HAL_Driver/Src/stm32u0xx_hal_pwr_ex.c ****       break;
 670:Drivers/STM32U0xx_HAL_Driver/Src/stm32u0xx_hal_pwr_ex.c **** #endif /* USB_DRD_FS */
 671:Drivers/STM32U0xx_HAL_Driver/Src/stm32u0xx_hal_pwr_ex.c ****     case PWR_PVM_3:
 672:Drivers/STM32U0xx_HAL_Driver/Src/stm32u0xx_hal_pwr_ex.c ****       /* Clear any previous config. Keep it clear if no event or IT mode is selected */
 673:Drivers/STM32U0xx_HAL_Driver/Src/stm32u0xx_hal_pwr_ex.c ****       __HAL_PWR_PVM3_EXTI_DISABLE_EVENT();
 674:Drivers/STM32U0xx_HAL_Driver/Src/stm32u0xx_hal_pwr_ex.c ****       __HAL_PWR_PVM3_EXTI_DISABLE_IT();
 675:Drivers/STM32U0xx_HAL_Driver/Src/stm32u0xx_hal_pwr_ex.c ****       __HAL_PWR_PVM3_EXTI_DISABLE_FALLING_EDGE();
 676:Drivers/STM32U0xx_HAL_Driver/Src/stm32u0xx_hal_pwr_ex.c ****       __HAL_PWR_PVM3_EXTI_DISABLE_RISING_EDGE();
 677:Drivers/STM32U0xx_HAL_Driver/Src/stm32u0xx_hal_pwr_ex.c **** 
 678:Drivers/STM32U0xx_HAL_Driver/Src/stm32u0xx_hal_pwr_ex.c ****       /* Configure interrupt mode */
 679:Drivers/STM32U0xx_HAL_Driver/Src/stm32u0xx_hal_pwr_ex.c ****       if ((sConfigPVM->Mode & PVM_MODE_IT) == PVM_MODE_IT)
 680:Drivers/STM32U0xx_HAL_Driver/Src/stm32u0xx_hal_pwr_ex.c ****       {
ARM GAS  C:\Users\upo\AppData\Local\Temp\ccJiDZ9q.s 			page 26


 681:Drivers/STM32U0xx_HAL_Driver/Src/stm32u0xx_hal_pwr_ex.c ****         __HAL_PWR_PVM3_EXTI_ENABLE_IT();
 682:Drivers/STM32U0xx_HAL_Driver/Src/stm32u0xx_hal_pwr_ex.c ****       }
 683:Drivers/STM32U0xx_HAL_Driver/Src/stm32u0xx_hal_pwr_ex.c **** 
 684:Drivers/STM32U0xx_HAL_Driver/Src/stm32u0xx_hal_pwr_ex.c ****       /* Configure event mode */
 685:Drivers/STM32U0xx_HAL_Driver/Src/stm32u0xx_hal_pwr_ex.c ****       if ((sConfigPVM->Mode & PVM_MODE_EVT) == PVM_MODE_EVT)
 686:Drivers/STM32U0xx_HAL_Driver/Src/stm32u0xx_hal_pwr_ex.c ****       {
 687:Drivers/STM32U0xx_HAL_Driver/Src/stm32u0xx_hal_pwr_ex.c ****         __HAL_PWR_PVM3_EXTI_ENABLE_EVENT();
 688:Drivers/STM32U0xx_HAL_Driver/Src/stm32u0xx_hal_pwr_ex.c ****       }
 689:Drivers/STM32U0xx_HAL_Driver/Src/stm32u0xx_hal_pwr_ex.c **** 
 690:Drivers/STM32U0xx_HAL_Driver/Src/stm32u0xx_hal_pwr_ex.c ****       /* Configure the edge */
 691:Drivers/STM32U0xx_HAL_Driver/Src/stm32u0xx_hal_pwr_ex.c ****       if ((sConfigPVM->Mode & PVM_RISING_EDGE) == PVM_RISING_EDGE)
 692:Drivers/STM32U0xx_HAL_Driver/Src/stm32u0xx_hal_pwr_ex.c ****       {
 693:Drivers/STM32U0xx_HAL_Driver/Src/stm32u0xx_hal_pwr_ex.c ****         __HAL_PWR_PVM3_EXTI_ENABLE_RISING_EDGE();
 694:Drivers/STM32U0xx_HAL_Driver/Src/stm32u0xx_hal_pwr_ex.c ****       }
 695:Drivers/STM32U0xx_HAL_Driver/Src/stm32u0xx_hal_pwr_ex.c **** 
 696:Drivers/STM32U0xx_HAL_Driver/Src/stm32u0xx_hal_pwr_ex.c ****       if ((sConfigPVM->Mode & PVM_FALLING_EDGE) == PVM_FALLING_EDGE)
 697:Drivers/STM32U0xx_HAL_Driver/Src/stm32u0xx_hal_pwr_ex.c ****       {
 698:Drivers/STM32U0xx_HAL_Driver/Src/stm32u0xx_hal_pwr_ex.c ****         __HAL_PWR_PVM3_EXTI_ENABLE_FALLING_EDGE();
 699:Drivers/STM32U0xx_HAL_Driver/Src/stm32u0xx_hal_pwr_ex.c ****       }
 700:Drivers/STM32U0xx_HAL_Driver/Src/stm32u0xx_hal_pwr_ex.c ****       break;
 701:Drivers/STM32U0xx_HAL_Driver/Src/stm32u0xx_hal_pwr_ex.c ****     case PWR_PVM_4:
 702:Drivers/STM32U0xx_HAL_Driver/Src/stm32u0xx_hal_pwr_ex.c ****       /* Clear any previous config. Keep it clear if no event or IT mode is selected */
 703:Drivers/STM32U0xx_HAL_Driver/Src/stm32u0xx_hal_pwr_ex.c ****       __HAL_PWR_PVM4_EXTI_DISABLE_EVENT();
 704:Drivers/STM32U0xx_HAL_Driver/Src/stm32u0xx_hal_pwr_ex.c ****       __HAL_PWR_PVM4_EXTI_DISABLE_IT();
 705:Drivers/STM32U0xx_HAL_Driver/Src/stm32u0xx_hal_pwr_ex.c ****       __HAL_PWR_PVM4_EXTI_DISABLE_FALLING_EDGE();
 706:Drivers/STM32U0xx_HAL_Driver/Src/stm32u0xx_hal_pwr_ex.c ****       __HAL_PWR_PVM4_EXTI_DISABLE_RISING_EDGE();
 707:Drivers/STM32U0xx_HAL_Driver/Src/stm32u0xx_hal_pwr_ex.c **** 
 708:Drivers/STM32U0xx_HAL_Driver/Src/stm32u0xx_hal_pwr_ex.c ****       /* Configure interrupt mode */
 709:Drivers/STM32U0xx_HAL_Driver/Src/stm32u0xx_hal_pwr_ex.c ****       if ((sConfigPVM->Mode & PVM_MODE_IT) == PVM_MODE_IT)
 710:Drivers/STM32U0xx_HAL_Driver/Src/stm32u0xx_hal_pwr_ex.c ****       {
 711:Drivers/STM32U0xx_HAL_Driver/Src/stm32u0xx_hal_pwr_ex.c ****         __HAL_PWR_PVM4_EXTI_ENABLE_IT();
 712:Drivers/STM32U0xx_HAL_Driver/Src/stm32u0xx_hal_pwr_ex.c ****       }
 713:Drivers/STM32U0xx_HAL_Driver/Src/stm32u0xx_hal_pwr_ex.c **** 
 714:Drivers/STM32U0xx_HAL_Driver/Src/stm32u0xx_hal_pwr_ex.c ****       /* Configure event mode */
 715:Drivers/STM32U0xx_HAL_Driver/Src/stm32u0xx_hal_pwr_ex.c ****       if ((sConfigPVM->Mode & PVM_MODE_EVT) == PVM_MODE_EVT)
 716:Drivers/STM32U0xx_HAL_Driver/Src/stm32u0xx_hal_pwr_ex.c ****       {
 717:Drivers/STM32U0xx_HAL_Driver/Src/stm32u0xx_hal_pwr_ex.c ****         __HAL_PWR_PVM4_EXTI_ENABLE_EVENT();
 718:Drivers/STM32U0xx_HAL_Driver/Src/stm32u0xx_hal_pwr_ex.c ****       }
 719:Drivers/STM32U0xx_HAL_Driver/Src/stm32u0xx_hal_pwr_ex.c **** 
 720:Drivers/STM32U0xx_HAL_Driver/Src/stm32u0xx_hal_pwr_ex.c ****       /* Configure the edge */
 721:Drivers/STM32U0xx_HAL_Driver/Src/stm32u0xx_hal_pwr_ex.c ****       if ((sConfigPVM->Mode & PVM_RISING_EDGE) == PVM_RISING_EDGE)
 722:Drivers/STM32U0xx_HAL_Driver/Src/stm32u0xx_hal_pwr_ex.c ****       {
 723:Drivers/STM32U0xx_HAL_Driver/Src/stm32u0xx_hal_pwr_ex.c ****         __HAL_PWR_PVM4_EXTI_ENABLE_RISING_EDGE();
 724:Drivers/STM32U0xx_HAL_Driver/Src/stm32u0xx_hal_pwr_ex.c ****       }
 725:Drivers/STM32U0xx_HAL_Driver/Src/stm32u0xx_hal_pwr_ex.c **** 
 726:Drivers/STM32U0xx_HAL_Driver/Src/stm32u0xx_hal_pwr_ex.c ****       if ((sConfigPVM->Mode & PVM_FALLING_EDGE) == PVM_FALLING_EDGE)
 727:Drivers/STM32U0xx_HAL_Driver/Src/stm32u0xx_hal_pwr_ex.c ****       {
 728:Drivers/STM32U0xx_HAL_Driver/Src/stm32u0xx_hal_pwr_ex.c ****         __HAL_PWR_PVM4_EXTI_ENABLE_FALLING_EDGE();
 729:Drivers/STM32U0xx_HAL_Driver/Src/stm32u0xx_hal_pwr_ex.c ****       }
 730:Drivers/STM32U0xx_HAL_Driver/Src/stm32u0xx_hal_pwr_ex.c ****       break;
 731:Drivers/STM32U0xx_HAL_Driver/Src/stm32u0xx_hal_pwr_ex.c **** 
 732:Drivers/STM32U0xx_HAL_Driver/Src/stm32u0xx_hal_pwr_ex.c ****     default:
 733:Drivers/STM32U0xx_HAL_Driver/Src/stm32u0xx_hal_pwr_ex.c ****       status = HAL_ERROR;
 734:Drivers/STM32U0xx_HAL_Driver/Src/stm32u0xx_hal_pwr_ex.c ****       break;
 735:Drivers/STM32U0xx_HAL_Driver/Src/stm32u0xx_hal_pwr_ex.c ****   }
 736:Drivers/STM32U0xx_HAL_Driver/Src/stm32u0xx_hal_pwr_ex.c **** 
 737:Drivers/STM32U0xx_HAL_Driver/Src/stm32u0xx_hal_pwr_ex.c ****   return status;
ARM GAS  C:\Users\upo\AppData\Local\Temp\ccJiDZ9q.s 			page 27


 723              		.loc 1 737 3 is_stmt 1 view .LVU146
 738:Drivers/STM32U0xx_HAL_Driver/Src/stm32u0xx_hal_pwr_ex.c **** }
 724              		.loc 1 738 1 is_stmt 0 view .LVU147
 725              		@ sp needed
 726 0014 10BD     		pop	{r4, pc}
 727              	.LVL17:
 728              	.L75:
 673:Drivers/STM32U0xx_HAL_Driver/Src/stm32u0xx_hal_pwr_ex.c ****       __HAL_PWR_PVM3_EXTI_DISABLE_IT();
 729              		.loc 1 673 7 is_stmt 1 view .LVU148
 730 0016 8424     		movs	r4, #132
 731 0018 4B4A     		ldr	r2, .L137
 732 001a 4C49     		ldr	r1, .L137+4
 733 001c 1059     		ldr	r0, [r2, r4]
 734              	.LVL18:
 673:Drivers/STM32U0xx_HAL_Driver/Src/stm32u0xx_hal_pwr_ex.c ****       __HAL_PWR_PVM3_EXTI_DISABLE_IT();
 735              		.loc 1 673 7 is_stmt 0 view .LVU149
 736 001e 0840     		ands	r0, r1
 737 0020 1051     		str	r0, [r2, r4]
 674:Drivers/STM32U0xx_HAL_Driver/Src/stm32u0xx_hal_pwr_ex.c ****       __HAL_PWR_PVM3_EXTI_DISABLE_FALLING_EDGE();
 738              		.loc 1 674 7 is_stmt 1 view .LVU150
 739 0022 8020     		movs	r0, #128
 740 0024 1458     		ldr	r4, [r2, r0]
 741 0026 0C40     		ands	r4, r1
 742 0028 1450     		str	r4, [r2, r0]
 675:Drivers/STM32U0xx_HAL_Driver/Src/stm32u0xx_hal_pwr_ex.c ****       __HAL_PWR_PVM3_EXTI_DISABLE_RISING_EDGE();
 743              		.loc 1 675 7 view .LVU151
 744 002a 5468     		ldr	r4, [r2, #4]
 745 002c 0C40     		ands	r4, r1
 746 002e 5460     		str	r4, [r2, #4]
 676:Drivers/STM32U0xx_HAL_Driver/Src/stm32u0xx_hal_pwr_ex.c **** 
 747              		.loc 1 676 7 view .LVU152
 748 0030 1468     		ldr	r4, [r2]
 749 0032 2140     		ands	r1, r4
 750 0034 1160     		str	r1, [r2]
 679:Drivers/STM32U0xx_HAL_Driver/Src/stm32u0xx_hal_pwr_ex.c ****       {
 751              		.loc 1 679 7 view .LVU153
 679:Drivers/STM32U0xx_HAL_Driver/Src/stm32u0xx_hal_pwr_ex.c ****       {
 752              		.loc 1 679 22 is_stmt 0 view .LVU154
 753 0036 5B68     		ldr	r3, [r3, #4]
 754              	.LVL19:
 679:Drivers/STM32U0xx_HAL_Driver/Src/stm32u0xx_hal_pwr_ex.c ****       {
 755              		.loc 1 679 10 view .LVU155
 756 0038 D903     		lsls	r1, r3, #15
 757 003a 04D5     		bpl	.L83
 681:Drivers/STM32U0xx_HAL_Driver/Src/stm32u0xx_hal_pwr_ex.c ****       }
 758              		.loc 1 681 9 is_stmt 1 view .LVU156
 759 003c 8021     		movs	r1, #128
 760 003e 1458     		ldr	r4, [r2, r0]
 761 0040 8903     		lsls	r1, r1, #14
 762 0042 2143     		orrs	r1, r4
 763 0044 1150     		str	r1, [r2, r0]
 764              	.L83:
 685:Drivers/STM32U0xx_HAL_Driver/Src/stm32u0xx_hal_pwr_ex.c ****       {
 765              		.loc 1 685 7 view .LVU157
 685:Drivers/STM32U0xx_HAL_Driver/Src/stm32u0xx_hal_pwr_ex.c ****       {
 766              		.loc 1 685 10 is_stmt 0 view .LVU158
 767 0046 9A03     		lsls	r2, r3, #14
ARM GAS  C:\Users\upo\AppData\Local\Temp\ccJiDZ9q.s 			page 28


 768 0048 06D5     		bpl	.L84
 687:Drivers/STM32U0xx_HAL_Driver/Src/stm32u0xx_hal_pwr_ex.c ****       }
 769              		.loc 1 687 9 is_stmt 1 view .LVU159
 770 004a 8421     		movs	r1, #132
 771 004c 8022     		movs	r2, #128
 772 004e 3E48     		ldr	r0, .L137
 773 0050 9203     		lsls	r2, r2, #14
 774 0052 4458     		ldr	r4, [r0, r1]
 775 0054 2243     		orrs	r2, r4
 776 0056 4250     		str	r2, [r0, r1]
 777              	.L84:
 691:Drivers/STM32U0xx_HAL_Driver/Src/stm32u0xx_hal_pwr_ex.c ****       {
 778              		.loc 1 691 7 view .LVU160
 691:Drivers/STM32U0xx_HAL_Driver/Src/stm32u0xx_hal_pwr_ex.c ****       {
 779              		.loc 1 691 10 is_stmt 0 view .LVU161
 780 0058 DA07     		lsls	r2, r3, #31
 781 005a 05D5     		bpl	.L85
 693:Drivers/STM32U0xx_HAL_Driver/Src/stm32u0xx_hal_pwr_ex.c ****       }
 782              		.loc 1 693 9 is_stmt 1 view .LVU162
 783 005c 8022     		movs	r2, #128
 784 005e 3A49     		ldr	r1, .L137
 785 0060 9203     		lsls	r2, r2, #14
 786 0062 0868     		ldr	r0, [r1]
 787 0064 0243     		orrs	r2, r0
 788 0066 0A60     		str	r2, [r1]
 789              	.L85:
 696:Drivers/STM32U0xx_HAL_Driver/Src/stm32u0xx_hal_pwr_ex.c ****       {
 790              		.loc 1 696 7 view .LVU163
 696:Drivers/STM32U0xx_HAL_Driver/Src/stm32u0xx_hal_pwr_ex.c ****       {
 791              		.loc 1 696 10 is_stmt 0 view .LVU164
 792 0068 9B07     		lsls	r3, r3, #30
 793 006a 05D5     		bpl	.L82
 698:Drivers/STM32U0xx_HAL_Driver/Src/stm32u0xx_hal_pwr_ex.c ****       }
 794              		.loc 1 698 9 is_stmt 1 view .LVU165
 795 006c 8023     		movs	r3, #128
 796 006e 364A     		ldr	r2, .L137
 797 0070 9B03     		lsls	r3, r3, #14
 798 0072 5168     		ldr	r1, [r2, #4]
 799 0074 0B43     		orrs	r3, r1
 800 0076 5360     		str	r3, [r2, #4]
 801              	.L82:
 628:Drivers/STM32U0xx_HAL_Driver/Src/stm32u0xx_hal_pwr_ex.c **** 
 802              		.loc 1 628 21 is_stmt 0 view .LVU166
 803 0078 0020     		movs	r0, #0
 804 007a CBE7     		b	.L77
 805              	.LVL20:
 806              	.L136:
 642:Drivers/STM32U0xx_HAL_Driver/Src/stm32u0xx_hal_pwr_ex.c ****       __HAL_PWR_PVM1_EXTI_DISABLE_IT();
 807              		.loc 1 642 7 is_stmt 1 view .LVU167
 808 007c 8424     		movs	r4, #132
 809 007e 324A     		ldr	r2, .L137
 810 0080 3349     		ldr	r1, .L137+8
 811 0082 1059     		ldr	r0, [r2, r4]
 812 0084 0840     		ands	r0, r1
 813 0086 1051     		str	r0, [r2, r4]
 643:Drivers/STM32U0xx_HAL_Driver/Src/stm32u0xx_hal_pwr_ex.c ****       __HAL_PWR_PVM1_EXTI_DISABLE_FALLING_EDGE();
 814              		.loc 1 643 7 view .LVU168
ARM GAS  C:\Users\upo\AppData\Local\Temp\ccJiDZ9q.s 			page 29


 815 0088 8020     		movs	r0, #128
 816 008a 1458     		ldr	r4, [r2, r0]
 817 008c 0C40     		ands	r4, r1
 818 008e 1450     		str	r4, [r2, r0]
 644:Drivers/STM32U0xx_HAL_Driver/Src/stm32u0xx_hal_pwr_ex.c ****       __HAL_PWR_PVM1_EXTI_DISABLE_RISING_EDGE();
 819              		.loc 1 644 7 view .LVU169
 820 0090 5468     		ldr	r4, [r2, #4]
 821 0092 0C40     		ands	r4, r1
 822 0094 5460     		str	r4, [r2, #4]
 645:Drivers/STM32U0xx_HAL_Driver/Src/stm32u0xx_hal_pwr_ex.c **** 
 823              		.loc 1 645 7 view .LVU170
 824 0096 1468     		ldr	r4, [r2]
 825 0098 2140     		ands	r1, r4
 826 009a 1160     		str	r1, [r2]
 648:Drivers/STM32U0xx_HAL_Driver/Src/stm32u0xx_hal_pwr_ex.c ****       {
 827              		.loc 1 648 7 view .LVU171
 648:Drivers/STM32U0xx_HAL_Driver/Src/stm32u0xx_hal_pwr_ex.c ****       {
 828              		.loc 1 648 22 is_stmt 0 view .LVU172
 829 009c 5B68     		ldr	r3, [r3, #4]
 830              	.LVL21:
 648:Drivers/STM32U0xx_HAL_Driver/Src/stm32u0xx_hal_pwr_ex.c ****       {
 831              		.loc 1 648 10 view .LVU173
 832 009e D903     		lsls	r1, r3, #15
 833 00a0 04D5     		bpl	.L78
 650:Drivers/STM32U0xx_HAL_Driver/Src/stm32u0xx_hal_pwr_ex.c ****       }
 834              		.loc 1 650 9 is_stmt 1 view .LVU174
 835 00a2 8021     		movs	r1, #128
 836 00a4 1458     		ldr	r4, [r2, r0]
 837 00a6 4903     		lsls	r1, r1, #13
 838 00a8 2143     		orrs	r1, r4
 839 00aa 1150     		str	r1, [r2, r0]
 840              	.L78:
 654:Drivers/STM32U0xx_HAL_Driver/Src/stm32u0xx_hal_pwr_ex.c ****       {
 841              		.loc 1 654 7 view .LVU175
 654:Drivers/STM32U0xx_HAL_Driver/Src/stm32u0xx_hal_pwr_ex.c ****       {
 842              		.loc 1 654 10 is_stmt 0 view .LVU176
 843 00ac 9A03     		lsls	r2, r3, #14
 844 00ae 06D5     		bpl	.L79
 656:Drivers/STM32U0xx_HAL_Driver/Src/stm32u0xx_hal_pwr_ex.c ****       }
 845              		.loc 1 656 9 is_stmt 1 view .LVU177
 846 00b0 8421     		movs	r1, #132
 847 00b2 8022     		movs	r2, #128
 848 00b4 2448     		ldr	r0, .L137
 849 00b6 5203     		lsls	r2, r2, #13
 850 00b8 4458     		ldr	r4, [r0, r1]
 851 00ba 2243     		orrs	r2, r4
 852 00bc 4250     		str	r2, [r0, r1]
 853              	.L79:
 660:Drivers/STM32U0xx_HAL_Driver/Src/stm32u0xx_hal_pwr_ex.c ****       {
 854              		.loc 1 660 7 view .LVU178
 660:Drivers/STM32U0xx_HAL_Driver/Src/stm32u0xx_hal_pwr_ex.c ****       {
 855              		.loc 1 660 10 is_stmt 0 view .LVU179
 856 00be DA07     		lsls	r2, r3, #31
 857 00c0 05D5     		bpl	.L80
 662:Drivers/STM32U0xx_HAL_Driver/Src/stm32u0xx_hal_pwr_ex.c ****       }
 858              		.loc 1 662 9 is_stmt 1 view .LVU180
 859 00c2 8022     		movs	r2, #128
ARM GAS  C:\Users\upo\AppData\Local\Temp\ccJiDZ9q.s 			page 30


 860 00c4 2049     		ldr	r1, .L137
 861 00c6 5203     		lsls	r2, r2, #13
 862 00c8 0868     		ldr	r0, [r1]
 863 00ca 0243     		orrs	r2, r0
 864 00cc 0A60     		str	r2, [r1]
 865              	.L80:
 665:Drivers/STM32U0xx_HAL_Driver/Src/stm32u0xx_hal_pwr_ex.c ****       {
 866              		.loc 1 665 7 view .LVU181
 665:Drivers/STM32U0xx_HAL_Driver/Src/stm32u0xx_hal_pwr_ex.c ****       {
 867              		.loc 1 665 10 is_stmt 0 view .LVU182
 868 00ce 9B07     		lsls	r3, r3, #30
 869 00d0 D2D5     		bpl	.L82
 667:Drivers/STM32U0xx_HAL_Driver/Src/stm32u0xx_hal_pwr_ex.c ****       }
 870              		.loc 1 667 9 is_stmt 1 view .LVU183
 871 00d2 8023     		movs	r3, #128
 872 00d4 1C4A     		ldr	r2, .L137
 873 00d6 5B03     		lsls	r3, r3, #13
 874 00d8 5168     		ldr	r1, [r2, #4]
 628:Drivers/STM32U0xx_HAL_Driver/Src/stm32u0xx_hal_pwr_ex.c **** 
 875              		.loc 1 628 21 is_stmt 0 view .LVU184
 876 00da 0020     		movs	r0, #0
 667:Drivers/STM32U0xx_HAL_Driver/Src/stm32u0xx_hal_pwr_ex.c ****       }
 877              		.loc 1 667 9 view .LVU185
 878 00dc 0B43     		orrs	r3, r1
 879 00de 5360     		str	r3, [r2, #4]
 880 00e0 98E7     		b	.L77
 881              	.LVL22:
 882              	.L76:
 703:Drivers/STM32U0xx_HAL_Driver/Src/stm32u0xx_hal_pwr_ex.c ****       __HAL_PWR_PVM4_EXTI_DISABLE_IT();
 883              		.loc 1 703 7 is_stmt 1 view .LVU186
 884 00e2 8424     		movs	r4, #132
 885 00e4 184A     		ldr	r2, .L137
 886 00e6 1B49     		ldr	r1, .L137+12
 887 00e8 1059     		ldr	r0, [r2, r4]
 888              	.LVL23:
 703:Drivers/STM32U0xx_HAL_Driver/Src/stm32u0xx_hal_pwr_ex.c ****       __HAL_PWR_PVM4_EXTI_DISABLE_IT();
 889              		.loc 1 703 7 is_stmt 0 view .LVU187
 890 00ea 0840     		ands	r0, r1
 891 00ec 1051     		str	r0, [r2, r4]
 704:Drivers/STM32U0xx_HAL_Driver/Src/stm32u0xx_hal_pwr_ex.c ****       __HAL_PWR_PVM4_EXTI_DISABLE_FALLING_EDGE();
 892              		.loc 1 704 7 is_stmt 1 view .LVU188
 893 00ee 8020     		movs	r0, #128
 894 00f0 1458     		ldr	r4, [r2, r0]
 895 00f2 0C40     		ands	r4, r1
 896 00f4 1450     		str	r4, [r2, r0]
 705:Drivers/STM32U0xx_HAL_Driver/Src/stm32u0xx_hal_pwr_ex.c ****       __HAL_PWR_PVM4_EXTI_DISABLE_RISING_EDGE();
 897              		.loc 1 705 7 view .LVU189
 898 00f6 5468     		ldr	r4, [r2, #4]
 899 00f8 0C40     		ands	r4, r1
 900 00fa 5460     		str	r4, [r2, #4]
 706:Drivers/STM32U0xx_HAL_Driver/Src/stm32u0xx_hal_pwr_ex.c **** 
 901              		.loc 1 706 7 view .LVU190
 902 00fc 1468     		ldr	r4, [r2]
 903 00fe 2140     		ands	r1, r4
 904 0100 1160     		str	r1, [r2]
 709:Drivers/STM32U0xx_HAL_Driver/Src/stm32u0xx_hal_pwr_ex.c ****       {
 905              		.loc 1 709 7 view .LVU191
ARM GAS  C:\Users\upo\AppData\Local\Temp\ccJiDZ9q.s 			page 31


 709:Drivers/STM32U0xx_HAL_Driver/Src/stm32u0xx_hal_pwr_ex.c ****       {
 906              		.loc 1 709 22 is_stmt 0 view .LVU192
 907 0102 5B68     		ldr	r3, [r3, #4]
 908              	.LVL24:
 709:Drivers/STM32U0xx_HAL_Driver/Src/stm32u0xx_hal_pwr_ex.c ****       {
 909              		.loc 1 709 10 view .LVU193
 910 0104 D903     		lsls	r1, r3, #15
 911 0106 04D5     		bpl	.L87
 711:Drivers/STM32U0xx_HAL_Driver/Src/stm32u0xx_hal_pwr_ex.c ****       }
 912              		.loc 1 711 9 is_stmt 1 view .LVU194
 913 0108 8021     		movs	r1, #128
 914 010a 1458     		ldr	r4, [r2, r0]
 915 010c C903     		lsls	r1, r1, #15
 916 010e 2143     		orrs	r1, r4
 917 0110 1150     		str	r1, [r2, r0]
 918              	.L87:
 715:Drivers/STM32U0xx_HAL_Driver/Src/stm32u0xx_hal_pwr_ex.c ****       {
 919              		.loc 1 715 7 view .LVU195
 715:Drivers/STM32U0xx_HAL_Driver/Src/stm32u0xx_hal_pwr_ex.c ****       {
 920              		.loc 1 715 10 is_stmt 0 view .LVU196
 921 0112 9A03     		lsls	r2, r3, #14
 922 0114 06D5     		bpl	.L88
 717:Drivers/STM32U0xx_HAL_Driver/Src/stm32u0xx_hal_pwr_ex.c ****       }
 923              		.loc 1 717 9 is_stmt 1 view .LVU197
 924 0116 8421     		movs	r1, #132
 925 0118 8022     		movs	r2, #128
 926 011a 0B48     		ldr	r0, .L137
 927 011c D203     		lsls	r2, r2, #15
 928 011e 4458     		ldr	r4, [r0, r1]
 929 0120 2243     		orrs	r2, r4
 930 0122 4250     		str	r2, [r0, r1]
 931              	.L88:
 721:Drivers/STM32U0xx_HAL_Driver/Src/stm32u0xx_hal_pwr_ex.c ****       {
 932              		.loc 1 721 7 view .LVU198
 721:Drivers/STM32U0xx_HAL_Driver/Src/stm32u0xx_hal_pwr_ex.c ****       {
 933              		.loc 1 721 10 is_stmt 0 view .LVU199
 934 0124 DA07     		lsls	r2, r3, #31
 935 0126 05D5     		bpl	.L89
 723:Drivers/STM32U0xx_HAL_Driver/Src/stm32u0xx_hal_pwr_ex.c ****       }
 936              		.loc 1 723 9 is_stmt 1 view .LVU200
 937 0128 8022     		movs	r2, #128
 938 012a 0749     		ldr	r1, .L137
 939 012c D203     		lsls	r2, r2, #15
 940 012e 0868     		ldr	r0, [r1]
 941 0130 0243     		orrs	r2, r0
 942 0132 0A60     		str	r2, [r1]
 943              	.L89:
 726:Drivers/STM32U0xx_HAL_Driver/Src/stm32u0xx_hal_pwr_ex.c ****       {
 944              		.loc 1 726 7 view .LVU201
 726:Drivers/STM32U0xx_HAL_Driver/Src/stm32u0xx_hal_pwr_ex.c ****       {
 945              		.loc 1 726 10 is_stmt 0 view .LVU202
 946 0134 9B07     		lsls	r3, r3, #30
 947 0136 9FD5     		bpl	.L82
 728:Drivers/STM32U0xx_HAL_Driver/Src/stm32u0xx_hal_pwr_ex.c ****       }
 948              		.loc 1 728 9 is_stmt 1 view .LVU203
 949 0138 8023     		movs	r3, #128
 950 013a 034A     		ldr	r2, .L137
ARM GAS  C:\Users\upo\AppData\Local\Temp\ccJiDZ9q.s 			page 32


 951 013c DB03     		lsls	r3, r3, #15
 952 013e 5168     		ldr	r1, [r2, #4]
 628:Drivers/STM32U0xx_HAL_Driver/Src/stm32u0xx_hal_pwr_ex.c **** 
 953              		.loc 1 628 21 is_stmt 0 view .LVU204
 954 0140 0020     		movs	r0, #0
 728:Drivers/STM32U0xx_HAL_Driver/Src/stm32u0xx_hal_pwr_ex.c ****       }
 955              		.loc 1 728 9 view .LVU205
 956 0142 0B43     		orrs	r3, r1
 957 0144 5360     		str	r3, [r2, #4]
 958 0146 65E7     		b	.L77
 959              	.L138:
 960              		.align	2
 961              	.L137:
 962 0148 00180240 		.word	1073879040
 963 014c FFFFDFFF 		.word	-2097153
 964 0150 FFFFEFFF 		.word	-1048577
 965 0154 FFFFBFFF 		.word	-4194305
 966              		.cfi_endproc
 967              	.LFE346:
 969              		.section	.text.HAL_PWREx_EnableVddUSB,"ax",%progbits
 970              		.align	1
 971              		.p2align 2,,3
 972              		.global	HAL_PWREx_EnableVddUSB
 973              		.syntax unified
 974              		.code	16
 975              		.thumb_func
 977              	HAL_PWREx_EnableVddUSB:
 978              	.LFB347:
 739:Drivers/STM32U0xx_HAL_Driver/Src/stm32u0xx_hal_pwr_ex.c **** 
 740:Drivers/STM32U0xx_HAL_Driver/Src/stm32u0xx_hal_pwr_ex.c **** #if defined(USB_DRD_FS)
 741:Drivers/STM32U0xx_HAL_Driver/Src/stm32u0xx_hal_pwr_ex.c **** /**
 742:Drivers/STM32U0xx_HAL_Driver/Src/stm32u0xx_hal_pwr_ex.c ****   * @brief Enable VDDUSB supply.
 743:Drivers/STM32U0xx_HAL_Driver/Src/stm32u0xx_hal_pwr_ex.c ****   * @note  Remove VDDUSB electrical and logical isolation, once VDDUSB supply is present.
 744:Drivers/STM32U0xx_HAL_Driver/Src/stm32u0xx_hal_pwr_ex.c ****   * @retval None
 745:Drivers/STM32U0xx_HAL_Driver/Src/stm32u0xx_hal_pwr_ex.c ****   */
 746:Drivers/STM32U0xx_HAL_Driver/Src/stm32u0xx_hal_pwr_ex.c **** void HAL_PWREx_EnableVddUSB(void)
 747:Drivers/STM32U0xx_HAL_Driver/Src/stm32u0xx_hal_pwr_ex.c **** {
 979              		.loc 1 747 1 is_stmt 1 view -0
 980              		.cfi_startproc
 981              		@ args = 0, pretend = 0, frame = 0
 982              		@ frame_needed = 0, uses_anonymous_args = 0
 983              		@ link register save eliminated.
 748:Drivers/STM32U0xx_HAL_Driver/Src/stm32u0xx_hal_pwr_ex.c ****   SET_BIT(PWR->CR2, PWR_CR2_USV);
 984              		.loc 1 748 3 view .LVU207
 985 0000 8023     		movs	r3, #128
 749:Drivers/STM32U0xx_HAL_Driver/Src/stm32u0xx_hal_pwr_ex.c **** }
 986              		.loc 1 749 1 is_stmt 0 view .LVU208
 987              		@ sp needed
 748:Drivers/STM32U0xx_HAL_Driver/Src/stm32u0xx_hal_pwr_ex.c ****   SET_BIT(PWR->CR2, PWR_CR2_USV);
 988              		.loc 1 748 3 view .LVU209
 989 0002 034A     		ldr	r2, .L140
 990 0004 DB00     		lsls	r3, r3, #3
 991 0006 5168     		ldr	r1, [r2, #4]
 992 0008 0B43     		orrs	r3, r1
 993 000a 5360     		str	r3, [r2, #4]
 994              		.loc 1 749 1 view .LVU210
 995 000c 7047     		bx	lr
ARM GAS  C:\Users\upo\AppData\Local\Temp\ccJiDZ9q.s 			page 33


 996              	.L141:
 997 000e C046     		.align	2
 998              	.L140:
 999 0010 00700040 		.word	1073770496
 1000              		.cfi_endproc
 1001              	.LFE347:
 1003              		.section	.text.HAL_PWREx_DisableVddUSB,"ax",%progbits
 1004              		.align	1
 1005              		.p2align 2,,3
 1006              		.global	HAL_PWREx_DisableVddUSB
 1007              		.syntax unified
 1008              		.code	16
 1009              		.thumb_func
 1011              	HAL_PWREx_DisableVddUSB:
 1012              	.LFB348:
 750:Drivers/STM32U0xx_HAL_Driver/Src/stm32u0xx_hal_pwr_ex.c **** 
 751:Drivers/STM32U0xx_HAL_Driver/Src/stm32u0xx_hal_pwr_ex.c **** /**
 752:Drivers/STM32U0xx_HAL_Driver/Src/stm32u0xx_hal_pwr_ex.c ****   * @brief Disable VDDUSB supply.
 753:Drivers/STM32U0xx_HAL_Driver/Src/stm32u0xx_hal_pwr_ex.c ****   * @retval None
 754:Drivers/STM32U0xx_HAL_Driver/Src/stm32u0xx_hal_pwr_ex.c ****   */
 755:Drivers/STM32U0xx_HAL_Driver/Src/stm32u0xx_hal_pwr_ex.c **** void HAL_PWREx_DisableVddUSB(void)
 756:Drivers/STM32U0xx_HAL_Driver/Src/stm32u0xx_hal_pwr_ex.c **** {
 1013              		.loc 1 756 1 is_stmt 1 view -0
 1014              		.cfi_startproc
 1015              		@ args = 0, pretend = 0, frame = 0
 1016              		@ frame_needed = 0, uses_anonymous_args = 0
 1017              		@ link register save eliminated.
 757:Drivers/STM32U0xx_HAL_Driver/Src/stm32u0xx_hal_pwr_ex.c ****   CLEAR_BIT(PWR->CR2, PWR_CR2_USV);
 1018              		.loc 1 757 3 view .LVU212
 1019 0000 024A     		ldr	r2, .L143
 1020 0002 0349     		ldr	r1, .L143+4
 1021 0004 5368     		ldr	r3, [r2, #4]
 758:Drivers/STM32U0xx_HAL_Driver/Src/stm32u0xx_hal_pwr_ex.c **** }
 1022              		.loc 1 758 1 is_stmt 0 view .LVU213
 1023              		@ sp needed
 757:Drivers/STM32U0xx_HAL_Driver/Src/stm32u0xx_hal_pwr_ex.c ****   CLEAR_BIT(PWR->CR2, PWR_CR2_USV);
 1024              		.loc 1 757 3 view .LVU214
 1025 0006 0B40     		ands	r3, r1
 1026 0008 5360     		str	r3, [r2, #4]
 1027              		.loc 1 758 1 view .LVU215
 1028 000a 7047     		bx	lr
 1029              	.L144:
 1030              		.align	2
 1031              	.L143:
 1032 000c 00700040 		.word	1073770496
 1033 0010 FFFBFFFF 		.word	-1025
 1034              		.cfi_endproc
 1035              	.LFE348:
 1037              		.section	.text.HAL_PWREx_EnableBatteryCharging,"ax",%progbits
 1038              		.align	1
 1039              		.p2align 2,,3
 1040              		.global	HAL_PWREx_EnableBatteryCharging
 1041              		.syntax unified
 1042              		.code	16
 1043              		.thumb_func
 1045              	HAL_PWREx_EnableBatteryCharging:
 1046              	.LVL25:
ARM GAS  C:\Users\upo\AppData\Local\Temp\ccJiDZ9q.s 			page 34


 1047              	.LFB349:
 759:Drivers/STM32U0xx_HAL_Driver/Src/stm32u0xx_hal_pwr_ex.c **** #endif /* USB_DRD_FS */
 760:Drivers/STM32U0xx_HAL_Driver/Src/stm32u0xx_hal_pwr_ex.c **** 
 761:Drivers/STM32U0xx_HAL_Driver/Src/stm32u0xx_hal_pwr_ex.c **** /**
 762:Drivers/STM32U0xx_HAL_Driver/Src/stm32u0xx_hal_pwr_ex.c ****   * @brief Enable battery charging.
 763:Drivers/STM32U0xx_HAL_Driver/Src/stm32u0xx_hal_pwr_ex.c ****   *        When VDD is present, charge the external battery on VBAT through an internal resistor.
 764:Drivers/STM32U0xx_HAL_Driver/Src/stm32u0xx_hal_pwr_ex.c ****   * @param  ResistorSelection specifies the resistor impedance.
 765:Drivers/STM32U0xx_HAL_Driver/Src/stm32u0xx_hal_pwr_ex.c ****   *          This parameter can be one of the following values:
 766:Drivers/STM32U0xx_HAL_Driver/Src/stm32u0xx_hal_pwr_ex.c ****   *            @arg @ref PWR_BATTERY_CHARGING_RESISTOR_5     5 kOhms resistor
 767:Drivers/STM32U0xx_HAL_Driver/Src/stm32u0xx_hal_pwr_ex.c ****   *            @arg @ref PWR_BATTERY_CHARGING_RESISTOR_1_5 1.5 kOhms resistor
 768:Drivers/STM32U0xx_HAL_Driver/Src/stm32u0xx_hal_pwr_ex.c ****   * @retval None
 769:Drivers/STM32U0xx_HAL_Driver/Src/stm32u0xx_hal_pwr_ex.c ****   */
 770:Drivers/STM32U0xx_HAL_Driver/Src/stm32u0xx_hal_pwr_ex.c **** void HAL_PWREx_EnableBatteryCharging(uint32_t ResistorSelection)
 771:Drivers/STM32U0xx_HAL_Driver/Src/stm32u0xx_hal_pwr_ex.c **** {
 1048              		.loc 1 771 1 is_stmt 1 view -0
 1049              		.cfi_startproc
 1050              		@ args = 0, pretend = 0, frame = 0
 1051              		@ frame_needed = 0, uses_anonymous_args = 0
 1052              		@ link register save eliminated.
 772:Drivers/STM32U0xx_HAL_Driver/Src/stm32u0xx_hal_pwr_ex.c ****   assert_param(IS_PWR_BATTERY_RESISTOR_SELECT(ResistorSelection));
 1053              		.loc 1 772 3 view .LVU217
 773:Drivers/STM32U0xx_HAL_Driver/Src/stm32u0xx_hal_pwr_ex.c **** 
 774:Drivers/STM32U0xx_HAL_Driver/Src/stm32u0xx_hal_pwr_ex.c ****   /* Specify resistor selection */
 775:Drivers/STM32U0xx_HAL_Driver/Src/stm32u0xx_hal_pwr_ex.c ****   MODIFY_REG(PWR->CR4, PWR_CR4_VBRS, ResistorSelection);
 1054              		.loc 1 775 3 view .LVU218
 1055 0000 054A     		ldr	r2, .L146
 1056 0002 0649     		ldr	r1, .L146+4
 1057 0004 D368     		ldr	r3, [r2, #12]
 776:Drivers/STM32U0xx_HAL_Driver/Src/stm32u0xx_hal_pwr_ex.c **** 
 777:Drivers/STM32U0xx_HAL_Driver/Src/stm32u0xx_hal_pwr_ex.c ****   /* Enable battery charging */
 778:Drivers/STM32U0xx_HAL_Driver/Src/stm32u0xx_hal_pwr_ex.c ****   SET_BIT(PWR->CR4, PWR_CR4_VBE);
 779:Drivers/STM32U0xx_HAL_Driver/Src/stm32u0xx_hal_pwr_ex.c **** }
 1058              		.loc 1 779 1 is_stmt 0 view .LVU219
 1059              		@ sp needed
 775:Drivers/STM32U0xx_HAL_Driver/Src/stm32u0xx_hal_pwr_ex.c **** 
 1060              		.loc 1 775 3 view .LVU220
 1061 0006 0B40     		ands	r3, r1
 1062 0008 0343     		orrs	r3, r0
 1063 000a D360     		str	r3, [r2, #12]
 778:Drivers/STM32U0xx_HAL_Driver/Src/stm32u0xx_hal_pwr_ex.c **** }
 1064              		.loc 1 778 3 is_stmt 1 view .LVU221
 1065 000c 8023     		movs	r3, #128
 1066 000e D168     		ldr	r1, [r2, #12]
 1067 0010 5B00     		lsls	r3, r3, #1
 1068 0012 0B43     		orrs	r3, r1
 1069 0014 D360     		str	r3, [r2, #12]
 1070              		.loc 1 779 1 is_stmt 0 view .LVU222
 1071 0016 7047     		bx	lr
 1072              	.L147:
 1073              		.align	2
 1074              	.L146:
 1075 0018 00700040 		.word	1073770496
 1076 001c FFFDFFFF 		.word	-513
 1077              		.cfi_endproc
 1078              	.LFE349:
 1080              		.section	.text.HAL_PWREx_DisableBatteryCharging,"ax",%progbits
 1081              		.align	1
ARM GAS  C:\Users\upo\AppData\Local\Temp\ccJiDZ9q.s 			page 35


 1082              		.p2align 2,,3
 1083              		.global	HAL_PWREx_DisableBatteryCharging
 1084              		.syntax unified
 1085              		.code	16
 1086              		.thumb_func
 1088              	HAL_PWREx_DisableBatteryCharging:
 1089              	.LFB350:
 780:Drivers/STM32U0xx_HAL_Driver/Src/stm32u0xx_hal_pwr_ex.c **** 
 781:Drivers/STM32U0xx_HAL_Driver/Src/stm32u0xx_hal_pwr_ex.c **** /**
 782:Drivers/STM32U0xx_HAL_Driver/Src/stm32u0xx_hal_pwr_ex.c ****   * @brief Disable battery charging.
 783:Drivers/STM32U0xx_HAL_Driver/Src/stm32u0xx_hal_pwr_ex.c ****   * @retval None
 784:Drivers/STM32U0xx_HAL_Driver/Src/stm32u0xx_hal_pwr_ex.c ****   */
 785:Drivers/STM32U0xx_HAL_Driver/Src/stm32u0xx_hal_pwr_ex.c **** void HAL_PWREx_DisableBatteryCharging(void)
 786:Drivers/STM32U0xx_HAL_Driver/Src/stm32u0xx_hal_pwr_ex.c **** {
 1090              		.loc 1 786 1 is_stmt 1 view -0
 1091              		.cfi_startproc
 1092              		@ args = 0, pretend = 0, frame = 0
 1093              		@ frame_needed = 0, uses_anonymous_args = 0
 1094              		@ link register save eliminated.
 787:Drivers/STM32U0xx_HAL_Driver/Src/stm32u0xx_hal_pwr_ex.c ****   CLEAR_BIT(PWR->CR4, PWR_CR4_VBE);
 1095              		.loc 1 787 3 view .LVU224
 1096 0000 024A     		ldr	r2, .L149
 1097 0002 0349     		ldr	r1, .L149+4
 1098 0004 D368     		ldr	r3, [r2, #12]
 788:Drivers/STM32U0xx_HAL_Driver/Src/stm32u0xx_hal_pwr_ex.c **** }
 1099              		.loc 1 788 1 is_stmt 0 view .LVU225
 1100              		@ sp needed
 787:Drivers/STM32U0xx_HAL_Driver/Src/stm32u0xx_hal_pwr_ex.c ****   CLEAR_BIT(PWR->CR4, PWR_CR4_VBE);
 1101              		.loc 1 787 3 view .LVU226
 1102 0006 0B40     		ands	r3, r1
 1103 0008 D360     		str	r3, [r2, #12]
 1104              		.loc 1 788 1 view .LVU227
 1105 000a 7047     		bx	lr
 1106              	.L150:
 1107              		.align	2
 1108              	.L149:
 1109 000c 00700040 		.word	1073770496
 1110 0010 FFFEFFFF 		.word	-257
 1111              		.cfi_endproc
 1112              	.LFE350:
 1114              		.section	.text.HAL_PWREx_PVM1_Callback,"ax",%progbits
 1115              		.align	1
 1116              		.p2align 2,,3
 1117              		.weak	HAL_PWREx_PVM1_Callback
 1118              		.syntax unified
 1119              		.code	16
 1120              		.thumb_func
 1122              	HAL_PWREx_PVM1_Callback:
 1123              	.LFB352:
 789:Drivers/STM32U0xx_HAL_Driver/Src/stm32u0xx_hal_pwr_ex.c **** /**
 790:Drivers/STM32U0xx_HAL_Driver/Src/stm32u0xx_hal_pwr_ex.c ****   * @brief This function handles the PWR PVD/PVMx interrupt request.
 791:Drivers/STM32U0xx_HAL_Driver/Src/stm32u0xx_hal_pwr_ex.c ****   * @note This API should be called under the PVD_PVM_IRQHandler().
 792:Drivers/STM32U0xx_HAL_Driver/Src/stm32u0xx_hal_pwr_ex.c ****   * @retval None
 793:Drivers/STM32U0xx_HAL_Driver/Src/stm32u0xx_hal_pwr_ex.c ****   */
 794:Drivers/STM32U0xx_HAL_Driver/Src/stm32u0xx_hal_pwr_ex.c **** void HAL_PWREx_PVD_PVM_IRQHandler(void)
 795:Drivers/STM32U0xx_HAL_Driver/Src/stm32u0xx_hal_pwr_ex.c **** {
 796:Drivers/STM32U0xx_HAL_Driver/Src/stm32u0xx_hal_pwr_ex.c ****   /* Check if the Programmable Voltage Detector is enabled (PVD) */
ARM GAS  C:\Users\upo\AppData\Local\Temp\ccJiDZ9q.s 			page 36


 797:Drivers/STM32U0xx_HAL_Driver/Src/stm32u0xx_hal_pwr_ex.c ****   if (READ_BIT(PWR->CR2, PWR_CR2_PVDE) != 0U)
 798:Drivers/STM32U0xx_HAL_Driver/Src/stm32u0xx_hal_pwr_ex.c ****   {
 799:Drivers/STM32U0xx_HAL_Driver/Src/stm32u0xx_hal_pwr_ex.c ****     /* Check PWR EXTI Rising flag */
 800:Drivers/STM32U0xx_HAL_Driver/Src/stm32u0xx_hal_pwr_ex.c ****     if (__HAL_PWR_PVD_EXTI_GET_RISING_FLAG() != 0U)
 801:Drivers/STM32U0xx_HAL_Driver/Src/stm32u0xx_hal_pwr_ex.c ****     {
 802:Drivers/STM32U0xx_HAL_Driver/Src/stm32u0xx_hal_pwr_ex.c ****       /* PWR PVD interrupt user callback */
 803:Drivers/STM32U0xx_HAL_Driver/Src/stm32u0xx_hal_pwr_ex.c ****       HAL_PWR_PVDCallback();
 804:Drivers/STM32U0xx_HAL_Driver/Src/stm32u0xx_hal_pwr_ex.c **** 
 805:Drivers/STM32U0xx_HAL_Driver/Src/stm32u0xx_hal_pwr_ex.c ****       /* Clear PWR EXTI pending bit */
 806:Drivers/STM32U0xx_HAL_Driver/Src/stm32u0xx_hal_pwr_ex.c ****       __HAL_PWR_PVD_EXTI_CLEAR_FLAG();
 807:Drivers/STM32U0xx_HAL_Driver/Src/stm32u0xx_hal_pwr_ex.c ****     }
 808:Drivers/STM32U0xx_HAL_Driver/Src/stm32u0xx_hal_pwr_ex.c **** 
 809:Drivers/STM32U0xx_HAL_Driver/Src/stm32u0xx_hal_pwr_ex.c ****     /* Check PWR EXTI Falling flag */
 810:Drivers/STM32U0xx_HAL_Driver/Src/stm32u0xx_hal_pwr_ex.c ****     if (__HAL_PWR_PVD_EXTI_GET_FALLING_FLAG() != 0U)
 811:Drivers/STM32U0xx_HAL_Driver/Src/stm32u0xx_hal_pwr_ex.c ****     {
 812:Drivers/STM32U0xx_HAL_Driver/Src/stm32u0xx_hal_pwr_ex.c ****       /* PWR PVD interrupt user callback */
 813:Drivers/STM32U0xx_HAL_Driver/Src/stm32u0xx_hal_pwr_ex.c ****       HAL_PWR_PVDCallback();
 814:Drivers/STM32U0xx_HAL_Driver/Src/stm32u0xx_hal_pwr_ex.c **** 
 815:Drivers/STM32U0xx_HAL_Driver/Src/stm32u0xx_hal_pwr_ex.c ****       /* Clear PWR EXTI pending bit */
 816:Drivers/STM32U0xx_HAL_Driver/Src/stm32u0xx_hal_pwr_ex.c ****       __HAL_PWR_PVD_EXTI_CLEAR_FLAG();
 817:Drivers/STM32U0xx_HAL_Driver/Src/stm32u0xx_hal_pwr_ex.c ****     }
 818:Drivers/STM32U0xx_HAL_Driver/Src/stm32u0xx_hal_pwr_ex.c ****   }
 819:Drivers/STM32U0xx_HAL_Driver/Src/stm32u0xx_hal_pwr_ex.c **** 
 820:Drivers/STM32U0xx_HAL_Driver/Src/stm32u0xx_hal_pwr_ex.c ****   /* Next, successively check PVMx exti flags */
 821:Drivers/STM32U0xx_HAL_Driver/Src/stm32u0xx_hal_pwr_ex.c **** #if defined(USB_DRD_FS)
 822:Drivers/STM32U0xx_HAL_Driver/Src/stm32u0xx_hal_pwr_ex.c ****   if (READ_BIT(PWR->CR2, PWR_PVM_1) != 0U)
 823:Drivers/STM32U0xx_HAL_Driver/Src/stm32u0xx_hal_pwr_ex.c ****   {
 824:Drivers/STM32U0xx_HAL_Driver/Src/stm32u0xx_hal_pwr_ex.c ****     /* Check PWR EXTI Rising flag */
 825:Drivers/STM32U0xx_HAL_Driver/Src/stm32u0xx_hal_pwr_ex.c ****     if (__HAL_PWR_PVM1_EXTI_GET_RISING_FLAG() != 0U)
 826:Drivers/STM32U0xx_HAL_Driver/Src/stm32u0xx_hal_pwr_ex.c ****     {
 827:Drivers/STM32U0xx_HAL_Driver/Src/stm32u0xx_hal_pwr_ex.c ****       /* PWR PVM interrupt user callback */
 828:Drivers/STM32U0xx_HAL_Driver/Src/stm32u0xx_hal_pwr_ex.c ****       HAL_PWREx_PVM1_Callback();
 829:Drivers/STM32U0xx_HAL_Driver/Src/stm32u0xx_hal_pwr_ex.c **** 
 830:Drivers/STM32U0xx_HAL_Driver/Src/stm32u0xx_hal_pwr_ex.c ****       /* Clear PWR EXTI pending bit */
 831:Drivers/STM32U0xx_HAL_Driver/Src/stm32u0xx_hal_pwr_ex.c ****       __HAL_PWR_PVM1_EXTI_CLEAR_FLAG();
 832:Drivers/STM32U0xx_HAL_Driver/Src/stm32u0xx_hal_pwr_ex.c ****     }
 833:Drivers/STM32U0xx_HAL_Driver/Src/stm32u0xx_hal_pwr_ex.c **** 
 834:Drivers/STM32U0xx_HAL_Driver/Src/stm32u0xx_hal_pwr_ex.c ****     /* Check PWR EXTI Falling flag */
 835:Drivers/STM32U0xx_HAL_Driver/Src/stm32u0xx_hal_pwr_ex.c ****     if (__HAL_PWR_PVM1_EXTI_GET_FALLING_FLAG() != 0U)
 836:Drivers/STM32U0xx_HAL_Driver/Src/stm32u0xx_hal_pwr_ex.c ****     {
 837:Drivers/STM32U0xx_HAL_Driver/Src/stm32u0xx_hal_pwr_ex.c ****       /* PWR PVM USB interrupt user callback */
 838:Drivers/STM32U0xx_HAL_Driver/Src/stm32u0xx_hal_pwr_ex.c ****       HAL_PWREx_PVM1_Callback();
 839:Drivers/STM32U0xx_HAL_Driver/Src/stm32u0xx_hal_pwr_ex.c **** 
 840:Drivers/STM32U0xx_HAL_Driver/Src/stm32u0xx_hal_pwr_ex.c ****       /* Clear PWR EXTI pending bit */
 841:Drivers/STM32U0xx_HAL_Driver/Src/stm32u0xx_hal_pwr_ex.c ****       __HAL_PWR_PVM1_EXTI_CLEAR_FLAG();
 842:Drivers/STM32U0xx_HAL_Driver/Src/stm32u0xx_hal_pwr_ex.c ****     }
 843:Drivers/STM32U0xx_HAL_Driver/Src/stm32u0xx_hal_pwr_ex.c ****   }
 844:Drivers/STM32U0xx_HAL_Driver/Src/stm32u0xx_hal_pwr_ex.c **** #endif /* USB_DRD_FS */
 845:Drivers/STM32U0xx_HAL_Driver/Src/stm32u0xx_hal_pwr_ex.c ****   if (READ_BIT(PWR->CR2, PWR_PVM_3) != 0U)
 846:Drivers/STM32U0xx_HAL_Driver/Src/stm32u0xx_hal_pwr_ex.c ****   {
 847:Drivers/STM32U0xx_HAL_Driver/Src/stm32u0xx_hal_pwr_ex.c ****     /* Check PWR EXTI Rising flag */
 848:Drivers/STM32U0xx_HAL_Driver/Src/stm32u0xx_hal_pwr_ex.c ****     if (__HAL_PWR_PVM3_EXTI_GET_RISING_FLAG() != 0U)
 849:Drivers/STM32U0xx_HAL_Driver/Src/stm32u0xx_hal_pwr_ex.c ****     {
 850:Drivers/STM32U0xx_HAL_Driver/Src/stm32u0xx_hal_pwr_ex.c ****       /* PWR PVM interrupt user callback */
 851:Drivers/STM32U0xx_HAL_Driver/Src/stm32u0xx_hal_pwr_ex.c ****       HAL_PWREx_PVM3_Callback();
 852:Drivers/STM32U0xx_HAL_Driver/Src/stm32u0xx_hal_pwr_ex.c **** 
 853:Drivers/STM32U0xx_HAL_Driver/Src/stm32u0xx_hal_pwr_ex.c ****       /* Clear PWR EXTI pending bit */
ARM GAS  C:\Users\upo\AppData\Local\Temp\ccJiDZ9q.s 			page 37


 854:Drivers/STM32U0xx_HAL_Driver/Src/stm32u0xx_hal_pwr_ex.c ****       __HAL_PWR_PVM3_EXTI_CLEAR_FLAG();
 855:Drivers/STM32U0xx_HAL_Driver/Src/stm32u0xx_hal_pwr_ex.c ****     }
 856:Drivers/STM32U0xx_HAL_Driver/Src/stm32u0xx_hal_pwr_ex.c **** 
 857:Drivers/STM32U0xx_HAL_Driver/Src/stm32u0xx_hal_pwr_ex.c ****     /* Check PWR EXTI Falling flag */
 858:Drivers/STM32U0xx_HAL_Driver/Src/stm32u0xx_hal_pwr_ex.c ****     if (__HAL_PWR_PVM3_EXTI_GET_FALLING_FLAG() != 0U)
 859:Drivers/STM32U0xx_HAL_Driver/Src/stm32u0xx_hal_pwr_ex.c ****     {
 860:Drivers/STM32U0xx_HAL_Driver/Src/stm32u0xx_hal_pwr_ex.c ****       /* PWR PVM ADC interrupt user callback */
 861:Drivers/STM32U0xx_HAL_Driver/Src/stm32u0xx_hal_pwr_ex.c ****       HAL_PWREx_PVM3_Callback();
 862:Drivers/STM32U0xx_HAL_Driver/Src/stm32u0xx_hal_pwr_ex.c **** 
 863:Drivers/STM32U0xx_HAL_Driver/Src/stm32u0xx_hal_pwr_ex.c ****       /* Clear PWR EXTI pending bit */
 864:Drivers/STM32U0xx_HAL_Driver/Src/stm32u0xx_hal_pwr_ex.c ****       __HAL_PWR_PVM3_EXTI_CLEAR_FLAG();
 865:Drivers/STM32U0xx_HAL_Driver/Src/stm32u0xx_hal_pwr_ex.c ****     }
 866:Drivers/STM32U0xx_HAL_Driver/Src/stm32u0xx_hal_pwr_ex.c ****   }
 867:Drivers/STM32U0xx_HAL_Driver/Src/stm32u0xx_hal_pwr_ex.c **** 
 868:Drivers/STM32U0xx_HAL_Driver/Src/stm32u0xx_hal_pwr_ex.c ****   if (READ_BIT(PWR->CR2, PWR_PVM_4) != 0U)
 869:Drivers/STM32U0xx_HAL_Driver/Src/stm32u0xx_hal_pwr_ex.c ****   {
 870:Drivers/STM32U0xx_HAL_Driver/Src/stm32u0xx_hal_pwr_ex.c ****     /* Check PWR EXTI Rising flag */
 871:Drivers/STM32U0xx_HAL_Driver/Src/stm32u0xx_hal_pwr_ex.c ****     if (__HAL_PWR_PVM4_EXTI_GET_RISING_FLAG() != 0U)
 872:Drivers/STM32U0xx_HAL_Driver/Src/stm32u0xx_hal_pwr_ex.c ****     {
 873:Drivers/STM32U0xx_HAL_Driver/Src/stm32u0xx_hal_pwr_ex.c ****       /* PWR PVM interrupt user callback */
 874:Drivers/STM32U0xx_HAL_Driver/Src/stm32u0xx_hal_pwr_ex.c ****       HAL_PWREx_PVM4_Callback();
 875:Drivers/STM32U0xx_HAL_Driver/Src/stm32u0xx_hal_pwr_ex.c **** 
 876:Drivers/STM32U0xx_HAL_Driver/Src/stm32u0xx_hal_pwr_ex.c ****       /* Clear PWR EXTI pending bit */
 877:Drivers/STM32U0xx_HAL_Driver/Src/stm32u0xx_hal_pwr_ex.c ****       __HAL_PWR_PVM4_EXTI_CLEAR_FLAG();
 878:Drivers/STM32U0xx_HAL_Driver/Src/stm32u0xx_hal_pwr_ex.c ****     }
 879:Drivers/STM32U0xx_HAL_Driver/Src/stm32u0xx_hal_pwr_ex.c **** 
 880:Drivers/STM32U0xx_HAL_Driver/Src/stm32u0xx_hal_pwr_ex.c ****     /* Check PWR EXTI Falling flag */
 881:Drivers/STM32U0xx_HAL_Driver/Src/stm32u0xx_hal_pwr_ex.c ****     if (__HAL_PWR_PVM4_EXTI_GET_FALLING_FLAG() != 0U)
 882:Drivers/STM32U0xx_HAL_Driver/Src/stm32u0xx_hal_pwr_ex.c ****     {
 883:Drivers/STM32U0xx_HAL_Driver/Src/stm32u0xx_hal_pwr_ex.c ****       /* PWR PVM4 for DAC interrupt user callback */
 884:Drivers/STM32U0xx_HAL_Driver/Src/stm32u0xx_hal_pwr_ex.c ****       HAL_PWREx_PVM4_Callback();
 885:Drivers/STM32U0xx_HAL_Driver/Src/stm32u0xx_hal_pwr_ex.c **** 
 886:Drivers/STM32U0xx_HAL_Driver/Src/stm32u0xx_hal_pwr_ex.c ****       /* Clear PWR EXTI pending bit */
 887:Drivers/STM32U0xx_HAL_Driver/Src/stm32u0xx_hal_pwr_ex.c ****       __HAL_PWR_PVM4_EXTI_CLEAR_FLAG();
 888:Drivers/STM32U0xx_HAL_Driver/Src/stm32u0xx_hal_pwr_ex.c ****     }
 889:Drivers/STM32U0xx_HAL_Driver/Src/stm32u0xx_hal_pwr_ex.c ****   }
 890:Drivers/STM32U0xx_HAL_Driver/Src/stm32u0xx_hal_pwr_ex.c **** }
 891:Drivers/STM32U0xx_HAL_Driver/Src/stm32u0xx_hal_pwr_ex.c **** 
 892:Drivers/STM32U0xx_HAL_Driver/Src/stm32u0xx_hal_pwr_ex.c **** #if defined(USB_DRD_FS)
 893:Drivers/STM32U0xx_HAL_Driver/Src/stm32u0xx_hal_pwr_ex.c **** /**
 894:Drivers/STM32U0xx_HAL_Driver/Src/stm32u0xx_hal_pwr_ex.c ****   * @brief PWR PVM USB interrupt callback
 895:Drivers/STM32U0xx_HAL_Driver/Src/stm32u0xx_hal_pwr_ex.c ****   * @retval None
 896:Drivers/STM32U0xx_HAL_Driver/Src/stm32u0xx_hal_pwr_ex.c ****   */
 897:Drivers/STM32U0xx_HAL_Driver/Src/stm32u0xx_hal_pwr_ex.c **** __weak void HAL_PWREx_PVM1_Callback(void)
 898:Drivers/STM32U0xx_HAL_Driver/Src/stm32u0xx_hal_pwr_ex.c **** {
 1124              		.loc 1 898 1 is_stmt 1 view -0
 1125              		.cfi_startproc
 1126              		@ args = 0, pretend = 0, frame = 0
 1127              		@ frame_needed = 0, uses_anonymous_args = 0
 1128              		@ link register save eliminated.
 899:Drivers/STM32U0xx_HAL_Driver/Src/stm32u0xx_hal_pwr_ex.c ****   /* NOTE : This function should not be modified; when the callback is needed,
 900:Drivers/STM32U0xx_HAL_Driver/Src/stm32u0xx_hal_pwr_ex.c ****             HAL_PWREx_PVM_USBCallback() API can be implemented in the user file
 901:Drivers/STM32U0xx_HAL_Driver/Src/stm32u0xx_hal_pwr_ex.c ****    */
 902:Drivers/STM32U0xx_HAL_Driver/Src/stm32u0xx_hal_pwr_ex.c **** }
 1129              		.loc 1 902 1 view .LVU229
 1130              		@ sp needed
 1131 0000 7047     		bx	lr
ARM GAS  C:\Users\upo\AppData\Local\Temp\ccJiDZ9q.s 			page 38


 1132              		.cfi_endproc
 1133              	.LFE352:
 1135 0002 C046     		.section	.text.HAL_PWREx_PVM3_Callback,"ax",%progbits
 1136              		.align	1
 1137              		.p2align 2,,3
 1138              		.weak	HAL_PWREx_PVM3_Callback
 1139              		.syntax unified
 1140              		.code	16
 1141              		.thumb_func
 1143              	HAL_PWREx_PVM3_Callback:
 1144              	.LFB370:
 1145              		.cfi_startproc
 903:Drivers/STM32U0xx_HAL_Driver/Src/stm32u0xx_hal_pwr_ex.c **** #endif /* USB_DRD_FS */
 904:Drivers/STM32U0xx_HAL_Driver/Src/stm32u0xx_hal_pwr_ex.c **** 
 905:Drivers/STM32U0xx_HAL_Driver/Src/stm32u0xx_hal_pwr_ex.c **** /**
 906:Drivers/STM32U0xx_HAL_Driver/Src/stm32u0xx_hal_pwr_ex.c ****   * @brief PWR PVM ADC interrupt callback
 907:Drivers/STM32U0xx_HAL_Driver/Src/stm32u0xx_hal_pwr_ex.c ****   * @retval None
 908:Drivers/STM32U0xx_HAL_Driver/Src/stm32u0xx_hal_pwr_ex.c ****   */
 909:Drivers/STM32U0xx_HAL_Driver/Src/stm32u0xx_hal_pwr_ex.c **** __weak void HAL_PWREx_PVM3_Callback(void)
 1146              		.loc 1 909 13 view -0
 1147              		@ args = 0, pretend = 0, frame = 0
 1148              		@ frame_needed = 0, uses_anonymous_args = 0
 1149              		@ link register save eliminated.
 1150              		@ sp needed
 1151 0000 7047     		bx	lr
 1152              		.cfi_endproc
 1153              	.LFE370:
 1155 0002 C046     		.section	.text.HAL_PWREx_PVM4_Callback,"ax",%progbits
 1156              		.align	1
 1157              		.p2align 2,,3
 1158              		.weak	HAL_PWREx_PVM4_Callback
 1159              		.syntax unified
 1160              		.code	16
 1161              		.thumb_func
 1163              	HAL_PWREx_PVM4_Callback:
 1164              	.LFB372:
 1165              		.cfi_startproc
 910:Drivers/STM32U0xx_HAL_Driver/Src/stm32u0xx_hal_pwr_ex.c **** {
 911:Drivers/STM32U0xx_HAL_Driver/Src/stm32u0xx_hal_pwr_ex.c ****   /* NOTE : This function should not be modified; when the callback is needed,
 912:Drivers/STM32U0xx_HAL_Driver/Src/stm32u0xx_hal_pwr_ex.c ****             HAL_PWREx_PVM_ADCCallback() API can be implemented in the user file
 913:Drivers/STM32U0xx_HAL_Driver/Src/stm32u0xx_hal_pwr_ex.c ****    */
 914:Drivers/STM32U0xx_HAL_Driver/Src/stm32u0xx_hal_pwr_ex.c **** }
 915:Drivers/STM32U0xx_HAL_Driver/Src/stm32u0xx_hal_pwr_ex.c **** 
 916:Drivers/STM32U0xx_HAL_Driver/Src/stm32u0xx_hal_pwr_ex.c **** /**
 917:Drivers/STM32U0xx_HAL_Driver/Src/stm32u0xx_hal_pwr_ex.c ****   * @brief PWR PVM DAC interrupt callback
 918:Drivers/STM32U0xx_HAL_Driver/Src/stm32u0xx_hal_pwr_ex.c ****   * @retval None
 919:Drivers/STM32U0xx_HAL_Driver/Src/stm32u0xx_hal_pwr_ex.c ****   */
 920:Drivers/STM32U0xx_HAL_Driver/Src/stm32u0xx_hal_pwr_ex.c **** __weak void HAL_PWREx_PVM4_Callback(void)
 1166              		.loc 1 920 13 view -0
 1167              		@ args = 0, pretend = 0, frame = 0
 1168              		@ frame_needed = 0, uses_anonymous_args = 0
 1169              		@ link register save eliminated.
 1170              		@ sp needed
 1171 0000 7047     		bx	lr
 1172              		.cfi_endproc
 1173              	.LFE372:
 1175 0002 C046     		.section	.text.HAL_PWREx_PVD_PVM_IRQHandler,"ax",%progbits
ARM GAS  C:\Users\upo\AppData\Local\Temp\ccJiDZ9q.s 			page 39


 1176              		.align	1
 1177              		.p2align 2,,3
 1178              		.global	HAL_PWREx_PVD_PVM_IRQHandler
 1179              		.syntax unified
 1180              		.code	16
 1181              		.thumb_func
 1183              	HAL_PWREx_PVD_PVM_IRQHandler:
 1184              	.LFB351:
 795:Drivers/STM32U0xx_HAL_Driver/Src/stm32u0xx_hal_pwr_ex.c ****   /* Check if the Programmable Voltage Detector is enabled (PVD) */
 1185              		.loc 1 795 1 view -0
 1186              		.cfi_startproc
 1187              		@ args = 0, pretend = 0, frame = 0
 1188              		@ frame_needed = 0, uses_anonymous_args = 0
 797:Drivers/STM32U0xx_HAL_Driver/Src/stm32u0xx_hal_pwr_ex.c ****   {
 1189              		.loc 1 797 3 view .LVU233
 797:Drivers/STM32U0xx_HAL_Driver/Src/stm32u0xx_hal_pwr_ex.c ****   {
 1190              		.loc 1 797 7 is_stmt 0 view .LVU234
 1191 0000 3F4B     		ldr	r3, .L207
 795:Drivers/STM32U0xx_HAL_Driver/Src/stm32u0xx_hal_pwr_ex.c ****   /* Check if the Programmable Voltage Detector is enabled (PVD) */
 1192              		.loc 1 795 1 view .LVU235
 1193 0002 70B5     		push	{r4, r5, r6, lr}
 1194              	.LCFI3:
 1195              		.cfi_def_cfa_offset 16
 1196              		.cfi_offset 4, -16
 1197              		.cfi_offset 5, -12
 1198              		.cfi_offset 6, -8
 1199              		.cfi_offset 14, -4
 797:Drivers/STM32U0xx_HAL_Driver/Src/stm32u0xx_hal_pwr_ex.c ****   {
 1200              		.loc 1 797 7 view .LVU236
 1201 0004 5B68     		ldr	r3, [r3, #4]
 797:Drivers/STM32U0xx_HAL_Driver/Src/stm32u0xx_hal_pwr_ex.c ****   {
 1202              		.loc 1 797 6 view .LVU237
 1203 0006 DB07     		lsls	r3, r3, #31
 1204 0008 0BD5     		bpl	.L156
 800:Drivers/STM32U0xx_HAL_Driver/Src/stm32u0xx_hal_pwr_ex.c ****     {
 1205              		.loc 1 800 5 is_stmt 1 view .LVU238
 800:Drivers/STM32U0xx_HAL_Driver/Src/stm32u0xx_hal_pwr_ex.c ****     {
 1206              		.loc 1 800 9 is_stmt 0 view .LVU239
 1207 000a 8025     		movs	r5, #128
 1208 000c 3D4C     		ldr	r4, .L207+4
 1209 000e 6D02     		lsls	r5, r5, #9
 1210 0010 E368     		ldr	r3, [r4, #12]
 800:Drivers/STM32U0xx_HAL_Driver/Src/stm32u0xx_hal_pwr_ex.c ****     {
 1211              		.loc 1 800 8 view .LVU240
 1212 0012 2B42     		tst	r3, r5
 1213 0014 3BD1     		bne	.L199
 806:Drivers/STM32U0xx_HAL_Driver/Src/stm32u0xx_hal_pwr_ex.c ****     }
 1214              		.loc 1 806 7 is_stmt 1 discriminator 1 view .LVU241
 810:Drivers/STM32U0xx_HAL_Driver/Src/stm32u0xx_hal_pwr_ex.c ****     {
 1215              		.loc 1 810 5 discriminator 1 view .LVU242
 810:Drivers/STM32U0xx_HAL_Driver/Src/stm32u0xx_hal_pwr_ex.c ****     {
 1216              		.loc 1 810 9 is_stmt 0 discriminator 1 view .LVU243
 1217 0016 8025     		movs	r5, #128
 1218 0018 3A4C     		ldr	r4, .L207+4
 1219 001a 6D02     		lsls	r5, r5, #9
 1220 001c 2369     		ldr	r3, [r4, #16]
 810:Drivers/STM32U0xx_HAL_Driver/Src/stm32u0xx_hal_pwr_ex.c ****     {
ARM GAS  C:\Users\upo\AppData\Local\Temp\ccJiDZ9q.s 			page 40


 1221              		.loc 1 810 8 discriminator 1 view .LVU244
 1222 001e 2B42     		tst	r3, r5
 1223 0020 3FD1     		bne	.L200
 1224              	.L156:
 816:Drivers/STM32U0xx_HAL_Driver/Src/stm32u0xx_hal_pwr_ex.c ****     }
 1225              		.loc 1 816 7 is_stmt 1 discriminator 1 view .LVU245
 822:Drivers/STM32U0xx_HAL_Driver/Src/stm32u0xx_hal_pwr_ex.c ****   {
 1226              		.loc 1 822 3 discriminator 1 view .LVU246
 822:Drivers/STM32U0xx_HAL_Driver/Src/stm32u0xx_hal_pwr_ex.c ****   {
 1227              		.loc 1 822 7 is_stmt 0 discriminator 1 view .LVU247
 1228 0022 374B     		ldr	r3, .L207
 1229 0024 5B68     		ldr	r3, [r3, #4]
 822:Drivers/STM32U0xx_HAL_Driver/Src/stm32u0xx_hal_pwr_ex.c ****   {
 1230              		.loc 1 822 6 discriminator 1 view .LVU248
 1231 0026 DB06     		lsls	r3, r3, #27
 1232 0028 0BD5     		bpl	.L160
 825:Drivers/STM32U0xx_HAL_Driver/Src/stm32u0xx_hal_pwr_ex.c ****     {
 1233              		.loc 1 825 5 is_stmt 1 view .LVU249
 825:Drivers/STM32U0xx_HAL_Driver/Src/stm32u0xx_hal_pwr_ex.c ****     {
 1234              		.loc 1 825 9 is_stmt 0 view .LVU250
 1235 002a 8025     		movs	r5, #128
 1236 002c 354C     		ldr	r4, .L207+4
 1237 002e 6D03     		lsls	r5, r5, #13
 1238 0030 E368     		ldr	r3, [r4, #12]
 825:Drivers/STM32U0xx_HAL_Driver/Src/stm32u0xx_hal_pwr_ex.c ****     {
 1239              		.loc 1 825 8 view .LVU251
 1240 0032 2B42     		tst	r3, r5
 1241 0034 3AD1     		bne	.L201
 831:Drivers/STM32U0xx_HAL_Driver/Src/stm32u0xx_hal_pwr_ex.c ****     }
 1242              		.loc 1 831 7 is_stmt 1 discriminator 1 view .LVU252
 835:Drivers/STM32U0xx_HAL_Driver/Src/stm32u0xx_hal_pwr_ex.c ****     {
 1243              		.loc 1 835 5 discriminator 1 view .LVU253
 835:Drivers/STM32U0xx_HAL_Driver/Src/stm32u0xx_hal_pwr_ex.c ****     {
 1244              		.loc 1 835 9 is_stmt 0 discriminator 1 view .LVU254
 1245 0036 8025     		movs	r5, #128
 1246 0038 324C     		ldr	r4, .L207+4
 1247 003a 6D03     		lsls	r5, r5, #13
 1248 003c 2369     		ldr	r3, [r4, #16]
 835:Drivers/STM32U0xx_HAL_Driver/Src/stm32u0xx_hal_pwr_ex.c ****     {
 1249              		.loc 1 835 8 discriminator 1 view .LVU255
 1250 003e 2B42     		tst	r3, r5
 1251 0040 3ED1     		bne	.L202
 1252              	.L160:
 841:Drivers/STM32U0xx_HAL_Driver/Src/stm32u0xx_hal_pwr_ex.c ****     }
 1253              		.loc 1 841 7 is_stmt 1 discriminator 1 view .LVU256
 845:Drivers/STM32U0xx_HAL_Driver/Src/stm32u0xx_hal_pwr_ex.c ****   {
 1254              		.loc 1 845 3 discriminator 1 view .LVU257
 845:Drivers/STM32U0xx_HAL_Driver/Src/stm32u0xx_hal_pwr_ex.c ****   {
 1255              		.loc 1 845 7 is_stmt 0 discriminator 1 view .LVU258
 1256 0042 2F4B     		ldr	r3, .L207
 1257 0044 5B68     		ldr	r3, [r3, #4]
 845:Drivers/STM32U0xx_HAL_Driver/Src/stm32u0xx_hal_pwr_ex.c ****   {
 1258              		.loc 1 845 6 discriminator 1 view .LVU259
 1259 0046 9B06     		lsls	r3, r3, #26
 1260 0048 0BD5     		bpl	.L164
 848:Drivers/STM32U0xx_HAL_Driver/Src/stm32u0xx_hal_pwr_ex.c ****     {
 1261              		.loc 1 848 5 is_stmt 1 view .LVU260
ARM GAS  C:\Users\upo\AppData\Local\Temp\ccJiDZ9q.s 			page 41


 848:Drivers/STM32U0xx_HAL_Driver/Src/stm32u0xx_hal_pwr_ex.c ****     {
 1262              		.loc 1 848 9 is_stmt 0 view .LVU261
 1263 004a 8025     		movs	r5, #128
 1264 004c 2D4C     		ldr	r4, .L207+4
 1265 004e AD03     		lsls	r5, r5, #14
 1266 0050 E368     		ldr	r3, [r4, #12]
 848:Drivers/STM32U0xx_HAL_Driver/Src/stm32u0xx_hal_pwr_ex.c ****     {
 1267              		.loc 1 848 8 view .LVU262
 1268 0052 2B42     		tst	r3, r5
 1269 0054 39D1     		bne	.L203
 854:Drivers/STM32U0xx_HAL_Driver/Src/stm32u0xx_hal_pwr_ex.c ****     }
 1270              		.loc 1 854 7 is_stmt 1 discriminator 1 view .LVU263
 858:Drivers/STM32U0xx_HAL_Driver/Src/stm32u0xx_hal_pwr_ex.c ****     {
 1271              		.loc 1 858 5 discriminator 1 view .LVU264
 858:Drivers/STM32U0xx_HAL_Driver/Src/stm32u0xx_hal_pwr_ex.c ****     {
 1272              		.loc 1 858 9 is_stmt 0 discriminator 1 view .LVU265
 1273 0056 8025     		movs	r5, #128
 1274 0058 2A4C     		ldr	r4, .L207+4
 1275 005a AD03     		lsls	r5, r5, #14
 1276 005c 2369     		ldr	r3, [r4, #16]
 858:Drivers/STM32U0xx_HAL_Driver/Src/stm32u0xx_hal_pwr_ex.c ****     {
 1277              		.loc 1 858 8 discriminator 1 view .LVU266
 1278 005e 2B42     		tst	r3, r5
 1279 0060 3DD1     		bne	.L204
 1280              	.L164:
 864:Drivers/STM32U0xx_HAL_Driver/Src/stm32u0xx_hal_pwr_ex.c ****     }
 1281              		.loc 1 864 7 is_stmt 1 discriminator 1 view .LVU267
 868:Drivers/STM32U0xx_HAL_Driver/Src/stm32u0xx_hal_pwr_ex.c ****   {
 1282              		.loc 1 868 3 discriminator 1 view .LVU268
 868:Drivers/STM32U0xx_HAL_Driver/Src/stm32u0xx_hal_pwr_ex.c ****   {
 1283              		.loc 1 868 7 is_stmt 0 discriminator 1 view .LVU269
 1284 0062 274B     		ldr	r3, .L207
 1285 0064 5B68     		ldr	r3, [r3, #4]
 868:Drivers/STM32U0xx_HAL_Driver/Src/stm32u0xx_hal_pwr_ex.c ****   {
 1286              		.loc 1 868 6 discriminator 1 view .LVU270
 1287 0066 5B06     		lsls	r3, r3, #25
 1288 0068 0BD5     		bpl	.L154
 871:Drivers/STM32U0xx_HAL_Driver/Src/stm32u0xx_hal_pwr_ex.c ****     {
 1289              		.loc 1 871 5 is_stmt 1 view .LVU271
 871:Drivers/STM32U0xx_HAL_Driver/Src/stm32u0xx_hal_pwr_ex.c ****     {
 1290              		.loc 1 871 9 is_stmt 0 view .LVU272
 1291 006a 8025     		movs	r5, #128
 1292 006c 254C     		ldr	r4, .L207+4
 1293 006e ED03     		lsls	r5, r5, #15
 1294 0070 E368     		ldr	r3, [r4, #12]
 871:Drivers/STM32U0xx_HAL_Driver/Src/stm32u0xx_hal_pwr_ex.c ****     {
 1295              		.loc 1 871 8 view .LVU273
 1296 0072 2B42     		tst	r3, r5
 1297 0074 38D1     		bne	.L205
 877:Drivers/STM32U0xx_HAL_Driver/Src/stm32u0xx_hal_pwr_ex.c ****     }
 1298              		.loc 1 877 7 is_stmt 1 discriminator 1 view .LVU274
 881:Drivers/STM32U0xx_HAL_Driver/Src/stm32u0xx_hal_pwr_ex.c ****     {
 1299              		.loc 1 881 5 discriminator 1 view .LVU275
 881:Drivers/STM32U0xx_HAL_Driver/Src/stm32u0xx_hal_pwr_ex.c ****     {
 1300              		.loc 1 881 9 is_stmt 0 discriminator 1 view .LVU276
 1301 0076 8025     		movs	r5, #128
 1302 0078 224C     		ldr	r4, .L207+4
ARM GAS  C:\Users\upo\AppData\Local\Temp\ccJiDZ9q.s 			page 42


 1303 007a ED03     		lsls	r5, r5, #15
 1304 007c 2369     		ldr	r3, [r4, #16]
 881:Drivers/STM32U0xx_HAL_Driver/Src/stm32u0xx_hal_pwr_ex.c ****     {
 1305              		.loc 1 881 8 discriminator 1 view .LVU277
 1306 007e 2B42     		tst	r3, r5
 1307 0080 00D1     		bne	.L206
 1308              	.L154:
 890:Drivers/STM32U0xx_HAL_Driver/Src/stm32u0xx_hal_pwr_ex.c **** 
 1309              		.loc 1 890 1 view .LVU278
 1310              		@ sp needed
 1311 0082 70BD     		pop	{r4, r5, r6, pc}
 1312              	.L206:
 884:Drivers/STM32U0xx_HAL_Driver/Src/stm32u0xx_hal_pwr_ex.c **** 
 1313              		.loc 1 884 7 is_stmt 1 view .LVU279
 1314 0084 FFF7FEFF 		bl	HAL_PWREx_PVM4_Callback
 1315              	.LVL26:
 887:Drivers/STM32U0xx_HAL_Driver/Src/stm32u0xx_hal_pwr_ex.c ****     }
 1316              		.loc 1 887 7 view .LVU280
 887:Drivers/STM32U0xx_HAL_Driver/Src/stm32u0xx_hal_pwr_ex.c ****     }
 1317              		.loc 1 887 7 view .LVU281
 1318 0088 E560     		str	r5, [r4, #12]
 887:Drivers/STM32U0xx_HAL_Driver/Src/stm32u0xx_hal_pwr_ex.c ****     }
 1319              		.loc 1 887 7 view .LVU282
 1320 008a 2561     		str	r5, [r4, #16]
 887:Drivers/STM32U0xx_HAL_Driver/Src/stm32u0xx_hal_pwr_ex.c ****     }
 1321              		.loc 1 887 7 view .LVU283
 890:Drivers/STM32U0xx_HAL_Driver/Src/stm32u0xx_hal_pwr_ex.c **** 
 1322              		.loc 1 890 1 is_stmt 0 view .LVU284
 1323 008c F9E7     		b	.L154
 1324              	.L199:
 803:Drivers/STM32U0xx_HAL_Driver/Src/stm32u0xx_hal_pwr_ex.c **** 
 1325              		.loc 1 803 7 is_stmt 1 view .LVU285
 1326 008e FFF7FEFF 		bl	HAL_PWR_PVDCallback
 1327              	.LVL27:
 806:Drivers/STM32U0xx_HAL_Driver/Src/stm32u0xx_hal_pwr_ex.c ****     }
 1328              		.loc 1 806 7 view .LVU286
 806:Drivers/STM32U0xx_HAL_Driver/Src/stm32u0xx_hal_pwr_ex.c ****     }
 1329              		.loc 1 806 7 view .LVU287
 1330 0092 E560     		str	r5, [r4, #12]
 806:Drivers/STM32U0xx_HAL_Driver/Src/stm32u0xx_hal_pwr_ex.c ****     }
 1331              		.loc 1 806 7 view .LVU288
 1332 0094 2561     		str	r5, [r4, #16]
 806:Drivers/STM32U0xx_HAL_Driver/Src/stm32u0xx_hal_pwr_ex.c ****     }
 1333              		.loc 1 806 7 view .LVU289
 810:Drivers/STM32U0xx_HAL_Driver/Src/stm32u0xx_hal_pwr_ex.c ****     {
 1334              		.loc 1 810 5 view .LVU290
 810:Drivers/STM32U0xx_HAL_Driver/Src/stm32u0xx_hal_pwr_ex.c ****     {
 1335              		.loc 1 810 9 is_stmt 0 view .LVU291
 1336 0096 8025     		movs	r5, #128
 1337 0098 1A4C     		ldr	r4, .L207+4
 1338 009a 6D02     		lsls	r5, r5, #9
 1339 009c 2369     		ldr	r3, [r4, #16]
 810:Drivers/STM32U0xx_HAL_Driver/Src/stm32u0xx_hal_pwr_ex.c ****     {
 1340              		.loc 1 810 8 view .LVU292
 1341 009e 2B42     		tst	r3, r5
 1342 00a0 BFD0     		beq	.L156
 1343              	.L200:
ARM GAS  C:\Users\upo\AppData\Local\Temp\ccJiDZ9q.s 			page 43


 813:Drivers/STM32U0xx_HAL_Driver/Src/stm32u0xx_hal_pwr_ex.c **** 
 1344              		.loc 1 813 7 is_stmt 1 view .LVU293
 1345 00a2 FFF7FEFF 		bl	HAL_PWR_PVDCallback
 1346              	.LVL28:
 816:Drivers/STM32U0xx_HAL_Driver/Src/stm32u0xx_hal_pwr_ex.c ****     }
 1347              		.loc 1 816 7 view .LVU294
 816:Drivers/STM32U0xx_HAL_Driver/Src/stm32u0xx_hal_pwr_ex.c ****     }
 1348              		.loc 1 816 7 view .LVU295
 1349 00a6 E560     		str	r5, [r4, #12]
 816:Drivers/STM32U0xx_HAL_Driver/Src/stm32u0xx_hal_pwr_ex.c ****     }
 1350              		.loc 1 816 7 view .LVU296
 1351 00a8 2561     		str	r5, [r4, #16]
 1352 00aa BAE7     		b	.L156
 1353              	.L201:
 828:Drivers/STM32U0xx_HAL_Driver/Src/stm32u0xx_hal_pwr_ex.c **** 
 1354              		.loc 1 828 7 view .LVU297
 1355 00ac FFF7FEFF 		bl	HAL_PWREx_PVM1_Callback
 1356              	.LVL29:
 831:Drivers/STM32U0xx_HAL_Driver/Src/stm32u0xx_hal_pwr_ex.c ****     }
 1357              		.loc 1 831 7 view .LVU298
 831:Drivers/STM32U0xx_HAL_Driver/Src/stm32u0xx_hal_pwr_ex.c ****     }
 1358              		.loc 1 831 7 view .LVU299
 1359 00b0 E560     		str	r5, [r4, #12]
 831:Drivers/STM32U0xx_HAL_Driver/Src/stm32u0xx_hal_pwr_ex.c ****     }
 1360              		.loc 1 831 7 view .LVU300
 1361 00b2 2561     		str	r5, [r4, #16]
 831:Drivers/STM32U0xx_HAL_Driver/Src/stm32u0xx_hal_pwr_ex.c ****     }
 1362              		.loc 1 831 7 view .LVU301
 835:Drivers/STM32U0xx_HAL_Driver/Src/stm32u0xx_hal_pwr_ex.c ****     {
 1363              		.loc 1 835 5 view .LVU302
 835:Drivers/STM32U0xx_HAL_Driver/Src/stm32u0xx_hal_pwr_ex.c ****     {
 1364              		.loc 1 835 9 is_stmt 0 view .LVU303
 1365 00b4 8025     		movs	r5, #128
 1366 00b6 134C     		ldr	r4, .L207+4
 1367 00b8 6D03     		lsls	r5, r5, #13
 1368 00ba 2369     		ldr	r3, [r4, #16]
 835:Drivers/STM32U0xx_HAL_Driver/Src/stm32u0xx_hal_pwr_ex.c ****     {
 1369              		.loc 1 835 8 view .LVU304
 1370 00bc 2B42     		tst	r3, r5
 1371 00be C0D0     		beq	.L160
 1372              	.L202:
 838:Drivers/STM32U0xx_HAL_Driver/Src/stm32u0xx_hal_pwr_ex.c **** 
 1373              		.loc 1 838 7 is_stmt 1 view .LVU305
 1374 00c0 FFF7FEFF 		bl	HAL_PWREx_PVM1_Callback
 1375              	.LVL30:
 841:Drivers/STM32U0xx_HAL_Driver/Src/stm32u0xx_hal_pwr_ex.c ****     }
 1376              		.loc 1 841 7 view .LVU306
 841:Drivers/STM32U0xx_HAL_Driver/Src/stm32u0xx_hal_pwr_ex.c ****     }
 1377              		.loc 1 841 7 view .LVU307
 1378 00c4 E560     		str	r5, [r4, #12]
 841:Drivers/STM32U0xx_HAL_Driver/Src/stm32u0xx_hal_pwr_ex.c ****     }
 1379              		.loc 1 841 7 view .LVU308
 1380 00c6 2561     		str	r5, [r4, #16]
 1381 00c8 BBE7     		b	.L160
 1382              	.L203:
 851:Drivers/STM32U0xx_HAL_Driver/Src/stm32u0xx_hal_pwr_ex.c **** 
 1383              		.loc 1 851 7 view .LVU309
ARM GAS  C:\Users\upo\AppData\Local\Temp\ccJiDZ9q.s 			page 44


 1384 00ca FFF7FEFF 		bl	HAL_PWREx_PVM3_Callback
 1385              	.LVL31:
 854:Drivers/STM32U0xx_HAL_Driver/Src/stm32u0xx_hal_pwr_ex.c ****     }
 1386              		.loc 1 854 7 view .LVU310
 854:Drivers/STM32U0xx_HAL_Driver/Src/stm32u0xx_hal_pwr_ex.c ****     }
 1387              		.loc 1 854 7 view .LVU311
 1388 00ce E560     		str	r5, [r4, #12]
 854:Drivers/STM32U0xx_HAL_Driver/Src/stm32u0xx_hal_pwr_ex.c ****     }
 1389              		.loc 1 854 7 view .LVU312
 1390 00d0 2561     		str	r5, [r4, #16]
 854:Drivers/STM32U0xx_HAL_Driver/Src/stm32u0xx_hal_pwr_ex.c ****     }
 1391              		.loc 1 854 7 view .LVU313
 858:Drivers/STM32U0xx_HAL_Driver/Src/stm32u0xx_hal_pwr_ex.c ****     {
 1392              		.loc 1 858 5 view .LVU314
 858:Drivers/STM32U0xx_HAL_Driver/Src/stm32u0xx_hal_pwr_ex.c ****     {
 1393              		.loc 1 858 9 is_stmt 0 view .LVU315
 1394 00d2 8025     		movs	r5, #128
 1395 00d4 0B4C     		ldr	r4, .L207+4
 1396 00d6 AD03     		lsls	r5, r5, #14
 1397 00d8 2369     		ldr	r3, [r4, #16]
 858:Drivers/STM32U0xx_HAL_Driver/Src/stm32u0xx_hal_pwr_ex.c ****     {
 1398              		.loc 1 858 8 view .LVU316
 1399 00da 2B42     		tst	r3, r5
 1400 00dc C1D0     		beq	.L164
 1401              	.L204:
 861:Drivers/STM32U0xx_HAL_Driver/Src/stm32u0xx_hal_pwr_ex.c **** 
 1402              		.loc 1 861 7 is_stmt 1 view .LVU317
 1403 00de FFF7FEFF 		bl	HAL_PWREx_PVM3_Callback
 1404              	.LVL32:
 864:Drivers/STM32U0xx_HAL_Driver/Src/stm32u0xx_hal_pwr_ex.c ****     }
 1405              		.loc 1 864 7 view .LVU318
 864:Drivers/STM32U0xx_HAL_Driver/Src/stm32u0xx_hal_pwr_ex.c ****     }
 1406              		.loc 1 864 7 view .LVU319
 1407 00e2 E560     		str	r5, [r4, #12]
 864:Drivers/STM32U0xx_HAL_Driver/Src/stm32u0xx_hal_pwr_ex.c ****     }
 1408              		.loc 1 864 7 view .LVU320
 1409 00e4 2561     		str	r5, [r4, #16]
 1410 00e6 BCE7     		b	.L164
 1411              	.L205:
 874:Drivers/STM32U0xx_HAL_Driver/Src/stm32u0xx_hal_pwr_ex.c **** 
 1412              		.loc 1 874 7 view .LVU321
 1413 00e8 FFF7FEFF 		bl	HAL_PWREx_PVM4_Callback
 1414              	.LVL33:
 877:Drivers/STM32U0xx_HAL_Driver/Src/stm32u0xx_hal_pwr_ex.c ****     }
 1415              		.loc 1 877 7 view .LVU322
 877:Drivers/STM32U0xx_HAL_Driver/Src/stm32u0xx_hal_pwr_ex.c ****     }
 1416              		.loc 1 877 7 view .LVU323
 1417 00ec E560     		str	r5, [r4, #12]
 877:Drivers/STM32U0xx_HAL_Driver/Src/stm32u0xx_hal_pwr_ex.c ****     }
 1418              		.loc 1 877 7 view .LVU324
 1419 00ee 2561     		str	r5, [r4, #16]
 877:Drivers/STM32U0xx_HAL_Driver/Src/stm32u0xx_hal_pwr_ex.c ****     }
 1420              		.loc 1 877 7 view .LVU325
 881:Drivers/STM32U0xx_HAL_Driver/Src/stm32u0xx_hal_pwr_ex.c ****     {
 1421              		.loc 1 881 5 view .LVU326
 881:Drivers/STM32U0xx_HAL_Driver/Src/stm32u0xx_hal_pwr_ex.c ****     {
 1422              		.loc 1 881 9 is_stmt 0 view .LVU327
ARM GAS  C:\Users\upo\AppData\Local\Temp\ccJiDZ9q.s 			page 45


 1423 00f0 8025     		movs	r5, #128
 1424 00f2 044C     		ldr	r4, .L207+4
 1425 00f4 ED03     		lsls	r5, r5, #15
 1426 00f6 2369     		ldr	r3, [r4, #16]
 881:Drivers/STM32U0xx_HAL_Driver/Src/stm32u0xx_hal_pwr_ex.c ****     {
 1427              		.loc 1 881 8 view .LVU328
 1428 00f8 2B42     		tst	r3, r5
 1429 00fa C2D0     		beq	.L154
 1430 00fc C2E7     		b	.L206
 1431              	.L208:
 1432 00fe C046     		.align	2
 1433              	.L207:
 1434 0100 00700040 		.word	1073770496
 1435 0104 00180240 		.word	1073879040
 1436              		.cfi_endproc
 1437              	.LFE351:
 1439              		.section	.text.HAL_PWREx_EnableInternalWakeUpLine,"ax",%progbits
 1440              		.align	1
 1441              		.p2align 2,,3
 1442              		.global	HAL_PWREx_EnableInternalWakeUpLine
 1443              		.syntax unified
 1444              		.code	16
 1445              		.thumb_func
 1447              	HAL_PWREx_EnableInternalWakeUpLine:
 1448              	.LFB355:
 921:Drivers/STM32U0xx_HAL_Driver/Src/stm32u0xx_hal_pwr_ex.c **** {
 922:Drivers/STM32U0xx_HAL_Driver/Src/stm32u0xx_hal_pwr_ex.c ****   /* NOTE : This function should not be modified; when the callback is needed,
 923:Drivers/STM32U0xx_HAL_Driver/Src/stm32u0xx_hal_pwr_ex.c ****             HAL_PWREx_PVM_DACCallback() API can be implemented in the user file
 924:Drivers/STM32U0xx_HAL_Driver/Src/stm32u0xx_hal_pwr_ex.c ****    */
 925:Drivers/STM32U0xx_HAL_Driver/Src/stm32u0xx_hal_pwr_ex.c **** }
 926:Drivers/STM32U0xx_HAL_Driver/Src/stm32u0xx_hal_pwr_ex.c **** 
 927:Drivers/STM32U0xx_HAL_Driver/Src/stm32u0xx_hal_pwr_ex.c **** /**
 928:Drivers/STM32U0xx_HAL_Driver/Src/stm32u0xx_hal_pwr_ex.c ****   * @brief Enable Internal Wake-up Line.
 929:Drivers/STM32U0xx_HAL_Driver/Src/stm32u0xx_hal_pwr_ex.c ****   * @retval None
 930:Drivers/STM32U0xx_HAL_Driver/Src/stm32u0xx_hal_pwr_ex.c ****   */
 931:Drivers/STM32U0xx_HAL_Driver/Src/stm32u0xx_hal_pwr_ex.c **** void HAL_PWREx_EnableInternalWakeUpLine(void)
 932:Drivers/STM32U0xx_HAL_Driver/Src/stm32u0xx_hal_pwr_ex.c **** {
 1449              		.loc 1 932 1 is_stmt 1 view -0
 1450              		.cfi_startproc
 1451              		@ args = 0, pretend = 0, frame = 0
 1452              		@ frame_needed = 0, uses_anonymous_args = 0
 1453              		@ link register save eliminated.
 933:Drivers/STM32U0xx_HAL_Driver/Src/stm32u0xx_hal_pwr_ex.c ****   SET_BIT(PWR->CR3, PWR_CR3_EIWUL);
 1454              		.loc 1 933 3 view .LVU330
 1455 0000 8023     		movs	r3, #128
 934:Drivers/STM32U0xx_HAL_Driver/Src/stm32u0xx_hal_pwr_ex.c **** }
 1456              		.loc 1 934 1 is_stmt 0 view .LVU331
 1457              		@ sp needed
 933:Drivers/STM32U0xx_HAL_Driver/Src/stm32u0xx_hal_pwr_ex.c ****   SET_BIT(PWR->CR3, PWR_CR3_EIWUL);
 1458              		.loc 1 933 3 view .LVU332
 1459 0002 034A     		ldr	r2, .L210
 1460 0004 1B02     		lsls	r3, r3, #8
 1461 0006 9168     		ldr	r1, [r2, #8]
 1462 0008 0B43     		orrs	r3, r1
 1463 000a 9360     		str	r3, [r2, #8]
 1464              		.loc 1 934 1 view .LVU333
 1465 000c 7047     		bx	lr
ARM GAS  C:\Users\upo\AppData\Local\Temp\ccJiDZ9q.s 			page 46


 1466              	.L211:
 1467 000e C046     		.align	2
 1468              	.L210:
 1469 0010 00700040 		.word	1073770496
 1470              		.cfi_endproc
 1471              	.LFE355:
 1473              		.section	.text.HAL_PWREx_DisableInternalWakeUpLine,"ax",%progbits
 1474              		.align	1
 1475              		.p2align 2,,3
 1476              		.global	HAL_PWREx_DisableInternalWakeUpLine
 1477              		.syntax unified
 1478              		.code	16
 1479              		.thumb_func
 1481              	HAL_PWREx_DisableInternalWakeUpLine:
 1482              	.LFB356:
 935:Drivers/STM32U0xx_HAL_Driver/Src/stm32u0xx_hal_pwr_ex.c **** 
 936:Drivers/STM32U0xx_HAL_Driver/Src/stm32u0xx_hal_pwr_ex.c **** /**
 937:Drivers/STM32U0xx_HAL_Driver/Src/stm32u0xx_hal_pwr_ex.c ****   * @brief Disable Internal Wake-up Line.
 938:Drivers/STM32U0xx_HAL_Driver/Src/stm32u0xx_hal_pwr_ex.c ****   * @retval None
 939:Drivers/STM32U0xx_HAL_Driver/Src/stm32u0xx_hal_pwr_ex.c ****   */
 940:Drivers/STM32U0xx_HAL_Driver/Src/stm32u0xx_hal_pwr_ex.c **** void HAL_PWREx_DisableInternalWakeUpLine(void)
 941:Drivers/STM32U0xx_HAL_Driver/Src/stm32u0xx_hal_pwr_ex.c **** {
 1483              		.loc 1 941 1 is_stmt 1 view -0
 1484              		.cfi_startproc
 1485              		@ args = 0, pretend = 0, frame = 0
 1486              		@ frame_needed = 0, uses_anonymous_args = 0
 1487              		@ link register save eliminated.
 942:Drivers/STM32U0xx_HAL_Driver/Src/stm32u0xx_hal_pwr_ex.c ****   CLEAR_BIT(PWR->CR3, PWR_CR3_EIWUL);
 1488              		.loc 1 942 3 view .LVU335
 1489 0000 024A     		ldr	r2, .L213
 1490 0002 0349     		ldr	r1, .L213+4
 1491 0004 9368     		ldr	r3, [r2, #8]
 943:Drivers/STM32U0xx_HAL_Driver/Src/stm32u0xx_hal_pwr_ex.c **** }
 1492              		.loc 1 943 1 is_stmt 0 view .LVU336
 1493              		@ sp needed
 942:Drivers/STM32U0xx_HAL_Driver/Src/stm32u0xx_hal_pwr_ex.c ****   CLEAR_BIT(PWR->CR3, PWR_CR3_EIWUL);
 1494              		.loc 1 942 3 view .LVU337
 1495 0006 0B40     		ands	r3, r1
 1496 0008 9360     		str	r3, [r2, #8]
 1497              		.loc 1 943 1 view .LVU338
 1498 000a 7047     		bx	lr
 1499              	.L214:
 1500              		.align	2
 1501              	.L213:
 1502 000c 00700040 		.word	1073770496
 1503 0010 FF7FFFFF 		.word	-32769
 1504              		.cfi_endproc
 1505              	.LFE356:
 1507              		.section	.text.HAL_PWREx_EnableSRAMContentRetention,"ax",%progbits
 1508              		.align	1
 1509              		.p2align 2,,3
 1510              		.global	HAL_PWREx_EnableSRAMContentRetention
 1511              		.syntax unified
 1512              		.code	16
 1513              		.thumb_func
 1515              	HAL_PWREx_EnableSRAMContentRetention:
 1516              	.LFB357:
ARM GAS  C:\Users\upo\AppData\Local\Temp\ccJiDZ9q.s 			page 47


 944:Drivers/STM32U0xx_HAL_Driver/Src/stm32u0xx_hal_pwr_ex.c **** /**
 945:Drivers/STM32U0xx_HAL_Driver/Src/stm32u0xx_hal_pwr_ex.c ****   * @}
 946:Drivers/STM32U0xx_HAL_Driver/Src/stm32u0xx_hal_pwr_ex.c ****   */
 947:Drivers/STM32U0xx_HAL_Driver/Src/stm32u0xx_hal_pwr_ex.c **** 
 948:Drivers/STM32U0xx_HAL_Driver/Src/stm32u0xx_hal_pwr_ex.c **** /** @defgroup PWREx_Exported_Functions_Group4 Memories Retention Functions
 949:Drivers/STM32U0xx_HAL_Driver/Src/stm32u0xx_hal_pwr_ex.c ****   * @brief    Memories retention functions
 950:Drivers/STM32U0xx_HAL_Driver/Src/stm32u0xx_hal_pwr_ex.c ****   *
 951:Drivers/STM32U0xx_HAL_Driver/Src/stm32u0xx_hal_pwr_ex.c **** @verbatim
 952:Drivers/STM32U0xx_HAL_Driver/Src/stm32u0xx_hal_pwr_ex.c ****  ===============================================================================
 953:Drivers/STM32U0xx_HAL_Driver/Src/stm32u0xx_hal_pwr_ex.c ****                      ##### Memories Retention Functions #####
 954:Drivers/STM32U0xx_HAL_Driver/Src/stm32u0xx_hal_pwr_ex.c ****  ===============================================================================
 955:Drivers/STM32U0xx_HAL_Driver/Src/stm32u0xx_hal_pwr_ex.c ****     [..]
 956:Drivers/STM32U0xx_HAL_Driver/Src/stm32u0xx_hal_pwr_ex.c ****       Several STM32U0 devices RAM are configurable to keep / lose RAMs content
 957:Drivers/STM32U0xx_HAL_Driver/Src/stm32u0xx_hal_pwr_ex.c ****       during Stop mode (Stop 0/1/2).
 958:Drivers/STM32U0xx_HAL_Driver/Src/stm32u0xx_hal_pwr_ex.c ****        (+) Retained content RAM in Stop modes are :
 959:Drivers/STM32U0xx_HAL_Driver/Src/stm32u0xx_hal_pwr_ex.c ****              (++) SRAM
 960:Drivers/STM32U0xx_HAL_Driver/Src/stm32u0xx_hal_pwr_ex.c **** 
 961:Drivers/STM32U0xx_HAL_Driver/Src/stm32u0xx_hal_pwr_ex.c **** @endverbatim
 962:Drivers/STM32U0xx_HAL_Driver/Src/stm32u0xx_hal_pwr_ex.c ****   * @{
 963:Drivers/STM32U0xx_HAL_Driver/Src/stm32u0xx_hal_pwr_ex.c ****   */
 964:Drivers/STM32U0xx_HAL_Driver/Src/stm32u0xx_hal_pwr_ex.c **** 
 965:Drivers/STM32U0xx_HAL_Driver/Src/stm32u0xx_hal_pwr_ex.c **** /**
 966:Drivers/STM32U0xx_HAL_Driver/Src/stm32u0xx_hal_pwr_ex.c ****   * @brief Enable Full SRAM content retention in Standby mode.
 967:Drivers/STM32U0xx_HAL_Driver/Src/stm32u0xx_hal_pwr_ex.c ****   * @retval None
 968:Drivers/STM32U0xx_HAL_Driver/Src/stm32u0xx_hal_pwr_ex.c ****   */
 969:Drivers/STM32U0xx_HAL_Driver/Src/stm32u0xx_hal_pwr_ex.c **** void HAL_PWREx_EnableSRAMContentRetention(void)
 970:Drivers/STM32U0xx_HAL_Driver/Src/stm32u0xx_hal_pwr_ex.c **** {
 1517              		.loc 1 970 1 is_stmt 1 view -0
 1518              		.cfi_startproc
 1519              		@ args = 0, pretend = 0, frame = 0
 1520              		@ frame_needed = 0, uses_anonymous_args = 0
 1521              		@ link register save eliminated.
 971:Drivers/STM32U0xx_HAL_Driver/Src/stm32u0xx_hal_pwr_ex.c ****   MODIFY_REG(PWR->CR3, PWR_CR3_RRS, PWR_FULL_SRAM_RETENTION);
 1522              		.loc 1 971 3 view .LVU340
 1523 0000 8023     		movs	r3, #128
 972:Drivers/STM32U0xx_HAL_Driver/Src/stm32u0xx_hal_pwr_ex.c **** }
 1524              		.loc 1 972 1 is_stmt 0 view .LVU341
 1525              		@ sp needed
 971:Drivers/STM32U0xx_HAL_Driver/Src/stm32u0xx_hal_pwr_ex.c ****   MODIFY_REG(PWR->CR3, PWR_CR3_RRS, PWR_FULL_SRAM_RETENTION);
 1526              		.loc 1 971 3 view .LVU342
 1527 0002 034A     		ldr	r2, .L216
 1528 0004 5B00     		lsls	r3, r3, #1
 1529 0006 9168     		ldr	r1, [r2, #8]
 1530 0008 0B43     		orrs	r3, r1
 1531 000a 9360     		str	r3, [r2, #8]
 1532              		.loc 1 972 1 view .LVU343
 1533 000c 7047     		bx	lr
 1534              	.L217:
 1535 000e C046     		.align	2
 1536              	.L216:
 1537 0010 00700040 		.word	1073770496
 1538              		.cfi_endproc
 1539              	.LFE357:
 1541              		.section	.text.HAL_PWREx_DisableSRAMContentRetention,"ax",%progbits
 1542              		.align	1
 1543              		.p2align 2,,3
 1544              		.global	HAL_PWREx_DisableSRAMContentRetention
ARM GAS  C:\Users\upo\AppData\Local\Temp\ccJiDZ9q.s 			page 48


 1545              		.syntax unified
 1546              		.code	16
 1547              		.thumb_func
 1549              	HAL_PWREx_DisableSRAMContentRetention:
 1550              	.LFB358:
 973:Drivers/STM32U0xx_HAL_Driver/Src/stm32u0xx_hal_pwr_ex.c **** 
 974:Drivers/STM32U0xx_HAL_Driver/Src/stm32u0xx_hal_pwr_ex.c **** /**
 975:Drivers/STM32U0xx_HAL_Driver/Src/stm32u0xx_hal_pwr_ex.c ****   * @brief Disable SRAM content retention in Standby mode.
 976:Drivers/STM32U0xx_HAL_Driver/Src/stm32u0xx_hal_pwr_ex.c ****   * @retval None
 977:Drivers/STM32U0xx_HAL_Driver/Src/stm32u0xx_hal_pwr_ex.c ****   */
 978:Drivers/STM32U0xx_HAL_Driver/Src/stm32u0xx_hal_pwr_ex.c **** void HAL_PWREx_DisableSRAMContentRetention(void)
 979:Drivers/STM32U0xx_HAL_Driver/Src/stm32u0xx_hal_pwr_ex.c **** {
 1551              		.loc 1 979 1 is_stmt 1 view -0
 1552              		.cfi_startproc
 1553              		@ args = 0, pretend = 0, frame = 0
 1554              		@ frame_needed = 0, uses_anonymous_args = 0
 1555              		@ link register save eliminated.
 980:Drivers/STM32U0xx_HAL_Driver/Src/stm32u0xx_hal_pwr_ex.c ****   CLEAR_BIT(PWR->CR3, PWR_CR3_RRS);
 1556              		.loc 1 980 3 view .LVU345
 1557 0000 024A     		ldr	r2, .L219
 1558 0002 0349     		ldr	r1, .L219+4
 1559 0004 9368     		ldr	r3, [r2, #8]
 981:Drivers/STM32U0xx_HAL_Driver/Src/stm32u0xx_hal_pwr_ex.c **** }
 1560              		.loc 1 981 1 is_stmt 0 view .LVU346
 1561              		@ sp needed
 980:Drivers/STM32U0xx_HAL_Driver/Src/stm32u0xx_hal_pwr_ex.c ****   CLEAR_BIT(PWR->CR3, PWR_CR3_RRS);
 1562              		.loc 1 980 3 view .LVU347
 1563 0006 0B40     		ands	r3, r1
 1564 0008 9360     		str	r3, [r2, #8]
 1565              		.loc 1 981 1 view .LVU348
 1566 000a 7047     		bx	lr
 1567              	.L220:
 1568              		.align	2
 1569              	.L219:
 1570 000c 00700040 		.word	1073770496
 1571 0010 FFFEFFFF 		.word	-257
 1572              		.cfi_endproc
 1573              	.LFE358:
 1575              		.section	.text.HAL_PWREx_EnableFlashPowerDown,"ax",%progbits
 1576              		.align	1
 1577              		.p2align 2,,3
 1578              		.global	HAL_PWREx_EnableFlashPowerDown
 1579              		.syntax unified
 1580              		.code	16
 1581              		.thumb_func
 1583              	HAL_PWREx_EnableFlashPowerDown:
 1584              	.LVL34:
 1585              	.LFB359:
 982:Drivers/STM32U0xx_HAL_Driver/Src/stm32u0xx_hal_pwr_ex.c **** 
 983:Drivers/STM32U0xx_HAL_Driver/Src/stm32u0xx_hal_pwr_ex.c **** /**
 984:Drivers/STM32U0xx_HAL_Driver/Src/stm32u0xx_hal_pwr_ex.c ****   * @brief  Enable Flash Power Down.
 985:Drivers/STM32U0xx_HAL_Driver/Src/stm32u0xx_hal_pwr_ex.c ****   * @note   This API allows to enable flash power down capabilities in low power
 986:Drivers/STM32U0xx_HAL_Driver/Src/stm32u0xx_hal_pwr_ex.c ****   *         run, low power sleep and stop modes.
 987:Drivers/STM32U0xx_HAL_Driver/Src/stm32u0xx_hal_pwr_ex.c ****   * @param  PowerMode this can be a combination of following values:
 988:Drivers/STM32U0xx_HAL_Driver/Src/stm32u0xx_hal_pwr_ex.c ****   *           @arg @ref PWR_FLASHPD_LPRUN
 989:Drivers/STM32U0xx_HAL_Driver/Src/stm32u0xx_hal_pwr_ex.c ****   *           @arg @ref PWR_FLASHPD_LPSLEEP
 990:Drivers/STM32U0xx_HAL_Driver/Src/stm32u0xx_hal_pwr_ex.c ****   *           @arg @ref PWR_FLASHPD_STOP
ARM GAS  C:\Users\upo\AppData\Local\Temp\ccJiDZ9q.s 			page 49


 991:Drivers/STM32U0xx_HAL_Driver/Src/stm32u0xx_hal_pwr_ex.c ****   * @retval None
 992:Drivers/STM32U0xx_HAL_Driver/Src/stm32u0xx_hal_pwr_ex.c ****   */
 993:Drivers/STM32U0xx_HAL_Driver/Src/stm32u0xx_hal_pwr_ex.c **** void HAL_PWREx_EnableFlashPowerDown(uint32_t PowerMode)
 994:Drivers/STM32U0xx_HAL_Driver/Src/stm32u0xx_hal_pwr_ex.c **** {
 1586              		.loc 1 994 1 is_stmt 1 view -0
 1587              		.cfi_startproc
 1588              		@ args = 0, pretend = 0, frame = 0
 1589              		@ frame_needed = 0, uses_anonymous_args = 0
 1590              		@ link register save eliminated.
 995:Drivers/STM32U0xx_HAL_Driver/Src/stm32u0xx_hal_pwr_ex.c ****   assert_param(IS_PWR_FLASH_POWERDOWN(PowerMode));
 1591              		.loc 1 995 3 view .LVU350
 996:Drivers/STM32U0xx_HAL_Driver/Src/stm32u0xx_hal_pwr_ex.c **** 
 997:Drivers/STM32U0xx_HAL_Driver/Src/stm32u0xx_hal_pwr_ex.c ****   PWR->CR1 |= PowerMode;
 1592              		.loc 1 997 3 view .LVU351
 1593              		.loc 1 997 6 is_stmt 0 view .LVU352
 1594 0000 024A     		ldr	r2, .L222
 998:Drivers/STM32U0xx_HAL_Driver/Src/stm32u0xx_hal_pwr_ex.c **** }
 1595              		.loc 1 998 1 view .LVU353
 1596              		@ sp needed
 997:Drivers/STM32U0xx_HAL_Driver/Src/stm32u0xx_hal_pwr_ex.c **** }
 1597              		.loc 1 997 6 view .LVU354
 1598 0002 1368     		ldr	r3, [r2]
 997:Drivers/STM32U0xx_HAL_Driver/Src/stm32u0xx_hal_pwr_ex.c **** }
 1599              		.loc 1 997 12 view .LVU355
 1600 0004 0343     		orrs	r3, r0
 1601 0006 1360     		str	r3, [r2]
 1602              		.loc 1 998 1 view .LVU356
 1603 0008 7047     		bx	lr
 1604              	.L223:
 1605 000a C046     		.align	2
 1606              	.L222:
 1607 000c 00700040 		.word	1073770496
 1608              		.cfi_endproc
 1609              	.LFE359:
 1611              		.section	.text.HAL_PWREx_DisableFlashPowerDown,"ax",%progbits
 1612              		.align	1
 1613              		.p2align 2,,3
 1614              		.global	HAL_PWREx_DisableFlashPowerDown
 1615              		.syntax unified
 1616              		.code	16
 1617              		.thumb_func
 1619              	HAL_PWREx_DisableFlashPowerDown:
 1620              	.LVL35:
 1621              	.LFB360:
 999:Drivers/STM32U0xx_HAL_Driver/Src/stm32u0xx_hal_pwr_ex.c **** 
1000:Drivers/STM32U0xx_HAL_Driver/Src/stm32u0xx_hal_pwr_ex.c **** /**
1001:Drivers/STM32U0xx_HAL_Driver/Src/stm32u0xx_hal_pwr_ex.c ****   * @brief  Disable Flash Power Down.
1002:Drivers/STM32U0xx_HAL_Driver/Src/stm32u0xx_hal_pwr_ex.c ****   * @note   This API allows to disable flash power down capabilities in low power
1003:Drivers/STM32U0xx_HAL_Driver/Src/stm32u0xx_hal_pwr_ex.c ****   *         run, low power sleep and stop modes.
1004:Drivers/STM32U0xx_HAL_Driver/Src/stm32u0xx_hal_pwr_ex.c ****   * @param  PowerMode this can be a combination of following values:
1005:Drivers/STM32U0xx_HAL_Driver/Src/stm32u0xx_hal_pwr_ex.c ****   *           @arg @ref PWR_FLASHPD_LPRUN
1006:Drivers/STM32U0xx_HAL_Driver/Src/stm32u0xx_hal_pwr_ex.c ****   *           @arg @ref PWR_FLASHPD_LPSLEEP
1007:Drivers/STM32U0xx_HAL_Driver/Src/stm32u0xx_hal_pwr_ex.c ****   *           @arg @ref PWR_FLASHPD_STOP
1008:Drivers/STM32U0xx_HAL_Driver/Src/stm32u0xx_hal_pwr_ex.c ****   * @retval None
1009:Drivers/STM32U0xx_HAL_Driver/Src/stm32u0xx_hal_pwr_ex.c ****   */
1010:Drivers/STM32U0xx_HAL_Driver/Src/stm32u0xx_hal_pwr_ex.c **** void HAL_PWREx_DisableFlashPowerDown(uint32_t PowerMode)
1011:Drivers/STM32U0xx_HAL_Driver/Src/stm32u0xx_hal_pwr_ex.c **** {
ARM GAS  C:\Users\upo\AppData\Local\Temp\ccJiDZ9q.s 			page 50


 1622              		.loc 1 1011 1 is_stmt 1 view -0
 1623              		.cfi_startproc
 1624              		@ args = 0, pretend = 0, frame = 0
 1625              		@ frame_needed = 0, uses_anonymous_args = 0
 1626              		@ link register save eliminated.
1012:Drivers/STM32U0xx_HAL_Driver/Src/stm32u0xx_hal_pwr_ex.c ****   assert_param(IS_PWR_FLASH_POWERDOWN(PowerMode));
 1627              		.loc 1 1012 3 view .LVU358
1013:Drivers/STM32U0xx_HAL_Driver/Src/stm32u0xx_hal_pwr_ex.c **** 
1014:Drivers/STM32U0xx_HAL_Driver/Src/stm32u0xx_hal_pwr_ex.c ****   PWR->CR1 &= ~PowerMode;
 1628              		.loc 1 1014 3 view .LVU359
 1629              		.loc 1 1014 6 is_stmt 0 view .LVU360
 1630 0000 024A     		ldr	r2, .L225
1015:Drivers/STM32U0xx_HAL_Driver/Src/stm32u0xx_hal_pwr_ex.c **** }
 1631              		.loc 1 1015 1 view .LVU361
 1632              		@ sp needed
1014:Drivers/STM32U0xx_HAL_Driver/Src/stm32u0xx_hal_pwr_ex.c **** }
 1633              		.loc 1 1014 6 view .LVU362
 1634 0002 1368     		ldr	r3, [r2]
1014:Drivers/STM32U0xx_HAL_Driver/Src/stm32u0xx_hal_pwr_ex.c **** }
 1635              		.loc 1 1014 12 view .LVU363
 1636 0004 8343     		bics	r3, r0
 1637 0006 1360     		str	r3, [r2]
 1638              		.loc 1 1015 1 view .LVU364
 1639 0008 7047     		bx	lr
 1640              	.L226:
 1641 000a C046     		.align	2
 1642              	.L225:
 1643 000c 00700040 		.word	1073770496
 1644              		.cfi_endproc
 1645              	.LFE360:
 1647              		.section	.text.HAL_PWREx_EnableUltraLowPowerMode,"ax",%progbits
 1648              		.align	1
 1649              		.p2align 2,,3
 1650              		.global	HAL_PWREx_EnableUltraLowPowerMode
 1651              		.syntax unified
 1652              		.code	16
 1653              		.thumb_func
 1655              	HAL_PWREx_EnableUltraLowPowerMode:
 1656              	.LFB361:
1016:Drivers/STM32U0xx_HAL_Driver/Src/stm32u0xx_hal_pwr_ex.c **** 
1017:Drivers/STM32U0xx_HAL_Driver/Src/stm32u0xx_hal_pwr_ex.c **** /**
1018:Drivers/STM32U0xx_HAL_Driver/Src/stm32u0xx_hal_pwr_ex.c ****   * @brief Enable Ultra Low Power BORL, BORH and PVD for STOP2 and Standby modes.
1019:Drivers/STM32U0xx_HAL_Driver/Src/stm32u0xx_hal_pwr_ex.c ****   * @note  All the other modes are not affected by this bit.
1020:Drivers/STM32U0xx_HAL_Driver/Src/stm32u0xx_hal_pwr_ex.c ****   * @retval None
1021:Drivers/STM32U0xx_HAL_Driver/Src/stm32u0xx_hal_pwr_ex.c ****   */
1022:Drivers/STM32U0xx_HAL_Driver/Src/stm32u0xx_hal_pwr_ex.c **** void HAL_PWREx_EnableUltraLowPowerMode(void)
1023:Drivers/STM32U0xx_HAL_Driver/Src/stm32u0xx_hal_pwr_ex.c **** {
 1657              		.loc 1 1023 1 is_stmt 1 view -0
 1658              		.cfi_startproc
 1659              		@ args = 0, pretend = 0, frame = 0
 1660              		@ frame_needed = 0, uses_anonymous_args = 0
 1661              		@ link register save eliminated.
1024:Drivers/STM32U0xx_HAL_Driver/Src/stm32u0xx_hal_pwr_ex.c ****   SET_BIT(PWR->CR3, PWR_CR3_ENULP);
 1662              		.loc 1 1024 3 view .LVU366
 1663 0000 8023     		movs	r3, #128
1025:Drivers/STM32U0xx_HAL_Driver/Src/stm32u0xx_hal_pwr_ex.c **** }
 1664              		.loc 1 1025 1 is_stmt 0 view .LVU367
ARM GAS  C:\Users\upo\AppData\Local\Temp\ccJiDZ9q.s 			page 51


 1665              		@ sp needed
1024:Drivers/STM32U0xx_HAL_Driver/Src/stm32u0xx_hal_pwr_ex.c ****   SET_BIT(PWR->CR3, PWR_CR3_ENULP);
 1666              		.loc 1 1024 3 view .LVU368
 1667 0002 034A     		ldr	r2, .L228
 1668 0004 9B00     		lsls	r3, r3, #2
 1669 0006 9168     		ldr	r1, [r2, #8]
 1670 0008 0B43     		orrs	r3, r1
 1671 000a 9360     		str	r3, [r2, #8]
 1672              		.loc 1 1025 1 view .LVU369
 1673 000c 7047     		bx	lr
 1674              	.L229:
 1675 000e C046     		.align	2
 1676              	.L228:
 1677 0010 00700040 		.word	1073770496
 1678              		.cfi_endproc
 1679              	.LFE361:
 1681              		.section	.text.HAL_PWREx_DisableUltraLowPowerMode,"ax",%progbits
 1682              		.align	1
 1683              		.p2align 2,,3
 1684              		.global	HAL_PWREx_DisableUltraLowPowerMode
 1685              		.syntax unified
 1686              		.code	16
 1687              		.thumb_func
 1689              	HAL_PWREx_DisableUltraLowPowerMode:
 1690              	.LFB362:
1026:Drivers/STM32U0xx_HAL_Driver/Src/stm32u0xx_hal_pwr_ex.c **** 
1027:Drivers/STM32U0xx_HAL_Driver/Src/stm32u0xx_hal_pwr_ex.c **** /**
1028:Drivers/STM32U0xx_HAL_Driver/Src/stm32u0xx_hal_pwr_ex.c ****   * @brief Disable Ultra Low Power BORL, BORH and PVD for STOP2 and Standby modes.
1029:Drivers/STM32U0xx_HAL_Driver/Src/stm32u0xx_hal_pwr_ex.c ****   * @note  All the other modes are not affected by this bit
1030:Drivers/STM32U0xx_HAL_Driver/Src/stm32u0xx_hal_pwr_ex.c ****   * @retval None
1031:Drivers/STM32U0xx_HAL_Driver/Src/stm32u0xx_hal_pwr_ex.c ****   */
1032:Drivers/STM32U0xx_HAL_Driver/Src/stm32u0xx_hal_pwr_ex.c **** void HAL_PWREx_DisableUltraLowPowerMode(void)
1033:Drivers/STM32U0xx_HAL_Driver/Src/stm32u0xx_hal_pwr_ex.c **** {
 1691              		.loc 1 1033 1 is_stmt 1 view -0
 1692              		.cfi_startproc
 1693              		@ args = 0, pretend = 0, frame = 0
 1694              		@ frame_needed = 0, uses_anonymous_args = 0
 1695              		@ link register save eliminated.
1034:Drivers/STM32U0xx_HAL_Driver/Src/stm32u0xx_hal_pwr_ex.c ****   CLEAR_BIT(PWR->CR3, PWR_CR3_ENULP);
 1696              		.loc 1 1034 3 view .LVU371
 1697 0000 024A     		ldr	r2, .L231
 1698 0002 0349     		ldr	r1, .L231+4
 1699 0004 9368     		ldr	r3, [r2, #8]
1035:Drivers/STM32U0xx_HAL_Driver/Src/stm32u0xx_hal_pwr_ex.c **** }
 1700              		.loc 1 1035 1 is_stmt 0 view .LVU372
 1701              		@ sp needed
1034:Drivers/STM32U0xx_HAL_Driver/Src/stm32u0xx_hal_pwr_ex.c ****   CLEAR_BIT(PWR->CR3, PWR_CR3_ENULP);
 1702              		.loc 1 1034 3 view .LVU373
 1703 0006 0B40     		ands	r3, r1
 1704 0008 9360     		str	r3, [r2, #8]
 1705              		.loc 1 1035 1 view .LVU374
 1706 000a 7047     		bx	lr
 1707              	.L232:
 1708              		.align	2
 1709              	.L231:
 1710 000c 00700040 		.word	1073770496
 1711 0010 FFFDFFFF 		.word	-513
ARM GAS  C:\Users\upo\AppData\Local\Temp\ccJiDZ9q.s 			page 52


 1712              		.cfi_endproc
 1713              	.LFE362:
 1715              		.section	.text.HAL_PWREx_EnablePullUpPullDownConfig,"ax",%progbits
 1716              		.align	1
 1717              		.p2align 2,,3
 1718              		.global	HAL_PWREx_EnablePullUpPullDownConfig
 1719              		.syntax unified
 1720              		.code	16
 1721              		.thumb_func
 1723              	HAL_PWREx_EnablePullUpPullDownConfig:
 1724              	.LFB363:
1036:Drivers/STM32U0xx_HAL_Driver/Src/stm32u0xx_hal_pwr_ex.c **** /**
1037:Drivers/STM32U0xx_HAL_Driver/Src/stm32u0xx_hal_pwr_ex.c ****   * @}
1038:Drivers/STM32U0xx_HAL_Driver/Src/stm32u0xx_hal_pwr_ex.c ****   */
1039:Drivers/STM32U0xx_HAL_Driver/Src/stm32u0xx_hal_pwr_ex.c **** 
1040:Drivers/STM32U0xx_HAL_Driver/Src/stm32u0xx_hal_pwr_ex.c **** /** @defgroup PWREx_Exported_Functions_Group5 I/O Pull-Up Pull-Down Configuration Functions
1041:Drivers/STM32U0xx_HAL_Driver/Src/stm32u0xx_hal_pwr_ex.c ****   * @brief    I/O pull-up / pull-down configuration functions
1042:Drivers/STM32U0xx_HAL_Driver/Src/stm32u0xx_hal_pwr_ex.c ****   *
1043:Drivers/STM32U0xx_HAL_Driver/Src/stm32u0xx_hal_pwr_ex.c **** @verbatim
1044:Drivers/STM32U0xx_HAL_Driver/Src/stm32u0xx_hal_pwr_ex.c ****  ===============================================================================
1045:Drivers/STM32U0xx_HAL_Driver/Src/stm32u0xx_hal_pwr_ex.c ****               ##### Pull-Up Pull-Down Configuration Functions #####
1046:Drivers/STM32U0xx_HAL_Driver/Src/stm32u0xx_hal_pwr_ex.c ****  ===============================================================================
1047:Drivers/STM32U0xx_HAL_Driver/Src/stm32u0xx_hal_pwr_ex.c ****     [..]
1048:Drivers/STM32U0xx_HAL_Driver/Src/stm32u0xx_hal_pwr_ex.c ****       In Standby and Shutdown mode, pull up and pull down can be configured to
1049:Drivers/STM32U0xx_HAL_Driver/Src/stm32u0xx_hal_pwr_ex.c ****       maintain an I/O in the selected state. If the APC bit in the PWR_APCR
1050:Drivers/STM32U0xx_HAL_Driver/Src/stm32u0xx_hal_pwr_ex.c ****       register is set, the I/Os can be configured either with a pull-up through
1051:Drivers/STM32U0xx_HAL_Driver/Src/stm32u0xx_hal_pwr_ex.c ****       PWR_PUCRx registers (x=A,B,C,D,E,F), or with a pull-down through
1052:Drivers/STM32U0xx_HAL_Driver/Src/stm32u0xx_hal_pwr_ex.c ****       PWR_PDCRx registers (x=A,B,C,D,E,F), or can be kept in analog state
1053:Drivers/STM32U0xx_HAL_Driver/Src/stm32u0xx_hal_pwr_ex.c ****       if none of the PWR_PUCRx or PWR_PDCRx register is set.
1054:Drivers/STM32U0xx_HAL_Driver/Src/stm32u0xx_hal_pwr_ex.c **** 
1055:Drivers/STM32U0xx_HAL_Driver/Src/stm32u0xx_hal_pwr_ex.c ****     [..]
1056:Drivers/STM32U0xx_HAL_Driver/Src/stm32u0xx_hal_pwr_ex.c ****       The pull-down configuration has highest priority over pull-up
1057:Drivers/STM32U0xx_HAL_Driver/Src/stm32u0xx_hal_pwr_ex.c ****       configuration in case both PWR_PUCRx and PWR_PDCRx are set for the same
1058:Drivers/STM32U0xx_HAL_Driver/Src/stm32u0xx_hal_pwr_ex.c ****       I/O.
1059:Drivers/STM32U0xx_HAL_Driver/Src/stm32u0xx_hal_pwr_ex.c ****       This configuration is lost when exiting the Shutdown but not from Standby
1060:Drivers/STM32U0xx_HAL_Driver/Src/stm32u0xx_hal_pwr_ex.c ****       mode.
1061:Drivers/STM32U0xx_HAL_Driver/Src/stm32u0xx_hal_pwr_ex.c **** 
1062:Drivers/STM32U0xx_HAL_Driver/Src/stm32u0xx_hal_pwr_ex.c **** @endverbatim
1063:Drivers/STM32U0xx_HAL_Driver/Src/stm32u0xx_hal_pwr_ex.c ****   * @{
1064:Drivers/STM32U0xx_HAL_Driver/Src/stm32u0xx_hal_pwr_ex.c ****   */
1065:Drivers/STM32U0xx_HAL_Driver/Src/stm32u0xx_hal_pwr_ex.c **** 
1066:Drivers/STM32U0xx_HAL_Driver/Src/stm32u0xx_hal_pwr_ex.c **** /**
1067:Drivers/STM32U0xx_HAL_Driver/Src/stm32u0xx_hal_pwr_ex.c ****   * @brief Enable pull-up and pull-down configuration.
1068:Drivers/STM32U0xx_HAL_Driver/Src/stm32u0xx_hal_pwr_ex.c ****   * @note  When APC bit is set, the I/O pull-up and pull-down configurations defined in
1069:Drivers/STM32U0xx_HAL_Driver/Src/stm32u0xx_hal_pwr_ex.c ****   *        PWR_PUCRx and PWR_PDCRx registers are applied in Standby and Shutdown modes.
1070:Drivers/STM32U0xx_HAL_Driver/Src/stm32u0xx_hal_pwr_ex.c ****   * @note  Pull-up set by PUy bit of PWR_PUCRx register is not activated if the corresponding
1071:Drivers/STM32U0xx_HAL_Driver/Src/stm32u0xx_hal_pwr_ex.c ****   *        PDy bit of PWR_PDCRx register is also set (pull-down configuration priority is higher).
1072:Drivers/STM32U0xx_HAL_Driver/Src/stm32u0xx_hal_pwr_ex.c ****   *        HAL_PWREx_EnableGPIOPullUp() and HAL_PWREx_EnableGPIOPullDown() API's ensure there
1073:Drivers/STM32U0xx_HAL_Driver/Src/stm32u0xx_hal_pwr_ex.c ****   *        is no conflict when setting PUy or PDy bit.
1074:Drivers/STM32U0xx_HAL_Driver/Src/stm32u0xx_hal_pwr_ex.c ****   * @retval None
1075:Drivers/STM32U0xx_HAL_Driver/Src/stm32u0xx_hal_pwr_ex.c ****   */
1076:Drivers/STM32U0xx_HAL_Driver/Src/stm32u0xx_hal_pwr_ex.c **** void HAL_PWREx_EnablePullUpPullDownConfig(void)
1077:Drivers/STM32U0xx_HAL_Driver/Src/stm32u0xx_hal_pwr_ex.c **** {
 1725              		.loc 1 1077 1 is_stmt 1 view -0
 1726              		.cfi_startproc
 1727              		@ args = 0, pretend = 0, frame = 0
 1728              		@ frame_needed = 0, uses_anonymous_args = 0
ARM GAS  C:\Users\upo\AppData\Local\Temp\ccJiDZ9q.s 			page 53


 1729              		@ link register save eliminated.
1078:Drivers/STM32U0xx_HAL_Driver/Src/stm32u0xx_hal_pwr_ex.c ****   SET_BIT(PWR->CR3, PWR_CR3_APC);
 1730              		.loc 1 1078 3 view .LVU376
 1731 0000 8023     		movs	r3, #128
1079:Drivers/STM32U0xx_HAL_Driver/Src/stm32u0xx_hal_pwr_ex.c **** }
 1732              		.loc 1 1079 1 is_stmt 0 view .LVU377
 1733              		@ sp needed
1078:Drivers/STM32U0xx_HAL_Driver/Src/stm32u0xx_hal_pwr_ex.c ****   SET_BIT(PWR->CR3, PWR_CR3_APC);
 1734              		.loc 1 1078 3 view .LVU378
 1735 0002 034A     		ldr	r2, .L234
 1736 0004 DB00     		lsls	r3, r3, #3
 1737 0006 9168     		ldr	r1, [r2, #8]
 1738 0008 0B43     		orrs	r3, r1
 1739 000a 9360     		str	r3, [r2, #8]
 1740              		.loc 1 1079 1 view .LVU379
 1741 000c 7047     		bx	lr
 1742              	.L235:
 1743 000e C046     		.align	2
 1744              	.L234:
 1745 0010 00700040 		.word	1073770496
 1746              		.cfi_endproc
 1747              	.LFE363:
 1749              		.section	.text.HAL_PWREx_DisablePullUpPullDownConfig,"ax",%progbits
 1750              		.align	1
 1751              		.p2align 2,,3
 1752              		.global	HAL_PWREx_DisablePullUpPullDownConfig
 1753              		.syntax unified
 1754              		.code	16
 1755              		.thumb_func
 1757              	HAL_PWREx_DisablePullUpPullDownConfig:
 1758              	.LFB364:
1080:Drivers/STM32U0xx_HAL_Driver/Src/stm32u0xx_hal_pwr_ex.c **** 
1081:Drivers/STM32U0xx_HAL_Driver/Src/stm32u0xx_hal_pwr_ex.c **** /**
1082:Drivers/STM32U0xx_HAL_Driver/Src/stm32u0xx_hal_pwr_ex.c ****   * @brief Disable pull-up and pull-down configuration.
1083:Drivers/STM32U0xx_HAL_Driver/Src/stm32u0xx_hal_pwr_ex.c ****   * @note  When APC bit is cleared, the I/O pull-up and pull-down configurations defined in
1084:Drivers/STM32U0xx_HAL_Driver/Src/stm32u0xx_hal_pwr_ex.c ****   *        PWR_PUCRx and PWR_PDCRx registers are not applied in Standby and Shutdown modes.
1085:Drivers/STM32U0xx_HAL_Driver/Src/stm32u0xx_hal_pwr_ex.c ****   * @retval None
1086:Drivers/STM32U0xx_HAL_Driver/Src/stm32u0xx_hal_pwr_ex.c ****   */
1087:Drivers/STM32U0xx_HAL_Driver/Src/stm32u0xx_hal_pwr_ex.c **** void HAL_PWREx_DisablePullUpPullDownConfig(void)
1088:Drivers/STM32U0xx_HAL_Driver/Src/stm32u0xx_hal_pwr_ex.c **** {
 1759              		.loc 1 1088 1 is_stmt 1 view -0
 1760              		.cfi_startproc
 1761              		@ args = 0, pretend = 0, frame = 0
 1762              		@ frame_needed = 0, uses_anonymous_args = 0
 1763              		@ link register save eliminated.
1089:Drivers/STM32U0xx_HAL_Driver/Src/stm32u0xx_hal_pwr_ex.c ****   CLEAR_BIT(PWR->CR3, PWR_CR3_APC);
 1764              		.loc 1 1089 3 view .LVU381
 1765 0000 024A     		ldr	r2, .L237
 1766 0002 0349     		ldr	r1, .L237+4
 1767 0004 9368     		ldr	r3, [r2, #8]
1090:Drivers/STM32U0xx_HAL_Driver/Src/stm32u0xx_hal_pwr_ex.c **** }
 1768              		.loc 1 1090 1 is_stmt 0 view .LVU382
 1769              		@ sp needed
1089:Drivers/STM32U0xx_HAL_Driver/Src/stm32u0xx_hal_pwr_ex.c ****   CLEAR_BIT(PWR->CR3, PWR_CR3_APC);
 1770              		.loc 1 1089 3 view .LVU383
 1771 0006 0B40     		ands	r3, r1
 1772 0008 9360     		str	r3, [r2, #8]
ARM GAS  C:\Users\upo\AppData\Local\Temp\ccJiDZ9q.s 			page 54


 1773              		.loc 1 1090 1 view .LVU384
 1774 000a 7047     		bx	lr
 1775              	.L238:
 1776              		.align	2
 1777              	.L237:
 1778 000c 00700040 		.word	1073770496
 1779 0010 FFFBFFFF 		.word	-1025
 1780              		.cfi_endproc
 1781              	.LFE364:
 1783              		.section	.text.HAL_PWREx_EnableGPIOPullUp,"ax",%progbits
 1784              		.align	1
 1785              		.p2align 2,,3
 1786              		.global	HAL_PWREx_EnableGPIOPullUp
 1787              		.syntax unified
 1788              		.code	16
 1789              		.thumb_func
 1791              	HAL_PWREx_EnableGPIOPullUp:
 1792              	.LVL36:
 1793              	.LFB365:
1091:Drivers/STM32U0xx_HAL_Driver/Src/stm32u0xx_hal_pwr_ex.c **** /**
1092:Drivers/STM32U0xx_HAL_Driver/Src/stm32u0xx_hal_pwr_ex.c ****   * @}
1093:Drivers/STM32U0xx_HAL_Driver/Src/stm32u0xx_hal_pwr_ex.c ****   */
1094:Drivers/STM32U0xx_HAL_Driver/Src/stm32u0xx_hal_pwr_ex.c **** 
1095:Drivers/STM32U0xx_HAL_Driver/Src/stm32u0xx_hal_pwr_ex.c **** /**
1096:Drivers/STM32U0xx_HAL_Driver/Src/stm32u0xx_hal_pwr_ex.c ****   * @brief Enable GPIO pull-up state in Standby and Shutdown modes.
1097:Drivers/STM32U0xx_HAL_Driver/Src/stm32u0xx_hal_pwr_ex.c ****   * @note  Set the relevant PUy bits of PWR_PUCRx register to configure the I/O in
1098:Drivers/STM32U0xx_HAL_Driver/Src/stm32u0xx_hal_pwr_ex.c ****   *        pull-up state in Standby and Shutdown modes.
1099:Drivers/STM32U0xx_HAL_Driver/Src/stm32u0xx_hal_pwr_ex.c ****   * @note  This state is effective in Standby and Shutdown modes only if APC bit
1100:Drivers/STM32U0xx_HAL_Driver/Src/stm32u0xx_hal_pwr_ex.c ****   *        is set through HAL_PWREx_EnablePullUpPullDownConfig() API.
1101:Drivers/STM32U0xx_HAL_Driver/Src/stm32u0xx_hal_pwr_ex.c ****   * @note  The configuration is lost when exiting the Shutdown mode due to the
1102:Drivers/STM32U0xx_HAL_Driver/Src/stm32u0xx_hal_pwr_ex.c ****   *        power-on reset, maintained when exiting the Standby mode.
1103:Drivers/STM32U0xx_HAL_Driver/Src/stm32u0xx_hal_pwr_ex.c ****   * @note  To avoid any conflict at Standby and Shutdown modes exits, the corresponding
1104:Drivers/STM32U0xx_HAL_Driver/Src/stm32u0xx_hal_pwr_ex.c ****   *        PDy bit of PWR_PDCRx register is cleared unless it is reserved.
1105:Drivers/STM32U0xx_HAL_Driver/Src/stm32u0xx_hal_pwr_ex.c ****   * @note  Even if a PUy bit to set is reserved, the other PUy bits entered as input
1106:Drivers/STM32U0xx_HAL_Driver/Src/stm32u0xx_hal_pwr_ex.c ****   *        parameter at the same time are set.
1107:Drivers/STM32U0xx_HAL_Driver/Src/stm32u0xx_hal_pwr_ex.c ****   * @param  GPIO_Port Specify the IO port. This parameter can be PWR_GPIO_A, ..., PWR_GPIO_H
1108:Drivers/STM32U0xx_HAL_Driver/Src/stm32u0xx_hal_pwr_ex.c ****   *         (or PWR_GPIO_I depending on the devices) to select the GPIO peripheral.
1109:Drivers/STM32U0xx_HAL_Driver/Src/stm32u0xx_hal_pwr_ex.c ****   * @param  GPIO_Pin Specify the I/O pins numbers.
1110:Drivers/STM32U0xx_HAL_Driver/Src/stm32u0xx_hal_pwr_ex.c ****   *         This parameter can be one of the following values:
1111:Drivers/STM32U0xx_HAL_Driver/Src/stm32u0xx_hal_pwr_ex.c ****   *         PWR_GPIO_BIT_0, ..., PWR_GPIO_BIT_15 (except for the port where less
1112:Drivers/STM32U0xx_HAL_Driver/Src/stm32u0xx_hal_pwr_ex.c ****   *         I/O pins are available) or the logical OR of several of them to set
1113:Drivers/STM32U0xx_HAL_Driver/Src/stm32u0xx_hal_pwr_ex.c ****   *         several bits for a given port in a single API call.
1114:Drivers/STM32U0xx_HAL_Driver/Src/stm32u0xx_hal_pwr_ex.c ****   * @retval HAL Status
1115:Drivers/STM32U0xx_HAL_Driver/Src/stm32u0xx_hal_pwr_ex.c ****   */
1116:Drivers/STM32U0xx_HAL_Driver/Src/stm32u0xx_hal_pwr_ex.c **** HAL_StatusTypeDef HAL_PWREx_EnableGPIOPullUp(uint32_t GPIO_Port, uint32_t GPIO_Pin)
1117:Drivers/STM32U0xx_HAL_Driver/Src/stm32u0xx_hal_pwr_ex.c **** {
 1794              		.loc 1 1117 1 is_stmt 1 view -0
 1795              		.cfi_startproc
 1796              		@ args = 0, pretend = 0, frame = 0
 1797              		@ frame_needed = 0, uses_anonymous_args = 0
 1798              		@ link register save eliminated.
1118:Drivers/STM32U0xx_HAL_Driver/Src/stm32u0xx_hal_pwr_ex.c ****   HAL_StatusTypeDef status = HAL_OK;
 1799              		.loc 1 1118 3 view .LVU386
1119:Drivers/STM32U0xx_HAL_Driver/Src/stm32u0xx_hal_pwr_ex.c **** 
1120:Drivers/STM32U0xx_HAL_Driver/Src/stm32u0xx_hal_pwr_ex.c ****   assert_param(IS_PWR_GPIO_PORT(GPIO_Port));
 1800              		.loc 1 1120 3 view .LVU387
1121:Drivers/STM32U0xx_HAL_Driver/Src/stm32u0xx_hal_pwr_ex.c ****   assert_param(IS_PWR_GPIO_PIN_MASK(GPIO_Pin));
ARM GAS  C:\Users\upo\AppData\Local\Temp\ccJiDZ9q.s 			page 55


 1801              		.loc 1 1121 3 view .LVU388
1122:Drivers/STM32U0xx_HAL_Driver/Src/stm32u0xx_hal_pwr_ex.c **** 
1123:Drivers/STM32U0xx_HAL_Driver/Src/stm32u0xx_hal_pwr_ex.c ****   switch (GPIO_Port)
 1802              		.loc 1 1123 3 view .LVU389
 1803 0000 0528     		cmp	r0, #5
 1804 0002 3BD8     		bhi	.L249
 1805 0004 1E4B     		ldr	r3, .L250
 1806 0006 8000     		lsls	r0, r0, #2
 1807              	.LVL37:
 1808              		.loc 1 1123 3 is_stmt 0 view .LVU390
 1809 0008 1B58     		ldr	r3, [r3, r0]
 1810 000a 9F46     		mov	pc, r3
 1811              		.section	.rodata.HAL_PWREx_EnableGPIOPullUp,"a",%progbits
 1812              		.align	2
 1813              	.L242:
 1814 0000 38000000 		.word	.L247
 1815 0004 48000000 		.word	.L246
 1816 0008 58000000 		.word	.L245
 1817 000c 68000000 		.word	.L244
 1818 0010 0C000000 		.word	.L243
 1819 0014 24000000 		.word	.L241
 1820              		.section	.text.HAL_PWREx_EnableGPIOPullUp
 1821              	.L243:
1124:Drivers/STM32U0xx_HAL_Driver/Src/stm32u0xx_hal_pwr_ex.c ****   {
1125:Drivers/STM32U0xx_HAL_Driver/Src/stm32u0xx_hal_pwr_ex.c ****     case PWR_GPIO_A:
1126:Drivers/STM32U0xx_HAL_Driver/Src/stm32u0xx_hal_pwr_ex.c ****       SET_BIT(PWR->PUCRA, GPIO_Pin);
1127:Drivers/STM32U0xx_HAL_Driver/Src/stm32u0xx_hal_pwr_ex.c ****       CLEAR_BIT(PWR->PDCRA, GPIO_Pin);
1128:Drivers/STM32U0xx_HAL_Driver/Src/stm32u0xx_hal_pwr_ex.c ****       break;
1129:Drivers/STM32U0xx_HAL_Driver/Src/stm32u0xx_hal_pwr_ex.c **** 
1130:Drivers/STM32U0xx_HAL_Driver/Src/stm32u0xx_hal_pwr_ex.c ****     case PWR_GPIO_B:
1131:Drivers/STM32U0xx_HAL_Driver/Src/stm32u0xx_hal_pwr_ex.c ****       SET_BIT(PWR->PUCRB, GPIO_Pin);
1132:Drivers/STM32U0xx_HAL_Driver/Src/stm32u0xx_hal_pwr_ex.c ****       CLEAR_BIT(PWR->PDCRB, GPIO_Pin);
1133:Drivers/STM32U0xx_HAL_Driver/Src/stm32u0xx_hal_pwr_ex.c ****       break;
1134:Drivers/STM32U0xx_HAL_Driver/Src/stm32u0xx_hal_pwr_ex.c **** 
1135:Drivers/STM32U0xx_HAL_Driver/Src/stm32u0xx_hal_pwr_ex.c ****     case PWR_GPIO_C:
1136:Drivers/STM32U0xx_HAL_Driver/Src/stm32u0xx_hal_pwr_ex.c ****       SET_BIT(PWR->PUCRC, GPIO_Pin);
1137:Drivers/STM32U0xx_HAL_Driver/Src/stm32u0xx_hal_pwr_ex.c ****       CLEAR_BIT(PWR->PDCRC, GPIO_Pin);
1138:Drivers/STM32U0xx_HAL_Driver/Src/stm32u0xx_hal_pwr_ex.c ****       break;
1139:Drivers/STM32U0xx_HAL_Driver/Src/stm32u0xx_hal_pwr_ex.c **** 
1140:Drivers/STM32U0xx_HAL_Driver/Src/stm32u0xx_hal_pwr_ex.c ****     case PWR_GPIO_D:
1141:Drivers/STM32U0xx_HAL_Driver/Src/stm32u0xx_hal_pwr_ex.c ****       SET_BIT(PWR->PUCRD, (GPIO_Pin & PWR_PORTD_AVAILABLE_PINS));
1142:Drivers/STM32U0xx_HAL_Driver/Src/stm32u0xx_hal_pwr_ex.c ****       CLEAR_BIT(PWR->PDCRD, (GPIO_Pin & PWR_PORTD_AVAILABLE_PINS));
1143:Drivers/STM32U0xx_HAL_Driver/Src/stm32u0xx_hal_pwr_ex.c ****       break;
1144:Drivers/STM32U0xx_HAL_Driver/Src/stm32u0xx_hal_pwr_ex.c **** 
1145:Drivers/STM32U0xx_HAL_Driver/Src/stm32u0xx_hal_pwr_ex.c **** #if defined (GPIOE)
1146:Drivers/STM32U0xx_HAL_Driver/Src/stm32u0xx_hal_pwr_ex.c ****     case PWR_GPIO_E:
1147:Drivers/STM32U0xx_HAL_Driver/Src/stm32u0xx_hal_pwr_ex.c ****       SET_BIT(PWR->PUCRE, (GPIO_Pin & PWR_PORTE_AVAILABLE_PINS));
 1822              		.loc 1 1147 7 is_stmt 1 view .LVU391
 1823 000c E222     		movs	r2, #226
 1824 000e 1D4B     		ldr	r3, .L250+4
 1825 0010 9200     		lsls	r2, r2, #2
 1826 0012 186C     		ldr	r0, [r3, #64]
 1827 0014 0A40     		ands	r2, r1
 1828 0016 1043     		orrs	r0, r2
 1829 0018 1864     		str	r0, [r3, #64]
1148:Drivers/STM32U0xx_HAL_Driver/Src/stm32u0xx_hal_pwr_ex.c ****       CLEAR_BIT(PWR->PDCRE, (GPIO_Pin & PWR_PORTE_AVAILABLE_PINS));
 1830              		.loc 1 1148 7 view .LVU392
ARM GAS  C:\Users\upo\AppData\Local\Temp\ccJiDZ9q.s 			page 56


 1831 001a 596C     		ldr	r1, [r3, #68]
 1832              	.LVL38:
 1833              		.loc 1 1148 7 is_stmt 0 view .LVU393
 1834 001c 9143     		bics	r1, r2
 1835 001e 5964     		str	r1, [r3, #68]
1149:Drivers/STM32U0xx_HAL_Driver/Src/stm32u0xx_hal_pwr_ex.c ****       break;
 1836              		.loc 1 1149 7 is_stmt 1 view .LVU394
 1837              	.L248:
1118:Drivers/STM32U0xx_HAL_Driver/Src/stm32u0xx_hal_pwr_ex.c **** 
 1838              		.loc 1 1118 21 is_stmt 0 view .LVU395
 1839 0020 0020     		movs	r0, #0
 1840              	.L240:
 1841              	.LVL39:
1150:Drivers/STM32U0xx_HAL_Driver/Src/stm32u0xx_hal_pwr_ex.c **** #endif /* GPIOE */
1151:Drivers/STM32U0xx_HAL_Driver/Src/stm32u0xx_hal_pwr_ex.c **** 
1152:Drivers/STM32U0xx_HAL_Driver/Src/stm32u0xx_hal_pwr_ex.c ****     case PWR_GPIO_F:
1153:Drivers/STM32U0xx_HAL_Driver/Src/stm32u0xx_hal_pwr_ex.c ****       SET_BIT(PWR->PUCRF, (GPIO_Pin & PWR_PORTF_AVAILABLE_PINS));
1154:Drivers/STM32U0xx_HAL_Driver/Src/stm32u0xx_hal_pwr_ex.c ****       CLEAR_BIT(PWR->PDCRF, (GPIO_Pin & PWR_PORTF_AVAILABLE_PINS));
1155:Drivers/STM32U0xx_HAL_Driver/Src/stm32u0xx_hal_pwr_ex.c ****       break;
1156:Drivers/STM32U0xx_HAL_Driver/Src/stm32u0xx_hal_pwr_ex.c **** 
1157:Drivers/STM32U0xx_HAL_Driver/Src/stm32u0xx_hal_pwr_ex.c ****     default:
1158:Drivers/STM32U0xx_HAL_Driver/Src/stm32u0xx_hal_pwr_ex.c ****       status = HAL_ERROR;
1159:Drivers/STM32U0xx_HAL_Driver/Src/stm32u0xx_hal_pwr_ex.c ****       break;
1160:Drivers/STM32U0xx_HAL_Driver/Src/stm32u0xx_hal_pwr_ex.c ****   }
1161:Drivers/STM32U0xx_HAL_Driver/Src/stm32u0xx_hal_pwr_ex.c **** 
1162:Drivers/STM32U0xx_HAL_Driver/Src/stm32u0xx_hal_pwr_ex.c ****   return status;
 1842              		.loc 1 1162 3 is_stmt 1 view .LVU396
1163:Drivers/STM32U0xx_HAL_Driver/Src/stm32u0xx_hal_pwr_ex.c **** }
 1843              		.loc 1 1163 1 is_stmt 0 view .LVU397
 1844              		@ sp needed
 1845 0022 7047     		bx	lr
 1846              	.LVL40:
 1847              	.L241:
1153:Drivers/STM32U0xx_HAL_Driver/Src/stm32u0xx_hal_pwr_ex.c ****       CLEAR_BIT(PWR->PDCRF, (GPIO_Pin & PWR_PORTF_AVAILABLE_PINS));
 1848              		.loc 1 1153 7 is_stmt 1 view .LVU398
 1849 0024 0F22     		movs	r2, #15
 1850 0026 174B     		ldr	r3, .L250+4
 1851 0028 0A40     		ands	r2, r1
 1852 002a 986C     		ldr	r0, [r3, #72]
 1853 002c 1043     		orrs	r0, r2
 1854 002e 9864     		str	r0, [r3, #72]
1154:Drivers/STM32U0xx_HAL_Driver/Src/stm32u0xx_hal_pwr_ex.c ****       break;
 1855              		.loc 1 1154 7 view .LVU399
 1856 0030 D96C     		ldr	r1, [r3, #76]
 1857              	.LVL41:
1154:Drivers/STM32U0xx_HAL_Driver/Src/stm32u0xx_hal_pwr_ex.c ****       break;
 1858              		.loc 1 1154 7 is_stmt 0 view .LVU400
 1859 0032 9143     		bics	r1, r2
 1860 0034 D964     		str	r1, [r3, #76]
1155:Drivers/STM32U0xx_HAL_Driver/Src/stm32u0xx_hal_pwr_ex.c **** 
 1861              		.loc 1 1155 7 is_stmt 1 view .LVU401
 1862 0036 F3E7     		b	.L248
 1863              	.LVL42:
 1864              	.L247:
1126:Drivers/STM32U0xx_HAL_Driver/Src/stm32u0xx_hal_pwr_ex.c ****       CLEAR_BIT(PWR->PDCRA, GPIO_Pin);
 1865              		.loc 1 1126 7 view .LVU402
 1866 0038 124B     		ldr	r3, .L250+4
ARM GAS  C:\Users\upo\AppData\Local\Temp\ccJiDZ9q.s 			page 57


 1867 003a 1A6A     		ldr	r2, [r3, #32]
 1868 003c 0A43     		orrs	r2, r1
 1869 003e 1A62     		str	r2, [r3, #32]
1127:Drivers/STM32U0xx_HAL_Driver/Src/stm32u0xx_hal_pwr_ex.c ****       break;
 1870              		.loc 1 1127 7 view .LVU403
 1871 0040 5A6A     		ldr	r2, [r3, #36]
 1872 0042 8A43     		bics	r2, r1
 1873 0044 5A62     		str	r2, [r3, #36]
1128:Drivers/STM32U0xx_HAL_Driver/Src/stm32u0xx_hal_pwr_ex.c **** 
 1874              		.loc 1 1128 7 view .LVU404
 1875 0046 EBE7     		b	.L248
 1876              	.L246:
1131:Drivers/STM32U0xx_HAL_Driver/Src/stm32u0xx_hal_pwr_ex.c ****       CLEAR_BIT(PWR->PDCRB, GPIO_Pin);
 1877              		.loc 1 1131 7 view .LVU405
 1878 0048 0E4B     		ldr	r3, .L250+4
 1879 004a 9A6A     		ldr	r2, [r3, #40]
 1880 004c 0A43     		orrs	r2, r1
 1881 004e 9A62     		str	r2, [r3, #40]
1132:Drivers/STM32U0xx_HAL_Driver/Src/stm32u0xx_hal_pwr_ex.c ****       break;
 1882              		.loc 1 1132 7 view .LVU406
 1883 0050 DA6A     		ldr	r2, [r3, #44]
 1884 0052 8A43     		bics	r2, r1
 1885 0054 DA62     		str	r2, [r3, #44]
1133:Drivers/STM32U0xx_HAL_Driver/Src/stm32u0xx_hal_pwr_ex.c **** 
 1886              		.loc 1 1133 7 view .LVU407
 1887 0056 E3E7     		b	.L248
 1888              	.L245:
1136:Drivers/STM32U0xx_HAL_Driver/Src/stm32u0xx_hal_pwr_ex.c ****       CLEAR_BIT(PWR->PDCRC, GPIO_Pin);
 1889              		.loc 1 1136 7 view .LVU408
 1890 0058 0A4B     		ldr	r3, .L250+4
 1891 005a 1A6B     		ldr	r2, [r3, #48]
 1892 005c 0A43     		orrs	r2, r1
 1893 005e 1A63     		str	r2, [r3, #48]
1137:Drivers/STM32U0xx_HAL_Driver/Src/stm32u0xx_hal_pwr_ex.c ****       break;
 1894              		.loc 1 1137 7 view .LVU409
 1895 0060 5A6B     		ldr	r2, [r3, #52]
 1896 0062 8A43     		bics	r2, r1
 1897 0064 5A63     		str	r2, [r3, #52]
1138:Drivers/STM32U0xx_HAL_Driver/Src/stm32u0xx_hal_pwr_ex.c **** 
 1898              		.loc 1 1138 7 view .LVU410
 1899 0066 DBE7     		b	.L248
 1900              	.L244:
1141:Drivers/STM32U0xx_HAL_Driver/Src/stm32u0xx_hal_pwr_ex.c ****       CLEAR_BIT(PWR->PDCRD, (GPIO_Pin & PWR_PORTD_AVAILABLE_PINS));
 1901              		.loc 1 1141 7 view .LVU411
 1902 0068 064B     		ldr	r3, .L250+4
 1903 006a 074A     		ldr	r2, .L250+8
 1904 006c 986B     		ldr	r0, [r3, #56]
 1905 006e 0A40     		ands	r2, r1
 1906 0070 1043     		orrs	r0, r2
 1907 0072 9863     		str	r0, [r3, #56]
1142:Drivers/STM32U0xx_HAL_Driver/Src/stm32u0xx_hal_pwr_ex.c ****       break;
 1908              		.loc 1 1142 7 view .LVU412
 1909 0074 D96B     		ldr	r1, [r3, #60]
 1910              	.LVL43:
1142:Drivers/STM32U0xx_HAL_Driver/Src/stm32u0xx_hal_pwr_ex.c ****       break;
 1911              		.loc 1 1142 7 is_stmt 0 view .LVU413
 1912 0076 9143     		bics	r1, r2
ARM GAS  C:\Users\upo\AppData\Local\Temp\ccJiDZ9q.s 			page 58


 1913 0078 D963     		str	r1, [r3, #60]
1143:Drivers/STM32U0xx_HAL_Driver/Src/stm32u0xx_hal_pwr_ex.c **** 
 1914              		.loc 1 1143 7 is_stmt 1 view .LVU414
 1915 007a D1E7     		b	.L248
 1916              	.LVL44:
 1917              	.L249:
1123:Drivers/STM32U0xx_HAL_Driver/Src/stm32u0xx_hal_pwr_ex.c ****   {
 1918              		.loc 1 1123 3 is_stmt 0 view .LVU415
 1919 007c 0120     		movs	r0, #1
 1920              	.LVL45:
1123:Drivers/STM32U0xx_HAL_Driver/Src/stm32u0xx_hal_pwr_ex.c ****   {
 1921              		.loc 1 1123 3 view .LVU416
 1922 007e D0E7     		b	.L240
 1923              	.L251:
 1924              		.align	2
 1925              	.L250:
 1926 0080 00000000 		.word	.L242
 1927 0084 00700040 		.word	1073770496
 1928 0088 7F3F0000 		.word	16255
 1929              		.cfi_endproc
 1930              	.LFE365:
 1932              		.section	.text.HAL_PWREx_DisableGPIOPullUp,"ax",%progbits
 1933              		.align	1
 1934              		.p2align 2,,3
 1935              		.global	HAL_PWREx_DisableGPIOPullUp
 1936              		.syntax unified
 1937              		.code	16
 1938              		.thumb_func
 1940              	HAL_PWREx_DisableGPIOPullUp:
 1941              	.LVL46:
 1942              	.LFB366:
1164:Drivers/STM32U0xx_HAL_Driver/Src/stm32u0xx_hal_pwr_ex.c **** 
1165:Drivers/STM32U0xx_HAL_Driver/Src/stm32u0xx_hal_pwr_ex.c **** /**
1166:Drivers/STM32U0xx_HAL_Driver/Src/stm32u0xx_hal_pwr_ex.c ****   * @brief Disable GPIO pull-up state in Standby mode and Shutdown modes.
1167:Drivers/STM32U0xx_HAL_Driver/Src/stm32u0xx_hal_pwr_ex.c ****   * @note  Reset the relevant PUy bits of PWR_PUCRx register used to configure the I/O
1168:Drivers/STM32U0xx_HAL_Driver/Src/stm32u0xx_hal_pwr_ex.c ****   *        in pull-up state in Standby and Shutdown modes.
1169:Drivers/STM32U0xx_HAL_Driver/Src/stm32u0xx_hal_pwr_ex.c ****   * @note  Even if a PUy bit to reset is reserved, the other PUy bits entered as input
1170:Drivers/STM32U0xx_HAL_Driver/Src/stm32u0xx_hal_pwr_ex.c ****   *        parameter at the same time are reset.
1171:Drivers/STM32U0xx_HAL_Driver/Src/stm32u0xx_hal_pwr_ex.c ****   * @param  GPIO_Port Specifies the IO port. This parameter can be PWR_GPIO_A, ..., PWR_GPIO_H
1172:Drivers/STM32U0xx_HAL_Driver/Src/stm32u0xx_hal_pwr_ex.c ****   *          (or PWR_GPIO_I depending on the devices) to select the GPIO peripheral.
1173:Drivers/STM32U0xx_HAL_Driver/Src/stm32u0xx_hal_pwr_ex.c ****   * @param  GPIO_Pin Specify the I/O pins numbers.
1174:Drivers/STM32U0xx_HAL_Driver/Src/stm32u0xx_hal_pwr_ex.c ****   *         This parameter can be one of the following values:
1175:Drivers/STM32U0xx_HAL_Driver/Src/stm32u0xx_hal_pwr_ex.c ****   *         PWR_GPIO_BIT_0, ..., PWR_GPIO_BIT_15 (except for the port where less
1176:Drivers/STM32U0xx_HAL_Driver/Src/stm32u0xx_hal_pwr_ex.c ****   *         I/O pins are available) or the logical OR of several of them to reset
1177:Drivers/STM32U0xx_HAL_Driver/Src/stm32u0xx_hal_pwr_ex.c ****   *         several bits for a given port in a single API call.
1178:Drivers/STM32U0xx_HAL_Driver/Src/stm32u0xx_hal_pwr_ex.c ****   * @retval HAL Status
1179:Drivers/STM32U0xx_HAL_Driver/Src/stm32u0xx_hal_pwr_ex.c ****   */
1180:Drivers/STM32U0xx_HAL_Driver/Src/stm32u0xx_hal_pwr_ex.c **** HAL_StatusTypeDef HAL_PWREx_DisableGPIOPullUp(uint32_t GPIO_Port, uint32_t GPIO_Pin)
1181:Drivers/STM32U0xx_HAL_Driver/Src/stm32u0xx_hal_pwr_ex.c **** {
 1943              		.loc 1 1181 1 is_stmt 1 view -0
 1944              		.cfi_startproc
 1945              		@ args = 0, pretend = 0, frame = 0
 1946              		@ frame_needed = 0, uses_anonymous_args = 0
 1947              		@ link register save eliminated.
1182:Drivers/STM32U0xx_HAL_Driver/Src/stm32u0xx_hal_pwr_ex.c ****   HAL_StatusTypeDef status = HAL_OK;
 1948              		.loc 1 1182 3 view .LVU418
1183:Drivers/STM32U0xx_HAL_Driver/Src/stm32u0xx_hal_pwr_ex.c **** 
ARM GAS  C:\Users\upo\AppData\Local\Temp\ccJiDZ9q.s 			page 59


1184:Drivers/STM32U0xx_HAL_Driver/Src/stm32u0xx_hal_pwr_ex.c ****   assert_param(IS_PWR_GPIO_PORT(GPIO_Port));
 1949              		.loc 1 1184 3 view .LVU419
1185:Drivers/STM32U0xx_HAL_Driver/Src/stm32u0xx_hal_pwr_ex.c ****   assert_param(IS_PWR_GPIO_PIN_MASK(GPIO_Pin));
 1950              		.loc 1 1185 3 view .LVU420
1186:Drivers/STM32U0xx_HAL_Driver/Src/stm32u0xx_hal_pwr_ex.c **** 
1187:Drivers/STM32U0xx_HAL_Driver/Src/stm32u0xx_hal_pwr_ex.c ****   switch (GPIO_Port)
 1951              		.loc 1 1187 3 view .LVU421
 1952 0000 0528     		cmp	r0, #5
 1953 0002 29D8     		bhi	.L262
 1954 0004 154B     		ldr	r3, .L263
 1955 0006 8000     		lsls	r0, r0, #2
 1956              	.LVL47:
 1957              		.loc 1 1187 3 is_stmt 0 view .LVU422
 1958 0008 1B58     		ldr	r3, [r3, r0]
 1959 000a 9F46     		mov	pc, r3
 1960              		.section	.rodata.HAL_PWREx_DisableGPIOPullUp,"a",%progbits
 1961              		.align	2
 1962              	.L255:
 1963 0000 2C000000 		.word	.L260
 1964 0004 36000000 		.word	.L259
 1965 0008 40000000 		.word	.L258
 1966 000c 4A000000 		.word	.L257
 1967 0010 0C000000 		.word	.L256
 1968 0014 1E000000 		.word	.L254
 1969              		.section	.text.HAL_PWREx_DisableGPIOPullUp
 1970              	.L256:
1188:Drivers/STM32U0xx_HAL_Driver/Src/stm32u0xx_hal_pwr_ex.c ****   {
1189:Drivers/STM32U0xx_HAL_Driver/Src/stm32u0xx_hal_pwr_ex.c ****     case PWR_GPIO_A:
1190:Drivers/STM32U0xx_HAL_Driver/Src/stm32u0xx_hal_pwr_ex.c ****       CLEAR_BIT(PWR->PUCRA, GPIO_Pin);
1191:Drivers/STM32U0xx_HAL_Driver/Src/stm32u0xx_hal_pwr_ex.c ****       break;
1192:Drivers/STM32U0xx_HAL_Driver/Src/stm32u0xx_hal_pwr_ex.c **** 
1193:Drivers/STM32U0xx_HAL_Driver/Src/stm32u0xx_hal_pwr_ex.c ****     case PWR_GPIO_B:
1194:Drivers/STM32U0xx_HAL_Driver/Src/stm32u0xx_hal_pwr_ex.c ****       CLEAR_BIT(PWR->PUCRB, GPIO_Pin);
1195:Drivers/STM32U0xx_HAL_Driver/Src/stm32u0xx_hal_pwr_ex.c ****       break;
1196:Drivers/STM32U0xx_HAL_Driver/Src/stm32u0xx_hal_pwr_ex.c **** 
1197:Drivers/STM32U0xx_HAL_Driver/Src/stm32u0xx_hal_pwr_ex.c ****     case PWR_GPIO_C:
1198:Drivers/STM32U0xx_HAL_Driver/Src/stm32u0xx_hal_pwr_ex.c ****       CLEAR_BIT(PWR->PUCRC, GPIO_Pin);
1199:Drivers/STM32U0xx_HAL_Driver/Src/stm32u0xx_hal_pwr_ex.c ****       break;
1200:Drivers/STM32U0xx_HAL_Driver/Src/stm32u0xx_hal_pwr_ex.c **** 
1201:Drivers/STM32U0xx_HAL_Driver/Src/stm32u0xx_hal_pwr_ex.c ****     case PWR_GPIO_D:
1202:Drivers/STM32U0xx_HAL_Driver/Src/stm32u0xx_hal_pwr_ex.c ****       CLEAR_BIT(PWR->PUCRD, (GPIO_Pin & PWR_PORTD_AVAILABLE_PINS));
1203:Drivers/STM32U0xx_HAL_Driver/Src/stm32u0xx_hal_pwr_ex.c ****       break;
1204:Drivers/STM32U0xx_HAL_Driver/Src/stm32u0xx_hal_pwr_ex.c **** 
1205:Drivers/STM32U0xx_HAL_Driver/Src/stm32u0xx_hal_pwr_ex.c **** #if defined (GPIOE)
1206:Drivers/STM32U0xx_HAL_Driver/Src/stm32u0xx_hal_pwr_ex.c ****     case PWR_GPIO_E:
1207:Drivers/STM32U0xx_HAL_Driver/Src/stm32u0xx_hal_pwr_ex.c ****       CLEAR_BIT(PWR->PUCRE, (GPIO_Pin & PWR_PORTE_AVAILABLE_PINS));
 1971              		.loc 1 1207 7 is_stmt 1 view .LVU423
 1972 000c E222     		movs	r2, #226
 1973 000e 1448     		ldr	r0, .L263+4
 1974 0010 9200     		lsls	r2, r2, #2
 1975 0012 036C     		ldr	r3, [r0, #64]
 1976 0014 0A40     		ands	r2, r1
 1977 0016 9343     		bics	r3, r2
 1978 0018 0364     		str	r3, [r0, #64]
1208:Drivers/STM32U0xx_HAL_Driver/Src/stm32u0xx_hal_pwr_ex.c ****       break;
 1979              		.loc 1 1208 7 view .LVU424
 1980              	.L261:
ARM GAS  C:\Users\upo\AppData\Local\Temp\ccJiDZ9q.s 			page 60


1182:Drivers/STM32U0xx_HAL_Driver/Src/stm32u0xx_hal_pwr_ex.c **** 
 1981              		.loc 1 1182 21 is_stmt 0 view .LVU425
 1982 001a 0020     		movs	r0, #0
 1983              	.L253:
 1984              	.LVL48:
1209:Drivers/STM32U0xx_HAL_Driver/Src/stm32u0xx_hal_pwr_ex.c **** #endif /* GPIOE */
1210:Drivers/STM32U0xx_HAL_Driver/Src/stm32u0xx_hal_pwr_ex.c **** 
1211:Drivers/STM32U0xx_HAL_Driver/Src/stm32u0xx_hal_pwr_ex.c ****     case PWR_GPIO_F:
1212:Drivers/STM32U0xx_HAL_Driver/Src/stm32u0xx_hal_pwr_ex.c ****       CLEAR_BIT(PWR->PUCRF, (GPIO_Pin & PWR_PORTF_AVAILABLE_PINS));
1213:Drivers/STM32U0xx_HAL_Driver/Src/stm32u0xx_hal_pwr_ex.c ****       break;
1214:Drivers/STM32U0xx_HAL_Driver/Src/stm32u0xx_hal_pwr_ex.c **** 
1215:Drivers/STM32U0xx_HAL_Driver/Src/stm32u0xx_hal_pwr_ex.c ****     default:
1216:Drivers/STM32U0xx_HAL_Driver/Src/stm32u0xx_hal_pwr_ex.c ****       status = HAL_ERROR;
1217:Drivers/STM32U0xx_HAL_Driver/Src/stm32u0xx_hal_pwr_ex.c ****       break;
1218:Drivers/STM32U0xx_HAL_Driver/Src/stm32u0xx_hal_pwr_ex.c ****   }
1219:Drivers/STM32U0xx_HAL_Driver/Src/stm32u0xx_hal_pwr_ex.c **** 
1220:Drivers/STM32U0xx_HAL_Driver/Src/stm32u0xx_hal_pwr_ex.c ****   return status;
 1985              		.loc 1 1220 3 is_stmt 1 view .LVU426
1221:Drivers/STM32U0xx_HAL_Driver/Src/stm32u0xx_hal_pwr_ex.c **** }
 1986              		.loc 1 1221 1 is_stmt 0 view .LVU427
 1987              		@ sp needed
 1988 001c 7047     		bx	lr
 1989              	.LVL49:
 1990              	.L254:
1212:Drivers/STM32U0xx_HAL_Driver/Src/stm32u0xx_hal_pwr_ex.c ****       break;
 1991              		.loc 1 1212 7 is_stmt 1 view .LVU428
 1992 001e 0F22     		movs	r2, #15
 1993 0020 0F48     		ldr	r0, .L263+4
 1994 0022 0A40     		ands	r2, r1
 1995 0024 836C     		ldr	r3, [r0, #72]
 1996 0026 9343     		bics	r3, r2
 1997 0028 8364     		str	r3, [r0, #72]
1213:Drivers/STM32U0xx_HAL_Driver/Src/stm32u0xx_hal_pwr_ex.c **** 
 1998              		.loc 1 1213 7 view .LVU429
 1999 002a F6E7     		b	.L261
 2000              	.L260:
1190:Drivers/STM32U0xx_HAL_Driver/Src/stm32u0xx_hal_pwr_ex.c ****       break;
 2001              		.loc 1 1190 7 view .LVU430
 2002 002c 0C4A     		ldr	r2, .L263+4
 2003 002e 136A     		ldr	r3, [r2, #32]
 2004 0030 8B43     		bics	r3, r1
 2005 0032 1362     		str	r3, [r2, #32]
1191:Drivers/STM32U0xx_HAL_Driver/Src/stm32u0xx_hal_pwr_ex.c **** 
 2006              		.loc 1 1191 7 view .LVU431
 2007 0034 F1E7     		b	.L261
 2008              	.L259:
1194:Drivers/STM32U0xx_HAL_Driver/Src/stm32u0xx_hal_pwr_ex.c ****       break;
 2009              		.loc 1 1194 7 view .LVU432
 2010 0036 0A4A     		ldr	r2, .L263+4
 2011 0038 936A     		ldr	r3, [r2, #40]
 2012 003a 8B43     		bics	r3, r1
 2013 003c 9362     		str	r3, [r2, #40]
1195:Drivers/STM32U0xx_HAL_Driver/Src/stm32u0xx_hal_pwr_ex.c **** 
 2014              		.loc 1 1195 7 view .LVU433
 2015 003e ECE7     		b	.L261
 2016              	.L258:
1198:Drivers/STM32U0xx_HAL_Driver/Src/stm32u0xx_hal_pwr_ex.c ****       break;
ARM GAS  C:\Users\upo\AppData\Local\Temp\ccJiDZ9q.s 			page 61


 2017              		.loc 1 1198 7 view .LVU434
 2018 0040 074A     		ldr	r2, .L263+4
 2019 0042 136B     		ldr	r3, [r2, #48]
 2020 0044 8B43     		bics	r3, r1
 2021 0046 1363     		str	r3, [r2, #48]
1199:Drivers/STM32U0xx_HAL_Driver/Src/stm32u0xx_hal_pwr_ex.c **** 
 2022              		.loc 1 1199 7 view .LVU435
 2023 0048 E7E7     		b	.L261
 2024              	.L257:
1202:Drivers/STM32U0xx_HAL_Driver/Src/stm32u0xx_hal_pwr_ex.c ****       break;
 2025              		.loc 1 1202 7 view .LVU436
 2026 004a 0548     		ldr	r0, .L263+4
 2027 004c 054A     		ldr	r2, .L263+8
 2028 004e 836B     		ldr	r3, [r0, #56]
 2029 0050 0A40     		ands	r2, r1
 2030 0052 9343     		bics	r3, r2
 2031 0054 8363     		str	r3, [r0, #56]
1203:Drivers/STM32U0xx_HAL_Driver/Src/stm32u0xx_hal_pwr_ex.c **** 
 2032              		.loc 1 1203 7 view .LVU437
 2033 0056 E0E7     		b	.L261
 2034              	.LVL50:
 2035              	.L262:
1187:Drivers/STM32U0xx_HAL_Driver/Src/stm32u0xx_hal_pwr_ex.c ****   {
 2036              		.loc 1 1187 3 is_stmt 0 view .LVU438
 2037 0058 0120     		movs	r0, #1
 2038              	.LVL51:
1187:Drivers/STM32U0xx_HAL_Driver/Src/stm32u0xx_hal_pwr_ex.c ****   {
 2039              		.loc 1 1187 3 view .LVU439
 2040 005a DFE7     		b	.L253
 2041              	.L264:
 2042              		.align	2
 2043              	.L263:
 2044 005c 00000000 		.word	.L255
 2045 0060 00700040 		.word	1073770496
 2046 0064 7F3F0000 		.word	16255
 2047              		.cfi_endproc
 2048              	.LFE366:
 2050              		.section	.text.HAL_PWREx_EnableGPIOPullDown,"ax",%progbits
 2051              		.align	1
 2052              		.p2align 2,,3
 2053              		.global	HAL_PWREx_EnableGPIOPullDown
 2054              		.syntax unified
 2055              		.code	16
 2056              		.thumb_func
 2058              	HAL_PWREx_EnableGPIOPullDown:
 2059              	.LVL52:
 2060              	.LFB367:
1222:Drivers/STM32U0xx_HAL_Driver/Src/stm32u0xx_hal_pwr_ex.c **** 
1223:Drivers/STM32U0xx_HAL_Driver/Src/stm32u0xx_hal_pwr_ex.c **** /**
1224:Drivers/STM32U0xx_HAL_Driver/Src/stm32u0xx_hal_pwr_ex.c ****   * @brief Enable GPIO pull-down state in Standby and Shutdown modes.
1225:Drivers/STM32U0xx_HAL_Driver/Src/stm32u0xx_hal_pwr_ex.c ****   * @note  Set the relevant PDy bits of PWR_PDCRx register to configure the I/O in
1226:Drivers/STM32U0xx_HAL_Driver/Src/stm32u0xx_hal_pwr_ex.c ****   *        pull-down state in Standby and Shutdown modes.
1227:Drivers/STM32U0xx_HAL_Driver/Src/stm32u0xx_hal_pwr_ex.c ****   * @note  This state is effective in Standby and Shutdown modes only if APC bit
1228:Drivers/STM32U0xx_HAL_Driver/Src/stm32u0xx_hal_pwr_ex.c ****   *        is set through HAL_PWREx_EnablePullUpPullDownConfig() API.
1229:Drivers/STM32U0xx_HAL_Driver/Src/stm32u0xx_hal_pwr_ex.c ****   * @note  The configuration is lost when exiting the Shutdown mode due to the
1230:Drivers/STM32U0xx_HAL_Driver/Src/stm32u0xx_hal_pwr_ex.c ****   *        power-on reset, maintained when exiting the Standby mode.
1231:Drivers/STM32U0xx_HAL_Driver/Src/stm32u0xx_hal_pwr_ex.c ****   * @note  To avoid any conflict at Standby and Shutdown modes exits, the corresponding
ARM GAS  C:\Users\upo\AppData\Local\Temp\ccJiDZ9q.s 			page 62


1232:Drivers/STM32U0xx_HAL_Driver/Src/stm32u0xx_hal_pwr_ex.c ****   *        PUy bit of PWR_PUCRx register is cleared unless it is reserved.
1233:Drivers/STM32U0xx_HAL_Driver/Src/stm32u0xx_hal_pwr_ex.c ****   * @note  Even if a PDy bit to set is reserved, the other PDy bits entered as input
1234:Drivers/STM32U0xx_HAL_Driver/Src/stm32u0xx_hal_pwr_ex.c ****   *        parameter at the same time are set.
1235:Drivers/STM32U0xx_HAL_Driver/Src/stm32u0xx_hal_pwr_ex.c ****   * @param  GPIO_Port Specify the IO port. This parameter can be PWR_GPIO_A..PWR_GPIO_H
1236:Drivers/STM32U0xx_HAL_Driver/Src/stm32u0xx_hal_pwr_ex.c ****   *         (or PWR_GPIO_I depending on the devices) to select the GPIO peripheral.
1237:Drivers/STM32U0xx_HAL_Driver/Src/stm32u0xx_hal_pwr_ex.c ****   * @param  GPIO_Pin Specify the I/O pins numbers.
1238:Drivers/STM32U0xx_HAL_Driver/Src/stm32u0xx_hal_pwr_ex.c ****   *         This parameter can be one of the following values:
1239:Drivers/STM32U0xx_HAL_Driver/Src/stm32u0xx_hal_pwr_ex.c ****   *         PWR_GPIO_BIT_0, ..., PWR_GPIO_BIT_15 (except for the port where less
1240:Drivers/STM32U0xx_HAL_Driver/Src/stm32u0xx_hal_pwr_ex.c ****   *         I/O pins are available) or the logical OR of several of them to set
1241:Drivers/STM32U0xx_HAL_Driver/Src/stm32u0xx_hal_pwr_ex.c ****   *         several bits for a given port in a single API call.
1242:Drivers/STM32U0xx_HAL_Driver/Src/stm32u0xx_hal_pwr_ex.c ****   * @retval HAL Status
1243:Drivers/STM32U0xx_HAL_Driver/Src/stm32u0xx_hal_pwr_ex.c ****   */
1244:Drivers/STM32U0xx_HAL_Driver/Src/stm32u0xx_hal_pwr_ex.c **** HAL_StatusTypeDef HAL_PWREx_EnableGPIOPullDown(uint32_t GPIO_Port, uint32_t GPIO_Pin)
1245:Drivers/STM32U0xx_HAL_Driver/Src/stm32u0xx_hal_pwr_ex.c **** {
 2061              		.loc 1 1245 1 is_stmt 1 view -0
 2062              		.cfi_startproc
 2063              		@ args = 0, pretend = 0, frame = 0
 2064              		@ frame_needed = 0, uses_anonymous_args = 0
 2065              		@ link register save eliminated.
1246:Drivers/STM32U0xx_HAL_Driver/Src/stm32u0xx_hal_pwr_ex.c ****   HAL_StatusTypeDef status = HAL_OK;
 2066              		.loc 1 1246 3 view .LVU441
1247:Drivers/STM32U0xx_HAL_Driver/Src/stm32u0xx_hal_pwr_ex.c **** 
1248:Drivers/STM32U0xx_HAL_Driver/Src/stm32u0xx_hal_pwr_ex.c ****   assert_param(IS_PWR_GPIO_PORT(GPIO_Port));
 2067              		.loc 1 1248 3 view .LVU442
1249:Drivers/STM32U0xx_HAL_Driver/Src/stm32u0xx_hal_pwr_ex.c ****   assert_param(IS_PWR_GPIO_PIN_MASK(GPIO_Pin));
 2068              		.loc 1 1249 3 view .LVU443
1250:Drivers/STM32U0xx_HAL_Driver/Src/stm32u0xx_hal_pwr_ex.c **** 
1251:Drivers/STM32U0xx_HAL_Driver/Src/stm32u0xx_hal_pwr_ex.c ****   switch (GPIO_Port)
 2069              		.loc 1 1251 3 view .LVU444
 2070 0000 0528     		cmp	r0, #5
 2071 0002 3BD8     		bhi	.L275
 2072 0004 1E4B     		ldr	r3, .L276
 2073 0006 8000     		lsls	r0, r0, #2
 2074              	.LVL53:
 2075              		.loc 1 1251 3 is_stmt 0 view .LVU445
 2076 0008 1B58     		ldr	r3, [r3, r0]
 2077 000a 9F46     		mov	pc, r3
 2078              		.section	.rodata.HAL_PWREx_EnableGPIOPullDown,"a",%progbits
 2079              		.align	2
 2080              	.L268:
 2081 0000 38000000 		.word	.L273
 2082 0004 48000000 		.word	.L272
 2083 0008 58000000 		.word	.L271
 2084 000c 68000000 		.word	.L270
 2085 0010 0C000000 		.word	.L269
 2086 0014 24000000 		.word	.L267
 2087              		.section	.text.HAL_PWREx_EnableGPIOPullDown
 2088              	.L269:
1252:Drivers/STM32U0xx_HAL_Driver/Src/stm32u0xx_hal_pwr_ex.c ****   {
1253:Drivers/STM32U0xx_HAL_Driver/Src/stm32u0xx_hal_pwr_ex.c ****     case PWR_GPIO_A:
1254:Drivers/STM32U0xx_HAL_Driver/Src/stm32u0xx_hal_pwr_ex.c ****       SET_BIT(PWR->PDCRA, GPIO_Pin);
1255:Drivers/STM32U0xx_HAL_Driver/Src/stm32u0xx_hal_pwr_ex.c ****       CLEAR_BIT(PWR->PUCRA, GPIO_Pin);
1256:Drivers/STM32U0xx_HAL_Driver/Src/stm32u0xx_hal_pwr_ex.c ****       break;
1257:Drivers/STM32U0xx_HAL_Driver/Src/stm32u0xx_hal_pwr_ex.c **** 
1258:Drivers/STM32U0xx_HAL_Driver/Src/stm32u0xx_hal_pwr_ex.c ****     case PWR_GPIO_B:
1259:Drivers/STM32U0xx_HAL_Driver/Src/stm32u0xx_hal_pwr_ex.c ****       SET_BIT(PWR->PDCRB, GPIO_Pin);
1260:Drivers/STM32U0xx_HAL_Driver/Src/stm32u0xx_hal_pwr_ex.c ****       CLEAR_BIT(PWR->PUCRB, GPIO_Pin);
ARM GAS  C:\Users\upo\AppData\Local\Temp\ccJiDZ9q.s 			page 63


1261:Drivers/STM32U0xx_HAL_Driver/Src/stm32u0xx_hal_pwr_ex.c ****       break;
1262:Drivers/STM32U0xx_HAL_Driver/Src/stm32u0xx_hal_pwr_ex.c **** 
1263:Drivers/STM32U0xx_HAL_Driver/Src/stm32u0xx_hal_pwr_ex.c ****     case PWR_GPIO_C:
1264:Drivers/STM32U0xx_HAL_Driver/Src/stm32u0xx_hal_pwr_ex.c ****       SET_BIT(PWR->PDCRC, GPIO_Pin);
1265:Drivers/STM32U0xx_HAL_Driver/Src/stm32u0xx_hal_pwr_ex.c ****       CLEAR_BIT(PWR->PUCRC, GPIO_Pin);
1266:Drivers/STM32U0xx_HAL_Driver/Src/stm32u0xx_hal_pwr_ex.c ****       break;
1267:Drivers/STM32U0xx_HAL_Driver/Src/stm32u0xx_hal_pwr_ex.c **** 
1268:Drivers/STM32U0xx_HAL_Driver/Src/stm32u0xx_hal_pwr_ex.c ****     case PWR_GPIO_D:
1269:Drivers/STM32U0xx_HAL_Driver/Src/stm32u0xx_hal_pwr_ex.c ****       SET_BIT(PWR->PDCRD, (GPIO_Pin & PWR_PORTD_AVAILABLE_PINS));
1270:Drivers/STM32U0xx_HAL_Driver/Src/stm32u0xx_hal_pwr_ex.c ****       CLEAR_BIT(PWR->PUCRD, (GPIO_Pin & PWR_PORTD_AVAILABLE_PINS));
1271:Drivers/STM32U0xx_HAL_Driver/Src/stm32u0xx_hal_pwr_ex.c ****       break;
1272:Drivers/STM32U0xx_HAL_Driver/Src/stm32u0xx_hal_pwr_ex.c **** 
1273:Drivers/STM32U0xx_HAL_Driver/Src/stm32u0xx_hal_pwr_ex.c **** #if defined (GPIOE)
1274:Drivers/STM32U0xx_HAL_Driver/Src/stm32u0xx_hal_pwr_ex.c ****     case PWR_GPIO_E:
1275:Drivers/STM32U0xx_HAL_Driver/Src/stm32u0xx_hal_pwr_ex.c ****       SET_BIT(PWR->PDCRE, (GPIO_Pin & PWR_PORTE_AVAILABLE_PINS));
 2089              		.loc 1 1275 7 is_stmt 1 view .LVU446
 2090 000c E222     		movs	r2, #226
 2091 000e 1D4B     		ldr	r3, .L276+4
 2092 0010 9200     		lsls	r2, r2, #2
 2093 0012 586C     		ldr	r0, [r3, #68]
 2094 0014 0A40     		ands	r2, r1
 2095 0016 1043     		orrs	r0, r2
 2096 0018 5864     		str	r0, [r3, #68]
1276:Drivers/STM32U0xx_HAL_Driver/Src/stm32u0xx_hal_pwr_ex.c ****       CLEAR_BIT(PWR->PUCRE, (GPIO_Pin & PWR_PORTE_AVAILABLE_PINS));
 2097              		.loc 1 1276 7 view .LVU447
 2098 001a 196C     		ldr	r1, [r3, #64]
 2099              	.LVL54:
 2100              		.loc 1 1276 7 is_stmt 0 view .LVU448
 2101 001c 9143     		bics	r1, r2
 2102 001e 1964     		str	r1, [r3, #64]
1277:Drivers/STM32U0xx_HAL_Driver/Src/stm32u0xx_hal_pwr_ex.c ****       break;
 2103              		.loc 1 1277 7 is_stmt 1 view .LVU449
 2104              	.L274:
1246:Drivers/STM32U0xx_HAL_Driver/Src/stm32u0xx_hal_pwr_ex.c **** 
 2105              		.loc 1 1246 21 is_stmt 0 view .LVU450
 2106 0020 0020     		movs	r0, #0
 2107              	.L266:
 2108              	.LVL55:
1278:Drivers/STM32U0xx_HAL_Driver/Src/stm32u0xx_hal_pwr_ex.c **** #endif /* GPIOE */
1279:Drivers/STM32U0xx_HAL_Driver/Src/stm32u0xx_hal_pwr_ex.c **** 
1280:Drivers/STM32U0xx_HAL_Driver/Src/stm32u0xx_hal_pwr_ex.c ****     case PWR_GPIO_F:
1281:Drivers/STM32U0xx_HAL_Driver/Src/stm32u0xx_hal_pwr_ex.c ****       SET_BIT(PWR->PDCRF, (GPIO_Pin & PWR_PORTF_AVAILABLE_PINS));
1282:Drivers/STM32U0xx_HAL_Driver/Src/stm32u0xx_hal_pwr_ex.c ****       CLEAR_BIT(PWR->PUCRF, (GPIO_Pin & PWR_PORTF_AVAILABLE_PINS));
1283:Drivers/STM32U0xx_HAL_Driver/Src/stm32u0xx_hal_pwr_ex.c ****       break;
1284:Drivers/STM32U0xx_HAL_Driver/Src/stm32u0xx_hal_pwr_ex.c **** 
1285:Drivers/STM32U0xx_HAL_Driver/Src/stm32u0xx_hal_pwr_ex.c ****     default:
1286:Drivers/STM32U0xx_HAL_Driver/Src/stm32u0xx_hal_pwr_ex.c ****       status = HAL_ERROR;
1287:Drivers/STM32U0xx_HAL_Driver/Src/stm32u0xx_hal_pwr_ex.c ****       break;
1288:Drivers/STM32U0xx_HAL_Driver/Src/stm32u0xx_hal_pwr_ex.c ****   }
1289:Drivers/STM32U0xx_HAL_Driver/Src/stm32u0xx_hal_pwr_ex.c **** 
1290:Drivers/STM32U0xx_HAL_Driver/Src/stm32u0xx_hal_pwr_ex.c ****   return status;
 2109              		.loc 1 1290 3 is_stmt 1 view .LVU451
1291:Drivers/STM32U0xx_HAL_Driver/Src/stm32u0xx_hal_pwr_ex.c **** }
 2110              		.loc 1 1291 1 is_stmt 0 view .LVU452
 2111              		@ sp needed
 2112 0022 7047     		bx	lr
 2113              	.LVL56:
ARM GAS  C:\Users\upo\AppData\Local\Temp\ccJiDZ9q.s 			page 64


 2114              	.L267:
1281:Drivers/STM32U0xx_HAL_Driver/Src/stm32u0xx_hal_pwr_ex.c ****       CLEAR_BIT(PWR->PUCRF, (GPIO_Pin & PWR_PORTF_AVAILABLE_PINS));
 2115              		.loc 1 1281 7 is_stmt 1 view .LVU453
 2116 0024 0F22     		movs	r2, #15
 2117 0026 174B     		ldr	r3, .L276+4
 2118 0028 0A40     		ands	r2, r1
 2119 002a D86C     		ldr	r0, [r3, #76]
 2120 002c 1043     		orrs	r0, r2
 2121 002e D864     		str	r0, [r3, #76]
1282:Drivers/STM32U0xx_HAL_Driver/Src/stm32u0xx_hal_pwr_ex.c ****       break;
 2122              		.loc 1 1282 7 view .LVU454
 2123 0030 996C     		ldr	r1, [r3, #72]
 2124              	.LVL57:
1282:Drivers/STM32U0xx_HAL_Driver/Src/stm32u0xx_hal_pwr_ex.c ****       break;
 2125              		.loc 1 1282 7 is_stmt 0 view .LVU455
 2126 0032 9143     		bics	r1, r2
 2127 0034 9964     		str	r1, [r3, #72]
1283:Drivers/STM32U0xx_HAL_Driver/Src/stm32u0xx_hal_pwr_ex.c **** 
 2128              		.loc 1 1283 7 is_stmt 1 view .LVU456
 2129 0036 F3E7     		b	.L274
 2130              	.LVL58:
 2131              	.L273:
1254:Drivers/STM32U0xx_HAL_Driver/Src/stm32u0xx_hal_pwr_ex.c ****       CLEAR_BIT(PWR->PUCRA, GPIO_Pin);
 2132              		.loc 1 1254 7 view .LVU457
 2133 0038 124B     		ldr	r3, .L276+4
 2134 003a 5A6A     		ldr	r2, [r3, #36]
 2135 003c 0A43     		orrs	r2, r1
 2136 003e 5A62     		str	r2, [r3, #36]
1255:Drivers/STM32U0xx_HAL_Driver/Src/stm32u0xx_hal_pwr_ex.c ****       break;
 2137              		.loc 1 1255 7 view .LVU458
 2138 0040 1A6A     		ldr	r2, [r3, #32]
 2139 0042 8A43     		bics	r2, r1
 2140 0044 1A62     		str	r2, [r3, #32]
1256:Drivers/STM32U0xx_HAL_Driver/Src/stm32u0xx_hal_pwr_ex.c **** 
 2141              		.loc 1 1256 7 view .LVU459
 2142 0046 EBE7     		b	.L274
 2143              	.L272:
1259:Drivers/STM32U0xx_HAL_Driver/Src/stm32u0xx_hal_pwr_ex.c ****       CLEAR_BIT(PWR->PUCRB, GPIO_Pin);
 2144              		.loc 1 1259 7 view .LVU460
 2145 0048 0E4B     		ldr	r3, .L276+4
 2146 004a DA6A     		ldr	r2, [r3, #44]
 2147 004c 0A43     		orrs	r2, r1
 2148 004e DA62     		str	r2, [r3, #44]
1260:Drivers/STM32U0xx_HAL_Driver/Src/stm32u0xx_hal_pwr_ex.c ****       break;
 2149              		.loc 1 1260 7 view .LVU461
 2150 0050 9A6A     		ldr	r2, [r3, #40]
 2151 0052 8A43     		bics	r2, r1
 2152 0054 9A62     		str	r2, [r3, #40]
1261:Drivers/STM32U0xx_HAL_Driver/Src/stm32u0xx_hal_pwr_ex.c **** 
 2153              		.loc 1 1261 7 view .LVU462
 2154 0056 E3E7     		b	.L274
 2155              	.L271:
1264:Drivers/STM32U0xx_HAL_Driver/Src/stm32u0xx_hal_pwr_ex.c ****       CLEAR_BIT(PWR->PUCRC, GPIO_Pin);
 2156              		.loc 1 1264 7 view .LVU463
 2157 0058 0A4B     		ldr	r3, .L276+4
 2158 005a 5A6B     		ldr	r2, [r3, #52]
 2159 005c 0A43     		orrs	r2, r1
ARM GAS  C:\Users\upo\AppData\Local\Temp\ccJiDZ9q.s 			page 65


 2160 005e 5A63     		str	r2, [r3, #52]
1265:Drivers/STM32U0xx_HAL_Driver/Src/stm32u0xx_hal_pwr_ex.c ****       break;
 2161              		.loc 1 1265 7 view .LVU464
 2162 0060 1A6B     		ldr	r2, [r3, #48]
 2163 0062 8A43     		bics	r2, r1
 2164 0064 1A63     		str	r2, [r3, #48]
1266:Drivers/STM32U0xx_HAL_Driver/Src/stm32u0xx_hal_pwr_ex.c **** 
 2165              		.loc 1 1266 7 view .LVU465
 2166 0066 DBE7     		b	.L274
 2167              	.L270:
1269:Drivers/STM32U0xx_HAL_Driver/Src/stm32u0xx_hal_pwr_ex.c ****       CLEAR_BIT(PWR->PUCRD, (GPIO_Pin & PWR_PORTD_AVAILABLE_PINS));
 2168              		.loc 1 1269 7 view .LVU466
 2169 0068 064B     		ldr	r3, .L276+4
 2170 006a 074A     		ldr	r2, .L276+8
 2171 006c D86B     		ldr	r0, [r3, #60]
 2172 006e 0A40     		ands	r2, r1
 2173 0070 1043     		orrs	r0, r2
 2174 0072 D863     		str	r0, [r3, #60]
1270:Drivers/STM32U0xx_HAL_Driver/Src/stm32u0xx_hal_pwr_ex.c ****       break;
 2175              		.loc 1 1270 7 view .LVU467
 2176 0074 996B     		ldr	r1, [r3, #56]
 2177              	.LVL59:
1270:Drivers/STM32U0xx_HAL_Driver/Src/stm32u0xx_hal_pwr_ex.c ****       break;
 2178              		.loc 1 1270 7 is_stmt 0 view .LVU468
 2179 0076 9143     		bics	r1, r2
 2180 0078 9963     		str	r1, [r3, #56]
1271:Drivers/STM32U0xx_HAL_Driver/Src/stm32u0xx_hal_pwr_ex.c **** 
 2181              		.loc 1 1271 7 is_stmt 1 view .LVU469
 2182 007a D1E7     		b	.L274
 2183              	.LVL60:
 2184              	.L275:
1251:Drivers/STM32U0xx_HAL_Driver/Src/stm32u0xx_hal_pwr_ex.c ****   {
 2185              		.loc 1 1251 3 is_stmt 0 view .LVU470
 2186 007c 0120     		movs	r0, #1
 2187              	.LVL61:
1251:Drivers/STM32U0xx_HAL_Driver/Src/stm32u0xx_hal_pwr_ex.c ****   {
 2188              		.loc 1 1251 3 view .LVU471
 2189 007e D0E7     		b	.L266
 2190              	.L277:
 2191              		.align	2
 2192              	.L276:
 2193 0080 00000000 		.word	.L268
 2194 0084 00700040 		.word	1073770496
 2195 0088 7F3F0000 		.word	16255
 2196              		.cfi_endproc
 2197              	.LFE367:
 2199              		.section	.text.HAL_PWREx_DisableGPIOPullDown,"ax",%progbits
 2200              		.align	1
 2201              		.p2align 2,,3
 2202              		.global	HAL_PWREx_DisableGPIOPullDown
 2203              		.syntax unified
 2204              		.code	16
 2205              		.thumb_func
 2207              	HAL_PWREx_DisableGPIOPullDown:
 2208              	.LVL62:
 2209              	.LFB368:
1292:Drivers/STM32U0xx_HAL_Driver/Src/stm32u0xx_hal_pwr_ex.c **** 
ARM GAS  C:\Users\upo\AppData\Local\Temp\ccJiDZ9q.s 			page 66


1293:Drivers/STM32U0xx_HAL_Driver/Src/stm32u0xx_hal_pwr_ex.c **** /**
1294:Drivers/STM32U0xx_HAL_Driver/Src/stm32u0xx_hal_pwr_ex.c ****   * @brief Disable GPIO pull-down state in Standby and Shutdown modes.
1295:Drivers/STM32U0xx_HAL_Driver/Src/stm32u0xx_hal_pwr_ex.c ****   * @note  Reset the relevant PDy bits of PWR_PDCRx register used to configure the I/O
1296:Drivers/STM32U0xx_HAL_Driver/Src/stm32u0xx_hal_pwr_ex.c ****   *        in pull-down state in Standby and Shutdown modes.
1297:Drivers/STM32U0xx_HAL_Driver/Src/stm32u0xx_hal_pwr_ex.c ****   * @note  Even if a PDy bit to reset is reserved, the other PDy bits entered as input
1298:Drivers/STM32U0xx_HAL_Driver/Src/stm32u0xx_hal_pwr_ex.c ****   *        parameter at the same time are reset.
1299:Drivers/STM32U0xx_HAL_Driver/Src/stm32u0xx_hal_pwr_ex.c ****   * @param  GPIO_Port Specifies the IO port. This parameter can be PWR_GPIO_A..PWR_GPIO_H
1300:Drivers/STM32U0xx_HAL_Driver/Src/stm32u0xx_hal_pwr_ex.c ****   *         (or PWR_GPIO_I depending on the devices) to select the GPIO peripheral.
1301:Drivers/STM32U0xx_HAL_Driver/Src/stm32u0xx_hal_pwr_ex.c ****   * @param  GPIO_Pin Specify the I/O pins numbers.
1302:Drivers/STM32U0xx_HAL_Driver/Src/stm32u0xx_hal_pwr_ex.c ****   *         This parameter can be one of the following values:
1303:Drivers/STM32U0xx_HAL_Driver/Src/stm32u0xx_hal_pwr_ex.c ****   *         PWR_GPIO_BIT_0, ..., PWR_GPIO_BIT_15 (except for the port where less
1304:Drivers/STM32U0xx_HAL_Driver/Src/stm32u0xx_hal_pwr_ex.c ****   *         I/O pins are available) or the logical OR of several of them to reset
1305:Drivers/STM32U0xx_HAL_Driver/Src/stm32u0xx_hal_pwr_ex.c ****   *         several bits for a given port in a single API call.
1306:Drivers/STM32U0xx_HAL_Driver/Src/stm32u0xx_hal_pwr_ex.c ****   * @retval HAL Status
1307:Drivers/STM32U0xx_HAL_Driver/Src/stm32u0xx_hal_pwr_ex.c ****   */
1308:Drivers/STM32U0xx_HAL_Driver/Src/stm32u0xx_hal_pwr_ex.c **** HAL_StatusTypeDef HAL_PWREx_DisableGPIOPullDown(uint32_t GPIO_Port, uint32_t GPIO_Pin)
1309:Drivers/STM32U0xx_HAL_Driver/Src/stm32u0xx_hal_pwr_ex.c **** {
 2210              		.loc 1 1309 1 is_stmt 1 view -0
 2211              		.cfi_startproc
 2212              		@ args = 0, pretend = 0, frame = 0
 2213              		@ frame_needed = 0, uses_anonymous_args = 0
 2214              		@ link register save eliminated.
1310:Drivers/STM32U0xx_HAL_Driver/Src/stm32u0xx_hal_pwr_ex.c ****   HAL_StatusTypeDef status = HAL_OK;
 2215              		.loc 1 1310 3 view .LVU473
1311:Drivers/STM32U0xx_HAL_Driver/Src/stm32u0xx_hal_pwr_ex.c **** 
1312:Drivers/STM32U0xx_HAL_Driver/Src/stm32u0xx_hal_pwr_ex.c ****   assert_param(IS_PWR_GPIO_PORT(GPIO_Port));
 2216              		.loc 1 1312 3 view .LVU474
1313:Drivers/STM32U0xx_HAL_Driver/Src/stm32u0xx_hal_pwr_ex.c ****   assert_param(IS_PWR_GPIO_PIN_MASK(GPIO_Pin));
 2217              		.loc 1 1313 3 view .LVU475
1314:Drivers/STM32U0xx_HAL_Driver/Src/stm32u0xx_hal_pwr_ex.c **** 
1315:Drivers/STM32U0xx_HAL_Driver/Src/stm32u0xx_hal_pwr_ex.c ****   switch (GPIO_Port)
 2218              		.loc 1 1315 3 view .LVU476
 2219 0000 0528     		cmp	r0, #5
 2220 0002 29D8     		bhi	.L288
 2221 0004 154B     		ldr	r3, .L289
 2222 0006 8000     		lsls	r0, r0, #2
 2223              	.LVL63:
 2224              		.loc 1 1315 3 is_stmt 0 view .LVU477
 2225 0008 1B58     		ldr	r3, [r3, r0]
 2226 000a 9F46     		mov	pc, r3
 2227              		.section	.rodata.HAL_PWREx_DisableGPIOPullDown,"a",%progbits
 2228              		.align	2
 2229              	.L281:
 2230 0000 2C000000 		.word	.L286
 2231 0004 36000000 		.word	.L285
 2232 0008 40000000 		.word	.L284
 2233 000c 4A000000 		.word	.L283
 2234 0010 0C000000 		.word	.L282
 2235 0014 1E000000 		.word	.L280
 2236              		.section	.text.HAL_PWREx_DisableGPIOPullDown
 2237              	.L282:
1316:Drivers/STM32U0xx_HAL_Driver/Src/stm32u0xx_hal_pwr_ex.c ****   {
1317:Drivers/STM32U0xx_HAL_Driver/Src/stm32u0xx_hal_pwr_ex.c ****     case PWR_GPIO_A:
1318:Drivers/STM32U0xx_HAL_Driver/Src/stm32u0xx_hal_pwr_ex.c ****       CLEAR_BIT(PWR->PDCRA, GPIO_Pin);
1319:Drivers/STM32U0xx_HAL_Driver/Src/stm32u0xx_hal_pwr_ex.c ****       break;
1320:Drivers/STM32U0xx_HAL_Driver/Src/stm32u0xx_hal_pwr_ex.c **** 
1321:Drivers/STM32U0xx_HAL_Driver/Src/stm32u0xx_hal_pwr_ex.c ****     case PWR_GPIO_B:
ARM GAS  C:\Users\upo\AppData\Local\Temp\ccJiDZ9q.s 			page 67


1322:Drivers/STM32U0xx_HAL_Driver/Src/stm32u0xx_hal_pwr_ex.c ****       CLEAR_BIT(PWR->PDCRB, GPIO_Pin);
1323:Drivers/STM32U0xx_HAL_Driver/Src/stm32u0xx_hal_pwr_ex.c ****       break;
1324:Drivers/STM32U0xx_HAL_Driver/Src/stm32u0xx_hal_pwr_ex.c **** 
1325:Drivers/STM32U0xx_HAL_Driver/Src/stm32u0xx_hal_pwr_ex.c ****     case PWR_GPIO_C:
1326:Drivers/STM32U0xx_HAL_Driver/Src/stm32u0xx_hal_pwr_ex.c ****       CLEAR_BIT(PWR->PDCRC, GPIO_Pin);
1327:Drivers/STM32U0xx_HAL_Driver/Src/stm32u0xx_hal_pwr_ex.c ****       break;
1328:Drivers/STM32U0xx_HAL_Driver/Src/stm32u0xx_hal_pwr_ex.c **** 
1329:Drivers/STM32U0xx_HAL_Driver/Src/stm32u0xx_hal_pwr_ex.c ****     case PWR_GPIO_D:
1330:Drivers/STM32U0xx_HAL_Driver/Src/stm32u0xx_hal_pwr_ex.c ****       CLEAR_BIT(PWR->PDCRD, (GPIO_Pin & PWR_PORTD_AVAILABLE_PINS));
1331:Drivers/STM32U0xx_HAL_Driver/Src/stm32u0xx_hal_pwr_ex.c ****       break;
1332:Drivers/STM32U0xx_HAL_Driver/Src/stm32u0xx_hal_pwr_ex.c **** 
1333:Drivers/STM32U0xx_HAL_Driver/Src/stm32u0xx_hal_pwr_ex.c **** #if defined (GPIOE)
1334:Drivers/STM32U0xx_HAL_Driver/Src/stm32u0xx_hal_pwr_ex.c ****     case PWR_GPIO_E:
1335:Drivers/STM32U0xx_HAL_Driver/Src/stm32u0xx_hal_pwr_ex.c ****       CLEAR_BIT(PWR->PDCRE, (GPIO_Pin & PWR_PORTE_AVAILABLE_PINS));
 2238              		.loc 1 1335 7 is_stmt 1 view .LVU478
 2239 000c E222     		movs	r2, #226
 2240 000e 1448     		ldr	r0, .L289+4
 2241 0010 9200     		lsls	r2, r2, #2
 2242 0012 436C     		ldr	r3, [r0, #68]
 2243 0014 0A40     		ands	r2, r1
 2244 0016 9343     		bics	r3, r2
 2245 0018 4364     		str	r3, [r0, #68]
1336:Drivers/STM32U0xx_HAL_Driver/Src/stm32u0xx_hal_pwr_ex.c ****       break;
 2246              		.loc 1 1336 7 view .LVU479
 2247              	.L287:
1310:Drivers/STM32U0xx_HAL_Driver/Src/stm32u0xx_hal_pwr_ex.c **** 
 2248              		.loc 1 1310 21 is_stmt 0 view .LVU480
 2249 001a 0020     		movs	r0, #0
 2250              	.L279:
 2251              	.LVL64:
1337:Drivers/STM32U0xx_HAL_Driver/Src/stm32u0xx_hal_pwr_ex.c **** #endif /* GPIOE */
1338:Drivers/STM32U0xx_HAL_Driver/Src/stm32u0xx_hal_pwr_ex.c **** 
1339:Drivers/STM32U0xx_HAL_Driver/Src/stm32u0xx_hal_pwr_ex.c ****     case PWR_GPIO_F:
1340:Drivers/STM32U0xx_HAL_Driver/Src/stm32u0xx_hal_pwr_ex.c ****       CLEAR_BIT(PWR->PDCRF, (GPIO_Pin & PWR_PORTF_AVAILABLE_PINS));
1341:Drivers/STM32U0xx_HAL_Driver/Src/stm32u0xx_hal_pwr_ex.c ****       break;
1342:Drivers/STM32U0xx_HAL_Driver/Src/stm32u0xx_hal_pwr_ex.c **** 
1343:Drivers/STM32U0xx_HAL_Driver/Src/stm32u0xx_hal_pwr_ex.c ****     default:
1344:Drivers/STM32U0xx_HAL_Driver/Src/stm32u0xx_hal_pwr_ex.c ****       status = HAL_ERROR;
1345:Drivers/STM32U0xx_HAL_Driver/Src/stm32u0xx_hal_pwr_ex.c ****       break;
1346:Drivers/STM32U0xx_HAL_Driver/Src/stm32u0xx_hal_pwr_ex.c ****   }
1347:Drivers/STM32U0xx_HAL_Driver/Src/stm32u0xx_hal_pwr_ex.c **** 
1348:Drivers/STM32U0xx_HAL_Driver/Src/stm32u0xx_hal_pwr_ex.c ****   return status;
 2252              		.loc 1 1348 3 is_stmt 1 view .LVU481
1349:Drivers/STM32U0xx_HAL_Driver/Src/stm32u0xx_hal_pwr_ex.c **** }
 2253              		.loc 1 1349 1 is_stmt 0 view .LVU482
