ARM GAS  C:\Users\upo\AppData\Local\Temp\ccTc2A2n.s 			page 1


   1              		.cpu cortex-m0plus
   2              		.arch armv6s-m
   3              		.fpu softvfp
   4              		.eabi_attribute 20, 1
   5              		.eabi_attribute 21, 1
   6              		.eabi_attribute 23, 3
   7              		.eabi_attribute 24, 1
   8              		.eabi_attribute 25, 1
   9              		.eabi_attribute 26, 1
  10              		.eabi_attribute 30, 1
  11              		.eabi_attribute 34, 0
  12              		.eabi_attribute 18, 4
  13              		.file	"stm32u0xx_hal_pwr_ex.c"
  14              		.text
  15              	.Ltext0:
  16              		.cfi_sections	.debug_frame
  17              		.file 1 "Drivers/STM32U0xx_HAL_Driver/Src/stm32u0xx_hal_pwr_ex.c"
  18              		.global	__aeabi_uidiv
  19              		.section	.text.HAL_PWREx_ControlVoltageScaling,"ax",%progbits
  20              		.align	1
  21              		.global	HAL_PWREx_ControlVoltageScaling
  22              		.syntax unified
  23              		.code	16
  24              		.thumb_func
  26              	HAL_PWREx_ControlVoltageScaling:
  27              	.LVL0:
  28              	.LFB334:
   1:Drivers/STM32U0xx_HAL_Driver/Src/stm32u0xx_hal_pwr_ex.c **** /**
   2:Drivers/STM32U0xx_HAL_Driver/Src/stm32u0xx_hal_pwr_ex.c ****   ******************************************************************************
   3:Drivers/STM32U0xx_HAL_Driver/Src/stm32u0xx_hal_pwr_ex.c ****   * @file    stm32u0xx_hal_pwr_ex.c
   4:Drivers/STM32U0xx_HAL_Driver/Src/stm32u0xx_hal_pwr_ex.c ****   * @author  MCD Application Team
   5:Drivers/STM32U0xx_HAL_Driver/Src/stm32u0xx_hal_pwr_ex.c ****   * @brief   Extended PWR HAL module driver.
   6:Drivers/STM32U0xx_HAL_Driver/Src/stm32u0xx_hal_pwr_ex.c ****   *          This file provides firmware functions to manage the following
   7:Drivers/STM32U0xx_HAL_Driver/Src/stm32u0xx_hal_pwr_ex.c ****   *          functionalities of the Power Controller extension peripheral :
   8:Drivers/STM32U0xx_HAL_Driver/Src/stm32u0xx_hal_pwr_ex.c ****   *           + Power Supply Control Functions
   9:Drivers/STM32U0xx_HAL_Driver/Src/stm32u0xx_hal_pwr_ex.c ****   *           + Low Power Control Functions
  10:Drivers/STM32U0xx_HAL_Driver/Src/stm32u0xx_hal_pwr_ex.c ****   *           + Voltage Monitoring Functions
  11:Drivers/STM32U0xx_HAL_Driver/Src/stm32u0xx_hal_pwr_ex.c ****   *           + Memories Retention Functions
  12:Drivers/STM32U0xx_HAL_Driver/Src/stm32u0xx_hal_pwr_ex.c ****   *           + I/O Pull-Up Pull-Down Configuration Functions
  13:Drivers/STM32U0xx_HAL_Driver/Src/stm32u0xx_hal_pwr_ex.c ****   *
  14:Drivers/STM32U0xx_HAL_Driver/Src/stm32u0xx_hal_pwr_ex.c ****   ******************************************************************************
  15:Drivers/STM32U0xx_HAL_Driver/Src/stm32u0xx_hal_pwr_ex.c ****   * @attention
  16:Drivers/STM32U0xx_HAL_Driver/Src/stm32u0xx_hal_pwr_ex.c ****   *
  17:Drivers/STM32U0xx_HAL_Driver/Src/stm32u0xx_hal_pwr_ex.c ****   * Copyright (c) 2023 STMicroelectronics.
  18:Drivers/STM32U0xx_HAL_Driver/Src/stm32u0xx_hal_pwr_ex.c ****   * All rights reserved.
  19:Drivers/STM32U0xx_HAL_Driver/Src/stm32u0xx_hal_pwr_ex.c ****   *
  20:Drivers/STM32U0xx_HAL_Driver/Src/stm32u0xx_hal_pwr_ex.c ****   * This software is licensed under terms that can be found in the LICENSE file
  21:Drivers/STM32U0xx_HAL_Driver/Src/stm32u0xx_hal_pwr_ex.c ****   * in the root directory of this software component.
  22:Drivers/STM32U0xx_HAL_Driver/Src/stm32u0xx_hal_pwr_ex.c ****   * If no LICENSE file comes with this software, it is provided AS-IS.
  23:Drivers/STM32U0xx_HAL_Driver/Src/stm32u0xx_hal_pwr_ex.c ****   *
  24:Drivers/STM32U0xx_HAL_Driver/Src/stm32u0xx_hal_pwr_ex.c ****   ******************************************************************************
  25:Drivers/STM32U0xx_HAL_Driver/Src/stm32u0xx_hal_pwr_ex.c ****     @verbatim
  26:Drivers/STM32U0xx_HAL_Driver/Src/stm32u0xx_hal_pwr_ex.c ****   ==============================================================================
  27:Drivers/STM32U0xx_HAL_Driver/Src/stm32u0xx_hal_pwr_ex.c ****                         ##### How to use this driver #####
  28:Drivers/STM32U0xx_HAL_Driver/Src/stm32u0xx_hal_pwr_ex.c ****   ==============================================================================
  29:Drivers/STM32U0xx_HAL_Driver/Src/stm32u0xx_hal_pwr_ex.c ****   [..]
  30:Drivers/STM32U0xx_HAL_Driver/Src/stm32u0xx_hal_pwr_ex.c ****    (#) Call HAL_PWREx_ControlVoltageScaling() and HAL_PWREx_GetVoltageRange() to
ARM GAS  C:\Users\upo\AppData\Local\Temp\ccTc2A2n.s 			page 2


  31:Drivers/STM32U0xx_HAL_Driver/Src/stm32u0xx_hal_pwr_ex.c ****        set / get the voltage scaling range.
  32:Drivers/STM32U0xx_HAL_Driver/Src/stm32u0xx_hal_pwr_ex.c ****       (+) Voltage scaling can be one of the following values :
  33:Drivers/STM32U0xx_HAL_Driver/Src/stm32u0xx_hal_pwr_ex.c ****              (++) voltage output scale 1 : 1V2
  34:Drivers/STM32U0xx_HAL_Driver/Src/stm32u0xx_hal_pwr_ex.c ****                   => Used when system clock frequency is up to 160 MHz
  35:Drivers/STM32U0xx_HAL_Driver/Src/stm32u0xx_hal_pwr_ex.c ****              (++) voltage output scale 2 : 1V1
  36:Drivers/STM32U0xx_HAL_Driver/Src/stm32u0xx_hal_pwr_ex.c ****                   => Used when system clock frequency is up to 100 MHz
  37:Drivers/STM32U0xx_HAL_Driver/Src/stm32u0xx_hal_pwr_ex.c **** 
  38:Drivers/STM32U0xx_HAL_Driver/Src/stm32u0xx_hal_pwr_ex.c ****    (#) Call HAL_PWREx_EnterSTOP1Mode() function to enter the whole system to
  39:Drivers/STM32U0xx_HAL_Driver/Src/stm32u0xx_hal_pwr_ex.c ****        Stop 1 mode. Wake-up from Stop 1 mode could be following to an event or
  40:Drivers/STM32U0xx_HAL_Driver/Src/stm32u0xx_hal_pwr_ex.c ****        an interrupt according to low power mode intrinsic request called
  41:Drivers/STM32U0xx_HAL_Driver/Src/stm32u0xx_hal_pwr_ex.c ****        (__WFI() or __WFE()). (Regulator state on U0 devices is managed
  42:Drivers/STM32U0xx_HAL_Driver/Src/stm32u0xx_hal_pwr_ex.c ****        internally but regulator parameter is kept for product compatibility).
  43:Drivers/STM32U0xx_HAL_Driver/Src/stm32u0xx_hal_pwr_ex.c **** 
  44:Drivers/STM32U0xx_HAL_Driver/Src/stm32u0xx_hal_pwr_ex.c ****    (#) Call HAL_PWREx_EnterSTOP2Mode() function to enter the whole system to
  45:Drivers/STM32U0xx_HAL_Driver/Src/stm32u0xx_hal_pwr_ex.c ****        Stop 2 mode. Wake-up from Stop 2 mode could be following to an event or
  46:Drivers/STM32U0xx_HAL_Driver/Src/stm32u0xx_hal_pwr_ex.c ****        an interrupt according to low power mode intrinsic request called
  47:Drivers/STM32U0xx_HAL_Driver/Src/stm32u0xx_hal_pwr_ex.c ****        (__WFI() or __WFE()). (Regulator state on U0 devices is managed
  48:Drivers/STM32U0xx_HAL_Driver/Src/stm32u0xx_hal_pwr_ex.c ****        internally but regulator parameter is kept for product compatibility).
  49:Drivers/STM32U0xx_HAL_Driver/Src/stm32u0xx_hal_pwr_ex.c **** 
  50:Drivers/STM32U0xx_HAL_Driver/Src/stm32u0xx_hal_pwr_ex.c ****    (#) Call HAL_PWREx_EnableBatteryCharging() and
  51:Drivers/STM32U0xx_HAL_Driver/Src/stm32u0xx_hal_pwr_ex.c ****        HAL_PWREx_DisableBatteryCharging() to enable / disable the battery
  52:Drivers/STM32U0xx_HAL_Driver/Src/stm32u0xx_hal_pwr_ex.c ****        charging capability when VDD alimentation is available.
  53:Drivers/STM32U0xx_HAL_Driver/Src/stm32u0xx_hal_pwr_ex.c **** 
  54:Drivers/STM32U0xx_HAL_Driver/Src/stm32u0xx_hal_pwr_ex.c ****    (#) Call HAL_PWREx_ConfigPVM() after setting parameters to be configured
  55:Drivers/STM32U0xx_HAL_Driver/Src/stm32u0xx_hal_pwr_ex.c ****        (event mode and PVD type) in order to set up the Peripheral Voltage use
  56:Drivers/STM32U0xx_HAL_Driver/Src/stm32u0xx_hal_pwr_ex.c ****        HAL_PWREx_EnablePVM1(),HAL_PWREx_EnablePVM3() and HAL_PWREx_EnablePVM4()
  57:Drivers/STM32U0xx_HAL_Driver/Src/stm32u0xx_hal_pwr_ex.c ****        functions and use HAL_PWREx_DisablePVM1(),HAL_PWREx_EnablePVM3()
  58:Drivers/STM32U0xx_HAL_Driver/Src/stm32u0xx_hal_pwr_ex.c ****        and HAL_PWREx_EnablePVM4() to stop the PVM VDDx monitoring.
  59:Drivers/STM32U0xx_HAL_Driver/Src/stm32u0xx_hal_pwr_ex.c ****        (+) PVM monitored voltages are :
  60:Drivers/STM32U0xx_HAL_Driver/Src/stm32u0xx_hal_pwr_ex.c ****              (++) VDDUSB versus 1V2
  61:Drivers/STM32U0xx_HAL_Driver/Src/stm32u0xx_hal_pwr_ex.c ****              (++) VDDADC versus 1V62
  62:Drivers/STM32U0xx_HAL_Driver/Src/stm32u0xx_hal_pwr_ex.c ****              (++) VDDDAC versus 2V2
  63:Drivers/STM32U0xx_HAL_Driver/Src/stm32u0xx_hal_pwr_ex.c **** 
  64:Drivers/STM32U0xx_HAL_Driver/Src/stm32u0xx_hal_pwr_ex.c ****    (#) Call HAL_PWREx_PVD_PVM_IRQHandler() function to handle the PWR PVD and
  65:Drivers/STM32U0xx_HAL_Driver/Src/stm32u0xx_hal_pwr_ex.c ****        PVM interrupt request.
  66:Drivers/STM32U0xx_HAL_Driver/Src/stm32u0xx_hal_pwr_ex.c **** 
  67:Drivers/STM32U0xx_HAL_Driver/Src/stm32u0xx_hal_pwr_ex.c ****    (#) Call HAL_PWREx_EnablePullUpPullDownConfig() and
  68:Drivers/STM32U0xx_HAL_Driver/Src/stm32u0xx_hal_pwr_ex.c ****        HAL_PWREx_DisablePullUpPullDownConfig() to I/O enable / disable pull-up
  69:Drivers/STM32U0xx_HAL_Driver/Src/stm32u0xx_hal_pwr_ex.c ****        and pull-down configuration.
  70:Drivers/STM32U0xx_HAL_Driver/Src/stm32u0xx_hal_pwr_ex.c **** 
  71:Drivers/STM32U0xx_HAL_Driver/Src/stm32u0xx_hal_pwr_ex.c ****    (#) Call HAL_PWREx_EnableGPIOPullUp() and HAL_PWREx_EnableGPIOPullDown() to
  72:Drivers/STM32U0xx_HAL_Driver/Src/stm32u0xx_hal_pwr_ex.c ****        apply respectively pull-up and pull-down to selected I/O.
  73:Drivers/STM32U0xx_HAL_Driver/Src/stm32u0xx_hal_pwr_ex.c ****        Call HAL_PWREx_DisableGPIOPullUp() and HAL_PWREx_DisableGPIOPullDown() to
  74:Drivers/STM32U0xx_HAL_Driver/Src/stm32u0xx_hal_pwr_ex.c ****        disable applied respectively pull-up and pull-down to selected I/O.
  75:Drivers/STM32U0xx_HAL_Driver/Src/stm32u0xx_hal_pwr_ex.c **** 
  76:Drivers/STM32U0xx_HAL_Driver/Src/stm32u0xx_hal_pwr_ex.c ****   @endverbatim
  77:Drivers/STM32U0xx_HAL_Driver/Src/stm32u0xx_hal_pwr_ex.c ****   ******************************************************************************
  78:Drivers/STM32U0xx_HAL_Driver/Src/stm32u0xx_hal_pwr_ex.c ****   */
  79:Drivers/STM32U0xx_HAL_Driver/Src/stm32u0xx_hal_pwr_ex.c **** 
  80:Drivers/STM32U0xx_HAL_Driver/Src/stm32u0xx_hal_pwr_ex.c **** /* Includes ------------------------------------------------------------------*/
  81:Drivers/STM32U0xx_HAL_Driver/Src/stm32u0xx_hal_pwr_ex.c **** #include "stm32u0xx_hal.h"
  82:Drivers/STM32U0xx_HAL_Driver/Src/stm32u0xx_hal_pwr_ex.c **** 
  83:Drivers/STM32U0xx_HAL_Driver/Src/stm32u0xx_hal_pwr_ex.c **** /** @addtogroup STM32U0xx_HAL_Driver
  84:Drivers/STM32U0xx_HAL_Driver/Src/stm32u0xx_hal_pwr_ex.c ****   * @{
  85:Drivers/STM32U0xx_HAL_Driver/Src/stm32u0xx_hal_pwr_ex.c ****   */
  86:Drivers/STM32U0xx_HAL_Driver/Src/stm32u0xx_hal_pwr_ex.c **** 
  87:Drivers/STM32U0xx_HAL_Driver/Src/stm32u0xx_hal_pwr_ex.c **** /** @defgroup PWREx PWREx
ARM GAS  C:\Users\upo\AppData\Local\Temp\ccTc2A2n.s 			page 3


  88:Drivers/STM32U0xx_HAL_Driver/Src/stm32u0xx_hal_pwr_ex.c ****   * @brief PWR Extended HAL module driver
  89:Drivers/STM32U0xx_HAL_Driver/Src/stm32u0xx_hal_pwr_ex.c ****   * @{
  90:Drivers/STM32U0xx_HAL_Driver/Src/stm32u0xx_hal_pwr_ex.c ****   */
  91:Drivers/STM32U0xx_HAL_Driver/Src/stm32u0xx_hal_pwr_ex.c **** 
  92:Drivers/STM32U0xx_HAL_Driver/Src/stm32u0xx_hal_pwr_ex.c **** #ifdef HAL_PWR_MODULE_ENABLED
  93:Drivers/STM32U0xx_HAL_Driver/Src/stm32u0xx_hal_pwr_ex.c **** 
  94:Drivers/STM32U0xx_HAL_Driver/Src/stm32u0xx_hal_pwr_ex.c **** /* Private typedef -----------------------------------------------------------*/
  95:Drivers/STM32U0xx_HAL_Driver/Src/stm32u0xx_hal_pwr_ex.c **** /* Private define ------------------------------------------------------------*/
  96:Drivers/STM32U0xx_HAL_Driver/Src/stm32u0xx_hal_pwr_ex.c **** 
  97:Drivers/STM32U0xx_HAL_Driver/Src/stm32u0xx_hal_pwr_ex.c **** /** @defgroup PWR_Extended_Private_Defines PWR Extended Private Defines
  98:Drivers/STM32U0xx_HAL_Driver/Src/stm32u0xx_hal_pwr_ex.c ****   * @{
  99:Drivers/STM32U0xx_HAL_Driver/Src/stm32u0xx_hal_pwr_ex.c ****   */
 100:Drivers/STM32U0xx_HAL_Driver/Src/stm32u0xx_hal_pwr_ex.c **** #if defined (GPIOE)
 101:Drivers/STM32U0xx_HAL_Driver/Src/stm32u0xx_hal_pwr_ex.c **** /* PORTE pins mask */
 102:Drivers/STM32U0xx_HAL_Driver/Src/stm32u0xx_hal_pwr_ex.c **** #define PWR_PORTE_AVAILABLE_PINS  0x00000388U   /* PE3, PE7..PE9 */
 103:Drivers/STM32U0xx_HAL_Driver/Src/stm32u0xx_hal_pwr_ex.c **** #endif /* GPIOE */
 104:Drivers/STM32U0xx_HAL_Driver/Src/stm32u0xx_hal_pwr_ex.c **** #if defined (PWR_PDCRD_PD0)
 105:Drivers/STM32U0xx_HAL_Driver/Src/stm32u0xx_hal_pwr_ex.c **** #define PWR_PORTD_AVAILABLE_PINS  0x00003F7FU   /* PD0..PD6, PD8..PD13 */
 106:Drivers/STM32U0xx_HAL_Driver/Src/stm32u0xx_hal_pwr_ex.c **** #else
 107:Drivers/STM32U0xx_HAL_Driver/Src/stm32u0xx_hal_pwr_ex.c **** #define PWR_PORTD_AVAILABLE_PINS  0x00000004U   /* PD2 */
 108:Drivers/STM32U0xx_HAL_Driver/Src/stm32u0xx_hal_pwr_ex.c **** #endif /* PWR_PDCRD_PD0 */
 109:Drivers/STM32U0xx_HAL_Driver/Src/stm32u0xx_hal_pwr_ex.c **** /* PORTF pins mask */
 110:Drivers/STM32U0xx_HAL_Driver/Src/stm32u0xx_hal_pwr_ex.c **** #define PWR_PORTF_AVAILABLE_PINS  0x0000000FU   /* PF0..PF3 */
 111:Drivers/STM32U0xx_HAL_Driver/Src/stm32u0xx_hal_pwr_ex.c **** 
 112:Drivers/STM32U0xx_HAL_Driver/Src/stm32u0xx_hal_pwr_ex.c **** /** @defgroup PWREx_PVM_Mode_Mask PWR PVM Mode Mask
 113:Drivers/STM32U0xx_HAL_Driver/Src/stm32u0xx_hal_pwr_ex.c ****   * @{
 114:Drivers/STM32U0xx_HAL_Driver/Src/stm32u0xx_hal_pwr_ex.c ****   */
 115:Drivers/STM32U0xx_HAL_Driver/Src/stm32u0xx_hal_pwr_ex.c **** #define PVM_MODE_IT               0x00010000U   /*!< Mask for interruption yielded by PVM threshold
 116:Drivers/STM32U0xx_HAL_Driver/Src/stm32u0xx_hal_pwr_ex.c **** #define PVM_MODE_EVT              0x00020000U   /*!< Mask for event yielded by PVM threshold crossi
 117:Drivers/STM32U0xx_HAL_Driver/Src/stm32u0xx_hal_pwr_ex.c **** #define PVM_RISING_EDGE           0x00000001U   /*!< Mask for rising edge set as PVM trigger       
 118:Drivers/STM32U0xx_HAL_Driver/Src/stm32u0xx_hal_pwr_ex.c **** #define PVM_FALLING_EDGE          0x00000002U   /*!< Mask for falling edge set as PVM trigger      
 119:Drivers/STM32U0xx_HAL_Driver/Src/stm32u0xx_hal_pwr_ex.c **** /**
 120:Drivers/STM32U0xx_HAL_Driver/Src/stm32u0xx_hal_pwr_ex.c ****   * @}
 121:Drivers/STM32U0xx_HAL_Driver/Src/stm32u0xx_hal_pwr_ex.c ****   */
 122:Drivers/STM32U0xx_HAL_Driver/Src/stm32u0xx_hal_pwr_ex.c **** 
 123:Drivers/STM32U0xx_HAL_Driver/Src/stm32u0xx_hal_pwr_ex.c **** /** @defgroup PWREx_TimeOut_Value PWR Extended Flag Setting Time Out Value
 124:Drivers/STM32U0xx_HAL_Driver/Src/stm32u0xx_hal_pwr_ex.c ****   * @{
 125:Drivers/STM32U0xx_HAL_Driver/Src/stm32u0xx_hal_pwr_ex.c ****   */
 126:Drivers/STM32U0xx_HAL_Driver/Src/stm32u0xx_hal_pwr_ex.c **** #define PWR_FLAG_SETTING_DELAY_US                      50UL   /*!< Time out value for REGLPF and VO
 127:Drivers/STM32U0xx_HAL_Driver/Src/stm32u0xx_hal_pwr_ex.c **** /**
 128:Drivers/STM32U0xx_HAL_Driver/Src/stm32u0xx_hal_pwr_ex.c ****   * @}
 129:Drivers/STM32U0xx_HAL_Driver/Src/stm32u0xx_hal_pwr_ex.c ****   */
 130:Drivers/STM32U0xx_HAL_Driver/Src/stm32u0xx_hal_pwr_ex.c **** 
 131:Drivers/STM32U0xx_HAL_Driver/Src/stm32u0xx_hal_pwr_ex.c **** /**
 132:Drivers/STM32U0xx_HAL_Driver/Src/stm32u0xx_hal_pwr_ex.c ****   * @}
 133:Drivers/STM32U0xx_HAL_Driver/Src/stm32u0xx_hal_pwr_ex.c ****   */
 134:Drivers/STM32U0xx_HAL_Driver/Src/stm32u0xx_hal_pwr_ex.c **** 
 135:Drivers/STM32U0xx_HAL_Driver/Src/stm32u0xx_hal_pwr_ex.c **** /* Private macro -------------------------------------------------------------*/
 136:Drivers/STM32U0xx_HAL_Driver/Src/stm32u0xx_hal_pwr_ex.c **** /* Private variables ---------------------------------------------------------*/
 137:Drivers/STM32U0xx_HAL_Driver/Src/stm32u0xx_hal_pwr_ex.c **** /* Private function prototypes -----------------------------------------------*/
 138:Drivers/STM32U0xx_HAL_Driver/Src/stm32u0xx_hal_pwr_ex.c **** /* Exported functions --------------------------------------------------------*/
 139:Drivers/STM32U0xx_HAL_Driver/Src/stm32u0xx_hal_pwr_ex.c **** 
 140:Drivers/STM32U0xx_HAL_Driver/Src/stm32u0xx_hal_pwr_ex.c **** /** @defgroup PWREx_Exported_Functions PWR Extended Exported Functions
 141:Drivers/STM32U0xx_HAL_Driver/Src/stm32u0xx_hal_pwr_ex.c ****   * @{
 142:Drivers/STM32U0xx_HAL_Driver/Src/stm32u0xx_hal_pwr_ex.c ****   */
 143:Drivers/STM32U0xx_HAL_Driver/Src/stm32u0xx_hal_pwr_ex.c **** 
 144:Drivers/STM32U0xx_HAL_Driver/Src/stm32u0xx_hal_pwr_ex.c **** /** @defgroup PWREx_Exported_Functions_Group1 Power Supply Control Functions
ARM GAS  C:\Users\upo\AppData\Local\Temp\ccTc2A2n.s 			page 4


 145:Drivers/STM32U0xx_HAL_Driver/Src/stm32u0xx_hal_pwr_ex.c ****   * @brief    Power supply control functions
 146:Drivers/STM32U0xx_HAL_Driver/Src/stm32u0xx_hal_pwr_ex.c ****   *
 147:Drivers/STM32U0xx_HAL_Driver/Src/stm32u0xx_hal_pwr_ex.c **** @verbatim
 148:Drivers/STM32U0xx_HAL_Driver/Src/stm32u0xx_hal_pwr_ex.c ****  ===============================================================================
 149:Drivers/STM32U0xx_HAL_Driver/Src/stm32u0xx_hal_pwr_ex.c ****                   ##### Power supply control functions #####
 150:Drivers/STM32U0xx_HAL_Driver/Src/stm32u0xx_hal_pwr_ex.c ****  ===============================================================================
 151:Drivers/STM32U0xx_HAL_Driver/Src/stm32u0xx_hal_pwr_ex.c ****     [..]
 152:Drivers/STM32U0xx_HAL_Driver/Src/stm32u0xx_hal_pwr_ex.c ****       This section provides functions allowing to control power supply.
 153:Drivers/STM32U0xx_HAL_Driver/Src/stm32u0xx_hal_pwr_ex.c **** 
 154:Drivers/STM32U0xx_HAL_Driver/Src/stm32u0xx_hal_pwr_ex.c ****     [..]
 155:Drivers/STM32U0xx_HAL_Driver/Src/stm32u0xx_hal_pwr_ex.c ****       (+) When exiting the Stop or Standby modes, the regulator is the same than
 156:Drivers/STM32U0xx_HAL_Driver/Src/stm32u0xx_hal_pwr_ex.c ****           when entering low power modes. The voltage range is the Range 2.
 157:Drivers/STM32U0xx_HAL_Driver/Src/stm32u0xx_hal_pwr_ex.c **** 
 158:Drivers/STM32U0xx_HAL_Driver/Src/stm32u0xx_hal_pwr_ex.c ****       (+) Both regulators can provide four different voltages (voltage scaling)
 159:Drivers/STM32U0xx_HAL_Driver/Src/stm32u0xx_hal_pwr_ex.c ****           and can operate in Stop modes.
 160:Drivers/STM32U0xx_HAL_Driver/Src/stm32u0xx_hal_pwr_ex.c ****           Voltage scaling ranges can be one of the following values :
 161:Drivers/STM32U0xx_HAL_Driver/Src/stm32u0xx_hal_pwr_ex.c ****              (++) voltage output scale 1 : 1V2
 162:Drivers/STM32U0xx_HAL_Driver/Src/stm32u0xx_hal_pwr_ex.c ****                   => Used when system clock frequency is up to 160 MHz
 163:Drivers/STM32U0xx_HAL_Driver/Src/stm32u0xx_hal_pwr_ex.c ****              (++) voltage output scale 2 : 1V1
 164:Drivers/STM32U0xx_HAL_Driver/Src/stm32u0xx_hal_pwr_ex.c ****                   => Used when system clock frequency is up to 100 MHz
 165:Drivers/STM32U0xx_HAL_Driver/Src/stm32u0xx_hal_pwr_ex.c **** 
 166:Drivers/STM32U0xx_HAL_Driver/Src/stm32u0xx_hal_pwr_ex.c **** @endverbatim
 167:Drivers/STM32U0xx_HAL_Driver/Src/stm32u0xx_hal_pwr_ex.c ****   * @{
 168:Drivers/STM32U0xx_HAL_Driver/Src/stm32u0xx_hal_pwr_ex.c ****   */
 169:Drivers/STM32U0xx_HAL_Driver/Src/stm32u0xx_hal_pwr_ex.c **** 
 170:Drivers/STM32U0xx_HAL_Driver/Src/stm32u0xx_hal_pwr_ex.c **** /**
 171:Drivers/STM32U0xx_HAL_Driver/Src/stm32u0xx_hal_pwr_ex.c ****   * @brief Configure the main internal regulator output voltage.
 172:Drivers/STM32U0xx_HAL_Driver/Src/stm32u0xx_hal_pwr_ex.c ****   * @param  VoltageScaling specifies the regulator output voltage to achieve
 173:Drivers/STM32U0xx_HAL_Driver/Src/stm32u0xx_hal_pwr_ex.c ****   *         a tradeoff between performance and power consumption.
 174:Drivers/STM32U0xx_HAL_Driver/Src/stm32u0xx_hal_pwr_ex.c ****   *          This parameter can be one of the following values:
 175:Drivers/STM32U0xx_HAL_Driver/Src/stm32u0xx_hal_pwr_ex.c **** 
 176:Drivers/STM32U0xx_HAL_Driver/Src/stm32u0xx_hal_pwr_ex.c ****   * @arg @ref PWR_REGULATOR_VOLTAGE_SCALE1 Regulator voltage output range 1 mode,
 177:Drivers/STM32U0xx_HAL_Driver/Src/stm32u0xx_hal_pwr_ex.c ****   *                                        typical output voltage at 1.2 V,
 178:Drivers/STM32U0xx_HAL_Driver/Src/stm32u0xx_hal_pwr_ex.c ****   *                                        system frequency up to 80 MHz.
 179:Drivers/STM32U0xx_HAL_Driver/Src/stm32u0xx_hal_pwr_ex.c ****   * @arg @ref PWR_REGULATOR_VOLTAGE_SCALE2 Regulator voltage output range 2 mode,
 180:Drivers/STM32U0xx_HAL_Driver/Src/stm32u0xx_hal_pwr_ex.c ****   *                                        typical output voltage at 1.0 V,
 181:Drivers/STM32U0xx_HAL_Driver/Src/stm32u0xx_hal_pwr_ex.c ****   *                                        system frequency up to 26 MHz.
 182:Drivers/STM32U0xx_HAL_Driver/Src/stm32u0xx_hal_pwr_ex.c ****   * @note  When moving from Range 1 to Range 2, the system frequency must be decreased to
 183:Drivers/STM32U0xx_HAL_Driver/Src/stm32u0xx_hal_pwr_ex.c ****   *        a value below 26 MHz before calling HAL_PWREx_ControlVoltageScaling() API.
 184:Drivers/STM32U0xx_HAL_Driver/Src/stm32u0xx_hal_pwr_ex.c ****   *        When moving from Range 2 to Range 1, the system frequency can be increased to
 185:Drivers/STM32U0xx_HAL_Driver/Src/stm32u0xx_hal_pwr_ex.c ****   *        a value up to 80 MHz after calling HAL_PWREx_ControlVoltageScaling() API. For
 186:Drivers/STM32U0xx_HAL_Driver/Src/stm32u0xx_hal_pwr_ex.c ****   *        some devices, the system frequency can be increased up to 120 MHz.
 187:Drivers/STM32U0xx_HAL_Driver/Src/stm32u0xx_hal_pwr_ex.c ****   * @note  When moving from Range 2 to Range 1, the API waits for VOSF flag to be
 188:Drivers/STM32U0xx_HAL_Driver/Src/stm32u0xx_hal_pwr_ex.c ****   *        cleared before returning the status. If the flag is not cleared within
 189:Drivers/STM32U0xx_HAL_Driver/Src/stm32u0xx_hal_pwr_ex.c ****   *        50 microseconds, HAL_TIMEOUT status is reported.
 190:Drivers/STM32U0xx_HAL_Driver/Src/stm32u0xx_hal_pwr_ex.c ****   * @retval HAL Status
 191:Drivers/STM32U0xx_HAL_Driver/Src/stm32u0xx_hal_pwr_ex.c ****   */
 192:Drivers/STM32U0xx_HAL_Driver/Src/stm32u0xx_hal_pwr_ex.c **** HAL_StatusTypeDef HAL_PWREx_ControlVoltageScaling(uint32_t VoltageScaling)
 193:Drivers/STM32U0xx_HAL_Driver/Src/stm32u0xx_hal_pwr_ex.c **** {
  29              		.loc 1 193 1 view -0
  30              		.cfi_startproc
  31              		@ args = 0, pretend = 0, frame = 0
  32              		@ frame_needed = 0, uses_anonymous_args = 0
  33              		.loc 1 193 1 is_stmt 0 view .LVU1
  34 0000 10B5     		push	{r4, lr}
  35              	.LCFI0:
  36              		.cfi_def_cfa_offset 8
ARM GAS  C:\Users\upo\AppData\Local\Temp\ccTc2A2n.s 			page 5


  37              		.cfi_offset 4, -8
  38              		.cfi_offset 14, -4
 194:Drivers/STM32U0xx_HAL_Driver/Src/stm32u0xx_hal_pwr_ex.c ****   uint32_t wait_loop_index;
  39              		.loc 1 194 3 is_stmt 1 view .LVU2
 195:Drivers/STM32U0xx_HAL_Driver/Src/stm32u0xx_hal_pwr_ex.c ****   assert_param(IS_PWR_VOLTAGE_SCALING_RANGE(VoltageScaling));
  40              		.loc 1 195 3 view .LVU3
 196:Drivers/STM32U0xx_HAL_Driver/Src/stm32u0xx_hal_pwr_ex.c **** 
 197:Drivers/STM32U0xx_HAL_Driver/Src/stm32u0xx_hal_pwr_ex.c ****   /* If Set Range 1 */
 198:Drivers/STM32U0xx_HAL_Driver/Src/stm32u0xx_hal_pwr_ex.c ****   if (VoltageScaling == PWR_REGULATOR_VOLTAGE_SCALE1)
  41              		.loc 1 198 3 view .LVU4
  42              		.loc 1 198 6 is_stmt 0 view .LVU5
  43 0002 8023     		movs	r3, #128
  44 0004 9B00     		lsls	r3, r3, #2
  45 0006 9842     		cmp	r0, r3
  46 0008 12D0     		beq	.L11
 199:Drivers/STM32U0xx_HAL_Driver/Src/stm32u0xx_hal_pwr_ex.c ****   {
 200:Drivers/STM32U0xx_HAL_Driver/Src/stm32u0xx_hal_pwr_ex.c ****     if (READ_BIT(PWR->CR1, PWR_CR1_VOS) != PWR_REGULATOR_VOLTAGE_SCALE1)
 201:Drivers/STM32U0xx_HAL_Driver/Src/stm32u0xx_hal_pwr_ex.c ****     {
 202:Drivers/STM32U0xx_HAL_Driver/Src/stm32u0xx_hal_pwr_ex.c ****       /* Set Range 1 */
 203:Drivers/STM32U0xx_HAL_Driver/Src/stm32u0xx_hal_pwr_ex.c ****       MODIFY_REG(PWR->CR1, PWR_CR1_VOS, PWR_REGULATOR_VOLTAGE_SCALE1);
 204:Drivers/STM32U0xx_HAL_Driver/Src/stm32u0xx_hal_pwr_ex.c ****       /* Wait until VOSF is cleared */
 205:Drivers/STM32U0xx_HAL_Driver/Src/stm32u0xx_hal_pwr_ex.c ****       wait_loop_index = ((PWR_FLAG_SETTING_DELAY_US * SystemCoreClock) / 1000000U) + 1U;
 206:Drivers/STM32U0xx_HAL_Driver/Src/stm32u0xx_hal_pwr_ex.c ****       while ((HAL_IS_BIT_SET(PWR->SR2, PWR_SR2_VOSF)) && (wait_loop_index != 0U))
 207:Drivers/STM32U0xx_HAL_Driver/Src/stm32u0xx_hal_pwr_ex.c ****       {
 208:Drivers/STM32U0xx_HAL_Driver/Src/stm32u0xx_hal_pwr_ex.c ****         wait_loop_index--;
 209:Drivers/STM32U0xx_HAL_Driver/Src/stm32u0xx_hal_pwr_ex.c ****       }
 210:Drivers/STM32U0xx_HAL_Driver/Src/stm32u0xx_hal_pwr_ex.c ****       if (HAL_IS_BIT_SET(PWR->SR2, PWR_SR2_VOSF))
 211:Drivers/STM32U0xx_HAL_Driver/Src/stm32u0xx_hal_pwr_ex.c ****       {
 212:Drivers/STM32U0xx_HAL_Driver/Src/stm32u0xx_hal_pwr_ex.c ****         return HAL_TIMEOUT;
 213:Drivers/STM32U0xx_HAL_Driver/Src/stm32u0xx_hal_pwr_ex.c ****       }
 214:Drivers/STM32U0xx_HAL_Driver/Src/stm32u0xx_hal_pwr_ex.c ****     }
 215:Drivers/STM32U0xx_HAL_Driver/Src/stm32u0xx_hal_pwr_ex.c ****   }
 216:Drivers/STM32U0xx_HAL_Driver/Src/stm32u0xx_hal_pwr_ex.c ****   else
 217:Drivers/STM32U0xx_HAL_Driver/Src/stm32u0xx_hal_pwr_ex.c ****   {
 218:Drivers/STM32U0xx_HAL_Driver/Src/stm32u0xx_hal_pwr_ex.c ****     if (READ_BIT(PWR->CR1, PWR_CR1_VOS) != PWR_REGULATOR_VOLTAGE_SCALE2)
  47              		.loc 1 218 5 is_stmt 1 view .LVU6
  48              		.loc 1 218 9 is_stmt 0 view .LVU7
  49 000a 204B     		ldr	r3, .L12
  50 000c 1B68     		ldr	r3, [r3]
  51 000e C022     		movs	r2, #192
  52 0010 D200     		lsls	r2, r2, #3
  53 0012 1340     		ands	r3, r2
  54              		.loc 1 218 8 view .LVU8
  55 0014 8022     		movs	r2, #128
  56 0016 D200     		lsls	r2, r2, #3
  57 0018 9342     		cmp	r3, r2
  58 001a 34D0     		beq	.L9
 219:Drivers/STM32U0xx_HAL_Driver/Src/stm32u0xx_hal_pwr_ex.c ****     {
 220:Drivers/STM32U0xx_HAL_Driver/Src/stm32u0xx_hal_pwr_ex.c ****       /* Set Range 2 */
 221:Drivers/STM32U0xx_HAL_Driver/Src/stm32u0xx_hal_pwr_ex.c ****       MODIFY_REG(PWR->CR1, PWR_CR1_VOS, PWR_REGULATOR_VOLTAGE_SCALE2);
  59              		.loc 1 221 7 is_stmt 1 view .LVU9
  60 001c 1B49     		ldr	r1, .L12
  61 001e 0A68     		ldr	r2, [r1]
  62 0020 1B4B     		ldr	r3, .L12+4
  63 0022 1A40     		ands	r2, r3
  64 0024 8023     		movs	r3, #128
  65 0026 DB00     		lsls	r3, r3, #3
ARM GAS  C:\Users\upo\AppData\Local\Temp\ccTc2A2n.s 			page 6


  66 0028 1343     		orrs	r3, r2
  67 002a 0B60     		str	r3, [r1]
 222:Drivers/STM32U0xx_HAL_Driver/Src/stm32u0xx_hal_pwr_ex.c ****       /* No need to wait for VOSF to be cleared for this transition */
 223:Drivers/STM32U0xx_HAL_Driver/Src/stm32u0xx_hal_pwr_ex.c ****     }
 224:Drivers/STM32U0xx_HAL_Driver/Src/stm32u0xx_hal_pwr_ex.c ****   }
 225:Drivers/STM32U0xx_HAL_Driver/Src/stm32u0xx_hal_pwr_ex.c ****   return HAL_OK;
  68              		.loc 1 225 10 is_stmt 0 view .LVU10
  69 002c 0020     		movs	r0, #0
  70              	.LVL1:
  71              	.L3:
 226:Drivers/STM32U0xx_HAL_Driver/Src/stm32u0xx_hal_pwr_ex.c **** }
  72              		.loc 1 226 1 view .LVU11
  73              		@ sp needed
  74 002e 10BD     		pop	{r4, pc}
  75              	.LVL2:
  76              	.L11:
 200:Drivers/STM32U0xx_HAL_Driver/Src/stm32u0xx_hal_pwr_ex.c ****     {
  77              		.loc 1 200 5 is_stmt 1 view .LVU12
 200:Drivers/STM32U0xx_HAL_Driver/Src/stm32u0xx_hal_pwr_ex.c ****     {
  78              		.loc 1 200 9 is_stmt 0 view .LVU13
  79 0030 164B     		ldr	r3, .L12
  80 0032 1B68     		ldr	r3, [r3]
  81 0034 C022     		movs	r2, #192
  82 0036 D200     		lsls	r2, r2, #3
  83 0038 1340     		ands	r3, r2
 200:Drivers/STM32U0xx_HAL_Driver/Src/stm32u0xx_hal_pwr_ex.c ****     {
  84              		.loc 1 200 8 view .LVU14
  85 003a 8022     		movs	r2, #128
  86 003c 9200     		lsls	r2, r2, #2
  87 003e 9342     		cmp	r3, r2
  88 0040 1DD0     		beq	.L7
 203:Drivers/STM32U0xx_HAL_Driver/Src/stm32u0xx_hal_pwr_ex.c ****       /* Wait until VOSF is cleared */
  89              		.loc 1 203 7 is_stmt 1 view .LVU15
  90 0042 1249     		ldr	r1, .L12
  91 0044 0A68     		ldr	r2, [r1]
  92 0046 124B     		ldr	r3, .L12+4
  93 0048 1A40     		ands	r2, r3
  94 004a 8023     		movs	r3, #128
  95 004c 9B00     		lsls	r3, r3, #2
  96 004e 1343     		orrs	r3, r2
  97 0050 0B60     		str	r3, [r1]
 205:Drivers/STM32U0xx_HAL_Driver/Src/stm32u0xx_hal_pwr_ex.c ****       while ((HAL_IS_BIT_SET(PWR->SR2, PWR_SR2_VOSF)) && (wait_loop_index != 0U))
  98              		.loc 1 205 7 view .LVU16
 205:Drivers/STM32U0xx_HAL_Driver/Src/stm32u0xx_hal_pwr_ex.c ****       while ((HAL_IS_BIT_SET(PWR->SR2, PWR_SR2_VOSF)) && (wait_loop_index != 0U))
  99              		.loc 1 205 53 is_stmt 0 view .LVU17
 100 0052 104B     		ldr	r3, .L12+8
 101 0054 1868     		ldr	r0, [r3]
 102              	.LVL3:
 205:Drivers/STM32U0xx_HAL_Driver/Src/stm32u0xx_hal_pwr_ex.c ****       while ((HAL_IS_BIT_SET(PWR->SR2, PWR_SR2_VOSF)) && (wait_loop_index != 0U))
 103              		.loc 1 205 53 view .LVU18
 104 0056 3223     		movs	r3, #50
 105 0058 5843     		muls	r0, r3
 205:Drivers/STM32U0xx_HAL_Driver/Src/stm32u0xx_hal_pwr_ex.c ****       while ((HAL_IS_BIT_SET(PWR->SR2, PWR_SR2_VOSF)) && (wait_loop_index != 0U))
 106              		.loc 1 205 72 view .LVU19
 107 005a 0F49     		ldr	r1, .L12+12
 108 005c FFF7FEFF 		bl	__aeabi_uidiv
 109              	.LVL4:
ARM GAS  C:\Users\upo\AppData\Local\Temp\ccTc2A2n.s 			page 7


 205:Drivers/STM32U0xx_HAL_Driver/Src/stm32u0xx_hal_pwr_ex.c ****       while ((HAL_IS_BIT_SET(PWR->SR2, PWR_SR2_VOSF)) && (wait_loop_index != 0U))
 110              		.loc 1 205 23 view .LVU20
 111 0060 0130     		adds	r0, r0, #1
 112              	.LVL5:
 206:Drivers/STM32U0xx_HAL_Driver/Src/stm32u0xx_hal_pwr_ex.c ****       {
 113              		.loc 1 206 7 is_stmt 1 view .LVU21
 206:Drivers/STM32U0xx_HAL_Driver/Src/stm32u0xx_hal_pwr_ex.c ****       {
 114              		.loc 1 206 13 is_stmt 0 view .LVU22
 115 0062 00E0     		b	.L4
 116              	.L6:
 208:Drivers/STM32U0xx_HAL_Driver/Src/stm32u0xx_hal_pwr_ex.c ****       }
 117              		.loc 1 208 9 is_stmt 1 view .LVU23
 208:Drivers/STM32U0xx_HAL_Driver/Src/stm32u0xx_hal_pwr_ex.c ****       }
 118              		.loc 1 208 24 is_stmt 0 view .LVU24
 119 0064 0138     		subs	r0, r0, #1
 120              	.LVL6:
 121              	.L4:
 206:Drivers/STM32U0xx_HAL_Driver/Src/stm32u0xx_hal_pwr_ex.c ****       {
 122              		.loc 1 206 55 is_stmt 1 view .LVU25
 206:Drivers/STM32U0xx_HAL_Driver/Src/stm32u0xx_hal_pwr_ex.c ****       {
 123              		.loc 1 206 15 is_stmt 0 view .LVU26
 124 0066 094B     		ldr	r3, .L12
 125 0068 5B69     		ldr	r3, [r3, #20]
 206:Drivers/STM32U0xx_HAL_Driver/Src/stm32u0xx_hal_pwr_ex.c ****       {
 126              		.loc 1 206 55 view .LVU27
 127 006a 5B05     		lsls	r3, r3, #21
 128 006c 01D5     		bpl	.L5
 206:Drivers/STM32U0xx_HAL_Driver/Src/stm32u0xx_hal_pwr_ex.c ****       {
 129              		.loc 1 206 55 discriminator 1 view .LVU28
 130 006e 0028     		cmp	r0, #0
 131 0070 F8D1     		bne	.L6
 132              	.L5:
 210:Drivers/STM32U0xx_HAL_Driver/Src/stm32u0xx_hal_pwr_ex.c ****       {
 133              		.loc 1 210 7 is_stmt 1 view .LVU29
 210:Drivers/STM32U0xx_HAL_Driver/Src/stm32u0xx_hal_pwr_ex.c ****       {
 134              		.loc 1 210 11 is_stmt 0 view .LVU30
 135 0072 064B     		ldr	r3, .L12
 136 0074 5B69     		ldr	r3, [r3, #20]
 210:Drivers/STM32U0xx_HAL_Driver/Src/stm32u0xx_hal_pwr_ex.c ****       {
 137              		.loc 1 210 10 view .LVU31
 138 0076 5B05     		lsls	r3, r3, #21
 139 0078 03D4     		bmi	.L8
 225:Drivers/STM32U0xx_HAL_Driver/Src/stm32u0xx_hal_pwr_ex.c **** }
 140              		.loc 1 225 10 view .LVU32
 141 007a 0020     		movs	r0, #0
 142              	.LVL7:
 225:Drivers/STM32U0xx_HAL_Driver/Src/stm32u0xx_hal_pwr_ex.c **** }
 143              		.loc 1 225 10 view .LVU33
 144 007c D7E7     		b	.L3
 145              	.LVL8:
 146              	.L7:
 225:Drivers/STM32U0xx_HAL_Driver/Src/stm32u0xx_hal_pwr_ex.c **** }
 147              		.loc 1 225 10 view .LVU34
 148 007e 0020     		movs	r0, #0
 149              	.LVL9:
 225:Drivers/STM32U0xx_HAL_Driver/Src/stm32u0xx_hal_pwr_ex.c **** }
 150              		.loc 1 225 10 view .LVU35
ARM GAS  C:\Users\upo\AppData\Local\Temp\ccTc2A2n.s 			page 8


 151 0080 D5E7     		b	.L3
 152              	.LVL10:
 153              	.L8:
 212:Drivers/STM32U0xx_HAL_Driver/Src/stm32u0xx_hal_pwr_ex.c ****       }
 154              		.loc 1 212 16 view .LVU36
 155 0082 0320     		movs	r0, #3
 156              	.LVL11:
 212:Drivers/STM32U0xx_HAL_Driver/Src/stm32u0xx_hal_pwr_ex.c ****       }
 157              		.loc 1 212 16 view .LVU37
 158 0084 D3E7     		b	.L3
 159              	.LVL12:
 160              	.L9:
 225:Drivers/STM32U0xx_HAL_Driver/Src/stm32u0xx_hal_pwr_ex.c **** }
 161              		.loc 1 225 10 view .LVU38
 162 0086 0020     		movs	r0, #0
 163              	.LVL13:
 225:Drivers/STM32U0xx_HAL_Driver/Src/stm32u0xx_hal_pwr_ex.c **** }
 164              		.loc 1 225 10 view .LVU39
 165 0088 D1E7     		b	.L3
 166              	.L13:
 167 008a C046     		.align	2
 168              	.L12:
 169 008c 00700040 		.word	1073770496
 170 0090 FFF9FFFF 		.word	-1537
 171 0094 00000000 		.word	SystemCoreClock
 172 0098 40420F00 		.word	1000000
 173              		.cfi_endproc
 174              	.LFE334:
 176              		.section	.text.HAL_PWREx_GetVoltageRange,"ax",%progbits
 177              		.align	1
 178              		.global	HAL_PWREx_GetVoltageRange
 179              		.syntax unified
 180              		.code	16
 181              		.thumb_func
 183              	HAL_PWREx_GetVoltageRange:
 184              	.LFB335:
 227:Drivers/STM32U0xx_HAL_Driver/Src/stm32u0xx_hal_pwr_ex.c **** 
 228:Drivers/STM32U0xx_HAL_Driver/Src/stm32u0xx_hal_pwr_ex.c **** /**
 229:Drivers/STM32U0xx_HAL_Driver/Src/stm32u0xx_hal_pwr_ex.c ****   * @brief Return Voltage Scaling Range.
 230:Drivers/STM32U0xx_HAL_Driver/Src/stm32u0xx_hal_pwr_ex.c ****   * @retval VOS bit field (PWR_REGULATOR_VOLTAGE_SCALE1 or PWR_REGULATOR_VOLTAGE_SCALE2)
 231:Drivers/STM32U0xx_HAL_Driver/Src/stm32u0xx_hal_pwr_ex.c ****   *
 232:Drivers/STM32U0xx_HAL_Driver/Src/stm32u0xx_hal_pwr_ex.c ****   */
 233:Drivers/STM32U0xx_HAL_Driver/Src/stm32u0xx_hal_pwr_ex.c **** uint32_t HAL_PWREx_GetVoltageRange(void)
 234:Drivers/STM32U0xx_HAL_Driver/Src/stm32u0xx_hal_pwr_ex.c **** {
 185              		.loc 1 234 1 is_stmt 1 view -0
 186              		.cfi_startproc
 187              		@ args = 0, pretend = 0, frame = 0
 188              		@ frame_needed = 0, uses_anonymous_args = 0
 189              		@ link register save eliminated.
 235:Drivers/STM32U0xx_HAL_Driver/Src/stm32u0xx_hal_pwr_ex.c ****   return (PWR->CR1 & PWR_CR1_VOS);
 190              		.loc 1 235 3 view .LVU41
 191              		.loc 1 235 14 is_stmt 0 view .LVU42
 192 0000 024B     		ldr	r3, .L15
 193 0002 1868     		ldr	r0, [r3]
 194              		.loc 1 235 20 view .LVU43
 195 0004 C023     		movs	r3, #192
 196 0006 DB00     		lsls	r3, r3, #3
ARM GAS  C:\Users\upo\AppData\Local\Temp\ccTc2A2n.s 			page 9


 197 0008 1840     		ands	r0, r3
 236:Drivers/STM32U0xx_HAL_Driver/Src/stm32u0xx_hal_pwr_ex.c **** }
 198              		.loc 1 236 1 view .LVU44
 199              		@ sp needed
 200 000a 7047     		bx	lr
 201              	.L16:
 202              		.align	2
 203              	.L15:
 204 000c 00700040 		.word	1073770496
 205              		.cfi_endproc
 206              	.LFE335:
 208              		.section	.text.HAL_PWREx_EnableLowPowerRunMode,"ax",%progbits
 209              		.align	1
 210              		.global	HAL_PWREx_EnableLowPowerRunMode
 211              		.syntax unified
 212              		.code	16
 213              		.thumb_func
 215              	HAL_PWREx_EnableLowPowerRunMode:
 216              	.LFB336:
 237:Drivers/STM32U0xx_HAL_Driver/Src/stm32u0xx_hal_pwr_ex.c **** 
 238:Drivers/STM32U0xx_HAL_Driver/Src/stm32u0xx_hal_pwr_ex.c **** /**
 239:Drivers/STM32U0xx_HAL_Driver/Src/stm32u0xx_hal_pwr_ex.c ****   * @}
 240:Drivers/STM32U0xx_HAL_Driver/Src/stm32u0xx_hal_pwr_ex.c ****   */
 241:Drivers/STM32U0xx_HAL_Driver/Src/stm32u0xx_hal_pwr_ex.c **** 
 242:Drivers/STM32U0xx_HAL_Driver/Src/stm32u0xx_hal_pwr_ex.c **** /** @defgroup PWREx_Exported_Functions_Group2 Low Power Control Functions
 243:Drivers/STM32U0xx_HAL_Driver/Src/stm32u0xx_hal_pwr_ex.c ****   * @brief    Low power control functions
 244:Drivers/STM32U0xx_HAL_Driver/Src/stm32u0xx_hal_pwr_ex.c ****   *
 245:Drivers/STM32U0xx_HAL_Driver/Src/stm32u0xx_hal_pwr_ex.c **** @verbatim
 246:Drivers/STM32U0xx_HAL_Driver/Src/stm32u0xx_hal_pwr_ex.c ****  ===============================================================================
 247:Drivers/STM32U0xx_HAL_Driver/Src/stm32u0xx_hal_pwr_ex.c ****                      ##### Low power control functions #####
 248:Drivers/STM32U0xx_HAL_Driver/Src/stm32u0xx_hal_pwr_ex.c ****  ===============================================================================
 249:Drivers/STM32U0xx_HAL_Driver/Src/stm32u0xx_hal_pwr_ex.c ****     [..]
 250:Drivers/STM32U0xx_HAL_Driver/Src/stm32u0xx_hal_pwr_ex.c ****       This section provides functions allowing to control low power modes.
 251:Drivers/STM32U0xx_HAL_Driver/Src/stm32u0xx_hal_pwr_ex.c **** 
 252:Drivers/STM32U0xx_HAL_Driver/Src/stm32u0xx_hal_pwr_ex.c ****     *** Low Power modes configuration ***
 253:Drivers/STM32U0xx_HAL_Driver/Src/stm32u0xx_hal_pwr_ex.c ****     =====================================
 254:Drivers/STM32U0xx_HAL_Driver/Src/stm32u0xx_hal_pwr_ex.c ****     [..]
 255:Drivers/STM32U0xx_HAL_Driver/Src/stm32u0xx_hal_pwr_ex.c ****       This section presents 3 principles low power modes :
 256:Drivers/STM32U0xx_HAL_Driver/Src/stm32u0xx_hal_pwr_ex.c **** 
 257:Drivers/STM32U0xx_HAL_Driver/Src/stm32u0xx_hal_pwr_ex.c ****       (+) Stop 1 mode   : Cortex-M4 is stopped, clocks are stopped and the
 258:Drivers/STM32U0xx_HAL_Driver/Src/stm32u0xx_hal_pwr_ex.c ****                           regulator is in low power mode. Only autonomous
 259:Drivers/STM32U0xx_HAL_Driver/Src/stm32u0xx_hal_pwr_ex.c ****                           peripherals can operate in this mode.
 260:Drivers/STM32U0xx_HAL_Driver/Src/stm32u0xx_hal_pwr_ex.c **** 
 261:Drivers/STM32U0xx_HAL_Driver/Src/stm32u0xx_hal_pwr_ex.c ****       (+) Stop 2 mode   : Cortex-M4 is stopped, clocks are stopped and the
 262:Drivers/STM32U0xx_HAL_Driver/Src/stm32u0xx_hal_pwr_ex.c ****                           regulator is in low power mode. No peripheral can
 263:Drivers/STM32U0xx_HAL_Driver/Src/stm32u0xx_hal_pwr_ex.c ****                           operate in this mode. Only RAMs content is preserved.
 264:Drivers/STM32U0xx_HAL_Driver/Src/stm32u0xx_hal_pwr_ex.c **** 
 265:Drivers/STM32U0xx_HAL_Driver/Src/stm32u0xx_hal_pwr_ex.c ****       (+) Shutdown mode : All PWR domains enter Shutdown mode and the VCORE
 266:Drivers/STM32U0xx_HAL_Driver/Src/stm32u0xx_hal_pwr_ex.c ****                           supply regulator is powered off. The SRAMs and
 267:Drivers/STM32U0xx_HAL_Driver/Src/stm32u0xx_hal_pwr_ex.c ****                           register contents are lost except for registers in the
 268:Drivers/STM32U0xx_HAL_Driver/Src/stm32u0xx_hal_pwr_ex.c ****                           Backup domain.
 269:Drivers/STM32U0xx_HAL_Driver/Src/stm32u0xx_hal_pwr_ex.c **** 
 270:Drivers/STM32U0xx_HAL_Driver/Src/stm32u0xx_hal_pwr_ex.c ****    *** Stop 1 mode ***
 271:Drivers/STM32U0xx_HAL_Driver/Src/stm32u0xx_hal_pwr_ex.c ****    ===================
 272:Drivers/STM32U0xx_HAL_Driver/Src/stm32u0xx_hal_pwr_ex.c ****     [..]
 273:Drivers/STM32U0xx_HAL_Driver/Src/stm32u0xx_hal_pwr_ex.c ****       The Stop 1 mode is based on the Cortex-M4 Deepsleep mode combined with
 274:Drivers/STM32U0xx_HAL_Driver/Src/stm32u0xx_hal_pwr_ex.c ****       peripheral clock gating. In Stop 1 mode, all clocks in the VCORE domain
ARM GAS  C:\Users\upo\AppData\Local\Temp\ccTc2A2n.s 			page 10


 275:Drivers/STM32U0xx_HAL_Driver/Src/stm32u0xx_hal_pwr_ex.c ****       are stopped.
 276:Drivers/STM32U0xx_HAL_Driver/Src/stm32u0xx_hal_pwr_ex.c ****       The PLL, MSIS, MSIK, HSI16 and HSE oscillators are disabled.
 277:Drivers/STM32U0xx_HAL_Driver/Src/stm32u0xx_hal_pwr_ex.c ****       Some peripherals with the LPBAM capability can switch on HSI16 or MSIS or
 278:Drivers/STM32U0xx_HAL_Driver/Src/stm32u0xx_hal_pwr_ex.c ****       MSIK for transferring data. All SRAMs and register contents are preserved,
 279:Drivers/STM32U0xx_HAL_Driver/Src/stm32u0xx_hal_pwr_ex.c ****       but the SRAMs can be totally or partially switched off to further reduce
 280:Drivers/STM32U0xx_HAL_Driver/Src/stm32u0xx_hal_pwr_ex.c ****       consumption.
 281:Drivers/STM32U0xx_HAL_Driver/Src/stm32u0xx_hal_pwr_ex.c ****       The BOR is always available in Stop 1 mode.
 282:Drivers/STM32U0xx_HAL_Driver/Src/stm32u0xx_hal_pwr_ex.c **** 
 283:Drivers/STM32U0xx_HAL_Driver/Src/stm32u0xx_hal_pwr_ex.c ****       (+) Entry:
 284:Drivers/STM32U0xx_HAL_Driver/Src/stm32u0xx_hal_pwr_ex.c ****           The Stop 1 mode is entered by using the HAL_PWREx_EnterSTOP1Mode()
 285:Drivers/STM32U0xx_HAL_Driver/Src/stm32u0xx_hal_pwr_ex.c ****           function.
 286:Drivers/STM32U0xx_HAL_Driver/Src/stm32u0xx_hal_pwr_ex.c **** 
 287:Drivers/STM32U0xx_HAL_Driver/Src/stm32u0xx_hal_pwr_ex.c ****           (++) PWR_STOPENTRY_WFI: enter Stop 1 mode with WFI instruction.
 288:Drivers/STM32U0xx_HAL_Driver/Src/stm32u0xx_hal_pwr_ex.c ****           (++) PWR_STOPENTRY_WFE: enter Stop 1 mode with WFE instruction.
 289:Drivers/STM32U0xx_HAL_Driver/Src/stm32u0xx_hal_pwr_ex.c **** 
 290:Drivers/STM32U0xx_HAL_Driver/Src/stm32u0xx_hal_pwr_ex.c ****       (+) Exit:
 291:Drivers/STM32U0xx_HAL_Driver/Src/stm32u0xx_hal_pwr_ex.c ****           Any EXTI line configured in interrupt mode (the corresponding EXTI
 292:Drivers/STM32U0xx_HAL_Driver/Src/stm32u0xx_hal_pwr_ex.c ****           interrupt vector must be enabled in the NVIC). The interrupt source
 293:Drivers/STM32U0xx_HAL_Driver/Src/stm32u0xx_hal_pwr_ex.c ****           can be external interrupts or peripherals with wakeup capability.
 294:Drivers/STM32U0xx_HAL_Driver/Src/stm32u0xx_hal_pwr_ex.c ****           Any peripheral interrupt occurring when the AHB/APB clocks are present
 295:Drivers/STM32U0xx_HAL_Driver/Src/stm32u0xx_hal_pwr_ex.c ****           due to an autonomous peripheral clock request (the peripheral vector
 296:Drivers/STM32U0xx_HAL_Driver/Src/stm32u0xx_hal_pwr_ex.c ****           must be enabled in the NVIC)
 297:Drivers/STM32U0xx_HAL_Driver/Src/stm32u0xx_hal_pwr_ex.c ****           Any EXTI line configured in event mode.
 298:Drivers/STM32U0xx_HAL_Driver/Src/stm32u0xx_hal_pwr_ex.c **** 
 299:Drivers/STM32U0xx_HAL_Driver/Src/stm32u0xx_hal_pwr_ex.c ****    *** Stop 2 mode ***
 300:Drivers/STM32U0xx_HAL_Driver/Src/stm32u0xx_hal_pwr_ex.c ****    ===================
 301:Drivers/STM32U0xx_HAL_Driver/Src/stm32u0xx_hal_pwr_ex.c ****     [..]
 302:Drivers/STM32U0xx_HAL_Driver/Src/stm32u0xx_hal_pwr_ex.c ****       The Stop 2 mode is based on the Cortex-M4 Deepsleep mode combined with
 303:Drivers/STM32U0xx_HAL_Driver/Src/stm32u0xx_hal_pwr_ex.c ****       peripheral clock gating. In Stop 2 mode, all clocks in the VCORE domain
 304:Drivers/STM32U0xx_HAL_Driver/Src/stm32u0xx_hal_pwr_ex.c ****       are stopped.
 305:Drivers/STM32U0xx_HAL_Driver/Src/stm32u0xx_hal_pwr_ex.c ****       The PLL, MSIS, MSIK, HSI16 and HSE oscillators are disabled.
 306:Drivers/STM32U0xx_HAL_Driver/Src/stm32u0xx_hal_pwr_ex.c ****       All SRAMs and register contents are preserved, but the SRAMs can be
 307:Drivers/STM32U0xx_HAL_Driver/Src/stm32u0xx_hal_pwr_ex.c ****       totally or partially switched off to further reduce consumption.
 308:Drivers/STM32U0xx_HAL_Driver/Src/stm32u0xx_hal_pwr_ex.c ****       The BOR is always available in Stop 2 mode.
 309:Drivers/STM32U0xx_HAL_Driver/Src/stm32u0xx_hal_pwr_ex.c **** 
 310:Drivers/STM32U0xx_HAL_Driver/Src/stm32u0xx_hal_pwr_ex.c ****       (+) Entry:
 311:Drivers/STM32U0xx_HAL_Driver/Src/stm32u0xx_hal_pwr_ex.c ****           The Stop 2 mode is entered by using the HAL_PWREx_EnterSTOP2Mode()
 312:Drivers/STM32U0xx_HAL_Driver/Src/stm32u0xx_hal_pwr_ex.c ****           function.
 313:Drivers/STM32U0xx_HAL_Driver/Src/stm32u0xx_hal_pwr_ex.c **** 
 314:Drivers/STM32U0xx_HAL_Driver/Src/stm32u0xx_hal_pwr_ex.c ****           (++) PWR_STOPENTRY_WFI: enter Stop 2 mode with WFI instruction.
 315:Drivers/STM32U0xx_HAL_Driver/Src/stm32u0xx_hal_pwr_ex.c ****           (++) PWR_STOPENTRY_WFE: enter Stop 23 mode with WFE instruction.
 316:Drivers/STM32U0xx_HAL_Driver/Src/stm32u0xx_hal_pwr_ex.c **** 
 317:Drivers/STM32U0xx_HAL_Driver/Src/stm32u0xx_hal_pwr_ex.c ****       (+) Exit:
 318:Drivers/STM32U0xx_HAL_Driver/Src/stm32u0xx_hal_pwr_ex.c ****           WKUPx pin edge, RTC or TAMP event, external Reset in NRST pin, IWDG
 319:Drivers/STM32U0xx_HAL_Driver/Src/stm32u0xx_hal_pwr_ex.c ****           Reset, BOR reset.
 320:Drivers/STM32U0xx_HAL_Driver/Src/stm32u0xx_hal_pwr_ex.c **** 
 321:Drivers/STM32U0xx_HAL_Driver/Src/stm32u0xx_hal_pwr_ex.c ****   *** Shutdown mode ***
 322:Drivers/STM32U0xx_HAL_Driver/Src/stm32u0xx_hal_pwr_ex.c ****    ====================
 323:Drivers/STM32U0xx_HAL_Driver/Src/stm32u0xx_hal_pwr_ex.c ****     [..]
 324:Drivers/STM32U0xx_HAL_Driver/Src/stm32u0xx_hal_pwr_ex.c ****       The lowest power consumption is reached in Shutdown mode. It is based on
 325:Drivers/STM32U0xx_HAL_Driver/Src/stm32u0xx_hal_pwr_ex.c ****       the Deepsleep mode with the voltage regulator disabled. The VCORE domain
 326:Drivers/STM32U0xx_HAL_Driver/Src/stm32u0xx_hal_pwr_ex.c ****       is consequently powered off.
 327:Drivers/STM32U0xx_HAL_Driver/Src/stm32u0xx_hal_pwr_ex.c ****       The PLL, HSI16, MSIS, MSIK and HSE oscillators are also switched off.
 328:Drivers/STM32U0xx_HAL_Driver/Src/stm32u0xx_hal_pwr_ex.c ****       The SRAMs and register contents are lost except for registers in the
 329:Drivers/STM32U0xx_HAL_Driver/Src/stm32u0xx_hal_pwr_ex.c ****       Backup domain.
 330:Drivers/STM32U0xx_HAL_Driver/Src/stm32u0xx_hal_pwr_ex.c ****       The BOR is not available in Shutdown mode.
 331:Drivers/STM32U0xx_HAL_Driver/Src/stm32u0xx_hal_pwr_ex.c ****       No power voltage monitoring is possible in this mode, therefore the switch
ARM GAS  C:\Users\upo\AppData\Local\Temp\ccTc2A2n.s 			page 11


 332:Drivers/STM32U0xx_HAL_Driver/Src/stm32u0xx_hal_pwr_ex.c ****       to Backup domain is not supported.
 333:Drivers/STM32U0xx_HAL_Driver/Src/stm32u0xx_hal_pwr_ex.c **** 
 334:Drivers/STM32U0xx_HAL_Driver/Src/stm32u0xx_hal_pwr_ex.c ****       (+) Entry:
 335:Drivers/STM32U0xx_HAL_Driver/Src/stm32u0xx_hal_pwr_ex.c ****           The Shutdown mode is entered by using the HAL_PWREx_EnterSHUTDOWNMode()
 336:Drivers/STM32U0xx_HAL_Driver/Src/stm32u0xx_hal_pwr_ex.c ****           function.
 337:Drivers/STM32U0xx_HAL_Driver/Src/stm32u0xx_hal_pwr_ex.c **** 
 338:Drivers/STM32U0xx_HAL_Driver/Src/stm32u0xx_hal_pwr_ex.c ****       (+) Exit:
 339:Drivers/STM32U0xx_HAL_Driver/Src/stm32u0xx_hal_pwr_ex.c ****           WKUPx pin edge, RTC/TAMP event, external Reset in NRST pin.
 340:Drivers/STM32U0xx_HAL_Driver/Src/stm32u0xx_hal_pwr_ex.c **** 
 341:Drivers/STM32U0xx_HAL_Driver/Src/stm32u0xx_hal_pwr_ex.c **** @endverbatim
 342:Drivers/STM32U0xx_HAL_Driver/Src/stm32u0xx_hal_pwr_ex.c ****   * @{
 343:Drivers/STM32U0xx_HAL_Driver/Src/stm32u0xx_hal_pwr_ex.c ****   */
 344:Drivers/STM32U0xx_HAL_Driver/Src/stm32u0xx_hal_pwr_ex.c **** 
 345:Drivers/STM32U0xx_HAL_Driver/Src/stm32u0xx_hal_pwr_ex.c **** /**
 346:Drivers/STM32U0xx_HAL_Driver/Src/stm32u0xx_hal_pwr_ex.c ****   * @brief Enter Low-power Run mode
 347:Drivers/STM32U0xx_HAL_Driver/Src/stm32u0xx_hal_pwr_ex.c ****   * @note  In Low-power Run mode, all I/O pins keep the same state as in Run mode.
 348:Drivers/STM32U0xx_HAL_Driver/Src/stm32u0xx_hal_pwr_ex.c ****   * @note  When Regulator is set to PWR_LOWPOWERREGULATOR_ON, the user can optionally configure the
 349:Drivers/STM32U0xx_HAL_Driver/Src/stm32u0xx_hal_pwr_ex.c ****   *        Flash in power-down monde in setting the RUN_PD bit in FLASH_ACR register.
 350:Drivers/STM32U0xx_HAL_Driver/Src/stm32u0xx_hal_pwr_ex.c ****   *        Additionally, the clock frequency must be reduced below 2 MHz.
 351:Drivers/STM32U0xx_HAL_Driver/Src/stm32u0xx_hal_pwr_ex.c ****   *        Setting RUN_PD in FLASH_ACR then appropriately reducing the clock frequency must
 352:Drivers/STM32U0xx_HAL_Driver/Src/stm32u0xx_hal_pwr_ex.c ****   *        be done before calling HAL_PWREx_EnableLowPowerRunMode() API.
 353:Drivers/STM32U0xx_HAL_Driver/Src/stm32u0xx_hal_pwr_ex.c ****   * @retval None
 354:Drivers/STM32U0xx_HAL_Driver/Src/stm32u0xx_hal_pwr_ex.c ****   */
 355:Drivers/STM32U0xx_HAL_Driver/Src/stm32u0xx_hal_pwr_ex.c **** void HAL_PWREx_EnableLowPowerRunMode(void)
 356:Drivers/STM32U0xx_HAL_Driver/Src/stm32u0xx_hal_pwr_ex.c **** {
 217              		.loc 1 356 1 is_stmt 1 view -0
 218              		.cfi_startproc
 219              		@ args = 0, pretend = 0, frame = 0
 220              		@ frame_needed = 0, uses_anonymous_args = 0
 221              		@ link register save eliminated.
 357:Drivers/STM32U0xx_HAL_Driver/Src/stm32u0xx_hal_pwr_ex.c ****   /* Set Regulator parameter */
 358:Drivers/STM32U0xx_HAL_Driver/Src/stm32u0xx_hal_pwr_ex.c ****   SET_BIT(PWR->CR1, PWR_CR1_LPR);
 222              		.loc 1 358 3 view .LVU46
 223 0000 034A     		ldr	r2, .L18
 224 0002 1168     		ldr	r1, [r2]
 225 0004 8023     		movs	r3, #128
 226 0006 DB01     		lsls	r3, r3, #7
 227 0008 0B43     		orrs	r3, r1
 228 000a 1360     		str	r3, [r2]
 359:Drivers/STM32U0xx_HAL_Driver/Src/stm32u0xx_hal_pwr_ex.c **** }
 229              		.loc 1 359 1 is_stmt 0 view .LVU47
 230              		@ sp needed
 231 000c 7047     		bx	lr
 232              	.L19:
 233 000e C046     		.align	2
 234              	.L18:
 235 0010 00700040 		.word	1073770496
 236              		.cfi_endproc
 237              	.LFE336:
 239              		.section	.text.HAL_PWREx_DisableLowPowerRunMode,"ax",%progbits
 240              		.align	1
 241              		.global	HAL_PWREx_DisableLowPowerRunMode
 242              		.syntax unified
 243              		.code	16
 244              		.thumb_func
 246              	HAL_PWREx_DisableLowPowerRunMode:
 247              	.LFB337:
ARM GAS  C:\Users\upo\AppData\Local\Temp\ccTc2A2n.s 			page 12


 360:Drivers/STM32U0xx_HAL_Driver/Src/stm32u0xx_hal_pwr_ex.c **** 
 361:Drivers/STM32U0xx_HAL_Driver/Src/stm32u0xx_hal_pwr_ex.c **** /**
 362:Drivers/STM32U0xx_HAL_Driver/Src/stm32u0xx_hal_pwr_ex.c ****   * @brief Exit Low-power Run mode.
 363:Drivers/STM32U0xx_HAL_Driver/Src/stm32u0xx_hal_pwr_ex.c ****   * @note  Before HAL_PWREx_DisableLowPowerRunMode() completion, the function checks that
 364:Drivers/STM32U0xx_HAL_Driver/Src/stm32u0xx_hal_pwr_ex.c ****   *        REGLPF has been properly reset (otherwise, HAL_PWREx_DisableLowPowerRunMode
 365:Drivers/STM32U0xx_HAL_Driver/Src/stm32u0xx_hal_pwr_ex.c ****   *        returns HAL_TIMEOUT status). The system clock frequency can then be
 366:Drivers/STM32U0xx_HAL_Driver/Src/stm32u0xx_hal_pwr_ex.c ****   *        increased above 2 MHz.
 367:Drivers/STM32U0xx_HAL_Driver/Src/stm32u0xx_hal_pwr_ex.c ****   * @retval HAL Status
 368:Drivers/STM32U0xx_HAL_Driver/Src/stm32u0xx_hal_pwr_ex.c ****   */
 369:Drivers/STM32U0xx_HAL_Driver/Src/stm32u0xx_hal_pwr_ex.c **** HAL_StatusTypeDef HAL_PWREx_DisableLowPowerRunMode(void)
 370:Drivers/STM32U0xx_HAL_Driver/Src/stm32u0xx_hal_pwr_ex.c **** {
 248              		.loc 1 370 1 is_stmt 1 view -0
 249              		.cfi_startproc
 250              		@ args = 0, pretend = 0, frame = 0
 251              		@ frame_needed = 0, uses_anonymous_args = 0
 252 0000 10B5     		push	{r4, lr}
 253              	.LCFI1:
 254              		.cfi_def_cfa_offset 8
 255              		.cfi_offset 4, -8
 256              		.cfi_offset 14, -4
 371:Drivers/STM32U0xx_HAL_Driver/Src/stm32u0xx_hal_pwr_ex.c ****   uint32_t wait_loop_index;
 257              		.loc 1 371 3 view .LVU49
 372:Drivers/STM32U0xx_HAL_Driver/Src/stm32u0xx_hal_pwr_ex.c **** 
 373:Drivers/STM32U0xx_HAL_Driver/Src/stm32u0xx_hal_pwr_ex.c ****   /* Clear LPR bit */
 374:Drivers/STM32U0xx_HAL_Driver/Src/stm32u0xx_hal_pwr_ex.c ****   CLEAR_BIT(PWR->CR1, PWR_CR1_LPR);
 258              		.loc 1 374 3 view .LVU50
 259 0002 0E4A     		ldr	r2, .L27
 260 0004 1368     		ldr	r3, [r2]
 261 0006 0E49     		ldr	r1, .L27+4
 262 0008 0B40     		ands	r3, r1
 263 000a 1360     		str	r3, [r2]
 375:Drivers/STM32U0xx_HAL_Driver/Src/stm32u0xx_hal_pwr_ex.c **** 
 376:Drivers/STM32U0xx_HAL_Driver/Src/stm32u0xx_hal_pwr_ex.c ****   /* Wait until REGLPF is reset */
 377:Drivers/STM32U0xx_HAL_Driver/Src/stm32u0xx_hal_pwr_ex.c ****   wait_loop_index = ((PWR_FLAG_SETTING_DELAY_US * SystemCoreClock) / 1000000U) + 1U;
 264              		.loc 1 377 3 view .LVU51
 265              		.loc 1 377 49 is_stmt 0 view .LVU52
 266 000c 0D4B     		ldr	r3, .L27+8
 267 000e 1868     		ldr	r0, [r3]
 268 0010 3223     		movs	r3, #50
 269 0012 5843     		muls	r0, r3
 270              		.loc 1 377 68 view .LVU53
 271 0014 0C49     		ldr	r1, .L27+12
 272 0016 FFF7FEFF 		bl	__aeabi_uidiv
 273              	.LVL14:
 274              		.loc 1 377 19 view .LVU54
 275 001a 0130     		adds	r0, r0, #1
 276              	.LVL15:
 378:Drivers/STM32U0xx_HAL_Driver/Src/stm32u0xx_hal_pwr_ex.c ****   while ((HAL_IS_BIT_SET(PWR->SR2, PWR_SR2_REGLPF)) && (wait_loop_index != 0U))
 277              		.loc 1 378 3 is_stmt 1 view .LVU55
 278              		.loc 1 378 9 is_stmt 0 view .LVU56
 279 001c 00E0     		b	.L21
 280              	.L23:
 379:Drivers/STM32U0xx_HAL_Driver/Src/stm32u0xx_hal_pwr_ex.c ****   {
 380:Drivers/STM32U0xx_HAL_Driver/Src/stm32u0xx_hal_pwr_ex.c ****     wait_loop_index--;
 281              		.loc 1 380 5 is_stmt 1 view .LVU57
 282              		.loc 1 380 20 is_stmt 0 view .LVU58
 283 001e 0138     		subs	r0, r0, #1
ARM GAS  C:\Users\upo\AppData\Local\Temp\ccTc2A2n.s 			page 13


 284              	.LVL16:
 285              	.L21:
 378:Drivers/STM32U0xx_HAL_Driver/Src/stm32u0xx_hal_pwr_ex.c ****   while ((HAL_IS_BIT_SET(PWR->SR2, PWR_SR2_REGLPF)) && (wait_loop_index != 0U))
 286              		.loc 1 378 53 is_stmt 1 view .LVU59
 378:Drivers/STM32U0xx_HAL_Driver/Src/stm32u0xx_hal_pwr_ex.c ****   while ((HAL_IS_BIT_SET(PWR->SR2, PWR_SR2_REGLPF)) && (wait_loop_index != 0U))
 287              		.loc 1 378 11 is_stmt 0 view .LVU60
 288 0020 064B     		ldr	r3, .L27
 289 0022 5B69     		ldr	r3, [r3, #20]
 378:Drivers/STM32U0xx_HAL_Driver/Src/stm32u0xx_hal_pwr_ex.c ****   while ((HAL_IS_BIT_SET(PWR->SR2, PWR_SR2_REGLPF)) && (wait_loop_index != 0U))
 290              		.loc 1 378 53 view .LVU61
 291 0024 9B05     		lsls	r3, r3, #22
 292 0026 01D5     		bpl	.L22
 378:Drivers/STM32U0xx_HAL_Driver/Src/stm32u0xx_hal_pwr_ex.c ****   while ((HAL_IS_BIT_SET(PWR->SR2, PWR_SR2_REGLPF)) && (wait_loop_index != 0U))
 293              		.loc 1 378 53 discriminator 1 view .LVU62
 294 0028 0028     		cmp	r0, #0
 295 002a F8D1     		bne	.L23
 296              	.L22:
 381:Drivers/STM32U0xx_HAL_Driver/Src/stm32u0xx_hal_pwr_ex.c ****   }
 382:Drivers/STM32U0xx_HAL_Driver/Src/stm32u0xx_hal_pwr_ex.c ****   if (HAL_IS_BIT_SET(PWR->SR2, PWR_SR2_REGLPF))
 297              		.loc 1 382 3 is_stmt 1 view .LVU63
 298              		.loc 1 382 7 is_stmt 0 view .LVU64
 299 002c 034B     		ldr	r3, .L27
 300 002e 5B69     		ldr	r3, [r3, #20]
 301              		.loc 1 382 6 view .LVU65
 302 0030 9B05     		lsls	r3, r3, #22
 303 0032 01D4     		bmi	.L25
 383:Drivers/STM32U0xx_HAL_Driver/Src/stm32u0xx_hal_pwr_ex.c ****   {
 384:Drivers/STM32U0xx_HAL_Driver/Src/stm32u0xx_hal_pwr_ex.c ****     return HAL_TIMEOUT;
 385:Drivers/STM32U0xx_HAL_Driver/Src/stm32u0xx_hal_pwr_ex.c ****   }
 386:Drivers/STM32U0xx_HAL_Driver/Src/stm32u0xx_hal_pwr_ex.c **** 
 387:Drivers/STM32U0xx_HAL_Driver/Src/stm32u0xx_hal_pwr_ex.c ****   return HAL_OK;
 304              		.loc 1 387 10 view .LVU66
 305 0034 0020     		movs	r0, #0
 306              	.LVL17:
 307              	.L24:
 388:Drivers/STM32U0xx_HAL_Driver/Src/stm32u0xx_hal_pwr_ex.c **** }
 308              		.loc 1 388 1 view .LVU67
 309              		@ sp needed
 310 0036 10BD     		pop	{r4, pc}
 311              	.LVL18:
 312              	.L25:
 384:Drivers/STM32U0xx_HAL_Driver/Src/stm32u0xx_hal_pwr_ex.c ****   }
 313              		.loc 1 384 12 view .LVU68
 314 0038 0320     		movs	r0, #3
 315              	.LVL19:
 384:Drivers/STM32U0xx_HAL_Driver/Src/stm32u0xx_hal_pwr_ex.c ****   }
 316              		.loc 1 384 12 view .LVU69
 317 003a FCE7     		b	.L24
 318              	.L28:
 319              		.align	2
 320              	.L27:
 321 003c 00700040 		.word	1073770496
 322 0040 FFBFFFFF 		.word	-16385
 323 0044 00000000 		.word	SystemCoreClock
 324 0048 40420F00 		.word	1000000
 325              		.cfi_endproc
 326              	.LFE337:
ARM GAS  C:\Users\upo\AppData\Local\Temp\ccTc2A2n.s 			page 14


 328              		.section	.text.HAL_PWREx_EnterSTOP1Mode,"ax",%progbits
 329              		.align	1
 330              		.global	HAL_PWREx_EnterSTOP1Mode
 331              		.syntax unified
 332              		.code	16
 333              		.thumb_func
 335              	HAL_PWREx_EnterSTOP1Mode:
 336              	.LVL20:
 337              	.LFB338:
 389:Drivers/STM32U0xx_HAL_Driver/Src/stm32u0xx_hal_pwr_ex.c **** 
 390:Drivers/STM32U0xx_HAL_Driver/Src/stm32u0xx_hal_pwr_ex.c **** /**
 391:Drivers/STM32U0xx_HAL_Driver/Src/stm32u0xx_hal_pwr_ex.c ****   * @brief Enter Stop 1 mode.
 392:Drivers/STM32U0xx_HAL_Driver/Src/stm32u0xx_hal_pwr_ex.c ****   * @note  In Stop 1 mode, only low power voltage regulator is ON.
 393:Drivers/STM32U0xx_HAL_Driver/Src/stm32u0xx_hal_pwr_ex.c ****   * @note  In Stop 1 mode, all I/O pins keep the same state as in Run mode.
 394:Drivers/STM32U0xx_HAL_Driver/Src/stm32u0xx_hal_pwr_ex.c ****   * @note  All clocks in the VCORE domain are stopped; the PLL, the MSI,
 395:Drivers/STM32U0xx_HAL_Driver/Src/stm32u0xx_hal_pwr_ex.c ****   *        the HSI and the HSE oscillators are disabled. Some peripherals with the wakeup capabilit
 396:Drivers/STM32U0xx_HAL_Driver/Src/stm32u0xx_hal_pwr_ex.c ****   *        (I2Cx, USARTx and LPUART) can switch on the HSI to receive a frame, and switch off the H
 397:Drivers/STM32U0xx_HAL_Driver/Src/stm32u0xx_hal_pwr_ex.c ****   *        after receiving the frame if it is not a wakeup frame. In this case, the HSI clock is pr
 398:Drivers/STM32U0xx_HAL_Driver/Src/stm32u0xx_hal_pwr_ex.c ****   *        only to the peripheral requesting it.
 399:Drivers/STM32U0xx_HAL_Driver/Src/stm32u0xx_hal_pwr_ex.c ****   *        SRAM and register contents are preserved.
 400:Drivers/STM32U0xx_HAL_Driver/Src/stm32u0xx_hal_pwr_ex.c ****   *        The BOR is available.
 401:Drivers/STM32U0xx_HAL_Driver/Src/stm32u0xx_hal_pwr_ex.c ****   * @note  When exiting Stop 1 mode by issuing an interrupt or a wakeup event,
 402:Drivers/STM32U0xx_HAL_Driver/Src/stm32u0xx_hal_pwr_ex.c ****   *         the HSI RC oscillator is selected as system clock if STOPWUCK bit in RCC_CFGR register
 403:Drivers/STM32U0xx_HAL_Driver/Src/stm32u0xx_hal_pwr_ex.c ****   *         is set; the MSI oscillator is selected if STOPWUCK is cleared.
 404:Drivers/STM32U0xx_HAL_Driver/Src/stm32u0xx_hal_pwr_ex.c ****   * @note  Due to low power mode, an additional startup delay is incurred when waking up from Stop 
 405:Drivers/STM32U0xx_HAL_Driver/Src/stm32u0xx_hal_pwr_ex.c ****   * @param STOPEntry  specifies if Stop mode in entered with WFI or WFE instruction.
 406:Drivers/STM32U0xx_HAL_Driver/Src/stm32u0xx_hal_pwr_ex.c ****   *          This parameter can be one of the following values:
 407:Drivers/STM32U0xx_HAL_Driver/Src/stm32u0xx_hal_pwr_ex.c ****   *            @arg @ref PWR_STOPENTRY_WFI  Enter Stop mode with WFI instruction
 408:Drivers/STM32U0xx_HAL_Driver/Src/stm32u0xx_hal_pwr_ex.c ****   *            @arg @ref PWR_STOPENTRY_WFE  Enter Stop mode with WFE instruction
 409:Drivers/STM32U0xx_HAL_Driver/Src/stm32u0xx_hal_pwr_ex.c ****   * @retval None
 410:Drivers/STM32U0xx_HAL_Driver/Src/stm32u0xx_hal_pwr_ex.c ****   */
 411:Drivers/STM32U0xx_HAL_Driver/Src/stm32u0xx_hal_pwr_ex.c **** void HAL_PWREx_EnterSTOP1Mode(uint8_t STOPEntry)
 412:Drivers/STM32U0xx_HAL_Driver/Src/stm32u0xx_hal_pwr_ex.c **** {
 338              		.loc 1 412 1 is_stmt 1 view -0
 339              		.cfi_startproc
 340              		@ args = 0, pretend = 0, frame = 0
 341              		@ frame_needed = 0, uses_anonymous_args = 0
 342              		@ link register save eliminated.
 413:Drivers/STM32U0xx_HAL_Driver/Src/stm32u0xx_hal_pwr_ex.c ****   /* Check the parameters */
 414:Drivers/STM32U0xx_HAL_Driver/Src/stm32u0xx_hal_pwr_ex.c ****   assert_param(IS_PWR_STOP_ENTRY(STOPEntry));
 343              		.loc 1 414 3 view .LVU71
 415:Drivers/STM32U0xx_HAL_Driver/Src/stm32u0xx_hal_pwr_ex.c **** 
 416:Drivers/STM32U0xx_HAL_Driver/Src/stm32u0xx_hal_pwr_ex.c ****   /* Stop 1 mode with Low-Power Regulator */
 417:Drivers/STM32U0xx_HAL_Driver/Src/stm32u0xx_hal_pwr_ex.c ****   MODIFY_REG(PWR->CR1, PWR_CR1_LPMS, PWR_CR1_LPMS_0);
 344              		.loc 1 417 3 view .LVU72
 345 0000 0C4A     		ldr	r2, .L33
 346 0002 1368     		ldr	r3, [r2]
 347 0004 0721     		movs	r1, #7
 348 0006 8B43     		bics	r3, r1
 349 0008 0639     		subs	r1, r1, #6
 350 000a 0B43     		orrs	r3, r1
 351 000c 1360     		str	r3, [r2]
 418:Drivers/STM32U0xx_HAL_Driver/Src/stm32u0xx_hal_pwr_ex.c **** 
 419:Drivers/STM32U0xx_HAL_Driver/Src/stm32u0xx_hal_pwr_ex.c ****   /* Set SLEEPDEEP bit of Cortex System Control Register */
 420:Drivers/STM32U0xx_HAL_Driver/Src/stm32u0xx_hal_pwr_ex.c ****   SET_BIT(SCB->SCR, ((uint32_t)SCB_SCR_SLEEPDEEP_Msk));
 352              		.loc 1 420 3 view .LVU73
 353 000e 0A4A     		ldr	r2, .L33+4
ARM GAS  C:\Users\upo\AppData\Local\Temp\ccTc2A2n.s 			page 15


 354 0010 1369     		ldr	r3, [r2, #16]
 355 0012 0331     		adds	r1, r1, #3
 356 0014 0B43     		orrs	r3, r1
 357 0016 1361     		str	r3, [r2, #16]
 421:Drivers/STM32U0xx_HAL_Driver/Src/stm32u0xx_hal_pwr_ex.c **** 
 422:Drivers/STM32U0xx_HAL_Driver/Src/stm32u0xx_hal_pwr_ex.c ****   /* Select Stop mode entry --------------------------------------------------*/
 423:Drivers/STM32U0xx_HAL_Driver/Src/stm32u0xx_hal_pwr_ex.c ****   if (STOPEntry == PWR_STOPENTRY_WFI)
 358              		.loc 1 423 3 view .LVU74
 359              		.loc 1 423 6 is_stmt 0 view .LVU75
 360 0018 0128     		cmp	r0, #1
 361 001a 08D0     		beq	.L32
 424:Drivers/STM32U0xx_HAL_Driver/Src/stm32u0xx_hal_pwr_ex.c ****   {
 425:Drivers/STM32U0xx_HAL_Driver/Src/stm32u0xx_hal_pwr_ex.c ****     /* Request Wait For Interrupt */
 426:Drivers/STM32U0xx_HAL_Driver/Src/stm32u0xx_hal_pwr_ex.c ****     __WFI();
 427:Drivers/STM32U0xx_HAL_Driver/Src/stm32u0xx_hal_pwr_ex.c ****   }
 428:Drivers/STM32U0xx_HAL_Driver/Src/stm32u0xx_hal_pwr_ex.c ****   else
 429:Drivers/STM32U0xx_HAL_Driver/Src/stm32u0xx_hal_pwr_ex.c ****   {
 430:Drivers/STM32U0xx_HAL_Driver/Src/stm32u0xx_hal_pwr_ex.c ****     /* Request Wait For Event */
 431:Drivers/STM32U0xx_HAL_Driver/Src/stm32u0xx_hal_pwr_ex.c ****     __SEV();
 362              		.loc 1 431 5 is_stmt 1 view .LVU76
 363              		.syntax divided
 364              	@ 431 "Drivers/STM32U0xx_HAL_Driver/Src/stm32u0xx_hal_pwr_ex.c" 1
 365 001c 40BF     		sev
 366              	@ 0 "" 2
 432:Drivers/STM32U0xx_HAL_Driver/Src/stm32u0xx_hal_pwr_ex.c ****     __WFE();
 367              		.loc 1 432 5 view .LVU77
 368              	@ 432 "Drivers/STM32U0xx_HAL_Driver/Src/stm32u0xx_hal_pwr_ex.c" 1
 369 001e 20BF     		wfe
 370              	@ 0 "" 2
 433:Drivers/STM32U0xx_HAL_Driver/Src/stm32u0xx_hal_pwr_ex.c ****     __WFE();
 371              		.loc 1 433 5 view .LVU78
 372              	@ 433 "Drivers/STM32U0xx_HAL_Driver/Src/stm32u0xx_hal_pwr_ex.c" 1
 373 0020 20BF     		wfe
 374              	@ 0 "" 2
 375              		.thumb
 376              		.syntax unified
 377              	.L31:
 434:Drivers/STM32U0xx_HAL_Driver/Src/stm32u0xx_hal_pwr_ex.c ****   }
 435:Drivers/STM32U0xx_HAL_Driver/Src/stm32u0xx_hal_pwr_ex.c **** 
 436:Drivers/STM32U0xx_HAL_Driver/Src/stm32u0xx_hal_pwr_ex.c ****   /* Reset SLEEPDEEP bit of Cortex System Control Register */
 437:Drivers/STM32U0xx_HAL_Driver/Src/stm32u0xx_hal_pwr_ex.c ****   CLEAR_BIT(SCB->SCR, ((uint32_t)SCB_SCR_SLEEPDEEP_Msk));
 378              		.loc 1 437 3 view .LVU79
 379 0022 054A     		ldr	r2, .L33+4
 380 0024 1369     		ldr	r3, [r2, #16]
 381 0026 0421     		movs	r1, #4
 382 0028 8B43     		bics	r3, r1
 383 002a 1361     		str	r3, [r2, #16]
 438:Drivers/STM32U0xx_HAL_Driver/Src/stm32u0xx_hal_pwr_ex.c **** }
 384              		.loc 1 438 1 is_stmt 0 view .LVU80
 385              		@ sp needed
 386 002c 7047     		bx	lr
 387              	.L32:
 426:Drivers/STM32U0xx_HAL_Driver/Src/stm32u0xx_hal_pwr_ex.c ****   }
 388              		.loc 1 426 5 is_stmt 1 view .LVU81
 389              		.syntax divided
 390              	@ 426 "Drivers/STM32U0xx_HAL_Driver/Src/stm32u0xx_hal_pwr_ex.c" 1
 391 002e 30BF     		wfi
ARM GAS  C:\Users\upo\AppData\Local\Temp\ccTc2A2n.s 			page 16


 392              	@ 0 "" 2
 393              		.thumb
 394              		.syntax unified
 395 0030 F7E7     		b	.L31
 396              	.L34:
 397 0032 C046     		.align	2
 398              	.L33:
 399 0034 00700040 		.word	1073770496
 400 0038 00ED00E0 		.word	-536810240
 401              		.cfi_endproc
 402              	.LFE338:
 404              		.section	.text.HAL_PWREx_EnterSTOP2Mode,"ax",%progbits
 405              		.align	1
 406              		.global	HAL_PWREx_EnterSTOP2Mode
 407              		.syntax unified
 408              		.code	16
 409              		.thumb_func
 411              	HAL_PWREx_EnterSTOP2Mode:
 412              	.LVL21:
 413              	.LFB339:
 439:Drivers/STM32U0xx_HAL_Driver/Src/stm32u0xx_hal_pwr_ex.c **** 
 440:Drivers/STM32U0xx_HAL_Driver/Src/stm32u0xx_hal_pwr_ex.c **** /**
 441:Drivers/STM32U0xx_HAL_Driver/Src/stm32u0xx_hal_pwr_ex.c ****   * @brief Enter Stop 2 mode.
 442:Drivers/STM32U0xx_HAL_Driver/Src/stm32u0xx_hal_pwr_ex.c ****   * @note  In Stop 2 mode, only low power voltage regulator is ON.
 443:Drivers/STM32U0xx_HAL_Driver/Src/stm32u0xx_hal_pwr_ex.c ****   * @note  In Stop 2 mode, all I/O pins keep the same state as in Run mode.
 444:Drivers/STM32U0xx_HAL_Driver/Src/stm32u0xx_hal_pwr_ex.c ****   * @note  All clocks in the VCORE domain are stopped, the PLL, the MSI,
 445:Drivers/STM32U0xx_HAL_Driver/Src/stm32u0xx_hal_pwr_ex.c ****   *        the HSI and the HSE oscillators are disabled. Some peripherals with wakeup capability
 446:Drivers/STM32U0xx_HAL_Driver/Src/stm32u0xx_hal_pwr_ex.c ****   *        (LCD, LPTIM1, I2C3 and LPUART) can switch on the HSI to receive a frame, and switch off 
 447:Drivers/STM32U0xx_HAL_Driver/Src/stm32u0xx_hal_pwr_ex.c ****   *        receiving the frame if it is not a wakeup frame. In this case the HSI clock is propagate
 448:Drivers/STM32U0xx_HAL_Driver/Src/stm32u0xx_hal_pwr_ex.c ****   *        to the peripheral requesting it.
 449:Drivers/STM32U0xx_HAL_Driver/Src/stm32u0xx_hal_pwr_ex.c ****   *        SRAM and register contents are preserved.
 450:Drivers/STM32U0xx_HAL_Driver/Src/stm32u0xx_hal_pwr_ex.c ****   *        The BOR is available.
 451:Drivers/STM32U0xx_HAL_Driver/Src/stm32u0xx_hal_pwr_ex.c ****   *        The voltage regulator is set in low-power mode but LPR bit must be cleared to enter stop
 452:Drivers/STM32U0xx_HAL_Driver/Src/stm32u0xx_hal_pwr_ex.c ****   *        Otherwise, Stop 1 mode is entered.
 453:Drivers/STM32U0xx_HAL_Driver/Src/stm32u0xx_hal_pwr_ex.c ****   * @note  When exiting Stop 2 mode by issuing an interrupt or a wakeup event,
 454:Drivers/STM32U0xx_HAL_Driver/Src/stm32u0xx_hal_pwr_ex.c ****   *         the HSI RC oscillator is selected as system clock if STOPWUCK bit in RCC_CFGR register
 455:Drivers/STM32U0xx_HAL_Driver/Src/stm32u0xx_hal_pwr_ex.c ****   *         is set; the MSI oscillator is selected if STOPWUCK is cleared.
 456:Drivers/STM32U0xx_HAL_Driver/Src/stm32u0xx_hal_pwr_ex.c ****   * @param STOPEntry  specifies if Stop mode in entered with WFI or WFE instruction.
 457:Drivers/STM32U0xx_HAL_Driver/Src/stm32u0xx_hal_pwr_ex.c ****   *          This parameter can be one of the following values:
 458:Drivers/STM32U0xx_HAL_Driver/Src/stm32u0xx_hal_pwr_ex.c ****   *            @arg @ref PWR_STOPENTRY_WFI  Enter Stop mode with WFI instruction
 459:Drivers/STM32U0xx_HAL_Driver/Src/stm32u0xx_hal_pwr_ex.c ****   *            @arg @ref PWR_STOPENTRY_WFE  Enter Stop mode with WFE instruction
 460:Drivers/STM32U0xx_HAL_Driver/Src/stm32u0xx_hal_pwr_ex.c ****   * @retval None
 461:Drivers/STM32U0xx_HAL_Driver/Src/stm32u0xx_hal_pwr_ex.c ****   */
 462:Drivers/STM32U0xx_HAL_Driver/Src/stm32u0xx_hal_pwr_ex.c **** void HAL_PWREx_EnterSTOP2Mode(uint8_t STOPEntry)
 463:Drivers/STM32U0xx_HAL_Driver/Src/stm32u0xx_hal_pwr_ex.c **** {
 414              		.loc 1 463 1 view -0
 415              		.cfi_startproc
 416              		@ args = 0, pretend = 0, frame = 0
 417              		@ frame_needed = 0, uses_anonymous_args = 0
 418              		@ link register save eliminated.
 464:Drivers/STM32U0xx_HAL_Driver/Src/stm32u0xx_hal_pwr_ex.c ****   /* Check the parameter */
 465:Drivers/STM32U0xx_HAL_Driver/Src/stm32u0xx_hal_pwr_ex.c ****   assert_param(IS_PWR_STOP_ENTRY(STOPEntry));
 419              		.loc 1 465 3 view .LVU83
 466:Drivers/STM32U0xx_HAL_Driver/Src/stm32u0xx_hal_pwr_ex.c ****   /* Clear LPR Bit */
 467:Drivers/STM32U0xx_HAL_Driver/Src/stm32u0xx_hal_pwr_ex.c ****   CLEAR_BIT(PWR->CR1, PWR_CR1_LPR);
 420              		.loc 1 467 3 view .LVU84
 421 0000 0E4A     		ldr	r2, .L39
ARM GAS  C:\Users\upo\AppData\Local\Temp\ccTc2A2n.s 			page 17


 422 0002 1368     		ldr	r3, [r2]
 423 0004 0E49     		ldr	r1, .L39+4
 424 0006 0B40     		ands	r3, r1
 425 0008 1360     		str	r3, [r2]
 468:Drivers/STM32U0xx_HAL_Driver/Src/stm32u0xx_hal_pwr_ex.c ****   /* Set Stop mode 2 */
 469:Drivers/STM32U0xx_HAL_Driver/Src/stm32u0xx_hal_pwr_ex.c ****   MODIFY_REG(PWR->CR1, PWR_CR1_LPMS, PWR_CR1_LPMS_1);
 426              		.loc 1 469 3 view .LVU85
 427 000a 1368     		ldr	r3, [r2]
 428 000c 0721     		movs	r1, #7
 429 000e 8B43     		bics	r3, r1
 430 0010 0539     		subs	r1, r1, #5
 431 0012 0B43     		orrs	r3, r1
 432 0014 1360     		str	r3, [r2]
 470:Drivers/STM32U0xx_HAL_Driver/Src/stm32u0xx_hal_pwr_ex.c **** 
 471:Drivers/STM32U0xx_HAL_Driver/Src/stm32u0xx_hal_pwr_ex.c ****   /* Set SLEEPDEEP bit of Cortex System Control Register */
 472:Drivers/STM32U0xx_HAL_Driver/Src/stm32u0xx_hal_pwr_ex.c ****   SET_BIT(SCB->SCR, ((uint32_t)SCB_SCR_SLEEPDEEP_Msk));
 433              		.loc 1 472 3 view .LVU86
 434 0016 0B4A     		ldr	r2, .L39+8
 435 0018 1369     		ldr	r3, [r2, #16]
 436 001a 0231     		adds	r1, r1, #2
 437 001c 0B43     		orrs	r3, r1
 438 001e 1361     		str	r3, [r2, #16]
 473:Drivers/STM32U0xx_HAL_Driver/Src/stm32u0xx_hal_pwr_ex.c **** 
 474:Drivers/STM32U0xx_HAL_Driver/Src/stm32u0xx_hal_pwr_ex.c ****   /* Select Stop mode entry --------------------------------------------------*/
 475:Drivers/STM32U0xx_HAL_Driver/Src/stm32u0xx_hal_pwr_ex.c ****   if (STOPEntry == PWR_STOPENTRY_WFI)
 439              		.loc 1 475 3 view .LVU87
 440              		.loc 1 475 6 is_stmt 0 view .LVU88
 441 0020 0128     		cmp	r0, #1
 442 0022 08D0     		beq	.L38
 476:Drivers/STM32U0xx_HAL_Driver/Src/stm32u0xx_hal_pwr_ex.c ****   {
 477:Drivers/STM32U0xx_HAL_Driver/Src/stm32u0xx_hal_pwr_ex.c ****     /* Request Wait For Interrupt */
 478:Drivers/STM32U0xx_HAL_Driver/Src/stm32u0xx_hal_pwr_ex.c ****     __WFI();
 479:Drivers/STM32U0xx_HAL_Driver/Src/stm32u0xx_hal_pwr_ex.c ****   }
 480:Drivers/STM32U0xx_HAL_Driver/Src/stm32u0xx_hal_pwr_ex.c ****   else
 481:Drivers/STM32U0xx_HAL_Driver/Src/stm32u0xx_hal_pwr_ex.c ****   {
 482:Drivers/STM32U0xx_HAL_Driver/Src/stm32u0xx_hal_pwr_ex.c ****     /* Request Wait For Event */
 483:Drivers/STM32U0xx_HAL_Driver/Src/stm32u0xx_hal_pwr_ex.c ****     __SEV();
 443              		.loc 1 483 5 is_stmt 1 view .LVU89
 444              		.syntax divided
 445              	@ 483 "Drivers/STM32U0xx_HAL_Driver/Src/stm32u0xx_hal_pwr_ex.c" 1
 446 0024 40BF     		sev
 447              	@ 0 "" 2
 484:Drivers/STM32U0xx_HAL_Driver/Src/stm32u0xx_hal_pwr_ex.c ****     __WFE();
 448              		.loc 1 484 5 view .LVU90
 449              	@ 484 "Drivers/STM32U0xx_HAL_Driver/Src/stm32u0xx_hal_pwr_ex.c" 1
 450 0026 20BF     		wfe
 451              	@ 0 "" 2
 485:Drivers/STM32U0xx_HAL_Driver/Src/stm32u0xx_hal_pwr_ex.c ****     __WFE();
 452              		.loc 1 485 5 view .LVU91
 453              	@ 485 "Drivers/STM32U0xx_HAL_Driver/Src/stm32u0xx_hal_pwr_ex.c" 1
 454 0028 20BF     		wfe
 455              	@ 0 "" 2
 456              		.thumb
 457              		.syntax unified
 458              	.L37:
 486:Drivers/STM32U0xx_HAL_Driver/Src/stm32u0xx_hal_pwr_ex.c ****   }
 487:Drivers/STM32U0xx_HAL_Driver/Src/stm32u0xx_hal_pwr_ex.c **** 
ARM GAS  C:\Users\upo\AppData\Local\Temp\ccTc2A2n.s 			page 18


 488:Drivers/STM32U0xx_HAL_Driver/Src/stm32u0xx_hal_pwr_ex.c ****   /* Reset SLEEPDEEP bit of Cortex System Control Register */
 489:Drivers/STM32U0xx_HAL_Driver/Src/stm32u0xx_hal_pwr_ex.c ****   CLEAR_BIT(SCB->SCR, ((uint32_t)SCB_SCR_SLEEPDEEP_Msk));
 459              		.loc 1 489 3 view .LVU92
 460 002a 064A     		ldr	r2, .L39+8
 461 002c 1369     		ldr	r3, [r2, #16]
 462 002e 0421     		movs	r1, #4
 463 0030 8B43     		bics	r3, r1
 464 0032 1361     		str	r3, [r2, #16]
 490:Drivers/STM32U0xx_HAL_Driver/Src/stm32u0xx_hal_pwr_ex.c **** }
 465              		.loc 1 490 1 is_stmt 0 view .LVU93
 466              		@ sp needed
 467 0034 7047     		bx	lr
 468              	.L38:
 478:Drivers/STM32U0xx_HAL_Driver/Src/stm32u0xx_hal_pwr_ex.c ****   }
 469              		.loc 1 478 5 is_stmt 1 view .LVU94
 470              		.syntax divided
 471              	@ 478 "Drivers/STM32U0xx_HAL_Driver/Src/stm32u0xx_hal_pwr_ex.c" 1
 472 0036 30BF     		wfi
 473              	@ 0 "" 2
 474              		.thumb
 475              		.syntax unified
 476 0038 F7E7     		b	.L37
 477              	.L40:
 478 003a C046     		.align	2
 479              	.L39:
 480 003c 00700040 		.word	1073770496
 481 0040 FFBFFFFF 		.word	-16385
 482 0044 00ED00E0 		.word	-536810240
 483              		.cfi_endproc
 484              	.LFE339:
 486              		.section	.text.HAL_PWREx_EnablePVM1,"ax",%progbits
 487              		.align	1
 488              		.global	HAL_PWREx_EnablePVM1
 489              		.syntax unified
 490              		.code	16
 491              		.thumb_func
 493              	HAL_PWREx_EnablePVM1:
 494              	.LFB340:
 491:Drivers/STM32U0xx_HAL_Driver/Src/stm32u0xx_hal_pwr_ex.c **** /**
 492:Drivers/STM32U0xx_HAL_Driver/Src/stm32u0xx_hal_pwr_ex.c ****   * @}
 493:Drivers/STM32U0xx_HAL_Driver/Src/stm32u0xx_hal_pwr_ex.c ****   */
 494:Drivers/STM32U0xx_HAL_Driver/Src/stm32u0xx_hal_pwr_ex.c **** 
 495:Drivers/STM32U0xx_HAL_Driver/Src/stm32u0xx_hal_pwr_ex.c **** /** @defgroup PWREx_Exported_Functions_Group3 Voltage Monitoring Functions
 496:Drivers/STM32U0xx_HAL_Driver/Src/stm32u0xx_hal_pwr_ex.c ****   * @brief    Voltage monitoring functions
 497:Drivers/STM32U0xx_HAL_Driver/Src/stm32u0xx_hal_pwr_ex.c ****   *
 498:Drivers/STM32U0xx_HAL_Driver/Src/stm32u0xx_hal_pwr_ex.c **** @verbatim
 499:Drivers/STM32U0xx_HAL_Driver/Src/stm32u0xx_hal_pwr_ex.c ****  ===============================================================================
 500:Drivers/STM32U0xx_HAL_Driver/Src/stm32u0xx_hal_pwr_ex.c ****                      ##### Voltage Monitoring Functions #####
 501:Drivers/STM32U0xx_HAL_Driver/Src/stm32u0xx_hal_pwr_ex.c ****  ===============================================================================
 502:Drivers/STM32U0xx_HAL_Driver/Src/stm32u0xx_hal_pwr_ex.c ****     [..]
 503:Drivers/STM32U0xx_HAL_Driver/Src/stm32u0xx_hal_pwr_ex.c ****       This section provides functions allowing voltage monitoring.
 504:Drivers/STM32U0xx_HAL_Driver/Src/stm32u0xx_hal_pwr_ex.c **** 
 505:Drivers/STM32U0xx_HAL_Driver/Src/stm32u0xx_hal_pwr_ex.c ****     *** PVM configuration ***
 506:Drivers/STM32U0xx_HAL_Driver/Src/stm32u0xx_hal_pwr_ex.c ****     =========================
 507:Drivers/STM32U0xx_HAL_Driver/Src/stm32u0xx_hal_pwr_ex.c ****     [..]
 508:Drivers/STM32U0xx_HAL_Driver/Src/stm32u0xx_hal_pwr_ex.c ****       (+) The supplies (VDDADC, VDDDAC and VDDUSB) can be independent from VDD and
 509:Drivers/STM32U0xx_HAL_Driver/Src/stm32u0xx_hal_pwr_ex.c ****           can be monitored with three peripheral voltage monitoring (PVM).
ARM GAS  C:\Users\upo\AppData\Local\Temp\ccTc2A2n.s 			page 19


 510:Drivers/STM32U0xx_HAL_Driver/Src/stm32u0xx_hal_pwr_ex.c **** 
 511:Drivers/STM32U0xx_HAL_Driver/Src/stm32u0xx_hal_pwr_ex.c ****       (+) Each PVM output is connected to an EXTI line and can generate an
 512:Drivers/STM32U0xx_HAL_Driver/Src/stm32u0xx_hal_pwr_ex.c ****           interrupt if enabled through the EXTI registers. The PVMx output
 513:Drivers/STM32U0xx_HAL_Driver/Src/stm32u0xx_hal_pwr_ex.c ****           interrupt is generated when the independent power supply drops below
 514:Drivers/STM32U0xx_HAL_Driver/Src/stm32u0xx_hal_pwr_ex.c ****           the PVM threshold and/or when it rises above the PVM threshold,
 515:Drivers/STM32U0xx_HAL_Driver/Src/stm32u0xx_hal_pwr_ex.c ****           depending on EXTI line rising/falling edge configuration.
 516:Drivers/STM32U0xx_HAL_Driver/Src/stm32u0xx_hal_pwr_ex.c **** 
 517:Drivers/STM32U0xx_HAL_Driver/Src/stm32u0xx_hal_pwr_ex.c ****       (+) Each PVM can remain active in Stop 0, Stop 1, Stop 2 modes, and the
 518:Drivers/STM32U0xx_HAL_Driver/Src/stm32u0xx_hal_pwr_ex.c ****           PVM interrupt can wake up from the Stop mode.
 519:Drivers/STM32U0xx_HAL_Driver/Src/stm32u0xx_hal_pwr_ex.c **** 
 520:Drivers/STM32U0xx_HAL_Driver/Src/stm32u0xx_hal_pwr_ex.c ****     *** VBAT charging ***
 521:Drivers/STM32U0xx_HAL_Driver/Src/stm32u0xx_hal_pwr_ex.c ****     =====================
 522:Drivers/STM32U0xx_HAL_Driver/Src/stm32u0xx_hal_pwr_ex.c ****     [..]
 523:Drivers/STM32U0xx_HAL_Driver/Src/stm32u0xx_hal_pwr_ex.c ****       When VDD is present, it is possible to charge the external battery on VBAT
 524:Drivers/STM32U0xx_HAL_Driver/Src/stm32u0xx_hal_pwr_ex.c ****       through an internal resistance.
 525:Drivers/STM32U0xx_HAL_Driver/Src/stm32u0xx_hal_pwr_ex.c ****       The VBAT charging is done either through a 5 kOhm resistor or through a 1.5
 526:Drivers/STM32U0xx_HAL_Driver/Src/stm32u0xx_hal_pwr_ex.c ****       kOhm resistor depending on the VBRS bit value in the PWR_BDCR2 register.
 527:Drivers/STM32U0xx_HAL_Driver/Src/stm32u0xx_hal_pwr_ex.c ****       The battery charging is enabled by setting VBE bit in the PWR_BDCR2
 528:Drivers/STM32U0xx_HAL_Driver/Src/stm32u0xx_hal_pwr_ex.c ****       register. It is automatically disabled in VBAT mode.
 529:Drivers/STM32U0xx_HAL_Driver/Src/stm32u0xx_hal_pwr_ex.c **** 
 530:Drivers/STM32U0xx_HAL_Driver/Src/stm32u0xx_hal_pwr_ex.c ****     *** Backup domain monitoring ***
 531:Drivers/STM32U0xx_HAL_Driver/Src/stm32u0xx_hal_pwr_ex.c ****     ================================
 532:Drivers/STM32U0xx_HAL_Driver/Src/stm32u0xx_hal_pwr_ex.c ****     [..]
 533:Drivers/STM32U0xx_HAL_Driver/Src/stm32u0xx_hal_pwr_ex.c ****       When the Backup domain voltage and temperature monitoring is enabled
 534:Drivers/STM32U0xx_HAL_Driver/Src/stm32u0xx_hal_pwr_ex.c ****       (MONEN = 1 in the PWR_BDCR1 register), the Backup domain voltage and the
 535:Drivers/STM32U0xx_HAL_Driver/Src/stm32u0xx_hal_pwr_ex.c ****       temperature are monitored.
 536:Drivers/STM32U0xx_HAL_Driver/Src/stm32u0xx_hal_pwr_ex.c ****       If the Backup domain voltage monitoring internal tamper is enabled in the
 537:Drivers/STM32U0xx_HAL_Driver/Src/stm32u0xx_hal_pwr_ex.c ****       TAMP peripheral (ITAMP1E = 1 in the TAMP_CR1 register), a tamper event is
 538:Drivers/STM32U0xx_HAL_Driver/Src/stm32u0xx_hal_pwr_ex.c ****       generated when the Backup domain voltage is above the functional range.
 539:Drivers/STM32U0xx_HAL_Driver/Src/stm32u0xx_hal_pwr_ex.c ****       In case the Backup domain voltage is below the functional range,
 540:Drivers/STM32U0xx_HAL_Driver/Src/stm32u0xx_hal_pwr_ex.c ****       a Brownout reset is generated, erasing all device including Backup domain.
 541:Drivers/STM32U0xx_HAL_Driver/Src/stm32u0xx_hal_pwr_ex.c **** 
 542:Drivers/STM32U0xx_HAL_Driver/Src/stm32u0xx_hal_pwr_ex.c ****     *** Backup domain battery ***
 543:Drivers/STM32U0xx_HAL_Driver/Src/stm32u0xx_hal_pwr_ex.c ****     =============================
 544:Drivers/STM32U0xx_HAL_Driver/Src/stm32u0xx_hal_pwr_ex.c ****     [..]
 545:Drivers/STM32U0xx_HAL_Driver/Src/stm32u0xx_hal_pwr_ex.c ****       (+) To retain the content of the backup registers and supply the RTC
 546:Drivers/STM32U0xx_HAL_Driver/Src/stm32u0xx_hal_pwr_ex.c ****           function when VDD is turned off, the VBAT pin can be connected to an
 547:Drivers/STM32U0xx_HAL_Driver/Src/stm32u0xx_hal_pwr_ex.c ****           optional backup voltage supplied by a battery or by another source.
 548:Drivers/STM32U0xx_HAL_Driver/Src/stm32u0xx_hal_pwr_ex.c ****           The VBAT pin powers the RTC unit, the LSE oscillator and the PC13 to
 549:Drivers/STM32U0xx_HAL_Driver/Src/stm32u0xx_hal_pwr_ex.c ****           PC15 I/Os, allowing the RTC to operate even when the main power supply
 550:Drivers/STM32U0xx_HAL_Driver/Src/stm32u0xx_hal_pwr_ex.c ****           is turned off. The backup SRAM is optionally powered by VBAT pin when
 551:Drivers/STM32U0xx_HAL_Driver/Src/stm32u0xx_hal_pwr_ex.c ****           the BREN bit is set in the PWR Backup domain control register 1
 552:Drivers/STM32U0xx_HAL_Driver/Src/stm32u0xx_hal_pwr_ex.c ****           (PWR_BDCR1).
 553:Drivers/STM32U0xx_HAL_Driver/Src/stm32u0xx_hal_pwr_ex.c ****           The switch to the VBAT supply is controlled by the power down reset
 554:Drivers/STM32U0xx_HAL_Driver/Src/stm32u0xx_hal_pwr_ex.c ****           embedded in the Reset block.
 555:Drivers/STM32U0xx_HAL_Driver/Src/stm32u0xx_hal_pwr_ex.c **** 
 556:Drivers/STM32U0xx_HAL_Driver/Src/stm32u0xx_hal_pwr_ex.c **** @endverbatim
 557:Drivers/STM32U0xx_HAL_Driver/Src/stm32u0xx_hal_pwr_ex.c ****   * @{
 558:Drivers/STM32U0xx_HAL_Driver/Src/stm32u0xx_hal_pwr_ex.c ****   */
 559:Drivers/STM32U0xx_HAL_Driver/Src/stm32u0xx_hal_pwr_ex.c **** #if defined(USB_DRD_FS)
 560:Drivers/STM32U0xx_HAL_Driver/Src/stm32u0xx_hal_pwr_ex.c **** /**
 561:Drivers/STM32U0xx_HAL_Driver/Src/stm32u0xx_hal_pwr_ex.c ****   * @brief Enable the Power Voltage Monitoring 1: VDDUSB versus 1.2V.
 562:Drivers/STM32U0xx_HAL_Driver/Src/stm32u0xx_hal_pwr_ex.c ****   * @retval None
 563:Drivers/STM32U0xx_HAL_Driver/Src/stm32u0xx_hal_pwr_ex.c ****   */
 564:Drivers/STM32U0xx_HAL_Driver/Src/stm32u0xx_hal_pwr_ex.c **** void HAL_PWREx_EnablePVM1(void)
 565:Drivers/STM32U0xx_HAL_Driver/Src/stm32u0xx_hal_pwr_ex.c **** {
 495              		.loc 1 565 1 view -0
ARM GAS  C:\Users\upo\AppData\Local\Temp\ccTc2A2n.s 			page 20


 496              		.cfi_startproc
 497              		@ args = 0, pretend = 0, frame = 0
 498              		@ frame_needed = 0, uses_anonymous_args = 0
 499              		@ link register save eliminated.
 566:Drivers/STM32U0xx_HAL_Driver/Src/stm32u0xx_hal_pwr_ex.c ****   SET_BIT(PWR->CR2, PWR_PVM_1);
 500              		.loc 1 566 3 view .LVU96
 501 0000 024A     		ldr	r2, .L42
 502 0002 5368     		ldr	r3, [r2, #4]
 503 0004 1021     		movs	r1, #16
 504 0006 0B43     		orrs	r3, r1
 505 0008 5360     		str	r3, [r2, #4]
 567:Drivers/STM32U0xx_HAL_Driver/Src/stm32u0xx_hal_pwr_ex.c **** }
 506              		.loc 1 567 1 is_stmt 0 view .LVU97
 507              		@ sp needed
 508 000a 7047     		bx	lr
 509              	.L43:
 510              		.align	2
 511              	.L42:
 512 000c 00700040 		.word	1073770496
 513              		.cfi_endproc
 514              	.LFE340:
 516              		.section	.text.HAL_PWREx_DisablePVM1,"ax",%progbits
 517              		.align	1
 518              		.global	HAL_PWREx_DisablePVM1
 519              		.syntax unified
 520              		.code	16
 521              		.thumb_func
 523              	HAL_PWREx_DisablePVM1:
 524              	.LFB341:
 568:Drivers/STM32U0xx_HAL_Driver/Src/stm32u0xx_hal_pwr_ex.c **** 
 569:Drivers/STM32U0xx_HAL_Driver/Src/stm32u0xx_hal_pwr_ex.c **** /**
 570:Drivers/STM32U0xx_HAL_Driver/Src/stm32u0xx_hal_pwr_ex.c ****   * @brief Disable the Power Voltage Monitoring 1: VDDUSB versus 1.2V.
 571:Drivers/STM32U0xx_HAL_Driver/Src/stm32u0xx_hal_pwr_ex.c ****   * @retval None
 572:Drivers/STM32U0xx_HAL_Driver/Src/stm32u0xx_hal_pwr_ex.c ****   */
 573:Drivers/STM32U0xx_HAL_Driver/Src/stm32u0xx_hal_pwr_ex.c **** void HAL_PWREx_DisablePVM1(void)
 574:Drivers/STM32U0xx_HAL_Driver/Src/stm32u0xx_hal_pwr_ex.c **** {
 525              		.loc 1 574 1 is_stmt 1 view -0
 526              		.cfi_startproc
 527              		@ args = 0, pretend = 0, frame = 0
 528              		@ frame_needed = 0, uses_anonymous_args = 0
 529              		@ link register save eliminated.
 575:Drivers/STM32U0xx_HAL_Driver/Src/stm32u0xx_hal_pwr_ex.c ****   CLEAR_BIT(PWR->CR2, PWR_PVM_1);
 530              		.loc 1 575 3 view .LVU99
 531 0000 024A     		ldr	r2, .L45
 532 0002 5368     		ldr	r3, [r2, #4]
 533 0004 1021     		movs	r1, #16
 534 0006 8B43     		bics	r3, r1
 535 0008 5360     		str	r3, [r2, #4]
 576:Drivers/STM32U0xx_HAL_Driver/Src/stm32u0xx_hal_pwr_ex.c **** }
 536              		.loc 1 576 1 is_stmt 0 view .LVU100
 537              		@ sp needed
 538 000a 7047     		bx	lr
 539              	.L46:
 540              		.align	2
 541              	.L45:
 542 000c 00700040 		.word	1073770496
 543              		.cfi_endproc
ARM GAS  C:\Users\upo\AppData\Local\Temp\ccTc2A2n.s 			page 21


 544              	.LFE341:
 546              		.section	.text.HAL_PWREx_EnablePVM3,"ax",%progbits
 547              		.align	1
 548              		.global	HAL_PWREx_EnablePVM3
 549              		.syntax unified
 550              		.code	16
 551              		.thumb_func
 553              	HAL_PWREx_EnablePVM3:
 554              	.LFB342:
 577:Drivers/STM32U0xx_HAL_Driver/Src/stm32u0xx_hal_pwr_ex.c **** #endif /* USB_DRD_FS */
 578:Drivers/STM32U0xx_HAL_Driver/Src/stm32u0xx_hal_pwr_ex.c **** /**
 579:Drivers/STM32U0xx_HAL_Driver/Src/stm32u0xx_hal_pwr_ex.c ****   * @brief Enable the Power Voltage Monitoring 2: VDDA versus 1.62V.
 580:Drivers/STM32U0xx_HAL_Driver/Src/stm32u0xx_hal_pwr_ex.c ****   * @retval None
 581:Drivers/STM32U0xx_HAL_Driver/Src/stm32u0xx_hal_pwr_ex.c ****   */
 582:Drivers/STM32U0xx_HAL_Driver/Src/stm32u0xx_hal_pwr_ex.c **** void HAL_PWREx_EnablePVM3(void)
 583:Drivers/STM32U0xx_HAL_Driver/Src/stm32u0xx_hal_pwr_ex.c **** {
 555              		.loc 1 583 1 is_stmt 1 view -0
 556              		.cfi_startproc
 557              		@ args = 0, pretend = 0, frame = 0
 558              		@ frame_needed = 0, uses_anonymous_args = 0
 559              		@ link register save eliminated.
 584:Drivers/STM32U0xx_HAL_Driver/Src/stm32u0xx_hal_pwr_ex.c ****   SET_BIT(PWR->CR2, PWR_PVM_3);
 560              		.loc 1 584 3 view .LVU102
 561 0000 024A     		ldr	r2, .L48
 562 0002 5368     		ldr	r3, [r2, #4]
 563 0004 2021     		movs	r1, #32
 564 0006 0B43     		orrs	r3, r1
 565 0008 5360     		str	r3, [r2, #4]
 585:Drivers/STM32U0xx_HAL_Driver/Src/stm32u0xx_hal_pwr_ex.c **** }
 566              		.loc 1 585 1 is_stmt 0 view .LVU103
 567              		@ sp needed
 568 000a 7047     		bx	lr
 569              	.L49:
 570              		.align	2
 571              	.L48:
 572 000c 00700040 		.word	1073770496
 573              		.cfi_endproc
 574              	.LFE342:
 576              		.section	.text.HAL_PWREx_DisablePVM3,"ax",%progbits
 577              		.align	1
 578              		.global	HAL_PWREx_DisablePVM3
 579              		.syntax unified
 580              		.code	16
 581              		.thumb_func
 583              	HAL_PWREx_DisablePVM3:
 584              	.LFB343:
 586:Drivers/STM32U0xx_HAL_Driver/Src/stm32u0xx_hal_pwr_ex.c **** 
 587:Drivers/STM32U0xx_HAL_Driver/Src/stm32u0xx_hal_pwr_ex.c **** /**
 588:Drivers/STM32U0xx_HAL_Driver/Src/stm32u0xx_hal_pwr_ex.c ****   * @brief Disable the Power Voltage Monitoring 2: VDDA versus 1.62V.
 589:Drivers/STM32U0xx_HAL_Driver/Src/stm32u0xx_hal_pwr_ex.c ****   * @retval None
 590:Drivers/STM32U0xx_HAL_Driver/Src/stm32u0xx_hal_pwr_ex.c ****   */
 591:Drivers/STM32U0xx_HAL_Driver/Src/stm32u0xx_hal_pwr_ex.c **** void HAL_PWREx_DisablePVM3(void)
 592:Drivers/STM32U0xx_HAL_Driver/Src/stm32u0xx_hal_pwr_ex.c **** {
 585              		.loc 1 592 1 is_stmt 1 view -0
 586              		.cfi_startproc
 587              		@ args = 0, pretend = 0, frame = 0
 588              		@ frame_needed = 0, uses_anonymous_args = 0
ARM GAS  C:\Users\upo\AppData\Local\Temp\ccTc2A2n.s 			page 22


 589              		@ link register save eliminated.
 593:Drivers/STM32U0xx_HAL_Driver/Src/stm32u0xx_hal_pwr_ex.c ****   CLEAR_BIT(PWR->CR2, PWR_PVM_3);
 590              		.loc 1 593 3 view .LVU105
 591 0000 024A     		ldr	r2, .L51
 592 0002 5368     		ldr	r3, [r2, #4]
 593 0004 2021     		movs	r1, #32
 594 0006 8B43     		bics	r3, r1
 595 0008 5360     		str	r3, [r2, #4]
 594:Drivers/STM32U0xx_HAL_Driver/Src/stm32u0xx_hal_pwr_ex.c **** }
 596              		.loc 1 594 1 is_stmt 0 view .LVU106
 597              		@ sp needed
 598 000a 7047     		bx	lr
 599              	.L52:
 600              		.align	2
 601              	.L51:
 602 000c 00700040 		.word	1073770496
 603              		.cfi_endproc
 604              	.LFE343:
 606              		.section	.text.HAL_PWREx_EnablePVM4,"ax",%progbits
 607              		.align	1
 608              		.global	HAL_PWREx_EnablePVM4
 609              		.syntax unified
 610              		.code	16
 611              		.thumb_func
 613              	HAL_PWREx_EnablePVM4:
 614              	.LFB344:
 595:Drivers/STM32U0xx_HAL_Driver/Src/stm32u0xx_hal_pwr_ex.c **** 
 596:Drivers/STM32U0xx_HAL_Driver/Src/stm32u0xx_hal_pwr_ex.c **** /**
 597:Drivers/STM32U0xx_HAL_Driver/Src/stm32u0xx_hal_pwr_ex.c ****   * @brief Enable the Power Voltage Monitoring 3:  VDDA versus 2.2V.
 598:Drivers/STM32U0xx_HAL_Driver/Src/stm32u0xx_hal_pwr_ex.c ****   * @retval None
 599:Drivers/STM32U0xx_HAL_Driver/Src/stm32u0xx_hal_pwr_ex.c ****   */
 600:Drivers/STM32U0xx_HAL_Driver/Src/stm32u0xx_hal_pwr_ex.c **** void HAL_PWREx_EnablePVM4(void)
 601:Drivers/STM32U0xx_HAL_Driver/Src/stm32u0xx_hal_pwr_ex.c **** {
 615              		.loc 1 601 1 is_stmt 1 view -0
 616              		.cfi_startproc
 617              		@ args = 0, pretend = 0, frame = 0
 618              		@ frame_needed = 0, uses_anonymous_args = 0
 619              		@ link register save eliminated.
 602:Drivers/STM32U0xx_HAL_Driver/Src/stm32u0xx_hal_pwr_ex.c ****   SET_BIT(PWR->CR2, PWR_PVM_4);
 620              		.loc 1 602 3 view .LVU108
 621 0000 024A     		ldr	r2, .L54
 622 0002 5368     		ldr	r3, [r2, #4]
 623 0004 4021     		movs	r1, #64
 624 0006 0B43     		orrs	r3, r1
 625 0008 5360     		str	r3, [r2, #4]
 603:Drivers/STM32U0xx_HAL_Driver/Src/stm32u0xx_hal_pwr_ex.c **** }
 626              		.loc 1 603 1 is_stmt 0 view .LVU109
 627              		@ sp needed
 628 000a 7047     		bx	lr
 629              	.L55:
 630              		.align	2
 631              	.L54:
 632 000c 00700040 		.word	1073770496
 633              		.cfi_endproc
 634              	.LFE344:
 636              		.section	.text.HAL_PWREx_DisablePVM4,"ax",%progbits
 637              		.align	1
ARM GAS  C:\Users\upo\AppData\Local\Temp\ccTc2A2n.s 			page 23


 638              		.global	HAL_PWREx_DisablePVM4
 639              		.syntax unified
 640              		.code	16
 641              		.thumb_func
 643              	HAL_PWREx_DisablePVM4:
 644              	.LFB345:
 604:Drivers/STM32U0xx_HAL_Driver/Src/stm32u0xx_hal_pwr_ex.c **** 
 605:Drivers/STM32U0xx_HAL_Driver/Src/stm32u0xx_hal_pwr_ex.c **** /**
 606:Drivers/STM32U0xx_HAL_Driver/Src/stm32u0xx_hal_pwr_ex.c ****   * @brief Disable the Power Voltage Monitoring 3:  VDDA versus 2.2V.
 607:Drivers/STM32U0xx_HAL_Driver/Src/stm32u0xx_hal_pwr_ex.c ****   * @retval None
 608:Drivers/STM32U0xx_HAL_Driver/Src/stm32u0xx_hal_pwr_ex.c ****   */
 609:Drivers/STM32U0xx_HAL_Driver/Src/stm32u0xx_hal_pwr_ex.c **** void HAL_PWREx_DisablePVM4(void)
 610:Drivers/STM32U0xx_HAL_Driver/Src/stm32u0xx_hal_pwr_ex.c **** {
 645              		.loc 1 610 1 is_stmt 1 view -0
 646              		.cfi_startproc
 647              		@ args = 0, pretend = 0, frame = 0
 648              		@ frame_needed = 0, uses_anonymous_args = 0
 649              		@ link register save eliminated.
 611:Drivers/STM32U0xx_HAL_Driver/Src/stm32u0xx_hal_pwr_ex.c ****   CLEAR_BIT(PWR->CR2, PWR_PVM_4);
 650              		.loc 1 611 3 view .LVU111
 651 0000 024A     		ldr	r2, .L57
 652 0002 5368     		ldr	r3, [r2, #4]
 653 0004 4021     		movs	r1, #64
 654 0006 8B43     		bics	r3, r1
 655 0008 5360     		str	r3, [r2, #4]
 612:Drivers/STM32U0xx_HAL_Driver/Src/stm32u0xx_hal_pwr_ex.c **** }
 656              		.loc 1 612 1 is_stmt 0 view .LVU112
 657              		@ sp needed
 658 000a 7047     		bx	lr
 659              	.L58:
 660              		.align	2
 661              	.L57:
 662 000c 00700040 		.word	1073770496
 663              		.cfi_endproc
 664              	.LFE345:
 666              		.section	.text.HAL_PWREx_ConfigPVM,"ax",%progbits
 667              		.align	1
 668              		.global	HAL_PWREx_ConfigPVM
 669              		.syntax unified
 670              		.code	16
 671              		.thumb_func
 673              	HAL_PWREx_ConfigPVM:
 674              	.LVL22:
 675              	.LFB346:
 613:Drivers/STM32U0xx_HAL_Driver/Src/stm32u0xx_hal_pwr_ex.c **** 
 614:Drivers/STM32U0xx_HAL_Driver/Src/stm32u0xx_hal_pwr_ex.c **** /**
 615:Drivers/STM32U0xx_HAL_Driver/Src/stm32u0xx_hal_pwr_ex.c ****   * @brief Configure the Peripheral Voltage Monitoring (PVM).
 616:Drivers/STM32U0xx_HAL_Driver/Src/stm32u0xx_hal_pwr_ex.c ****   * @param sConfigPVM: pointer to a PWR_PVMTypeDef structure that contains the
 617:Drivers/STM32U0xx_HAL_Driver/Src/stm32u0xx_hal_pwr_ex.c ****   *        PVM configuration information.
 618:Drivers/STM32U0xx_HAL_Driver/Src/stm32u0xx_hal_pwr_ex.c ****   * @note The API configures a single PVM according to the information contained
 619:Drivers/STM32U0xx_HAL_Driver/Src/stm32u0xx_hal_pwr_ex.c ****   *       in the input structure. To configure several PVMs, the API must be singly
 620:Drivers/STM32U0xx_HAL_Driver/Src/stm32u0xx_hal_pwr_ex.c ****   *       called for each PVM used.
 621:Drivers/STM32U0xx_HAL_Driver/Src/stm32u0xx_hal_pwr_ex.c ****   * @note Refer to the electrical characteristics of your device datasheet for
 622:Drivers/STM32U0xx_HAL_Driver/Src/stm32u0xx_hal_pwr_ex.c ****   *         more details about the voltage thresholds corresponding to each
 623:Drivers/STM32U0xx_HAL_Driver/Src/stm32u0xx_hal_pwr_ex.c ****   *         detection level and to each monitored supply.
 624:Drivers/STM32U0xx_HAL_Driver/Src/stm32u0xx_hal_pwr_ex.c ****   * @retval HAL status
 625:Drivers/STM32U0xx_HAL_Driver/Src/stm32u0xx_hal_pwr_ex.c ****   */
ARM GAS  C:\Users\upo\AppData\Local\Temp\ccTc2A2n.s 			page 24


 626:Drivers/STM32U0xx_HAL_Driver/Src/stm32u0xx_hal_pwr_ex.c **** HAL_StatusTypeDef HAL_PWREx_ConfigPVM(const PWR_PVMTypeDef *sConfigPVM)
 627:Drivers/STM32U0xx_HAL_Driver/Src/stm32u0xx_hal_pwr_ex.c **** {
 676              		.loc 1 627 1 is_stmt 1 view -0
 677              		.cfi_startproc
 678              		@ args = 0, pretend = 0, frame = 0
 679              		@ frame_needed = 0, uses_anonymous_args = 0
 680              		.loc 1 627 1 is_stmt 0 view .LVU114
 681 0000 10B5     		push	{r4, lr}
 682              	.LCFI2:
 683              		.cfi_def_cfa_offset 8
 684              		.cfi_offset 4, -8
 685              		.cfi_offset 14, -4
 628:Drivers/STM32U0xx_HAL_Driver/Src/stm32u0xx_hal_pwr_ex.c ****   HAL_StatusTypeDef status = HAL_OK;
 686              		.loc 1 628 3 is_stmt 1 view .LVU115
 687              	.LVL23:
 629:Drivers/STM32U0xx_HAL_Driver/Src/stm32u0xx_hal_pwr_ex.c **** 
 630:Drivers/STM32U0xx_HAL_Driver/Src/stm32u0xx_hal_pwr_ex.c ****   /* Check the parameters */
 631:Drivers/STM32U0xx_HAL_Driver/Src/stm32u0xx_hal_pwr_ex.c ****   assert_param(IS_PWR_PVM_TYPE(sConfigPVM->PVMType));
 688              		.loc 1 631 3 view .LVU116
 632:Drivers/STM32U0xx_HAL_Driver/Src/stm32u0xx_hal_pwr_ex.c ****   assert_param(IS_PWR_PVM_MODE(sConfigPVM->Mode));
 689              		.loc 1 632 3 view .LVU117
 633:Drivers/STM32U0xx_HAL_Driver/Src/stm32u0xx_hal_pwr_ex.c **** 
 634:Drivers/STM32U0xx_HAL_Driver/Src/stm32u0xx_hal_pwr_ex.c ****   /* Configure EXTI 35 to 38 interrupts if so required:
 635:Drivers/STM32U0xx_HAL_Driver/Src/stm32u0xx_hal_pwr_ex.c ****      scan through PVMType to detect which PVMx is set and
 636:Drivers/STM32U0xx_HAL_Driver/Src/stm32u0xx_hal_pwr_ex.c ****      configure the corresponding EXTI line accordingly. */
 637:Drivers/STM32U0xx_HAL_Driver/Src/stm32u0xx_hal_pwr_ex.c ****   switch (sConfigPVM->PVMType)
 690              		.loc 1 637 3 view .LVU118
 691              		.loc 1 637 21 is_stmt 0 view .LVU119
 692 0002 0368     		ldr	r3, [r0]
 693              		.loc 1 637 3 view .LVU120
 694 0004 202B     		cmp	r3, #32
 695 0006 3ED0     		beq	.L60
 696 0008 402B     		cmp	r3, #64
 697 000a 00D1     		bne	.LCB549
 698 000c 73E0     		b	.L61	@long jump
 699              	.LCB549:
 700 000e 102B     		cmp	r3, #16
 701 0010 01D0     		beq	.L85
 702 0012 0120     		movs	r0, #1
 703              	.LVL24:
 704              	.L62:
 638:Drivers/STM32U0xx_HAL_Driver/Src/stm32u0xx_hal_pwr_ex.c ****   {
 639:Drivers/STM32U0xx_HAL_Driver/Src/stm32u0xx_hal_pwr_ex.c **** #if defined(USB_DRD_FS)
 640:Drivers/STM32U0xx_HAL_Driver/Src/stm32u0xx_hal_pwr_ex.c ****     case PWR_PVM_1:
 641:Drivers/STM32U0xx_HAL_Driver/Src/stm32u0xx_hal_pwr_ex.c ****       /* Clear any previous config. Keep it clear if no event or IT mode is selected */
 642:Drivers/STM32U0xx_HAL_Driver/Src/stm32u0xx_hal_pwr_ex.c ****       __HAL_PWR_PVM1_EXTI_DISABLE_EVENT();
 643:Drivers/STM32U0xx_HAL_Driver/Src/stm32u0xx_hal_pwr_ex.c ****       __HAL_PWR_PVM1_EXTI_DISABLE_IT();
 644:Drivers/STM32U0xx_HAL_Driver/Src/stm32u0xx_hal_pwr_ex.c ****       __HAL_PWR_PVM1_EXTI_DISABLE_FALLING_EDGE();
 645:Drivers/STM32U0xx_HAL_Driver/Src/stm32u0xx_hal_pwr_ex.c ****       __HAL_PWR_PVM1_EXTI_DISABLE_RISING_EDGE();
 646:Drivers/STM32U0xx_HAL_Driver/Src/stm32u0xx_hal_pwr_ex.c **** 
 647:Drivers/STM32U0xx_HAL_Driver/Src/stm32u0xx_hal_pwr_ex.c ****       /* Configure interrupt mode */
 648:Drivers/STM32U0xx_HAL_Driver/Src/stm32u0xx_hal_pwr_ex.c ****       if ((sConfigPVM->Mode & PVM_MODE_IT) == PVM_MODE_IT)
 649:Drivers/STM32U0xx_HAL_Driver/Src/stm32u0xx_hal_pwr_ex.c ****       {
 650:Drivers/STM32U0xx_HAL_Driver/Src/stm32u0xx_hal_pwr_ex.c ****         __HAL_PWR_PVM1_EXTI_ENABLE_IT();
 651:Drivers/STM32U0xx_HAL_Driver/Src/stm32u0xx_hal_pwr_ex.c ****       }
 652:Drivers/STM32U0xx_HAL_Driver/Src/stm32u0xx_hal_pwr_ex.c **** 
 653:Drivers/STM32U0xx_HAL_Driver/Src/stm32u0xx_hal_pwr_ex.c ****       /* Configure event mode */
ARM GAS  C:\Users\upo\AppData\Local\Temp\ccTc2A2n.s 			page 25


 654:Drivers/STM32U0xx_HAL_Driver/Src/stm32u0xx_hal_pwr_ex.c ****       if ((sConfigPVM->Mode & PVM_MODE_EVT) == PVM_MODE_EVT)
 655:Drivers/STM32U0xx_HAL_Driver/Src/stm32u0xx_hal_pwr_ex.c ****       {
 656:Drivers/STM32U0xx_HAL_Driver/Src/stm32u0xx_hal_pwr_ex.c ****         __HAL_PWR_PVM1_EXTI_ENABLE_EVENT();
 657:Drivers/STM32U0xx_HAL_Driver/Src/stm32u0xx_hal_pwr_ex.c ****       }
 658:Drivers/STM32U0xx_HAL_Driver/Src/stm32u0xx_hal_pwr_ex.c **** 
 659:Drivers/STM32U0xx_HAL_Driver/Src/stm32u0xx_hal_pwr_ex.c ****       /* Configure the edge */
 660:Drivers/STM32U0xx_HAL_Driver/Src/stm32u0xx_hal_pwr_ex.c ****       if ((sConfigPVM->Mode & PVM_RISING_EDGE) == PVM_RISING_EDGE)
 661:Drivers/STM32U0xx_HAL_Driver/Src/stm32u0xx_hal_pwr_ex.c ****       {
 662:Drivers/STM32U0xx_HAL_Driver/Src/stm32u0xx_hal_pwr_ex.c ****         __HAL_PWR_PVM1_EXTI_ENABLE_RISING_EDGE();
 663:Drivers/STM32U0xx_HAL_Driver/Src/stm32u0xx_hal_pwr_ex.c ****       }
 664:Drivers/STM32U0xx_HAL_Driver/Src/stm32u0xx_hal_pwr_ex.c **** 
 665:Drivers/STM32U0xx_HAL_Driver/Src/stm32u0xx_hal_pwr_ex.c ****       if ((sConfigPVM->Mode & PVM_FALLING_EDGE) == PVM_FALLING_EDGE)
 666:Drivers/STM32U0xx_HAL_Driver/Src/stm32u0xx_hal_pwr_ex.c ****       {
 667:Drivers/STM32U0xx_HAL_Driver/Src/stm32u0xx_hal_pwr_ex.c ****         __HAL_PWR_PVM1_EXTI_ENABLE_FALLING_EDGE();
 668:Drivers/STM32U0xx_HAL_Driver/Src/stm32u0xx_hal_pwr_ex.c ****       }
 669:Drivers/STM32U0xx_HAL_Driver/Src/stm32u0xx_hal_pwr_ex.c ****       break;
 670:Drivers/STM32U0xx_HAL_Driver/Src/stm32u0xx_hal_pwr_ex.c **** #endif /* USB_DRD_FS */
 671:Drivers/STM32U0xx_HAL_Driver/Src/stm32u0xx_hal_pwr_ex.c ****     case PWR_PVM_3:
 672:Drivers/STM32U0xx_HAL_Driver/Src/stm32u0xx_hal_pwr_ex.c ****       /* Clear any previous config. Keep it clear if no event or IT mode is selected */
 673:Drivers/STM32U0xx_HAL_Driver/Src/stm32u0xx_hal_pwr_ex.c ****       __HAL_PWR_PVM3_EXTI_DISABLE_EVENT();
 674:Drivers/STM32U0xx_HAL_Driver/Src/stm32u0xx_hal_pwr_ex.c ****       __HAL_PWR_PVM3_EXTI_DISABLE_IT();
 675:Drivers/STM32U0xx_HAL_Driver/Src/stm32u0xx_hal_pwr_ex.c ****       __HAL_PWR_PVM3_EXTI_DISABLE_FALLING_EDGE();
 676:Drivers/STM32U0xx_HAL_Driver/Src/stm32u0xx_hal_pwr_ex.c ****       __HAL_PWR_PVM3_EXTI_DISABLE_RISING_EDGE();
 677:Drivers/STM32U0xx_HAL_Driver/Src/stm32u0xx_hal_pwr_ex.c **** 
 678:Drivers/STM32U0xx_HAL_Driver/Src/stm32u0xx_hal_pwr_ex.c ****       /* Configure interrupt mode */
 679:Drivers/STM32U0xx_HAL_Driver/Src/stm32u0xx_hal_pwr_ex.c ****       if ((sConfigPVM->Mode & PVM_MODE_IT) == PVM_MODE_IT)
 680:Drivers/STM32U0xx_HAL_Driver/Src/stm32u0xx_hal_pwr_ex.c ****       {
 681:Drivers/STM32U0xx_HAL_Driver/Src/stm32u0xx_hal_pwr_ex.c ****         __HAL_PWR_PVM3_EXTI_ENABLE_IT();
 682:Drivers/STM32U0xx_HAL_Driver/Src/stm32u0xx_hal_pwr_ex.c ****       }
 683:Drivers/STM32U0xx_HAL_Driver/Src/stm32u0xx_hal_pwr_ex.c **** 
 684:Drivers/STM32U0xx_HAL_Driver/Src/stm32u0xx_hal_pwr_ex.c ****       /* Configure event mode */
 685:Drivers/STM32U0xx_HAL_Driver/Src/stm32u0xx_hal_pwr_ex.c ****       if ((sConfigPVM->Mode & PVM_MODE_EVT) == PVM_MODE_EVT)
 686:Drivers/STM32U0xx_HAL_Driver/Src/stm32u0xx_hal_pwr_ex.c ****       {
 687:Drivers/STM32U0xx_HAL_Driver/Src/stm32u0xx_hal_pwr_ex.c ****         __HAL_PWR_PVM3_EXTI_ENABLE_EVENT();
 688:Drivers/STM32U0xx_HAL_Driver/Src/stm32u0xx_hal_pwr_ex.c ****       }
 689:Drivers/STM32U0xx_HAL_Driver/Src/stm32u0xx_hal_pwr_ex.c **** 
 690:Drivers/STM32U0xx_HAL_Driver/Src/stm32u0xx_hal_pwr_ex.c ****       /* Configure the edge */
 691:Drivers/STM32U0xx_HAL_Driver/Src/stm32u0xx_hal_pwr_ex.c ****       if ((sConfigPVM->Mode & PVM_RISING_EDGE) == PVM_RISING_EDGE)
 692:Drivers/STM32U0xx_HAL_Driver/Src/stm32u0xx_hal_pwr_ex.c ****       {
 693:Drivers/STM32U0xx_HAL_Driver/Src/stm32u0xx_hal_pwr_ex.c ****         __HAL_PWR_PVM3_EXTI_ENABLE_RISING_EDGE();
 694:Drivers/STM32U0xx_HAL_Driver/Src/stm32u0xx_hal_pwr_ex.c ****       }
 695:Drivers/STM32U0xx_HAL_Driver/Src/stm32u0xx_hal_pwr_ex.c **** 
 696:Drivers/STM32U0xx_HAL_Driver/Src/stm32u0xx_hal_pwr_ex.c ****       if ((sConfigPVM->Mode & PVM_FALLING_EDGE) == PVM_FALLING_EDGE)
 697:Drivers/STM32U0xx_HAL_Driver/Src/stm32u0xx_hal_pwr_ex.c ****       {
 698:Drivers/STM32U0xx_HAL_Driver/Src/stm32u0xx_hal_pwr_ex.c ****         __HAL_PWR_PVM3_EXTI_ENABLE_FALLING_EDGE();
 699:Drivers/STM32U0xx_HAL_Driver/Src/stm32u0xx_hal_pwr_ex.c ****       }
 700:Drivers/STM32U0xx_HAL_Driver/Src/stm32u0xx_hal_pwr_ex.c ****       break;
 701:Drivers/STM32U0xx_HAL_Driver/Src/stm32u0xx_hal_pwr_ex.c ****     case PWR_PVM_4:
 702:Drivers/STM32U0xx_HAL_Driver/Src/stm32u0xx_hal_pwr_ex.c ****       /* Clear any previous config. Keep it clear if no event or IT mode is selected */
 703:Drivers/STM32U0xx_HAL_Driver/Src/stm32u0xx_hal_pwr_ex.c ****       __HAL_PWR_PVM4_EXTI_DISABLE_EVENT();
 704:Drivers/STM32U0xx_HAL_Driver/Src/stm32u0xx_hal_pwr_ex.c ****       __HAL_PWR_PVM4_EXTI_DISABLE_IT();
 705:Drivers/STM32U0xx_HAL_Driver/Src/stm32u0xx_hal_pwr_ex.c ****       __HAL_PWR_PVM4_EXTI_DISABLE_FALLING_EDGE();
 706:Drivers/STM32U0xx_HAL_Driver/Src/stm32u0xx_hal_pwr_ex.c ****       __HAL_PWR_PVM4_EXTI_DISABLE_RISING_EDGE();
 707:Drivers/STM32U0xx_HAL_Driver/Src/stm32u0xx_hal_pwr_ex.c **** 
 708:Drivers/STM32U0xx_HAL_Driver/Src/stm32u0xx_hal_pwr_ex.c ****       /* Configure interrupt mode */
 709:Drivers/STM32U0xx_HAL_Driver/Src/stm32u0xx_hal_pwr_ex.c ****       if ((sConfigPVM->Mode & PVM_MODE_IT) == PVM_MODE_IT)
 710:Drivers/STM32U0xx_HAL_Driver/Src/stm32u0xx_hal_pwr_ex.c ****       {
ARM GAS  C:\Users\upo\AppData\Local\Temp\ccTc2A2n.s 			page 26


 711:Drivers/STM32U0xx_HAL_Driver/Src/stm32u0xx_hal_pwr_ex.c ****         __HAL_PWR_PVM4_EXTI_ENABLE_IT();
 712:Drivers/STM32U0xx_HAL_Driver/Src/stm32u0xx_hal_pwr_ex.c ****       }
 713:Drivers/STM32U0xx_HAL_Driver/Src/stm32u0xx_hal_pwr_ex.c **** 
 714:Drivers/STM32U0xx_HAL_Driver/Src/stm32u0xx_hal_pwr_ex.c ****       /* Configure event mode */
 715:Drivers/STM32U0xx_HAL_Driver/Src/stm32u0xx_hal_pwr_ex.c ****       if ((sConfigPVM->Mode & PVM_MODE_EVT) == PVM_MODE_EVT)
 716:Drivers/STM32U0xx_HAL_Driver/Src/stm32u0xx_hal_pwr_ex.c ****       {
 717:Drivers/STM32U0xx_HAL_Driver/Src/stm32u0xx_hal_pwr_ex.c ****         __HAL_PWR_PVM4_EXTI_ENABLE_EVENT();
 718:Drivers/STM32U0xx_HAL_Driver/Src/stm32u0xx_hal_pwr_ex.c ****       }
 719:Drivers/STM32U0xx_HAL_Driver/Src/stm32u0xx_hal_pwr_ex.c **** 
 720:Drivers/STM32U0xx_HAL_Driver/Src/stm32u0xx_hal_pwr_ex.c ****       /* Configure the edge */
 721:Drivers/STM32U0xx_HAL_Driver/Src/stm32u0xx_hal_pwr_ex.c ****       if ((sConfigPVM->Mode & PVM_RISING_EDGE) == PVM_RISING_EDGE)
 722:Drivers/STM32U0xx_HAL_Driver/Src/stm32u0xx_hal_pwr_ex.c ****       {
 723:Drivers/STM32U0xx_HAL_Driver/Src/stm32u0xx_hal_pwr_ex.c ****         __HAL_PWR_PVM4_EXTI_ENABLE_RISING_EDGE();
 724:Drivers/STM32U0xx_HAL_Driver/Src/stm32u0xx_hal_pwr_ex.c ****       }
 725:Drivers/STM32U0xx_HAL_Driver/Src/stm32u0xx_hal_pwr_ex.c **** 
 726:Drivers/STM32U0xx_HAL_Driver/Src/stm32u0xx_hal_pwr_ex.c ****       if ((sConfigPVM->Mode & PVM_FALLING_EDGE) == PVM_FALLING_EDGE)
 727:Drivers/STM32U0xx_HAL_Driver/Src/stm32u0xx_hal_pwr_ex.c ****       {
 728:Drivers/STM32U0xx_HAL_Driver/Src/stm32u0xx_hal_pwr_ex.c ****         __HAL_PWR_PVM4_EXTI_ENABLE_FALLING_EDGE();
 729:Drivers/STM32U0xx_HAL_Driver/Src/stm32u0xx_hal_pwr_ex.c ****       }
 730:Drivers/STM32U0xx_HAL_Driver/Src/stm32u0xx_hal_pwr_ex.c ****       break;
 731:Drivers/STM32U0xx_HAL_Driver/Src/stm32u0xx_hal_pwr_ex.c **** 
 732:Drivers/STM32U0xx_HAL_Driver/Src/stm32u0xx_hal_pwr_ex.c ****     default:
 733:Drivers/STM32U0xx_HAL_Driver/Src/stm32u0xx_hal_pwr_ex.c ****       status = HAL_ERROR;
 734:Drivers/STM32U0xx_HAL_Driver/Src/stm32u0xx_hal_pwr_ex.c ****       break;
 735:Drivers/STM32U0xx_HAL_Driver/Src/stm32u0xx_hal_pwr_ex.c ****   }
 736:Drivers/STM32U0xx_HAL_Driver/Src/stm32u0xx_hal_pwr_ex.c **** 
 737:Drivers/STM32U0xx_HAL_Driver/Src/stm32u0xx_hal_pwr_ex.c ****   return status;
 705              		.loc 1 737 3 is_stmt 1 view .LVU121
 738:Drivers/STM32U0xx_HAL_Driver/Src/stm32u0xx_hal_pwr_ex.c **** }
 706              		.loc 1 738 1 is_stmt 0 view .LVU122
 707              		@ sp needed
 708 0014 10BD     		pop	{r4, pc}
 709              	.LVL25:
 710              	.L85:
 642:Drivers/STM32U0xx_HAL_Driver/Src/stm32u0xx_hal_pwr_ex.c ****       __HAL_PWR_PVM1_EXTI_DISABLE_IT();
 711              		.loc 1 642 7 is_stmt 1 view .LVU123
 712 0016 574B     		ldr	r3, .L86
 713 0018 8424     		movs	r4, #132
 714 001a 1959     		ldr	r1, [r3, r4]
 715 001c 564A     		ldr	r2, .L86+4
 716 001e 1140     		ands	r1, r2
 717 0020 1951     		str	r1, [r3, r4]
 643:Drivers/STM32U0xx_HAL_Driver/Src/stm32u0xx_hal_pwr_ex.c ****       __HAL_PWR_PVM1_EXTI_DISABLE_FALLING_EDGE();
 718              		.loc 1 643 7 view .LVU124
 719 0022 043C     		subs	r4, r4, #4
 720 0024 1959     		ldr	r1, [r3, r4]
 721 0026 1140     		ands	r1, r2
 722 0028 1951     		str	r1, [r3, r4]
 644:Drivers/STM32U0xx_HAL_Driver/Src/stm32u0xx_hal_pwr_ex.c ****       __HAL_PWR_PVM1_EXTI_DISABLE_RISING_EDGE();
 723              		.loc 1 644 7 view .LVU125
 724 002a 5968     		ldr	r1, [r3, #4]
 725 002c 1140     		ands	r1, r2
 726 002e 5960     		str	r1, [r3, #4]
 645:Drivers/STM32U0xx_HAL_Driver/Src/stm32u0xx_hal_pwr_ex.c **** 
 727              		.loc 1 645 7 view .LVU126
 728 0030 1968     		ldr	r1, [r3]
 729 0032 0A40     		ands	r2, r1
ARM GAS  C:\Users\upo\AppData\Local\Temp\ccTc2A2n.s 			page 27


 730 0034 1A60     		str	r2, [r3]
 648:Drivers/STM32U0xx_HAL_Driver/Src/stm32u0xx_hal_pwr_ex.c ****       {
 731              		.loc 1 648 7 view .LVU127
 648:Drivers/STM32U0xx_HAL_Driver/Src/stm32u0xx_hal_pwr_ex.c ****       {
 732              		.loc 1 648 22 is_stmt 0 view .LVU128
 733 0036 4368     		ldr	r3, [r0, #4]
 648:Drivers/STM32U0xx_HAL_Driver/Src/stm32u0xx_hal_pwr_ex.c ****       {
 734              		.loc 1 648 10 view .LVU129
 735 0038 DB03     		lsls	r3, r3, #15
 736 003a 06D5     		bpl	.L63
 650:Drivers/STM32U0xx_HAL_Driver/Src/stm32u0xx_hal_pwr_ex.c ****       }
 737              		.loc 1 650 9 is_stmt 1 view .LVU130
 738 003c 4D49     		ldr	r1, .L86
 739 003e 8022     		movs	r2, #128
 740 0040 8C58     		ldr	r4, [r1, r2]
 741 0042 8023     		movs	r3, #128
 742 0044 5B03     		lsls	r3, r3, #13
 743 0046 2343     		orrs	r3, r4
 744 0048 8B50     		str	r3, [r1, r2]
 745              	.L63:
 654:Drivers/STM32U0xx_HAL_Driver/Src/stm32u0xx_hal_pwr_ex.c ****       {
 746              		.loc 1 654 7 view .LVU131
 654:Drivers/STM32U0xx_HAL_Driver/Src/stm32u0xx_hal_pwr_ex.c ****       {
 747              		.loc 1 654 22 is_stmt 0 view .LVU132
 748 004a 4368     		ldr	r3, [r0, #4]
 654:Drivers/STM32U0xx_HAL_Driver/Src/stm32u0xx_hal_pwr_ex.c ****       {
 749              		.loc 1 654 10 view .LVU133
 750 004c 9B03     		lsls	r3, r3, #14
 751 004e 06D5     		bpl	.L64
 656:Drivers/STM32U0xx_HAL_Driver/Src/stm32u0xx_hal_pwr_ex.c ****       }
 752              		.loc 1 656 9 is_stmt 1 view .LVU134
 753 0050 4849     		ldr	r1, .L86
 754 0052 8422     		movs	r2, #132
 755 0054 8C58     		ldr	r4, [r1, r2]
 756 0056 8023     		movs	r3, #128
 757 0058 5B03     		lsls	r3, r3, #13
 758 005a 2343     		orrs	r3, r4
 759 005c 8B50     		str	r3, [r1, r2]
 760              	.L64:
 660:Drivers/STM32U0xx_HAL_Driver/Src/stm32u0xx_hal_pwr_ex.c ****       {
 761              		.loc 1 660 7 view .LVU135
 660:Drivers/STM32U0xx_HAL_Driver/Src/stm32u0xx_hal_pwr_ex.c ****       {
 762              		.loc 1 660 22 is_stmt 0 view .LVU136
 763 005e 4368     		ldr	r3, [r0, #4]
 660:Drivers/STM32U0xx_HAL_Driver/Src/stm32u0xx_hal_pwr_ex.c ****       {
 764              		.loc 1 660 10 view .LVU137
 765 0060 DB07     		lsls	r3, r3, #31
 766 0062 05D5     		bpl	.L65
 662:Drivers/STM32U0xx_HAL_Driver/Src/stm32u0xx_hal_pwr_ex.c ****       }
 767              		.loc 1 662 9 is_stmt 1 view .LVU138
 768 0064 434A     		ldr	r2, .L86
 769 0066 1168     		ldr	r1, [r2]
 770 0068 8023     		movs	r3, #128
 771 006a 5B03     		lsls	r3, r3, #13
 772 006c 0B43     		orrs	r3, r1
 773 006e 1360     		str	r3, [r2]
 774              	.L65:
ARM GAS  C:\Users\upo\AppData\Local\Temp\ccTc2A2n.s 			page 28


 665:Drivers/STM32U0xx_HAL_Driver/Src/stm32u0xx_hal_pwr_ex.c ****       {
 775              		.loc 1 665 7 view .LVU139
 665:Drivers/STM32U0xx_HAL_Driver/Src/stm32u0xx_hal_pwr_ex.c ****       {
 776              		.loc 1 665 22 is_stmt 0 view .LVU140
 777 0070 4368     		ldr	r3, [r0, #4]
 665:Drivers/STM32U0xx_HAL_Driver/Src/stm32u0xx_hal_pwr_ex.c ****       {
 778              		.loc 1 665 10 view .LVU141
 779 0072 9B07     		lsls	r3, r3, #30
 780 0074 77D5     		bpl	.L73
 667:Drivers/STM32U0xx_HAL_Driver/Src/stm32u0xx_hal_pwr_ex.c ****       }
 781              		.loc 1 667 9 is_stmt 1 view .LVU142
 782 0076 3F4A     		ldr	r2, .L86
 783 0078 5168     		ldr	r1, [r2, #4]
 784 007a 8023     		movs	r3, #128
 785 007c 5B03     		lsls	r3, r3, #13
 786 007e 0B43     		orrs	r3, r1
 787 0080 5360     		str	r3, [r2, #4]
 628:Drivers/STM32U0xx_HAL_Driver/Src/stm32u0xx_hal_pwr_ex.c **** 
 788              		.loc 1 628 21 is_stmt 0 view .LVU143
 789 0082 0020     		movs	r0, #0
 790              	.LVL26:
 628:Drivers/STM32U0xx_HAL_Driver/Src/stm32u0xx_hal_pwr_ex.c **** 
 791              		.loc 1 628 21 view .LVU144
 792 0084 C6E7     		b	.L62
 793              	.LVL27:
 794              	.L60:
 673:Drivers/STM32U0xx_HAL_Driver/Src/stm32u0xx_hal_pwr_ex.c ****       __HAL_PWR_PVM3_EXTI_DISABLE_IT();
 795              		.loc 1 673 7 is_stmt 1 view .LVU145
 796 0086 3B4B     		ldr	r3, .L86
 797 0088 8424     		movs	r4, #132
 798 008a 1959     		ldr	r1, [r3, r4]
 799 008c 3B4A     		ldr	r2, .L86+8
 800 008e 1140     		ands	r1, r2
 801 0090 1951     		str	r1, [r3, r4]
 674:Drivers/STM32U0xx_HAL_Driver/Src/stm32u0xx_hal_pwr_ex.c ****       __HAL_PWR_PVM3_EXTI_DISABLE_FALLING_EDGE();
 802              		.loc 1 674 7 view .LVU146
 803 0092 043C     		subs	r4, r4, #4
 804 0094 1959     		ldr	r1, [r3, r4]
 805 0096 1140     		ands	r1, r2
 806 0098 1951     		str	r1, [r3, r4]
 675:Drivers/STM32U0xx_HAL_Driver/Src/stm32u0xx_hal_pwr_ex.c ****       __HAL_PWR_PVM3_EXTI_DISABLE_RISING_EDGE();
 807              		.loc 1 675 7 view .LVU147
 808 009a 5968     		ldr	r1, [r3, #4]
 809 009c 1140     		ands	r1, r2
 810 009e 5960     		str	r1, [r3, #4]
 676:Drivers/STM32U0xx_HAL_Driver/Src/stm32u0xx_hal_pwr_ex.c **** 
 811              		.loc 1 676 7 view .LVU148
 812 00a0 1968     		ldr	r1, [r3]
 813 00a2 0A40     		ands	r2, r1
 814 00a4 1A60     		str	r2, [r3]
 679:Drivers/STM32U0xx_HAL_Driver/Src/stm32u0xx_hal_pwr_ex.c ****       {
 815              		.loc 1 679 7 view .LVU149
 679:Drivers/STM32U0xx_HAL_Driver/Src/stm32u0xx_hal_pwr_ex.c ****       {
 816              		.loc 1 679 22 is_stmt 0 view .LVU150
 817 00a6 4368     		ldr	r3, [r0, #4]
 679:Drivers/STM32U0xx_HAL_Driver/Src/stm32u0xx_hal_pwr_ex.c ****       {
 818              		.loc 1 679 10 view .LVU151
ARM GAS  C:\Users\upo\AppData\Local\Temp\ccTc2A2n.s 			page 29


 819 00a8 DB03     		lsls	r3, r3, #15
 820 00aa 06D5     		bpl	.L66
 681:Drivers/STM32U0xx_HAL_Driver/Src/stm32u0xx_hal_pwr_ex.c ****       }
 821              		.loc 1 681 9 is_stmt 1 view .LVU152
 822 00ac 3149     		ldr	r1, .L86
 823 00ae 8022     		movs	r2, #128
 824 00b0 8C58     		ldr	r4, [r1, r2]
 825 00b2 8023     		movs	r3, #128
 826 00b4 9B03     		lsls	r3, r3, #14
 827 00b6 2343     		orrs	r3, r4
 828 00b8 8B50     		str	r3, [r1, r2]
 829              	.L66:
 685:Drivers/STM32U0xx_HAL_Driver/Src/stm32u0xx_hal_pwr_ex.c ****       {
 830              		.loc 1 685 7 view .LVU153
 685:Drivers/STM32U0xx_HAL_Driver/Src/stm32u0xx_hal_pwr_ex.c ****       {
 831              		.loc 1 685 22 is_stmt 0 view .LVU154
 832 00ba 4368     		ldr	r3, [r0, #4]
 685:Drivers/STM32U0xx_HAL_Driver/Src/stm32u0xx_hal_pwr_ex.c ****       {
 833              		.loc 1 685 10 view .LVU155
 834 00bc 9B03     		lsls	r3, r3, #14
 835 00be 06D5     		bpl	.L67
 687:Drivers/STM32U0xx_HAL_Driver/Src/stm32u0xx_hal_pwr_ex.c ****       }
 836              		.loc 1 687 9 is_stmt 1 view .LVU156
 837 00c0 2C49     		ldr	r1, .L86
 838 00c2 8422     		movs	r2, #132
 839 00c4 8C58     		ldr	r4, [r1, r2]
 840 00c6 8023     		movs	r3, #128
 841 00c8 9B03     		lsls	r3, r3, #14
 842 00ca 2343     		orrs	r3, r4
 843 00cc 8B50     		str	r3, [r1, r2]
 844              	.L67:
 691:Drivers/STM32U0xx_HAL_Driver/Src/stm32u0xx_hal_pwr_ex.c ****       {
 845              		.loc 1 691 7 view .LVU157
 691:Drivers/STM32U0xx_HAL_Driver/Src/stm32u0xx_hal_pwr_ex.c ****       {
 846              		.loc 1 691 22 is_stmt 0 view .LVU158
 847 00ce 4368     		ldr	r3, [r0, #4]
 691:Drivers/STM32U0xx_HAL_Driver/Src/stm32u0xx_hal_pwr_ex.c ****       {
 848              		.loc 1 691 10 view .LVU159
 849 00d0 DB07     		lsls	r3, r3, #31
 850 00d2 05D5     		bpl	.L68
 693:Drivers/STM32U0xx_HAL_Driver/Src/stm32u0xx_hal_pwr_ex.c ****       }
 851              		.loc 1 693 9 is_stmt 1 view .LVU160
 852 00d4 274A     		ldr	r2, .L86
 853 00d6 1168     		ldr	r1, [r2]
 854 00d8 8023     		movs	r3, #128
 855 00da 9B03     		lsls	r3, r3, #14
 856 00dc 0B43     		orrs	r3, r1
 857 00de 1360     		str	r3, [r2]
 858              	.L68:
 696:Drivers/STM32U0xx_HAL_Driver/Src/stm32u0xx_hal_pwr_ex.c ****       {
 859              		.loc 1 696 7 view .LVU161
 696:Drivers/STM32U0xx_HAL_Driver/Src/stm32u0xx_hal_pwr_ex.c ****       {
 860              		.loc 1 696 22 is_stmt 0 view .LVU162
 861 00e0 4368     		ldr	r3, [r0, #4]
 696:Drivers/STM32U0xx_HAL_Driver/Src/stm32u0xx_hal_pwr_ex.c ****       {
 862              		.loc 1 696 10 view .LVU163
 863 00e2 9B07     		lsls	r3, r3, #30
ARM GAS  C:\Users\upo\AppData\Local\Temp\ccTc2A2n.s 			page 30


 864 00e4 41D5     		bpl	.L74
 698:Drivers/STM32U0xx_HAL_Driver/Src/stm32u0xx_hal_pwr_ex.c ****       }
 865              		.loc 1 698 9 is_stmt 1 view .LVU164
 866 00e6 234A     		ldr	r2, .L86
 867 00e8 5168     		ldr	r1, [r2, #4]
 868 00ea 8023     		movs	r3, #128
 869 00ec 9B03     		lsls	r3, r3, #14
 870 00ee 0B43     		orrs	r3, r1
 871 00f0 5360     		str	r3, [r2, #4]
 628:Drivers/STM32U0xx_HAL_Driver/Src/stm32u0xx_hal_pwr_ex.c **** 
 872              		.loc 1 628 21 is_stmt 0 view .LVU165
 873 00f2 0020     		movs	r0, #0
 874              	.LVL28:
 628:Drivers/STM32U0xx_HAL_Driver/Src/stm32u0xx_hal_pwr_ex.c **** 
 875              		.loc 1 628 21 view .LVU166
 876 00f4 8EE7     		b	.L62
 877              	.LVL29:
 878              	.L61:
 703:Drivers/STM32U0xx_HAL_Driver/Src/stm32u0xx_hal_pwr_ex.c ****       __HAL_PWR_PVM4_EXTI_DISABLE_IT();
 879              		.loc 1 703 7 is_stmt 1 view .LVU167
 880 00f6 1F4B     		ldr	r3, .L86
 881 00f8 8424     		movs	r4, #132
 882 00fa 1959     		ldr	r1, [r3, r4]
 883 00fc 204A     		ldr	r2, .L86+12
 884 00fe 1140     		ands	r1, r2
 885 0100 1951     		str	r1, [r3, r4]
 704:Drivers/STM32U0xx_HAL_Driver/Src/stm32u0xx_hal_pwr_ex.c ****       __HAL_PWR_PVM4_EXTI_DISABLE_FALLING_EDGE();
 886              		.loc 1 704 7 view .LVU168
 887 0102 043C     		subs	r4, r4, #4
 888 0104 1959     		ldr	r1, [r3, r4]
 889 0106 1140     		ands	r1, r2
 890 0108 1951     		str	r1, [r3, r4]
 705:Drivers/STM32U0xx_HAL_Driver/Src/stm32u0xx_hal_pwr_ex.c ****       __HAL_PWR_PVM4_EXTI_DISABLE_RISING_EDGE();
 891              		.loc 1 705 7 view .LVU169
 892 010a 5968     		ldr	r1, [r3, #4]
 893 010c 1140     		ands	r1, r2
 894 010e 5960     		str	r1, [r3, #4]
 706:Drivers/STM32U0xx_HAL_Driver/Src/stm32u0xx_hal_pwr_ex.c **** 
 895              		.loc 1 706 7 view .LVU170
 896 0110 1968     		ldr	r1, [r3]
 897 0112 0A40     		ands	r2, r1
 898 0114 1A60     		str	r2, [r3]
 709:Drivers/STM32U0xx_HAL_Driver/Src/stm32u0xx_hal_pwr_ex.c ****       {
 899              		.loc 1 709 7 view .LVU171
 709:Drivers/STM32U0xx_HAL_Driver/Src/stm32u0xx_hal_pwr_ex.c ****       {
 900              		.loc 1 709 22 is_stmt 0 view .LVU172
 901 0116 4368     		ldr	r3, [r0, #4]
 709:Drivers/STM32U0xx_HAL_Driver/Src/stm32u0xx_hal_pwr_ex.c ****       {
 902              		.loc 1 709 10 view .LVU173
 903 0118 DB03     		lsls	r3, r3, #15
 904 011a 06D5     		bpl	.L69
 711:Drivers/STM32U0xx_HAL_Driver/Src/stm32u0xx_hal_pwr_ex.c ****       }
 905              		.loc 1 711 9 is_stmt 1 view .LVU174
 906 011c 1549     		ldr	r1, .L86
 907 011e 8022     		movs	r2, #128
 908 0120 8C58     		ldr	r4, [r1, r2]
 909 0122 8023     		movs	r3, #128
ARM GAS  C:\Users\upo\AppData\Local\Temp\ccTc2A2n.s 			page 31


 910 0124 DB03     		lsls	r3, r3, #15
 911 0126 2343     		orrs	r3, r4
 912 0128 8B50     		str	r3, [r1, r2]
 913              	.L69:
 715:Drivers/STM32U0xx_HAL_Driver/Src/stm32u0xx_hal_pwr_ex.c ****       {
 914              		.loc 1 715 7 view .LVU175
 715:Drivers/STM32U0xx_HAL_Driver/Src/stm32u0xx_hal_pwr_ex.c ****       {
 915              		.loc 1 715 22 is_stmt 0 view .LVU176
 916 012a 4368     		ldr	r3, [r0, #4]
 715:Drivers/STM32U0xx_HAL_Driver/Src/stm32u0xx_hal_pwr_ex.c ****       {
 917              		.loc 1 715 10 view .LVU177
 918 012c 9B03     		lsls	r3, r3, #14
 919 012e 06D5     		bpl	.L70
 717:Drivers/STM32U0xx_HAL_Driver/Src/stm32u0xx_hal_pwr_ex.c ****       }
 920              		.loc 1 717 9 is_stmt 1 view .LVU178
 921 0130 1049     		ldr	r1, .L86
 922 0132 8422     		movs	r2, #132
 923 0134 8C58     		ldr	r4, [r1, r2]
 924 0136 8023     		movs	r3, #128
 925 0138 DB03     		lsls	r3, r3, #15
 926 013a 2343     		orrs	r3, r4
 927 013c 8B50     		str	r3, [r1, r2]
 928              	.L70:
 721:Drivers/STM32U0xx_HAL_Driver/Src/stm32u0xx_hal_pwr_ex.c ****       {
 929              		.loc 1 721 7 view .LVU179
 721:Drivers/STM32U0xx_HAL_Driver/Src/stm32u0xx_hal_pwr_ex.c ****       {
 930              		.loc 1 721 22 is_stmt 0 view .LVU180
 931 013e 4368     		ldr	r3, [r0, #4]
 721:Drivers/STM32U0xx_HAL_Driver/Src/stm32u0xx_hal_pwr_ex.c ****       {
 932              		.loc 1 721 10 view .LVU181
 933 0140 DB07     		lsls	r3, r3, #31
 934 0142 05D5     		bpl	.L71
 723:Drivers/STM32U0xx_HAL_Driver/Src/stm32u0xx_hal_pwr_ex.c ****       }
 935              		.loc 1 723 9 is_stmt 1 view .LVU182
 936 0144 0B4A     		ldr	r2, .L86
 937 0146 1168     		ldr	r1, [r2]
 938 0148 8023     		movs	r3, #128
 939 014a DB03     		lsls	r3, r3, #15
 940 014c 0B43     		orrs	r3, r1
 941 014e 1360     		str	r3, [r2]
 942              	.L71:
 726:Drivers/STM32U0xx_HAL_Driver/Src/stm32u0xx_hal_pwr_ex.c ****       {
 943              		.loc 1 726 7 view .LVU183
 726:Drivers/STM32U0xx_HAL_Driver/Src/stm32u0xx_hal_pwr_ex.c ****       {
 944              		.loc 1 726 22 is_stmt 0 view .LVU184
 945 0150 4368     		ldr	r3, [r0, #4]
 726:Drivers/STM32U0xx_HAL_Driver/Src/stm32u0xx_hal_pwr_ex.c ****       {
 946              		.loc 1 726 10 view .LVU185
 947 0152 9B07     		lsls	r3, r3, #30
 948 0154 0BD5     		bpl	.L75
 728:Drivers/STM32U0xx_HAL_Driver/Src/stm32u0xx_hal_pwr_ex.c ****       }
 949              		.loc 1 728 9 is_stmt 1 view .LVU186
 950 0156 074A     		ldr	r2, .L86
 951 0158 5168     		ldr	r1, [r2, #4]
 952 015a 8023     		movs	r3, #128
 953 015c DB03     		lsls	r3, r3, #15
 954 015e 0B43     		orrs	r3, r1
ARM GAS  C:\Users\upo\AppData\Local\Temp\ccTc2A2n.s 			page 32


 955 0160 5360     		str	r3, [r2, #4]
 628:Drivers/STM32U0xx_HAL_Driver/Src/stm32u0xx_hal_pwr_ex.c **** 
 956              		.loc 1 628 21 is_stmt 0 view .LVU187
 957 0162 0020     		movs	r0, #0
 958              	.LVL30:
 628:Drivers/STM32U0xx_HAL_Driver/Src/stm32u0xx_hal_pwr_ex.c **** 
 959              		.loc 1 628 21 view .LVU188
 960 0164 56E7     		b	.L62
 961              	.LVL31:
 962              	.L73:
 628:Drivers/STM32U0xx_HAL_Driver/Src/stm32u0xx_hal_pwr_ex.c **** 
 963              		.loc 1 628 21 view .LVU189
 964 0166 0020     		movs	r0, #0
 965              	.LVL32:
 628:Drivers/STM32U0xx_HAL_Driver/Src/stm32u0xx_hal_pwr_ex.c **** 
 966              		.loc 1 628 21 view .LVU190
 967 0168 54E7     		b	.L62
 968              	.LVL33:
 969              	.L74:
 628:Drivers/STM32U0xx_HAL_Driver/Src/stm32u0xx_hal_pwr_ex.c **** 
 970              		.loc 1 628 21 view .LVU191
 971 016a 0020     		movs	r0, #0
 972              	.LVL34:
 628:Drivers/STM32U0xx_HAL_Driver/Src/stm32u0xx_hal_pwr_ex.c **** 
 973              		.loc 1 628 21 view .LVU192
 974 016c 52E7     		b	.L62
 975              	.LVL35:
 976              	.L75:
 628:Drivers/STM32U0xx_HAL_Driver/Src/stm32u0xx_hal_pwr_ex.c **** 
 977              		.loc 1 628 21 view .LVU193
 978 016e 0020     		movs	r0, #0
 979              	.LVL36:
 628:Drivers/STM32U0xx_HAL_Driver/Src/stm32u0xx_hal_pwr_ex.c **** 
 980              		.loc 1 628 21 view .LVU194
 981 0170 50E7     		b	.L62
 982              	.L87:
 983 0172 C046     		.align	2
 984              	.L86:
 985 0174 00180240 		.word	1073879040
 986 0178 FFFFEFFF 		.word	-1048577
 987 017c FFFFDFFF 		.word	-2097153
 988 0180 FFFFBFFF 		.word	-4194305
 989              		.cfi_endproc
 990              	.LFE346:
 992              		.section	.text.HAL_PWREx_EnableVddUSB,"ax",%progbits
 993              		.align	1
 994              		.global	HAL_PWREx_EnableVddUSB
 995              		.syntax unified
 996              		.code	16
 997              		.thumb_func
 999              	HAL_PWREx_EnableVddUSB:
 1000              	.LFB347:
 739:Drivers/STM32U0xx_HAL_Driver/Src/stm32u0xx_hal_pwr_ex.c **** 
 740:Drivers/STM32U0xx_HAL_Driver/Src/stm32u0xx_hal_pwr_ex.c **** #if defined(USB_DRD_FS)
 741:Drivers/STM32U0xx_HAL_Driver/Src/stm32u0xx_hal_pwr_ex.c **** /**
 742:Drivers/STM32U0xx_HAL_Driver/Src/stm32u0xx_hal_pwr_ex.c ****   * @brief Enable VDDUSB supply.
 743:Drivers/STM32U0xx_HAL_Driver/Src/stm32u0xx_hal_pwr_ex.c ****   * @note  Remove VDDUSB electrical and logical isolation, once VDDUSB supply is present.
ARM GAS  C:\Users\upo\AppData\Local\Temp\ccTc2A2n.s 			page 33


 744:Drivers/STM32U0xx_HAL_Driver/Src/stm32u0xx_hal_pwr_ex.c ****   * @retval None
 745:Drivers/STM32U0xx_HAL_Driver/Src/stm32u0xx_hal_pwr_ex.c ****   */
 746:Drivers/STM32U0xx_HAL_Driver/Src/stm32u0xx_hal_pwr_ex.c **** void HAL_PWREx_EnableVddUSB(void)
 747:Drivers/STM32U0xx_HAL_Driver/Src/stm32u0xx_hal_pwr_ex.c **** {
 1001              		.loc 1 747 1 is_stmt 1 view -0
 1002              		.cfi_startproc
 1003              		@ args = 0, pretend = 0, frame = 0
 1004              		@ frame_needed = 0, uses_anonymous_args = 0
 1005              		@ link register save eliminated.
 748:Drivers/STM32U0xx_HAL_Driver/Src/stm32u0xx_hal_pwr_ex.c ****   SET_BIT(PWR->CR2, PWR_CR2_USV);
 1006              		.loc 1 748 3 view .LVU196
 1007 0000 034A     		ldr	r2, .L89
 1008 0002 5168     		ldr	r1, [r2, #4]
 1009 0004 8023     		movs	r3, #128
 1010 0006 DB00     		lsls	r3, r3, #3
 1011 0008 0B43     		orrs	r3, r1
 1012 000a 5360     		str	r3, [r2, #4]
 749:Drivers/STM32U0xx_HAL_Driver/Src/stm32u0xx_hal_pwr_ex.c **** }
 1013              		.loc 1 749 1 is_stmt 0 view .LVU197
 1014              		@ sp needed
 1015 000c 7047     		bx	lr
 1016              	.L90:
 1017 000e C046     		.align	2
 1018              	.L89:
 1019 0010 00700040 		.word	1073770496
 1020              		.cfi_endproc
 1021              	.LFE347:
 1023              		.section	.text.HAL_PWREx_DisableVddUSB,"ax",%progbits
 1024              		.align	1
 1025              		.global	HAL_PWREx_DisableVddUSB
 1026              		.syntax unified
 1027              		.code	16
 1028              		.thumb_func
 1030              	HAL_PWREx_DisableVddUSB:
 1031              	.LFB348:
 750:Drivers/STM32U0xx_HAL_Driver/Src/stm32u0xx_hal_pwr_ex.c **** 
 751:Drivers/STM32U0xx_HAL_Driver/Src/stm32u0xx_hal_pwr_ex.c **** /**
 752:Drivers/STM32U0xx_HAL_Driver/Src/stm32u0xx_hal_pwr_ex.c ****   * @brief Disable VDDUSB supply.
 753:Drivers/STM32U0xx_HAL_Driver/Src/stm32u0xx_hal_pwr_ex.c ****   * @retval None
 754:Drivers/STM32U0xx_HAL_Driver/Src/stm32u0xx_hal_pwr_ex.c ****   */
 755:Drivers/STM32U0xx_HAL_Driver/Src/stm32u0xx_hal_pwr_ex.c **** void HAL_PWREx_DisableVddUSB(void)
 756:Drivers/STM32U0xx_HAL_Driver/Src/stm32u0xx_hal_pwr_ex.c **** {
 1032              		.loc 1 756 1 is_stmt 1 view -0
 1033              		.cfi_startproc
 1034              		@ args = 0, pretend = 0, frame = 0
 1035              		@ frame_needed = 0, uses_anonymous_args = 0
 1036              		@ link register save eliminated.
 757:Drivers/STM32U0xx_HAL_Driver/Src/stm32u0xx_hal_pwr_ex.c ****   CLEAR_BIT(PWR->CR2, PWR_CR2_USV);
 1037              		.loc 1 757 3 view .LVU199
 1038 0000 024A     		ldr	r2, .L92
 1039 0002 5368     		ldr	r3, [r2, #4]
 1040 0004 0249     		ldr	r1, .L92+4
 1041 0006 0B40     		ands	r3, r1
 1042 0008 5360     		str	r3, [r2, #4]
 758:Drivers/STM32U0xx_HAL_Driver/Src/stm32u0xx_hal_pwr_ex.c **** }
 1043              		.loc 1 758 1 is_stmt 0 view .LVU200
 1044              		@ sp needed
ARM GAS  C:\Users\upo\AppData\Local\Temp\ccTc2A2n.s 			page 34


 1045 000a 7047     		bx	lr
 1046              	.L93:
 1047              		.align	2
 1048              	.L92:
 1049 000c 00700040 		.word	1073770496
 1050 0010 FFFBFFFF 		.word	-1025
 1051              		.cfi_endproc
 1052              	.LFE348:
 1054              		.section	.text.HAL_PWREx_EnableBatteryCharging,"ax",%progbits
 1055              		.align	1
 1056              		.global	HAL_PWREx_EnableBatteryCharging
 1057              		.syntax unified
 1058              		.code	16
 1059              		.thumb_func
 1061              	HAL_PWREx_EnableBatteryCharging:
 1062              	.LVL37:
 1063              	.LFB349:
 759:Drivers/STM32U0xx_HAL_Driver/Src/stm32u0xx_hal_pwr_ex.c **** #endif /* USB_DRD_FS */
 760:Drivers/STM32U0xx_HAL_Driver/Src/stm32u0xx_hal_pwr_ex.c **** 
 761:Drivers/STM32U0xx_HAL_Driver/Src/stm32u0xx_hal_pwr_ex.c **** /**
 762:Drivers/STM32U0xx_HAL_Driver/Src/stm32u0xx_hal_pwr_ex.c ****   * @brief Enable battery charging.
 763:Drivers/STM32U0xx_HAL_Driver/Src/stm32u0xx_hal_pwr_ex.c ****   *        When VDD is present, charge the external battery on VBAT through an internal resistor.
 764:Drivers/STM32U0xx_HAL_Driver/Src/stm32u0xx_hal_pwr_ex.c ****   * @param  ResistorSelection specifies the resistor impedance.
 765:Drivers/STM32U0xx_HAL_Driver/Src/stm32u0xx_hal_pwr_ex.c ****   *          This parameter can be one of the following values:
 766:Drivers/STM32U0xx_HAL_Driver/Src/stm32u0xx_hal_pwr_ex.c ****   *            @arg @ref PWR_BATTERY_CHARGING_RESISTOR_5     5 kOhms resistor
 767:Drivers/STM32U0xx_HAL_Driver/Src/stm32u0xx_hal_pwr_ex.c ****   *            @arg @ref PWR_BATTERY_CHARGING_RESISTOR_1_5 1.5 kOhms resistor
 768:Drivers/STM32U0xx_HAL_Driver/Src/stm32u0xx_hal_pwr_ex.c ****   * @retval None
 769:Drivers/STM32U0xx_HAL_Driver/Src/stm32u0xx_hal_pwr_ex.c ****   */
 770:Drivers/STM32U0xx_HAL_Driver/Src/stm32u0xx_hal_pwr_ex.c **** void HAL_PWREx_EnableBatteryCharging(uint32_t ResistorSelection)
 771:Drivers/STM32U0xx_HAL_Driver/Src/stm32u0xx_hal_pwr_ex.c **** {
 1064              		.loc 1 771 1 is_stmt 1 view -0
 1065              		.cfi_startproc
 1066              		@ args = 0, pretend = 0, frame = 0
 1067              		@ frame_needed = 0, uses_anonymous_args = 0
 1068              		@ link register save eliminated.
 772:Drivers/STM32U0xx_HAL_Driver/Src/stm32u0xx_hal_pwr_ex.c ****   assert_param(IS_PWR_BATTERY_RESISTOR_SELECT(ResistorSelection));
 1069              		.loc 1 772 3 view .LVU202
 773:Drivers/STM32U0xx_HAL_Driver/Src/stm32u0xx_hal_pwr_ex.c **** 
 774:Drivers/STM32U0xx_HAL_Driver/Src/stm32u0xx_hal_pwr_ex.c ****   /* Specify resistor selection */
 775:Drivers/STM32U0xx_HAL_Driver/Src/stm32u0xx_hal_pwr_ex.c ****   MODIFY_REG(PWR->CR4, PWR_CR4_VBRS, ResistorSelection);
 1070              		.loc 1 775 3 view .LVU203
 1071 0000 054A     		ldr	r2, .L95
 1072 0002 D368     		ldr	r3, [r2, #12]
 1073 0004 0549     		ldr	r1, .L95+4
 1074 0006 0B40     		ands	r3, r1
 1075 0008 0343     		orrs	r3, r0
 1076 000a D360     		str	r3, [r2, #12]
 776:Drivers/STM32U0xx_HAL_Driver/Src/stm32u0xx_hal_pwr_ex.c **** 
 777:Drivers/STM32U0xx_HAL_Driver/Src/stm32u0xx_hal_pwr_ex.c ****   /* Enable battery charging */
 778:Drivers/STM32U0xx_HAL_Driver/Src/stm32u0xx_hal_pwr_ex.c ****   SET_BIT(PWR->CR4, PWR_CR4_VBE);
 1077              		.loc 1 778 3 view .LVU204
 1078 000c D168     		ldr	r1, [r2, #12]
 1079 000e 8023     		movs	r3, #128
 1080 0010 5B00     		lsls	r3, r3, #1
 1081 0012 0B43     		orrs	r3, r1
 1082 0014 D360     		str	r3, [r2, #12]
 779:Drivers/STM32U0xx_HAL_Driver/Src/stm32u0xx_hal_pwr_ex.c **** }
ARM GAS  C:\Users\upo\AppData\Local\Temp\ccTc2A2n.s 			page 35


 1083              		.loc 1 779 1 is_stmt 0 view .LVU205
 1084              		@ sp needed
 1085 0016 7047     		bx	lr
 1086              	.L96:
 1087              		.align	2
 1088              	.L95:
 1089 0018 00700040 		.word	1073770496
 1090 001c FFFDFFFF 		.word	-513
 1091              		.cfi_endproc
 1092              	.LFE349:
 1094              		.section	.text.HAL_PWREx_DisableBatteryCharging,"ax",%progbits
 1095              		.align	1
 1096              		.global	HAL_PWREx_DisableBatteryCharging
 1097              		.syntax unified
 1098              		.code	16
 1099              		.thumb_func
 1101              	HAL_PWREx_DisableBatteryCharging:
 1102              	.LFB350:
 780:Drivers/STM32U0xx_HAL_Driver/Src/stm32u0xx_hal_pwr_ex.c **** 
 781:Drivers/STM32U0xx_HAL_Driver/Src/stm32u0xx_hal_pwr_ex.c **** /**
 782:Drivers/STM32U0xx_HAL_Driver/Src/stm32u0xx_hal_pwr_ex.c ****   * @brief Disable battery charging.
 783:Drivers/STM32U0xx_HAL_Driver/Src/stm32u0xx_hal_pwr_ex.c ****   * @retval None
 784:Drivers/STM32U0xx_HAL_Driver/Src/stm32u0xx_hal_pwr_ex.c ****   */
 785:Drivers/STM32U0xx_HAL_Driver/Src/stm32u0xx_hal_pwr_ex.c **** void HAL_PWREx_DisableBatteryCharging(void)
 786:Drivers/STM32U0xx_HAL_Driver/Src/stm32u0xx_hal_pwr_ex.c **** {
 1103              		.loc 1 786 1 is_stmt 1 view -0
 1104              		.cfi_startproc
 1105              		@ args = 0, pretend = 0, frame = 0
 1106              		@ frame_needed = 0, uses_anonymous_args = 0
 1107              		@ link register save eliminated.
 787:Drivers/STM32U0xx_HAL_Driver/Src/stm32u0xx_hal_pwr_ex.c ****   CLEAR_BIT(PWR->CR4, PWR_CR4_VBE);
 1108              		.loc 1 787 3 view .LVU207
 1109 0000 024A     		ldr	r2, .L98
 1110 0002 D368     		ldr	r3, [r2, #12]
 1111 0004 0249     		ldr	r1, .L98+4
 1112 0006 0B40     		ands	r3, r1
 1113 0008 D360     		str	r3, [r2, #12]
 788:Drivers/STM32U0xx_HAL_Driver/Src/stm32u0xx_hal_pwr_ex.c **** }
 1114              		.loc 1 788 1 is_stmt 0 view .LVU208
 1115              		@ sp needed
 1116 000a 7047     		bx	lr
 1117              	.L99:
 1118              		.align	2
 1119              	.L98:
 1120 000c 00700040 		.word	1073770496
 1121 0010 FFFEFFFF 		.word	-257
 1122              		.cfi_endproc
 1123              	.LFE350:
 1125              		.section	.text.HAL_PWREx_PVM1_Callback,"ax",%progbits
 1126              		.align	1
 1127              		.weak	HAL_PWREx_PVM1_Callback
 1128              		.syntax unified
 1129              		.code	16
 1130              		.thumb_func
 1132              	HAL_PWREx_PVM1_Callback:
 1133              	.LFB352:
 789:Drivers/STM32U0xx_HAL_Driver/Src/stm32u0xx_hal_pwr_ex.c **** /**
ARM GAS  C:\Users\upo\AppData\Local\Temp\ccTc2A2n.s 			page 36


 790:Drivers/STM32U0xx_HAL_Driver/Src/stm32u0xx_hal_pwr_ex.c ****   * @brief This function handles the PWR PVD/PVMx interrupt request.
 791:Drivers/STM32U0xx_HAL_Driver/Src/stm32u0xx_hal_pwr_ex.c ****   * @note This API should be called under the PVD_PVM_IRQHandler().
 792:Drivers/STM32U0xx_HAL_Driver/Src/stm32u0xx_hal_pwr_ex.c ****   * @retval None
 793:Drivers/STM32U0xx_HAL_Driver/Src/stm32u0xx_hal_pwr_ex.c ****   */
 794:Drivers/STM32U0xx_HAL_Driver/Src/stm32u0xx_hal_pwr_ex.c **** void HAL_PWREx_PVD_PVM_IRQHandler(void)
 795:Drivers/STM32U0xx_HAL_Driver/Src/stm32u0xx_hal_pwr_ex.c **** {
 796:Drivers/STM32U0xx_HAL_Driver/Src/stm32u0xx_hal_pwr_ex.c ****   /* Check if the Programmable Voltage Detector is enabled (PVD) */
 797:Drivers/STM32U0xx_HAL_Driver/Src/stm32u0xx_hal_pwr_ex.c ****   if (READ_BIT(PWR->CR2, PWR_CR2_PVDE) != 0U)
 798:Drivers/STM32U0xx_HAL_Driver/Src/stm32u0xx_hal_pwr_ex.c ****   {
 799:Drivers/STM32U0xx_HAL_Driver/Src/stm32u0xx_hal_pwr_ex.c ****     /* Check PWR EXTI Rising flag */
 800:Drivers/STM32U0xx_HAL_Driver/Src/stm32u0xx_hal_pwr_ex.c ****     if (__HAL_PWR_PVD_EXTI_GET_RISING_FLAG() != 0U)
 801:Drivers/STM32U0xx_HAL_Driver/Src/stm32u0xx_hal_pwr_ex.c ****     {
 802:Drivers/STM32U0xx_HAL_Driver/Src/stm32u0xx_hal_pwr_ex.c ****       /* PWR PVD interrupt user callback */
 803:Drivers/STM32U0xx_HAL_Driver/Src/stm32u0xx_hal_pwr_ex.c ****       HAL_PWR_PVDCallback();
 804:Drivers/STM32U0xx_HAL_Driver/Src/stm32u0xx_hal_pwr_ex.c **** 
 805:Drivers/STM32U0xx_HAL_Driver/Src/stm32u0xx_hal_pwr_ex.c ****       /* Clear PWR EXTI pending bit */
 806:Drivers/STM32U0xx_HAL_Driver/Src/stm32u0xx_hal_pwr_ex.c ****       __HAL_PWR_PVD_EXTI_CLEAR_FLAG();
 807:Drivers/STM32U0xx_HAL_Driver/Src/stm32u0xx_hal_pwr_ex.c ****     }
 808:Drivers/STM32U0xx_HAL_Driver/Src/stm32u0xx_hal_pwr_ex.c **** 
 809:Drivers/STM32U0xx_HAL_Driver/Src/stm32u0xx_hal_pwr_ex.c ****     /* Check PWR EXTI Falling flag */
 810:Drivers/STM32U0xx_HAL_Driver/Src/stm32u0xx_hal_pwr_ex.c ****     if (__HAL_PWR_PVD_EXTI_GET_FALLING_FLAG() != 0U)
 811:Drivers/STM32U0xx_HAL_Driver/Src/stm32u0xx_hal_pwr_ex.c ****     {
 812:Drivers/STM32U0xx_HAL_Driver/Src/stm32u0xx_hal_pwr_ex.c ****       /* PWR PVD interrupt user callback */
 813:Drivers/STM32U0xx_HAL_Driver/Src/stm32u0xx_hal_pwr_ex.c ****       HAL_PWR_PVDCallback();
 814:Drivers/STM32U0xx_HAL_Driver/Src/stm32u0xx_hal_pwr_ex.c **** 
 815:Drivers/STM32U0xx_HAL_Driver/Src/stm32u0xx_hal_pwr_ex.c ****       /* Clear PWR EXTI pending bit */
 816:Drivers/STM32U0xx_HAL_Driver/Src/stm32u0xx_hal_pwr_ex.c ****       __HAL_PWR_PVD_EXTI_CLEAR_FLAG();
 817:Drivers/STM32U0xx_HAL_Driver/Src/stm32u0xx_hal_pwr_ex.c ****     }
 818:Drivers/STM32U0xx_HAL_Driver/Src/stm32u0xx_hal_pwr_ex.c ****   }
 819:Drivers/STM32U0xx_HAL_Driver/Src/stm32u0xx_hal_pwr_ex.c **** 
 820:Drivers/STM32U0xx_HAL_Driver/Src/stm32u0xx_hal_pwr_ex.c ****   /* Next, successively check PVMx exti flags */
 821:Drivers/STM32U0xx_HAL_Driver/Src/stm32u0xx_hal_pwr_ex.c **** #if defined(USB_DRD_FS)
 822:Drivers/STM32U0xx_HAL_Driver/Src/stm32u0xx_hal_pwr_ex.c ****   if (READ_BIT(PWR->CR2, PWR_PVM_1) != 0U)
 823:Drivers/STM32U0xx_HAL_Driver/Src/stm32u0xx_hal_pwr_ex.c ****   {
 824:Drivers/STM32U0xx_HAL_Driver/Src/stm32u0xx_hal_pwr_ex.c ****     /* Check PWR EXTI Rising flag */
 825:Drivers/STM32U0xx_HAL_Driver/Src/stm32u0xx_hal_pwr_ex.c ****     if (__HAL_PWR_PVM1_EXTI_GET_RISING_FLAG() != 0U)
 826:Drivers/STM32U0xx_HAL_Driver/Src/stm32u0xx_hal_pwr_ex.c ****     {
 827:Drivers/STM32U0xx_HAL_Driver/Src/stm32u0xx_hal_pwr_ex.c ****       /* PWR PVM interrupt user callback */
 828:Drivers/STM32U0xx_HAL_Driver/Src/stm32u0xx_hal_pwr_ex.c ****       HAL_PWREx_PVM1_Callback();
 829:Drivers/STM32U0xx_HAL_Driver/Src/stm32u0xx_hal_pwr_ex.c **** 
 830:Drivers/STM32U0xx_HAL_Driver/Src/stm32u0xx_hal_pwr_ex.c ****       /* Clear PWR EXTI pending bit */
 831:Drivers/STM32U0xx_HAL_Driver/Src/stm32u0xx_hal_pwr_ex.c ****       __HAL_PWR_PVM1_EXTI_CLEAR_FLAG();
 832:Drivers/STM32U0xx_HAL_Driver/Src/stm32u0xx_hal_pwr_ex.c ****     }
 833:Drivers/STM32U0xx_HAL_Driver/Src/stm32u0xx_hal_pwr_ex.c **** 
 834:Drivers/STM32U0xx_HAL_Driver/Src/stm32u0xx_hal_pwr_ex.c ****     /* Check PWR EXTI Falling flag */
 835:Drivers/STM32U0xx_HAL_Driver/Src/stm32u0xx_hal_pwr_ex.c ****     if (__HAL_PWR_PVM1_EXTI_GET_FALLING_FLAG() != 0U)
 836:Drivers/STM32U0xx_HAL_Driver/Src/stm32u0xx_hal_pwr_ex.c ****     {
 837:Drivers/STM32U0xx_HAL_Driver/Src/stm32u0xx_hal_pwr_ex.c ****       /* PWR PVM USB interrupt user callback */
 838:Drivers/STM32U0xx_HAL_Driver/Src/stm32u0xx_hal_pwr_ex.c ****       HAL_PWREx_PVM1_Callback();
 839:Drivers/STM32U0xx_HAL_Driver/Src/stm32u0xx_hal_pwr_ex.c **** 
 840:Drivers/STM32U0xx_HAL_Driver/Src/stm32u0xx_hal_pwr_ex.c ****       /* Clear PWR EXTI pending bit */
 841:Drivers/STM32U0xx_HAL_Driver/Src/stm32u0xx_hal_pwr_ex.c ****       __HAL_PWR_PVM1_EXTI_CLEAR_FLAG();
 842:Drivers/STM32U0xx_HAL_Driver/Src/stm32u0xx_hal_pwr_ex.c ****     }
 843:Drivers/STM32U0xx_HAL_Driver/Src/stm32u0xx_hal_pwr_ex.c ****   }
 844:Drivers/STM32U0xx_HAL_Driver/Src/stm32u0xx_hal_pwr_ex.c **** #endif /* USB_DRD_FS */
 845:Drivers/STM32U0xx_HAL_Driver/Src/stm32u0xx_hal_pwr_ex.c ****   if (READ_BIT(PWR->CR2, PWR_PVM_3) != 0U)
 846:Drivers/STM32U0xx_HAL_Driver/Src/stm32u0xx_hal_pwr_ex.c ****   {
ARM GAS  C:\Users\upo\AppData\Local\Temp\ccTc2A2n.s 			page 37


 847:Drivers/STM32U0xx_HAL_Driver/Src/stm32u0xx_hal_pwr_ex.c ****     /* Check PWR EXTI Rising flag */
 848:Drivers/STM32U0xx_HAL_Driver/Src/stm32u0xx_hal_pwr_ex.c ****     if (__HAL_PWR_PVM3_EXTI_GET_RISING_FLAG() != 0U)
 849:Drivers/STM32U0xx_HAL_Driver/Src/stm32u0xx_hal_pwr_ex.c ****     {
 850:Drivers/STM32U0xx_HAL_Driver/Src/stm32u0xx_hal_pwr_ex.c ****       /* PWR PVM interrupt user callback */
 851:Drivers/STM32U0xx_HAL_Driver/Src/stm32u0xx_hal_pwr_ex.c ****       HAL_PWREx_PVM3_Callback();
 852:Drivers/STM32U0xx_HAL_Driver/Src/stm32u0xx_hal_pwr_ex.c **** 
 853:Drivers/STM32U0xx_HAL_Driver/Src/stm32u0xx_hal_pwr_ex.c ****       /* Clear PWR EXTI pending bit */
 854:Drivers/STM32U0xx_HAL_Driver/Src/stm32u0xx_hal_pwr_ex.c ****       __HAL_PWR_PVM3_EXTI_CLEAR_FLAG();
 855:Drivers/STM32U0xx_HAL_Driver/Src/stm32u0xx_hal_pwr_ex.c ****     }
 856:Drivers/STM32U0xx_HAL_Driver/Src/stm32u0xx_hal_pwr_ex.c **** 
 857:Drivers/STM32U0xx_HAL_Driver/Src/stm32u0xx_hal_pwr_ex.c ****     /* Check PWR EXTI Falling flag */
 858:Drivers/STM32U0xx_HAL_Driver/Src/stm32u0xx_hal_pwr_ex.c ****     if (__HAL_PWR_PVM3_EXTI_GET_FALLING_FLAG() != 0U)
 859:Drivers/STM32U0xx_HAL_Driver/Src/stm32u0xx_hal_pwr_ex.c ****     {
 860:Drivers/STM32U0xx_HAL_Driver/Src/stm32u0xx_hal_pwr_ex.c ****       /* PWR PVM ADC interrupt user callback */
 861:Drivers/STM32U0xx_HAL_Driver/Src/stm32u0xx_hal_pwr_ex.c ****       HAL_PWREx_PVM3_Callback();
 862:Drivers/STM32U0xx_HAL_Driver/Src/stm32u0xx_hal_pwr_ex.c **** 
 863:Drivers/STM32U0xx_HAL_Driver/Src/stm32u0xx_hal_pwr_ex.c ****       /* Clear PWR EXTI pending bit */
 864:Drivers/STM32U0xx_HAL_Driver/Src/stm32u0xx_hal_pwr_ex.c ****       __HAL_PWR_PVM3_EXTI_CLEAR_FLAG();
 865:Drivers/STM32U0xx_HAL_Driver/Src/stm32u0xx_hal_pwr_ex.c ****     }
 866:Drivers/STM32U0xx_HAL_Driver/Src/stm32u0xx_hal_pwr_ex.c ****   }
 867:Drivers/STM32U0xx_HAL_Driver/Src/stm32u0xx_hal_pwr_ex.c **** 
 868:Drivers/STM32U0xx_HAL_Driver/Src/stm32u0xx_hal_pwr_ex.c ****   if (READ_BIT(PWR->CR2, PWR_PVM_4) != 0U)
 869:Drivers/STM32U0xx_HAL_Driver/Src/stm32u0xx_hal_pwr_ex.c ****   {
 870:Drivers/STM32U0xx_HAL_Driver/Src/stm32u0xx_hal_pwr_ex.c ****     /* Check PWR EXTI Rising flag */
 871:Drivers/STM32U0xx_HAL_Driver/Src/stm32u0xx_hal_pwr_ex.c ****     if (__HAL_PWR_PVM4_EXTI_GET_RISING_FLAG() != 0U)
 872:Drivers/STM32U0xx_HAL_Driver/Src/stm32u0xx_hal_pwr_ex.c ****     {
 873:Drivers/STM32U0xx_HAL_Driver/Src/stm32u0xx_hal_pwr_ex.c ****       /* PWR PVM interrupt user callback */
 874:Drivers/STM32U0xx_HAL_Driver/Src/stm32u0xx_hal_pwr_ex.c ****       HAL_PWREx_PVM4_Callback();
 875:Drivers/STM32U0xx_HAL_Driver/Src/stm32u0xx_hal_pwr_ex.c **** 
 876:Drivers/STM32U0xx_HAL_Driver/Src/stm32u0xx_hal_pwr_ex.c ****       /* Clear PWR EXTI pending bit */
 877:Drivers/STM32U0xx_HAL_Driver/Src/stm32u0xx_hal_pwr_ex.c ****       __HAL_PWR_PVM4_EXTI_CLEAR_FLAG();
 878:Drivers/STM32U0xx_HAL_Driver/Src/stm32u0xx_hal_pwr_ex.c ****     }
 879:Drivers/STM32U0xx_HAL_Driver/Src/stm32u0xx_hal_pwr_ex.c **** 
 880:Drivers/STM32U0xx_HAL_Driver/Src/stm32u0xx_hal_pwr_ex.c ****     /* Check PWR EXTI Falling flag */
 881:Drivers/STM32U0xx_HAL_Driver/Src/stm32u0xx_hal_pwr_ex.c ****     if (__HAL_PWR_PVM4_EXTI_GET_FALLING_FLAG() != 0U)
 882:Drivers/STM32U0xx_HAL_Driver/Src/stm32u0xx_hal_pwr_ex.c ****     {
 883:Drivers/STM32U0xx_HAL_Driver/Src/stm32u0xx_hal_pwr_ex.c ****       /* PWR PVM4 for DAC interrupt user callback */
 884:Drivers/STM32U0xx_HAL_Driver/Src/stm32u0xx_hal_pwr_ex.c ****       HAL_PWREx_PVM4_Callback();
 885:Drivers/STM32U0xx_HAL_Driver/Src/stm32u0xx_hal_pwr_ex.c **** 
 886:Drivers/STM32U0xx_HAL_Driver/Src/stm32u0xx_hal_pwr_ex.c ****       /* Clear PWR EXTI pending bit */
 887:Drivers/STM32U0xx_HAL_Driver/Src/stm32u0xx_hal_pwr_ex.c ****       __HAL_PWR_PVM4_EXTI_CLEAR_FLAG();
 888:Drivers/STM32U0xx_HAL_Driver/Src/stm32u0xx_hal_pwr_ex.c ****     }
 889:Drivers/STM32U0xx_HAL_Driver/Src/stm32u0xx_hal_pwr_ex.c ****   }
 890:Drivers/STM32U0xx_HAL_Driver/Src/stm32u0xx_hal_pwr_ex.c **** }
 891:Drivers/STM32U0xx_HAL_Driver/Src/stm32u0xx_hal_pwr_ex.c **** 
 892:Drivers/STM32U0xx_HAL_Driver/Src/stm32u0xx_hal_pwr_ex.c **** #if defined(USB_DRD_FS)
 893:Drivers/STM32U0xx_HAL_Driver/Src/stm32u0xx_hal_pwr_ex.c **** /**
 894:Drivers/STM32U0xx_HAL_Driver/Src/stm32u0xx_hal_pwr_ex.c ****   * @brief PWR PVM USB interrupt callback
 895:Drivers/STM32U0xx_HAL_Driver/Src/stm32u0xx_hal_pwr_ex.c ****   * @retval None
 896:Drivers/STM32U0xx_HAL_Driver/Src/stm32u0xx_hal_pwr_ex.c ****   */
 897:Drivers/STM32U0xx_HAL_Driver/Src/stm32u0xx_hal_pwr_ex.c **** __weak void HAL_PWREx_PVM1_Callback(void)
 898:Drivers/STM32U0xx_HAL_Driver/Src/stm32u0xx_hal_pwr_ex.c **** {
 1134              		.loc 1 898 1 is_stmt 1 view -0
 1135              		.cfi_startproc
 1136              		@ args = 0, pretend = 0, frame = 0
 1137              		@ frame_needed = 0, uses_anonymous_args = 0
 1138              		@ link register save eliminated.
ARM GAS  C:\Users\upo\AppData\Local\Temp\ccTc2A2n.s 			page 38


 899:Drivers/STM32U0xx_HAL_Driver/Src/stm32u0xx_hal_pwr_ex.c ****   /* NOTE : This function should not be modified; when the callback is needed,
 900:Drivers/STM32U0xx_HAL_Driver/Src/stm32u0xx_hal_pwr_ex.c ****             HAL_PWREx_PVM_USBCallback() API can be implemented in the user file
 901:Drivers/STM32U0xx_HAL_Driver/Src/stm32u0xx_hal_pwr_ex.c ****    */
 902:Drivers/STM32U0xx_HAL_Driver/Src/stm32u0xx_hal_pwr_ex.c **** }
 1139              		.loc 1 902 1 view .LVU210
 1140              		@ sp needed
 1141 0000 7047     		bx	lr
 1142              		.cfi_endproc
 1143              	.LFE352:
 1145              		.section	.text.HAL_PWREx_PVM3_Callback,"ax",%progbits
 1146              		.align	1
 1147              		.weak	HAL_PWREx_PVM3_Callback
 1148              		.syntax unified
 1149              		.code	16
 1150              		.thumb_func
 1152              	HAL_PWREx_PVM3_Callback:
 1153              	.LFB353:
 903:Drivers/STM32U0xx_HAL_Driver/Src/stm32u0xx_hal_pwr_ex.c **** #endif /* USB_DRD_FS */
 904:Drivers/STM32U0xx_HAL_Driver/Src/stm32u0xx_hal_pwr_ex.c **** 
 905:Drivers/STM32U0xx_HAL_Driver/Src/stm32u0xx_hal_pwr_ex.c **** /**
 906:Drivers/STM32U0xx_HAL_Driver/Src/stm32u0xx_hal_pwr_ex.c ****   * @brief PWR PVM ADC interrupt callback
 907:Drivers/STM32U0xx_HAL_Driver/Src/stm32u0xx_hal_pwr_ex.c ****   * @retval None
 908:Drivers/STM32U0xx_HAL_Driver/Src/stm32u0xx_hal_pwr_ex.c ****   */
 909:Drivers/STM32U0xx_HAL_Driver/Src/stm32u0xx_hal_pwr_ex.c **** __weak void HAL_PWREx_PVM3_Callback(void)
 910:Drivers/STM32U0xx_HAL_Driver/Src/stm32u0xx_hal_pwr_ex.c **** {
 1154              		.loc 1 910 1 view -0
 1155              		.cfi_startproc
 1156              		@ args = 0, pretend = 0, frame = 0
 1157              		@ frame_needed = 0, uses_anonymous_args = 0
 1158              		@ link register save eliminated.
 911:Drivers/STM32U0xx_HAL_Driver/Src/stm32u0xx_hal_pwr_ex.c ****   /* NOTE : This function should not be modified; when the callback is needed,
 912:Drivers/STM32U0xx_HAL_Driver/Src/stm32u0xx_hal_pwr_ex.c ****             HAL_PWREx_PVM_ADCCallback() API can be implemented in the user file
 913:Drivers/STM32U0xx_HAL_Driver/Src/stm32u0xx_hal_pwr_ex.c ****    */
 914:Drivers/STM32U0xx_HAL_Driver/Src/stm32u0xx_hal_pwr_ex.c **** }
 1159              		.loc 1 914 1 view .LVU212
 1160              		@ sp needed
 1161 0000 7047     		bx	lr
 1162              		.cfi_endproc
 1163              	.LFE353:
 1165              		.section	.text.HAL_PWREx_PVM4_Callback,"ax",%progbits
 1166              		.align	1
 1167              		.weak	HAL_PWREx_PVM4_Callback
 1168              		.syntax unified
 1169              		.code	16
 1170              		.thumb_func
 1172              	HAL_PWREx_PVM4_Callback:
 1173              	.LFB354:
 915:Drivers/STM32U0xx_HAL_Driver/Src/stm32u0xx_hal_pwr_ex.c **** 
 916:Drivers/STM32U0xx_HAL_Driver/Src/stm32u0xx_hal_pwr_ex.c **** /**
 917:Drivers/STM32U0xx_HAL_Driver/Src/stm32u0xx_hal_pwr_ex.c ****   * @brief PWR PVM DAC interrupt callback
 918:Drivers/STM32U0xx_HAL_Driver/Src/stm32u0xx_hal_pwr_ex.c ****   * @retval None
 919:Drivers/STM32U0xx_HAL_Driver/Src/stm32u0xx_hal_pwr_ex.c ****   */
 920:Drivers/STM32U0xx_HAL_Driver/Src/stm32u0xx_hal_pwr_ex.c **** __weak void HAL_PWREx_PVM4_Callback(void)
 921:Drivers/STM32U0xx_HAL_Driver/Src/stm32u0xx_hal_pwr_ex.c **** {
 1174              		.loc 1 921 1 view -0
 1175              		.cfi_startproc
 1176              		@ args = 0, pretend = 0, frame = 0
ARM GAS  C:\Users\upo\AppData\Local\Temp\ccTc2A2n.s 			page 39


 1177              		@ frame_needed = 0, uses_anonymous_args = 0
 1178              		@ link register save eliminated.
 922:Drivers/STM32U0xx_HAL_Driver/Src/stm32u0xx_hal_pwr_ex.c ****   /* NOTE : This function should not be modified; when the callback is needed,
 923:Drivers/STM32U0xx_HAL_Driver/Src/stm32u0xx_hal_pwr_ex.c ****             HAL_PWREx_PVM_DACCallback() API can be implemented in the user file
 924:Drivers/STM32U0xx_HAL_Driver/Src/stm32u0xx_hal_pwr_ex.c ****    */
 925:Drivers/STM32U0xx_HAL_Driver/Src/stm32u0xx_hal_pwr_ex.c **** }
 1179              		.loc 1 925 1 view .LVU214
 1180              		@ sp needed
 1181 0000 7047     		bx	lr
 1182              		.cfi_endproc
 1183              	.LFE354:
 1185              		.section	.text.HAL_PWREx_PVD_PVM_IRQHandler,"ax",%progbits
 1186              		.align	1
 1187              		.global	HAL_PWREx_PVD_PVM_IRQHandler
 1188              		.syntax unified
 1189              		.code	16
 1190              		.thumb_func
 1192              	HAL_PWREx_PVD_PVM_IRQHandler:
 1193              	.LFB351:
 795:Drivers/STM32U0xx_HAL_Driver/Src/stm32u0xx_hal_pwr_ex.c ****   /* Check if the Programmable Voltage Detector is enabled (PVD) */
 1194              		.loc 1 795 1 view -0
 1195              		.cfi_startproc
 1196              		@ args = 0, pretend = 0, frame = 0
 1197              		@ frame_needed = 0, uses_anonymous_args = 0
 1198 0000 10B5     		push	{r4, lr}
 1199              	.LCFI3:
 1200              		.cfi_def_cfa_offset 8
 1201              		.cfi_offset 4, -8
 1202              		.cfi_offset 14, -4
 797:Drivers/STM32U0xx_HAL_Driver/Src/stm32u0xx_hal_pwr_ex.c ****   {
 1203              		.loc 1 797 3 view .LVU216
 797:Drivers/STM32U0xx_HAL_Driver/Src/stm32u0xx_hal_pwr_ex.c ****   {
 1204              		.loc 1 797 7 is_stmt 0 view .LVU217
 1205 0002 384B     		ldr	r3, .L132
 1206 0004 5B68     		ldr	r3, [r3, #4]
 797:Drivers/STM32U0xx_HAL_Driver/Src/stm32u0xx_hal_pwr_ex.c ****   {
 1207              		.loc 1 797 6 view .LVU218
 1208 0006 DB07     		lsls	r3, r3, #31
 1209 0008 07D5     		bpl	.L104
 800:Drivers/STM32U0xx_HAL_Driver/Src/stm32u0xx_hal_pwr_ex.c ****     {
 1210              		.loc 1 800 5 is_stmt 1 view .LVU219
 800:Drivers/STM32U0xx_HAL_Driver/Src/stm32u0xx_hal_pwr_ex.c ****     {
 1211              		.loc 1 800 9 is_stmt 0 view .LVU220
 1212 000a 374B     		ldr	r3, .L132+4
 1213 000c DB68     		ldr	r3, [r3, #12]
 800:Drivers/STM32U0xx_HAL_Driver/Src/stm32u0xx_hal_pwr_ex.c ****     {
 1214              		.loc 1 800 8 view .LVU221
 1215 000e DB03     		lsls	r3, r3, #15
 1216 0010 28D4     		bmi	.L124
 1217              	.L105:
 806:Drivers/STM32U0xx_HAL_Driver/Src/stm32u0xx_hal_pwr_ex.c ****     }
 1218              		.loc 1 806 7 is_stmt 1 discriminator 1 view .LVU222
 810:Drivers/STM32U0xx_HAL_Driver/Src/stm32u0xx_hal_pwr_ex.c ****     {
 1219              		.loc 1 810 5 discriminator 1 view .LVU223
 810:Drivers/STM32U0xx_HAL_Driver/Src/stm32u0xx_hal_pwr_ex.c ****     {
 1220              		.loc 1 810 9 is_stmt 0 discriminator 1 view .LVU224
 1221 0012 354B     		ldr	r3, .L132+4
ARM GAS  C:\Users\upo\AppData\Local\Temp\ccTc2A2n.s 			page 40


 1222 0014 1B69     		ldr	r3, [r3, #16]
 810:Drivers/STM32U0xx_HAL_Driver/Src/stm32u0xx_hal_pwr_ex.c ****     {
 1223              		.loc 1 810 8 discriminator 1 view .LVU225
 1224 0016 DB03     		lsls	r3, r3, #15
 1225 0018 2CD4     		bmi	.L125
 1226              	.L104:
 816:Drivers/STM32U0xx_HAL_Driver/Src/stm32u0xx_hal_pwr_ex.c ****     }
 1227              		.loc 1 816 7 is_stmt 1 discriminator 1 view .LVU226
 822:Drivers/STM32U0xx_HAL_Driver/Src/stm32u0xx_hal_pwr_ex.c ****   {
 1228              		.loc 1 822 3 discriminator 1 view .LVU227
 822:Drivers/STM32U0xx_HAL_Driver/Src/stm32u0xx_hal_pwr_ex.c ****   {
 1229              		.loc 1 822 7 is_stmt 0 discriminator 1 view .LVU228
 1230 001a 324B     		ldr	r3, .L132
 1231 001c 5B68     		ldr	r3, [r3, #4]
 822:Drivers/STM32U0xx_HAL_Driver/Src/stm32u0xx_hal_pwr_ex.c ****   {
 1232              		.loc 1 822 6 discriminator 1 view .LVU229
 1233 001e DB06     		lsls	r3, r3, #27
 1234 0020 07D5     		bpl	.L106
 825:Drivers/STM32U0xx_HAL_Driver/Src/stm32u0xx_hal_pwr_ex.c ****     {
 1235              		.loc 1 825 5 is_stmt 1 view .LVU230
 825:Drivers/STM32U0xx_HAL_Driver/Src/stm32u0xx_hal_pwr_ex.c ****     {
 1236              		.loc 1 825 9 is_stmt 0 view .LVU231
 1237 0022 314B     		ldr	r3, .L132+4
 1238 0024 DB68     		ldr	r3, [r3, #12]
 825:Drivers/STM32U0xx_HAL_Driver/Src/stm32u0xx_hal_pwr_ex.c ****     {
 1239              		.loc 1 825 8 view .LVU232
 1240 0026 DB02     		lsls	r3, r3, #11
 1241 0028 2CD4     		bmi	.L126
 1242              	.L107:
 831:Drivers/STM32U0xx_HAL_Driver/Src/stm32u0xx_hal_pwr_ex.c ****     }
 1243              		.loc 1 831 7 is_stmt 1 discriminator 1 view .LVU233
 835:Drivers/STM32U0xx_HAL_Driver/Src/stm32u0xx_hal_pwr_ex.c ****     {
 1244              		.loc 1 835 5 discriminator 1 view .LVU234
 835:Drivers/STM32U0xx_HAL_Driver/Src/stm32u0xx_hal_pwr_ex.c ****     {
 1245              		.loc 1 835 9 is_stmt 0 discriminator 1 view .LVU235
 1246 002a 2F4B     		ldr	r3, .L132+4
 1247 002c 1B69     		ldr	r3, [r3, #16]
 835:Drivers/STM32U0xx_HAL_Driver/Src/stm32u0xx_hal_pwr_ex.c ****     {
 1248              		.loc 1 835 8 discriminator 1 view .LVU236
 1249 002e DB02     		lsls	r3, r3, #11
 1250 0030 30D4     		bmi	.L127
 1251              	.L106:
 841:Drivers/STM32U0xx_HAL_Driver/Src/stm32u0xx_hal_pwr_ex.c ****     }
 1252              		.loc 1 841 7 is_stmt 1 discriminator 1 view .LVU237
 845:Drivers/STM32U0xx_HAL_Driver/Src/stm32u0xx_hal_pwr_ex.c ****   {
 1253              		.loc 1 845 3 discriminator 1 view .LVU238
 845:Drivers/STM32U0xx_HAL_Driver/Src/stm32u0xx_hal_pwr_ex.c ****   {
 1254              		.loc 1 845 7 is_stmt 0 discriminator 1 view .LVU239
 1255 0032 2C4B     		ldr	r3, .L132
 1256 0034 5B68     		ldr	r3, [r3, #4]
 845:Drivers/STM32U0xx_HAL_Driver/Src/stm32u0xx_hal_pwr_ex.c ****   {
 1257              		.loc 1 845 6 discriminator 1 view .LVU240
 1258 0036 9B06     		lsls	r3, r3, #26
 1259 0038 07D5     		bpl	.L108
 848:Drivers/STM32U0xx_HAL_Driver/Src/stm32u0xx_hal_pwr_ex.c ****     {
 1260              		.loc 1 848 5 is_stmt 1 view .LVU241
 848:Drivers/STM32U0xx_HAL_Driver/Src/stm32u0xx_hal_pwr_ex.c ****     {
ARM GAS  C:\Users\upo\AppData\Local\Temp\ccTc2A2n.s 			page 41


 1261              		.loc 1 848 9 is_stmt 0 view .LVU242
 1262 003a 2B4B     		ldr	r3, .L132+4
 1263 003c DB68     		ldr	r3, [r3, #12]
 848:Drivers/STM32U0xx_HAL_Driver/Src/stm32u0xx_hal_pwr_ex.c ****     {
 1264              		.loc 1 848 8 view .LVU243
 1265 003e 9B02     		lsls	r3, r3, #10
 1266 0040 30D4     		bmi	.L128
 1267              	.L109:
 854:Drivers/STM32U0xx_HAL_Driver/Src/stm32u0xx_hal_pwr_ex.c ****     }
 1268              		.loc 1 854 7 is_stmt 1 discriminator 1 view .LVU244
 858:Drivers/STM32U0xx_HAL_Driver/Src/stm32u0xx_hal_pwr_ex.c ****     {
 1269              		.loc 1 858 5 discriminator 1 view .LVU245
 858:Drivers/STM32U0xx_HAL_Driver/Src/stm32u0xx_hal_pwr_ex.c ****     {
 1270              		.loc 1 858 9 is_stmt 0 discriminator 1 view .LVU246
 1271 0042 294B     		ldr	r3, .L132+4
 1272 0044 1B69     		ldr	r3, [r3, #16]
 858:Drivers/STM32U0xx_HAL_Driver/Src/stm32u0xx_hal_pwr_ex.c ****     {
 1273              		.loc 1 858 8 discriminator 1 view .LVU247
 1274 0046 9B02     		lsls	r3, r3, #10
 1275 0048 34D4     		bmi	.L129
 1276              	.L108:
 864:Drivers/STM32U0xx_HAL_Driver/Src/stm32u0xx_hal_pwr_ex.c ****     }
 1277              		.loc 1 864 7 is_stmt 1 discriminator 1 view .LVU248
 868:Drivers/STM32U0xx_HAL_Driver/Src/stm32u0xx_hal_pwr_ex.c ****   {
 1278              		.loc 1 868 3 discriminator 1 view .LVU249
 868:Drivers/STM32U0xx_HAL_Driver/Src/stm32u0xx_hal_pwr_ex.c ****   {
 1279              		.loc 1 868 7 is_stmt 0 discriminator 1 view .LVU250
 1280 004a 264B     		ldr	r3, .L132
 1281 004c 5B68     		ldr	r3, [r3, #4]
 868:Drivers/STM32U0xx_HAL_Driver/Src/stm32u0xx_hal_pwr_ex.c ****   {
 1282              		.loc 1 868 6 discriminator 1 view .LVU251
 1283 004e 5B06     		lsls	r3, r3, #25
 1284 0050 07D5     		bpl	.L103
 871:Drivers/STM32U0xx_HAL_Driver/Src/stm32u0xx_hal_pwr_ex.c ****     {
 1285              		.loc 1 871 5 is_stmt 1 view .LVU252
 871:Drivers/STM32U0xx_HAL_Driver/Src/stm32u0xx_hal_pwr_ex.c ****     {
 1286              		.loc 1 871 9 is_stmt 0 view .LVU253
 1287 0052 254B     		ldr	r3, .L132+4
 1288 0054 DB68     		ldr	r3, [r3, #12]
 871:Drivers/STM32U0xx_HAL_Driver/Src/stm32u0xx_hal_pwr_ex.c ****     {
 1289              		.loc 1 871 8 view .LVU254
 1290 0056 5B02     		lsls	r3, r3, #9
 1291 0058 34D4     		bmi	.L130
 1292              	.L111:
 877:Drivers/STM32U0xx_HAL_Driver/Src/stm32u0xx_hal_pwr_ex.c ****     }
 1293              		.loc 1 877 7 is_stmt 1 discriminator 1 view .LVU255
 881:Drivers/STM32U0xx_HAL_Driver/Src/stm32u0xx_hal_pwr_ex.c ****     {
 1294              		.loc 1 881 5 discriminator 1 view .LVU256
 881:Drivers/STM32U0xx_HAL_Driver/Src/stm32u0xx_hal_pwr_ex.c ****     {
 1295              		.loc 1 881 9 is_stmt 0 discriminator 1 view .LVU257
 1296 005a 234B     		ldr	r3, .L132+4
 1297 005c 1B69     		ldr	r3, [r3, #16]
 881:Drivers/STM32U0xx_HAL_Driver/Src/stm32u0xx_hal_pwr_ex.c ****     {
 1298              		.loc 1 881 8 discriminator 1 view .LVU258
 1299 005e 5B02     		lsls	r3, r3, #9
 1300 0060 38D4     		bmi	.L131
 1301              	.L103:
ARM GAS  C:\Users\upo\AppData\Local\Temp\ccTc2A2n.s 			page 42


 890:Drivers/STM32U0xx_HAL_Driver/Src/stm32u0xx_hal_pwr_ex.c **** 
 1302              		.loc 1 890 1 view .LVU259
 1303              		@ sp needed
 1304 0062 10BD     		pop	{r4, pc}
 1305              	.L124:
 803:Drivers/STM32U0xx_HAL_Driver/Src/stm32u0xx_hal_pwr_ex.c **** 
 1306              		.loc 1 803 7 is_stmt 1 view .LVU260
 1307 0064 FFF7FEFF 		bl	HAL_PWR_PVDCallback
 1308              	.LVL38:
 806:Drivers/STM32U0xx_HAL_Driver/Src/stm32u0xx_hal_pwr_ex.c ****     }
 1309              		.loc 1 806 7 view .LVU261
 806:Drivers/STM32U0xx_HAL_Driver/Src/stm32u0xx_hal_pwr_ex.c ****     }
 1310              		.loc 1 806 7 view .LVU262
 1311 0068 1F4B     		ldr	r3, .L132+4
 1312 006a 8022     		movs	r2, #128
 1313 006c 5202     		lsls	r2, r2, #9
 1314 006e DA60     		str	r2, [r3, #12]
 806:Drivers/STM32U0xx_HAL_Driver/Src/stm32u0xx_hal_pwr_ex.c ****     }
 1315              		.loc 1 806 7 view .LVU263
 1316 0070 1A61     		str	r2, [r3, #16]
 1317 0072 CEE7     		b	.L105
 1318              	.L125:
 813:Drivers/STM32U0xx_HAL_Driver/Src/stm32u0xx_hal_pwr_ex.c **** 
 1319              		.loc 1 813 7 view .LVU264
 1320 0074 FFF7FEFF 		bl	HAL_PWR_PVDCallback
 1321              	.LVL39:
 816:Drivers/STM32U0xx_HAL_Driver/Src/stm32u0xx_hal_pwr_ex.c ****     }
 1322              		.loc 1 816 7 view .LVU265
 816:Drivers/STM32U0xx_HAL_Driver/Src/stm32u0xx_hal_pwr_ex.c ****     }
 1323              		.loc 1 816 7 view .LVU266
 1324 0078 1B4B     		ldr	r3, .L132+4
 1325 007a 8022     		movs	r2, #128
 1326 007c 5202     		lsls	r2, r2, #9
 1327 007e DA60     		str	r2, [r3, #12]
 816:Drivers/STM32U0xx_HAL_Driver/Src/stm32u0xx_hal_pwr_ex.c ****     }
 1328              		.loc 1 816 7 view .LVU267
 1329 0080 1A61     		str	r2, [r3, #16]
 1330 0082 CAE7     		b	.L104
 1331              	.L126:
 828:Drivers/STM32U0xx_HAL_Driver/Src/stm32u0xx_hal_pwr_ex.c **** 
 1332              		.loc 1 828 7 view .LVU268
 1333 0084 FFF7FEFF 		bl	HAL_PWREx_PVM1_Callback
 1334              	.LVL40:
 831:Drivers/STM32U0xx_HAL_Driver/Src/stm32u0xx_hal_pwr_ex.c ****     }
 1335              		.loc 1 831 7 view .LVU269
 831:Drivers/STM32U0xx_HAL_Driver/Src/stm32u0xx_hal_pwr_ex.c ****     }
 1336              		.loc 1 831 7 view .LVU270
 1337 0088 174B     		ldr	r3, .L132+4
 1338 008a 8022     		movs	r2, #128
 1339 008c 5203     		lsls	r2, r2, #13
 1340 008e DA60     		str	r2, [r3, #12]
 831:Drivers/STM32U0xx_HAL_Driver/Src/stm32u0xx_hal_pwr_ex.c ****     }
 1341              		.loc 1 831 7 view .LVU271
 1342 0090 1A61     		str	r2, [r3, #16]
 1343 0092 CAE7     		b	.L107
 1344              	.L127:
 838:Drivers/STM32U0xx_HAL_Driver/Src/stm32u0xx_hal_pwr_ex.c **** 
ARM GAS  C:\Users\upo\AppData\Local\Temp\ccTc2A2n.s 			page 43


 1345              		.loc 1 838 7 view .LVU272
 1346 0094 FFF7FEFF 		bl	HAL_PWREx_PVM1_Callback
 1347              	.LVL41:
 841:Drivers/STM32U0xx_HAL_Driver/Src/stm32u0xx_hal_pwr_ex.c ****     }
 1348              		.loc 1 841 7 view .LVU273
 841:Drivers/STM32U0xx_HAL_Driver/Src/stm32u0xx_hal_pwr_ex.c ****     }
 1349              		.loc 1 841 7 view .LVU274
 1350 0098 134B     		ldr	r3, .L132+4
 1351 009a 8022     		movs	r2, #128
 1352 009c 5203     		lsls	r2, r2, #13
 1353 009e DA60     		str	r2, [r3, #12]
 841:Drivers/STM32U0xx_HAL_Driver/Src/stm32u0xx_hal_pwr_ex.c ****     }
 1354              		.loc 1 841 7 view .LVU275
 1355 00a0 1A61     		str	r2, [r3, #16]
 1356 00a2 C6E7     		b	.L106
 1357              	.L128:
 851:Drivers/STM32U0xx_HAL_Driver/Src/stm32u0xx_hal_pwr_ex.c **** 
 1358              		.loc 1 851 7 view .LVU276
 1359 00a4 FFF7FEFF 		bl	HAL_PWREx_PVM3_Callback
 1360              	.LVL42:
 854:Drivers/STM32U0xx_HAL_Driver/Src/stm32u0xx_hal_pwr_ex.c ****     }
 1361              		.loc 1 854 7 view .LVU277
 854:Drivers/STM32U0xx_HAL_Driver/Src/stm32u0xx_hal_pwr_ex.c ****     }
 1362              		.loc 1 854 7 view .LVU278
 1363 00a8 0F4B     		ldr	r3, .L132+4
 1364 00aa 8022     		movs	r2, #128
 1365 00ac 9203     		lsls	r2, r2, #14
 1366 00ae DA60     		str	r2, [r3, #12]
 854:Drivers/STM32U0xx_HAL_Driver/Src/stm32u0xx_hal_pwr_ex.c ****     }
 1367              		.loc 1 854 7 view .LVU279
 1368 00b0 1A61     		str	r2, [r3, #16]
 1369 00b2 C6E7     		b	.L109
 1370              	.L129:
 861:Drivers/STM32U0xx_HAL_Driver/Src/stm32u0xx_hal_pwr_ex.c **** 
 1371              		.loc 1 861 7 view .LVU280
 1372 00b4 FFF7FEFF 		bl	HAL_PWREx_PVM3_Callback
 1373              	.LVL43:
 864:Drivers/STM32U0xx_HAL_Driver/Src/stm32u0xx_hal_pwr_ex.c ****     }
 1374              		.loc 1 864 7 view .LVU281
 864:Drivers/STM32U0xx_HAL_Driver/Src/stm32u0xx_hal_pwr_ex.c ****     }
 1375              		.loc 1 864 7 view .LVU282
 1376 00b8 0B4B     		ldr	r3, .L132+4
 1377 00ba 8022     		movs	r2, #128
 1378 00bc 9203     		lsls	r2, r2, #14
 1379 00be DA60     		str	r2, [r3, #12]
 864:Drivers/STM32U0xx_HAL_Driver/Src/stm32u0xx_hal_pwr_ex.c ****     }
 1380              		.loc 1 864 7 view .LVU283
 1381 00c0 1A61     		str	r2, [r3, #16]
 1382 00c2 C2E7     		b	.L108
 1383              	.L130:
 874:Drivers/STM32U0xx_HAL_Driver/Src/stm32u0xx_hal_pwr_ex.c **** 
 1384              		.loc 1 874 7 view .LVU284
 1385 00c4 FFF7FEFF 		bl	HAL_PWREx_PVM4_Callback
 1386              	.LVL44:
 877:Drivers/STM32U0xx_HAL_Driver/Src/stm32u0xx_hal_pwr_ex.c ****     }
 1387              		.loc 1 877 7 view .LVU285
 877:Drivers/STM32U0xx_HAL_Driver/Src/stm32u0xx_hal_pwr_ex.c ****     }
ARM GAS  C:\Users\upo\AppData\Local\Temp\ccTc2A2n.s 			page 44


 1388              		.loc 1 877 7 view .LVU286
 1389 00c8 074B     		ldr	r3, .L132+4
 1390 00ca 8022     		movs	r2, #128
 1391 00cc D203     		lsls	r2, r2, #15
 1392 00ce DA60     		str	r2, [r3, #12]
 877:Drivers/STM32U0xx_HAL_Driver/Src/stm32u0xx_hal_pwr_ex.c ****     }
 1393              		.loc 1 877 7 view .LVU287
 1394 00d0 1A61     		str	r2, [r3, #16]
 1395 00d2 C2E7     		b	.L111
 1396              	.L131:
 884:Drivers/STM32U0xx_HAL_Driver/Src/stm32u0xx_hal_pwr_ex.c **** 
 1397              		.loc 1 884 7 view .LVU288
 1398 00d4 FFF7FEFF 		bl	HAL_PWREx_PVM4_Callback
 1399              	.LVL45:
 887:Drivers/STM32U0xx_HAL_Driver/Src/stm32u0xx_hal_pwr_ex.c ****     }
 1400              		.loc 1 887 7 view .LVU289
 887:Drivers/STM32U0xx_HAL_Driver/Src/stm32u0xx_hal_pwr_ex.c ****     }
 1401              		.loc 1 887 7 view .LVU290
 1402 00d8 034B     		ldr	r3, .L132+4
 1403 00da 8022     		movs	r2, #128
 1404 00dc D203     		lsls	r2, r2, #15
 1405 00de DA60     		str	r2, [r3, #12]
 887:Drivers/STM32U0xx_HAL_Driver/Src/stm32u0xx_hal_pwr_ex.c ****     }
 1406              		.loc 1 887 7 view .LVU291
 1407 00e0 1A61     		str	r2, [r3, #16]
 887:Drivers/STM32U0xx_HAL_Driver/Src/stm32u0xx_hal_pwr_ex.c ****     }
 1408              		.loc 1 887 7 view .LVU292
 890:Drivers/STM32U0xx_HAL_Driver/Src/stm32u0xx_hal_pwr_ex.c **** 
 1409              		.loc 1 890 1 is_stmt 0 view .LVU293
 1410 00e2 BEE7     		b	.L103
 1411              	.L133:
 1412              		.align	2
 1413              	.L132:
 1414 00e4 00700040 		.word	1073770496
 1415 00e8 00180240 		.word	1073879040
 1416              		.cfi_endproc
 1417              	.LFE351:
 1419              		.section	.text.HAL_PWREx_EnableInternalWakeUpLine,"ax",%progbits
 1420              		.align	1
 1421              		.global	HAL_PWREx_EnableInternalWakeUpLine
 1422              		.syntax unified
 1423              		.code	16
 1424              		.thumb_func
 1426              	HAL_PWREx_EnableInternalWakeUpLine:
 1427              	.LFB355:
 926:Drivers/STM32U0xx_HAL_Driver/Src/stm32u0xx_hal_pwr_ex.c **** 
 927:Drivers/STM32U0xx_HAL_Driver/Src/stm32u0xx_hal_pwr_ex.c **** /**
 928:Drivers/STM32U0xx_HAL_Driver/Src/stm32u0xx_hal_pwr_ex.c ****   * @brief Enable Internal Wake-up Line.
 929:Drivers/STM32U0xx_HAL_Driver/Src/stm32u0xx_hal_pwr_ex.c ****   * @retval None
 930:Drivers/STM32U0xx_HAL_Driver/Src/stm32u0xx_hal_pwr_ex.c ****   */
 931:Drivers/STM32U0xx_HAL_Driver/Src/stm32u0xx_hal_pwr_ex.c **** void HAL_PWREx_EnableInternalWakeUpLine(void)
 932:Drivers/STM32U0xx_HAL_Driver/Src/stm32u0xx_hal_pwr_ex.c **** {
 1428              		.loc 1 932 1 is_stmt 1 view -0
 1429              		.cfi_startproc
 1430              		@ args = 0, pretend = 0, frame = 0
 1431              		@ frame_needed = 0, uses_anonymous_args = 0
 1432              		@ link register save eliminated.
ARM GAS  C:\Users\upo\AppData\Local\Temp\ccTc2A2n.s 			page 45


 933:Drivers/STM32U0xx_HAL_Driver/Src/stm32u0xx_hal_pwr_ex.c ****   SET_BIT(PWR->CR3, PWR_CR3_EIWUL);
 1433              		.loc 1 933 3 view .LVU295
 1434 0000 034A     		ldr	r2, .L135
 1435 0002 9168     		ldr	r1, [r2, #8]
 1436 0004 8023     		movs	r3, #128
 1437 0006 1B02     		lsls	r3, r3, #8
 1438 0008 0B43     		orrs	r3, r1
 1439 000a 9360     		str	r3, [r2, #8]
 934:Drivers/STM32U0xx_HAL_Driver/Src/stm32u0xx_hal_pwr_ex.c **** }
 1440              		.loc 1 934 1 is_stmt 0 view .LVU296
 1441              		@ sp needed
 1442 000c 7047     		bx	lr
 1443              	.L136:
 1444 000e C046     		.align	2
 1445              	.L135:
 1446 0010 00700040 		.word	1073770496
 1447              		.cfi_endproc
 1448              	.LFE355:
 1450              		.section	.text.HAL_PWREx_DisableInternalWakeUpLine,"ax",%progbits
 1451              		.align	1
 1452              		.global	HAL_PWREx_DisableInternalWakeUpLine
 1453              		.syntax unified
 1454              		.code	16
 1455              		.thumb_func
 1457              	HAL_PWREx_DisableInternalWakeUpLine:
 1458              	.LFB356:
 935:Drivers/STM32U0xx_HAL_Driver/Src/stm32u0xx_hal_pwr_ex.c **** 
 936:Drivers/STM32U0xx_HAL_Driver/Src/stm32u0xx_hal_pwr_ex.c **** /**
 937:Drivers/STM32U0xx_HAL_Driver/Src/stm32u0xx_hal_pwr_ex.c ****   * @brief Disable Internal Wake-up Line.
 938:Drivers/STM32U0xx_HAL_Driver/Src/stm32u0xx_hal_pwr_ex.c ****   * @retval None
 939:Drivers/STM32U0xx_HAL_Driver/Src/stm32u0xx_hal_pwr_ex.c ****   */
 940:Drivers/STM32U0xx_HAL_Driver/Src/stm32u0xx_hal_pwr_ex.c **** void HAL_PWREx_DisableInternalWakeUpLine(void)
 941:Drivers/STM32U0xx_HAL_Driver/Src/stm32u0xx_hal_pwr_ex.c **** {
 1459              		.loc 1 941 1 is_stmt 1 view -0
 1460              		.cfi_startproc
 1461              		@ args = 0, pretend = 0, frame = 0
 1462              		@ frame_needed = 0, uses_anonymous_args = 0
 1463              		@ link register save eliminated.
 942:Drivers/STM32U0xx_HAL_Driver/Src/stm32u0xx_hal_pwr_ex.c ****   CLEAR_BIT(PWR->CR3, PWR_CR3_EIWUL);
 1464              		.loc 1 942 3 view .LVU298
 1465 0000 024A     		ldr	r2, .L138
 1466 0002 9368     		ldr	r3, [r2, #8]
 1467 0004 0249     		ldr	r1, .L138+4
 1468 0006 0B40     		ands	r3, r1
 1469 0008 9360     		str	r3, [r2, #8]
 943:Drivers/STM32U0xx_HAL_Driver/Src/stm32u0xx_hal_pwr_ex.c **** }
 1470              		.loc 1 943 1 is_stmt 0 view .LVU299
 1471              		@ sp needed
 1472 000a 7047     		bx	lr
 1473              	.L139:
 1474              		.align	2
 1475              	.L138:
 1476 000c 00700040 		.word	1073770496
 1477 0010 FF7FFFFF 		.word	-32769
 1478              		.cfi_endproc
 1479              	.LFE356:
 1481              		.section	.text.HAL_PWREx_EnableSRAMContentRetention,"ax",%progbits
ARM GAS  C:\Users\upo\AppData\Local\Temp\ccTc2A2n.s 			page 46


 1482              		.align	1
 1483              		.global	HAL_PWREx_EnableSRAMContentRetention
 1484              		.syntax unified
 1485              		.code	16
 1486              		.thumb_func
 1488              	HAL_PWREx_EnableSRAMContentRetention:
 1489              	.LFB357:
 944:Drivers/STM32U0xx_HAL_Driver/Src/stm32u0xx_hal_pwr_ex.c **** /**
 945:Drivers/STM32U0xx_HAL_Driver/Src/stm32u0xx_hal_pwr_ex.c ****   * @}
 946:Drivers/STM32U0xx_HAL_Driver/Src/stm32u0xx_hal_pwr_ex.c ****   */
 947:Drivers/STM32U0xx_HAL_Driver/Src/stm32u0xx_hal_pwr_ex.c **** 
 948:Drivers/STM32U0xx_HAL_Driver/Src/stm32u0xx_hal_pwr_ex.c **** /** @defgroup PWREx_Exported_Functions_Group4 Memories Retention Functions
 949:Drivers/STM32U0xx_HAL_Driver/Src/stm32u0xx_hal_pwr_ex.c ****   * @brief    Memories retention functions
 950:Drivers/STM32U0xx_HAL_Driver/Src/stm32u0xx_hal_pwr_ex.c ****   *
 951:Drivers/STM32U0xx_HAL_Driver/Src/stm32u0xx_hal_pwr_ex.c **** @verbatim
 952:Drivers/STM32U0xx_HAL_Driver/Src/stm32u0xx_hal_pwr_ex.c ****  ===============================================================================
 953:Drivers/STM32U0xx_HAL_Driver/Src/stm32u0xx_hal_pwr_ex.c ****                      ##### Memories Retention Functions #####
 954:Drivers/STM32U0xx_HAL_Driver/Src/stm32u0xx_hal_pwr_ex.c ****  ===============================================================================
 955:Drivers/STM32U0xx_HAL_Driver/Src/stm32u0xx_hal_pwr_ex.c ****     [..]
 956:Drivers/STM32U0xx_HAL_Driver/Src/stm32u0xx_hal_pwr_ex.c ****       Several STM32U0 devices RAM are configurable to keep / lose RAMs content
 957:Drivers/STM32U0xx_HAL_Driver/Src/stm32u0xx_hal_pwr_ex.c ****       during Stop mode (Stop 0/1/2).
 958:Drivers/STM32U0xx_HAL_Driver/Src/stm32u0xx_hal_pwr_ex.c ****        (+) Retained content RAM in Stop modes are :
 959:Drivers/STM32U0xx_HAL_Driver/Src/stm32u0xx_hal_pwr_ex.c ****              (++) SRAM
 960:Drivers/STM32U0xx_HAL_Driver/Src/stm32u0xx_hal_pwr_ex.c **** 
 961:Drivers/STM32U0xx_HAL_Driver/Src/stm32u0xx_hal_pwr_ex.c **** @endverbatim
 962:Drivers/STM32U0xx_HAL_Driver/Src/stm32u0xx_hal_pwr_ex.c ****   * @{
 963:Drivers/STM32U0xx_HAL_Driver/Src/stm32u0xx_hal_pwr_ex.c ****   */
 964:Drivers/STM32U0xx_HAL_Driver/Src/stm32u0xx_hal_pwr_ex.c **** 
 965:Drivers/STM32U0xx_HAL_Driver/Src/stm32u0xx_hal_pwr_ex.c **** /**
 966:Drivers/STM32U0xx_HAL_Driver/Src/stm32u0xx_hal_pwr_ex.c ****   * @brief Enable Full SRAM content retention in Standby mode.
 967:Drivers/STM32U0xx_HAL_Driver/Src/stm32u0xx_hal_pwr_ex.c ****   * @retval None
 968:Drivers/STM32U0xx_HAL_Driver/Src/stm32u0xx_hal_pwr_ex.c ****   */
 969:Drivers/STM32U0xx_HAL_Driver/Src/stm32u0xx_hal_pwr_ex.c **** void HAL_PWREx_EnableSRAMContentRetention(void)
 970:Drivers/STM32U0xx_HAL_Driver/Src/stm32u0xx_hal_pwr_ex.c **** {
 1490              		.loc 1 970 1 is_stmt 1 view -0
 1491              		.cfi_startproc
 1492              		@ args = 0, pretend = 0, frame = 0
 1493              		@ frame_needed = 0, uses_anonymous_args = 0
 1494              		@ link register save eliminated.
 971:Drivers/STM32U0xx_HAL_Driver/Src/stm32u0xx_hal_pwr_ex.c ****   MODIFY_REG(PWR->CR3, PWR_CR3_RRS, PWR_FULL_SRAM_RETENTION);
 1495              		.loc 1 971 3 view .LVU301
 1496 0000 034A     		ldr	r2, .L141
 1497 0002 9168     		ldr	r1, [r2, #8]
 1498 0004 8023     		movs	r3, #128
 1499 0006 5B00     		lsls	r3, r3, #1
 1500 0008 0B43     		orrs	r3, r1
 1501 000a 9360     		str	r3, [r2, #8]
 972:Drivers/STM32U0xx_HAL_Driver/Src/stm32u0xx_hal_pwr_ex.c **** }
 1502              		.loc 1 972 1 is_stmt 0 view .LVU302
 1503              		@ sp needed
 1504 000c 7047     		bx	lr
 1505              	.L142:
 1506 000e C046     		.align	2
 1507              	.L141:
 1508 0010 00700040 		.word	1073770496
 1509              		.cfi_endproc
 1510              	.LFE357:
ARM GAS  C:\Users\upo\AppData\Local\Temp\ccTc2A2n.s 			page 47


 1512              		.section	.text.HAL_PWREx_DisableSRAMContentRetention,"ax",%progbits
 1513              		.align	1
 1514              		.global	HAL_PWREx_DisableSRAMContentRetention
 1515              		.syntax unified
 1516              		.code	16
 1517              		.thumb_func
 1519              	HAL_PWREx_DisableSRAMContentRetention:
 1520              	.LFB358:
 973:Drivers/STM32U0xx_HAL_Driver/Src/stm32u0xx_hal_pwr_ex.c **** 
 974:Drivers/STM32U0xx_HAL_Driver/Src/stm32u0xx_hal_pwr_ex.c **** /**
 975:Drivers/STM32U0xx_HAL_Driver/Src/stm32u0xx_hal_pwr_ex.c ****   * @brief Disable SRAM content retention in Standby mode.
 976:Drivers/STM32U0xx_HAL_Driver/Src/stm32u0xx_hal_pwr_ex.c ****   * @retval None
 977:Drivers/STM32U0xx_HAL_Driver/Src/stm32u0xx_hal_pwr_ex.c ****   */
 978:Drivers/STM32U0xx_HAL_Driver/Src/stm32u0xx_hal_pwr_ex.c **** void HAL_PWREx_DisableSRAMContentRetention(void)
 979:Drivers/STM32U0xx_HAL_Driver/Src/stm32u0xx_hal_pwr_ex.c **** {
 1521              		.loc 1 979 1 is_stmt 1 view -0
 1522              		.cfi_startproc
 1523              		@ args = 0, pretend = 0, frame = 0
 1524              		@ frame_needed = 0, uses_anonymous_args = 0
 1525              		@ link register save eliminated.
 980:Drivers/STM32U0xx_HAL_Driver/Src/stm32u0xx_hal_pwr_ex.c ****   CLEAR_BIT(PWR->CR3, PWR_CR3_RRS);
 1526              		.loc 1 980 3 view .LVU304
 1527 0000 024A     		ldr	r2, .L144
 1528 0002 9368     		ldr	r3, [r2, #8]
 1529 0004 0249     		ldr	r1, .L144+4
 1530 0006 0B40     		ands	r3, r1
 1531 0008 9360     		str	r3, [r2, #8]
 981:Drivers/STM32U0xx_HAL_Driver/Src/stm32u0xx_hal_pwr_ex.c **** }
 1532              		.loc 1 981 1 is_stmt 0 view .LVU305
 1533              		@ sp needed
 1534 000a 7047     		bx	lr
 1535              	.L145:
 1536              		.align	2
 1537              	.L144:
 1538 000c 00700040 		.word	1073770496
 1539 0010 FFFEFFFF 		.word	-257
 1540              		.cfi_endproc
 1541              	.LFE358:
 1543              		.section	.text.HAL_PWREx_EnableFlashPowerDown,"ax",%progbits
 1544              		.align	1
 1545              		.global	HAL_PWREx_EnableFlashPowerDown
 1546              		.syntax unified
 1547              		.code	16
 1548              		.thumb_func
 1550              	HAL_PWREx_EnableFlashPowerDown:
 1551              	.LVL46:
 1552              	.LFB359:
 982:Drivers/STM32U0xx_HAL_Driver/Src/stm32u0xx_hal_pwr_ex.c **** 
 983:Drivers/STM32U0xx_HAL_Driver/Src/stm32u0xx_hal_pwr_ex.c **** /**
 984:Drivers/STM32U0xx_HAL_Driver/Src/stm32u0xx_hal_pwr_ex.c ****   * @brief  Enable Flash Power Down.
 985:Drivers/STM32U0xx_HAL_Driver/Src/stm32u0xx_hal_pwr_ex.c ****   * @note   This API allows to enable flash power down capabilities in low power
 986:Drivers/STM32U0xx_HAL_Driver/Src/stm32u0xx_hal_pwr_ex.c ****   *         run, low power sleep and stop modes.
 987:Drivers/STM32U0xx_HAL_Driver/Src/stm32u0xx_hal_pwr_ex.c ****   * @param  PowerMode this can be a combination of following values:
 988:Drivers/STM32U0xx_HAL_Driver/Src/stm32u0xx_hal_pwr_ex.c ****   *           @arg @ref PWR_FLASHPD_LPRUN
 989:Drivers/STM32U0xx_HAL_Driver/Src/stm32u0xx_hal_pwr_ex.c ****   *           @arg @ref PWR_FLASHPD_LPSLEEP
 990:Drivers/STM32U0xx_HAL_Driver/Src/stm32u0xx_hal_pwr_ex.c ****   *           @arg @ref PWR_FLASHPD_STOP
 991:Drivers/STM32U0xx_HAL_Driver/Src/stm32u0xx_hal_pwr_ex.c ****   * @retval None
ARM GAS  C:\Users\upo\AppData\Local\Temp\ccTc2A2n.s 			page 48


 992:Drivers/STM32U0xx_HAL_Driver/Src/stm32u0xx_hal_pwr_ex.c ****   */
 993:Drivers/STM32U0xx_HAL_Driver/Src/stm32u0xx_hal_pwr_ex.c **** void HAL_PWREx_EnableFlashPowerDown(uint32_t PowerMode)
 994:Drivers/STM32U0xx_HAL_Driver/Src/stm32u0xx_hal_pwr_ex.c **** {
 1553              		.loc 1 994 1 is_stmt 1 view -0
 1554              		.cfi_startproc
 1555              		@ args = 0, pretend = 0, frame = 0
 1556              		@ frame_needed = 0, uses_anonymous_args = 0
 1557              		@ link register save eliminated.
 995:Drivers/STM32U0xx_HAL_Driver/Src/stm32u0xx_hal_pwr_ex.c ****   assert_param(IS_PWR_FLASH_POWERDOWN(PowerMode));
 1558              		.loc 1 995 3 view .LVU307
 996:Drivers/STM32U0xx_HAL_Driver/Src/stm32u0xx_hal_pwr_ex.c **** 
 997:Drivers/STM32U0xx_HAL_Driver/Src/stm32u0xx_hal_pwr_ex.c ****   PWR->CR1 |= PowerMode;
 1559              		.loc 1 997 3 view .LVU308
 1560              		.loc 1 997 6 is_stmt 0 view .LVU309
 1561 0000 024A     		ldr	r2, .L147
 1562 0002 1368     		ldr	r3, [r2]
 1563              		.loc 1 997 12 view .LVU310
 1564 0004 0343     		orrs	r3, r0
 1565 0006 1360     		str	r3, [r2]
 998:Drivers/STM32U0xx_HAL_Driver/Src/stm32u0xx_hal_pwr_ex.c **** }
 1566              		.loc 1 998 1 view .LVU311
 1567              		@ sp needed
 1568 0008 7047     		bx	lr
 1569              	.L148:
 1570 000a C046     		.align	2
 1571              	.L147:
 1572 000c 00700040 		.word	1073770496
 1573              		.cfi_endproc
 1574              	.LFE359:
 1576              		.section	.text.HAL_PWREx_DisableFlashPowerDown,"ax",%progbits
 1577              		.align	1
 1578              		.global	HAL_PWREx_DisableFlashPowerDown
 1579              		.syntax unified
 1580              		.code	16
 1581              		.thumb_func
 1583              	HAL_PWREx_DisableFlashPowerDown:
 1584              	.LVL47:
 1585              	.LFB360:
 999:Drivers/STM32U0xx_HAL_Driver/Src/stm32u0xx_hal_pwr_ex.c **** 
1000:Drivers/STM32U0xx_HAL_Driver/Src/stm32u0xx_hal_pwr_ex.c **** /**
1001:Drivers/STM32U0xx_HAL_Driver/Src/stm32u0xx_hal_pwr_ex.c ****   * @brief  Disable Flash Power Down.
1002:Drivers/STM32U0xx_HAL_Driver/Src/stm32u0xx_hal_pwr_ex.c ****   * @note   This API allows to disable flash power down capabilities in low power
1003:Drivers/STM32U0xx_HAL_Driver/Src/stm32u0xx_hal_pwr_ex.c ****   *         run, low power sleep and stop modes.
1004:Drivers/STM32U0xx_HAL_Driver/Src/stm32u0xx_hal_pwr_ex.c ****   * @param  PowerMode this can be a combination of following values:
1005:Drivers/STM32U0xx_HAL_Driver/Src/stm32u0xx_hal_pwr_ex.c ****   *           @arg @ref PWR_FLASHPD_LPRUN
1006:Drivers/STM32U0xx_HAL_Driver/Src/stm32u0xx_hal_pwr_ex.c ****   *           @arg @ref PWR_FLASHPD_LPSLEEP
1007:Drivers/STM32U0xx_HAL_Driver/Src/stm32u0xx_hal_pwr_ex.c ****   *           @arg @ref PWR_FLASHPD_STOP
1008:Drivers/STM32U0xx_HAL_Driver/Src/stm32u0xx_hal_pwr_ex.c ****   * @retval None
1009:Drivers/STM32U0xx_HAL_Driver/Src/stm32u0xx_hal_pwr_ex.c ****   */
1010:Drivers/STM32U0xx_HAL_Driver/Src/stm32u0xx_hal_pwr_ex.c **** void HAL_PWREx_DisableFlashPowerDown(uint32_t PowerMode)
1011:Drivers/STM32U0xx_HAL_Driver/Src/stm32u0xx_hal_pwr_ex.c **** {
 1586              		.loc 1 1011 1 is_stmt 1 view -0
 1587              		.cfi_startproc
 1588              		@ args = 0, pretend = 0, frame = 0
 1589              		@ frame_needed = 0, uses_anonymous_args = 0
 1590              		@ link register save eliminated.
1012:Drivers/STM32U0xx_HAL_Driver/Src/stm32u0xx_hal_pwr_ex.c ****   assert_param(IS_PWR_FLASH_POWERDOWN(PowerMode));
ARM GAS  C:\Users\upo\AppData\Local\Temp\ccTc2A2n.s 			page 49


 1591              		.loc 1 1012 3 view .LVU313
1013:Drivers/STM32U0xx_HAL_Driver/Src/stm32u0xx_hal_pwr_ex.c **** 
1014:Drivers/STM32U0xx_HAL_Driver/Src/stm32u0xx_hal_pwr_ex.c ****   PWR->CR1 &= ~PowerMode;
 1592              		.loc 1 1014 3 view .LVU314
 1593              		.loc 1 1014 6 is_stmt 0 view .LVU315
 1594 0000 024A     		ldr	r2, .L150
 1595 0002 1368     		ldr	r3, [r2]
 1596              		.loc 1 1014 12 view .LVU316
 1597 0004 8343     		bics	r3, r0
 1598 0006 1360     		str	r3, [r2]
1015:Drivers/STM32U0xx_HAL_Driver/Src/stm32u0xx_hal_pwr_ex.c **** }
 1599              		.loc 1 1015 1 view .LVU317
 1600              		@ sp needed
 1601 0008 7047     		bx	lr
 1602              	.L151:
 1603 000a C046     		.align	2
 1604              	.L150:
 1605 000c 00700040 		.word	1073770496
 1606              		.cfi_endproc
 1607              	.LFE360:
 1609              		.section	.text.HAL_PWREx_EnableUltraLowPowerMode,"ax",%progbits
 1610              		.align	1
 1611              		.global	HAL_PWREx_EnableUltraLowPowerMode
 1612              		.syntax unified
 1613              		.code	16
 1614              		.thumb_func
 1616              	HAL_PWREx_EnableUltraLowPowerMode:
 1617              	.LFB361:
1016:Drivers/STM32U0xx_HAL_Driver/Src/stm32u0xx_hal_pwr_ex.c **** 
1017:Drivers/STM32U0xx_HAL_Driver/Src/stm32u0xx_hal_pwr_ex.c **** /**
1018:Drivers/STM32U0xx_HAL_Driver/Src/stm32u0xx_hal_pwr_ex.c ****   * @brief Enable Ultra Low Power BORL, BORH and PVD for STOP2 and Standby modes.
1019:Drivers/STM32U0xx_HAL_Driver/Src/stm32u0xx_hal_pwr_ex.c ****   * @note  All the other modes are not affected by this bit.
1020:Drivers/STM32U0xx_HAL_Driver/Src/stm32u0xx_hal_pwr_ex.c ****   * @retval None
1021:Drivers/STM32U0xx_HAL_Driver/Src/stm32u0xx_hal_pwr_ex.c ****   */
1022:Drivers/STM32U0xx_HAL_Driver/Src/stm32u0xx_hal_pwr_ex.c **** void HAL_PWREx_EnableUltraLowPowerMode(void)
1023:Drivers/STM32U0xx_HAL_Driver/Src/stm32u0xx_hal_pwr_ex.c **** {
 1618              		.loc 1 1023 1 is_stmt 1 view -0
 1619              		.cfi_startproc
 1620              		@ args = 0, pretend = 0, frame = 0
 1621              		@ frame_needed = 0, uses_anonymous_args = 0
 1622              		@ link register save eliminated.
1024:Drivers/STM32U0xx_HAL_Driver/Src/stm32u0xx_hal_pwr_ex.c ****   SET_BIT(PWR->CR3, PWR_CR3_ENULP);
 1623              		.loc 1 1024 3 view .LVU319
 1624 0000 034A     		ldr	r2, .L153
 1625 0002 9168     		ldr	r1, [r2, #8]
 1626 0004 8023     		movs	r3, #128
 1627 0006 9B00     		lsls	r3, r3, #2
 1628 0008 0B43     		orrs	r3, r1
 1629 000a 9360     		str	r3, [r2, #8]
1025:Drivers/STM32U0xx_HAL_Driver/Src/stm32u0xx_hal_pwr_ex.c **** }
 1630              		.loc 1 1025 1 is_stmt 0 view .LVU320
 1631              		@ sp needed
 1632 000c 7047     		bx	lr
 1633              	.L154:
 1634 000e C046     		.align	2
 1635              	.L153:
 1636 0010 00700040 		.word	1073770496
ARM GAS  C:\Users\upo\AppData\Local\Temp\ccTc2A2n.s 			page 50


 1637              		.cfi_endproc
 1638              	.LFE361:
 1640              		.section	.text.HAL_PWREx_DisableUltraLowPowerMode,"ax",%progbits
 1641              		.align	1
 1642              		.global	HAL_PWREx_DisableUltraLowPowerMode
 1643              		.syntax unified
 1644              		.code	16
 1645              		.thumb_func
 1647              	HAL_PWREx_DisableUltraLowPowerMode:
 1648              	.LFB362:
1026:Drivers/STM32U0xx_HAL_Driver/Src/stm32u0xx_hal_pwr_ex.c **** 
1027:Drivers/STM32U0xx_HAL_Driver/Src/stm32u0xx_hal_pwr_ex.c **** /**
1028:Drivers/STM32U0xx_HAL_Driver/Src/stm32u0xx_hal_pwr_ex.c ****   * @brief Disable Ultra Low Power BORL, BORH and PVD for STOP2 and Standby modes.
1029:Drivers/STM32U0xx_HAL_Driver/Src/stm32u0xx_hal_pwr_ex.c ****   * @note  All the other modes are not affected by this bit
1030:Drivers/STM32U0xx_HAL_Driver/Src/stm32u0xx_hal_pwr_ex.c ****   * @retval None
1031:Drivers/STM32U0xx_HAL_Driver/Src/stm32u0xx_hal_pwr_ex.c ****   */
1032:Drivers/STM32U0xx_HAL_Driver/Src/stm32u0xx_hal_pwr_ex.c **** void HAL_PWREx_DisableUltraLowPowerMode(void)
1033:Drivers/STM32U0xx_HAL_Driver/Src/stm32u0xx_hal_pwr_ex.c **** {
 1649              		.loc 1 1033 1 is_stmt 1 view -0
 1650              		.cfi_startproc
 1651              		@ args = 0, pretend = 0, frame = 0
 1652              		@ frame_needed = 0, uses_anonymous_args = 0
 1653              		@ link register save eliminated.
1034:Drivers/STM32U0xx_HAL_Driver/Src/stm32u0xx_hal_pwr_ex.c ****   CLEAR_BIT(PWR->CR3, PWR_CR3_ENULP);
 1654              		.loc 1 1034 3 view .LVU322
 1655 0000 024A     		ldr	r2, .L156
 1656 0002 9368     		ldr	r3, [r2, #8]
 1657 0004 0249     		ldr	r1, .L156+4
 1658 0006 0B40     		ands	r3, r1
 1659 0008 9360     		str	r3, [r2, #8]
1035:Drivers/STM32U0xx_HAL_Driver/Src/stm32u0xx_hal_pwr_ex.c **** }
 1660              		.loc 1 1035 1 is_stmt 0 view .LVU323
 1661              		@ sp needed
 1662 000a 7047     		bx	lr
 1663              	.L157:
 1664              		.align	2
 1665              	.L156:
 1666 000c 00700040 		.word	1073770496
 1667 0010 FFFDFFFF 		.word	-513
 1668              		.cfi_endproc
 1669              	.LFE362:
 1671              		.section	.text.HAL_PWREx_EnablePullUpPullDownConfig,"ax",%progbits
 1672              		.align	1
 1673              		.global	HAL_PWREx_EnablePullUpPullDownConfig
 1674              		.syntax unified
 1675              		.code	16
 1676              		.thumb_func
 1678              	HAL_PWREx_EnablePullUpPullDownConfig:
 1679              	.LFB363:
1036:Drivers/STM32U0xx_HAL_Driver/Src/stm32u0xx_hal_pwr_ex.c **** /**
1037:Drivers/STM32U0xx_HAL_Driver/Src/stm32u0xx_hal_pwr_ex.c ****   * @}
1038:Drivers/STM32U0xx_HAL_Driver/Src/stm32u0xx_hal_pwr_ex.c ****   */
1039:Drivers/STM32U0xx_HAL_Driver/Src/stm32u0xx_hal_pwr_ex.c **** 
1040:Drivers/STM32U0xx_HAL_Driver/Src/stm32u0xx_hal_pwr_ex.c **** /** @defgroup PWREx_Exported_Functions_Group5 I/O Pull-Up Pull-Down Configuration Functions
1041:Drivers/STM32U0xx_HAL_Driver/Src/stm32u0xx_hal_pwr_ex.c ****   * @brief    I/O pull-up / pull-down configuration functions
1042:Drivers/STM32U0xx_HAL_Driver/Src/stm32u0xx_hal_pwr_ex.c ****   *
1043:Drivers/STM32U0xx_HAL_Driver/Src/stm32u0xx_hal_pwr_ex.c **** @verbatim
ARM GAS  C:\Users\upo\AppData\Local\Temp\ccTc2A2n.s 			page 51


1044:Drivers/STM32U0xx_HAL_Driver/Src/stm32u0xx_hal_pwr_ex.c ****  ===============================================================================
1045:Drivers/STM32U0xx_HAL_Driver/Src/stm32u0xx_hal_pwr_ex.c ****               ##### Pull-Up Pull-Down Configuration Functions #####
1046:Drivers/STM32U0xx_HAL_Driver/Src/stm32u0xx_hal_pwr_ex.c ****  ===============================================================================
1047:Drivers/STM32U0xx_HAL_Driver/Src/stm32u0xx_hal_pwr_ex.c ****     [..]
1048:Drivers/STM32U0xx_HAL_Driver/Src/stm32u0xx_hal_pwr_ex.c ****       In Standby and Shutdown mode, pull up and pull down can be configured to
1049:Drivers/STM32U0xx_HAL_Driver/Src/stm32u0xx_hal_pwr_ex.c ****       maintain an I/O in the selected state. If the APC bit in the PWR_APCR
1050:Drivers/STM32U0xx_HAL_Driver/Src/stm32u0xx_hal_pwr_ex.c ****       register is set, the I/Os can be configured either with a pull-up through
1051:Drivers/STM32U0xx_HAL_Driver/Src/stm32u0xx_hal_pwr_ex.c ****       PWR_PUCRx registers (x=A,B,C,D,E,F), or with a pull-down through
1052:Drivers/STM32U0xx_HAL_Driver/Src/stm32u0xx_hal_pwr_ex.c ****       PWR_PDCRx registers (x=A,B,C,D,E,F), or can be kept in analog state
1053:Drivers/STM32U0xx_HAL_Driver/Src/stm32u0xx_hal_pwr_ex.c ****       if none of the PWR_PUCRx or PWR_PDCRx register is set.
1054:Drivers/STM32U0xx_HAL_Driver/Src/stm32u0xx_hal_pwr_ex.c **** 
1055:Drivers/STM32U0xx_HAL_Driver/Src/stm32u0xx_hal_pwr_ex.c ****     [..]
1056:Drivers/STM32U0xx_HAL_Driver/Src/stm32u0xx_hal_pwr_ex.c ****       The pull-down configuration has highest priority over pull-up
1057:Drivers/STM32U0xx_HAL_Driver/Src/stm32u0xx_hal_pwr_ex.c ****       configuration in case both PWR_PUCRx and PWR_PDCRx are set for the same
1058:Drivers/STM32U0xx_HAL_Driver/Src/stm32u0xx_hal_pwr_ex.c ****       I/O.
1059:Drivers/STM32U0xx_HAL_Driver/Src/stm32u0xx_hal_pwr_ex.c ****       This configuration is lost when exiting the Shutdown but not from Standby
1060:Drivers/STM32U0xx_HAL_Driver/Src/stm32u0xx_hal_pwr_ex.c ****       mode.
1061:Drivers/STM32U0xx_HAL_Driver/Src/stm32u0xx_hal_pwr_ex.c **** 
1062:Drivers/STM32U0xx_HAL_Driver/Src/stm32u0xx_hal_pwr_ex.c **** @endverbatim
1063:Drivers/STM32U0xx_HAL_Driver/Src/stm32u0xx_hal_pwr_ex.c ****   * @{
1064:Drivers/STM32U0xx_HAL_Driver/Src/stm32u0xx_hal_pwr_ex.c ****   */
1065:Drivers/STM32U0xx_HAL_Driver/Src/stm32u0xx_hal_pwr_ex.c **** 
1066:Drivers/STM32U0xx_HAL_Driver/Src/stm32u0xx_hal_pwr_ex.c **** /**
1067:Drivers/STM32U0xx_HAL_Driver/Src/stm32u0xx_hal_pwr_ex.c ****   * @brief Enable pull-up and pull-down configuration.
1068:Drivers/STM32U0xx_HAL_Driver/Src/stm32u0xx_hal_pwr_ex.c ****   * @note  When APC bit is set, the I/O pull-up and pull-down configurations defined in
1069:Drivers/STM32U0xx_HAL_Driver/Src/stm32u0xx_hal_pwr_ex.c ****   *        PWR_PUCRx and PWR_PDCRx registers are applied in Standby and Shutdown modes.
1070:Drivers/STM32U0xx_HAL_Driver/Src/stm32u0xx_hal_pwr_ex.c ****   * @note  Pull-up set by PUy bit of PWR_PUCRx register is not activated if the corresponding
1071:Drivers/STM32U0xx_HAL_Driver/Src/stm32u0xx_hal_pwr_ex.c ****   *        PDy bit of PWR_PDCRx register is also set (pull-down configuration priority is higher).
1072:Drivers/STM32U0xx_HAL_Driver/Src/stm32u0xx_hal_pwr_ex.c ****   *        HAL_PWREx_EnableGPIOPullUp() and HAL_PWREx_EnableGPIOPullDown() API's ensure there
1073:Drivers/STM32U0xx_HAL_Driver/Src/stm32u0xx_hal_pwr_ex.c ****   *        is no conflict when setting PUy or PDy bit.
1074:Drivers/STM32U0xx_HAL_Driver/Src/stm32u0xx_hal_pwr_ex.c ****   * @retval None
1075:Drivers/STM32U0xx_HAL_Driver/Src/stm32u0xx_hal_pwr_ex.c ****   */
1076:Drivers/STM32U0xx_HAL_Driver/Src/stm32u0xx_hal_pwr_ex.c **** void HAL_PWREx_EnablePullUpPullDownConfig(void)
1077:Drivers/STM32U0xx_HAL_Driver/Src/stm32u0xx_hal_pwr_ex.c **** {
 1680              		.loc 1 1077 1 is_stmt 1 view -0
 1681              		.cfi_startproc
 1682              		@ args = 0, pretend = 0, frame = 0
 1683              		@ frame_needed = 0, uses_anonymous_args = 0
 1684              		@ link register save eliminated.
1078:Drivers/STM32U0xx_HAL_Driver/Src/stm32u0xx_hal_pwr_ex.c ****   SET_BIT(PWR->CR3, PWR_CR3_APC);
 1685              		.loc 1 1078 3 view .LVU325
 1686 0000 034A     		ldr	r2, .L159
 1687 0002 9168     		ldr	r1, [r2, #8]
 1688 0004 8023     		movs	r3, #128
 1689 0006 DB00     		lsls	r3, r3, #3
 1690 0008 0B43     		orrs	r3, r1
 1691 000a 9360     		str	r3, [r2, #8]
1079:Drivers/STM32U0xx_HAL_Driver/Src/stm32u0xx_hal_pwr_ex.c **** }
 1692              		.loc 1 1079 1 is_stmt 0 view .LVU326
 1693              		@ sp needed
 1694 000c 7047     		bx	lr
 1695              	.L160:
 1696 000e C046     		.align	2
 1697              	.L159:
 1698 0010 00700040 		.word	1073770496
 1699              		.cfi_endproc
 1700              	.LFE363:
ARM GAS  C:\Users\upo\AppData\Local\Temp\ccTc2A2n.s 			page 52


 1702              		.section	.text.HAL_PWREx_DisablePullUpPullDownConfig,"ax",%progbits
 1703              		.align	1
 1704              		.global	HAL_PWREx_DisablePullUpPullDownConfig
 1705              		.syntax unified
 1706              		.code	16
 1707              		.thumb_func
 1709              	HAL_PWREx_DisablePullUpPullDownConfig:
 1710              	.LFB364:
1080:Drivers/STM32U0xx_HAL_Driver/Src/stm32u0xx_hal_pwr_ex.c **** 
1081:Drivers/STM32U0xx_HAL_Driver/Src/stm32u0xx_hal_pwr_ex.c **** /**
1082:Drivers/STM32U0xx_HAL_Driver/Src/stm32u0xx_hal_pwr_ex.c ****   * @brief Disable pull-up and pull-down configuration.
1083:Drivers/STM32U0xx_HAL_Driver/Src/stm32u0xx_hal_pwr_ex.c ****   * @note  When APC bit is cleared, the I/O pull-up and pull-down configurations defined in
1084:Drivers/STM32U0xx_HAL_Driver/Src/stm32u0xx_hal_pwr_ex.c ****   *        PWR_PUCRx and PWR_PDCRx registers are not applied in Standby and Shutdown modes.
1085:Drivers/STM32U0xx_HAL_Driver/Src/stm32u0xx_hal_pwr_ex.c ****   * @retval None
1086:Drivers/STM32U0xx_HAL_Driver/Src/stm32u0xx_hal_pwr_ex.c ****   */
1087:Drivers/STM32U0xx_HAL_Driver/Src/stm32u0xx_hal_pwr_ex.c **** void HAL_PWREx_DisablePullUpPullDownConfig(void)
1088:Drivers/STM32U0xx_HAL_Driver/Src/stm32u0xx_hal_pwr_ex.c **** {
 1711              		.loc 1 1088 1 is_stmt 1 view -0
 1712              		.cfi_startproc
 1713              		@ args = 0, pretend = 0, frame = 0
 1714              		@ frame_needed = 0, uses_anonymous_args = 0
 1715              		@ link register save eliminated.
1089:Drivers/STM32U0xx_HAL_Driver/Src/stm32u0xx_hal_pwr_ex.c ****   CLEAR_BIT(PWR->CR3, PWR_CR3_APC);
 1716              		.loc 1 1089 3 view .LVU328
 1717 0000 024A     		ldr	r2, .L162
 1718 0002 9368     		ldr	r3, [r2, #8]
 1719 0004 0249     		ldr	r1, .L162+4
 1720 0006 0B40     		ands	r3, r1
 1721 0008 9360     		str	r3, [r2, #8]
1090:Drivers/STM32U0xx_HAL_Driver/Src/stm32u0xx_hal_pwr_ex.c **** }
 1722              		.loc 1 1090 1 is_stmt 0 view .LVU329
 1723              		@ sp needed
 1724 000a 7047     		bx	lr
 1725              	.L163:
 1726              		.align	2
 1727              	.L162:
 1728 000c 00700040 		.word	1073770496
 1729 0010 FFFBFFFF 		.word	-1025
 1730              		.cfi_endproc
 1731              	.LFE364:
 1733              		.section	.text.HAL_PWREx_EnableGPIOPullUp,"ax",%progbits
 1734              		.align	1
 1735              		.global	HAL_PWREx_EnableGPIOPullUp
 1736              		.syntax unified
 1737              		.code	16
 1738              		.thumb_func
 1740              	HAL_PWREx_EnableGPIOPullUp:
 1741              	.LVL48:
 1742              	.LFB365:
1091:Drivers/STM32U0xx_HAL_Driver/Src/stm32u0xx_hal_pwr_ex.c **** /**
1092:Drivers/STM32U0xx_HAL_Driver/Src/stm32u0xx_hal_pwr_ex.c ****   * @}
1093:Drivers/STM32U0xx_HAL_Driver/Src/stm32u0xx_hal_pwr_ex.c ****   */
1094:Drivers/STM32U0xx_HAL_Driver/Src/stm32u0xx_hal_pwr_ex.c **** 
1095:Drivers/STM32U0xx_HAL_Driver/Src/stm32u0xx_hal_pwr_ex.c **** /**
1096:Drivers/STM32U0xx_HAL_Driver/Src/stm32u0xx_hal_pwr_ex.c ****   * @brief Enable GPIO pull-up state in Standby and Shutdown modes.
1097:Drivers/STM32U0xx_HAL_Driver/Src/stm32u0xx_hal_pwr_ex.c ****   * @note  Set the relevant PUy bits of PWR_PUCRx register to configure the I/O in
1098:Drivers/STM32U0xx_HAL_Driver/Src/stm32u0xx_hal_pwr_ex.c ****   *        pull-up state in Standby and Shutdown modes.
ARM GAS  C:\Users\upo\AppData\Local\Temp\ccTc2A2n.s 			page 53


1099:Drivers/STM32U0xx_HAL_Driver/Src/stm32u0xx_hal_pwr_ex.c ****   * @note  This state is effective in Standby and Shutdown modes only if APC bit
1100:Drivers/STM32U0xx_HAL_Driver/Src/stm32u0xx_hal_pwr_ex.c ****   *        is set through HAL_PWREx_EnablePullUpPullDownConfig() API.
1101:Drivers/STM32U0xx_HAL_Driver/Src/stm32u0xx_hal_pwr_ex.c ****   * @note  The configuration is lost when exiting the Shutdown mode due to the
1102:Drivers/STM32U0xx_HAL_Driver/Src/stm32u0xx_hal_pwr_ex.c ****   *        power-on reset, maintained when exiting the Standby mode.
1103:Drivers/STM32U0xx_HAL_Driver/Src/stm32u0xx_hal_pwr_ex.c ****   * @note  To avoid any conflict at Standby and Shutdown modes exits, the corresponding
1104:Drivers/STM32U0xx_HAL_Driver/Src/stm32u0xx_hal_pwr_ex.c ****   *        PDy bit of PWR_PDCRx register is cleared unless it is reserved.
1105:Drivers/STM32U0xx_HAL_Driver/Src/stm32u0xx_hal_pwr_ex.c ****   * @note  Even if a PUy bit to set is reserved, the other PUy bits entered as input
1106:Drivers/STM32U0xx_HAL_Driver/Src/stm32u0xx_hal_pwr_ex.c ****   *        parameter at the same time are set.
1107:Drivers/STM32U0xx_HAL_Driver/Src/stm32u0xx_hal_pwr_ex.c ****   * @param  GPIO_Port Specify the IO port. This parameter can be PWR_GPIO_A, ..., PWR_GPIO_H
1108:Drivers/STM32U0xx_HAL_Driver/Src/stm32u0xx_hal_pwr_ex.c ****   *         (or PWR_GPIO_I depending on the devices) to select the GPIO peripheral.
1109:Drivers/STM32U0xx_HAL_Driver/Src/stm32u0xx_hal_pwr_ex.c ****   * @param  GPIO_Pin Specify the I/O pins numbers.
1110:Drivers/STM32U0xx_HAL_Driver/Src/stm32u0xx_hal_pwr_ex.c ****   *         This parameter can be one of the following values:
1111:Drivers/STM32U0xx_HAL_Driver/Src/stm32u0xx_hal_pwr_ex.c ****   *         PWR_GPIO_BIT_0, ..., PWR_GPIO_BIT_15 (except for the port where less
1112:Drivers/STM32U0xx_HAL_Driver/Src/stm32u0xx_hal_pwr_ex.c ****   *         I/O pins are available) or the logical OR of several of them to set
1113:Drivers/STM32U0xx_HAL_Driver/Src/stm32u0xx_hal_pwr_ex.c ****   *         several bits for a given port in a single API call.
1114:Drivers/STM32U0xx_HAL_Driver/Src/stm32u0xx_hal_pwr_ex.c ****   * @retval HAL Status
1115:Drivers/STM32U0xx_HAL_Driver/Src/stm32u0xx_hal_pwr_ex.c ****   */
1116:Drivers/STM32U0xx_HAL_Driver/Src/stm32u0xx_hal_pwr_ex.c **** HAL_StatusTypeDef HAL_PWREx_EnableGPIOPullUp(uint32_t GPIO_Port, uint32_t GPIO_Pin)
1117:Drivers/STM32U0xx_HAL_Driver/Src/stm32u0xx_hal_pwr_ex.c **** {
 1743              		.loc 1 1117 1 is_stmt 1 view -0
 1744              		.cfi_startproc
 1745              		@ args = 0, pretend = 0, frame = 0
 1746              		@ frame_needed = 0, uses_anonymous_args = 0
 1747              		@ link register save eliminated.
1118:Drivers/STM32U0xx_HAL_Driver/Src/stm32u0xx_hal_pwr_ex.c ****   HAL_StatusTypeDef status = HAL_OK;
 1748              		.loc 1 1118 3 view .LVU331
1119:Drivers/STM32U0xx_HAL_Driver/Src/stm32u0xx_hal_pwr_ex.c **** 
1120:Drivers/STM32U0xx_HAL_Driver/Src/stm32u0xx_hal_pwr_ex.c ****   assert_param(IS_PWR_GPIO_PORT(GPIO_Port));
 1749              		.loc 1 1120 3 view .LVU332
1121:Drivers/STM32U0xx_HAL_Driver/Src/stm32u0xx_hal_pwr_ex.c ****   assert_param(IS_PWR_GPIO_PIN_MASK(GPIO_Pin));
 1750              		.loc 1 1121 3 view .LVU333
1122:Drivers/STM32U0xx_HAL_Driver/Src/stm32u0xx_hal_pwr_ex.c **** 
1123:Drivers/STM32U0xx_HAL_Driver/Src/stm32u0xx_hal_pwr_ex.c ****   switch (GPIO_Port)
 1751              		.loc 1 1123 3 view .LVU334
 1752 0000 0528     		cmp	r0, #5
 1753 0002 40D8     		bhi	.L173
 1754 0004 8000     		lsls	r0, r0, #2
 1755              	.LVL49:
 1756              		.loc 1 1123 3 is_stmt 0 view .LVU335
 1757 0006 214B     		ldr	r3, .L174
 1758 0008 1B58     		ldr	r3, [r3, r0]
 1759 000a 9F46     		mov	pc, r3
 1760              		.section	.rodata.HAL_PWREx_EnableGPIOPullUp,"a",%progbits
 1761              		.align	2
 1762              	.L167:
 1763 0000 0C000000 		.word	.L172
 1764 0004 1E000000 		.word	.L171
 1765 0008 30000000 		.word	.L170
 1766 000c 42000000 		.word	.L169
 1767 0010 58000000 		.word	.L168
 1768 0014 70000000 		.word	.L166
 1769              		.section	.text.HAL_PWREx_EnableGPIOPullUp
 1770              	.L172:
1124:Drivers/STM32U0xx_HAL_Driver/Src/stm32u0xx_hal_pwr_ex.c ****   {
1125:Drivers/STM32U0xx_HAL_Driver/Src/stm32u0xx_hal_pwr_ex.c ****     case PWR_GPIO_A:
1126:Drivers/STM32U0xx_HAL_Driver/Src/stm32u0xx_hal_pwr_ex.c ****       SET_BIT(PWR->PUCRA, GPIO_Pin);
 1771              		.loc 1 1126 7 is_stmt 1 view .LVU336
ARM GAS  C:\Users\upo\AppData\Local\Temp\ccTc2A2n.s 			page 54


 1772 000c 204B     		ldr	r3, .L174+4
 1773 000e 1A6A     		ldr	r2, [r3, #32]
 1774 0010 0A43     		orrs	r2, r1
 1775 0012 1A62     		str	r2, [r3, #32]
1127:Drivers/STM32U0xx_HAL_Driver/Src/stm32u0xx_hal_pwr_ex.c ****       CLEAR_BIT(PWR->PDCRA, GPIO_Pin);
 1776              		.loc 1 1127 7 view .LVU337
 1777 0014 5A6A     		ldr	r2, [r3, #36]
 1778 0016 8A43     		bics	r2, r1
 1779 0018 5A62     		str	r2, [r3, #36]
1128:Drivers/STM32U0xx_HAL_Driver/Src/stm32u0xx_hal_pwr_ex.c ****       break;
 1780              		.loc 1 1128 7 view .LVU338
1118:Drivers/STM32U0xx_HAL_Driver/Src/stm32u0xx_hal_pwr_ex.c **** 
 1781              		.loc 1 1118 21 is_stmt 0 view .LVU339
 1782 001a 0020     		movs	r0, #0
 1783              	.LVL50:
 1784              	.L165:
1129:Drivers/STM32U0xx_HAL_Driver/Src/stm32u0xx_hal_pwr_ex.c **** 
1130:Drivers/STM32U0xx_HAL_Driver/Src/stm32u0xx_hal_pwr_ex.c ****     case PWR_GPIO_B:
1131:Drivers/STM32U0xx_HAL_Driver/Src/stm32u0xx_hal_pwr_ex.c ****       SET_BIT(PWR->PUCRB, GPIO_Pin);
1132:Drivers/STM32U0xx_HAL_Driver/Src/stm32u0xx_hal_pwr_ex.c ****       CLEAR_BIT(PWR->PDCRB, GPIO_Pin);
1133:Drivers/STM32U0xx_HAL_Driver/Src/stm32u0xx_hal_pwr_ex.c ****       break;
1134:Drivers/STM32U0xx_HAL_Driver/Src/stm32u0xx_hal_pwr_ex.c **** 
1135:Drivers/STM32U0xx_HAL_Driver/Src/stm32u0xx_hal_pwr_ex.c ****     case PWR_GPIO_C:
1136:Drivers/STM32U0xx_HAL_Driver/Src/stm32u0xx_hal_pwr_ex.c ****       SET_BIT(PWR->PUCRC, GPIO_Pin);
1137:Drivers/STM32U0xx_HAL_Driver/Src/stm32u0xx_hal_pwr_ex.c ****       CLEAR_BIT(PWR->PDCRC, GPIO_Pin);
1138:Drivers/STM32U0xx_HAL_Driver/Src/stm32u0xx_hal_pwr_ex.c ****       break;
1139:Drivers/STM32U0xx_HAL_Driver/Src/stm32u0xx_hal_pwr_ex.c **** 
1140:Drivers/STM32U0xx_HAL_Driver/Src/stm32u0xx_hal_pwr_ex.c ****     case PWR_GPIO_D:
1141:Drivers/STM32U0xx_HAL_Driver/Src/stm32u0xx_hal_pwr_ex.c ****       SET_BIT(PWR->PUCRD, (GPIO_Pin & PWR_PORTD_AVAILABLE_PINS));
1142:Drivers/STM32U0xx_HAL_Driver/Src/stm32u0xx_hal_pwr_ex.c ****       CLEAR_BIT(PWR->PDCRD, (GPIO_Pin & PWR_PORTD_AVAILABLE_PINS));
1143:Drivers/STM32U0xx_HAL_Driver/Src/stm32u0xx_hal_pwr_ex.c ****       break;
1144:Drivers/STM32U0xx_HAL_Driver/Src/stm32u0xx_hal_pwr_ex.c **** 
1145:Drivers/STM32U0xx_HAL_Driver/Src/stm32u0xx_hal_pwr_ex.c **** #if defined (GPIOE)
1146:Drivers/STM32U0xx_HAL_Driver/Src/stm32u0xx_hal_pwr_ex.c ****     case PWR_GPIO_E:
1147:Drivers/STM32U0xx_HAL_Driver/Src/stm32u0xx_hal_pwr_ex.c ****       SET_BIT(PWR->PUCRE, (GPIO_Pin & PWR_PORTE_AVAILABLE_PINS));
1148:Drivers/STM32U0xx_HAL_Driver/Src/stm32u0xx_hal_pwr_ex.c ****       CLEAR_BIT(PWR->PDCRE, (GPIO_Pin & PWR_PORTE_AVAILABLE_PINS));
1149:Drivers/STM32U0xx_HAL_Driver/Src/stm32u0xx_hal_pwr_ex.c ****       break;
1150:Drivers/STM32U0xx_HAL_Driver/Src/stm32u0xx_hal_pwr_ex.c **** #endif /* GPIOE */
1151:Drivers/STM32U0xx_HAL_Driver/Src/stm32u0xx_hal_pwr_ex.c **** 
1152:Drivers/STM32U0xx_HAL_Driver/Src/stm32u0xx_hal_pwr_ex.c ****     case PWR_GPIO_F:
1153:Drivers/STM32U0xx_HAL_Driver/Src/stm32u0xx_hal_pwr_ex.c ****       SET_BIT(PWR->PUCRF, (GPIO_Pin & PWR_PORTF_AVAILABLE_PINS));
1154:Drivers/STM32U0xx_HAL_Driver/Src/stm32u0xx_hal_pwr_ex.c ****       CLEAR_BIT(PWR->PDCRF, (GPIO_Pin & PWR_PORTF_AVAILABLE_PINS));
1155:Drivers/STM32U0xx_HAL_Driver/Src/stm32u0xx_hal_pwr_ex.c ****       break;
1156:Drivers/STM32U0xx_HAL_Driver/Src/stm32u0xx_hal_pwr_ex.c **** 
1157:Drivers/STM32U0xx_HAL_Driver/Src/stm32u0xx_hal_pwr_ex.c ****     default:
1158:Drivers/STM32U0xx_HAL_Driver/Src/stm32u0xx_hal_pwr_ex.c ****       status = HAL_ERROR;
1159:Drivers/STM32U0xx_HAL_Driver/Src/stm32u0xx_hal_pwr_ex.c ****       break;
1160:Drivers/STM32U0xx_HAL_Driver/Src/stm32u0xx_hal_pwr_ex.c ****   }
1161:Drivers/STM32U0xx_HAL_Driver/Src/stm32u0xx_hal_pwr_ex.c **** 
1162:Drivers/STM32U0xx_HAL_Driver/Src/stm32u0xx_hal_pwr_ex.c ****   return status;
 1785              		.loc 1 1162 3 is_stmt 1 view .LVU340
1163:Drivers/STM32U0xx_HAL_Driver/Src/stm32u0xx_hal_pwr_ex.c **** }
 1786              		.loc 1 1163 1 is_stmt 0 view .LVU341
 1787              		@ sp needed
 1788 001c 7047     		bx	lr
 1789              	.LVL51:
 1790              	.L171:
ARM GAS  C:\Users\upo\AppData\Local\Temp\ccTc2A2n.s 			page 55


1131:Drivers/STM32U0xx_HAL_Driver/Src/stm32u0xx_hal_pwr_ex.c ****       CLEAR_BIT(PWR->PDCRB, GPIO_Pin);
 1791              		.loc 1 1131 7 is_stmt 1 view .LVU342
 1792 001e 1C4B     		ldr	r3, .L174+4
 1793 0020 9A6A     		ldr	r2, [r3, #40]
 1794 0022 0A43     		orrs	r2, r1
 1795 0024 9A62     		str	r2, [r3, #40]
1132:Drivers/STM32U0xx_HAL_Driver/Src/stm32u0xx_hal_pwr_ex.c ****       break;
 1796              		.loc 1 1132 7 view .LVU343
 1797 0026 DA6A     		ldr	r2, [r3, #44]
 1798 0028 8A43     		bics	r2, r1
 1799 002a DA62     		str	r2, [r3, #44]
1133:Drivers/STM32U0xx_HAL_Driver/Src/stm32u0xx_hal_pwr_ex.c **** 
 1800              		.loc 1 1133 7 view .LVU344
1118:Drivers/STM32U0xx_HAL_Driver/Src/stm32u0xx_hal_pwr_ex.c **** 
 1801              		.loc 1 1118 21 is_stmt 0 view .LVU345
 1802 002c 0020     		movs	r0, #0
1133:Drivers/STM32U0xx_HAL_Driver/Src/stm32u0xx_hal_pwr_ex.c **** 
 1803              		.loc 1 1133 7 view .LVU346
 1804 002e F5E7     		b	.L165
 1805              	.L170:
1136:Drivers/STM32U0xx_HAL_Driver/Src/stm32u0xx_hal_pwr_ex.c ****       CLEAR_BIT(PWR->PDCRC, GPIO_Pin);
 1806              		.loc 1 1136 7 is_stmt 1 view .LVU347
 1807 0030 174B     		ldr	r3, .L174+4
 1808 0032 1A6B     		ldr	r2, [r3, #48]
 1809 0034 0A43     		orrs	r2, r1
 1810 0036 1A63     		str	r2, [r3, #48]
1137:Drivers/STM32U0xx_HAL_Driver/Src/stm32u0xx_hal_pwr_ex.c ****       break;
 1811              		.loc 1 1137 7 view .LVU348
 1812 0038 5A6B     		ldr	r2, [r3, #52]
 1813 003a 8A43     		bics	r2, r1
 1814 003c 5A63     		str	r2, [r3, #52]
1138:Drivers/STM32U0xx_HAL_Driver/Src/stm32u0xx_hal_pwr_ex.c **** 
 1815              		.loc 1 1138 7 view .LVU349
1118:Drivers/STM32U0xx_HAL_Driver/Src/stm32u0xx_hal_pwr_ex.c **** 
 1816              		.loc 1 1118 21 is_stmt 0 view .LVU350
 1817 003e 0020     		movs	r0, #0
1138:Drivers/STM32U0xx_HAL_Driver/Src/stm32u0xx_hal_pwr_ex.c **** 
 1818              		.loc 1 1138 7 view .LVU351
 1819 0040 ECE7     		b	.L165
 1820              	.L169:
1141:Drivers/STM32U0xx_HAL_Driver/Src/stm32u0xx_hal_pwr_ex.c ****       CLEAR_BIT(PWR->PDCRD, (GPIO_Pin & PWR_PORTD_AVAILABLE_PINS));
 1821              		.loc 1 1141 7 is_stmt 1 view .LVU352
 1822 0042 134B     		ldr	r3, .L174+4
 1823 0044 986B     		ldr	r0, [r3, #56]
 1824 0046 134A     		ldr	r2, .L174+8
 1825 0048 0A40     		ands	r2, r1
 1826 004a 1043     		orrs	r0, r2
 1827 004c 9863     		str	r0, [r3, #56]
1142:Drivers/STM32U0xx_HAL_Driver/Src/stm32u0xx_hal_pwr_ex.c ****       break;
 1828              		.loc 1 1142 7 view .LVU353
 1829 004e D96B     		ldr	r1, [r3, #60]
 1830              	.LVL52:
1142:Drivers/STM32U0xx_HAL_Driver/Src/stm32u0xx_hal_pwr_ex.c ****       break;
 1831              		.loc 1 1142 7 is_stmt 0 view .LVU354
 1832 0050 9143     		bics	r1, r2
 1833 0052 D963     		str	r1, [r3, #60]
1143:Drivers/STM32U0xx_HAL_Driver/Src/stm32u0xx_hal_pwr_ex.c **** 
ARM GAS  C:\Users\upo\AppData\Local\Temp\ccTc2A2n.s 			page 56


 1834              		.loc 1 1143 7 is_stmt 1 view .LVU355
1118:Drivers/STM32U0xx_HAL_Driver/Src/stm32u0xx_hal_pwr_ex.c **** 
 1835              		.loc 1 1118 21 is_stmt 0 view .LVU356
 1836 0054 0020     		movs	r0, #0
1143:Drivers/STM32U0xx_HAL_Driver/Src/stm32u0xx_hal_pwr_ex.c **** 
 1837              		.loc 1 1143 7 view .LVU357
 1838 0056 E1E7     		b	.L165
 1839              	.LVL53:
 1840              	.L168:
1147:Drivers/STM32U0xx_HAL_Driver/Src/stm32u0xx_hal_pwr_ex.c ****       CLEAR_BIT(PWR->PDCRE, (GPIO_Pin & PWR_PORTE_AVAILABLE_PINS));
 1841              		.loc 1 1147 7 is_stmt 1 view .LVU358
 1842 0058 0D4B     		ldr	r3, .L174+4
 1843 005a 186C     		ldr	r0, [r3, #64]
 1844 005c E222     		movs	r2, #226
 1845 005e 9200     		lsls	r2, r2, #2
 1846 0060 0A40     		ands	r2, r1
 1847 0062 1043     		orrs	r0, r2
 1848 0064 1864     		str	r0, [r3, #64]
1148:Drivers/STM32U0xx_HAL_Driver/Src/stm32u0xx_hal_pwr_ex.c ****       break;
 1849              		.loc 1 1148 7 view .LVU359
 1850 0066 596C     		ldr	r1, [r3, #68]
 1851              	.LVL54:
1148:Drivers/STM32U0xx_HAL_Driver/Src/stm32u0xx_hal_pwr_ex.c ****       break;
 1852              		.loc 1 1148 7 is_stmt 0 view .LVU360
 1853 0068 9143     		bics	r1, r2
 1854 006a 5964     		str	r1, [r3, #68]
1149:Drivers/STM32U0xx_HAL_Driver/Src/stm32u0xx_hal_pwr_ex.c **** #endif /* GPIOE */
 1855              		.loc 1 1149 7 is_stmt 1 view .LVU361
1118:Drivers/STM32U0xx_HAL_Driver/Src/stm32u0xx_hal_pwr_ex.c **** 
 1856              		.loc 1 1118 21 is_stmt 0 view .LVU362
 1857 006c 0020     		movs	r0, #0
1149:Drivers/STM32U0xx_HAL_Driver/Src/stm32u0xx_hal_pwr_ex.c **** #endif /* GPIOE */
 1858              		.loc 1 1149 7 view .LVU363
 1859 006e D5E7     		b	.L165
 1860              	.LVL55:
 1861              	.L166:
1153:Drivers/STM32U0xx_HAL_Driver/Src/stm32u0xx_hal_pwr_ex.c ****       CLEAR_BIT(PWR->PDCRF, (GPIO_Pin & PWR_PORTF_AVAILABLE_PINS));
 1862              		.loc 1 1153 7 is_stmt 1 view .LVU364
 1863 0070 074B     		ldr	r3, .L174+4
 1864 0072 986C     		ldr	r0, [r3, #72]
 1865 0074 0F22     		movs	r2, #15
 1866 0076 0A40     		ands	r2, r1
 1867 0078 1043     		orrs	r0, r2
 1868 007a 9864     		str	r0, [r3, #72]
1154:Drivers/STM32U0xx_HAL_Driver/Src/stm32u0xx_hal_pwr_ex.c ****       break;
 1869              		.loc 1 1154 7 view .LVU365
 1870 007c D96C     		ldr	r1, [r3, #76]
 1871              	.LVL56:
1154:Drivers/STM32U0xx_HAL_Driver/Src/stm32u0xx_hal_pwr_ex.c ****       break;
 1872              		.loc 1 1154 7 is_stmt 0 view .LVU366
 1873 007e 9143     		bics	r1, r2
 1874 0080 D964     		str	r1, [r3, #76]
1155:Drivers/STM32U0xx_HAL_Driver/Src/stm32u0xx_hal_pwr_ex.c **** 
 1875              		.loc 1 1155 7 is_stmt 1 view .LVU367
1118:Drivers/STM32U0xx_HAL_Driver/Src/stm32u0xx_hal_pwr_ex.c **** 
 1876              		.loc 1 1118 21 is_stmt 0 view .LVU368
 1877 0082 0020     		movs	r0, #0
ARM GAS  C:\Users\upo\AppData\Local\Temp\ccTc2A2n.s 			page 57


1155:Drivers/STM32U0xx_HAL_Driver/Src/stm32u0xx_hal_pwr_ex.c **** 
 1878              		.loc 1 1155 7 view .LVU369
 1879 0084 CAE7     		b	.L165
 1880              	.LVL57:
 1881              	.L173:
1123:Drivers/STM32U0xx_HAL_Driver/Src/stm32u0xx_hal_pwr_ex.c ****   {
 1882              		.loc 1 1123 3 view .LVU370
 1883 0086 0120     		movs	r0, #1
 1884              	.LVL58:
1123:Drivers/STM32U0xx_HAL_Driver/Src/stm32u0xx_hal_pwr_ex.c ****   {
 1885              		.loc 1 1123 3 view .LVU371
 1886 0088 C8E7     		b	.L165
 1887              	.L175:
 1888 008a C046     		.align	2
 1889              	.L174:
 1890 008c 00000000 		.word	.L167
 1891 0090 00700040 		.word	1073770496
 1892 0094 7F3F0000 		.word	16255
 1893              		.cfi_endproc
 1894              	.LFE365:
 1896              		.section	.text.HAL_PWREx_DisableGPIOPullUp,"ax",%progbits
 1897              		.align	1
 1898              		.global	HAL_PWREx_DisableGPIOPullUp
 1899              		.syntax unified
 1900              		.code	16
 1901              		.thumb_func
 1903              	HAL_PWREx_DisableGPIOPullUp:
 1904              	.LVL59:
 1905              	.LFB366:
1164:Drivers/STM32U0xx_HAL_Driver/Src/stm32u0xx_hal_pwr_ex.c **** 
1165:Drivers/STM32U0xx_HAL_Driver/Src/stm32u0xx_hal_pwr_ex.c **** /**
1166:Drivers/STM32U0xx_HAL_Driver/Src/stm32u0xx_hal_pwr_ex.c ****   * @brief Disable GPIO pull-up state in Standby mode and Shutdown modes.
1167:Drivers/STM32U0xx_HAL_Driver/Src/stm32u0xx_hal_pwr_ex.c ****   * @note  Reset the relevant PUy bits of PWR_PUCRx register used to configure the I/O
1168:Drivers/STM32U0xx_HAL_Driver/Src/stm32u0xx_hal_pwr_ex.c ****   *        in pull-up state in Standby and Shutdown modes.
1169:Drivers/STM32U0xx_HAL_Driver/Src/stm32u0xx_hal_pwr_ex.c ****   * @note  Even if a PUy bit to reset is reserved, the other PUy bits entered as input
1170:Drivers/STM32U0xx_HAL_Driver/Src/stm32u0xx_hal_pwr_ex.c ****   *        parameter at the same time are reset.
1171:Drivers/STM32U0xx_HAL_Driver/Src/stm32u0xx_hal_pwr_ex.c ****   * @param  GPIO_Port Specifies the IO port. This parameter can be PWR_GPIO_A, ..., PWR_GPIO_H
1172:Drivers/STM32U0xx_HAL_Driver/Src/stm32u0xx_hal_pwr_ex.c ****   *          (or PWR_GPIO_I depending on the devices) to select the GPIO peripheral.
1173:Drivers/STM32U0xx_HAL_Driver/Src/stm32u0xx_hal_pwr_ex.c ****   * @param  GPIO_Pin Specify the I/O pins numbers.
1174:Drivers/STM32U0xx_HAL_Driver/Src/stm32u0xx_hal_pwr_ex.c ****   *         This parameter can be one of the following values:
1175:Drivers/STM32U0xx_HAL_Driver/Src/stm32u0xx_hal_pwr_ex.c ****   *         PWR_GPIO_BIT_0, ..., PWR_GPIO_BIT_15 (except for the port where less
1176:Drivers/STM32U0xx_HAL_Driver/Src/stm32u0xx_hal_pwr_ex.c ****   *         I/O pins are available) or the logical OR of several of them to reset
1177:Drivers/STM32U0xx_HAL_Driver/Src/stm32u0xx_hal_pwr_ex.c ****   *         several bits for a given port in a single API call.
1178:Drivers/STM32U0xx_HAL_Driver/Src/stm32u0xx_hal_pwr_ex.c ****   * @retval HAL Status
1179:Drivers/STM32U0xx_HAL_Driver/Src/stm32u0xx_hal_pwr_ex.c ****   */
1180:Drivers/STM32U0xx_HAL_Driver/Src/stm32u0xx_hal_pwr_ex.c **** HAL_StatusTypeDef HAL_PWREx_DisableGPIOPullUp(uint32_t GPIO_Port, uint32_t GPIO_Pin)
1181:Drivers/STM32U0xx_HAL_Driver/Src/stm32u0xx_hal_pwr_ex.c **** {
 1906              		.loc 1 1181 1 is_stmt 1 view -0
 1907              		.cfi_startproc
 1908              		@ args = 0, pretend = 0, frame = 0
 1909              		@ frame_needed = 0, uses_anonymous_args = 0
 1910              		@ link register save eliminated.
1182:Drivers/STM32U0xx_HAL_Driver/Src/stm32u0xx_hal_pwr_ex.c ****   HAL_StatusTypeDef status = HAL_OK;
 1911              		.loc 1 1182 3 view .LVU373
1183:Drivers/STM32U0xx_HAL_Driver/Src/stm32u0xx_hal_pwr_ex.c **** 
1184:Drivers/STM32U0xx_HAL_Driver/Src/stm32u0xx_hal_pwr_ex.c ****   assert_param(IS_PWR_GPIO_PORT(GPIO_Port));
 1912              		.loc 1 1184 3 view .LVU374
ARM GAS  C:\Users\upo\AppData\Local\Temp\ccTc2A2n.s 			page 58


1185:Drivers/STM32U0xx_HAL_Driver/Src/stm32u0xx_hal_pwr_ex.c ****   assert_param(IS_PWR_GPIO_PIN_MASK(GPIO_Pin));
 1913              		.loc 1 1185 3 view .LVU375
1186:Drivers/STM32U0xx_HAL_Driver/Src/stm32u0xx_hal_pwr_ex.c **** 
1187:Drivers/STM32U0xx_HAL_Driver/Src/stm32u0xx_hal_pwr_ex.c ****   switch (GPIO_Port)
 1914              		.loc 1 1187 3 view .LVU376
 1915 0000 0528     		cmp	r0, #5
 1916 0002 2ED8     		bhi	.L185
 1917 0004 8000     		lsls	r0, r0, #2
 1918              	.LVL60:
 1919              		.loc 1 1187 3 is_stmt 0 view .LVU377
 1920 0006 184B     		ldr	r3, .L186
 1921 0008 1B58     		ldr	r3, [r3, r0]
 1922 000a 9F46     		mov	pc, r3
 1923              		.section	.rodata.HAL_PWREx_DisableGPIOPullUp,"a",%progbits
 1924              		.align	2
 1925              	.L179:
 1926 0000 0C000000 		.word	.L184
 1927 0004 18000000 		.word	.L183
 1928 0008 24000000 		.word	.L182
 1929 000c 30000000 		.word	.L181
 1930 0010 40000000 		.word	.L180
 1931 0014 52000000 		.word	.L178
 1932              		.section	.text.HAL_PWREx_DisableGPIOPullUp
 1933              	.L184:
1188:Drivers/STM32U0xx_HAL_Driver/Src/stm32u0xx_hal_pwr_ex.c ****   {
1189:Drivers/STM32U0xx_HAL_Driver/Src/stm32u0xx_hal_pwr_ex.c ****     case PWR_GPIO_A:
1190:Drivers/STM32U0xx_HAL_Driver/Src/stm32u0xx_hal_pwr_ex.c ****       CLEAR_BIT(PWR->PUCRA, GPIO_Pin);
 1934              		.loc 1 1190 7 is_stmt 1 view .LVU378
 1935 000c 174A     		ldr	r2, .L186+4
 1936 000e 136A     		ldr	r3, [r2, #32]
 1937 0010 8B43     		bics	r3, r1
 1938 0012 1362     		str	r3, [r2, #32]
1191:Drivers/STM32U0xx_HAL_Driver/Src/stm32u0xx_hal_pwr_ex.c ****       break;
 1939              		.loc 1 1191 7 view .LVU379
1182:Drivers/STM32U0xx_HAL_Driver/Src/stm32u0xx_hal_pwr_ex.c **** 
 1940              		.loc 1 1182 21 is_stmt 0 view .LVU380
 1941 0014 0020     		movs	r0, #0
 1942              	.L177:
 1943              	.LVL61:
1192:Drivers/STM32U0xx_HAL_Driver/Src/stm32u0xx_hal_pwr_ex.c **** 
1193:Drivers/STM32U0xx_HAL_Driver/Src/stm32u0xx_hal_pwr_ex.c ****     case PWR_GPIO_B:
1194:Drivers/STM32U0xx_HAL_Driver/Src/stm32u0xx_hal_pwr_ex.c ****       CLEAR_BIT(PWR->PUCRB, GPIO_Pin);
1195:Drivers/STM32U0xx_HAL_Driver/Src/stm32u0xx_hal_pwr_ex.c ****       break;
1196:Drivers/STM32U0xx_HAL_Driver/Src/stm32u0xx_hal_pwr_ex.c **** 
1197:Drivers/STM32U0xx_HAL_Driver/Src/stm32u0xx_hal_pwr_ex.c ****     case PWR_GPIO_C:
1198:Drivers/STM32U0xx_HAL_Driver/Src/stm32u0xx_hal_pwr_ex.c ****       CLEAR_BIT(PWR->PUCRC, GPIO_Pin);
1199:Drivers/STM32U0xx_HAL_Driver/Src/stm32u0xx_hal_pwr_ex.c ****       break;
1200:Drivers/STM32U0xx_HAL_Driver/Src/stm32u0xx_hal_pwr_ex.c **** 
1201:Drivers/STM32U0xx_HAL_Driver/Src/stm32u0xx_hal_pwr_ex.c ****     case PWR_GPIO_D:
1202:Drivers/STM32U0xx_HAL_Driver/Src/stm32u0xx_hal_pwr_ex.c ****       CLEAR_BIT(PWR->PUCRD, (GPIO_Pin & PWR_PORTD_AVAILABLE_PINS));
1203:Drivers/STM32U0xx_HAL_Driver/Src/stm32u0xx_hal_pwr_ex.c ****       break;
1204:Drivers/STM32U0xx_HAL_Driver/Src/stm32u0xx_hal_pwr_ex.c **** 
1205:Drivers/STM32U0xx_HAL_Driver/Src/stm32u0xx_hal_pwr_ex.c **** #if defined (GPIOE)
1206:Drivers/STM32U0xx_HAL_Driver/Src/stm32u0xx_hal_pwr_ex.c ****     case PWR_GPIO_E:
1207:Drivers/STM32U0xx_HAL_Driver/Src/stm32u0xx_hal_pwr_ex.c ****       CLEAR_BIT(PWR->PUCRE, (GPIO_Pin & PWR_PORTE_AVAILABLE_PINS));
1208:Drivers/STM32U0xx_HAL_Driver/Src/stm32u0xx_hal_pwr_ex.c ****       break;
1209:Drivers/STM32U0xx_HAL_Driver/Src/stm32u0xx_hal_pwr_ex.c **** #endif /* GPIOE */
ARM GAS  C:\Users\upo\AppData\Local\Temp\ccTc2A2n.s 			page 59


1210:Drivers/STM32U0xx_HAL_Driver/Src/stm32u0xx_hal_pwr_ex.c **** 
1211:Drivers/STM32U0xx_HAL_Driver/Src/stm32u0xx_hal_pwr_ex.c ****     case PWR_GPIO_F:
1212:Drivers/STM32U0xx_HAL_Driver/Src/stm32u0xx_hal_pwr_ex.c ****       CLEAR_BIT(PWR->PUCRF, (GPIO_Pin & PWR_PORTF_AVAILABLE_PINS));
1213:Drivers/STM32U0xx_HAL_Driver/Src/stm32u0xx_hal_pwr_ex.c ****       break;
1214:Drivers/STM32U0xx_HAL_Driver/Src/stm32u0xx_hal_pwr_ex.c **** 
1215:Drivers/STM32U0xx_HAL_Driver/Src/stm32u0xx_hal_pwr_ex.c ****     default:
1216:Drivers/STM32U0xx_HAL_Driver/Src/stm32u0xx_hal_pwr_ex.c ****       status = HAL_ERROR;
1217:Drivers/STM32U0xx_HAL_Driver/Src/stm32u0xx_hal_pwr_ex.c ****       break;
1218:Drivers/STM32U0xx_HAL_Driver/Src/stm32u0xx_hal_pwr_ex.c ****   }
1219:Drivers/STM32U0xx_HAL_Driver/Src/stm32u0xx_hal_pwr_ex.c **** 
1220:Drivers/STM32U0xx_HAL_Driver/Src/stm32u0xx_hal_pwr_ex.c ****   return status;
 1944              		.loc 1 1220 3 is_stmt 1 view .LVU381
1221:Drivers/STM32U0xx_HAL_Driver/Src/stm32u0xx_hal_pwr_ex.c **** }
 1945              		.loc 1 1221 1 is_stmt 0 view .LVU382
 1946              		@ sp needed
 1947 0016 7047     		bx	lr
 1948              	.LVL62:
 1949              	.L183:
1194:Drivers/STM32U0xx_HAL_Driver/Src/stm32u0xx_hal_pwr_ex.c ****       break;
 1950              		.loc 1 1194 7 is_stmt 1 view .LVU383
 1951 0018 144A     		ldr	r2, .L186+4
 1952 001a 936A     		ldr	r3, [r2, #40]
 1953 001c 8B43     		bics	r3, r1
 1954 001e 9362     		str	r3, [r2, #40]
1195:Drivers/STM32U0xx_HAL_Driver/Src/stm32u0xx_hal_pwr_ex.c **** 
 1955              		.loc 1 1195 7 view .LVU384
1182:Drivers/STM32U0xx_HAL_Driver/Src/stm32u0xx_hal_pwr_ex.c **** 
 1956              		.loc 1 1182 21 is_stmt 0 view .LVU385
 1957 0020 0020     		movs	r0, #0
1195:Drivers/STM32U0xx_HAL_Driver/Src/stm32u0xx_hal_pwr_ex.c **** 
 1958              		.loc 1 1195 7 view .LVU386
 1959 0022 F8E7     		b	.L177
 1960              	.L182:
1198:Drivers/STM32U0xx_HAL_Driver/Src/stm32u0xx_hal_pwr_ex.c ****       break;
 1961              		.loc 1 1198 7 is_stmt 1 view .LVU387
 1962 0024 114A     		ldr	r2, .L186+4
 1963 0026 136B     		ldr	r3, [r2, #48]
 1964 0028 8B43     		bics	r3, r1
 1965 002a 1363     		str	r3, [r2, #48]
1199:Drivers/STM32U0xx_HAL_Driver/Src/stm32u0xx_hal_pwr_ex.c **** 
 1966              		.loc 1 1199 7 view .LVU388
1182:Drivers/STM32U0xx_HAL_Driver/Src/stm32u0xx_hal_pwr_ex.c **** 
 1967              		.loc 1 1182 21 is_stmt 0 view .LVU389
 1968 002c 0020     		movs	r0, #0
1199:Drivers/STM32U0xx_HAL_Driver/Src/stm32u0xx_hal_pwr_ex.c **** 
 1969              		.loc 1 1199 7 view .LVU390
 1970 002e F2E7     		b	.L177
 1971              	.L181:
1202:Drivers/STM32U0xx_HAL_Driver/Src/stm32u0xx_hal_pwr_ex.c ****       break;
 1972              		.loc 1 1202 7 is_stmt 1 view .LVU391
 1973 0030 0E48     		ldr	r0, .L186+4
 1974 0032 836B     		ldr	r3, [r0, #56]
 1975 0034 0E4A     		ldr	r2, .L186+8
 1976 0036 0A40     		ands	r2, r1
 1977 0038 9343     		bics	r3, r2
 1978 003a 8363     		str	r3, [r0, #56]
1203:Drivers/STM32U0xx_HAL_Driver/Src/stm32u0xx_hal_pwr_ex.c **** 
ARM GAS  C:\Users\upo\AppData\Local\Temp\ccTc2A2n.s 			page 60


 1979              		.loc 1 1203 7 view .LVU392
1182:Drivers/STM32U0xx_HAL_Driver/Src/stm32u0xx_hal_pwr_ex.c **** 
 1980              		.loc 1 1182 21 is_stmt 0 view .LVU393
 1981 003c 0020     		movs	r0, #0
1203:Drivers/STM32U0xx_HAL_Driver/Src/stm32u0xx_hal_pwr_ex.c **** 
 1982              		.loc 1 1203 7 view .LVU394
 1983 003e EAE7     		b	.L177
 1984              	.L180:
1207:Drivers/STM32U0xx_HAL_Driver/Src/stm32u0xx_hal_pwr_ex.c ****       break;
 1985              		.loc 1 1207 7 is_stmt 1 view .LVU395
 1986 0040 0A48     		ldr	r0, .L186+4
 1987 0042 036C     		ldr	r3, [r0, #64]
 1988 0044 E222     		movs	r2, #226
 1989 0046 9200     		lsls	r2, r2, #2
 1990 0048 0A40     		ands	r2, r1
 1991 004a 9343     		bics	r3, r2
 1992 004c 0364     		str	r3, [r0, #64]
1208:Drivers/STM32U0xx_HAL_Driver/Src/stm32u0xx_hal_pwr_ex.c **** #endif /* GPIOE */
 1993              		.loc 1 1208 7 view .LVU396
1182:Drivers/STM32U0xx_HAL_Driver/Src/stm32u0xx_hal_pwr_ex.c **** 
 1994              		.loc 1 1182 21 is_stmt 0 view .LVU397
 1995 004e 0020     		movs	r0, #0
1208:Drivers/STM32U0xx_HAL_Driver/Src/stm32u0xx_hal_pwr_ex.c **** #endif /* GPIOE */
 1996              		.loc 1 1208 7 view .LVU398
 1997 0050 E1E7     		b	.L177
 1998              	.L178:
1212:Drivers/STM32U0xx_HAL_Driver/Src/stm32u0xx_hal_pwr_ex.c ****       break;
 1999              		.loc 1 1212 7 is_stmt 1 view .LVU399
 2000 0052 0648     		ldr	r0, .L186+4
 2001 0054 836C     		ldr	r3, [r0, #72]
 2002 0056 0F22     		movs	r2, #15
 2003 0058 0A40     		ands	r2, r1
 2004 005a 9343     		bics	r3, r2
 2005 005c 8364     		str	r3, [r0, #72]
1213:Drivers/STM32U0xx_HAL_Driver/Src/stm32u0xx_hal_pwr_ex.c **** 
 2006              		.loc 1 1213 7 view .LVU400
1182:Drivers/STM32U0xx_HAL_Driver/Src/stm32u0xx_hal_pwr_ex.c **** 
 2007              		.loc 1 1182 21 is_stmt 0 view .LVU401
 2008 005e 0020     		movs	r0, #0
1213:Drivers/STM32U0xx_HAL_Driver/Src/stm32u0xx_hal_pwr_ex.c **** 
 2009              		.loc 1 1213 7 view .LVU402
 2010 0060 D9E7     		b	.L177
 2011              	.LVL63:
 2012              	.L185:
1187:Drivers/STM32U0xx_HAL_Driver/Src/stm32u0xx_hal_pwr_ex.c ****   {
 2013              		.loc 1 1187 3 view .LVU403
 2014 0062 0120     		movs	r0, #1
 2015              	.LVL64:
1187:Drivers/STM32U0xx_HAL_Driver/Src/stm32u0xx_hal_pwr_ex.c ****   {
 2016              		.loc 1 1187 3 view .LVU404
 2017 0064 D7E7     		b	.L177
 2018              	.L187:
 2019 0066 C046     		.align	2
 2020              	.L186:
 2021 0068 00000000 		.word	.L179
 2022 006c 00700040 		.word	1073770496
 2023 0070 7F3F0000 		.word	16255
ARM GAS  C:\Users\upo\AppData\Local\Temp\ccTc2A2n.s 			page 61


 2024              		.cfi_endproc
 2025              	.LFE366:
 2027              		.section	.text.HAL_PWREx_EnableGPIOPullDown,"ax",%progbits
 2028              		.align	1
 2029              		.global	HAL_PWREx_EnableGPIOPullDown
 2030              		.syntax unified
 2031              		.code	16
 2032              		.thumb_func
 2034              	HAL_PWREx_EnableGPIOPullDown:
 2035              	.LVL65:
 2036              	.LFB367:
1222:Drivers/STM32U0xx_HAL_Driver/Src/stm32u0xx_hal_pwr_ex.c **** 
1223:Drivers/STM32U0xx_HAL_Driver/Src/stm32u0xx_hal_pwr_ex.c **** /**
1224:Drivers/STM32U0xx_HAL_Driver/Src/stm32u0xx_hal_pwr_ex.c ****   * @brief Enable GPIO pull-down state in Standby and Shutdown modes.
1225:Drivers/STM32U0xx_HAL_Driver/Src/stm32u0xx_hal_pwr_ex.c ****   * @note  Set the relevant PDy bits of PWR_PDCRx register to configure the I/O in
1226:Drivers/STM32U0xx_HAL_Driver/Src/stm32u0xx_hal_pwr_ex.c ****   *        pull-down state in Standby and Shutdown modes.
1227:Drivers/STM32U0xx_HAL_Driver/Src/stm32u0xx_hal_pwr_ex.c ****   * @note  This state is effective in Standby and Shutdown modes only if APC bit
1228:Drivers/STM32U0xx_HAL_Driver/Src/stm32u0xx_hal_pwr_ex.c ****   *        is set through HAL_PWREx_EnablePullUpPullDownConfig() API.
1229:Drivers/STM32U0xx_HAL_Driver/Src/stm32u0xx_hal_pwr_ex.c ****   * @note  The configuration is lost when exiting the Shutdown mode due to the
1230:Drivers/STM32U0xx_HAL_Driver/Src/stm32u0xx_hal_pwr_ex.c ****   *        power-on reset, maintained when exiting the Standby mode.
1231:Drivers/STM32U0xx_HAL_Driver/Src/stm32u0xx_hal_pwr_ex.c ****   * @note  To avoid any conflict at Standby and Shutdown modes exits, the corresponding
1232:Drivers/STM32U0xx_HAL_Driver/Src/stm32u0xx_hal_pwr_ex.c ****   *        PUy bit of PWR_PUCRx register is cleared unless it is reserved.
1233:Drivers/STM32U0xx_HAL_Driver/Src/stm32u0xx_hal_pwr_ex.c ****   * @note  Even if a PDy bit to set is reserved, the other PDy bits entered as input
1234:Drivers/STM32U0xx_HAL_Driver/Src/stm32u0xx_hal_pwr_ex.c ****   *        parameter at the same time are set.
1235:Drivers/STM32U0xx_HAL_Driver/Src/stm32u0xx_hal_pwr_ex.c ****   * @param  GPIO_Port Specify the IO port. This parameter can be PWR_GPIO_A..PWR_GPIO_H
1236:Drivers/STM32U0xx_HAL_Driver/Src/stm32u0xx_hal_pwr_ex.c ****   *         (or PWR_GPIO_I depending on the devices) to select the GPIO peripheral.
1237:Drivers/STM32U0xx_HAL_Driver/Src/stm32u0xx_hal_pwr_ex.c ****   * @param  GPIO_Pin Specify the I/O pins numbers.
1238:Drivers/STM32U0xx_HAL_Driver/Src/stm32u0xx_hal_pwr_ex.c ****   *         This parameter can be one of the following values:
1239:Drivers/STM32U0xx_HAL_Driver/Src/stm32u0xx_hal_pwr_ex.c ****   *         PWR_GPIO_BIT_0, ..., PWR_GPIO_BIT_15 (except for the port where less
1240:Drivers/STM32U0xx_HAL_Driver/Src/stm32u0xx_hal_pwr_ex.c ****   *         I/O pins are available) or the logical OR of several of them to set
1241:Drivers/STM32U0xx_HAL_Driver/Src/stm32u0xx_hal_pwr_ex.c ****   *         several bits for a given port in a single API call.
1242:Drivers/STM32U0xx_HAL_Driver/Src/stm32u0xx_hal_pwr_ex.c ****   * @retval HAL Status
1243:Drivers/STM32U0xx_HAL_Driver/Src/stm32u0xx_hal_pwr_ex.c ****   */
1244:Drivers/STM32U0xx_HAL_Driver/Src/stm32u0xx_hal_pwr_ex.c **** HAL_StatusTypeDef HAL_PWREx_EnableGPIOPullDown(uint32_t GPIO_Port, uint32_t GPIO_Pin)
1245:Drivers/STM32U0xx_HAL_Driver/Src/stm32u0xx_hal_pwr_ex.c **** {
 2037              		.loc 1 1245 1 is_stmt 1 view -0
 2038              		.cfi_startproc
 2039              		@ args = 0, pretend = 0, frame = 0
 2040              		@ frame_needed = 0, uses_anonymous_args = 0
 2041              		@ link register save eliminated.
1246:Drivers/STM32U0xx_HAL_Driver/Src/stm32u0xx_hal_pwr_ex.c ****   HAL_StatusTypeDef status = HAL_OK;
 2042              		.loc 1 1246 3 view .LVU406
1247:Drivers/STM32U0xx_HAL_Driver/Src/stm32u0xx_hal_pwr_ex.c **** 
1248:Drivers/STM32U0xx_HAL_Driver/Src/stm32u0xx_hal_pwr_ex.c ****   assert_param(IS_PWR_GPIO_PORT(GPIO_Port));
 2043              		.loc 1 1248 3 view .LVU407
1249:Drivers/STM32U0xx_HAL_Driver/Src/stm32u0xx_hal_pwr_ex.c ****   assert_param(IS_PWR_GPIO_PIN_MASK(GPIO_Pin));
 2044              		.loc 1 1249 3 view .LVU408
1250:Drivers/STM32U0xx_HAL_Driver/Src/stm32u0xx_hal_pwr_ex.c **** 
1251:Drivers/STM32U0xx_HAL_Driver/Src/stm32u0xx_hal_pwr_ex.c ****   switch (GPIO_Port)
 2045              		.loc 1 1251 3 view .LVU409
 2046 0000 0528     		cmp	r0, #5
 2047 0002 40D8     		bhi	.L197
 2048 0004 8000     		lsls	r0, r0, #2
 2049              	.LVL66:
 2050              		.loc 1 1251 3 is_stmt 0 view .LVU410
 2051 0006 214B     		ldr	r3, .L198
 2052 0008 1B58     		ldr	r3, [r3, r0]
ARM GAS  C:\Users\upo\AppData\Local\Temp\ccTc2A2n.s 			page 62


 2053 000a 9F46     		mov	pc, r3
 2054              		.section	.rodata.HAL_PWREx_EnableGPIOPullDown,"a",%progbits
 2055              		.align	2
 2056              	.L191:
 2057 0000 0C000000 		.word	.L196
 2058 0004 1E000000 		.word	.L195
 2059 0008 30000000 		.word	.L194
 2060 000c 42000000 		.word	.L193
 2061 0010 58000000 		.word	.L192
 2062 0014 70000000 		.word	.L190
 2063              		.section	.text.HAL_PWREx_EnableGPIOPullDown
 2064              	.L196:
1252:Drivers/STM32U0xx_HAL_Driver/Src/stm32u0xx_hal_pwr_ex.c ****   {
1253:Drivers/STM32U0xx_HAL_Driver/Src/stm32u0xx_hal_pwr_ex.c ****     case PWR_GPIO_A:
1254:Drivers/STM32U0xx_HAL_Driver/Src/stm32u0xx_hal_pwr_ex.c ****       SET_BIT(PWR->PDCRA, GPIO_Pin);
 2065              		.loc 1 1254 7 is_stmt 1 view .LVU411
 2066 000c 204B     		ldr	r3, .L198+4
 2067 000e 5A6A     		ldr	r2, [r3, #36]
 2068 0010 0A43     		orrs	r2, r1
 2069 0012 5A62     		str	r2, [r3, #36]
1255:Drivers/STM32U0xx_HAL_Driver/Src/stm32u0xx_hal_pwr_ex.c ****       CLEAR_BIT(PWR->PUCRA, GPIO_Pin);
 2070              		.loc 1 1255 7 view .LVU412
 2071 0014 1A6A     		ldr	r2, [r3, #32]
 2072 0016 8A43     		bics	r2, r1
 2073 0018 1A62     		str	r2, [r3, #32]
1256:Drivers/STM32U0xx_HAL_Driver/Src/stm32u0xx_hal_pwr_ex.c ****       break;
 2074              		.loc 1 1256 7 view .LVU413
1246:Drivers/STM32U0xx_HAL_Driver/Src/stm32u0xx_hal_pwr_ex.c **** 
 2075              		.loc 1 1246 21 is_stmt 0 view .LVU414
 2076 001a 0020     		movs	r0, #0
 2077              	.LVL67:
 2078              	.L189:
1257:Drivers/STM32U0xx_HAL_Driver/Src/stm32u0xx_hal_pwr_ex.c **** 
1258:Drivers/STM32U0xx_HAL_Driver/Src/stm32u0xx_hal_pwr_ex.c ****     case PWR_GPIO_B:
1259:Drivers/STM32U0xx_HAL_Driver/Src/stm32u0xx_hal_pwr_ex.c ****       SET_BIT(PWR->PDCRB, GPIO_Pin);
1260:Drivers/STM32U0xx_HAL_Driver/Src/stm32u0xx_hal_pwr_ex.c ****       CLEAR_BIT(PWR->PUCRB, GPIO_Pin);
1261:Drivers/STM32U0xx_HAL_Driver/Src/stm32u0xx_hal_pwr_ex.c ****       break;
1262:Drivers/STM32U0xx_HAL_Driver/Src/stm32u0xx_hal_pwr_ex.c **** 
1263:Drivers/STM32U0xx_HAL_Driver/Src/stm32u0xx_hal_pwr_ex.c ****     case PWR_GPIO_C:
1264:Drivers/STM32U0xx_HAL_Driver/Src/stm32u0xx_hal_pwr_ex.c ****       SET_BIT(PWR->PDCRC, GPIO_Pin);
1265:Drivers/STM32U0xx_HAL_Driver/Src/stm32u0xx_hal_pwr_ex.c ****       CLEAR_BIT(PWR->PUCRC, GPIO_Pin);
1266:Drivers/STM32U0xx_HAL_Driver/Src/stm32u0xx_hal_pwr_ex.c ****       break;
1267:Drivers/STM32U0xx_HAL_Driver/Src/stm32u0xx_hal_pwr_ex.c **** 
1268:Drivers/STM32U0xx_HAL_Driver/Src/stm32u0xx_hal_pwr_ex.c ****     case PWR_GPIO_D:
1269:Drivers/STM32U0xx_HAL_Driver/Src/stm32u0xx_hal_pwr_ex.c ****       SET_BIT(PWR->PDCRD, (GPIO_Pin & PWR_PORTD_AVAILABLE_PINS));
1270:Drivers/STM32U0xx_HAL_Driver/Src/stm32u0xx_hal_pwr_ex.c ****       CLEAR_BIT(PWR->PUCRD, (GPIO_Pin & PWR_PORTD_AVAILABLE_PINS));
1271:Drivers/STM32U0xx_HAL_Driver/Src/stm32u0xx_hal_pwr_ex.c ****       break;
1272:Drivers/STM32U0xx_HAL_Driver/Src/stm32u0xx_hal_pwr_ex.c **** 
1273:Drivers/STM32U0xx_HAL_Driver/Src/stm32u0xx_hal_pwr_ex.c **** #if defined (GPIOE)
1274:Drivers/STM32U0xx_HAL_Driver/Src/stm32u0xx_hal_pwr_ex.c ****     case PWR_GPIO_E:
1275:Drivers/STM32U0xx_HAL_Driver/Src/stm32u0xx_hal_pwr_ex.c ****       SET_BIT(PWR->PDCRE, (GPIO_Pin & PWR_PORTE_AVAILABLE_PINS));
1276:Drivers/STM32U0xx_HAL_Driver/Src/stm32u0xx_hal_pwr_ex.c ****       CLEAR_BIT(PWR->PUCRE, (GPIO_Pin & PWR_PORTE_AVAILABLE_PINS));
1277:Drivers/STM32U0xx_HAL_Driver/Src/stm32u0xx_hal_pwr_ex.c ****       break;
1278:Drivers/STM32U0xx_HAL_Driver/Src/stm32u0xx_hal_pwr_ex.c **** #endif /* GPIOE */
1279:Drivers/STM32U0xx_HAL_Driver/Src/stm32u0xx_hal_pwr_ex.c **** 
1280:Drivers/STM32U0xx_HAL_Driver/Src/stm32u0xx_hal_pwr_ex.c ****     case PWR_GPIO_F:
1281:Drivers/STM32U0xx_HAL_Driver/Src/stm32u0xx_hal_pwr_ex.c ****       SET_BIT(PWR->PDCRF, (GPIO_Pin & PWR_PORTF_AVAILABLE_PINS));
ARM GAS  C:\Users\upo\AppData\Local\Temp\ccTc2A2n.s 			page 63


1282:Drivers/STM32U0xx_HAL_Driver/Src/stm32u0xx_hal_pwr_ex.c ****       CLEAR_BIT(PWR->PUCRF, (GPIO_Pin & PWR_PORTF_AVAILABLE_PINS));
1283:Drivers/STM32U0xx_HAL_Driver/Src/stm32u0xx_hal_pwr_ex.c ****       break;
1284:Drivers/STM32U0xx_HAL_Driver/Src/stm32u0xx_hal_pwr_ex.c **** 
1285:Drivers/STM32U0xx_HAL_Driver/Src/stm32u0xx_hal_pwr_ex.c ****     default:
1286:Drivers/STM32U0xx_HAL_Driver/Src/stm32u0xx_hal_pwr_ex.c ****       status = HAL_ERROR;
1287:Drivers/STM32U0xx_HAL_Driver/Src/stm32u0xx_hal_pwr_ex.c ****       break;
1288:Drivers/STM32U0xx_HAL_Driver/Src/stm32u0xx_hal_pwr_ex.c ****   }
1289:Drivers/STM32U0xx_HAL_Driver/Src/stm32u0xx_hal_pwr_ex.c **** 
1290:Drivers/STM32U0xx_HAL_Driver/Src/stm32u0xx_hal_pwr_ex.c ****   return status;
 2079              		.loc 1 1290 3 is_stmt 1 view .LVU415
1291:Drivers/STM32U0xx_HAL_Driver/Src/stm32u0xx_hal_pwr_ex.c **** }
 2080              		.loc 1 1291 1 is_stmt 0 view .LVU416
 2081              		@ sp needed
 2082 001c 7047     		bx	lr
 2083              	.LVL68:
 2084              	.L195:
1259:Drivers/STM32U0xx_HAL_Driver/Src/stm32u0xx_hal_pwr_ex.c ****       CLEAR_BIT(PWR->PUCRB, GPIO_Pin);
 2085              		.loc 1 1259 7 is_stmt 1 view .LVU417
 2086 001e 1C4B     		ldr	r3, .L198+4
 2087 0020 DA6A     		ldr	r2, [r3, #44]
 2088 0022 0A43     		orrs	r2, r1
 2089 0024 DA62     		str	r2, [r3, #44]
1260:Drivers/STM32U0xx_HAL_Driver/Src/stm32u0xx_hal_pwr_ex.c ****       break;
 2090              		.loc 1 1260 7 view .LVU418
 2091 0026 9A6A     		ldr	r2, [r3, #40]
 2092 0028 8A43     		bics	r2, r1
 2093 002a 9A62     		str	r2, [r3, #40]
1261:Drivers/STM32U0xx_HAL_Driver/Src/stm32u0xx_hal_pwr_ex.c **** 
 2094              		.loc 1 1261 7 view .LVU419
1246:Drivers/STM32U0xx_HAL_Driver/Src/stm32u0xx_hal_pwr_ex.c **** 
 2095              		.loc 1 1246 21 is_stmt 0 view .LVU420
 2096 002c 0020     		movs	r0, #0
1261:Drivers/STM32U0xx_HAL_Driver/Src/stm32u0xx_hal_pwr_ex.c **** 
 2097              		.loc 1 1261 7 view .LVU421
 2098 002e F5E7     		b	.L189
 2099              	.L194:
1264:Drivers/STM32U0xx_HAL_Driver/Src/stm32u0xx_hal_pwr_ex.c ****       CLEAR_BIT(PWR->PUCRC, GPIO_Pin);
 2100              		.loc 1 1264 7 is_stmt 1 view .LVU422
 2101 0030 174B     		ldr	r3, .L198+4
 2102 0032 5A6B     		ldr	r2, [r3, #52]
 2103 0034 0A43     		orrs	r2, r1
 2104 0036 5A63     		str	r2, [r3, #52]
1265:Drivers/STM32U0xx_HAL_Driver/Src/stm32u0xx_hal_pwr_ex.c ****       break;
 2105              		.loc 1 1265 7 view .LVU423
 2106 0038 1A6B     		ldr	r2, [r3, #48]
 2107 003a 8A43     		bics	r2, r1
 2108 003c 1A63     		str	r2, [r3, #48]
1266:Drivers/STM32U0xx_HAL_Driver/Src/stm32u0xx_hal_pwr_ex.c **** 
 2109              		.loc 1 1266 7 view .LVU424
1246:Drivers/STM32U0xx_HAL_Driver/Src/stm32u0xx_hal_pwr_ex.c **** 
 2110              		.loc 1 1246 21 is_stmt 0 view .LVU425
 2111 003e 0020     		movs	r0, #0
1266:Drivers/STM32U0xx_HAL_Driver/Src/stm32u0xx_hal_pwr_ex.c **** 
 2112              		.loc 1 1266 7 view .LVU426
 2113 0040 ECE7     		b	.L189
 2114              	.L193:
1269:Drivers/STM32U0xx_HAL_Driver/Src/stm32u0xx_hal_pwr_ex.c ****       CLEAR_BIT(PWR->PUCRD, (GPIO_Pin & PWR_PORTD_AVAILABLE_PINS));
ARM GAS  C:\Users\upo\AppData\Local\Temp\ccTc2A2n.s 			page 64


 2115              		.loc 1 1269 7 is_stmt 1 view .LVU427
 2116 0042 134B     		ldr	r3, .L198+4
 2117 0044 D86B     		ldr	r0, [r3, #60]
 2118 0046 134A     		ldr	r2, .L198+8
 2119 0048 0A40     		ands	r2, r1
 2120 004a 1043     		orrs	r0, r2
 2121 004c D863     		str	r0, [r3, #60]
1270:Drivers/STM32U0xx_HAL_Driver/Src/stm32u0xx_hal_pwr_ex.c ****       break;
 2122              		.loc 1 1270 7 view .LVU428
 2123 004e 996B     		ldr	r1, [r3, #56]
 2124              	.LVL69:
1270:Drivers/STM32U0xx_HAL_Driver/Src/stm32u0xx_hal_pwr_ex.c ****       break;
 2125              		.loc 1 1270 7 is_stmt 0 view .LVU429
 2126 0050 9143     		bics	r1, r2
 2127 0052 9963     		str	r1, [r3, #56]
1271:Drivers/STM32U0xx_HAL_Driver/Src/stm32u0xx_hal_pwr_ex.c **** 
 2128              		.loc 1 1271 7 is_stmt 1 view .LVU430
1246:Drivers/STM32U0xx_HAL_Driver/Src/stm32u0xx_hal_pwr_ex.c **** 
 2129              		.loc 1 1246 21 is_stmt 0 view .LVU431
 2130 0054 0020     		movs	r0, #0
1271:Drivers/STM32U0xx_HAL_Driver/Src/stm32u0xx_hal_pwr_ex.c **** 
 2131              		.loc 1 1271 7 view .LVU432
 2132 0056 E1E7     		b	.L189
 2133              	.LVL70:
 2134              	.L192:
1275:Drivers/STM32U0xx_HAL_Driver/Src/stm32u0xx_hal_pwr_ex.c ****       CLEAR_BIT(PWR->PUCRE, (GPIO_Pin & PWR_PORTE_AVAILABLE_PINS));
 2135              		.loc 1 1275 7 is_stmt 1 view .LVU433
 2136 0058 0D4B     		ldr	r3, .L198+4
 2137 005a 586C     		ldr	r0, [r3, #68]
 2138 005c E222     		movs	r2, #226
 2139 005e 9200     		lsls	r2, r2, #2
 2140 0060 0A40     		ands	r2, r1
 2141 0062 1043     		orrs	r0, r2
 2142 0064 5864     		str	r0, [r3, #68]
1276:Drivers/STM32U0xx_HAL_Driver/Src/stm32u0xx_hal_pwr_ex.c ****       break;
 2143              		.loc 1 1276 7 view .LVU434
 2144 0066 196C     		ldr	r1, [r3, #64]
 2145              	.LVL71:
1276:Drivers/STM32U0xx_HAL_Driver/Src/stm32u0xx_hal_pwr_ex.c ****       break;
 2146              		.loc 1 1276 7 is_stmt 0 view .LVU435
 2147 0068 9143     		bics	r1, r2
 2148 006a 1964     		str	r1, [r3, #64]
1277:Drivers/STM32U0xx_HAL_Driver/Src/stm32u0xx_hal_pwr_ex.c **** #endif /* GPIOE */
 2149              		.loc 1 1277 7 is_stmt 1 view .LVU436
1246:Drivers/STM32U0xx_HAL_Driver/Src/stm32u0xx_hal_pwr_ex.c **** 
 2150              		.loc 1 1246 21 is_stmt 0 view .LVU437
 2151 006c 0020     		movs	r0, #0
1277:Drivers/STM32U0xx_HAL_Driver/Src/stm32u0xx_hal_pwr_ex.c **** #endif /* GPIOE */
 2152              		.loc 1 1277 7 view .LVU438
 2153 006e D5E7     		b	.L189
 2154              	.LVL72:
 2155              	.L190:
1281:Drivers/STM32U0xx_HAL_Driver/Src/stm32u0xx_hal_pwr_ex.c ****       CLEAR_BIT(PWR->PUCRF, (GPIO_Pin & PWR_PORTF_AVAILABLE_PINS));
 2156              		.loc 1 1281 7 is_stmt 1 view .LVU439
 2157 0070 074B     		ldr	r3, .L198+4
 2158 0072 D86C     		ldr	r0, [r3, #76]
 2159 0074 0F22     		movs	r2, #15
ARM GAS  C:\Users\upo\AppData\Local\Temp\ccTc2A2n.s 			page 65


 2160 0076 0A40     		ands	r2, r1
 2161 0078 1043     		orrs	r0, r2
 2162 007a D864     		str	r0, [r3, #76]
1282:Drivers/STM32U0xx_HAL_Driver/Src/stm32u0xx_hal_pwr_ex.c ****       break;
 2163              		.loc 1 1282 7 view .LVU440
 2164 007c 996C     		ldr	r1, [r3, #72]
 2165              	.LVL73:
1282:Drivers/STM32U0xx_HAL_Driver/Src/stm32u0xx_hal_pwr_ex.c ****       break;
 2166              		.loc 1 1282 7 is_stmt 0 view .LVU441
 2167 007e 9143     		bics	r1, r2
 2168 0080 9964     		str	r1, [r3, #72]
1283:Drivers/STM32U0xx_HAL_Driver/Src/stm32u0xx_hal_pwr_ex.c **** 
 2169              		.loc 1 1283 7 is_stmt 1 view .LVU442
1246:Drivers/STM32U0xx_HAL_Driver/Src/stm32u0xx_hal_pwr_ex.c **** 
 2170              		.loc 1 1246 21 is_stmt 0 view .LVU443
 2171 0082 0020     		movs	r0, #0
1283:Drivers/STM32U0xx_HAL_Driver/Src/stm32u0xx_hal_pwr_ex.c **** 
 2172              		.loc 1 1283 7 view .LVU444
 2173 0084 CAE7     		b	.L189
 2174              	.LVL74:
 2175              	.L197:
1251:Drivers/STM32U0xx_HAL_Driver/Src/stm32u0xx_hal_pwr_ex.c ****   {
 2176              		.loc 1 1251 3 view .LVU445
 2177 0086 0120     		movs	r0, #1
 2178              	.LVL75:
1251:Drivers/STM32U0xx_HAL_Driver/Src/stm32u0xx_hal_pwr_ex.c ****   {
 2179              		.loc 1 1251 3 view .LVU446
 2180 0088 C8E7     		b	.L189
 2181              	.L199:
 2182 008a C046     		.align	2
 2183              	.L198:
 2184 008c 00000000 		.word	.L191
 2185 0090 00700040 		.word	1073770496
 2186 0094 7F3F0000 		.word	16255
 2187              		.cfi_endproc
 2188              	.LFE367:
 2190              		.section	.text.HAL_PWREx_DisableGPIOPullDown,"ax",%progbits
 2191              		.align	1
 2192              		.global	HAL_PWREx_DisableGPIOPullDown
 2193              		.syntax unified
 2194              		.code	16
 2195              		.thumb_func
 2197              	HAL_PWREx_DisableGPIOPullDown:
 2198              	.LVL76:
 2199              	.LFB368:
1292:Drivers/STM32U0xx_HAL_Driver/Src/stm32u0xx_hal_pwr_ex.c **** 
1293:Drivers/STM32U0xx_HAL_Driver/Src/stm32u0xx_hal_pwr_ex.c **** /**
1294:Drivers/STM32U0xx_HAL_Driver/Src/stm32u0xx_hal_pwr_ex.c ****   * @brief Disable GPIO pull-down state in Standby and Shutdown modes.
1295:Drivers/STM32U0xx_HAL_Driver/Src/stm32u0xx_hal_pwr_ex.c ****   * @note  Reset the relevant PDy bits of PWR_PDCRx register used to configure the I/O
1296:Drivers/STM32U0xx_HAL_Driver/Src/stm32u0xx_hal_pwr_ex.c ****   *        in pull-down state in Standby and Shutdown modes.
1297:Drivers/STM32U0xx_HAL_Driver/Src/stm32u0xx_hal_pwr_ex.c ****   * @note  Even if a PDy bit to reset is reserved, the other PDy bits entered as input
1298:Drivers/STM32U0xx_HAL_Driver/Src/stm32u0xx_hal_pwr_ex.c ****   *        parameter at the same time are reset.
1299:Drivers/STM32U0xx_HAL_Driver/Src/stm32u0xx_hal_pwr_ex.c ****   * @param  GPIO_Port Specifies the IO port. This parameter can be PWR_GPIO_A..PWR_GPIO_H
1300:Drivers/STM32U0xx_HAL_Driver/Src/stm32u0xx_hal_pwr_ex.c ****   *         (or PWR_GPIO_I depending on the devices) to select the GPIO peripheral.
1301:Drivers/STM32U0xx_HAL_Driver/Src/stm32u0xx_hal_pwr_ex.c ****   * @param  GPIO_Pin Specify the I/O pins numbers.
1302:Drivers/STM32U0xx_HAL_Driver/Src/stm32u0xx_hal_pwr_ex.c ****   *         This parameter can be one of the following values:
1303:Drivers/STM32U0xx_HAL_Driver/Src/stm32u0xx_hal_pwr_ex.c ****   *         PWR_GPIO_BIT_0, ..., PWR_GPIO_BIT_15 (except for the port where less
ARM GAS  C:\Users\upo\AppData\Local\Temp\ccTc2A2n.s 			page 66


1304:Drivers/STM32U0xx_HAL_Driver/Src/stm32u0xx_hal_pwr_ex.c ****   *         I/O pins are available) or the logical OR of several of them to reset
1305:Drivers/STM32U0xx_HAL_Driver/Src/stm32u0xx_hal_pwr_ex.c ****   *         several bits for a given port in a single API call.
1306:Drivers/STM32U0xx_HAL_Driver/Src/stm32u0xx_hal_pwr_ex.c ****   * @retval HAL Status
1307:Drivers/STM32U0xx_HAL_Driver/Src/stm32u0xx_hal_pwr_ex.c ****   */
1308:Drivers/STM32U0xx_HAL_Driver/Src/stm32u0xx_hal_pwr_ex.c **** HAL_StatusTypeDef HAL_PWREx_DisableGPIOPullDown(uint32_t GPIO_Port, uint32_t GPIO_Pin)
1309:Drivers/STM32U0xx_HAL_Driver/Src/stm32u0xx_hal_pwr_ex.c **** {
 2200              		.loc 1 1309 1 is_stmt 1 view -0
 2201              		.cfi_startproc
 2202              		@ args = 0, pretend = 0, frame = 0
 2203              		@ frame_needed = 0, uses_anonymous_args = 0
 2204              		@ link register save eliminated.
1310:Drivers/STM32U0xx_HAL_Driver/Src/stm32u0xx_hal_pwr_ex.c ****   HAL_StatusTypeDef status = HAL_OK;
 2205              		.loc 1 1310 3 view .LVU448
1311:Drivers/STM32U0xx_HAL_Driver/Src/stm32u0xx_hal_pwr_ex.c **** 
1312:Drivers/STM32U0xx_HAL_Driver/Src/stm32u0xx_hal_pwr_ex.c ****   assert_param(IS_PWR_GPIO_PORT(GPIO_Port));
 2206              		.loc 1 1312 3 view .LVU449
1313:Drivers/STM32U0xx_HAL_Driver/Src/stm32u0xx_hal_pwr_ex.c ****   assert_param(IS_PWR_GPIO_PIN_MASK(GPIO_Pin));
 2207              		.loc 1 1313 3 view .LVU450
1314:Drivers/STM32U0xx_HAL_Driver/Src/stm32u0xx_hal_pwr_ex.c **** 
1315:Drivers/STM32U0xx_HAL_Driver/Src/stm32u0xx_hal_pwr_ex.c ****   switch (GPIO_Port)
 2208              		.loc 1 1315 3 view .LVU451
 2209 0000 0528     		cmp	r0, #5
 2210 0002 2ED8     		bhi	.L209
 2211 0004 8000     		lsls	r0, r0, #2
 2212              	.LVL77:
 2213              		.loc 1 1315 3 is_stmt 0 view .LVU452
 2214 0006 184B     		ldr	r3, .L210
 2215 0008 1B58     		ldr	r3, [r3, r0]
 2216 000a 9F46     		mov	pc, r3
 2217              		.section	.rodata.HAL_PWREx_DisableGPIOPullDown,"a",%progbits
 2218              		.align	2
 2219              	.L203:
 2220 0000 0C000000 		.word	.L208
 2221 0004 18000000 		.word	.L207
 2222 0008 24000000 		.word	.L206
 2223 000c 30000000 		.word	.L205
 2224 0010 40000000 		.word	.L204
 2225 0014 52000000 		.word	.L202
 2226              		.section	.text.HAL_PWREx_DisableGPIOPullDown
 2227              	.L208:
1316:Drivers/STM32U0xx_HAL_Driver/Src/stm32u0xx_hal_pwr_ex.c ****   {
1317:Drivers/STM32U0xx_HAL_Driver/Src/stm32u0xx_hal_pwr_ex.c ****     case PWR_GPIO_A:
1318:Drivers/STM32U0xx_HAL_Driver/Src/stm32u0xx_hal_pwr_ex.c ****       CLEAR_BIT(PWR->PDCRA, GPIO_Pin);
 2228              		.loc 1 1318 7 is_stmt 1 view .LVU453
 2229 000c 174A     		ldr	r2, .L210+4
 2230 000e 536A     		ldr	r3, [r2, #36]
 2231 0010 8B43     		bics	r3, r1
 2232 0012 5362     		str	r3, [r2, #36]
1319:Drivers/STM32U0xx_HAL_Driver/Src/stm32u0xx_hal_pwr_ex.c ****       break;
 2233              		.loc 1 1319 7 view .LVU454
1310:Drivers/STM32U0xx_HAL_Driver/Src/stm32u0xx_hal_pwr_ex.c **** 
 2234              		.loc 1 1310 21 is_stmt 0 view .LVU455
 2235 0014 0020     		movs	r0, #0
 2236              	.L201:
 2237              	.LVL78:
1320:Drivers/STM32U0xx_HAL_Driver/Src/stm32u0xx_hal_pwr_ex.c **** 
1321:Drivers/STM32U0xx_HAL_Driver/Src/stm32u0xx_hal_pwr_ex.c ****     case PWR_GPIO_B:
ARM GAS  C:\Users\upo\AppData\Local\Temp\ccTc2A2n.s 			page 67


1322:Drivers/STM32U0xx_HAL_Driver/Src/stm32u0xx_hal_pwr_ex.c ****       CLEAR_BIT(PWR->PDCRB, GPIO_Pin);
1323:Drivers/STM32U0xx_HAL_Driver/Src/stm32u0xx_hal_pwr_ex.c ****       break;
1324:Drivers/STM32U0xx_HAL_Driver/Src/stm32u0xx_hal_pwr_ex.c **** 
1325:Drivers/STM32U0xx_HAL_Driver/Src/stm32u0xx_hal_pwr_ex.c ****     case PWR_GPIO_C:
1326:Drivers/STM32U0xx_HAL_Driver/Src/stm32u0xx_hal_pwr_ex.c ****       CLEAR_BIT(PWR->PDCRC, GPIO_Pin);
1327:Drivers/STM32U0xx_HAL_Driver/Src/stm32u0xx_hal_pwr_ex.c ****       break;
1328:Drivers/STM32U0xx_HAL_Driver/Src/stm32u0xx_hal_pwr_ex.c **** 
1329:Drivers/STM32U0xx_HAL_Driver/Src/stm32u0xx_hal_pwr_ex.c ****     case PWR_GPIO_D:
1330:Drivers/STM32U0xx_HAL_Driver/Src/stm32u0xx_hal_pwr_ex.c ****       CLEAR_BIT(PWR->PDCRD, (GPIO_Pin & PWR_PORTD_AVAILABLE_PINS));
1331:Drivers/STM32U0xx_HAL_Driver/Src/stm32u0xx_hal_pwr_ex.c ****       break;
1332:Drivers/STM32U0xx_HAL_Driver/Src/stm32u0xx_hal_pwr_ex.c **** 
1333:Drivers/STM32U0xx_HAL_Driver/Src/stm32u0xx_hal_pwr_ex.c **** #if defined (GPIOE)
1334:Drivers/STM32U0xx_HAL_Driver/Src/stm32u0xx_hal_pwr_ex.c ****     case PWR_GPIO_E:
1335:Drivers/STM32U0xx_HAL_Driver/Src/stm32u0xx_hal_pwr_ex.c ****       CLEAR_BIT(PWR->PDCRE, (GPIO_Pin & PWR_PORTE_AVAILABLE_PINS));
1336:Drivers/STM32U0xx_HAL_Driver/Src/stm32u0xx_hal_pwr_ex.c ****       break;
1337:Drivers/STM32U0xx_HAL_Driver/Src/stm32u0xx_hal_pwr_ex.c **** #endif /* GPIOE */
1338:Drivers/STM32U0xx_HAL_Driver/Src/stm32u0xx_hal_pwr_ex.c **** 
1339:Drivers/STM32U0xx_HAL_Driver/Src/stm32u0xx_hal_pwr_ex.c ****     case PWR_GPIO_F:
1340:Drivers/STM32U0xx_HAL_Driver/Src/stm32u0xx_hal_pwr_ex.c ****       CLEAR_BIT(PWR->PDCRF, (GPIO_Pin & PWR_PORTF_AVAILABLE_PINS));
1341:Drivers/STM32U0xx_HAL_Driver/Src/stm32u0xx_hal_pwr_ex.c ****       break;
1342:Drivers/STM32U0xx_HAL_Driver/Src/stm32u0xx_hal_pwr_ex.c **** 
1343:Drivers/STM32U0xx_HAL_Driver/Src/stm32u0xx_hal_pwr_ex.c ****     default:
1344:Drivers/STM32U0xx_HAL_Driver/Src/stm32u0xx_hal_pwr_ex.c ****       status = HAL_ERROR;
1345:Drivers/STM32U0xx_HAL_Driver/Src/stm32u0xx_hal_pwr_ex.c ****       break;
1346:Drivers/STM32U0xx_HAL_Driver/Src/stm32u0xx_hal_pwr_ex.c ****   }
1347:Drivers/STM32U0xx_HAL_Driver/Src/stm32u0xx_hal_pwr_ex.c **** 
1348:Drivers/STM32U0xx_HAL_Driver/Src/stm32u0xx_hal_pwr_ex.c ****   return status;
 2238              		.loc 1 1348 3 is_stmt 1 view .LVU456
1349:Drivers/STM32U0xx_HAL_Driver/Src/stm32u0xx_hal_pwr_ex.c **** }
 2239              		.loc 1 1349 1 is_stmt 0 view .LVU457
 2240              		@ sp needed
 2241 0016 7047     		bx	lr
 2242              	.LVL79:
 2243              	.L207:
1322:Drivers/STM32U0xx_HAL_Driver/Src/stm32u0xx_hal_pwr_ex.c ****       break;
 2244              		.loc 1 1322 7 is_stmt 1 view .LVU458
 2245 0018 144A     		ldr	r2, .L210+4
 2246 001a D36A     		ldr	r3, [r2, #44]
 2247 001c 8B43     		bics	r3, r1
 2248 001e D362     		str	r3, [r2, #44]
1323:Drivers/STM32U0xx_HAL_Driver/Src/stm32u0xx_hal_pwr_ex.c **** 
 2249              		.loc 1 1323 7 view .LVU459
1310:Drivers/STM32U0xx_HAL_Driver/Src/stm32u0xx_hal_pwr_ex.c **** 
 2250              		.loc 1 1310 21 is_stmt 0 view .LVU460
 2251 0020 0020     		movs	r0, #0
1323:Drivers/STM32U0xx_HAL_Driver/Src/stm32u0xx_hal_pwr_ex.c **** 
 2252              		.loc 1 1323 7 view .LVU461
 2253 0022 F8E7     		b	.L201
 2254              	.L206:
1326:Drivers/STM32U0xx_HAL_Driver/Src/stm32u0xx_hal_pwr_ex.c ****       break;
 2255              		.loc 1 1326 7 is_stmt 1 view .LVU462
 2256 0024 114A     		ldr	r2, .L210+4
 2257 0026 536B     		ldr	r3, [r2, #52]
 2258 0028 8B43     		bics	r3, r1
 2259 002a 5363     		str	r3, [r2, #52]
1327:Drivers/STM32U0xx_HAL_Driver/Src/stm32u0xx_hal_pwr_ex.c **** 
 2260              		.loc 1 1327 7 view .LVU463
ARM GAS  C:\Users\upo\AppData\Local\Temp\ccTc2A2n.s 			page 68


1310:Drivers/STM32U0xx_HAL_Driver/Src/stm32u0xx_hal_pwr_ex.c **** 
 2261              		.loc 1 1310 21 is_stmt 0 view .LVU464
 2262 002c 0020     		movs	r0, #0
1327:Drivers/STM32U0xx_HAL_Driver/Src/stm32u0xx_hal_pwr_ex.c **** 
 2263              		.loc 1 1327 7 view .LVU465
 2264 002e F2E7     		b	.L201
 2265              	.L205:
1330:Drivers/STM32U0xx_HAL_Driver/Src/stm32u0xx_hal_pwr_ex.c ****       break;
 2266              		.loc 1 1330 7 is_stmt 1 view .LVU466
 2267 0030 0E48     		ldr	r0, .L210+4
 2268 0032 C36B     		ldr	r3, [r0, #60]
 2269 0034 0E4A     		ldr	r2, .L210+8
 2270 0036 0A40     		ands	r2, r1
 2271 0038 9343     		bics	r3, r2
 2272 003a C363     		str	r3, [r0, #60]
1331:Drivers/STM32U0xx_HAL_Driver/Src/stm32u0xx_hal_pwr_ex.c **** 
 2273              		.loc 1 1331 7 view .LVU467
1310:Drivers/STM32U0xx_HAL_Driver/Src/stm32u0xx_hal_pwr_ex.c **** 
 2274              		.loc 1 1310 21 is_stmt 0 view .LVU468
 2275 003c 0020     		movs	r0, #0
1331:Drivers/STM32U0xx_HAL_Driver/Src/stm32u0xx_hal_pwr_ex.c **** 
 2276              		.loc 1 1331 7 view .LVU469
 2277 003e EAE7     		b	.L201
 2278              	.L204:
1335:Drivers/STM32U0xx_HAL_Driver/Src/stm32u0xx_hal_pwr_ex.c ****       break;
 2279              		.loc 1 1335 7 is_stmt 1 view .LVU470
 2280 0040 0A48     		ldr	r0, .L210+4
 2281 0042 436C     		ldr	r3, [r0, #68]
 2282 0044 E222     		movs	r2, #226
 2283 0046 9200     		lsls	r2, r2, #2
 2284 0048 0A40     		ands	r2, r1
 2285 004a 9343     		bics	r3, r2
 2286 004c 4364     		str	r3, [r0, #68]
1336:Drivers/STM32U0xx_HAL_Driver/Src/stm32u0xx_hal_pwr_ex.c **** #endif /* GPIOE */
 2287              		.loc 1 1336 7 view .LVU471
1310:Drivers/STM32U0xx_HAL_Driver/Src/stm32u0xx_hal_pwr_ex.c **** 
 2288              		.loc 1 1310 21 is_stmt 0 view .LVU472
 2289 004e 0020     		movs	r0, #0
1336:Drivers/STM32U0xx_HAL_Driver/Src/stm32u0xx_hal_pwr_ex.c **** #endif /* GPIOE */
 2290              		.loc 1 1336 7 view .LVU473
 2291 0050 E1E7     		b	.L201
 2292              	.L202:
1340:Drivers/STM32U0xx_HAL_Driver/Src/stm32u0xx_hal_pwr_ex.c ****       break;
 2293              		.loc 1 1340 7 is_stmt 1 view .LVU474
 2294 0052 0648     		ldr	r0, .L210+4
 2295 0054 C36C     		ldr	r3, [r0, #76]
 2296 0056 0F22     		movs	r2, #15
 2297 0058 0A40     		ands	r2, r1
 2298 005a 9343     		bics	r3, r2
 2299 005c C364     		str	r3, [r0, #76]
1341:Drivers/STM32U0xx_HAL_Driver/Src/stm32u0xx_hal_pwr_ex.c **** 
 2300              		.loc 1 1341 7 view .LVU475
1310:Drivers/STM32U0xx_HAL_Driver/Src/stm32u0xx_hal_pwr_ex.c **** 
 2301              		.loc 1 1310 21 is_stmt 0 view .LVU476
 2302 005e 0020     		movs	r0, #0
1341:Drivers/STM32U0xx_HAL_Driver/Src/stm32u0xx_hal_pwr_ex.c **** 
 2303              		.loc 1 1341 7 view .LVU477
ARM GAS  C:\Users\upo\AppData\Local\Temp\ccTc2A2n.s 			page 69


 2304 0060 D9E7     		b	.L201
 2305              	.LVL80:
 2306              	.L209:
1315:Drivers/STM32U0xx_HAL_Driver/Src/stm32u0xx_hal_pwr_ex.c ****   {
 2307              		.loc 1 1315 3 view .LVU478
 2308 0062 0120     		movs	r0, #1
 2309              	.LVL81:
1315:Drivers/STM32U0xx_HAL_Driver/Src/stm32u0xx_hal_pwr_ex.c ****   {
 2310              		.loc 1 1315 3 view .LVU479
 2311 0064 D7E7     		b	.L201
 2312              	.L211:
 2313 0066 C046     		.align	2
 2314              	.L210:
 2315 0068 00000000 		.word	.L203
 2316 006c 00700040 		.word	1073770496
 2317 0070 7F3F0000 		.word	16255
 2318              		.cfi_endproc
 2319              	.LFE368:
 2321              		.text
 2322              	.Letext0:
 2323              		.file 2 "C:\\ST\\STM32CubeCLT_1.15.0\\GNU-tools-for-STM32\\bin/../lib/gcc/arm-none-eabi/12.3.1/../
 2324              		.file 3 "C:\\ST\\STM32CubeCLT_1.15.0\\GNU-tools-for-STM32\\bin/../lib/gcc/arm-none-eabi/12.3.1/../
 2325              		.file 4 "Drivers/CMSIS/Include/core_cm0plus.h"
 2326              		.file 5 "Drivers/CMSIS/Device/ST/STM32U0xx/Include/stm32u073xx.h"
 2327              		.file 6 "Drivers/STM32U0xx_HAL_Driver/Inc/stm32u0xx_hal_def.h"
 2328              		.file 7 "Drivers/STM32U0xx_HAL_Driver/Inc/stm32u0xx_hal_pwr_ex.h"
 2329              		.file 8 "Drivers/CMSIS/Device/ST/STM32U0xx/Include/system_stm32u0xx.h"
 2330              		.file 9 "Drivers/STM32U0xx_HAL_Driver/Inc/stm32u0xx_ll_dma.h"
 2331              		.file 10 "Drivers/STM32U0xx_HAL_Driver/Inc/stm32u0xx_hal_pwr.h"
ARM GAS  C:\Users\upo\AppData\Local\Temp\ccTc2A2n.s 			page 70


DEFINED SYMBOLS
                            *ABS*:00000000 stm32u0xx_hal_pwr_ex.c
C:\Users\upo\AppData\Local\Temp\ccTc2A2n.s:20     .text.HAL_PWREx_ControlVoltageScaling:00000000 $t
C:\Users\upo\AppData\Local\Temp\ccTc2A2n.s:26     .text.HAL_PWREx_ControlVoltageScaling:00000000 HAL_PWREx_ControlVoltageScaling
C:\Users\upo\AppData\Local\Temp\ccTc2A2n.s:169    .text.HAL_PWREx_ControlVoltageScaling:0000008c $d
C:\Users\upo\AppData\Local\Temp\ccTc2A2n.s:177    .text.HAL_PWREx_GetVoltageRange:00000000 $t
C:\Users\upo\AppData\Local\Temp\ccTc2A2n.s:183    .text.HAL_PWREx_GetVoltageRange:00000000 HAL_PWREx_GetVoltageRange
C:\Users\upo\AppData\Local\Temp\ccTc2A2n.s:204    .text.HAL_PWREx_GetVoltageRange:0000000c $d
C:\Users\upo\AppData\Local\Temp\ccTc2A2n.s:209    .text.HAL_PWREx_EnableLowPowerRunMode:00000000 $t
C:\Users\upo\AppData\Local\Temp\ccTc2A2n.s:215    .text.HAL_PWREx_EnableLowPowerRunMode:00000000 HAL_PWREx_EnableLowPowerRunMode
C:\Users\upo\AppData\Local\Temp\ccTc2A2n.s:235    .text.HAL_PWREx_EnableLowPowerRunMode:00000010 $d
C:\Users\upo\AppData\Local\Temp\ccTc2A2n.s:240    .text.HAL_PWREx_DisableLowPowerRunMode:00000000 $t
C:\Users\upo\AppData\Local\Temp\ccTc2A2n.s:246    .text.HAL_PWREx_DisableLowPowerRunMode:00000000 HAL_PWREx_DisableLowPowerRunMode
C:\Users\upo\AppData\Local\Temp\ccTc2A2n.s:321    .text.HAL_PWREx_DisableLowPowerRunMode:0000003c $d
C:\Users\upo\AppData\Local\Temp\ccTc2A2n.s:329    .text.HAL_PWREx_EnterSTOP1Mode:00000000 $t
C:\Users\upo\AppData\Local\Temp\ccTc2A2n.s:335    .text.HAL_PWREx_EnterSTOP1Mode:00000000 HAL_PWREx_EnterSTOP1Mode
C:\Users\upo\AppData\Local\Temp\ccTc2A2n.s:399    .text.HAL_PWREx_EnterSTOP1Mode:00000034 $d
C:\Users\upo\AppData\Local\Temp\ccTc2A2n.s:405    .text.HAL_PWREx_EnterSTOP2Mode:00000000 $t
C:\Users\upo\AppData\Local\Temp\ccTc2A2n.s:411    .text.HAL_PWREx_EnterSTOP2Mode:00000000 HAL_PWREx_EnterSTOP2Mode
C:\Users\upo\AppData\Local\Temp\ccTc2A2n.s:480    .text.HAL_PWREx_EnterSTOP2Mode:0000003c $d
C:\Users\upo\AppData\Local\Temp\ccTc2A2n.s:487    .text.HAL_PWREx_EnablePVM1:00000000 $t
C:\Users\upo\AppData\Local\Temp\ccTc2A2n.s:493    .text.HAL_PWREx_EnablePVM1:00000000 HAL_PWREx_EnablePVM1
C:\Users\upo\AppData\Local\Temp\ccTc2A2n.s:512    .text.HAL_PWREx_EnablePVM1:0000000c $d
C:\Users\upo\AppData\Local\Temp\ccTc2A2n.s:517    .text.HAL_PWREx_DisablePVM1:00000000 $t
C:\Users\upo\AppData\Local\Temp\ccTc2A2n.s:523    .text.HAL_PWREx_DisablePVM1:00000000 HAL_PWREx_DisablePVM1
C:\Users\upo\AppData\Local\Temp\ccTc2A2n.s:542    .text.HAL_PWREx_DisablePVM1:0000000c $d
C:\Users\upo\AppData\Local\Temp\ccTc2A2n.s:547    .text.HAL_PWREx_EnablePVM3:00000000 $t
C:\Users\upo\AppData\Local\Temp\ccTc2A2n.s:553    .text.HAL_PWREx_EnablePVM3:00000000 HAL_PWREx_EnablePVM3
C:\Users\upo\AppData\Local\Temp\ccTc2A2n.s:572    .text.HAL_PWREx_EnablePVM3:0000000c $d
C:\Users\upo\AppData\Local\Temp\ccTc2A2n.s:577    .text.HAL_PWREx_DisablePVM3:00000000 $t
C:\Users\upo\AppData\Local\Temp\ccTc2A2n.s:583    .text.HAL_PWREx_DisablePVM3:00000000 HAL_PWREx_DisablePVM3
C:\Users\upo\AppData\Local\Temp\ccTc2A2n.s:602    .text.HAL_PWREx_DisablePVM3:0000000c $d
C:\Users\upo\AppData\Local\Temp\ccTc2A2n.s:607    .text.HAL_PWREx_EnablePVM4:00000000 $t
C:\Users\upo\AppData\Local\Temp\ccTc2A2n.s:613    .text.HAL_PWREx_EnablePVM4:00000000 HAL_PWREx_EnablePVM4
C:\Users\upo\AppData\Local\Temp\ccTc2A2n.s:632    .text.HAL_PWREx_EnablePVM4:0000000c $d
C:\Users\upo\AppData\Local\Temp\ccTc2A2n.s:637    .text.HAL_PWREx_DisablePVM4:00000000 $t
C:\Users\upo\AppData\Local\Temp\ccTc2A2n.s:643    .text.HAL_PWREx_DisablePVM4:00000000 HAL_PWREx_DisablePVM4
C:\Users\upo\AppData\Local\Temp\ccTc2A2n.s:662    .text.HAL_PWREx_DisablePVM4:0000000c $d
C:\Users\upo\AppData\Local\Temp\ccTc2A2n.s:667    .text.HAL_PWREx_ConfigPVM:00000000 $t
C:\Users\upo\AppData\Local\Temp\ccTc2A2n.s:673    .text.HAL_PWREx_ConfigPVM:00000000 HAL_PWREx_ConfigPVM
C:\Users\upo\AppData\Local\Temp\ccTc2A2n.s:985    .text.HAL_PWREx_ConfigPVM:00000174 $d
C:\Users\upo\AppData\Local\Temp\ccTc2A2n.s:993    .text.HAL_PWREx_EnableVddUSB:00000000 $t
C:\Users\upo\AppData\Local\Temp\ccTc2A2n.s:999    .text.HAL_PWREx_EnableVddUSB:00000000 HAL_PWREx_EnableVddUSB
C:\Users\upo\AppData\Local\Temp\ccTc2A2n.s:1019   .text.HAL_PWREx_EnableVddUSB:00000010 $d
C:\Users\upo\AppData\Local\Temp\ccTc2A2n.s:1024   .text.HAL_PWREx_DisableVddUSB:00000000 $t
C:\Users\upo\AppData\Local\Temp\ccTc2A2n.s:1030   .text.HAL_PWREx_DisableVddUSB:00000000 HAL_PWREx_DisableVddUSB
C:\Users\upo\AppData\Local\Temp\ccTc2A2n.s:1049   .text.HAL_PWREx_DisableVddUSB:0000000c $d
C:\Users\upo\AppData\Local\Temp\ccTc2A2n.s:1055   .text.HAL_PWREx_EnableBatteryCharging:00000000 $t
C:\Users\upo\AppData\Local\Temp\ccTc2A2n.s:1061   .text.HAL_PWREx_EnableBatteryCharging:00000000 HAL_PWREx_EnableBatteryCharging
C:\Users\upo\AppData\Local\Temp\ccTc2A2n.s:1089   .text.HAL_PWREx_EnableBatteryCharging:00000018 $d
C:\Users\upo\AppData\Local\Temp\ccTc2A2n.s:1095   .text.HAL_PWREx_DisableBatteryCharging:00000000 $t
C:\Users\upo\AppData\Local\Temp\ccTc2A2n.s:1101   .text.HAL_PWREx_DisableBatteryCharging:00000000 HAL_PWREx_DisableBatteryCharging
C:\Users\upo\AppData\Local\Temp\ccTc2A2n.s:1120   .text.HAL_PWREx_DisableBatteryCharging:0000000c $d
C:\Users\upo\AppData\Local\Temp\ccTc2A2n.s:1126   .text.HAL_PWREx_PVM1_Callback:00000000 $t
C:\Users\upo\AppData\Local\Temp\ccTc2A2n.s:1132   .text.HAL_PWREx_PVM1_Callback:00000000 HAL_PWREx_PVM1_Callback
C:\Users\upo\AppData\Local\Temp\ccTc2A2n.s:1146   .text.HAL_PWREx_PVM3_Callback:00000000 $t
C:\Users\upo\AppData\Local\Temp\ccTc2A2n.s:1152   .text.HAL_PWREx_PVM3_Callback:00000000 HAL_PWREx_PVM3_Callback
ARM GAS  C:\Users\upo\AppData\Local\Temp\ccTc2A2n.s 			page 71


C:\Users\upo\AppData\Local\Temp\ccTc2A2n.s:1166   .text.HAL_PWREx_PVM4_Callback:00000000 $t
C:\Users\upo\AppData\Local\Temp\ccTc2A2n.s:1172   .text.HAL_PWREx_PVM4_Callback:00000000 HAL_PWREx_PVM4_Callback
C:\Users\upo\AppData\Local\Temp\ccTc2A2n.s:1186   .text.HAL_PWREx_PVD_PVM_IRQHandler:00000000 $t
C:\Users\upo\AppData\Local\Temp\ccTc2A2n.s:1192   .text.HAL_PWREx_PVD_PVM_IRQHandler:00000000 HAL_PWREx_PVD_PVM_IRQHandler
C:\Users\upo\AppData\Local\Temp\ccTc2A2n.s:1414   .text.HAL_PWREx_PVD_PVM_IRQHandler:000000e4 $d
C:\Users\upo\AppData\Local\Temp\ccTc2A2n.s:1420   .text.HAL_PWREx_EnableInternalWakeUpLine:00000000 $t
C:\Users\upo\AppData\Local\Temp\ccTc2A2n.s:1426   .text.HAL_PWREx_EnableInternalWakeUpLine:00000000 HAL_PWREx_EnableInternalWakeUpLine
C:\Users\upo\AppData\Local\Temp\ccTc2A2n.s:1446   .text.HAL_PWREx_EnableInternalWakeUpLine:00000010 $d
C:\Users\upo\AppData\Local\Temp\ccTc2A2n.s:1451   .text.HAL_PWREx_DisableInternalWakeUpLine:00000000 $t
C:\Users\upo\AppData\Local\Temp\ccTc2A2n.s:1457   .text.HAL_PWREx_DisableInternalWakeUpLine:00000000 HAL_PWREx_DisableInternalWakeUpLine
C:\Users\upo\AppData\Local\Temp\ccTc2A2n.s:1476   .text.HAL_PWREx_DisableInternalWakeUpLine:0000000c $d
C:\Users\upo\AppData\Local\Temp\ccTc2A2n.s:1482   .text.HAL_PWREx_EnableSRAMContentRetention:00000000 $t
C:\Users\upo\AppData\Local\Temp\ccTc2A2n.s:1488   .text.HAL_PWREx_EnableSRAMContentRetention:00000000 HAL_PWREx_EnableSRAMContentRetention
C:\Users\upo\AppData\Local\Temp\ccTc2A2n.s:1508   .text.HAL_PWREx_EnableSRAMContentRetention:00000010 $d
C:\Users\upo\AppData\Local\Temp\ccTc2A2n.s:1513   .text.HAL_PWREx_DisableSRAMContentRetention:00000000 $t
C:\Users\upo\AppData\Local\Temp\ccTc2A2n.s:1519   .text.HAL_PWREx_DisableSRAMContentRetention:00000000 HAL_PWREx_DisableSRAMContentRetention
C:\Users\upo\AppData\Local\Temp\ccTc2A2n.s:1538   .text.HAL_PWREx_DisableSRAMContentRetention:0000000c $d
C:\Users\upo\AppData\Local\Temp\ccTc2A2n.s:1544   .text.HAL_PWREx_EnableFlashPowerDown:00000000 $t
C:\Users\upo\AppData\Local\Temp\ccTc2A2n.s:1550   .text.HAL_PWREx_EnableFlashPowerDown:00000000 HAL_PWREx_EnableFlashPowerDown
C:\Users\upo\AppData\Local\Temp\ccTc2A2n.s:1572   .text.HAL_PWREx_EnableFlashPowerDown:0000000c $d
C:\Users\upo\AppData\Local\Temp\ccTc2A2n.s:1577   .text.HAL_PWREx_DisableFlashPowerDown:00000000 $t
C:\Users\upo\AppData\Local\Temp\ccTc2A2n.s:1583   .text.HAL_PWREx_DisableFlashPowerDown:00000000 HAL_PWREx_DisableFlashPowerDown
C:\Users\upo\AppData\Local\Temp\ccTc2A2n.s:1605   .text.HAL_PWREx_DisableFlashPowerDown:0000000c $d
C:\Users\upo\AppData\Local\Temp\ccTc2A2n.s:1610   .text.HAL_PWREx_EnableUltraLowPowerMode:00000000 $t
C:\Users\upo\AppData\Local\Temp\ccTc2A2n.s:1616   .text.HAL_PWREx_EnableUltraLowPowerMode:00000000 HAL_PWREx_EnableUltraLowPowerMode
C:\Users\upo\AppData\Local\Temp\ccTc2A2n.s:1636   .text.HAL_PWREx_EnableUltraLowPowerMode:00000010 $d
C:\Users\upo\AppData\Local\Temp\ccTc2A2n.s:1641   .text.HAL_PWREx_DisableUltraLowPowerMode:00000000 $t
C:\Users\upo\AppData\Local\Temp\ccTc2A2n.s:1647   .text.HAL_PWREx_DisableUltraLowPowerMode:00000000 HAL_PWREx_DisableUltraLowPowerMode
C:\Users\upo\AppData\Local\Temp\ccTc2A2n.s:1666   .text.HAL_PWREx_DisableUltraLowPowerMode:0000000c $d
C:\Users\upo\AppData\Local\Temp\ccTc2A2n.s:1672   .text.HAL_PWREx_EnablePullUpPullDownConfig:00000000 $t
C:\Users\upo\AppData\Local\Temp\ccTc2A2n.s:1678   .text.HAL_PWREx_EnablePullUpPullDownConfig:00000000 HAL_PWREx_EnablePullUpPullDownConfig
C:\Users\upo\AppData\Local\Temp\ccTc2A2n.s:1698   .text.HAL_PWREx_EnablePullUpPullDownConfig:00000010 $d
C:\Users\upo\AppData\Local\Temp\ccTc2A2n.s:1703   .text.HAL_PWREx_DisablePullUpPullDownConfig:00000000 $t
C:\Users\upo\AppData\Local\Temp\ccTc2A2n.s:1709   .text.HAL_PWREx_DisablePullUpPullDownConfig:00000000 HAL_PWREx_DisablePullUpPullDownConfig
C:\Users\upo\AppData\Local\Temp\ccTc2A2n.s:1728   .text.HAL_PWREx_DisablePullUpPullDownConfig:0000000c $d
C:\Users\upo\AppData\Local\Temp\ccTc2A2n.s:1734   .text.HAL_PWREx_EnableGPIOPullUp:00000000 $t
C:\Users\upo\AppData\Local\Temp\ccTc2A2n.s:1740   .text.HAL_PWREx_EnableGPIOPullUp:00000000 HAL_PWREx_EnableGPIOPullUp
C:\Users\upo\AppData\Local\Temp\ccTc2A2n.s:1761   .rodata.HAL_PWREx_EnableGPIOPullUp:00000000 $d
C:\Users\upo\AppData\Local\Temp\ccTc2A2n.s:1890   .text.HAL_PWREx_EnableGPIOPullUp:0000008c $d
C:\Users\upo\AppData\Local\Temp\ccTc2A2n.s:1897   .text.HAL_PWREx_DisableGPIOPullUp:00000000 $t
C:\Users\upo\AppData\Local\Temp\ccTc2A2n.s:1903   .text.HAL_PWREx_DisableGPIOPullUp:00000000 HAL_PWREx_DisableGPIOPullUp
C:\Users\upo\AppData\Local\Temp\ccTc2A2n.s:1924   .rodata.HAL_PWREx_DisableGPIOPullUp:00000000 $d
C:\Users\upo\AppData\Local\Temp\ccTc2A2n.s:2021   .text.HAL_PWREx_DisableGPIOPullUp:00000068 $d
C:\Users\upo\AppData\Local\Temp\ccTc2A2n.s:2028   .text.HAL_PWREx_EnableGPIOPullDown:00000000 $t
C:\Users\upo\AppData\Local\Temp\ccTc2A2n.s:2034   .text.HAL_PWREx_EnableGPIOPullDown:00000000 HAL_PWREx_EnableGPIOPullDown
C:\Users\upo\AppData\Local\Temp\ccTc2A2n.s:2055   .rodata.HAL_PWREx_EnableGPIOPullDown:00000000 $d
C:\Users\upo\AppData\Local\Temp\ccTc2A2n.s:2184   .text.HAL_PWREx_EnableGPIOPullDown:0000008c $d
C:\Users\upo\AppData\Local\Temp\ccTc2A2n.s:2191   .text.HAL_PWREx_DisableGPIOPullDown:00000000 $t
C:\Users\upo\AppData\Local\Temp\ccTc2A2n.s:2197   .text.HAL_PWREx_DisableGPIOPullDown:00000000 HAL_PWREx_DisableGPIOPullDown
C:\Users\upo\AppData\Local\Temp\ccTc2A2n.s:2218   .rodata.HAL_PWREx_DisableGPIOPullDown:00000000 $d
C:\Users\upo\AppData\Local\Temp\ccTc2A2n.s:2315   .text.HAL_PWREx_DisableGPIOPullDown:00000068 $d

UNDEFINED SYMBOLS
__aeabi_uidiv
SystemCoreClock
HAL_PWR_PVDCallback
