ARM GAS  C:\Users\upo\AppData\Local\Temp\ccZrPTgE.s 			page 1


   1              		.cpu cortex-m0plus
   2              		.arch armv6s-m
   3              		.fpu softvfp
   4              		.eabi_attribute 20, 1
   5              		.eabi_attribute 21, 1
   6              		.eabi_attribute 23, 3
   7              		.eabi_attribute 24, 1
   8              		.eabi_attribute 25, 1
   9              		.eabi_attribute 26, 1
  10              		.eabi_attribute 30, 1
  11              		.eabi_attribute 34, 0
  12              		.eabi_attribute 18, 4
  13              		.file	"stm32u0xx_hal_adc_ex.c"
  14              		.text
  15              	.Ltext0:
  16              		.cfi_sections	.debug_frame
  17              		.file 1 "Drivers/STM32U0xx_HAL_Driver/Src/stm32u0xx_hal_adc_ex.c"
  18              		.global	__aeabi_uidiv
  19              		.section	.text.HAL_ADCEx_Calibration_Start,"ax",%progbits
  20              		.align	1
  21              		.global	HAL_ADCEx_Calibration_Start
  22              		.syntax unified
  23              		.code	16
  24              		.thumb_func
  26              	HAL_ADCEx_Calibration_Start:
  27              	.LVL0:
  28              	.LFB334:
   1:Drivers/STM32U0xx_HAL_Driver/Src/stm32u0xx_hal_adc_ex.c **** /**
   2:Drivers/STM32U0xx_HAL_Driver/Src/stm32u0xx_hal_adc_ex.c ****   ******************************************************************************
   3:Drivers/STM32U0xx_HAL_Driver/Src/stm32u0xx_hal_adc_ex.c ****   * @file    stm32u0xx_hal_adc_ex.c
   4:Drivers/STM32U0xx_HAL_Driver/Src/stm32u0xx_hal_adc_ex.c ****   * @author  MCD Application Team
   5:Drivers/STM32U0xx_HAL_Driver/Src/stm32u0xx_hal_adc_ex.c ****   * @brief   This file provides firmware functions to manage the following
   6:Drivers/STM32U0xx_HAL_Driver/Src/stm32u0xx_hal_adc_ex.c ****   *          functionalities of the Analog to Digital Converter (ADC)
   7:Drivers/STM32U0xx_HAL_Driver/Src/stm32u0xx_hal_adc_ex.c ****   *          peripheral:
   8:Drivers/STM32U0xx_HAL_Driver/Src/stm32u0xx_hal_adc_ex.c ****   *           + Peripheral Control functions
   9:Drivers/STM32U0xx_HAL_Driver/Src/stm32u0xx_hal_adc_ex.c ****   *          Other functions (generic functions) are available in file
  10:Drivers/STM32U0xx_HAL_Driver/Src/stm32u0xx_hal_adc_ex.c ****   *          "stm32u0xx_hal_adc.c".
  11:Drivers/STM32U0xx_HAL_Driver/Src/stm32u0xx_hal_adc_ex.c ****   *
  12:Drivers/STM32U0xx_HAL_Driver/Src/stm32u0xx_hal_adc_ex.c ****   ******************************************************************************
  13:Drivers/STM32U0xx_HAL_Driver/Src/stm32u0xx_hal_adc_ex.c ****   * @attention
  14:Drivers/STM32U0xx_HAL_Driver/Src/stm32u0xx_hal_adc_ex.c ****   *
  15:Drivers/STM32U0xx_HAL_Driver/Src/stm32u0xx_hal_adc_ex.c ****   * Copyright (c) 2023 STMicroelectronics.
  16:Drivers/STM32U0xx_HAL_Driver/Src/stm32u0xx_hal_adc_ex.c ****   * All rights reserved.
  17:Drivers/STM32U0xx_HAL_Driver/Src/stm32u0xx_hal_adc_ex.c ****   *
  18:Drivers/STM32U0xx_HAL_Driver/Src/stm32u0xx_hal_adc_ex.c ****   * This software is licensed under terms that can be found in the LICENSE file
  19:Drivers/STM32U0xx_HAL_Driver/Src/stm32u0xx_hal_adc_ex.c ****   * in the root directory of this software component.
  20:Drivers/STM32U0xx_HAL_Driver/Src/stm32u0xx_hal_adc_ex.c ****   * If no LICENSE file comes with this software, it is provided AS-IS.
  21:Drivers/STM32U0xx_HAL_Driver/Src/stm32u0xx_hal_adc_ex.c ****   *
  22:Drivers/STM32U0xx_HAL_Driver/Src/stm32u0xx_hal_adc_ex.c ****   ******************************************************************************
  23:Drivers/STM32U0xx_HAL_Driver/Src/stm32u0xx_hal_adc_ex.c ****   @verbatim
  24:Drivers/STM32U0xx_HAL_Driver/Src/stm32u0xx_hal_adc_ex.c ****   [..]
  25:Drivers/STM32U0xx_HAL_Driver/Src/stm32u0xx_hal_adc_ex.c ****   (@) Sections "ADC peripheral features" and "How to use this driver" are
  26:Drivers/STM32U0xx_HAL_Driver/Src/stm32u0xx_hal_adc_ex.c ****       available in file of generic functions "stm32u0xx_hal_adc.c".
  27:Drivers/STM32U0xx_HAL_Driver/Src/stm32u0xx_hal_adc_ex.c ****   [..]
  28:Drivers/STM32U0xx_HAL_Driver/Src/stm32u0xx_hal_adc_ex.c ****   @endverbatim
  29:Drivers/STM32U0xx_HAL_Driver/Src/stm32u0xx_hal_adc_ex.c ****   ******************************************************************************
  30:Drivers/STM32U0xx_HAL_Driver/Src/stm32u0xx_hal_adc_ex.c ****   */
ARM GAS  C:\Users\upo\AppData\Local\Temp\ccZrPTgE.s 			page 2


  31:Drivers/STM32U0xx_HAL_Driver/Src/stm32u0xx_hal_adc_ex.c **** 
  32:Drivers/STM32U0xx_HAL_Driver/Src/stm32u0xx_hal_adc_ex.c **** /* Includes ------------------------------------------------------------------*/
  33:Drivers/STM32U0xx_HAL_Driver/Src/stm32u0xx_hal_adc_ex.c **** #include "stm32u0xx_hal.h"
  34:Drivers/STM32U0xx_HAL_Driver/Src/stm32u0xx_hal_adc_ex.c **** 
  35:Drivers/STM32U0xx_HAL_Driver/Src/stm32u0xx_hal_adc_ex.c **** /** @addtogroup STM32U0xx_HAL_Driver
  36:Drivers/STM32U0xx_HAL_Driver/Src/stm32u0xx_hal_adc_ex.c ****   * @{
  37:Drivers/STM32U0xx_HAL_Driver/Src/stm32u0xx_hal_adc_ex.c ****   */
  38:Drivers/STM32U0xx_HAL_Driver/Src/stm32u0xx_hal_adc_ex.c **** 
  39:Drivers/STM32U0xx_HAL_Driver/Src/stm32u0xx_hal_adc_ex.c **** /** @defgroup ADCEx ADCEx
  40:Drivers/STM32U0xx_HAL_Driver/Src/stm32u0xx_hal_adc_ex.c ****   * @brief ADC Extended HAL module driver
  41:Drivers/STM32U0xx_HAL_Driver/Src/stm32u0xx_hal_adc_ex.c ****   * @{
  42:Drivers/STM32U0xx_HAL_Driver/Src/stm32u0xx_hal_adc_ex.c ****   */
  43:Drivers/STM32U0xx_HAL_Driver/Src/stm32u0xx_hal_adc_ex.c **** 
  44:Drivers/STM32U0xx_HAL_Driver/Src/stm32u0xx_hal_adc_ex.c **** #ifdef HAL_ADC_MODULE_ENABLED
  45:Drivers/STM32U0xx_HAL_Driver/Src/stm32u0xx_hal_adc_ex.c **** 
  46:Drivers/STM32U0xx_HAL_Driver/Src/stm32u0xx_hal_adc_ex.c **** /* Private typedef -----------------------------------------------------------*/
  47:Drivers/STM32U0xx_HAL_Driver/Src/stm32u0xx_hal_adc_ex.c **** /* Private define ------------------------------------------------------------*/
  48:Drivers/STM32U0xx_HAL_Driver/Src/stm32u0xx_hal_adc_ex.c **** 
  49:Drivers/STM32U0xx_HAL_Driver/Src/stm32u0xx_hal_adc_ex.c **** /** @defgroup ADCEx_Private_Constants ADC Extended Private Constants
  50:Drivers/STM32U0xx_HAL_Driver/Src/stm32u0xx_hal_adc_ex.c ****   * @{
  51:Drivers/STM32U0xx_HAL_Driver/Src/stm32u0xx_hal_adc_ex.c ****   */
  52:Drivers/STM32U0xx_HAL_Driver/Src/stm32u0xx_hal_adc_ex.c **** 
  53:Drivers/STM32U0xx_HAL_Driver/Src/stm32u0xx_hal_adc_ex.c **** /* Fixed timeout value for ADC calibration.                                   */
  54:Drivers/STM32U0xx_HAL_Driver/Src/stm32u0xx_hal_adc_ex.c **** /* Values defined to be higher than worst cases: maximum ratio between ADC    */
  55:Drivers/STM32U0xx_HAL_Driver/Src/stm32u0xx_hal_adc_ex.c **** /* and CPU clock frequencies.                                                 */
  56:Drivers/STM32U0xx_HAL_Driver/Src/stm32u0xx_hal_adc_ex.c **** /* Example of profile low frequency : ADC frequency at 31.25kHz (ADC clock    */
  57:Drivers/STM32U0xx_HAL_Driver/Src/stm32u0xx_hal_adc_ex.c **** /* source PLL 8MHz, ADC clock prescaler 256), CPU frequency 48MHz.            */
  58:Drivers/STM32U0xx_HAL_Driver/Src/stm32u0xx_hal_adc_ex.c **** /* Calibration time max = 116 / fADC (refer to datasheet)                     */
  59:Drivers/STM32U0xx_HAL_Driver/Src/stm32u0xx_hal_adc_ex.c **** /*                      = 178 176 CPU cycles                                  */
  60:Drivers/STM32U0xx_HAL_Driver/Src/stm32u0xx_hal_adc_ex.c **** #define ADC_CALIBRATION_TIMEOUT         (178176UL)   /*!< ADC calibration time-out value (unit: CPU
  61:Drivers/STM32U0xx_HAL_Driver/Src/stm32u0xx_hal_adc_ex.c **** #define ADC_DISABLE_TIMEOUT             (2UL)
  62:Drivers/STM32U0xx_HAL_Driver/Src/stm32u0xx_hal_adc_ex.c **** 
  63:Drivers/STM32U0xx_HAL_Driver/Src/stm32u0xx_hal_adc_ex.c **** /**
  64:Drivers/STM32U0xx_HAL_Driver/Src/stm32u0xx_hal_adc_ex.c ****   * @}
  65:Drivers/STM32U0xx_HAL_Driver/Src/stm32u0xx_hal_adc_ex.c ****   */
  66:Drivers/STM32U0xx_HAL_Driver/Src/stm32u0xx_hal_adc_ex.c **** 
  67:Drivers/STM32U0xx_HAL_Driver/Src/stm32u0xx_hal_adc_ex.c **** /* Private macro -------------------------------------------------------------*/
  68:Drivers/STM32U0xx_HAL_Driver/Src/stm32u0xx_hal_adc_ex.c **** /* Private variables ---------------------------------------------------------*/
  69:Drivers/STM32U0xx_HAL_Driver/Src/stm32u0xx_hal_adc_ex.c **** /* Private function prototypes -----------------------------------------------*/
  70:Drivers/STM32U0xx_HAL_Driver/Src/stm32u0xx_hal_adc_ex.c **** /* Exported functions --------------------------------------------------------*/
  71:Drivers/STM32U0xx_HAL_Driver/Src/stm32u0xx_hal_adc_ex.c **** 
  72:Drivers/STM32U0xx_HAL_Driver/Src/stm32u0xx_hal_adc_ex.c **** /** @defgroup ADCEx_Exported_Functions ADC Extended Exported Functions
  73:Drivers/STM32U0xx_HAL_Driver/Src/stm32u0xx_hal_adc_ex.c ****   * @{
  74:Drivers/STM32U0xx_HAL_Driver/Src/stm32u0xx_hal_adc_ex.c ****   */
  75:Drivers/STM32U0xx_HAL_Driver/Src/stm32u0xx_hal_adc_ex.c **** 
  76:Drivers/STM32U0xx_HAL_Driver/Src/stm32u0xx_hal_adc_ex.c **** /** @defgroup ADCEx_Exported_Functions_Group1 Extended Input and Output operation functions
  77:Drivers/STM32U0xx_HAL_Driver/Src/stm32u0xx_hal_adc_ex.c ****   * @brief    Extended IO operation functions
  78:Drivers/STM32U0xx_HAL_Driver/Src/stm32u0xx_hal_adc_ex.c ****   *
  79:Drivers/STM32U0xx_HAL_Driver/Src/stm32u0xx_hal_adc_ex.c **** @verbatim
  80:Drivers/STM32U0xx_HAL_Driver/Src/stm32u0xx_hal_adc_ex.c ****  ===============================================================================
  81:Drivers/STM32U0xx_HAL_Driver/Src/stm32u0xx_hal_adc_ex.c ****                       ##### IO operation functions #####
  82:Drivers/STM32U0xx_HAL_Driver/Src/stm32u0xx_hal_adc_ex.c ****  ===============================================================================
  83:Drivers/STM32U0xx_HAL_Driver/Src/stm32u0xx_hal_adc_ex.c ****     [..]  This section provides functions allowing to:
  84:Drivers/STM32U0xx_HAL_Driver/Src/stm32u0xx_hal_adc_ex.c **** 
  85:Drivers/STM32U0xx_HAL_Driver/Src/stm32u0xx_hal_adc_ex.c ****       (+) Perform the ADC self-calibration.
  86:Drivers/STM32U0xx_HAL_Driver/Src/stm32u0xx_hal_adc_ex.c ****       (+) Get calibration factors.
  87:Drivers/STM32U0xx_HAL_Driver/Src/stm32u0xx_hal_adc_ex.c ****       (+) Set calibration factors.
ARM GAS  C:\Users\upo\AppData\Local\Temp\ccZrPTgE.s 			page 3


  88:Drivers/STM32U0xx_HAL_Driver/Src/stm32u0xx_hal_adc_ex.c **** 
  89:Drivers/STM32U0xx_HAL_Driver/Src/stm32u0xx_hal_adc_ex.c **** @endverbatim
  90:Drivers/STM32U0xx_HAL_Driver/Src/stm32u0xx_hal_adc_ex.c ****   * @{
  91:Drivers/STM32U0xx_HAL_Driver/Src/stm32u0xx_hal_adc_ex.c ****   */
  92:Drivers/STM32U0xx_HAL_Driver/Src/stm32u0xx_hal_adc_ex.c **** 
  93:Drivers/STM32U0xx_HAL_Driver/Src/stm32u0xx_hal_adc_ex.c **** /**
  94:Drivers/STM32U0xx_HAL_Driver/Src/stm32u0xx_hal_adc_ex.c ****   * @brief  Perform an ADC automatic self-calibration
  95:Drivers/STM32U0xx_HAL_Driver/Src/stm32u0xx_hal_adc_ex.c ****   *         Calibration prerequisite: ADC must be disabled (execute this
  96:Drivers/STM32U0xx_HAL_Driver/Src/stm32u0xx_hal_adc_ex.c ****   *         function before HAL_ADC_Start() or after HAL_ADC_Stop() ).
  97:Drivers/STM32U0xx_HAL_Driver/Src/stm32u0xx_hal_adc_ex.c ****   * @note   Calibration factor can be read after calibration, using function
  98:Drivers/STM32U0xx_HAL_Driver/Src/stm32u0xx_hal_adc_ex.c ****   *         HAL_ADC_GetValue() (value on 7 bits: from DR[6;0]).
  99:Drivers/STM32U0xx_HAL_Driver/Src/stm32u0xx_hal_adc_ex.c ****   * @param  hadc       ADC handle
 100:Drivers/STM32U0xx_HAL_Driver/Src/stm32u0xx_hal_adc_ex.c ****   * @retval HAL status
 101:Drivers/STM32U0xx_HAL_Driver/Src/stm32u0xx_hal_adc_ex.c ****   */
 102:Drivers/STM32U0xx_HAL_Driver/Src/stm32u0xx_hal_adc_ex.c **** HAL_StatusTypeDef HAL_ADCEx_Calibration_Start(ADC_HandleTypeDef *hadc)
 103:Drivers/STM32U0xx_HAL_Driver/Src/stm32u0xx_hal_adc_ex.c **** {
  29              		.loc 1 103 1 view -0
  30              		.cfi_startproc
  31              		@ args = 0, pretend = 0, frame = 8
  32              		@ frame_needed = 0, uses_anonymous_args = 0
  33              		.loc 1 103 1 is_stmt 0 view .LVU1
  34 0000 F0B5     		push	{r4, r5, r6, r7, lr}
  35              	.LCFI0:
  36              		.cfi_def_cfa_offset 20
  37              		.cfi_offset 4, -20
  38              		.cfi_offset 5, -16
  39              		.cfi_offset 6, -12
  40              		.cfi_offset 7, -8
  41              		.cfi_offset 14, -4
  42 0002 83B0     		sub	sp, sp, #12
  43              	.LCFI1:
  44              		.cfi_def_cfa_offset 32
  45 0004 0400     		movs	r4, r0
 104:Drivers/STM32U0xx_HAL_Driver/Src/stm32u0xx_hal_adc_ex.c ****   HAL_StatusTypeDef tmp_hal_status;
  46              		.loc 1 104 3 is_stmt 1 view .LVU2
 105:Drivers/STM32U0xx_HAL_Driver/Src/stm32u0xx_hal_adc_ex.c ****   __IO uint32_t wait_loop_index = 0UL;
  47              		.loc 1 105 3 view .LVU3
  48              		.loc 1 105 17 is_stmt 0 view .LVU4
  49 0006 0023     		movs	r3, #0
  50 0008 0193     		str	r3, [sp, #4]
 106:Drivers/STM32U0xx_HAL_Driver/Src/stm32u0xx_hal_adc_ex.c ****   uint32_t backup_setting_cfgr1;
  51              		.loc 1 106 3 is_stmt 1 view .LVU5
 107:Drivers/STM32U0xx_HAL_Driver/Src/stm32u0xx_hal_adc_ex.c ****   uint32_t calibration_index;
  52              		.loc 1 107 3 view .LVU6
 108:Drivers/STM32U0xx_HAL_Driver/Src/stm32u0xx_hal_adc_ex.c ****   uint32_t calibration_factor_accumulated = 0;
  53              		.loc 1 108 3 view .LVU7
  54              	.LVL1:
 109:Drivers/STM32U0xx_HAL_Driver/Src/stm32u0xx_hal_adc_ex.c ****   uint32_t tickstart;
  55              		.loc 1 109 3 view .LVU8
 110:Drivers/STM32U0xx_HAL_Driver/Src/stm32u0xx_hal_adc_ex.c ****   uint32_t adc_clk_async_presc;
  56              		.loc 1 110 3 view .LVU9
 111:Drivers/STM32U0xx_HAL_Driver/Src/stm32u0xx_hal_adc_ex.c ****   __IO uint32_t delay_cpu_cycles;
  57              		.loc 1 111 3 view .LVU10
 112:Drivers/STM32U0xx_HAL_Driver/Src/stm32u0xx_hal_adc_ex.c **** 
 113:Drivers/STM32U0xx_HAL_Driver/Src/stm32u0xx_hal_adc_ex.c ****   /* Check the parameters */
 114:Drivers/STM32U0xx_HAL_Driver/Src/stm32u0xx_hal_adc_ex.c ****   assert_param(IS_ADC_ALL_INSTANCE(hadc->Instance));
  58              		.loc 1 114 3 view .LVU11
ARM GAS  C:\Users\upo\AppData\Local\Temp\ccZrPTgE.s 			page 4


 115:Drivers/STM32U0xx_HAL_Driver/Src/stm32u0xx_hal_adc_ex.c **** 
 116:Drivers/STM32U0xx_HAL_Driver/Src/stm32u0xx_hal_adc_ex.c ****   __HAL_LOCK(hadc);
  59              		.loc 1 116 3 view .LVU12
  60              		.loc 1 116 3 view .LVU13
  61 000a 5433     		adds	r3, r3, #84
  62 000c C35C     		ldrb	r3, [r0, r3]
  63 000e 012B     		cmp	r3, #1
  64 0010 00D1     		bne	.LCB34
  65 0012 A3E0     		b	.L16	@long jump
  66              	.LCB34:
  67              		.loc 1 116 3 discriminator 2 view .LVU14
  68 0014 0126     		movs	r6, #1
  69 0016 5423     		movs	r3, #84
  70 0018 C654     		strb	r6, [r0, r3]
  71              		.loc 1 116 3 discriminator 2 view .LVU15
 117:Drivers/STM32U0xx_HAL_Driver/Src/stm32u0xx_hal_adc_ex.c **** 
 118:Drivers/STM32U0xx_HAL_Driver/Src/stm32u0xx_hal_adc_ex.c ****   /* Calibration prerequisite: ADC must be disabled. */
 119:Drivers/STM32U0xx_HAL_Driver/Src/stm32u0xx_hal_adc_ex.c **** 
 120:Drivers/STM32U0xx_HAL_Driver/Src/stm32u0xx_hal_adc_ex.c ****   /* Disable the ADC (if not already disabled) */
 121:Drivers/STM32U0xx_HAL_Driver/Src/stm32u0xx_hal_adc_ex.c ****   tmp_hal_status = ADC_Disable(hadc);
  72              		.loc 1 121 3 discriminator 2 view .LVU16
  73              		.loc 1 121 20 is_stmt 0 discriminator 2 view .LVU17
  74 001a FFF7FEFF 		bl	ADC_Disable
  75              	.LVL2:
  76              		.loc 1 121 20 discriminator 2 view .LVU18
  77 001e 0500     		movs	r5, r0
  78              	.LVL3:
 122:Drivers/STM32U0xx_HAL_Driver/Src/stm32u0xx_hal_adc_ex.c **** 
 123:Drivers/STM32U0xx_HAL_Driver/Src/stm32u0xx_hal_adc_ex.c ****   /* Check if ADC is effectively disabled */
 124:Drivers/STM32U0xx_HAL_Driver/Src/stm32u0xx_hal_adc_ex.c ****   if (LL_ADC_IsEnabled(hadc->Instance) == 0UL)
  79              		.loc 1 124 3 is_stmt 1 discriminator 2 view .LVU19
  80              		.loc 1 124 28 is_stmt 0 discriminator 2 view .LVU20
  81 0020 2368     		ldr	r3, [r4]
  82              	.LVL4:
  83              	.LBB32:
  84              	.LBI32:
  85              		.file 2 "Drivers/STM32U0xx_HAL_Driver/Inc/stm32u0xx_ll_adc.h"
   1:Drivers/STM32U0xx_HAL_Driver/Inc/stm32u0xx_ll_adc.h **** /**
   2:Drivers/STM32U0xx_HAL_Driver/Inc/stm32u0xx_ll_adc.h ****   ******************************************************************************
   3:Drivers/STM32U0xx_HAL_Driver/Inc/stm32u0xx_ll_adc.h ****   * @file    stm32u0xx_ll_adc.h
   4:Drivers/STM32U0xx_HAL_Driver/Inc/stm32u0xx_ll_adc.h ****   * @author  MCD Application Team
   5:Drivers/STM32U0xx_HAL_Driver/Inc/stm32u0xx_ll_adc.h ****   * @brief   Header file of ADC LL module.
   6:Drivers/STM32U0xx_HAL_Driver/Inc/stm32u0xx_ll_adc.h ****   ******************************************************************************
   7:Drivers/STM32U0xx_HAL_Driver/Inc/stm32u0xx_ll_adc.h ****   * @attention
   8:Drivers/STM32U0xx_HAL_Driver/Inc/stm32u0xx_ll_adc.h ****   *
   9:Drivers/STM32U0xx_HAL_Driver/Inc/stm32u0xx_ll_adc.h ****   * Copyright (c) 2023 STMicroelectronics.
  10:Drivers/STM32U0xx_HAL_Driver/Inc/stm32u0xx_ll_adc.h ****   * All rights reserved.
  11:Drivers/STM32U0xx_HAL_Driver/Inc/stm32u0xx_ll_adc.h ****   *
  12:Drivers/STM32U0xx_HAL_Driver/Inc/stm32u0xx_ll_adc.h ****   * This software is licensed under terms that can be found in the LICENSE file
  13:Drivers/STM32U0xx_HAL_Driver/Inc/stm32u0xx_ll_adc.h ****   * in the root directory of this software component.
  14:Drivers/STM32U0xx_HAL_Driver/Inc/stm32u0xx_ll_adc.h ****   * If no LICENSE file comes with this software, it is provided AS-IS.
  15:Drivers/STM32U0xx_HAL_Driver/Inc/stm32u0xx_ll_adc.h ****   *
  16:Drivers/STM32U0xx_HAL_Driver/Inc/stm32u0xx_ll_adc.h ****   ******************************************************************************
  17:Drivers/STM32U0xx_HAL_Driver/Inc/stm32u0xx_ll_adc.h ****   */
  18:Drivers/STM32U0xx_HAL_Driver/Inc/stm32u0xx_ll_adc.h **** 
  19:Drivers/STM32U0xx_HAL_Driver/Inc/stm32u0xx_ll_adc.h **** /* Define to prevent recursive inclusion -------------------------------------*/
  20:Drivers/STM32U0xx_HAL_Driver/Inc/stm32u0xx_ll_adc.h **** #ifndef STM32U0xx_LL_ADC_H
ARM GAS  C:\Users\upo\AppData\Local\Temp\ccZrPTgE.s 			page 5


  21:Drivers/STM32U0xx_HAL_Driver/Inc/stm32u0xx_ll_adc.h **** #define STM32U0xx_LL_ADC_H
  22:Drivers/STM32U0xx_HAL_Driver/Inc/stm32u0xx_ll_adc.h **** 
  23:Drivers/STM32U0xx_HAL_Driver/Inc/stm32u0xx_ll_adc.h **** #ifdef __cplusplus
  24:Drivers/STM32U0xx_HAL_Driver/Inc/stm32u0xx_ll_adc.h **** extern "C" {
  25:Drivers/STM32U0xx_HAL_Driver/Inc/stm32u0xx_ll_adc.h **** #endif
  26:Drivers/STM32U0xx_HAL_Driver/Inc/stm32u0xx_ll_adc.h **** 
  27:Drivers/STM32U0xx_HAL_Driver/Inc/stm32u0xx_ll_adc.h **** /* Includes ------------------------------------------------------------------*/
  28:Drivers/STM32U0xx_HAL_Driver/Inc/stm32u0xx_ll_adc.h **** #include "stm32u0xx.h"
  29:Drivers/STM32U0xx_HAL_Driver/Inc/stm32u0xx_ll_adc.h **** 
  30:Drivers/STM32U0xx_HAL_Driver/Inc/stm32u0xx_ll_adc.h **** /** @addtogroup STM32U0xx_LL_Driver
  31:Drivers/STM32U0xx_HAL_Driver/Inc/stm32u0xx_ll_adc.h ****   * @{
  32:Drivers/STM32U0xx_HAL_Driver/Inc/stm32u0xx_ll_adc.h ****   */
  33:Drivers/STM32U0xx_HAL_Driver/Inc/stm32u0xx_ll_adc.h **** 
  34:Drivers/STM32U0xx_HAL_Driver/Inc/stm32u0xx_ll_adc.h **** #if defined (ADC1)
  35:Drivers/STM32U0xx_HAL_Driver/Inc/stm32u0xx_ll_adc.h **** 
  36:Drivers/STM32U0xx_HAL_Driver/Inc/stm32u0xx_ll_adc.h **** /** @defgroup ADC_LL ADC
  37:Drivers/STM32U0xx_HAL_Driver/Inc/stm32u0xx_ll_adc.h ****   * @{
  38:Drivers/STM32U0xx_HAL_Driver/Inc/stm32u0xx_ll_adc.h ****   */
  39:Drivers/STM32U0xx_HAL_Driver/Inc/stm32u0xx_ll_adc.h **** 
  40:Drivers/STM32U0xx_HAL_Driver/Inc/stm32u0xx_ll_adc.h **** /* Private types -------------------------------------------------------------*/
  41:Drivers/STM32U0xx_HAL_Driver/Inc/stm32u0xx_ll_adc.h **** /* Private variables ---------------------------------------------------------*/
  42:Drivers/STM32U0xx_HAL_Driver/Inc/stm32u0xx_ll_adc.h **** 
  43:Drivers/STM32U0xx_HAL_Driver/Inc/stm32u0xx_ll_adc.h **** /* Private constants ---------------------------------------------------------*/
  44:Drivers/STM32U0xx_HAL_Driver/Inc/stm32u0xx_ll_adc.h **** /** @defgroup ADC_LL_Private_Constants ADC Private Constants
  45:Drivers/STM32U0xx_HAL_Driver/Inc/stm32u0xx_ll_adc.h ****   * @{
  46:Drivers/STM32U0xx_HAL_Driver/Inc/stm32u0xx_ll_adc.h ****   */
  47:Drivers/STM32U0xx_HAL_Driver/Inc/stm32u0xx_ll_adc.h **** 
  48:Drivers/STM32U0xx_HAL_Driver/Inc/stm32u0xx_ll_adc.h **** /* Internal mask for ADC group regular sequencer:                             */
  49:Drivers/STM32U0xx_HAL_Driver/Inc/stm32u0xx_ll_adc.h **** /* To select into literal LL_ADC_REG_RANK_x the relevant bits for:            */
  50:Drivers/STM32U0xx_HAL_Driver/Inc/stm32u0xx_ll_adc.h **** /* - sequencer rank bits position into the selected register                  */
  51:Drivers/STM32U0xx_HAL_Driver/Inc/stm32u0xx_ll_adc.h **** 
  52:Drivers/STM32U0xx_HAL_Driver/Inc/stm32u0xx_ll_adc.h **** #define ADC_REG_RANK_ID_SQRX_MASK          (ADC_CHANNEL_ID_NUMBER_MASK_POSBIT0)
  53:Drivers/STM32U0xx_HAL_Driver/Inc/stm32u0xx_ll_adc.h **** 
  54:Drivers/STM32U0xx_HAL_Driver/Inc/stm32u0xx_ll_adc.h **** /* Definition of ADC group regular sequencer bits information to be inserted  */
  55:Drivers/STM32U0xx_HAL_Driver/Inc/stm32u0xx_ll_adc.h **** /* into ADC group regular sequencer ranks literals definition.                */
  56:Drivers/STM32U0xx_HAL_Driver/Inc/stm32u0xx_ll_adc.h **** #define ADC_REG_RANK_1_SQRX_BITOFFSET_POS  ( 0UL) /* Equivalent to bitfield "ADC_CHSELR_SQ1" positi
  57:Drivers/STM32U0xx_HAL_Driver/Inc/stm32u0xx_ll_adc.h **** #define ADC_REG_RANK_2_SQRX_BITOFFSET_POS  ( 4UL) /* Equivalent to bitfield "ADC_CHSELR_SQ2" positi
  58:Drivers/STM32U0xx_HAL_Driver/Inc/stm32u0xx_ll_adc.h **** #define ADC_REG_RANK_3_SQRX_BITOFFSET_POS  ( 8UL) /* Equivalent to bitfield "ADC_CHSELR_SQ3" positi
  59:Drivers/STM32U0xx_HAL_Driver/Inc/stm32u0xx_ll_adc.h **** #define ADC_REG_RANK_4_SQRX_BITOFFSET_POS  (12UL) /* Equivalent to bitfield "ADC_CHSELR_SQ4" positi
  60:Drivers/STM32U0xx_HAL_Driver/Inc/stm32u0xx_ll_adc.h **** #define ADC_REG_RANK_5_SQRX_BITOFFSET_POS  (16UL) /* Equivalent to bitfield "ADC_CHSELR_SQ5" positi
  61:Drivers/STM32U0xx_HAL_Driver/Inc/stm32u0xx_ll_adc.h **** #define ADC_REG_RANK_6_SQRX_BITOFFSET_POS  (20UL) /* Equivalent to bitfield "ADC_CHSELR_SQ6" positi
  62:Drivers/STM32U0xx_HAL_Driver/Inc/stm32u0xx_ll_adc.h **** #define ADC_REG_RANK_7_SQRX_BITOFFSET_POS  (24UL) /* Equivalent to bitfield "ADC_CHSELR_SQ7" positi
  63:Drivers/STM32U0xx_HAL_Driver/Inc/stm32u0xx_ll_adc.h **** #define ADC_REG_RANK_8_SQRX_BITOFFSET_POS  (28UL) /* Equivalent to bitfield "ADC_CHSELR_SQ8" positi
  64:Drivers/STM32U0xx_HAL_Driver/Inc/stm32u0xx_ll_adc.h **** 
  65:Drivers/STM32U0xx_HAL_Driver/Inc/stm32u0xx_ll_adc.h **** 
  66:Drivers/STM32U0xx_HAL_Driver/Inc/stm32u0xx_ll_adc.h **** /* Internal mask for ADC group regular trigger:                               */
  67:Drivers/STM32U0xx_HAL_Driver/Inc/stm32u0xx_ll_adc.h **** /* To select into literal LL_ADC_REG_TRIG_x the relevant bits for:            */
  68:Drivers/STM32U0xx_HAL_Driver/Inc/stm32u0xx_ll_adc.h **** /* - regular trigger source                                                   */
  69:Drivers/STM32U0xx_HAL_Driver/Inc/stm32u0xx_ll_adc.h **** /* - regular trigger edge                                                     */
  70:Drivers/STM32U0xx_HAL_Driver/Inc/stm32u0xx_ll_adc.h **** #define ADC_REG_TRIG_EXT_EDGE_DEFAULT      (ADC_CFGR1_EXTEN_0) /* Trigger edge set to rising edge (
  71:Drivers/STM32U0xx_HAL_Driver/Inc/stm32u0xx_ll_adc.h ****                                                                   compatibility with some ADC on ot
  72:Drivers/STM32U0xx_HAL_Driver/Inc/stm32u0xx_ll_adc.h ****                                                                   having this setting set by HW def
  73:Drivers/STM32U0xx_HAL_Driver/Inc/stm32u0xx_ll_adc.h **** 
  74:Drivers/STM32U0xx_HAL_Driver/Inc/stm32u0xx_ll_adc.h **** /* Mask containing trigger source masks for each of possible                  */
  75:Drivers/STM32U0xx_HAL_Driver/Inc/stm32u0xx_ll_adc.h **** /* trigger edge selection duplicated with shifts [0; 4; 8; 12]                */
  76:Drivers/STM32U0xx_HAL_Driver/Inc/stm32u0xx_ll_adc.h **** /* corresponding to {SW start; ext trigger; ext trigger; ext trigger}.        */
  77:Drivers/STM32U0xx_HAL_Driver/Inc/stm32u0xx_ll_adc.h **** #define ADC_REG_TRIG_SOURCE_MASK           (((LL_ADC_REG_TRIG_SOFTWARE & ADC_CFGR1_EXTSEL) << (4U *
ARM GAS  C:\Users\upo\AppData\Local\Temp\ccZrPTgE.s 			page 6


  78:Drivers/STM32U0xx_HAL_Driver/Inc/stm32u0xx_ll_adc.h ****                                             ((ADC_CFGR1_EXTSEL)                            << (4U *
  79:Drivers/STM32U0xx_HAL_Driver/Inc/stm32u0xx_ll_adc.h ****                                             ((ADC_CFGR1_EXTSEL)                            << (4U *
  80:Drivers/STM32U0xx_HAL_Driver/Inc/stm32u0xx_ll_adc.h ****                                             ((ADC_CFGR1_EXTSEL)                            << (4U *
  81:Drivers/STM32U0xx_HAL_Driver/Inc/stm32u0xx_ll_adc.h **** 
  82:Drivers/STM32U0xx_HAL_Driver/Inc/stm32u0xx_ll_adc.h **** /* Mask containing trigger edge masks for each of possible                    */
  83:Drivers/STM32U0xx_HAL_Driver/Inc/stm32u0xx_ll_adc.h **** /* trigger edge selection duplicated with shifts [0; 4; 8; 12]                */
  84:Drivers/STM32U0xx_HAL_Driver/Inc/stm32u0xx_ll_adc.h **** /* corresponding to {SW start; ext trigger; ext trigger; ext trigger}.        */
  85:Drivers/STM32U0xx_HAL_Driver/Inc/stm32u0xx_ll_adc.h **** #define ADC_REG_TRIG_EDGE_MASK             (((LL_ADC_REG_TRIG_SOFTWARE & ADC_CFGR1_EXTEN) << (4U * 
  86:Drivers/STM32U0xx_HAL_Driver/Inc/stm32u0xx_ll_adc.h ****                                             ((ADC_REG_TRIG_EXT_EDGE_DEFAULT)              << (4U * 
  87:Drivers/STM32U0xx_HAL_Driver/Inc/stm32u0xx_ll_adc.h ****                                             ((ADC_REG_TRIG_EXT_EDGE_DEFAULT)              << (4U * 
  88:Drivers/STM32U0xx_HAL_Driver/Inc/stm32u0xx_ll_adc.h ****                                             ((ADC_REG_TRIG_EXT_EDGE_DEFAULT)              << (4U * 
  89:Drivers/STM32U0xx_HAL_Driver/Inc/stm32u0xx_ll_adc.h **** 
  90:Drivers/STM32U0xx_HAL_Driver/Inc/stm32u0xx_ll_adc.h **** /* Definition of ADC group regular trigger bits information.                  */
  91:Drivers/STM32U0xx_HAL_Driver/Inc/stm32u0xx_ll_adc.h **** #define ADC_REG_TRIG_EXTSEL_BITOFFSET_POS  ( 6UL) /* Equivalent to bitfield "ADC_CFGR1_EXTSEL" posi
  92:Drivers/STM32U0xx_HAL_Driver/Inc/stm32u0xx_ll_adc.h **** #define ADC_REG_TRIG_EXTEN_BITOFFSET_POS   (10UL) /* Equivalent to bitfield "ADC_CFGR1_EXTEN" posit
  93:Drivers/STM32U0xx_HAL_Driver/Inc/stm32u0xx_ll_adc.h **** 
  94:Drivers/STM32U0xx_HAL_Driver/Inc/stm32u0xx_ll_adc.h **** 
  95:Drivers/STM32U0xx_HAL_Driver/Inc/stm32u0xx_ll_adc.h **** /* Internal mask for ADC channel:                                             */
  96:Drivers/STM32U0xx_HAL_Driver/Inc/stm32u0xx_ll_adc.h **** /* To select into literal LL_ADC_CHANNEL_x the relevant bits for:             */
  97:Drivers/STM32U0xx_HAL_Driver/Inc/stm32u0xx_ll_adc.h **** /* - channel identifier defined by number                                     */
  98:Drivers/STM32U0xx_HAL_Driver/Inc/stm32u0xx_ll_adc.h **** /* - channel identifier defined by bitfield                                   */
  99:Drivers/STM32U0xx_HAL_Driver/Inc/stm32u0xx_ll_adc.h **** /* - channel differentiation between external channels (connected to          */
 100:Drivers/STM32U0xx_HAL_Driver/Inc/stm32u0xx_ll_adc.h **** /*   GPIO pins) and internal channels (connected to internal paths)           */
 101:Drivers/STM32U0xx_HAL_Driver/Inc/stm32u0xx_ll_adc.h **** #define ADC_CHANNEL_ID_NUMBER_MASK         (ADC_CFGR1_AWD1CH)
 102:Drivers/STM32U0xx_HAL_Driver/Inc/stm32u0xx_ll_adc.h **** #define ADC_CHANNEL_ID_BITFIELD_MASK       (ADC_CHSELR_CHSEL)
 103:Drivers/STM32U0xx_HAL_Driver/Inc/stm32u0xx_ll_adc.h **** #define ADC_CHANNEL_ID_NUMBER_MASK_SEQ     (ADC_CHSELR_SQ1 << ADC_CHANNEL_ID_NUMBER_BITOFFSET_POS) 
 104:Drivers/STM32U0xx_HAL_Driver/Inc/stm32u0xx_ll_adc.h ****   ADC_CHANNEL_ID_NUMBER_MASK with reduced range: on this STM32 series, ADC group regular sequencer,
 105:Drivers/STM32U0xx_HAL_Driver/Inc/stm32u0xx_ll_adc.h ****   if set to mode "fully configurable", can contain channels with a restricted channel number.
 106:Drivers/STM32U0xx_HAL_Driver/Inc/stm32u0xx_ll_adc.h ****   Refer to function @ref LL_ADC_REG_SetSequencerConfigurable(). */
 107:Drivers/STM32U0xx_HAL_Driver/Inc/stm32u0xx_ll_adc.h **** #define ADC_CHANNEL_ID_NUMBER_BITOFFSET_POS (26UL)              /* Equivalent to bitfield "ADC_CHAN
 108:Drivers/STM32U0xx_HAL_Driver/Inc/stm32u0xx_ll_adc.h ****                                                                    position in register */
 109:Drivers/STM32U0xx_HAL_Driver/Inc/stm32u0xx_ll_adc.h **** #define ADC_CHANNEL_ID_MASK                (ADC_CHANNEL_ID_NUMBER_MASK | ADC_CHANNEL_ID_BITFIELD_MA
 110:Drivers/STM32U0xx_HAL_Driver/Inc/stm32u0xx_ll_adc.h ****                                             ADC_CHANNEL_ID_INTERNAL_CH_MASK)
 111:Drivers/STM32U0xx_HAL_Driver/Inc/stm32u0xx_ll_adc.h **** /* Equivalent mask of ADC_CHANNEL_NUMBER_MASK aligned on register LSB (bit 0) */
 112:Drivers/STM32U0xx_HAL_Driver/Inc/stm32u0xx_ll_adc.h **** #define ADC_CHANNEL_ID_NUMBER_MASK_POSBIT0 (0x0000001FUL) /* Equivalent to shift: (ADC_CHANNEL_NUMB
 113:Drivers/STM32U0xx_HAL_Driver/Inc/stm32u0xx_ll_adc.h ****   >> [Position of bitfield "ADC_CHANNEL_NUMBER_MASK" in register]) */
 114:Drivers/STM32U0xx_HAL_Driver/Inc/stm32u0xx_ll_adc.h **** 
 115:Drivers/STM32U0xx_HAL_Driver/Inc/stm32u0xx_ll_adc.h **** /* Channel differentiation between external and internal channels */
 116:Drivers/STM32U0xx_HAL_Driver/Inc/stm32u0xx_ll_adc.h **** #define ADC_CHANNEL_ID_INTERNAL_CH         (0x80000000UL) /* Marker of internal channel */
 117:Drivers/STM32U0xx_HAL_Driver/Inc/stm32u0xx_ll_adc.h **** #define ADC_CHANNEL_ID_INTERNAL_CH_MASK    (ADC_CHANNEL_ID_INTERNAL_CH)
 118:Drivers/STM32U0xx_HAL_Driver/Inc/stm32u0xx_ll_adc.h **** 
 119:Drivers/STM32U0xx_HAL_Driver/Inc/stm32u0xx_ll_adc.h **** /* Definition of channels ID number information to be inserted into           */
 120:Drivers/STM32U0xx_HAL_Driver/Inc/stm32u0xx_ll_adc.h **** /* channels literals definition.                                              */
 121:Drivers/STM32U0xx_HAL_Driver/Inc/stm32u0xx_ll_adc.h **** #define ADC_CHANNEL_0_NUMBER               (0x00000000UL)
 122:Drivers/STM32U0xx_HAL_Driver/Inc/stm32u0xx_ll_adc.h **** #define ADC_CHANNEL_1_NUMBER               (ADC_CFGR1_AWD1CH_0)
 123:Drivers/STM32U0xx_HAL_Driver/Inc/stm32u0xx_ll_adc.h **** #define ADC_CHANNEL_2_NUMBER               (ADC_CFGR1_AWD1CH_1)
 124:Drivers/STM32U0xx_HAL_Driver/Inc/stm32u0xx_ll_adc.h **** #define ADC_CHANNEL_3_NUMBER               (ADC_CFGR1_AWD1CH_1 | ADC_CFGR1_AWD1CH_0)
 125:Drivers/STM32U0xx_HAL_Driver/Inc/stm32u0xx_ll_adc.h **** #define ADC_CHANNEL_4_NUMBER               (ADC_CFGR1_AWD1CH_2)
 126:Drivers/STM32U0xx_HAL_Driver/Inc/stm32u0xx_ll_adc.h **** #define ADC_CHANNEL_5_NUMBER               (ADC_CFGR1_AWD1CH_2 | ADC_CFGR1_AWD1CH_0)
 127:Drivers/STM32U0xx_HAL_Driver/Inc/stm32u0xx_ll_adc.h **** #define ADC_CHANNEL_6_NUMBER               (ADC_CFGR1_AWD1CH_2 | ADC_CFGR1_AWD1CH_1)
 128:Drivers/STM32U0xx_HAL_Driver/Inc/stm32u0xx_ll_adc.h **** #define ADC_CHANNEL_7_NUMBER               (ADC_CFGR1_AWD1CH_2 | ADC_CFGR1_AWD1CH_1 | ADC_CFGR1_AWD
 129:Drivers/STM32U0xx_HAL_Driver/Inc/stm32u0xx_ll_adc.h **** #define ADC_CHANNEL_8_NUMBER               (ADC_CFGR1_AWD1CH_3)
 130:Drivers/STM32U0xx_HAL_Driver/Inc/stm32u0xx_ll_adc.h **** #define ADC_CHANNEL_9_NUMBER               (ADC_CFGR1_AWD1CH_3 | ADC_CFGR1_AWD1CH_0)
 131:Drivers/STM32U0xx_HAL_Driver/Inc/stm32u0xx_ll_adc.h **** #define ADC_CHANNEL_10_NUMBER              (ADC_CFGR1_AWD1CH_3 | ADC_CFGR1_AWD1CH_1)
 132:Drivers/STM32U0xx_HAL_Driver/Inc/stm32u0xx_ll_adc.h **** #define ADC_CHANNEL_11_NUMBER              (ADC_CFGR1_AWD1CH_3 | ADC_CFGR1_AWD1CH_1 | ADC_CFGR1_AWD
 133:Drivers/STM32U0xx_HAL_Driver/Inc/stm32u0xx_ll_adc.h **** #define ADC_CHANNEL_12_NUMBER              (ADC_CFGR1_AWD1CH_3 | ADC_CFGR1_AWD1CH_2)
 134:Drivers/STM32U0xx_HAL_Driver/Inc/stm32u0xx_ll_adc.h **** #define ADC_CHANNEL_13_NUMBER              (ADC_CFGR1_AWD1CH_3 | ADC_CFGR1_AWD1CH_2 | ADC_CFGR1_AWD
ARM GAS  C:\Users\upo\AppData\Local\Temp\ccZrPTgE.s 			page 7


 135:Drivers/STM32U0xx_HAL_Driver/Inc/stm32u0xx_ll_adc.h **** #define ADC_CHANNEL_14_NUMBER              (ADC_CFGR1_AWD1CH_3 | ADC_CFGR1_AWD1CH_2 | ADC_CFGR1_AWD
 136:Drivers/STM32U0xx_HAL_Driver/Inc/stm32u0xx_ll_adc.h **** #define ADC_CHANNEL_15_NUMBER              (ADC_CFGR1_AWD1CH_3 | ADC_CFGR1_AWD1CH_2 | \
 137:Drivers/STM32U0xx_HAL_Driver/Inc/stm32u0xx_ll_adc.h ****                                             ADC_CFGR1_AWD1CH_1 | ADC_CFGR1_AWD1CH_0)
 138:Drivers/STM32U0xx_HAL_Driver/Inc/stm32u0xx_ll_adc.h **** #define ADC_CHANNEL_16_NUMBER              (ADC_CFGR1_AWD1CH_4)
 139:Drivers/STM32U0xx_HAL_Driver/Inc/stm32u0xx_ll_adc.h **** #define ADC_CHANNEL_17_NUMBER              (ADC_CFGR1_AWD1CH_4 | ADC_CFGR1_AWD1CH_0)
 140:Drivers/STM32U0xx_HAL_Driver/Inc/stm32u0xx_ll_adc.h **** #define ADC_CHANNEL_18_NUMBER              (ADC_CFGR1_AWD1CH_4 | ADC_CFGR1_AWD1CH_1)
 141:Drivers/STM32U0xx_HAL_Driver/Inc/stm32u0xx_ll_adc.h **** #define ADC_CHANNEL_19_NUMBER              (ADC_CFGR1_AWD1CH_4 | ADC_CFGR1_AWD1CH_1 | ADC_CFGR1_AWD
 142:Drivers/STM32U0xx_HAL_Driver/Inc/stm32u0xx_ll_adc.h **** 
 143:Drivers/STM32U0xx_HAL_Driver/Inc/stm32u0xx_ll_adc.h **** /* Definition of channels ID bitfield information to be inserted into         */
 144:Drivers/STM32U0xx_HAL_Driver/Inc/stm32u0xx_ll_adc.h **** /* channels literals definition.                                              */
 145:Drivers/STM32U0xx_HAL_Driver/Inc/stm32u0xx_ll_adc.h **** #define ADC_CHANNEL_0_BITFIELD             (ADC_CHSELR_CHSEL0)
 146:Drivers/STM32U0xx_HAL_Driver/Inc/stm32u0xx_ll_adc.h **** #define ADC_CHANNEL_1_BITFIELD             (ADC_CHSELR_CHSEL1)
 147:Drivers/STM32U0xx_HAL_Driver/Inc/stm32u0xx_ll_adc.h **** #define ADC_CHANNEL_2_BITFIELD             (ADC_CHSELR_CHSEL2)
 148:Drivers/STM32U0xx_HAL_Driver/Inc/stm32u0xx_ll_adc.h **** #define ADC_CHANNEL_3_BITFIELD             (ADC_CHSELR_CHSEL3)
 149:Drivers/STM32U0xx_HAL_Driver/Inc/stm32u0xx_ll_adc.h **** #define ADC_CHANNEL_4_BITFIELD             (ADC_CHSELR_CHSEL4)
 150:Drivers/STM32U0xx_HAL_Driver/Inc/stm32u0xx_ll_adc.h **** #define ADC_CHANNEL_5_BITFIELD             (ADC_CHSELR_CHSEL5)
 151:Drivers/STM32U0xx_HAL_Driver/Inc/stm32u0xx_ll_adc.h **** #define ADC_CHANNEL_6_BITFIELD             (ADC_CHSELR_CHSEL6)
 152:Drivers/STM32U0xx_HAL_Driver/Inc/stm32u0xx_ll_adc.h **** #define ADC_CHANNEL_7_BITFIELD             (ADC_CHSELR_CHSEL7)
 153:Drivers/STM32U0xx_HAL_Driver/Inc/stm32u0xx_ll_adc.h **** #define ADC_CHANNEL_8_BITFIELD             (ADC_CHSELR_CHSEL8)
 154:Drivers/STM32U0xx_HAL_Driver/Inc/stm32u0xx_ll_adc.h **** #define ADC_CHANNEL_9_BITFIELD             (ADC_CHSELR_CHSEL9)
 155:Drivers/STM32U0xx_HAL_Driver/Inc/stm32u0xx_ll_adc.h **** #define ADC_CHANNEL_10_BITFIELD            (ADC_CHSELR_CHSEL10)
 156:Drivers/STM32U0xx_HAL_Driver/Inc/stm32u0xx_ll_adc.h **** #define ADC_CHANNEL_11_BITFIELD            (ADC_CHSELR_CHSEL11)
 157:Drivers/STM32U0xx_HAL_Driver/Inc/stm32u0xx_ll_adc.h **** #define ADC_CHANNEL_12_BITFIELD            (ADC_CHSELR_CHSEL12)
 158:Drivers/STM32U0xx_HAL_Driver/Inc/stm32u0xx_ll_adc.h **** #define ADC_CHANNEL_13_BITFIELD            (ADC_CHSELR_CHSEL13)
 159:Drivers/STM32U0xx_HAL_Driver/Inc/stm32u0xx_ll_adc.h **** #define ADC_CHANNEL_14_BITFIELD            (ADC_CHSELR_CHSEL14)
 160:Drivers/STM32U0xx_HAL_Driver/Inc/stm32u0xx_ll_adc.h **** #define ADC_CHANNEL_15_BITFIELD            (ADC_CHSELR_CHSEL15)
 161:Drivers/STM32U0xx_HAL_Driver/Inc/stm32u0xx_ll_adc.h **** #define ADC_CHANNEL_16_BITFIELD            (ADC_CHSELR_CHSEL16)
 162:Drivers/STM32U0xx_HAL_Driver/Inc/stm32u0xx_ll_adc.h **** #define ADC_CHANNEL_17_BITFIELD            (ADC_CHSELR_CHSEL17)
 163:Drivers/STM32U0xx_HAL_Driver/Inc/stm32u0xx_ll_adc.h **** #define ADC_CHANNEL_18_BITFIELD            (ADC_CHSELR_CHSEL18)
 164:Drivers/STM32U0xx_HAL_Driver/Inc/stm32u0xx_ll_adc.h **** #define ADC_CHANNEL_19_BITFIELD            (ADC_CHSELR_CHSEL19)
 165:Drivers/STM32U0xx_HAL_Driver/Inc/stm32u0xx_ll_adc.h **** 
 166:Drivers/STM32U0xx_HAL_Driver/Inc/stm32u0xx_ll_adc.h **** /* Internal mask for ADC channel sampling time:                               */
 167:Drivers/STM32U0xx_HAL_Driver/Inc/stm32u0xx_ll_adc.h **** /* To select into literals LL_ADC_SAMPLINGTIME_x                              */
 168:Drivers/STM32U0xx_HAL_Driver/Inc/stm32u0xx_ll_adc.h **** /* the relevant bits for:                                                     */
 169:Drivers/STM32U0xx_HAL_Driver/Inc/stm32u0xx_ll_adc.h **** /* (concatenation of multiple bits used in register SMPR)                     */
 170:Drivers/STM32U0xx_HAL_Driver/Inc/stm32u0xx_ll_adc.h **** /* - ADC channels sampling time: setting channel wise, to map each channel    */
 171:Drivers/STM32U0xx_HAL_Driver/Inc/stm32u0xx_ll_adc.h **** /*   on one of the common sampling time available.                            */
 172:Drivers/STM32U0xx_HAL_Driver/Inc/stm32u0xx_ll_adc.h **** /* - ADC channels common sampling time: set a sampling time into one of the   */
 173:Drivers/STM32U0xx_HAL_Driver/Inc/stm32u0xx_ll_adc.h **** /*   common sampling time available.                                          */
 174:Drivers/STM32U0xx_HAL_Driver/Inc/stm32u0xx_ll_adc.h **** #define ADC_SAMPLING_TIME_CH_MASK          (ADC_CHANNEL_ID_BITFIELD_MASK << ADC_SMPR_SMPSEL0_BITOFF
 175:Drivers/STM32U0xx_HAL_Driver/Inc/stm32u0xx_ll_adc.h **** #define ADC_SAMPLING_TIME_SMP_MASK         (ADC_SMPR_SMP2 | ADC_SMPR_SMP1)
 176:Drivers/STM32U0xx_HAL_Driver/Inc/stm32u0xx_ll_adc.h **** #define ADC_SAMPLING_TIME_SMP_SHIFT_MASK   (ADC_SMPR_SMP2_BITOFFSET_POS | ADC_SMPR_SMP1_BITOFFSET_P
 177:Drivers/STM32U0xx_HAL_Driver/Inc/stm32u0xx_ll_adc.h **** 
 178:Drivers/STM32U0xx_HAL_Driver/Inc/stm32u0xx_ll_adc.h **** /* Internal mask for ADC analog watchdog:                                     */
 179:Drivers/STM32U0xx_HAL_Driver/Inc/stm32u0xx_ll_adc.h **** /* To select into literals LL_ADC_AWD_CHANNELx_xxx the relevant bits for:     */
 180:Drivers/STM32U0xx_HAL_Driver/Inc/stm32u0xx_ll_adc.h **** /* (concatenation of multiple bits used in different analog watchdogs,        */
 181:Drivers/STM32U0xx_HAL_Driver/Inc/stm32u0xx_ll_adc.h **** /* (feature of several watchdogs not available on all STM32 series)).         */
 182:Drivers/STM32U0xx_HAL_Driver/Inc/stm32u0xx_ll_adc.h **** /* - analog watchdog 1: monitored channel defined by number,                  */
 183:Drivers/STM32U0xx_HAL_Driver/Inc/stm32u0xx_ll_adc.h **** /*   selection of ADC group (ADC group regular).                              */
 184:Drivers/STM32U0xx_HAL_Driver/Inc/stm32u0xx_ll_adc.h **** /* - analog watchdog 2 and 3: monitored channel defined by bitfield, no       */
 185:Drivers/STM32U0xx_HAL_Driver/Inc/stm32u0xx_ll_adc.h **** /*   selection on groups.                                                     */
 186:Drivers/STM32U0xx_HAL_Driver/Inc/stm32u0xx_ll_adc.h **** 
 187:Drivers/STM32U0xx_HAL_Driver/Inc/stm32u0xx_ll_adc.h **** /* Internal register offset for ADC analog watchdog channel configuration */
 188:Drivers/STM32U0xx_HAL_Driver/Inc/stm32u0xx_ll_adc.h **** #define ADC_AWD_CR1_REGOFFSET              (0x00000000UL)
 189:Drivers/STM32U0xx_HAL_Driver/Inc/stm32u0xx_ll_adc.h **** #define ADC_AWD_CR2_REGOFFSET              (0x00100000UL)
 190:Drivers/STM32U0xx_HAL_Driver/Inc/stm32u0xx_ll_adc.h **** #define ADC_AWD_CR3_REGOFFSET              (0x00200000UL)
 191:Drivers/STM32U0xx_HAL_Driver/Inc/stm32u0xx_ll_adc.h **** 
ARM GAS  C:\Users\upo\AppData\Local\Temp\ccZrPTgE.s 			page 8


 192:Drivers/STM32U0xx_HAL_Driver/Inc/stm32u0xx_ll_adc.h **** /* Register offset gap between AWD1 and AWD2-AWD3 configuration registers */
 193:Drivers/STM32U0xx_HAL_Driver/Inc/stm32u0xx_ll_adc.h **** /* (Set separately as ADC_AWD_CRX_REGOFFSET to spare 32 bits space */
 194:Drivers/STM32U0xx_HAL_Driver/Inc/stm32u0xx_ll_adc.h **** #define ADC_AWD_CR12_REGOFFSETGAP_MASK     (ADC_AWD2CR_AWD2CH_0)
 195:Drivers/STM32U0xx_HAL_Driver/Inc/stm32u0xx_ll_adc.h **** #define ADC_AWD_CR12_REGOFFSETGAP_VAL      (0x00000024UL)
 196:Drivers/STM32U0xx_HAL_Driver/Inc/stm32u0xx_ll_adc.h **** 
 197:Drivers/STM32U0xx_HAL_Driver/Inc/stm32u0xx_ll_adc.h **** #define ADC_AWD_CRX_REGOFFSET_MASK         (ADC_AWD_CR1_REGOFFSET | ADC_AWD_CR2_REGOFFSET | ADC_AWD
 198:Drivers/STM32U0xx_HAL_Driver/Inc/stm32u0xx_ll_adc.h **** #define ADC_AWD_CRX_REGOFFSET_BITOFFSET_POS (20UL)
 199:Drivers/STM32U0xx_HAL_Driver/Inc/stm32u0xx_ll_adc.h **** 
 200:Drivers/STM32U0xx_HAL_Driver/Inc/stm32u0xx_ll_adc.h **** #define ADC_AWD_CR1_CHANNEL_MASK           (ADC_CFGR1_AWD1CH | ADC_CFGR1_AWD1EN | ADC_CFGR1_AWD1SGL
 201:Drivers/STM32U0xx_HAL_Driver/Inc/stm32u0xx_ll_adc.h **** #define ADC_AWD_CR23_CHANNEL_MASK          (ADC_AWD2CR_AWD2CH)
 202:Drivers/STM32U0xx_HAL_Driver/Inc/stm32u0xx_ll_adc.h **** #define ADC_AWD_CR_ALL_CHANNEL_MASK        (ADC_AWD_CR1_CHANNEL_MASK | ADC_AWD_CR23_CHANNEL_MASK)
 203:Drivers/STM32U0xx_HAL_Driver/Inc/stm32u0xx_ll_adc.h **** 
 204:Drivers/STM32U0xx_HAL_Driver/Inc/stm32u0xx_ll_adc.h **** #define ADC_AWD_CRX_REGOFFSET_POS          (20UL)                      /* Position of bits ADC_AWD_
 205:Drivers/STM32U0xx_HAL_Driver/Inc/stm32u0xx_ll_adc.h ****                                                                           in ADC_AWD_CRX_REGOFFSET_
 206:Drivers/STM32U0xx_HAL_Driver/Inc/stm32u0xx_ll_adc.h **** 
 207:Drivers/STM32U0xx_HAL_Driver/Inc/stm32u0xx_ll_adc.h **** /* Internal register offset for ADC analog watchdog threshold configuration */
 208:Drivers/STM32U0xx_HAL_Driver/Inc/stm32u0xx_ll_adc.h **** #define ADC_AWD_TR1_REGOFFSET              (ADC_AWD_CR1_REGOFFSET)
 209:Drivers/STM32U0xx_HAL_Driver/Inc/stm32u0xx_ll_adc.h **** #define ADC_AWD_TR2_REGOFFSET              (ADC_AWD_CR2_REGOFFSET)
 210:Drivers/STM32U0xx_HAL_Driver/Inc/stm32u0xx_ll_adc.h **** #define ADC_AWD_TR3_REGOFFSET              (ADC_AWD_CR3_REGOFFSET + (1UL << ADC_AWD_CRX_REGOFFSET_B
 211:Drivers/STM32U0xx_HAL_Driver/Inc/stm32u0xx_ll_adc.h **** #define ADC_AWD_TRX_REGOFFSET_MASK         (ADC_AWD_TR1_REGOFFSET | ADC_AWD_TR2_REGOFFSET | ADC_AWD
 212:Drivers/STM32U0xx_HAL_Driver/Inc/stm32u0xx_ll_adc.h **** #define ADC_AWD_TRX_REGOFFSET_POS          (ADC_AWD_CRX_REGOFFSET_POS)      /* Position of bits ADC
 213:Drivers/STM32U0xx_HAL_Driver/Inc/stm32u0xx_ll_adc.h ****                                                                                in ADC_AWD_TRX_REGOF
 214:Drivers/STM32U0xx_HAL_Driver/Inc/stm32u0xx_ll_adc.h **** #define ADC_AWD_TRX_BIT_HIGH_MASK          (0x00010000UL)                   /* Selection of 1 bit t
 215:Drivers/STM32U0xx_HAL_Driver/Inc/stm32u0xx_ll_adc.h ****                                                                                threshold high: mask
 216:Drivers/STM32U0xx_HAL_Driver/Inc/stm32u0xx_ll_adc.h **** #define ADC_AWD_TRX_BIT_HIGH_POS           (16UL)                           /* Selection of 1 bit t
 217:Drivers/STM32U0xx_HAL_Driver/Inc/stm32u0xx_ll_adc.h ****                                                                                threshold high: posi
 218:Drivers/STM32U0xx_HAL_Driver/Inc/stm32u0xx_ll_adc.h **** #define ADC_AWD_TRX_BIT_HIGH_SHIFT4        (ADC_AWD_TRX_BIT_HIGH_POS - 4UL) /* Shift of bit ADC_AWD
 219:Drivers/STM32U0xx_HAL_Driver/Inc/stm32u0xx_ll_adc.h ****                                                                                position to perform 
 220:Drivers/STM32U0xx_HAL_Driver/Inc/stm32u0xx_ll_adc.h **** #define ADC_AWD_TRX_REGOFFSET_BITOFFSET_POS (20UL)
 221:Drivers/STM32U0xx_HAL_Driver/Inc/stm32u0xx_ll_adc.h **** 
 222:Drivers/STM32U0xx_HAL_Driver/Inc/stm32u0xx_ll_adc.h **** 
 223:Drivers/STM32U0xx_HAL_Driver/Inc/stm32u0xx_ll_adc.h **** /* ADC registers bits positions */
 224:Drivers/STM32U0xx_HAL_Driver/Inc/stm32u0xx_ll_adc.h **** #define ADC_CFGR1_RES_BITOFFSET_POS        ( 3UL) /* Equivalent to bitfield "ADC_CFGR1_RES" positio
 225:Drivers/STM32U0xx_HAL_Driver/Inc/stm32u0xx_ll_adc.h **** #define ADC_CFGR1_AWDSGL_BITOFFSET_POS     (22UL) /* Equivalent to bitfield "ADC_CFGR1_AWDSGL" posi
 226:Drivers/STM32U0xx_HAL_Driver/Inc/stm32u0xx_ll_adc.h **** #define ADC_TR1_HT1_BITOFFSET_POS          (16UL) /* Equivalent to bitfield "ADC_TR1_HT1" position 
 227:Drivers/STM32U0xx_HAL_Driver/Inc/stm32u0xx_ll_adc.h **** #define ADC_CHSELR_CHSEL0_BITOFFSET_POS    ( 0UL) /* Equivalent to bitfield "ADC_CHSELR_CHSEL0" pos
 228:Drivers/STM32U0xx_HAL_Driver/Inc/stm32u0xx_ll_adc.h **** #define ADC_CHSELR_CHSEL1_BITOFFSET_POS    ( 1UL) /* Equivalent to bitfield "ADC_CHSELR_CHSEL1" pos
 229:Drivers/STM32U0xx_HAL_Driver/Inc/stm32u0xx_ll_adc.h **** #define ADC_CHSELR_CHSEL2_BITOFFSET_POS    ( 2UL) /* Equivalent to bitfield "ADC_CHSELR_CHSEL2" pos
 230:Drivers/STM32U0xx_HAL_Driver/Inc/stm32u0xx_ll_adc.h **** #define ADC_CHSELR_CHSEL3_BITOFFSET_POS    ( 3UL) /* Equivalent to bitfield "ADC_CHSELR_CHSEL3" pos
 231:Drivers/STM32U0xx_HAL_Driver/Inc/stm32u0xx_ll_adc.h **** #define ADC_CHSELR_CHSEL4_BITOFFSET_POS    ( 4UL) /* Equivalent to bitfield "ADC_CHSELR_CHSEL4" pos
 232:Drivers/STM32U0xx_HAL_Driver/Inc/stm32u0xx_ll_adc.h **** #define ADC_CHSELR_CHSEL5_BITOFFSET_POS    ( 5UL) /* Equivalent to bitfield "ADC_CHSELR_CHSEL5" pos
 233:Drivers/STM32U0xx_HAL_Driver/Inc/stm32u0xx_ll_adc.h **** #define ADC_CHSELR_CHSEL6_BITOFFSET_POS    ( 6UL) /* Equivalent to bitfield "ADC_CHSELR_CHSEL6" pos
 234:Drivers/STM32U0xx_HAL_Driver/Inc/stm32u0xx_ll_adc.h **** #define ADC_CHSELR_CHSEL7_BITOFFSET_POS    ( 7UL) /* Equivalent to bitfield "ADC_CHSELR_CHSEL7" pos
 235:Drivers/STM32U0xx_HAL_Driver/Inc/stm32u0xx_ll_adc.h **** #define ADC_CHSELR_CHSEL8_BITOFFSET_POS    ( 8UL) /* Equivalent to bitfield "ADC_CHSELR_CHSEL8" pos
 236:Drivers/STM32U0xx_HAL_Driver/Inc/stm32u0xx_ll_adc.h **** #define ADC_CHSELR_CHSEL9_BITOFFSET_POS    ( 9UL) /* Equivalent to bitfield "ADC_CHSELR_CHSEL9" pos
 237:Drivers/STM32U0xx_HAL_Driver/Inc/stm32u0xx_ll_adc.h **** #define ADC_CHSELR_CHSEL10_BITOFFSET_POS   (10UL) /* Equivalent to bitfield "ADC_CHSELR_CHSEL10" po
 238:Drivers/STM32U0xx_HAL_Driver/Inc/stm32u0xx_ll_adc.h **** #define ADC_CHSELR_CHSEL11_BITOFFSET_POS   (11UL) /* Equivalent to bitfield "ADC_CHSELR_CHSEL11" po
 239:Drivers/STM32U0xx_HAL_Driver/Inc/stm32u0xx_ll_adc.h **** #define ADC_CHSELR_CHSEL12_BITOFFSET_POS   (12UL) /* Equivalent to bitfield "ADC_CHSELR_CHSEL12" po
 240:Drivers/STM32U0xx_HAL_Driver/Inc/stm32u0xx_ll_adc.h **** #define ADC_CHSELR_CHSEL13_BITOFFSET_POS   (13UL) /* Equivalent to bitfield "ADC_CHSELR_CHSEL13" po
 241:Drivers/STM32U0xx_HAL_Driver/Inc/stm32u0xx_ll_adc.h **** #define ADC_CHSELR_CHSEL14_BITOFFSET_POS   (14UL) /* Equivalent to bitfield "ADC_CHSELR_CHSEL14" po
 242:Drivers/STM32U0xx_HAL_Driver/Inc/stm32u0xx_ll_adc.h **** #define ADC_CHSELR_CHSEL15_BITOFFSET_POS   (15UL) /* Equivalent to bitfield "ADC_CHSELR_CHSEL15" po
 243:Drivers/STM32U0xx_HAL_Driver/Inc/stm32u0xx_ll_adc.h **** #define ADC_CHSELR_CHSEL16_BITOFFSET_POS   (16UL) /* Equivalent to bitfield "ADC_CHSELR_CHSEL16" po
 244:Drivers/STM32U0xx_HAL_Driver/Inc/stm32u0xx_ll_adc.h **** #define ADC_CHSELR_CHSEL17_BITOFFSET_POS   (17UL) /* Equivalent to bitfield "ADC_CHSELR_CHSEL17" po
 245:Drivers/STM32U0xx_HAL_Driver/Inc/stm32u0xx_ll_adc.h **** #define ADC_CHSELR_CHSEL18_BITOFFSET_POS   (18UL) /* Equivalent to bitfield "ADC_CHSELR_CHSEL18" po
 246:Drivers/STM32U0xx_HAL_Driver/Inc/stm32u0xx_ll_adc.h **** #define ADC_CHSELR_CHSEL19_BITOFFSET_POS   (19UL) /* Equivalent to bitfield "ADC_CHSELR_CHSEL19" po
 247:Drivers/STM32U0xx_HAL_Driver/Inc/stm32u0xx_ll_adc.h **** #define ADC_SMPR_SMP1_BITOFFSET_POS        ( 0UL) /* Equivalent to bitfield "ADC_SMPR_SMP1" positio
 248:Drivers/STM32U0xx_HAL_Driver/Inc/stm32u0xx_ll_adc.h **** #define ADC_SMPR_SMP2_BITOFFSET_POS        ( 4UL) /* Equivalent to bitfield "ADC_SMPR_SMP2" positio
ARM GAS  C:\Users\upo\AppData\Local\Temp\ccZrPTgE.s 			page 9


 249:Drivers/STM32U0xx_HAL_Driver/Inc/stm32u0xx_ll_adc.h **** #define ADC_SMPR_SMPSEL0_BITOFFSET_POS     ( 8UL) /* Equivalent to bitfield "ADC_SMPR_SMPSEL0" posi
 250:Drivers/STM32U0xx_HAL_Driver/Inc/stm32u0xx_ll_adc.h **** 
 251:Drivers/STM32U0xx_HAL_Driver/Inc/stm32u0xx_ll_adc.h **** 
 252:Drivers/STM32U0xx_HAL_Driver/Inc/stm32u0xx_ll_adc.h **** /* ADC registers bits groups */
 253:Drivers/STM32U0xx_HAL_Driver/Inc/stm32u0xx_ll_adc.h **** #define ADC_CR_BITS_PROPERTY_RS            (ADC_CR_ADCAL | ADC_CR_ADEN | ADC_CR_ADDIS \
 254:Drivers/STM32U0xx_HAL_Driver/Inc/stm32u0xx_ll_adc.h ****                                             | ADC_CR_ADSTART | ADC_CR_ADSTP)            /* ADC regi
 255:Drivers/STM32U0xx_HAL_Driver/Inc/stm32u0xx_ll_adc.h ****                                            HW property "rs": Software can read as well as set this 
 256:Drivers/STM32U0xx_HAL_Driver/Inc/stm32u0xx_ll_adc.h ****                                            Writing '0' has no effect on the bit value. */
 257:Drivers/STM32U0xx_HAL_Driver/Inc/stm32u0xx_ll_adc.h **** 
 258:Drivers/STM32U0xx_HAL_Driver/Inc/stm32u0xx_ll_adc.h **** 
 259:Drivers/STM32U0xx_HAL_Driver/Inc/stm32u0xx_ll_adc.h **** /* ADC internal channels related definitions */
 260:Drivers/STM32U0xx_HAL_Driver/Inc/stm32u0xx_ll_adc.h **** /* Internal voltage reference VrefInt */
 261:Drivers/STM32U0xx_HAL_Driver/Inc/stm32u0xx_ll_adc.h **** #define VREFINT_CAL_ADDR                   ((uint16_t*) (0x1FFF6EA4UL)) /* Internal voltage referen
 262:Drivers/STM32U0xx_HAL_Driver/Inc/stm32u0xx_ll_adc.h ****                                            parameter VREFINT_CAL: VrefInt ADC raw data acquired at 
 263:Drivers/STM32U0xx_HAL_Driver/Inc/stm32u0xx_ll_adc.h ****                                            (tolerance: +-5 DegC), Vref+ = 3.0 V (tolerance: +-10 mV
 264:Drivers/STM32U0xx_HAL_Driver/Inc/stm32u0xx_ll_adc.h **** #define VREFINT_CAL_VREF                   ( 3000UL)                    /* Analog voltage reference
 265:Drivers/STM32U0xx_HAL_Driver/Inc/stm32u0xx_ll_adc.h ****                                            with which VrefInt has been calibrated in production
 266:Drivers/STM32U0xx_HAL_Driver/Inc/stm32u0xx_ll_adc.h ****                                            (tolerance: +-10 mV) (unit: mV). */
 267:Drivers/STM32U0xx_HAL_Driver/Inc/stm32u0xx_ll_adc.h **** /* Temperature sensor */
 268:Drivers/STM32U0xx_HAL_Driver/Inc/stm32u0xx_ll_adc.h **** #define TEMPSENSOR_CAL1_ADDR               ((uint16_t*) (0x1FFF6E68UL)) /* Address of parameter TS_
 269:Drivers/STM32U0xx_HAL_Driver/Inc/stm32u0xx_ll_adc.h ****                                            temperature sensor ADC raw data acquired at temperature 
 270:Drivers/STM32U0xx_HAL_Driver/Inc/stm32u0xx_ll_adc.h ****                                            (tolerance: +-5 DegC), Vref+ = 3.0 V (tolerance: +-10 mV
 271:Drivers/STM32U0xx_HAL_Driver/Inc/stm32u0xx_ll_adc.h **** #define TEMPSENSOR_CAL2_ADDR               ((uint16_t*) (0x1FFF6E8AUL)) /* Address of parameter TS_
 272:Drivers/STM32U0xx_HAL_Driver/Inc/stm32u0xx_ll_adc.h ****                                            temperature sensor ADC raw data acquired at temperature 
 273:Drivers/STM32U0xx_HAL_Driver/Inc/stm32u0xx_ll_adc.h ****                                            (tolerance: +-5 DegC), Vref+ = 3.0 V (tolerance: +-10 mV
 274:Drivers/STM32U0xx_HAL_Driver/Inc/stm32u0xx_ll_adc.h **** #define TEMPSENSOR_CAL1_TEMP               (( int32_t)   30)            /* Temperature at which tem
 275:Drivers/STM32U0xx_HAL_Driver/Inc/stm32u0xx_ll_adc.h ****                                            has been calibrated in production for data into TEMPSENS
 276:Drivers/STM32U0xx_HAL_Driver/Inc/stm32u0xx_ll_adc.h ****                                            (tolerance: +-5 DegC) (unit: DegC). */
 277:Drivers/STM32U0xx_HAL_Driver/Inc/stm32u0xx_ll_adc.h **** #define TEMPSENSOR_CAL2_TEMP               (( int32_t)  130)            /* Temperature at which tem
 278:Drivers/STM32U0xx_HAL_Driver/Inc/stm32u0xx_ll_adc.h ****                                            has been calibrated in production for data into TEMPSENS
 279:Drivers/STM32U0xx_HAL_Driver/Inc/stm32u0xx_ll_adc.h ****                                            (tolerance: +-5 DegC) (unit: DegC). */
 280:Drivers/STM32U0xx_HAL_Driver/Inc/stm32u0xx_ll_adc.h **** #define TEMPSENSOR_CAL_VREFANALOG          ( 3000UL)                    /* Analog voltage reference
 281:Drivers/STM32U0xx_HAL_Driver/Inc/stm32u0xx_ll_adc.h ****                                            with which temperature sensor has been calibrated in pro
 282:Drivers/STM32U0xx_HAL_Driver/Inc/stm32u0xx_ll_adc.h ****                                            (tolerance: +-10 mV) (unit: mV). */
 283:Drivers/STM32U0xx_HAL_Driver/Inc/stm32u0xx_ll_adc.h **** 
 284:Drivers/STM32U0xx_HAL_Driver/Inc/stm32u0xx_ll_adc.h **** /**
 285:Drivers/STM32U0xx_HAL_Driver/Inc/stm32u0xx_ll_adc.h ****   * @}
 286:Drivers/STM32U0xx_HAL_Driver/Inc/stm32u0xx_ll_adc.h ****   */
 287:Drivers/STM32U0xx_HAL_Driver/Inc/stm32u0xx_ll_adc.h **** 
 288:Drivers/STM32U0xx_HAL_Driver/Inc/stm32u0xx_ll_adc.h **** 
 289:Drivers/STM32U0xx_HAL_Driver/Inc/stm32u0xx_ll_adc.h **** /* Private macros ------------------------------------------------------------*/
 290:Drivers/STM32U0xx_HAL_Driver/Inc/stm32u0xx_ll_adc.h **** /** @defgroup ADC_LL_Private_Macros ADC Private Macros
 291:Drivers/STM32U0xx_HAL_Driver/Inc/stm32u0xx_ll_adc.h ****   * @{
 292:Drivers/STM32U0xx_HAL_Driver/Inc/stm32u0xx_ll_adc.h ****   */
 293:Drivers/STM32U0xx_HAL_Driver/Inc/stm32u0xx_ll_adc.h **** 
 294:Drivers/STM32U0xx_HAL_Driver/Inc/stm32u0xx_ll_adc.h **** /**
 295:Drivers/STM32U0xx_HAL_Driver/Inc/stm32u0xx_ll_adc.h ****   * @brief  Driver macro reserved for internal use: set a pointer to
 296:Drivers/STM32U0xx_HAL_Driver/Inc/stm32u0xx_ll_adc.h ****   *         a register from a register basis from which an offset
 297:Drivers/STM32U0xx_HAL_Driver/Inc/stm32u0xx_ll_adc.h ****   *         is applied.
 298:Drivers/STM32U0xx_HAL_Driver/Inc/stm32u0xx_ll_adc.h ****   * @param  __REG__ Register basis from which the offset is applied.
 299:Drivers/STM32U0xx_HAL_Driver/Inc/stm32u0xx_ll_adc.h ****   * @param  __REG_OFFFSET__ Offset to be applied (unit: number of registers).
 300:Drivers/STM32U0xx_HAL_Driver/Inc/stm32u0xx_ll_adc.h ****   * @retval Pointer to register address
 301:Drivers/STM32U0xx_HAL_Driver/Inc/stm32u0xx_ll_adc.h ****   */
 302:Drivers/STM32U0xx_HAL_Driver/Inc/stm32u0xx_ll_adc.h **** #define __ADC_PTR_REG_OFFSET(__REG__, __REG_OFFFSET__)                         \
 303:Drivers/STM32U0xx_HAL_Driver/Inc/stm32u0xx_ll_adc.h ****   ((__IO uint32_t *)((uint32_t) ((uint32_t)(&(__REG__)) + ((__REG_OFFFSET__) << 2UL))))
 304:Drivers/STM32U0xx_HAL_Driver/Inc/stm32u0xx_ll_adc.h **** 
 305:Drivers/STM32U0xx_HAL_Driver/Inc/stm32u0xx_ll_adc.h **** /**
ARM GAS  C:\Users\upo\AppData\Local\Temp\ccZrPTgE.s 			page 10


 306:Drivers/STM32U0xx_HAL_Driver/Inc/stm32u0xx_ll_adc.h ****   * @}
 307:Drivers/STM32U0xx_HAL_Driver/Inc/stm32u0xx_ll_adc.h ****   */
 308:Drivers/STM32U0xx_HAL_Driver/Inc/stm32u0xx_ll_adc.h **** 
 309:Drivers/STM32U0xx_HAL_Driver/Inc/stm32u0xx_ll_adc.h **** 
 310:Drivers/STM32U0xx_HAL_Driver/Inc/stm32u0xx_ll_adc.h **** /* Exported types ------------------------------------------------------------*/
 311:Drivers/STM32U0xx_HAL_Driver/Inc/stm32u0xx_ll_adc.h **** #if defined(USE_FULL_LL_DRIVER)
 312:Drivers/STM32U0xx_HAL_Driver/Inc/stm32u0xx_ll_adc.h **** /** @defgroup ADC_LL_ES_INIT ADC Exported Init structure
 313:Drivers/STM32U0xx_HAL_Driver/Inc/stm32u0xx_ll_adc.h ****   * @{
 314:Drivers/STM32U0xx_HAL_Driver/Inc/stm32u0xx_ll_adc.h ****   */
 315:Drivers/STM32U0xx_HAL_Driver/Inc/stm32u0xx_ll_adc.h **** 
 316:Drivers/STM32U0xx_HAL_Driver/Inc/stm32u0xx_ll_adc.h **** /**
 317:Drivers/STM32U0xx_HAL_Driver/Inc/stm32u0xx_ll_adc.h ****   * @brief  Structure definition of some features of ADC common parameters
 318:Drivers/STM32U0xx_HAL_Driver/Inc/stm32u0xx_ll_adc.h ****   *         and multimode
 319:Drivers/STM32U0xx_HAL_Driver/Inc/stm32u0xx_ll_adc.h ****   *         (all ADC instances belonging to the same ADC common instance).
 320:Drivers/STM32U0xx_HAL_Driver/Inc/stm32u0xx_ll_adc.h ****   * @note   The setting of these parameters by function @ref LL_ADC_CommonInit()
 321:Drivers/STM32U0xx_HAL_Driver/Inc/stm32u0xx_ll_adc.h ****   *         is conditioned to ADC instances state (all ADC instances
 322:Drivers/STM32U0xx_HAL_Driver/Inc/stm32u0xx_ll_adc.h ****   *         sharing the same ADC common instance):
 323:Drivers/STM32U0xx_HAL_Driver/Inc/stm32u0xx_ll_adc.h ****   *         All ADC instances sharing the same ADC common instance must be
 324:Drivers/STM32U0xx_HAL_Driver/Inc/stm32u0xx_ll_adc.h ****   *         disabled.
 325:Drivers/STM32U0xx_HAL_Driver/Inc/stm32u0xx_ll_adc.h ****   */
 326:Drivers/STM32U0xx_HAL_Driver/Inc/stm32u0xx_ll_adc.h **** typedef struct
 327:Drivers/STM32U0xx_HAL_Driver/Inc/stm32u0xx_ll_adc.h **** {
 328:Drivers/STM32U0xx_HAL_Driver/Inc/stm32u0xx_ll_adc.h ****   uint32_t CommonClock;                 /*!< Set parameter common to several ADC: Clock source and 
 329:Drivers/STM32U0xx_HAL_Driver/Inc/stm32u0xx_ll_adc.h ****                                              This parameter can be a value of @ref ADC_LL_EC_COMMON
 330:Drivers/STM32U0xx_HAL_Driver/Inc/stm32u0xx_ll_adc.h ****                                              This feature can be modified afterwards using unitary 
 331:Drivers/STM32U0xx_HAL_Driver/Inc/stm32u0xx_ll_adc.h ****                                              @ref LL_ADC_SetCommonClock(). */
 332:Drivers/STM32U0xx_HAL_Driver/Inc/stm32u0xx_ll_adc.h **** 
 333:Drivers/STM32U0xx_HAL_Driver/Inc/stm32u0xx_ll_adc.h **** } LL_ADC_CommonInitTypeDef;
 334:Drivers/STM32U0xx_HAL_Driver/Inc/stm32u0xx_ll_adc.h **** 
 335:Drivers/STM32U0xx_HAL_Driver/Inc/stm32u0xx_ll_adc.h **** /**
 336:Drivers/STM32U0xx_HAL_Driver/Inc/stm32u0xx_ll_adc.h ****   * @brief  Structure definition of some features of ADC instance.
 337:Drivers/STM32U0xx_HAL_Driver/Inc/stm32u0xx_ll_adc.h ****   * @note   These parameters have an impact on ADC scope: ADC instance.
 338:Drivers/STM32U0xx_HAL_Driver/Inc/stm32u0xx_ll_adc.h ****   *         Refer to corresponding unitary functions into
 339:Drivers/STM32U0xx_HAL_Driver/Inc/stm32u0xx_ll_adc.h ****   *         @ref ADC_LL_EF_Configuration_ADC_Instance .
 340:Drivers/STM32U0xx_HAL_Driver/Inc/stm32u0xx_ll_adc.h ****   * @note   The setting of these parameters by function @ref LL_ADC_Init()
 341:Drivers/STM32U0xx_HAL_Driver/Inc/stm32u0xx_ll_adc.h ****   *         is conditioned to ADC state:
 342:Drivers/STM32U0xx_HAL_Driver/Inc/stm32u0xx_ll_adc.h ****   *         ADC instance must be disabled.
 343:Drivers/STM32U0xx_HAL_Driver/Inc/stm32u0xx_ll_adc.h ****   *         This condition is applied to all ADC features, for efficiency
 344:Drivers/STM32U0xx_HAL_Driver/Inc/stm32u0xx_ll_adc.h ****   *         and compatibility over all STM32 series. However, the different
 345:Drivers/STM32U0xx_HAL_Driver/Inc/stm32u0xx_ll_adc.h ****   *         features can be set under different ADC state conditions
 346:Drivers/STM32U0xx_HAL_Driver/Inc/stm32u0xx_ll_adc.h ****   *         (setting possible with ADC enabled without conversion on going,
 347:Drivers/STM32U0xx_HAL_Driver/Inc/stm32u0xx_ll_adc.h ****   *         ADC enabled with conversion on going, ...)
 348:Drivers/STM32U0xx_HAL_Driver/Inc/stm32u0xx_ll_adc.h ****   *         Each feature can be updated afterwards with a unitary function
 349:Drivers/STM32U0xx_HAL_Driver/Inc/stm32u0xx_ll_adc.h ****   *         and potentially with ADC in a different state than disabled,
 350:Drivers/STM32U0xx_HAL_Driver/Inc/stm32u0xx_ll_adc.h ****   *         refer to description of each function for setting
 351:Drivers/STM32U0xx_HAL_Driver/Inc/stm32u0xx_ll_adc.h ****   *         conditioned to ADC state.
 352:Drivers/STM32U0xx_HAL_Driver/Inc/stm32u0xx_ll_adc.h ****   */
 353:Drivers/STM32U0xx_HAL_Driver/Inc/stm32u0xx_ll_adc.h **** typedef struct
 354:Drivers/STM32U0xx_HAL_Driver/Inc/stm32u0xx_ll_adc.h **** {
 355:Drivers/STM32U0xx_HAL_Driver/Inc/stm32u0xx_ll_adc.h ****   uint32_t Clock;                       /*!< Set ADC instance clock source and prescaler.
 356:Drivers/STM32U0xx_HAL_Driver/Inc/stm32u0xx_ll_adc.h ****                                              This parameter can be a value of @ref ADC_LL_EC_CLOCK_
 357:Drivers/STM32U0xx_HAL_Driver/Inc/stm32u0xx_ll_adc.h ****                                             @note On this STM32 series, this parameter has some clo
 358:Drivers/STM32U0xx_HAL_Driver/Inc/stm32u0xx_ll_adc.h ****                                                   ADC clock synchronous (from PCLK) with prescaler 
 359:Drivers/STM32U0xx_HAL_Driver/Inc/stm32u0xx_ll_adc.h ****                                                   only if PCLK has a 50% duty clock cycle (APB pres
 360:Drivers/STM32U0xx_HAL_Driver/Inc/stm32u0xx_ll_adc.h ****                                                   inside the RCC must be bypassed and the system cl
 361:Drivers/STM32U0xx_HAL_Driver/Inc/stm32u0xx_ll_adc.h ****                                                   cycle).
 362:Drivers/STM32U0xx_HAL_Driver/Inc/stm32u0xx_ll_adc.h ****                                              This feature can be modified afterwards using unitary 
ARM GAS  C:\Users\upo\AppData\Local\Temp\ccZrPTgE.s 			page 11


 363:Drivers/STM32U0xx_HAL_Driver/Inc/stm32u0xx_ll_adc.h ****                                              @ref LL_ADC_SetClock().
 364:Drivers/STM32U0xx_HAL_Driver/Inc/stm32u0xx_ll_adc.h ****                                              For more details, refer to description of this functio
 365:Drivers/STM32U0xx_HAL_Driver/Inc/stm32u0xx_ll_adc.h **** 
 366:Drivers/STM32U0xx_HAL_Driver/Inc/stm32u0xx_ll_adc.h ****   uint32_t Resolution;                  /*!< Set ADC resolution.
 367:Drivers/STM32U0xx_HAL_Driver/Inc/stm32u0xx_ll_adc.h ****                                              This parameter can be a value of @ref ADC_LL_EC_RESOLU
 368:Drivers/STM32U0xx_HAL_Driver/Inc/stm32u0xx_ll_adc.h ****                                              This feature can be modified afterwards using unitary 
 369:Drivers/STM32U0xx_HAL_Driver/Inc/stm32u0xx_ll_adc.h ****                                              @ref LL_ADC_SetResolution(). */
 370:Drivers/STM32U0xx_HAL_Driver/Inc/stm32u0xx_ll_adc.h **** 
 371:Drivers/STM32U0xx_HAL_Driver/Inc/stm32u0xx_ll_adc.h ****   uint32_t DataAlignment;               /*!< Set ADC conversion data alignment.
 372:Drivers/STM32U0xx_HAL_Driver/Inc/stm32u0xx_ll_adc.h ****                                              This parameter can be a value of @ref ADC_LL_EC_DATA_A
 373:Drivers/STM32U0xx_HAL_Driver/Inc/stm32u0xx_ll_adc.h ****                                              This feature can be modified afterwards using unitary 
 374:Drivers/STM32U0xx_HAL_Driver/Inc/stm32u0xx_ll_adc.h ****                                              @ref LL_ADC_SetDataAlignment(). */
 375:Drivers/STM32U0xx_HAL_Driver/Inc/stm32u0xx_ll_adc.h **** 
 376:Drivers/STM32U0xx_HAL_Driver/Inc/stm32u0xx_ll_adc.h ****   uint32_t LowPowerMode;                /*!< Set ADC low power mode.
 377:Drivers/STM32U0xx_HAL_Driver/Inc/stm32u0xx_ll_adc.h ****                                              This parameter can be a value of @ref ADC_LL_EC_LP_MOD
 378:Drivers/STM32U0xx_HAL_Driver/Inc/stm32u0xx_ll_adc.h ****                                              This feature can be modified afterwards using unitary 
 379:Drivers/STM32U0xx_HAL_Driver/Inc/stm32u0xx_ll_adc.h ****                                              @ref LL_ADC_SetLowPowerMode(). */
 380:Drivers/STM32U0xx_HAL_Driver/Inc/stm32u0xx_ll_adc.h **** 
 381:Drivers/STM32U0xx_HAL_Driver/Inc/stm32u0xx_ll_adc.h **** } LL_ADC_InitTypeDef;
 382:Drivers/STM32U0xx_HAL_Driver/Inc/stm32u0xx_ll_adc.h **** 
 383:Drivers/STM32U0xx_HAL_Driver/Inc/stm32u0xx_ll_adc.h **** /**
 384:Drivers/STM32U0xx_HAL_Driver/Inc/stm32u0xx_ll_adc.h ****   * @brief  Structure definition of some features of ADC group regular.
 385:Drivers/STM32U0xx_HAL_Driver/Inc/stm32u0xx_ll_adc.h ****   * @note   These parameters have an impact on ADC scope: ADC group regular.
 386:Drivers/STM32U0xx_HAL_Driver/Inc/stm32u0xx_ll_adc.h ****   *         Refer to corresponding unitary functions into
 387:Drivers/STM32U0xx_HAL_Driver/Inc/stm32u0xx_ll_adc.h ****   *         @ref ADC_LL_EF_Configuration_ADC_Group_Regular
 388:Drivers/STM32U0xx_HAL_Driver/Inc/stm32u0xx_ll_adc.h ****   *         (functions with prefix "REG").
 389:Drivers/STM32U0xx_HAL_Driver/Inc/stm32u0xx_ll_adc.h ****   * @note   The setting of these parameters by function @ref LL_ADC_REG_Init()
 390:Drivers/STM32U0xx_HAL_Driver/Inc/stm32u0xx_ll_adc.h ****   *         is conditioned to ADC state:
 391:Drivers/STM32U0xx_HAL_Driver/Inc/stm32u0xx_ll_adc.h ****   *         ADC instance must be disabled.
 392:Drivers/STM32U0xx_HAL_Driver/Inc/stm32u0xx_ll_adc.h ****   *         This condition is applied to all ADC features, for efficiency
 393:Drivers/STM32U0xx_HAL_Driver/Inc/stm32u0xx_ll_adc.h ****   *         and compatibility over all STM32 series. However, the different
 394:Drivers/STM32U0xx_HAL_Driver/Inc/stm32u0xx_ll_adc.h ****   *         features can be set under different ADC state conditions
 395:Drivers/STM32U0xx_HAL_Driver/Inc/stm32u0xx_ll_adc.h ****   *         (setting possible with ADC enabled without conversion on going,
 396:Drivers/STM32U0xx_HAL_Driver/Inc/stm32u0xx_ll_adc.h ****   *         ADC enabled with conversion on going, ...)
 397:Drivers/STM32U0xx_HAL_Driver/Inc/stm32u0xx_ll_adc.h ****   *         Each feature can be updated afterwards with a unitary function
 398:Drivers/STM32U0xx_HAL_Driver/Inc/stm32u0xx_ll_adc.h ****   *         and potentially with ADC in a different state than disabled,
 399:Drivers/STM32U0xx_HAL_Driver/Inc/stm32u0xx_ll_adc.h ****   *         refer to description of each function for setting
 400:Drivers/STM32U0xx_HAL_Driver/Inc/stm32u0xx_ll_adc.h ****   *         conditioned to ADC state.
 401:Drivers/STM32U0xx_HAL_Driver/Inc/stm32u0xx_ll_adc.h ****   */
 402:Drivers/STM32U0xx_HAL_Driver/Inc/stm32u0xx_ll_adc.h **** typedef struct
 403:Drivers/STM32U0xx_HAL_Driver/Inc/stm32u0xx_ll_adc.h **** {
 404:Drivers/STM32U0xx_HAL_Driver/Inc/stm32u0xx_ll_adc.h ****   uint32_t TriggerSource;               /*!< Set ADC group regular conversion trigger source: inter
 405:Drivers/STM32U0xx_HAL_Driver/Inc/stm32u0xx_ll_adc.h ****                                              from external peripheral (timer event, external interr
 406:Drivers/STM32U0xx_HAL_Driver/Inc/stm32u0xx_ll_adc.h ****                                              This parameter can be a value of @ref ADC_LL_EC_REG_TR
 407:Drivers/STM32U0xx_HAL_Driver/Inc/stm32u0xx_ll_adc.h ****                                              @note On this STM32 series, setting trigger source to 
 408:Drivers/STM32U0xx_HAL_Driver/Inc/stm32u0xx_ll_adc.h ****                                                    set trigger polarity to rising edge(default sett
 409:Drivers/STM32U0xx_HAL_Driver/Inc/stm32u0xx_ll_adc.h ****                                                    with some ADC on other STM32 series having this 
 410:Drivers/STM32U0xx_HAL_Driver/Inc/stm32u0xx_ll_adc.h ****                                                    default value).
 411:Drivers/STM32U0xx_HAL_Driver/Inc/stm32u0xx_ll_adc.h ****                                                    In case of need to modify trigger edge, use func
 412:Drivers/STM32U0xx_HAL_Driver/Inc/stm32u0xx_ll_adc.h ****                                                    @ref LL_ADC_REG_SetTriggerEdge().
 413:Drivers/STM32U0xx_HAL_Driver/Inc/stm32u0xx_ll_adc.h ****                                              This feature can be modified afterwards using unitary 
 414:Drivers/STM32U0xx_HAL_Driver/Inc/stm32u0xx_ll_adc.h ****                                              @ref LL_ADC_REG_SetTriggerSource(). */
 415:Drivers/STM32U0xx_HAL_Driver/Inc/stm32u0xx_ll_adc.h **** 
 416:Drivers/STM32U0xx_HAL_Driver/Inc/stm32u0xx_ll_adc.h ****   uint32_t SequencerLength;             /*!< Set ADC group regular sequencer length.
 417:Drivers/STM32U0xx_HAL_Driver/Inc/stm32u0xx_ll_adc.h ****                                              @note This parameter has an effect only if group regul
 418:Drivers/STM32U0xx_HAL_Driver/Inc/stm32u0xx_ll_adc.h ****                                                     to mode "fully configurable". Refer to function
 419:Drivers/STM32U0xx_HAL_Driver/Inc/stm32u0xx_ll_adc.h ****                                                     @ref LL_ADC_REG_SetSequencerConfigurable().
ARM GAS  C:\Users\upo\AppData\Local\Temp\ccZrPTgE.s 			page 12


 420:Drivers/STM32U0xx_HAL_Driver/Inc/stm32u0xx_ll_adc.h ****                                              This parameter can be a value of @ref ADC_LL_EC_REG_SE
 421:Drivers/STM32U0xx_HAL_Driver/Inc/stm32u0xx_ll_adc.h ****                                              This feature can be modified afterwards using unitary 
 422:Drivers/STM32U0xx_HAL_Driver/Inc/stm32u0xx_ll_adc.h ****                                              @ref LL_ADC_REG_SetSequencerLength(). */
 423:Drivers/STM32U0xx_HAL_Driver/Inc/stm32u0xx_ll_adc.h **** 
 424:Drivers/STM32U0xx_HAL_Driver/Inc/stm32u0xx_ll_adc.h ****   uint32_t SequencerDiscont;            /*!< Set ADC group regular sequencer discontinuous mode: se
 425:Drivers/STM32U0xx_HAL_Driver/Inc/stm32u0xx_ll_adc.h ****                                              and scan conversions interrupted every selected number
 426:Drivers/STM32U0xx_HAL_Driver/Inc/stm32u0xx_ll_adc.h ****                                              This parameter can be a value of @ref ADC_LL_EC_REG_SE
 427:Drivers/STM32U0xx_HAL_Driver/Inc/stm32u0xx_ll_adc.h ****                                              @note This parameter has an effect only if group regul
 428:Drivers/STM32U0xx_HAL_Driver/Inc/stm32u0xx_ll_adc.h ****                                                    enabled (depending on the sequencer mode: scan l
 429:Drivers/STM32U0xx_HAL_Driver/Inc/stm32u0xx_ll_adc.h ****                                                    more, or several ADC channels enabled in group r
 430:Drivers/STM32U0xx_HAL_Driver/Inc/stm32u0xx_ll_adc.h ****                                                    Refer to function @ref LL_ADC_REG_SetSequencerCo
 431:Drivers/STM32U0xx_HAL_Driver/Inc/stm32u0xx_ll_adc.h ****                                              This feature can be modified afterwards using unitary 
 432:Drivers/STM32U0xx_HAL_Driver/Inc/stm32u0xx_ll_adc.h ****                                              @ref LL_ADC_REG_SetSequencerDiscont(). */
 433:Drivers/STM32U0xx_HAL_Driver/Inc/stm32u0xx_ll_adc.h **** 
 434:Drivers/STM32U0xx_HAL_Driver/Inc/stm32u0xx_ll_adc.h ****   uint32_t ContinuousMode;              /*!< Set ADC continuous conversion mode on ADC group regula
 435:Drivers/STM32U0xx_HAL_Driver/Inc/stm32u0xx_ll_adc.h ****                                              conversions are performed in single mode (one conversi
 436:Drivers/STM32U0xx_HAL_Driver/Inc/stm32u0xx_ll_adc.h ****                                              continuous mode (after the first trigger, following co
 437:Drivers/STM32U0xx_HAL_Driver/Inc/stm32u0xx_ll_adc.h ****                                              successively automatically).
 438:Drivers/STM32U0xx_HAL_Driver/Inc/stm32u0xx_ll_adc.h ****                                              This parameter can be a value of @ref ADC_LL_EC_REG_CO
 439:Drivers/STM32U0xx_HAL_Driver/Inc/stm32u0xx_ll_adc.h ****                                              Note: It is not possible to enable both ADC group regu
 440:Drivers/STM32U0xx_HAL_Driver/Inc/stm32u0xx_ll_adc.h ****                                                    and discontinuous mode.
 441:Drivers/STM32U0xx_HAL_Driver/Inc/stm32u0xx_ll_adc.h ****                                              This feature can be modified afterwards using unitary 
 442:Drivers/STM32U0xx_HAL_Driver/Inc/stm32u0xx_ll_adc.h ****                                              @ref LL_ADC_REG_SetContinuousMode(). */
 443:Drivers/STM32U0xx_HAL_Driver/Inc/stm32u0xx_ll_adc.h **** 
 444:Drivers/STM32U0xx_HAL_Driver/Inc/stm32u0xx_ll_adc.h ****   uint32_t DMATransfer;                 /*!< Set ADC group regular conversion data transfer: no tra
 445:Drivers/STM32U0xx_HAL_Driver/Inc/stm32u0xx_ll_adc.h ****                                              by DMA, and DMA requests mode.
 446:Drivers/STM32U0xx_HAL_Driver/Inc/stm32u0xx_ll_adc.h ****                                              This parameter can be a value of @ref ADC_LL_EC_REG_DM
 447:Drivers/STM32U0xx_HAL_Driver/Inc/stm32u0xx_ll_adc.h ****                                              This feature can be modified afterwards using unitary 
 448:Drivers/STM32U0xx_HAL_Driver/Inc/stm32u0xx_ll_adc.h ****                                              @ref LL_ADC_REG_SetDMATransfer(). */
 449:Drivers/STM32U0xx_HAL_Driver/Inc/stm32u0xx_ll_adc.h **** 
 450:Drivers/STM32U0xx_HAL_Driver/Inc/stm32u0xx_ll_adc.h ****   uint32_t Overrun;                     /*!< Set ADC group regular behavior in case of overrun:
 451:Drivers/STM32U0xx_HAL_Driver/Inc/stm32u0xx_ll_adc.h ****                                              data preserved or overwritten.
 452:Drivers/STM32U0xx_HAL_Driver/Inc/stm32u0xx_ll_adc.h ****                                              This parameter can be a value of @ref ADC_LL_EC_REG_OV
 453:Drivers/STM32U0xx_HAL_Driver/Inc/stm32u0xx_ll_adc.h ****                                              This feature can be modified afterwards using unitary 
 454:Drivers/STM32U0xx_HAL_Driver/Inc/stm32u0xx_ll_adc.h ****                                              @ref LL_ADC_REG_SetOverrun(). */
 455:Drivers/STM32U0xx_HAL_Driver/Inc/stm32u0xx_ll_adc.h **** 
 456:Drivers/STM32U0xx_HAL_Driver/Inc/stm32u0xx_ll_adc.h **** } LL_ADC_REG_InitTypeDef;
 457:Drivers/STM32U0xx_HAL_Driver/Inc/stm32u0xx_ll_adc.h **** 
 458:Drivers/STM32U0xx_HAL_Driver/Inc/stm32u0xx_ll_adc.h **** /**
 459:Drivers/STM32U0xx_HAL_Driver/Inc/stm32u0xx_ll_adc.h ****   * @}
 460:Drivers/STM32U0xx_HAL_Driver/Inc/stm32u0xx_ll_adc.h ****   */
 461:Drivers/STM32U0xx_HAL_Driver/Inc/stm32u0xx_ll_adc.h **** #endif /* USE_FULL_LL_DRIVER */
 462:Drivers/STM32U0xx_HAL_Driver/Inc/stm32u0xx_ll_adc.h **** 
 463:Drivers/STM32U0xx_HAL_Driver/Inc/stm32u0xx_ll_adc.h **** /* Exported constants --------------------------------------------------------*/
 464:Drivers/STM32U0xx_HAL_Driver/Inc/stm32u0xx_ll_adc.h **** /** @defgroup ADC_LL_Exported_Constants ADC Exported Constants
 465:Drivers/STM32U0xx_HAL_Driver/Inc/stm32u0xx_ll_adc.h ****   * @{
 466:Drivers/STM32U0xx_HAL_Driver/Inc/stm32u0xx_ll_adc.h ****   */
 467:Drivers/STM32U0xx_HAL_Driver/Inc/stm32u0xx_ll_adc.h **** 
 468:Drivers/STM32U0xx_HAL_Driver/Inc/stm32u0xx_ll_adc.h **** /** @defgroup ADC_LL_EC_FLAG ADC flags
 469:Drivers/STM32U0xx_HAL_Driver/Inc/stm32u0xx_ll_adc.h ****   * @brief    Flags defines which can be used with LL_ADC_ReadReg function
 470:Drivers/STM32U0xx_HAL_Driver/Inc/stm32u0xx_ll_adc.h ****   * @{
 471:Drivers/STM32U0xx_HAL_Driver/Inc/stm32u0xx_ll_adc.h ****   */
 472:Drivers/STM32U0xx_HAL_Driver/Inc/stm32u0xx_ll_adc.h **** #define LL_ADC_FLAG_ADRDY                  ADC_ISR_ADRDY      /*!< ADC flag ADC instance ready */
 473:Drivers/STM32U0xx_HAL_Driver/Inc/stm32u0xx_ll_adc.h **** #define LL_ADC_FLAG_CCRDY                  ADC_ISR_CCRDY      /*!< ADC flag ADC channel configurati
 474:Drivers/STM32U0xx_HAL_Driver/Inc/stm32u0xx_ll_adc.h **** #define LL_ADC_FLAG_EOC                    ADC_ISR_EOC        /*!< ADC flag ADC group regular end o
 475:Drivers/STM32U0xx_HAL_Driver/Inc/stm32u0xx_ll_adc.h ****                                            conversion */
 476:Drivers/STM32U0xx_HAL_Driver/Inc/stm32u0xx_ll_adc.h **** #define LL_ADC_FLAG_EOS                    ADC_ISR_EOS        /*!< ADC flag ADC group regular end o
ARM GAS  C:\Users\upo\AppData\Local\Temp\ccZrPTgE.s 			page 13


 477:Drivers/STM32U0xx_HAL_Driver/Inc/stm32u0xx_ll_adc.h ****                                            conversions */
 478:Drivers/STM32U0xx_HAL_Driver/Inc/stm32u0xx_ll_adc.h **** #define LL_ADC_FLAG_OVR                    ADC_ISR_OVR        /*!< ADC flag ADC group regular overr
 479:Drivers/STM32U0xx_HAL_Driver/Inc/stm32u0xx_ll_adc.h **** #define LL_ADC_FLAG_EOSMP                  ADC_ISR_EOSMP      /*!< ADC flag ADC group regular end o
 480:Drivers/STM32U0xx_HAL_Driver/Inc/stm32u0xx_ll_adc.h **** #define LL_ADC_FLAG_AWD1                   ADC_ISR_AWD1       /*!< ADC flag ADC analog watchdog 1 *
 481:Drivers/STM32U0xx_HAL_Driver/Inc/stm32u0xx_ll_adc.h **** #define LL_ADC_FLAG_AWD2                   ADC_ISR_AWD2       /*!< ADC flag ADC analog watchdog 2 *
 482:Drivers/STM32U0xx_HAL_Driver/Inc/stm32u0xx_ll_adc.h **** #define LL_ADC_FLAG_AWD3                   ADC_ISR_AWD3       /*!< ADC flag ADC analog watchdog 3 *
 483:Drivers/STM32U0xx_HAL_Driver/Inc/stm32u0xx_ll_adc.h **** #define LL_ADC_FLAG_EOCAL                  ADC_ISR_EOCAL      /*!< ADC flag end of calibration */
 484:Drivers/STM32U0xx_HAL_Driver/Inc/stm32u0xx_ll_adc.h **** /**
 485:Drivers/STM32U0xx_HAL_Driver/Inc/stm32u0xx_ll_adc.h ****   * @}
 486:Drivers/STM32U0xx_HAL_Driver/Inc/stm32u0xx_ll_adc.h ****   */
 487:Drivers/STM32U0xx_HAL_Driver/Inc/stm32u0xx_ll_adc.h **** 
 488:Drivers/STM32U0xx_HAL_Driver/Inc/stm32u0xx_ll_adc.h **** /** @defgroup ADC_LL_EC_IT ADC interruptions for configuration (interruption enable or disable)
 489:Drivers/STM32U0xx_HAL_Driver/Inc/stm32u0xx_ll_adc.h ****   * @brief    IT defines which can be used with LL_ADC_ReadReg and  LL_ADC_WriteReg functions
 490:Drivers/STM32U0xx_HAL_Driver/Inc/stm32u0xx_ll_adc.h ****   * @{
 491:Drivers/STM32U0xx_HAL_Driver/Inc/stm32u0xx_ll_adc.h ****   */
 492:Drivers/STM32U0xx_HAL_Driver/Inc/stm32u0xx_ll_adc.h **** #define LL_ADC_IT_ADRDY                    ADC_IER_ADRDYIE    /*!< ADC interruption ADC instance re
 493:Drivers/STM32U0xx_HAL_Driver/Inc/stm32u0xx_ll_adc.h **** #define LL_ADC_IT_CCRDY                    ADC_IER_CCRDYIE    /*!< ADC interruption channel configu
 494:Drivers/STM32U0xx_HAL_Driver/Inc/stm32u0xx_ll_adc.h **** #define LL_ADC_IT_EOC                      ADC_IER_EOCIE      /*!< ADC interruption ADC group regul
 495:Drivers/STM32U0xx_HAL_Driver/Inc/stm32u0xx_ll_adc.h ****                                                                    conversion */
 496:Drivers/STM32U0xx_HAL_Driver/Inc/stm32u0xx_ll_adc.h **** #define LL_ADC_IT_EOS                      ADC_IER_EOSIE      /*!< ADC interruption ADC group regul
 497:Drivers/STM32U0xx_HAL_Driver/Inc/stm32u0xx_ll_adc.h ****                                                                    conversions */
 498:Drivers/STM32U0xx_HAL_Driver/Inc/stm32u0xx_ll_adc.h **** #define LL_ADC_IT_OVR                      ADC_IER_OVRIE      /*!< ADC interruption ADC group regul
 499:Drivers/STM32U0xx_HAL_Driver/Inc/stm32u0xx_ll_adc.h **** #define LL_ADC_IT_EOSMP                    ADC_IER_EOSMPIE    /*!< ADC interruption ADC group regul
 500:Drivers/STM32U0xx_HAL_Driver/Inc/stm32u0xx_ll_adc.h ****                                                                    phase */
 501:Drivers/STM32U0xx_HAL_Driver/Inc/stm32u0xx_ll_adc.h **** #define LL_ADC_IT_AWD1                     ADC_IER_AWD1IE     /*!< ADC interruption ADC analog watc
 502:Drivers/STM32U0xx_HAL_Driver/Inc/stm32u0xx_ll_adc.h **** #define LL_ADC_IT_AWD2                     ADC_IER_AWD2IE     /*!< ADC interruption ADC analog watc
 503:Drivers/STM32U0xx_HAL_Driver/Inc/stm32u0xx_ll_adc.h **** #define LL_ADC_IT_AWD3                     ADC_IER_AWD3IE     /*!< ADC interruption ADC analog watc
 504:Drivers/STM32U0xx_HAL_Driver/Inc/stm32u0xx_ll_adc.h **** #define LL_ADC_IT_EOCAL                    ADC_IER_EOCALIE    /*!< ADC interruption ADC end of cali
 505:Drivers/STM32U0xx_HAL_Driver/Inc/stm32u0xx_ll_adc.h **** /**
 506:Drivers/STM32U0xx_HAL_Driver/Inc/stm32u0xx_ll_adc.h ****   * @}
 507:Drivers/STM32U0xx_HAL_Driver/Inc/stm32u0xx_ll_adc.h ****   */
 508:Drivers/STM32U0xx_HAL_Driver/Inc/stm32u0xx_ll_adc.h **** 
 509:Drivers/STM32U0xx_HAL_Driver/Inc/stm32u0xx_ll_adc.h **** /** @defgroup ADC_LL_EC_REGISTERS  ADC registers compliant with specific purpose
 510:Drivers/STM32U0xx_HAL_Driver/Inc/stm32u0xx_ll_adc.h ****   * @{
 511:Drivers/STM32U0xx_HAL_Driver/Inc/stm32u0xx_ll_adc.h ****   */
 512:Drivers/STM32U0xx_HAL_Driver/Inc/stm32u0xx_ll_adc.h **** /* List of ADC registers intended to be used (most commonly) with             */
 513:Drivers/STM32U0xx_HAL_Driver/Inc/stm32u0xx_ll_adc.h **** /* DMA transfer.                                                              */
 514:Drivers/STM32U0xx_HAL_Driver/Inc/stm32u0xx_ll_adc.h **** /* Refer to function @ref LL_ADC_DMA_GetRegAddr().                            */
 515:Drivers/STM32U0xx_HAL_Driver/Inc/stm32u0xx_ll_adc.h **** #define LL_ADC_DMA_REG_REGULAR_DATA        (0x00000000UL)      /* ADC group regular conversion data
 516:Drivers/STM32U0xx_HAL_Driver/Inc/stm32u0xx_ll_adc.h ****                                            (corresponding to register DR) to be used with ADC confi
 517:Drivers/STM32U0xx_HAL_Driver/Inc/stm32u0xx_ll_adc.h ****                                            mode. Without DMA transfer, register accessed by LL func
 518:Drivers/STM32U0xx_HAL_Driver/Inc/stm32u0xx_ll_adc.h ****                                            @ref LL_ADC_REG_ReadConversionData32() and other
 519:Drivers/STM32U0xx_HAL_Driver/Inc/stm32u0xx_ll_adc.h ****                                            functions @ref LL_ADC_REG_ReadConversionDatax() */
 520:Drivers/STM32U0xx_HAL_Driver/Inc/stm32u0xx_ll_adc.h **** /**
 521:Drivers/STM32U0xx_HAL_Driver/Inc/stm32u0xx_ll_adc.h ****   * @}
 522:Drivers/STM32U0xx_HAL_Driver/Inc/stm32u0xx_ll_adc.h ****   */
 523:Drivers/STM32U0xx_HAL_Driver/Inc/stm32u0xx_ll_adc.h **** 
 524:Drivers/STM32U0xx_HAL_Driver/Inc/stm32u0xx_ll_adc.h **** /** @defgroup ADC_LL_EC_COMMON_CLOCK_SOURCE  ADC common - Clock source
 525:Drivers/STM32U0xx_HAL_Driver/Inc/stm32u0xx_ll_adc.h ****   * @{
 526:Drivers/STM32U0xx_HAL_Driver/Inc/stm32u0xx_ll_adc.h ****   */
 527:Drivers/STM32U0xx_HAL_Driver/Inc/stm32u0xx_ll_adc.h **** #define LL_ADC_CLOCK_ASYNC_DIV1            (0x00000000UL)                      /*!< ADC asynchronou
 528:Drivers/STM32U0xx_HAL_Driver/Inc/stm32u0xx_ll_adc.h ****                                            prescaler */
 529:Drivers/STM32U0xx_HAL_Driver/Inc/stm32u0xx_ll_adc.h **** #define LL_ADC_CLOCK_ASYNC_DIV2            (ADC_CCR_PRESC_0)                   /*!< ADC asynchronou
 530:Drivers/STM32U0xx_HAL_Driver/Inc/stm32u0xx_ll_adc.h ****                                            prescaler division by 2. Setting common to ADC instances
 531:Drivers/STM32U0xx_HAL_Driver/Inc/stm32u0xx_ll_adc.h ****                                            group, applied ADC instance wise to each instance clock 
 532:Drivers/STM32U0xx_HAL_Driver/Inc/stm32u0xx_ll_adc.h ****                                            asynchronous (refer to function @ref LL_ADC_SetClock() )
 533:Drivers/STM32U0xx_HAL_Driver/Inc/stm32u0xx_ll_adc.h **** #define LL_ADC_CLOCK_ASYNC_DIV4            (ADC_CCR_PRESC_1)                   /*!< ADC asynchronou
ARM GAS  C:\Users\upo\AppData\Local\Temp\ccZrPTgE.s 			page 14


 534:Drivers/STM32U0xx_HAL_Driver/Inc/stm32u0xx_ll_adc.h ****                                            prescaler division by 4. Setting common to ADC instances
 535:Drivers/STM32U0xx_HAL_Driver/Inc/stm32u0xx_ll_adc.h ****                                            group, applied ADC instance wise to each  instance clock
 536:Drivers/STM32U0xx_HAL_Driver/Inc/stm32u0xx_ll_adc.h ****                                            asynchronous (refer to function @ref LL_ADC_SetClock() )
 537:Drivers/STM32U0xx_HAL_Driver/Inc/stm32u0xx_ll_adc.h **** #define LL_ADC_CLOCK_ASYNC_DIV6            (ADC_CCR_PRESC_1 | ADC_CCR_PRESC_0) /*!< ADC asynchronou
 538:Drivers/STM32U0xx_HAL_Driver/Inc/stm32u0xx_ll_adc.h ****                                            prescaler division by 6. Setting common to ADC instances
 539:Drivers/STM32U0xx_HAL_Driver/Inc/stm32u0xx_ll_adc.h ****                                            group, applied ADC instance wise to each instance clock 
 540:Drivers/STM32U0xx_HAL_Driver/Inc/stm32u0xx_ll_adc.h ****                                            asynchronous (refer to function @ref LL_ADC_SetClock() )
 541:Drivers/STM32U0xx_HAL_Driver/Inc/stm32u0xx_ll_adc.h **** #define LL_ADC_CLOCK_ASYNC_DIV8            (ADC_CCR_PRESC_2)                   /*!< ADC asynchronou
 542:Drivers/STM32U0xx_HAL_Driver/Inc/stm32u0xx_ll_adc.h ****                                            prescaler division by 8. Setting common to ADC instances
 543:Drivers/STM32U0xx_HAL_Driver/Inc/stm32u0xx_ll_adc.h ****                                            group, applied ADC instance wise to each instance clock 
 544:Drivers/STM32U0xx_HAL_Driver/Inc/stm32u0xx_ll_adc.h ****                                            asynchronous (refer to function @ref LL_ADC_SetClock() )
 545:Drivers/STM32U0xx_HAL_Driver/Inc/stm32u0xx_ll_adc.h **** #define LL_ADC_CLOCK_ASYNC_DIV10           (ADC_CCR_PRESC_2 | ADC_CCR_PRESC_0) /*!< ADC asynchronou
 546:Drivers/STM32U0xx_HAL_Driver/Inc/stm32u0xx_ll_adc.h ****                                            prescaler division by 10. Setting common to ADC instance
 547:Drivers/STM32U0xx_HAL_Driver/Inc/stm32u0xx_ll_adc.h ****                                            group, applied ADC instance wise to each instance clock 
 548:Drivers/STM32U0xx_HAL_Driver/Inc/stm32u0xx_ll_adc.h ****                                            asynchronous (refer to function @ref LL_ADC_SetClock() )
 549:Drivers/STM32U0xx_HAL_Driver/Inc/stm32u0xx_ll_adc.h **** #define LL_ADC_CLOCK_ASYNC_DIV12           (ADC_CCR_PRESC_2 | ADC_CCR_PRESC_1) /*!< ADC asynchronou
 550:Drivers/STM32U0xx_HAL_Driver/Inc/stm32u0xx_ll_adc.h ****                                            prescaler division by 12. Setting common to ADC instance
 551:Drivers/STM32U0xx_HAL_Driver/Inc/stm32u0xx_ll_adc.h ****                                            group, applied ADC instance wise to each instance clock 
 552:Drivers/STM32U0xx_HAL_Driver/Inc/stm32u0xx_ll_adc.h ****                                            asynchronous (refer to function @ref LL_ADC_SetClock() )
 553:Drivers/STM32U0xx_HAL_Driver/Inc/stm32u0xx_ll_adc.h **** #define LL_ADC_CLOCK_ASYNC_DIV16           (ADC_CCR_PRESC_2 | ADC_CCR_PRESC_1 \
 554:Drivers/STM32U0xx_HAL_Driver/Inc/stm32u0xx_ll_adc.h ****                                             | ADC_CCR_PRESC_0)                  /*!< ADC asynchrono
 555:Drivers/STM32U0xx_HAL_Driver/Inc/stm32u0xx_ll_adc.h ****                                            prescaler division by 16. Setting common to ADC instance
 556:Drivers/STM32U0xx_HAL_Driver/Inc/stm32u0xx_ll_adc.h ****                                            group, applied ADC instance wise to each instance clock 
 557:Drivers/STM32U0xx_HAL_Driver/Inc/stm32u0xx_ll_adc.h ****                                            asynchronous (refer to function @ref LL_ADC_SetClock() )
 558:Drivers/STM32U0xx_HAL_Driver/Inc/stm32u0xx_ll_adc.h **** #define LL_ADC_CLOCK_ASYNC_DIV32           (ADC_CCR_PRESC_3)                   /*!< ADC asynchronou
 559:Drivers/STM32U0xx_HAL_Driver/Inc/stm32u0xx_ll_adc.h ****                                            prescaler division by 32. Setting common to ADC instance
 560:Drivers/STM32U0xx_HAL_Driver/Inc/stm32u0xx_ll_adc.h ****                                            group, applied ADC instance wise to each instance clock 
 561:Drivers/STM32U0xx_HAL_Driver/Inc/stm32u0xx_ll_adc.h ****                                            asynchronous (refer to function @ref LL_ADC_SetClock() )
 562:Drivers/STM32U0xx_HAL_Driver/Inc/stm32u0xx_ll_adc.h **** #define LL_ADC_CLOCK_ASYNC_DIV64           (ADC_CCR_PRESC_3 | ADC_CCR_PRESC_0) /*!< ADC asynchronou
 563:Drivers/STM32U0xx_HAL_Driver/Inc/stm32u0xx_ll_adc.h ****                                            prescaler division by 64. Setting common to ADC instance
 564:Drivers/STM32U0xx_HAL_Driver/Inc/stm32u0xx_ll_adc.h ****                                            group, applied ADC instance wise to each instance clock 
 565:Drivers/STM32U0xx_HAL_Driver/Inc/stm32u0xx_ll_adc.h ****                                            asynchronous (refer to function @ref LL_ADC_SetClock() )
 566:Drivers/STM32U0xx_HAL_Driver/Inc/stm32u0xx_ll_adc.h **** #define LL_ADC_CLOCK_ASYNC_DIV128          (ADC_CCR_PRESC_3 | ADC_CCR_PRESC_1) /*!< ADC asynchronou
 567:Drivers/STM32U0xx_HAL_Driver/Inc/stm32u0xx_ll_adc.h ****                                            prescaler division by 128. Setting common to ADC instanc
 568:Drivers/STM32U0xx_HAL_Driver/Inc/stm32u0xx_ll_adc.h ****                                            group, applied ADC instance wise to each instance clock 
 569:Drivers/STM32U0xx_HAL_Driver/Inc/stm32u0xx_ll_adc.h ****                                            asynchronous (refer to function @ref LL_ADC_SetClock() )
 570:Drivers/STM32U0xx_HAL_Driver/Inc/stm32u0xx_ll_adc.h **** #define LL_ADC_CLOCK_ASYNC_DIV256          (ADC_CCR_PRESC_3 | ADC_CCR_PRESC_1 \
 571:Drivers/STM32U0xx_HAL_Driver/Inc/stm32u0xx_ll_adc.h ****                                             | ADC_CCR_PRESC_0)                  /*!< ADC asynchrono
 572:Drivers/STM32U0xx_HAL_Driver/Inc/stm32u0xx_ll_adc.h ****                                            prescaler division by 256. Setting common to ADC instanc
 573:Drivers/STM32U0xx_HAL_Driver/Inc/stm32u0xx_ll_adc.h ****                                            group, applied ADC instance wise to each instance clock 
 574:Drivers/STM32U0xx_HAL_Driver/Inc/stm32u0xx_ll_adc.h ****                                            asynchronous (refer to function @ref LL_ADC_SetClock() )
 575:Drivers/STM32U0xx_HAL_Driver/Inc/stm32u0xx_ll_adc.h **** /**
 576:Drivers/STM32U0xx_HAL_Driver/Inc/stm32u0xx_ll_adc.h ****   * @}
 577:Drivers/STM32U0xx_HAL_Driver/Inc/stm32u0xx_ll_adc.h ****   */
 578:Drivers/STM32U0xx_HAL_Driver/Inc/stm32u0xx_ll_adc.h **** 
 579:Drivers/STM32U0xx_HAL_Driver/Inc/stm32u0xx_ll_adc.h **** /** @defgroup ADC_LL_EC_COMMON_PATH_INTERNAL  ADC common - Measurement path to internal channels
 580:Drivers/STM32U0xx_HAL_Driver/Inc/stm32u0xx_ll_adc.h ****   * @{
 581:Drivers/STM32U0xx_HAL_Driver/Inc/stm32u0xx_ll_adc.h ****   */
 582:Drivers/STM32U0xx_HAL_Driver/Inc/stm32u0xx_ll_adc.h **** /* Note: Other measurement paths to internal channels may be available        */
 583:Drivers/STM32U0xx_HAL_Driver/Inc/stm32u0xx_ll_adc.h **** /*       (connections to other peripherals).                                  */
 584:Drivers/STM32U0xx_HAL_Driver/Inc/stm32u0xx_ll_adc.h **** /*       If they are not listed below, they do not require any specific       */
 585:Drivers/STM32U0xx_HAL_Driver/Inc/stm32u0xx_ll_adc.h **** /*       path enable. In this case, Access to measurement path is done        */
 586:Drivers/STM32U0xx_HAL_Driver/Inc/stm32u0xx_ll_adc.h **** /*       only by selecting the corresponding ADC internal channel.            */
 587:Drivers/STM32U0xx_HAL_Driver/Inc/stm32u0xx_ll_adc.h **** #define LL_ADC_PATH_INTERNAL_NONE          (0x00000000UL)       /*!< ADC measurement paths all disa
 588:Drivers/STM32U0xx_HAL_Driver/Inc/stm32u0xx_ll_adc.h **** #define LL_ADC_PATH_INTERNAL_VREFINT       (ADC_CCR_VREFEN)     /*!< ADC measurement path to intern
 589:Drivers/STM32U0xx_HAL_Driver/Inc/stm32u0xx_ll_adc.h **** #define LL_ADC_PATH_INTERNAL_TEMPSENSOR    (ADC_CCR_TSEN)       /*!< ADC measurement path to intern
 590:Drivers/STM32U0xx_HAL_Driver/Inc/stm32u0xx_ll_adc.h ****                                                                      temperature sensor */
ARM GAS  C:\Users\upo\AppData\Local\Temp\ccZrPTgE.s 			page 15


 591:Drivers/STM32U0xx_HAL_Driver/Inc/stm32u0xx_ll_adc.h **** #define LL_ADC_PATH_INTERNAL_VBAT          (ADC_CCR_VBATEN)     /*!< ADC measurement path to intern
 592:Drivers/STM32U0xx_HAL_Driver/Inc/stm32u0xx_ll_adc.h **** /**
 593:Drivers/STM32U0xx_HAL_Driver/Inc/stm32u0xx_ll_adc.h ****   * @}
 594:Drivers/STM32U0xx_HAL_Driver/Inc/stm32u0xx_ll_adc.h ****   */
 595:Drivers/STM32U0xx_HAL_Driver/Inc/stm32u0xx_ll_adc.h **** 
 596:Drivers/STM32U0xx_HAL_Driver/Inc/stm32u0xx_ll_adc.h **** /** @defgroup ADC_LL_EC_CLOCK_SOURCE  ADC instance - Clock source
 597:Drivers/STM32U0xx_HAL_Driver/Inc/stm32u0xx_ll_adc.h ****   * @{
 598:Drivers/STM32U0xx_HAL_Driver/Inc/stm32u0xx_ll_adc.h ****   */
 599:Drivers/STM32U0xx_HAL_Driver/Inc/stm32u0xx_ll_adc.h **** #define LL_ADC_CLOCK_SYNC_PCLK_DIV4        (ADC_CFGR2_CKMODE_1) /*!< ADC synchronous clock derived 
 600:Drivers/STM32U0xx_HAL_Driver/Inc/stm32u0xx_ll_adc.h ****                                            divided by 4 */
 601:Drivers/STM32U0xx_HAL_Driver/Inc/stm32u0xx_ll_adc.h **** #define LL_ADC_CLOCK_SYNC_PCLK_DIV2        (ADC_CFGR2_CKMODE_0) /*!< ADC synchronous clock derived 
 602:Drivers/STM32U0xx_HAL_Driver/Inc/stm32u0xx_ll_adc.h ****                                            divided by 2 */
 603:Drivers/STM32U0xx_HAL_Driver/Inc/stm32u0xx_ll_adc.h **** #define LL_ADC_CLOCK_SYNC_PCLK_DIV1        (ADC_CFGR2_CKMODE_1 \
 604:Drivers/STM32U0xx_HAL_Driver/Inc/stm32u0xx_ll_adc.h ****                                             | ADC_CFGR2_CKMODE_0) /*!< ADC synchronous clock derive
 605:Drivers/STM32U0xx_HAL_Driver/Inc/stm32u0xx_ll_adc.h ****                                            not divided */
 606:Drivers/STM32U0xx_HAL_Driver/Inc/stm32u0xx_ll_adc.h **** #define LL_ADC_CLOCK_ASYNC                 (0x00000000UL)       /*!< ADC asynchronous clock. Asynch
 607:Drivers/STM32U0xx_HAL_Driver/Inc/stm32u0xx_ll_adc.h ****                                            prescaler can be configured using function @ref LL_ADC_S
 608:Drivers/STM32U0xx_HAL_Driver/Inc/stm32u0xx_ll_adc.h **** /**
 609:Drivers/STM32U0xx_HAL_Driver/Inc/stm32u0xx_ll_adc.h ****   * @}
 610:Drivers/STM32U0xx_HAL_Driver/Inc/stm32u0xx_ll_adc.h ****   */
 611:Drivers/STM32U0xx_HAL_Driver/Inc/stm32u0xx_ll_adc.h **** 
 612:Drivers/STM32U0xx_HAL_Driver/Inc/stm32u0xx_ll_adc.h **** /** @defgroup ADC_LL_EC_RESOLUTION  ADC instance - Resolution
 613:Drivers/STM32U0xx_HAL_Driver/Inc/stm32u0xx_ll_adc.h ****   * @{
 614:Drivers/STM32U0xx_HAL_Driver/Inc/stm32u0xx_ll_adc.h ****   */
 615:Drivers/STM32U0xx_HAL_Driver/Inc/stm32u0xx_ll_adc.h **** #define LL_ADC_RESOLUTION_12B              (0x00000000UL)                      /*!< ADC resolution 
 616:Drivers/STM32U0xx_HAL_Driver/Inc/stm32u0xx_ll_adc.h **** #define LL_ADC_RESOLUTION_10B              (                  ADC_CFGR1_RES_0) /*!< ADC resolution 
 617:Drivers/STM32U0xx_HAL_Driver/Inc/stm32u0xx_ll_adc.h **** #define LL_ADC_RESOLUTION_8B               (ADC_CFGR1_RES_1                  ) /*!< ADC resolution 
 618:Drivers/STM32U0xx_HAL_Driver/Inc/stm32u0xx_ll_adc.h **** #define LL_ADC_RESOLUTION_6B               (ADC_CFGR1_RES_1 | ADC_CFGR1_RES_0) /*!< ADC resolution 
 619:Drivers/STM32U0xx_HAL_Driver/Inc/stm32u0xx_ll_adc.h **** /**
 620:Drivers/STM32U0xx_HAL_Driver/Inc/stm32u0xx_ll_adc.h ****   * @}
 621:Drivers/STM32U0xx_HAL_Driver/Inc/stm32u0xx_ll_adc.h ****   */
 622:Drivers/STM32U0xx_HAL_Driver/Inc/stm32u0xx_ll_adc.h **** 
 623:Drivers/STM32U0xx_HAL_Driver/Inc/stm32u0xx_ll_adc.h **** /** @defgroup ADC_LL_EC_DATA_ALIGN  ADC instance - Data alignment
 624:Drivers/STM32U0xx_HAL_Driver/Inc/stm32u0xx_ll_adc.h ****   * @{
 625:Drivers/STM32U0xx_HAL_Driver/Inc/stm32u0xx_ll_adc.h ****   */
 626:Drivers/STM32U0xx_HAL_Driver/Inc/stm32u0xx_ll_adc.h **** #define LL_ADC_DATA_ALIGN_RIGHT            (0x00000000UL)     /*!< ADC conversion data alignment: r
 627:Drivers/STM32U0xx_HAL_Driver/Inc/stm32u0xx_ll_adc.h ****                                            (alignment on data register LSB bit 0)*/
 628:Drivers/STM32U0xx_HAL_Driver/Inc/stm32u0xx_ll_adc.h **** #define LL_ADC_DATA_ALIGN_LEFT             (ADC_CFGR1_ALIGN)  /*!< ADC conversion data alignment: l
 629:Drivers/STM32U0xx_HAL_Driver/Inc/stm32u0xx_ll_adc.h ****                                            (alignment on data register MSB bit 15)*/
 630:Drivers/STM32U0xx_HAL_Driver/Inc/stm32u0xx_ll_adc.h **** /**
 631:Drivers/STM32U0xx_HAL_Driver/Inc/stm32u0xx_ll_adc.h ****   * @}
 632:Drivers/STM32U0xx_HAL_Driver/Inc/stm32u0xx_ll_adc.h ****   */
 633:Drivers/STM32U0xx_HAL_Driver/Inc/stm32u0xx_ll_adc.h **** 
 634:Drivers/STM32U0xx_HAL_Driver/Inc/stm32u0xx_ll_adc.h **** /** @defgroup ADC_LL_EC_LP_MODE  ADC instance - Low power mode
 635:Drivers/STM32U0xx_HAL_Driver/Inc/stm32u0xx_ll_adc.h ****   * @{
 636:Drivers/STM32U0xx_HAL_Driver/Inc/stm32u0xx_ll_adc.h ****   */
 637:Drivers/STM32U0xx_HAL_Driver/Inc/stm32u0xx_ll_adc.h **** #define LL_ADC_LP_MODE_NONE                (0x00000000UL)     /*!< No ADC low power mode activated 
 638:Drivers/STM32U0xx_HAL_Driver/Inc/stm32u0xx_ll_adc.h **** #define LL_ADC_LP_AUTOWAIT                 (ADC_CFGR1_WAIT)   /*!< ADC low power mode auto delay: D
 639:Drivers/STM32U0xx_HAL_Driver/Inc/stm32u0xx_ll_adc.h ****                                            mode, ADC conversions are performed only when necessary
 640:Drivers/STM32U0xx_HAL_Driver/Inc/stm32u0xx_ll_adc.h ****                                            (when previous ADC conversion data is read).
 641:Drivers/STM32U0xx_HAL_Driver/Inc/stm32u0xx_ll_adc.h ****                                            See description with function @ref LL_ADC_SetLowPowerMod
 642:Drivers/STM32U0xx_HAL_Driver/Inc/stm32u0xx_ll_adc.h **** #define LL_ADC_LP_AUTOPOWEROFF             (ADC_CFGR1_AUTOFF) /*!< ADC low power mode auto power-of
 643:Drivers/STM32U0xx_HAL_Driver/Inc/stm32u0xx_ll_adc.h ****                                            automatically powers-off after a ADC conversion and auto
 644:Drivers/STM32U0xx_HAL_Driver/Inc/stm32u0xx_ll_adc.h ****                                            when a new ADC conversion is triggered (with startup tim
 645:Drivers/STM32U0xx_HAL_Driver/Inc/stm32u0xx_ll_adc.h ****                                            and start of sampling). See description with function
 646:Drivers/STM32U0xx_HAL_Driver/Inc/stm32u0xx_ll_adc.h ****                                            @ref LL_ADC_SetLowPowerMode(). */
 647:Drivers/STM32U0xx_HAL_Driver/Inc/stm32u0xx_ll_adc.h **** #define LL_ADC_LP_AUTOWAIT_AUTOPOWEROFF    (ADC_CFGR1_WAIT | ADC_CFGR1_AUTOFF) /*!< ADC low power m
ARM GAS  C:\Users\upo\AppData\Local\Temp\ccZrPTgE.s 			page 16


 648:Drivers/STM32U0xx_HAL_Driver/Inc/stm32u0xx_ll_adc.h **** and auto power-off combined. See description with function @ref LL_ADC_SetLowPowerMode(). */
 649:Drivers/STM32U0xx_HAL_Driver/Inc/stm32u0xx_ll_adc.h **** /**
 650:Drivers/STM32U0xx_HAL_Driver/Inc/stm32u0xx_ll_adc.h ****   * @}
 651:Drivers/STM32U0xx_HAL_Driver/Inc/stm32u0xx_ll_adc.h ****   */
 652:Drivers/STM32U0xx_HAL_Driver/Inc/stm32u0xx_ll_adc.h **** 
 653:Drivers/STM32U0xx_HAL_Driver/Inc/stm32u0xx_ll_adc.h **** /** @defgroup ADC_LL_EC_REG_TRIGGER_FREQ  ADC group regular - Trigger frequency mode
 654:Drivers/STM32U0xx_HAL_Driver/Inc/stm32u0xx_ll_adc.h ****   * @{
 655:Drivers/STM32U0xx_HAL_Driver/Inc/stm32u0xx_ll_adc.h ****   */
 656:Drivers/STM32U0xx_HAL_Driver/Inc/stm32u0xx_ll_adc.h **** #define LL_ADC_TRIGGER_FREQ_HIGH           (0x00000000UL)     /*!< ADC trigger frequency mode set t
 657:Drivers/STM32U0xx_HAL_Driver/Inc/stm32u0xx_ll_adc.h ****                                            Note: ADC trigger frequency mode must be set to low freq
 658:Drivers/STM32U0xx_HAL_Driver/Inc/stm32u0xx_ll_adc.h ****                                            is exceeded before ADC conversion start trigger event (b
 659:Drivers/STM32U0xx_HAL_Driver/Inc/stm32u0xx_ll_adc.h ****                                            and ADC conversion start trigger event or between two AD
 660:Drivers/STM32U0xx_HAL_Driver/Inc/stm32u0xx_ll_adc.h ****                                            trigger event).
 661:Drivers/STM32U0xx_HAL_Driver/Inc/stm32u0xx_ll_adc.h ****                                            Duration value: Refer to device datasheet, parameter "tI
 662:Drivers/STM32U0xx_HAL_Driver/Inc/stm32u0xx_ll_adc.h **** #define LL_ADC_TRIGGER_FREQ_LOW            (ADC_CFGR2_LFTRIG) /*!< ADC trigger frequency mode set t
 663:Drivers/STM32U0xx_HAL_Driver/Inc/stm32u0xx_ll_adc.h ****                                            Note: ADC trigger frequency mode must be set to low freq
 664:Drivers/STM32U0xx_HAL_Driver/Inc/stm32u0xx_ll_adc.h ****                                            is exceeded before ADC conversion start trigger event (b
 665:Drivers/STM32U0xx_HAL_Driver/Inc/stm32u0xx_ll_adc.h ****                                            and ADC conversion start trigger event or between two AD
 666:Drivers/STM32U0xx_HAL_Driver/Inc/stm32u0xx_ll_adc.h ****                                            trigger event).
 667:Drivers/STM32U0xx_HAL_Driver/Inc/stm32u0xx_ll_adc.h ****                                            Duration value: Refer to device datasheet, parameter "tI
 668:Drivers/STM32U0xx_HAL_Driver/Inc/stm32u0xx_ll_adc.h **** /**
 669:Drivers/STM32U0xx_HAL_Driver/Inc/stm32u0xx_ll_adc.h ****   * @}
 670:Drivers/STM32U0xx_HAL_Driver/Inc/stm32u0xx_ll_adc.h ****   */
 671:Drivers/STM32U0xx_HAL_Driver/Inc/stm32u0xx_ll_adc.h **** 
 672:Drivers/STM32U0xx_HAL_Driver/Inc/stm32u0xx_ll_adc.h **** /** @defgroup ADC_LL_EC_SAMPLINGTIME_COMMON  ADC instance - Sampling time common to a group of chan
 673:Drivers/STM32U0xx_HAL_Driver/Inc/stm32u0xx_ll_adc.h ****   * @{
 674:Drivers/STM32U0xx_HAL_Driver/Inc/stm32u0xx_ll_adc.h ****   */
 675:Drivers/STM32U0xx_HAL_Driver/Inc/stm32u0xx_ll_adc.h **** #define LL_ADC_SAMPLINGTIME_COMMON_1       (ADC_SMPR_SMP1_BITOFFSET_POS) /*!< Set sampling time com
 676:Drivers/STM32U0xx_HAL_Driver/Inc/stm32u0xx_ll_adc.h ****                                            of channels: sampling time nb 1 */
 677:Drivers/STM32U0xx_HAL_Driver/Inc/stm32u0xx_ll_adc.h **** #define LL_ADC_SAMPLINGTIME_COMMON_2       (ADC_SMPR_SMP2_BITOFFSET_POS \
 678:Drivers/STM32U0xx_HAL_Driver/Inc/stm32u0xx_ll_adc.h ****                                             | ADC_SAMPLING_TIME_CH_MASK)  /*!< Set sampling time co
 679:Drivers/STM32U0xx_HAL_Driver/Inc/stm32u0xx_ll_adc.h ****                                            of channels: sampling time nb 2 */
 680:Drivers/STM32U0xx_HAL_Driver/Inc/stm32u0xx_ll_adc.h **** /**
 681:Drivers/STM32U0xx_HAL_Driver/Inc/stm32u0xx_ll_adc.h ****   * @}
 682:Drivers/STM32U0xx_HAL_Driver/Inc/stm32u0xx_ll_adc.h ****   */
 683:Drivers/STM32U0xx_HAL_Driver/Inc/stm32u0xx_ll_adc.h **** 
 684:Drivers/STM32U0xx_HAL_Driver/Inc/stm32u0xx_ll_adc.h **** /** @defgroup ADC_LL_EC_GROUPS  ADC instance - Groups
 685:Drivers/STM32U0xx_HAL_Driver/Inc/stm32u0xx_ll_adc.h ****   * @{
 686:Drivers/STM32U0xx_HAL_Driver/Inc/stm32u0xx_ll_adc.h ****   */
 687:Drivers/STM32U0xx_HAL_Driver/Inc/stm32u0xx_ll_adc.h **** #define LL_ADC_GROUP_REGULAR               (0x00000001UL)     /*!< ADC group regular (available on 
 688:Drivers/STM32U0xx_HAL_Driver/Inc/stm32u0xx_ll_adc.h **** /**
 689:Drivers/STM32U0xx_HAL_Driver/Inc/stm32u0xx_ll_adc.h ****   * @}
 690:Drivers/STM32U0xx_HAL_Driver/Inc/stm32u0xx_ll_adc.h ****   */
 691:Drivers/STM32U0xx_HAL_Driver/Inc/stm32u0xx_ll_adc.h **** 
 692:Drivers/STM32U0xx_HAL_Driver/Inc/stm32u0xx_ll_adc.h **** /** @defgroup ADC_LL_EC_CHANNEL  ADC instance - Channel number
 693:Drivers/STM32U0xx_HAL_Driver/Inc/stm32u0xx_ll_adc.h ****   * @{
 694:Drivers/STM32U0xx_HAL_Driver/Inc/stm32u0xx_ll_adc.h ****   */
 695:Drivers/STM32U0xx_HAL_Driver/Inc/stm32u0xx_ll_adc.h **** #define LL_ADC_CHANNEL_0                   (ADC_CHANNEL_0_NUMBER \
 696:Drivers/STM32U0xx_HAL_Driver/Inc/stm32u0xx_ll_adc.h ****                                             | ADC_CHANNEL_0_BITFIELD ) /*!< ADC channel ADCx_IN0  *
 697:Drivers/STM32U0xx_HAL_Driver/Inc/stm32u0xx_ll_adc.h **** #define LL_ADC_CHANNEL_1                   (ADC_CHANNEL_1_NUMBER \
 698:Drivers/STM32U0xx_HAL_Driver/Inc/stm32u0xx_ll_adc.h ****                                             | ADC_CHANNEL_1_BITFIELD ) /*!< ADC channel ADCx_IN1  *
 699:Drivers/STM32U0xx_HAL_Driver/Inc/stm32u0xx_ll_adc.h **** #define LL_ADC_CHANNEL_2                   (ADC_CHANNEL_2_NUMBER \
 700:Drivers/STM32U0xx_HAL_Driver/Inc/stm32u0xx_ll_adc.h ****                                             | ADC_CHANNEL_2_BITFIELD ) /*!< ADC channel ADCx_IN2  *
 701:Drivers/STM32U0xx_HAL_Driver/Inc/stm32u0xx_ll_adc.h **** #define LL_ADC_CHANNEL_3                   (ADC_CHANNEL_3_NUMBER \
 702:Drivers/STM32U0xx_HAL_Driver/Inc/stm32u0xx_ll_adc.h ****                                             | ADC_CHANNEL_3_BITFIELD ) /*!< ADC channel ADCx_IN3  *
 703:Drivers/STM32U0xx_HAL_Driver/Inc/stm32u0xx_ll_adc.h **** #define LL_ADC_CHANNEL_4                   (ADC_CHANNEL_4_NUMBER \
 704:Drivers/STM32U0xx_HAL_Driver/Inc/stm32u0xx_ll_adc.h ****                                             | ADC_CHANNEL_4_BITFIELD ) /*!< ADC channel ADCx_IN4  *
ARM GAS  C:\Users\upo\AppData\Local\Temp\ccZrPTgE.s 			page 17


 705:Drivers/STM32U0xx_HAL_Driver/Inc/stm32u0xx_ll_adc.h **** #define LL_ADC_CHANNEL_5                   (ADC_CHANNEL_5_NUMBER \
 706:Drivers/STM32U0xx_HAL_Driver/Inc/stm32u0xx_ll_adc.h ****                                             | ADC_CHANNEL_5_BITFIELD ) /*!< ADC channel ADCx_IN5  *
 707:Drivers/STM32U0xx_HAL_Driver/Inc/stm32u0xx_ll_adc.h **** #define LL_ADC_CHANNEL_6                   (ADC_CHANNEL_6_NUMBER \
 708:Drivers/STM32U0xx_HAL_Driver/Inc/stm32u0xx_ll_adc.h ****                                             | ADC_CHANNEL_6_BITFIELD ) /*!< ADC channel ADCx_IN6  *
 709:Drivers/STM32U0xx_HAL_Driver/Inc/stm32u0xx_ll_adc.h **** #define LL_ADC_CHANNEL_7                   (ADC_CHANNEL_7_NUMBER \
 710:Drivers/STM32U0xx_HAL_Driver/Inc/stm32u0xx_ll_adc.h ****                                             | ADC_CHANNEL_7_BITFIELD ) /*!< ADC channel ADCx_IN7  *
 711:Drivers/STM32U0xx_HAL_Driver/Inc/stm32u0xx_ll_adc.h **** #define LL_ADC_CHANNEL_8                   (ADC_CHANNEL_8_NUMBER \
 712:Drivers/STM32U0xx_HAL_Driver/Inc/stm32u0xx_ll_adc.h ****                                             | ADC_CHANNEL_8_BITFIELD ) /*!< ADC channel ADCx_IN8  *
 713:Drivers/STM32U0xx_HAL_Driver/Inc/stm32u0xx_ll_adc.h **** #define LL_ADC_CHANNEL_9                   (ADC_CHANNEL_9_NUMBER \
 714:Drivers/STM32U0xx_HAL_Driver/Inc/stm32u0xx_ll_adc.h ****                                             | ADC_CHANNEL_9_BITFIELD ) /*!< ADC channel ADCx_IN9  *
 715:Drivers/STM32U0xx_HAL_Driver/Inc/stm32u0xx_ll_adc.h **** #define LL_ADC_CHANNEL_10                  (ADC_CHANNEL_10_NUMBER \
 716:Drivers/STM32U0xx_HAL_Driver/Inc/stm32u0xx_ll_adc.h ****                                             | ADC_CHANNEL_10_BITFIELD) /*!< ADC channel ADCx_IN10 *
 717:Drivers/STM32U0xx_HAL_Driver/Inc/stm32u0xx_ll_adc.h **** #define LL_ADC_CHANNEL_11                  (ADC_CHANNEL_11_NUMBER \
 718:Drivers/STM32U0xx_HAL_Driver/Inc/stm32u0xx_ll_adc.h ****                                             | ADC_CHANNEL_11_BITFIELD) /*!< ADC channel ADCx_IN11 *
 719:Drivers/STM32U0xx_HAL_Driver/Inc/stm32u0xx_ll_adc.h **** #define LL_ADC_CHANNEL_12                  (ADC_CHANNEL_12_NUMBER \
 720:Drivers/STM32U0xx_HAL_Driver/Inc/stm32u0xx_ll_adc.h ****                                             | ADC_CHANNEL_12_BITFIELD) /*!< ADC channel ADCx_IN12 *
 721:Drivers/STM32U0xx_HAL_Driver/Inc/stm32u0xx_ll_adc.h **** #define LL_ADC_CHANNEL_13                  (ADC_CHANNEL_13_NUMBER \
 722:Drivers/STM32U0xx_HAL_Driver/Inc/stm32u0xx_ll_adc.h ****                                             | ADC_CHANNEL_13_BITFIELD) /*!< ADC channel ADCx_IN13 *
 723:Drivers/STM32U0xx_HAL_Driver/Inc/stm32u0xx_ll_adc.h **** #define LL_ADC_CHANNEL_14                  (ADC_CHANNEL_14_NUMBER \
 724:Drivers/STM32U0xx_HAL_Driver/Inc/stm32u0xx_ll_adc.h ****                                             | ADC_CHANNEL_14_BITFIELD) /*!< ADC channel ADCx_IN14 *
 725:Drivers/STM32U0xx_HAL_Driver/Inc/stm32u0xx_ll_adc.h **** #define LL_ADC_CHANNEL_15                  (ADC_CHANNEL_15_NUMBER \
 726:Drivers/STM32U0xx_HAL_Driver/Inc/stm32u0xx_ll_adc.h ****                                             | ADC_CHANNEL_15_BITFIELD) /*!< ADC channel ADCx_IN15 *
 727:Drivers/STM32U0xx_HAL_Driver/Inc/stm32u0xx_ll_adc.h **** #define LL_ADC_CHANNEL_16                  (ADC_CHANNEL_16_NUMBER \
 728:Drivers/STM32U0xx_HAL_Driver/Inc/stm32u0xx_ll_adc.h ****                                             | ADC_CHANNEL_16_BITFIELD) /*!< ADC channel ADCx_IN16 *
 729:Drivers/STM32U0xx_HAL_Driver/Inc/stm32u0xx_ll_adc.h **** #define LL_ADC_CHANNEL_17                  (ADC_CHANNEL_17_NUMBER \
 730:Drivers/STM32U0xx_HAL_Driver/Inc/stm32u0xx_ll_adc.h ****                                             | ADC_CHANNEL_17_BITFIELD) /*!< ADC channel ADCx_IN17 *
 731:Drivers/STM32U0xx_HAL_Driver/Inc/stm32u0xx_ll_adc.h **** #define LL_ADC_CHANNEL_18                  (ADC_CHANNEL_18_NUMBER \
 732:Drivers/STM32U0xx_HAL_Driver/Inc/stm32u0xx_ll_adc.h ****                                             | ADC_CHANNEL_18_BITFIELD) /*!< ADC channel ADCx_IN18 *
 733:Drivers/STM32U0xx_HAL_Driver/Inc/stm32u0xx_ll_adc.h **** #define LL_ADC_CHANNEL_19                  (ADC_CHANNEL_19_NUMBER \
 734:Drivers/STM32U0xx_HAL_Driver/Inc/stm32u0xx_ll_adc.h ****                                             | ADC_CHANNEL_19_BITFIELD) /*!< ADC channel ADCx_IN19 *
 735:Drivers/STM32U0xx_HAL_Driver/Inc/stm32u0xx_ll_adc.h **** #define LL_ADC_CHANNEL_TEMPSENSOR          (LL_ADC_CHANNEL_11 | ADC_CHANNEL_ID_INTERNAL_CH)  /*!< A
 736:Drivers/STM32U0xx_HAL_Driver/Inc/stm32u0xx_ll_adc.h ****                                            connected to internal temperature sensor. */
 737:Drivers/STM32U0xx_HAL_Driver/Inc/stm32u0xx_ll_adc.h **** #define LL_ADC_CHANNEL_VREFINT             (LL_ADC_CHANNEL_12 | ADC_CHANNEL_ID_INTERNAL_CH)  /*!< A
 738:Drivers/STM32U0xx_HAL_Driver/Inc/stm32u0xx_ll_adc.h ****                                            connected to VrefInt: Internal voltage reference. */
 739:Drivers/STM32U0xx_HAL_Driver/Inc/stm32u0xx_ll_adc.h **** #define LL_ADC_CHANNEL_VBAT                (LL_ADC_CHANNEL_13 | ADC_CHANNEL_ID_INTERNAL_CH)  /*!< A
 740:Drivers/STM32U0xx_HAL_Driver/Inc/stm32u0xx_ll_adc.h ****                                            connected to Vbat/3: Vbat voltage through a divider ladd
 741:Drivers/STM32U0xx_HAL_Driver/Inc/stm32u0xx_ll_adc.h ****                                            to have channel voltage always below Vdda. */
 742:Drivers/STM32U0xx_HAL_Driver/Inc/stm32u0xx_ll_adc.h **** #define LL_ADC_CHANNEL_DACCH1              (LL_ADC_CHANNEL_19 | ADC_CHANNEL_ID_INTERNAL_CH)  /*!< A
 743:Drivers/STM32U0xx_HAL_Driver/Inc/stm32u0xx_ll_adc.h ****                                            connected to DAC channel 1. */
 744:Drivers/STM32U0xx_HAL_Driver/Inc/stm32u0xx_ll_adc.h **** /**
 745:Drivers/STM32U0xx_HAL_Driver/Inc/stm32u0xx_ll_adc.h ****   * @}
 746:Drivers/STM32U0xx_HAL_Driver/Inc/stm32u0xx_ll_adc.h ****   */
 747:Drivers/STM32U0xx_HAL_Driver/Inc/stm32u0xx_ll_adc.h **** 
 748:Drivers/STM32U0xx_HAL_Driver/Inc/stm32u0xx_ll_adc.h **** /** @defgroup ADC_LL_EC_REG_TRIGGER_SOURCE  ADC group regular - Trigger source
 749:Drivers/STM32U0xx_HAL_Driver/Inc/stm32u0xx_ll_adc.h ****   * @{
 750:Drivers/STM32U0xx_HAL_Driver/Inc/stm32u0xx_ll_adc.h ****   */
 751:Drivers/STM32U0xx_HAL_Driver/Inc/stm32u0xx_ll_adc.h **** #define LL_ADC_REG_TRIG_SOFTWARE           (0x00000000UL)                                         /
 752:Drivers/STM32U0xx_HAL_Driver/Inc/stm32u0xx_ll_adc.h ****                                            conversion trigger internal: SW start. */
 753:Drivers/STM32U0xx_HAL_Driver/Inc/stm32u0xx_ll_adc.h **** #define LL_ADC_REG_TRIG_EXT_TIM1_TRGO2     (ADC_REG_TRIG_EXT_EDGE_DEFAULT)                        /
 754:Drivers/STM32U0xx_HAL_Driver/Inc/stm32u0xx_ll_adc.h ****                                            conversion trigger from external peripheral: TIM1 TRGO.
 755:Drivers/STM32U0xx_HAL_Driver/Inc/stm32u0xx_ll_adc.h ****                                            Trigger edge set to rising edge (default setting). */
 756:Drivers/STM32U0xx_HAL_Driver/Inc/stm32u0xx_ll_adc.h **** #define LL_ADC_REG_TRIG_EXT_TIM1_CH4       (ADC_CFGR1_EXTSEL_0 | ADC_REG_TRIG_EXT_EDGE_DEFAULT)   /
 757:Drivers/STM32U0xx_HAL_Driver/Inc/stm32u0xx_ll_adc.h ****                                            conversion trigger from external peripheral: TIM1 channe
 758:Drivers/STM32U0xx_HAL_Driver/Inc/stm32u0xx_ll_adc.h ****                                            (capture compare: input capture or output capture).
 759:Drivers/STM32U0xx_HAL_Driver/Inc/stm32u0xx_ll_adc.h ****                                            Trigger edge set to rising edge (default setting). */
 760:Drivers/STM32U0xx_HAL_Driver/Inc/stm32u0xx_ll_adc.h **** #define LL_ADC_REG_TRIG_EXT_TIM2_TRGO      (ADC_CFGR1_EXTSEL_1 | ADC_REG_TRIG_EXT_EDGE_DEFAULT)   /
 761:Drivers/STM32U0xx_HAL_Driver/Inc/stm32u0xx_ll_adc.h ****                                            conversion trigger from external peripheral: TIM2 TRGO.
ARM GAS  C:\Users\upo\AppData\Local\Temp\ccZrPTgE.s 			page 18


 762:Drivers/STM32U0xx_HAL_Driver/Inc/stm32u0xx_ll_adc.h ****                                            Trigger edge set to rising edge (default setting). */
 763:Drivers/STM32U0xx_HAL_Driver/Inc/stm32u0xx_ll_adc.h **** #define LL_ADC_REG_TRIG_EXT_TIM3_TRGO      (ADC_CFGR1_EXTSEL_1 | ADC_CFGR1_EXTSEL_0 \
 764:Drivers/STM32U0xx_HAL_Driver/Inc/stm32u0xx_ll_adc.h ****                                             | ADC_REG_TRIG_EXT_EDGE_DEFAULT)                      /
 765:Drivers/STM32U0xx_HAL_Driver/Inc/stm32u0xx_ll_adc.h ****                                            conversion trigger from external peripheral: TIM3 TRGO.
 766:Drivers/STM32U0xx_HAL_Driver/Inc/stm32u0xx_ll_adc.h ****                                            Trigger edge set to rising edge (default setting). */
 767:Drivers/STM32U0xx_HAL_Driver/Inc/stm32u0xx_ll_adc.h **** #define LL_ADC_REG_TRIG_EXT_TIM15_TRGO     (ADC_CFGR1_EXTSEL_2 | ADC_REG_TRIG_EXT_EDGE_DEFAULT)   /
 768:Drivers/STM32U0xx_HAL_Driver/Inc/stm32u0xx_ll_adc.h ****                                            conversion trigger from external peripheral: TIM15 TRGO.
 769:Drivers/STM32U0xx_HAL_Driver/Inc/stm32u0xx_ll_adc.h ****                                            Trigger edge set to rising edge (default setting). */
 770:Drivers/STM32U0xx_HAL_Driver/Inc/stm32u0xx_ll_adc.h **** #define LL_ADC_REG_TRIG_EXT_TIM6_TRGO     (ADC_CFGR1_EXTSEL_2 | ADC_CFGR1_EXTSEL_0 \
 771:Drivers/STM32U0xx_HAL_Driver/Inc/stm32u0xx_ll_adc.h ****                                            | ADC_REG_TRIG_EXT_EDGE_DEFAULT)                      /*
 772:Drivers/STM32U0xx_HAL_Driver/Inc/stm32u0xx_ll_adc.h ****                                            conversion trigger from external peripheral: TIM6 TRGO.
 773:Drivers/STM32U0xx_HAL_Driver/Inc/stm32u0xx_ll_adc.h ****                                            Trigger edge set to rising edge (default setting). */
 774:Drivers/STM32U0xx_HAL_Driver/Inc/stm32u0xx_ll_adc.h **** #define LL_ADC_REG_TRIG_EXT_EXTI_LINE11    (ADC_CFGR1_EXTSEL_2 | ADC_CFGR1_EXTSEL_1 \
 775:Drivers/STM32U0xx_HAL_Driver/Inc/stm32u0xx_ll_adc.h ****                                             | ADC_CFGR1_EXTSEL_0 | ADC_REG_TRIG_EXT_EDGE_DEFAULT) /
 776:Drivers/STM32U0xx_HAL_Driver/Inc/stm32u0xx_ll_adc.h ****                                            conversion trigger from external peripheral: external in
 777:Drivers/STM32U0xx_HAL_Driver/Inc/stm32u0xx_ll_adc.h ****                                            Trigger edge set to rising edge (default setting). */
 778:Drivers/STM32U0xx_HAL_Driver/Inc/stm32u0xx_ll_adc.h **** /**
 779:Drivers/STM32U0xx_HAL_Driver/Inc/stm32u0xx_ll_adc.h ****   * @}
 780:Drivers/STM32U0xx_HAL_Driver/Inc/stm32u0xx_ll_adc.h ****   */
 781:Drivers/STM32U0xx_HAL_Driver/Inc/stm32u0xx_ll_adc.h **** 
 782:Drivers/STM32U0xx_HAL_Driver/Inc/stm32u0xx_ll_adc.h **** /** @defgroup ADC_LL_EC_REG_TRIGGER_EDGE  ADC group regular - Trigger edge
 783:Drivers/STM32U0xx_HAL_Driver/Inc/stm32u0xx_ll_adc.h ****   * @{
 784:Drivers/STM32U0xx_HAL_Driver/Inc/stm32u0xx_ll_adc.h ****   */
 785:Drivers/STM32U0xx_HAL_Driver/Inc/stm32u0xx_ll_adc.h **** #define LL_ADC_REG_TRIG_EXT_RISING         (ADC_CFGR1_EXTEN_0)                     /*!< ADC group r
 786:Drivers/STM32U0xx_HAL_Driver/Inc/stm32u0xx_ll_adc.h ****                                            trigger polarity set to rising edge */
 787:Drivers/STM32U0xx_HAL_Driver/Inc/stm32u0xx_ll_adc.h **** #define LL_ADC_REG_TRIG_EXT_FALLING        (ADC_CFGR1_EXTEN_1)                     /*!< ADC group r
 788:Drivers/STM32U0xx_HAL_Driver/Inc/stm32u0xx_ll_adc.h ****                                            trigger polarity set to falling edge */
 789:Drivers/STM32U0xx_HAL_Driver/Inc/stm32u0xx_ll_adc.h **** #define LL_ADC_REG_TRIG_EXT_RISINGFALLING  (ADC_CFGR1_EXTEN_1 | ADC_CFGR1_EXTEN_0) /*!< ADC group r
 790:Drivers/STM32U0xx_HAL_Driver/Inc/stm32u0xx_ll_adc.h ****                                            trigger polarity set to both rising and falling edges */
 791:Drivers/STM32U0xx_HAL_Driver/Inc/stm32u0xx_ll_adc.h **** /**
 792:Drivers/STM32U0xx_HAL_Driver/Inc/stm32u0xx_ll_adc.h ****   * @}
 793:Drivers/STM32U0xx_HAL_Driver/Inc/stm32u0xx_ll_adc.h ****   */
 794:Drivers/STM32U0xx_HAL_Driver/Inc/stm32u0xx_ll_adc.h **** 
 795:Drivers/STM32U0xx_HAL_Driver/Inc/stm32u0xx_ll_adc.h **** /** @defgroup ADC_LL_EC_REG_CONTINUOUS_MODE  ADC group regular - Continuous mode
 796:Drivers/STM32U0xx_HAL_Driver/Inc/stm32u0xx_ll_adc.h ****   * @{
 797:Drivers/STM32U0xx_HAL_Driver/Inc/stm32u0xx_ll_adc.h ****   */
 798:Drivers/STM32U0xx_HAL_Driver/Inc/stm32u0xx_ll_adc.h **** #define LL_ADC_REG_CONV_SINGLE             (0x00000000UL)     /*!< ADC conversions performed in sin
 799:Drivers/STM32U0xx_HAL_Driver/Inc/stm32u0xx_ll_adc.h ****                                            one conversion per trigger */
 800:Drivers/STM32U0xx_HAL_Driver/Inc/stm32u0xx_ll_adc.h **** #define LL_ADC_REG_CONV_CONTINUOUS         (ADC_CFGR1_CONT)   /*!< ADC conversions performed in con
 801:Drivers/STM32U0xx_HAL_Driver/Inc/stm32u0xx_ll_adc.h ****                                            after the first trigger, following conversions launched 
 802:Drivers/STM32U0xx_HAL_Driver/Inc/stm32u0xx_ll_adc.h ****                                            automatically */
 803:Drivers/STM32U0xx_HAL_Driver/Inc/stm32u0xx_ll_adc.h **** /**
 804:Drivers/STM32U0xx_HAL_Driver/Inc/stm32u0xx_ll_adc.h ****   * @}
 805:Drivers/STM32U0xx_HAL_Driver/Inc/stm32u0xx_ll_adc.h ****   */
 806:Drivers/STM32U0xx_HAL_Driver/Inc/stm32u0xx_ll_adc.h **** 
 807:Drivers/STM32U0xx_HAL_Driver/Inc/stm32u0xx_ll_adc.h **** /** @defgroup ADC_LL_EC_REG_DMA_TRANSFER  ADC group regular - DMA transfer of ADC conversion data
 808:Drivers/STM32U0xx_HAL_Driver/Inc/stm32u0xx_ll_adc.h ****   * @{
 809:Drivers/STM32U0xx_HAL_Driver/Inc/stm32u0xx_ll_adc.h ****   */
 810:Drivers/STM32U0xx_HAL_Driver/Inc/stm32u0xx_ll_adc.h **** #define LL_ADC_REG_DMA_TRANSFER_NONE       (0x00000000UL)     /*!< ADC conversions are not transfer
 811:Drivers/STM32U0xx_HAL_Driver/Inc/stm32u0xx_ll_adc.h **** #define LL_ADC_REG_DMA_TRANSFER_LIMITED    (ADC_CFGR1_DMAEN)  /*!< ADC conversion data are transfer
 812:Drivers/STM32U0xx_HAL_Driver/Inc/stm32u0xx_ll_adc.h ****                                            in limited mode (one shot mode): DMA transfer requests a
 813:Drivers/STM32U0xx_HAL_Driver/Inc/stm32u0xx_ll_adc.h ****                                            number of DMA data transfers (number of ADC conversions)
 814:Drivers/STM32U0xx_HAL_Driver/Inc/stm32u0xx_ll_adc.h ****                                            This ADC mode is intended to be used with DMA mode non-c
 815:Drivers/STM32U0xx_HAL_Driver/Inc/stm32u0xx_ll_adc.h **** #define LL_ADC_REG_DMA_TRANSFER_UNLIMITED  (ADC_CFGR1_DMACFG | ADC_CFGR1_DMAEN)  /*!< ADC conversio
 816:Drivers/STM32U0xx_HAL_Driver/Inc/stm32u0xx_ll_adc.h ****                                            transferred by DMA, in unlimited mode: DMA transfer requ
 817:Drivers/STM32U0xx_HAL_Driver/Inc/stm32u0xx_ll_adc.h ****                                            whatever number of DMA data transferred (number of ADC c
 818:Drivers/STM32U0xx_HAL_Driver/Inc/stm32u0xx_ll_adc.h ****                                            This ADC mode is intended to be used with DMA mode circu
ARM GAS  C:\Users\upo\AppData\Local\Temp\ccZrPTgE.s 			page 19


 819:Drivers/STM32U0xx_HAL_Driver/Inc/stm32u0xx_ll_adc.h **** /**
 820:Drivers/STM32U0xx_HAL_Driver/Inc/stm32u0xx_ll_adc.h ****   * @}
 821:Drivers/STM32U0xx_HAL_Driver/Inc/stm32u0xx_ll_adc.h ****   */
 822:Drivers/STM32U0xx_HAL_Driver/Inc/stm32u0xx_ll_adc.h **** 
 823:Drivers/STM32U0xx_HAL_Driver/Inc/stm32u0xx_ll_adc.h **** /** @defgroup ADC_LL_EC_REG_OVR_DATA_BEHAVIOR  ADC group regular - Overrun behavior on conversion d
 824:Drivers/STM32U0xx_HAL_Driver/Inc/stm32u0xx_ll_adc.h ****   * @{
 825:Drivers/STM32U0xx_HAL_Driver/Inc/stm32u0xx_ll_adc.h ****   */
 826:Drivers/STM32U0xx_HAL_Driver/Inc/stm32u0xx_ll_adc.h **** #define LL_ADC_REG_OVR_DATA_PRESERVED      (0x00000000UL)     /*!< ADC group regular behavior in ca
 827:Drivers/STM32U0xx_HAL_Driver/Inc/stm32u0xx_ll_adc.h ****                                                                    data preserved */
 828:Drivers/STM32U0xx_HAL_Driver/Inc/stm32u0xx_ll_adc.h **** #define LL_ADC_REG_OVR_DATA_OVERWRITTEN    (ADC_CFGR1_OVRMOD) /*!< ADC group regular behavior in ca
 829:Drivers/STM32U0xx_HAL_Driver/Inc/stm32u0xx_ll_adc.h ****                                                                    data overwritten */
 830:Drivers/STM32U0xx_HAL_Driver/Inc/stm32u0xx_ll_adc.h **** /**
 831:Drivers/STM32U0xx_HAL_Driver/Inc/stm32u0xx_ll_adc.h ****   * @}
 832:Drivers/STM32U0xx_HAL_Driver/Inc/stm32u0xx_ll_adc.h ****   */
 833:Drivers/STM32U0xx_HAL_Driver/Inc/stm32u0xx_ll_adc.h **** 
 834:Drivers/STM32U0xx_HAL_Driver/Inc/stm32u0xx_ll_adc.h **** /** @defgroup ADC_LL_EC_REG_SEQ_MODE  ADC group regular - Sequencer configuration flexibility
 835:Drivers/STM32U0xx_HAL_Driver/Inc/stm32u0xx_ll_adc.h ****   * @{
 836:Drivers/STM32U0xx_HAL_Driver/Inc/stm32u0xx_ll_adc.h ****   */
 837:Drivers/STM32U0xx_HAL_Driver/Inc/stm32u0xx_ll_adc.h **** #define LL_ADC_REG_SEQ_FIXED               (0x00000000UL)        /*!< Sequencer configured to not f
 838:Drivers/STM32U0xx_HAL_Driver/Inc/stm32u0xx_ll_adc.h ****                                            sequencer length and each rank affectation to a channel 
 839:Drivers/STM32U0xx_HAL_Driver/Inc/stm32u0xx_ll_adc.h ****                                            by channel HW number. Refer to description of function
 840:Drivers/STM32U0xx_HAL_Driver/Inc/stm32u0xx_ll_adc.h ****                                            @ref LL_ADC_REG_SetSequencerChannels(). */
 841:Drivers/STM32U0xx_HAL_Driver/Inc/stm32u0xx_ll_adc.h **** #define LL_ADC_REG_SEQ_CONFIGURABLE        (ADC_CFGR1_CHSELRMOD) /*!< Sequencer configured to fully
 842:Drivers/STM32U0xx_HAL_Driver/Inc/stm32u0xx_ll_adc.h ****                                            sequencer length and each rank affectation to a channel 
 843:Drivers/STM32U0xx_HAL_Driver/Inc/stm32u0xx_ll_adc.h ****                                            Refer to description of function @ref LL_ADC_REG_SetSequ
 844:Drivers/STM32U0xx_HAL_Driver/Inc/stm32u0xx_ll_adc.h **** /**
 845:Drivers/STM32U0xx_HAL_Driver/Inc/stm32u0xx_ll_adc.h ****   * @}
 846:Drivers/STM32U0xx_HAL_Driver/Inc/stm32u0xx_ll_adc.h ****   */
 847:Drivers/STM32U0xx_HAL_Driver/Inc/stm32u0xx_ll_adc.h **** 
 848:Drivers/STM32U0xx_HAL_Driver/Inc/stm32u0xx_ll_adc.h **** /** @defgroup ADC_LL_EC_REG_SEQ_SCAN_LENGTH  ADC group regular - Sequencer scan length
 849:Drivers/STM32U0xx_HAL_Driver/Inc/stm32u0xx_ll_adc.h ****   * @{
 850:Drivers/STM32U0xx_HAL_Driver/Inc/stm32u0xx_ll_adc.h ****   */
 851:Drivers/STM32U0xx_HAL_Driver/Inc/stm32u0xx_ll_adc.h **** #define LL_ADC_REG_SEQ_SCAN_DISABLE        (ADC_CHSELR_SQ2)               /*!< ADC group regular se
 852:Drivers/STM32U0xx_HAL_Driver/Inc/stm32u0xx_ll_adc.h ****                                            (equivalent to sequencer of 1 rank: ADC conversion on on
 853:Drivers/STM32U0xx_HAL_Driver/Inc/stm32u0xx_ll_adc.h **** #define LL_ADC_REG_SEQ_SCAN_ENABLE_2RANKS  (ADC_CHSELR_SQ3)               /*!< ADC group regular se
 854:Drivers/STM32U0xx_HAL_Driver/Inc/stm32u0xx_ll_adc.h ****                                            with 2 ranks in the sequence */
 855:Drivers/STM32U0xx_HAL_Driver/Inc/stm32u0xx_ll_adc.h **** #define LL_ADC_REG_SEQ_SCAN_ENABLE_3RANKS  (ADC_CHSELR_SQ4)               /*!< ADC group regular se
 856:Drivers/STM32U0xx_HAL_Driver/Inc/stm32u0xx_ll_adc.h ****                                            with 3 ranks in the sequence */
 857:Drivers/STM32U0xx_HAL_Driver/Inc/stm32u0xx_ll_adc.h **** #define LL_ADC_REG_SEQ_SCAN_ENABLE_4RANKS  (ADC_CHSELR_SQ5)               /*!< ADC group regular se
 858:Drivers/STM32U0xx_HAL_Driver/Inc/stm32u0xx_ll_adc.h ****                                            with 4 ranks in the sequence */
 859:Drivers/STM32U0xx_HAL_Driver/Inc/stm32u0xx_ll_adc.h **** #define LL_ADC_REG_SEQ_SCAN_ENABLE_5RANKS  (ADC_CHSELR_SQ6)               /*!< ADC group regular se
 860:Drivers/STM32U0xx_HAL_Driver/Inc/stm32u0xx_ll_adc.h ****                                            with 5 ranks in the sequence */
 861:Drivers/STM32U0xx_HAL_Driver/Inc/stm32u0xx_ll_adc.h **** #define LL_ADC_REG_SEQ_SCAN_ENABLE_6RANKS  (ADC_CHSELR_SQ7)               /*!< ADC group regular se
 862:Drivers/STM32U0xx_HAL_Driver/Inc/stm32u0xx_ll_adc.h ****                                            with 6 ranks in the sequence */
 863:Drivers/STM32U0xx_HAL_Driver/Inc/stm32u0xx_ll_adc.h **** #define LL_ADC_REG_SEQ_SCAN_ENABLE_7RANKS  (ADC_CHSELR_SQ8)               /*!< ADC group regular se
 864:Drivers/STM32U0xx_HAL_Driver/Inc/stm32u0xx_ll_adc.h ****                                            with 7 ranks in the sequence */
 865:Drivers/STM32U0xx_HAL_Driver/Inc/stm32u0xx_ll_adc.h **** #define LL_ADC_REG_SEQ_SCAN_ENABLE_8RANKS  (0x00000000UL)                 /*!< ADC group regular se
 866:Drivers/STM32U0xx_HAL_Driver/Inc/stm32u0xx_ll_adc.h ****                                            with 8 ranks in the sequence */
 867:Drivers/STM32U0xx_HAL_Driver/Inc/stm32u0xx_ll_adc.h **** /**
 868:Drivers/STM32U0xx_HAL_Driver/Inc/stm32u0xx_ll_adc.h ****   * @}
 869:Drivers/STM32U0xx_HAL_Driver/Inc/stm32u0xx_ll_adc.h ****   */
 870:Drivers/STM32U0xx_HAL_Driver/Inc/stm32u0xx_ll_adc.h **** 
 871:Drivers/STM32U0xx_HAL_Driver/Inc/stm32u0xx_ll_adc.h **** /** @defgroup ADC_LL_EC_REG_SEQ_SCAN_DIRECTION  ADC group regular - Sequencer scan direction
 872:Drivers/STM32U0xx_HAL_Driver/Inc/stm32u0xx_ll_adc.h ****   * @{
 873:Drivers/STM32U0xx_HAL_Driver/Inc/stm32u0xx_ll_adc.h ****   */
 874:Drivers/STM32U0xx_HAL_Driver/Inc/stm32u0xx_ll_adc.h **** #define LL_ADC_REG_SEQ_SCAN_DIR_FORWARD    (0x00000000UL)      /*!< On this STM32 series, parameter
 875:Drivers/STM32U0xx_HAL_Driver/Inc/stm32u0xx_ll_adc.h ****                                            sequencer set to mode not fully configurable, refer to f
ARM GAS  C:\Users\upo\AppData\Local\Temp\ccZrPTgE.s 			page 20


 876:Drivers/STM32U0xx_HAL_Driver/Inc/stm32u0xx_ll_adc.h ****                                            @ref LL_ADC_REG_SetSequencerConfigurable(). ADC group re
 877:Drivers/STM32U0xx_HAL_Driver/Inc/stm32u0xx_ll_adc.h ****                                            direction forward: from lowest channel number to highest
 878:Drivers/STM32U0xx_HAL_Driver/Inc/stm32u0xx_ll_adc.h ****                                            (scan of all ranks, ADC conversion of ranks with channel
 879:Drivers/STM32U0xx_HAL_Driver/Inc/stm32u0xx_ll_adc.h ****                                            sequencer). On some other STM32 series, this setting is 
 880:Drivers/STM32U0xx_HAL_Driver/Inc/stm32u0xx_ll_adc.h ****                                            and the default scan direction is forward. */
 881:Drivers/STM32U0xx_HAL_Driver/Inc/stm32u0xx_ll_adc.h **** #define LL_ADC_REG_SEQ_SCAN_DIR_BACKWARD   (ADC_CFGR1_SCANDIR) /*!< On this STM32 series, parameter
 882:Drivers/STM32U0xx_HAL_Driver/Inc/stm32u0xx_ll_adc.h ****                                            sequencer set to mode not fully configurable, refer to f
 883:Drivers/STM32U0xx_HAL_Driver/Inc/stm32u0xx_ll_adc.h ****                                            @ref LL_ADC_REG_SetSequencerConfigurable(). ADC group re
 884:Drivers/STM32U0xx_HAL_Driver/Inc/stm32u0xx_ll_adc.h ****                                            direction backward: from highest channel number to lowes
 885:Drivers/STM32U0xx_HAL_Driver/Inc/stm32u0xx_ll_adc.h ****                                            (scan of all ranks, ADC conversion of ranks with channel
 886:Drivers/STM32U0xx_HAL_Driver/Inc/stm32u0xx_ll_adc.h ****                                            sequencer) */
 887:Drivers/STM32U0xx_HAL_Driver/Inc/stm32u0xx_ll_adc.h **** /**
 888:Drivers/STM32U0xx_HAL_Driver/Inc/stm32u0xx_ll_adc.h ****   * @}
 889:Drivers/STM32U0xx_HAL_Driver/Inc/stm32u0xx_ll_adc.h ****   */
 890:Drivers/STM32U0xx_HAL_Driver/Inc/stm32u0xx_ll_adc.h **** 
 891:Drivers/STM32U0xx_HAL_Driver/Inc/stm32u0xx_ll_adc.h **** /** @defgroup ADC_LL_EC_REG_SEQ_DISCONT_MODE  ADC group regular - Sequencer discontinuous mode
 892:Drivers/STM32U0xx_HAL_Driver/Inc/stm32u0xx_ll_adc.h ****   * @{
 893:Drivers/STM32U0xx_HAL_Driver/Inc/stm32u0xx_ll_adc.h ****   */
 894:Drivers/STM32U0xx_HAL_Driver/Inc/stm32u0xx_ll_adc.h **** #define LL_ADC_REG_SEQ_DISCONT_DISABLE     (0x00000000UL)                          /*!< ADC group r
 895:Drivers/STM32U0xx_HAL_Driver/Inc/stm32u0xx_ll_adc.h ****                                            discontinuous mode disable */
 896:Drivers/STM32U0xx_HAL_Driver/Inc/stm32u0xx_ll_adc.h **** #define LL_ADC_REG_SEQ_DISCONT_1RANK       (ADC_CFGR1_DISCEN)                      /*!< ADC group r
 897:Drivers/STM32U0xx_HAL_Driver/Inc/stm32u0xx_ll_adc.h ****                                            discontinuous mode enable with sequence interruption eve
 898:Drivers/STM32U0xx_HAL_Driver/Inc/stm32u0xx_ll_adc.h **** /**
 899:Drivers/STM32U0xx_HAL_Driver/Inc/stm32u0xx_ll_adc.h ****   * @}
 900:Drivers/STM32U0xx_HAL_Driver/Inc/stm32u0xx_ll_adc.h ****   */
 901:Drivers/STM32U0xx_HAL_Driver/Inc/stm32u0xx_ll_adc.h **** 
 902:Drivers/STM32U0xx_HAL_Driver/Inc/stm32u0xx_ll_adc.h **** /** @defgroup ADC_LL_EC_REG_SEQ_RANKS  ADC group regular - Sequencer ranks
 903:Drivers/STM32U0xx_HAL_Driver/Inc/stm32u0xx_ll_adc.h ****   * @{
 904:Drivers/STM32U0xx_HAL_Driver/Inc/stm32u0xx_ll_adc.h ****   */
 905:Drivers/STM32U0xx_HAL_Driver/Inc/stm32u0xx_ll_adc.h **** #define LL_ADC_REG_RANK_1                  (ADC_REG_RANK_1_SQRX_BITOFFSET_POS) /*!< ADC group regul
 906:Drivers/STM32U0xx_HAL_Driver/Inc/stm32u0xx_ll_adc.h **** #define LL_ADC_REG_RANK_2                  (ADC_REG_RANK_2_SQRX_BITOFFSET_POS) /*!< ADC group regul
 907:Drivers/STM32U0xx_HAL_Driver/Inc/stm32u0xx_ll_adc.h **** #define LL_ADC_REG_RANK_3                  (ADC_REG_RANK_3_SQRX_BITOFFSET_POS) /*!< ADC group regul
 908:Drivers/STM32U0xx_HAL_Driver/Inc/stm32u0xx_ll_adc.h **** #define LL_ADC_REG_RANK_4                  (ADC_REG_RANK_4_SQRX_BITOFFSET_POS) /*!< ADC group regul
 909:Drivers/STM32U0xx_HAL_Driver/Inc/stm32u0xx_ll_adc.h **** #define LL_ADC_REG_RANK_5                  (ADC_REG_RANK_5_SQRX_BITOFFSET_POS) /*!< ADC group regul
 910:Drivers/STM32U0xx_HAL_Driver/Inc/stm32u0xx_ll_adc.h **** #define LL_ADC_REG_RANK_6                  (ADC_REG_RANK_6_SQRX_BITOFFSET_POS) /*!< ADC group regul
 911:Drivers/STM32U0xx_HAL_Driver/Inc/stm32u0xx_ll_adc.h **** #define LL_ADC_REG_RANK_7                  (ADC_REG_RANK_7_SQRX_BITOFFSET_POS) /*!< ADC group regul
 912:Drivers/STM32U0xx_HAL_Driver/Inc/stm32u0xx_ll_adc.h **** #define LL_ADC_REG_RANK_8                  (ADC_REG_RANK_8_SQRX_BITOFFSET_POS) /*!< ADC group regul
 913:Drivers/STM32U0xx_HAL_Driver/Inc/stm32u0xx_ll_adc.h **** /**
 914:Drivers/STM32U0xx_HAL_Driver/Inc/stm32u0xx_ll_adc.h ****   * @}
 915:Drivers/STM32U0xx_HAL_Driver/Inc/stm32u0xx_ll_adc.h ****   */
 916:Drivers/STM32U0xx_HAL_Driver/Inc/stm32u0xx_ll_adc.h **** 
 917:Drivers/STM32U0xx_HAL_Driver/Inc/stm32u0xx_ll_adc.h **** /** @defgroup ADC_LL_EC_CHANNEL_SAMPLINGTIME  Channel - Sampling time
 918:Drivers/STM32U0xx_HAL_Driver/Inc/stm32u0xx_ll_adc.h ****   * @{
 919:Drivers/STM32U0xx_HAL_Driver/Inc/stm32u0xx_ll_adc.h ****   */
 920:Drivers/STM32U0xx_HAL_Driver/Inc/stm32u0xx_ll_adc.h **** #define LL_ADC_SAMPLINGTIME_1CYCLE_5       (0x00000000UL)     /*!< Sampling time 1.5 ADC clock cycl
 921:Drivers/STM32U0xx_HAL_Driver/Inc/stm32u0xx_ll_adc.h **** #define LL_ADC_SAMPLINGTIME_3CYCLES_5      (ADC_SMPR_SMP1_0)  /*!< Sampling time 3.5 ADC clock cycl
 922:Drivers/STM32U0xx_HAL_Driver/Inc/stm32u0xx_ll_adc.h **** #define LL_ADC_SAMPLINGTIME_7CYCLES_5      (ADC_SMPR_SMP1_1)  /*!< Sampling time 7.5 ADC clock cycl
 923:Drivers/STM32U0xx_HAL_Driver/Inc/stm32u0xx_ll_adc.h **** #define LL_ADC_SAMPLINGTIME_12CYCLES_5     (ADC_SMPR_SMP1_1 \
 924:Drivers/STM32U0xx_HAL_Driver/Inc/stm32u0xx_ll_adc.h ****                                             | ADC_SMPR_SMP1_0) /*!< Sampling time 12.5 ADC clock cy
 925:Drivers/STM32U0xx_HAL_Driver/Inc/stm32u0xx_ll_adc.h **** #define LL_ADC_SAMPLINGTIME_19CYCLES_5     (ADC_SMPR_SMP1_2)  /*!< Sampling time 19.5 ADC clock cyc
 926:Drivers/STM32U0xx_HAL_Driver/Inc/stm32u0xx_ll_adc.h **** #define LL_ADC_SAMPLINGTIME_39CYCLES_5     (ADC_SMPR_SMP1_2 \
 927:Drivers/STM32U0xx_HAL_Driver/Inc/stm32u0xx_ll_adc.h ****                                             | ADC_SMPR_SMP1_0) /*!< Sampling time 39.5 ADC clock cy
 928:Drivers/STM32U0xx_HAL_Driver/Inc/stm32u0xx_ll_adc.h **** #define LL_ADC_SAMPLINGTIME_79CYCLES_5     (ADC_SMPR_SMP1_2 \
 929:Drivers/STM32U0xx_HAL_Driver/Inc/stm32u0xx_ll_adc.h ****                                             | ADC_SMPR_SMP1_1) /*!< Sampling time 79.5 ADC clock cy
 930:Drivers/STM32U0xx_HAL_Driver/Inc/stm32u0xx_ll_adc.h **** #define LL_ADC_SAMPLINGTIME_160CYCLES_5    (ADC_SMPR_SMP1_2 \
 931:Drivers/STM32U0xx_HAL_Driver/Inc/stm32u0xx_ll_adc.h ****                                             | ADC_SMPR_SMP1_1 \
 932:Drivers/STM32U0xx_HAL_Driver/Inc/stm32u0xx_ll_adc.h ****                                             | ADC_SMPR_SMP1_0) /*!< Sampling time 160.5 ADC clock c
ARM GAS  C:\Users\upo\AppData\Local\Temp\ccZrPTgE.s 			page 21


 933:Drivers/STM32U0xx_HAL_Driver/Inc/stm32u0xx_ll_adc.h **** /**
 934:Drivers/STM32U0xx_HAL_Driver/Inc/stm32u0xx_ll_adc.h ****   * @}
 935:Drivers/STM32U0xx_HAL_Driver/Inc/stm32u0xx_ll_adc.h ****   */
 936:Drivers/STM32U0xx_HAL_Driver/Inc/stm32u0xx_ll_adc.h **** 
 937:Drivers/STM32U0xx_HAL_Driver/Inc/stm32u0xx_ll_adc.h **** /** @defgroup ADC_LL_EC_AWD_NUMBER Analog watchdog - Analog watchdog number
 938:Drivers/STM32U0xx_HAL_Driver/Inc/stm32u0xx_ll_adc.h ****   * @{
 939:Drivers/STM32U0xx_HAL_Driver/Inc/stm32u0xx_ll_adc.h ****   */
 940:Drivers/STM32U0xx_HAL_Driver/Inc/stm32u0xx_ll_adc.h **** #define LL_ADC_AWD1                        (ADC_AWD_CR1_CHANNEL_MASK \
 941:Drivers/STM32U0xx_HAL_Driver/Inc/stm32u0xx_ll_adc.h ****                                             | ADC_AWD_CR1_REGOFFSET) /*!< ADC analog watchdog numbe
 942:Drivers/STM32U0xx_HAL_Driver/Inc/stm32u0xx_ll_adc.h **** #define LL_ADC_AWD2                        (ADC_AWD_CR23_CHANNEL_MASK \
 943:Drivers/STM32U0xx_HAL_Driver/Inc/stm32u0xx_ll_adc.h ****                                             | ADC_AWD_CR2_REGOFFSET) /*!< ADC analog watchdog numbe
 944:Drivers/STM32U0xx_HAL_Driver/Inc/stm32u0xx_ll_adc.h **** #define LL_ADC_AWD3                        (ADC_AWD_CR23_CHANNEL_MASK \
 945:Drivers/STM32U0xx_HAL_Driver/Inc/stm32u0xx_ll_adc.h ****                                             | ADC_AWD_CR3_REGOFFSET) /*!< ADC analog watchdog numbe
 946:Drivers/STM32U0xx_HAL_Driver/Inc/stm32u0xx_ll_adc.h **** /**
 947:Drivers/STM32U0xx_HAL_Driver/Inc/stm32u0xx_ll_adc.h ****   * @}
 948:Drivers/STM32U0xx_HAL_Driver/Inc/stm32u0xx_ll_adc.h ****   */
 949:Drivers/STM32U0xx_HAL_Driver/Inc/stm32u0xx_ll_adc.h **** 
 950:Drivers/STM32U0xx_HAL_Driver/Inc/stm32u0xx_ll_adc.h **** /** @defgroup ADC_LL_EC_AWD_CHANNELS  Analog watchdog - Monitored channels
 951:Drivers/STM32U0xx_HAL_Driver/Inc/stm32u0xx_ll_adc.h ****   * @{
 952:Drivers/STM32U0xx_HAL_Driver/Inc/stm32u0xx_ll_adc.h ****   */
 953:Drivers/STM32U0xx_HAL_Driver/Inc/stm32u0xx_ll_adc.h **** #define LL_ADC_AWD_DISABLE                 (0x00000000UL)                           /*!< ADC analog
 954:Drivers/STM32U0xx_HAL_Driver/Inc/stm32u0xx_ll_adc.h ****                                            disabled */
 955:Drivers/STM32U0xx_HAL_Driver/Inc/stm32u0xx_ll_adc.h **** #define LL_ADC_AWD_ALL_CHANNELS_REG        (ADC_AWD_CR23_CHANNEL_MASK \
 956:Drivers/STM32U0xx_HAL_Driver/Inc/stm32u0xx_ll_adc.h ****                                             | ADC_CFGR1_AWD1EN)                     /*!< ADC analog
 957:Drivers/STM32U0xx_HAL_Driver/Inc/stm32u0xx_ll_adc.h ****                                            of all channels, converted by group regular only */
 958:Drivers/STM32U0xx_HAL_Driver/Inc/stm32u0xx_ll_adc.h **** #define LL_ADC_AWD_CHANNEL_0_REG           ((LL_ADC_CHANNEL_0  & ADC_CHANNEL_ID_MASK) \
 959:Drivers/STM32U0xx_HAL_Driver/Inc/stm32u0xx_ll_adc.h ****                                             | ADC_CFGR1_AWD1EN | ADC_CFGR1_AWD1SGL)  /*!< ADC analo
 960:Drivers/STM32U0xx_HAL_Driver/Inc/stm32u0xx_ll_adc.h ****                                            of ADC channel ADCx_IN0, converted by group regular only
 961:Drivers/STM32U0xx_HAL_Driver/Inc/stm32u0xx_ll_adc.h **** #define LL_ADC_AWD_CHANNEL_1_REG           ((LL_ADC_CHANNEL_1  & ADC_CHANNEL_ID_MASK) \
 962:Drivers/STM32U0xx_HAL_Driver/Inc/stm32u0xx_ll_adc.h ****                                             | ADC_CFGR1_AWD1EN | ADC_CFGR1_AWD1SGL)  /*!< ADC analo
 963:Drivers/STM32U0xx_HAL_Driver/Inc/stm32u0xx_ll_adc.h ****                                            of ADC channel ADCx_IN1, converted by group regular only
 964:Drivers/STM32U0xx_HAL_Driver/Inc/stm32u0xx_ll_adc.h **** #define LL_ADC_AWD_CHANNEL_2_REG           ((LL_ADC_CHANNEL_2  & ADC_CHANNEL_ID_MASK) \
 965:Drivers/STM32U0xx_HAL_Driver/Inc/stm32u0xx_ll_adc.h ****                                             | ADC_CFGR1_AWD1EN | ADC_CFGR1_AWD1SGL)  /*!< ADC analo
 966:Drivers/STM32U0xx_HAL_Driver/Inc/stm32u0xx_ll_adc.h ****                                            of ADC channel ADCx_IN2, converted by group regular only
 967:Drivers/STM32U0xx_HAL_Driver/Inc/stm32u0xx_ll_adc.h **** #define LL_ADC_AWD_CHANNEL_3_REG           ((LL_ADC_CHANNEL_3  & ADC_CHANNEL_ID_MASK) \
 968:Drivers/STM32U0xx_HAL_Driver/Inc/stm32u0xx_ll_adc.h ****                                             | ADC_CFGR1_AWD1EN | ADC_CFGR1_AWD1SGL)  /*!< ADC analo
 969:Drivers/STM32U0xx_HAL_Driver/Inc/stm32u0xx_ll_adc.h ****                                            of ADC channel ADCx_IN3, converted by group regular only
 970:Drivers/STM32U0xx_HAL_Driver/Inc/stm32u0xx_ll_adc.h **** #define LL_ADC_AWD_CHANNEL_4_REG           ((LL_ADC_CHANNEL_4  & ADC_CHANNEL_ID_MASK) \
 971:Drivers/STM32U0xx_HAL_Driver/Inc/stm32u0xx_ll_adc.h ****                                             | ADC_CFGR1_AWD1EN | ADC_CFGR1_AWD1SGL)  /*!< ADC analo
 972:Drivers/STM32U0xx_HAL_Driver/Inc/stm32u0xx_ll_adc.h ****                                            of ADC channel ADCx_IN4, converted by group regular only
 973:Drivers/STM32U0xx_HAL_Driver/Inc/stm32u0xx_ll_adc.h **** #define LL_ADC_AWD_CHANNEL_5_REG           ((LL_ADC_CHANNEL_5  & ADC_CHANNEL_ID_MASK) \
 974:Drivers/STM32U0xx_HAL_Driver/Inc/stm32u0xx_ll_adc.h ****                                             | ADC_CFGR1_AWD1EN | ADC_CFGR1_AWD1SGL)  /*!< ADC analo
 975:Drivers/STM32U0xx_HAL_Driver/Inc/stm32u0xx_ll_adc.h ****                                            of ADC channel ADCx_IN5, converted by group regular only
 976:Drivers/STM32U0xx_HAL_Driver/Inc/stm32u0xx_ll_adc.h **** #define LL_ADC_AWD_CHANNEL_6_REG           ((LL_ADC_CHANNEL_6  & ADC_CHANNEL_ID_MASK) \
 977:Drivers/STM32U0xx_HAL_Driver/Inc/stm32u0xx_ll_adc.h ****                                             | ADC_CFGR1_AWD1EN | ADC_CFGR1_AWD1SGL)  /*!< ADC analo
 978:Drivers/STM32U0xx_HAL_Driver/Inc/stm32u0xx_ll_adc.h ****                                            of ADC channel ADCx_IN6, converted by group regular only
 979:Drivers/STM32U0xx_HAL_Driver/Inc/stm32u0xx_ll_adc.h **** #define LL_ADC_AWD_CHANNEL_7_REG           ((LL_ADC_CHANNEL_7  & ADC_CHANNEL_ID_MASK) \
 980:Drivers/STM32U0xx_HAL_Driver/Inc/stm32u0xx_ll_adc.h ****                                             | ADC_CFGR1_AWD1EN | ADC_CFGR1_AWD1SGL)  /*!< ADC analo
 981:Drivers/STM32U0xx_HAL_Driver/Inc/stm32u0xx_ll_adc.h ****                                            of ADC channel ADCx_IN7, converted by group regular only
 982:Drivers/STM32U0xx_HAL_Driver/Inc/stm32u0xx_ll_adc.h **** #define LL_ADC_AWD_CHANNEL_8_REG           ((LL_ADC_CHANNEL_8  & ADC_CHANNEL_ID_MASK) \
 983:Drivers/STM32U0xx_HAL_Driver/Inc/stm32u0xx_ll_adc.h ****                                             | ADC_CFGR1_AWD1EN | ADC_CFGR1_AWD1SGL)  /*!< ADC analo
 984:Drivers/STM32U0xx_HAL_Driver/Inc/stm32u0xx_ll_adc.h ****                                            of ADC channel ADCx_IN8, converted by group regular only
 985:Drivers/STM32U0xx_HAL_Driver/Inc/stm32u0xx_ll_adc.h **** #define LL_ADC_AWD_CHANNEL_9_REG           ((LL_ADC_CHANNEL_9  & ADC_CHANNEL_ID_MASK) \
 986:Drivers/STM32U0xx_HAL_Driver/Inc/stm32u0xx_ll_adc.h ****                                             | ADC_CFGR1_AWD1EN | ADC_CFGR1_AWD1SGL)  /*!< ADC analo
 987:Drivers/STM32U0xx_HAL_Driver/Inc/stm32u0xx_ll_adc.h ****                                            of ADC channel ADCx_IN9, converted by group regular only
 988:Drivers/STM32U0xx_HAL_Driver/Inc/stm32u0xx_ll_adc.h **** #define LL_ADC_AWD_CHANNEL_10_REG          ((LL_ADC_CHANNEL_10 & ADC_CHANNEL_ID_MASK) \
 989:Drivers/STM32U0xx_HAL_Driver/Inc/stm32u0xx_ll_adc.h ****                                             | ADC_CFGR1_AWD1EN | ADC_CFGR1_AWD1SGL)  /*!< ADC analo
ARM GAS  C:\Users\upo\AppData\Local\Temp\ccZrPTgE.s 			page 22


 990:Drivers/STM32U0xx_HAL_Driver/Inc/stm32u0xx_ll_adc.h ****                                            of ADC channel ADCx_IN10, converted by group regular onl
 991:Drivers/STM32U0xx_HAL_Driver/Inc/stm32u0xx_ll_adc.h **** #define LL_ADC_AWD_CHANNEL_11_REG          ((LL_ADC_CHANNEL_11 & ADC_CHANNEL_ID_MASK) \
 992:Drivers/STM32U0xx_HAL_Driver/Inc/stm32u0xx_ll_adc.h ****                                             | ADC_CFGR1_AWD1EN | ADC_CFGR1_AWD1SGL)  /*!< ADC analo
 993:Drivers/STM32U0xx_HAL_Driver/Inc/stm32u0xx_ll_adc.h ****                                            of ADC channel ADCx_IN11, converted by group regular onl
 994:Drivers/STM32U0xx_HAL_Driver/Inc/stm32u0xx_ll_adc.h **** #define LL_ADC_AWD_CHANNEL_12_REG          ((LL_ADC_CHANNEL_12 & ADC_CHANNEL_ID_MASK) \
 995:Drivers/STM32U0xx_HAL_Driver/Inc/stm32u0xx_ll_adc.h ****                                             | ADC_CFGR1_AWD1EN | ADC_CFGR1_AWD1SGL)  /*!< ADC analo
 996:Drivers/STM32U0xx_HAL_Driver/Inc/stm32u0xx_ll_adc.h ****                                            of ADC channel ADCx_IN12, converted by group regular onl
 997:Drivers/STM32U0xx_HAL_Driver/Inc/stm32u0xx_ll_adc.h **** #define LL_ADC_AWD_CHANNEL_13_REG          ((LL_ADC_CHANNEL_13 & ADC_CHANNEL_ID_MASK) \
 998:Drivers/STM32U0xx_HAL_Driver/Inc/stm32u0xx_ll_adc.h ****                                             | ADC_CFGR1_AWD1EN | ADC_CFGR1_AWD1SGL)  /*!< ADC analo
 999:Drivers/STM32U0xx_HAL_Driver/Inc/stm32u0xx_ll_adc.h ****                                            of ADC channel ADCx_IN13, converted by group regular onl
1000:Drivers/STM32U0xx_HAL_Driver/Inc/stm32u0xx_ll_adc.h **** #define LL_ADC_AWD_CHANNEL_14_REG          ((LL_ADC_CHANNEL_14 & ADC_CHANNEL_ID_MASK) \
1001:Drivers/STM32U0xx_HAL_Driver/Inc/stm32u0xx_ll_adc.h ****                                             | ADC_CFGR1_AWD1EN | ADC_CFGR1_AWD1SGL)  /*!< ADC analo
1002:Drivers/STM32U0xx_HAL_Driver/Inc/stm32u0xx_ll_adc.h ****                                            of ADC channel ADCx_IN14, converted by group regular onl
1003:Drivers/STM32U0xx_HAL_Driver/Inc/stm32u0xx_ll_adc.h **** #define LL_ADC_AWD_CHANNEL_15_REG          ((LL_ADC_CHANNEL_15 & ADC_CHANNEL_ID_MASK) \
1004:Drivers/STM32U0xx_HAL_Driver/Inc/stm32u0xx_ll_adc.h ****                                             | ADC_CFGR1_AWD1EN | ADC_CFGR1_AWD1SGL)  /*!< ADC analo
1005:Drivers/STM32U0xx_HAL_Driver/Inc/stm32u0xx_ll_adc.h ****                                            of ADC channel ADCx_IN15, converted by group regular onl
1006:Drivers/STM32U0xx_HAL_Driver/Inc/stm32u0xx_ll_adc.h **** #define LL_ADC_AWD_CHANNEL_16_REG          ((LL_ADC_CHANNEL_16 & ADC_CHANNEL_ID_MASK) \
1007:Drivers/STM32U0xx_HAL_Driver/Inc/stm32u0xx_ll_adc.h ****                                             | ADC_CFGR1_AWD1EN | ADC_CFGR1_AWD1SGL) /*!< ADC analog
1008:Drivers/STM32U0xx_HAL_Driver/Inc/stm32u0xx_ll_adc.h ****                                            of ADC channel ADCx_IN16, converted by group regular onl
1009:Drivers/STM32U0xx_HAL_Driver/Inc/stm32u0xx_ll_adc.h **** #define LL_ADC_AWD_CHANNEL_17_REG          ((LL_ADC_CHANNEL_17 & ADC_CHANNEL_ID_MASK) \
1010:Drivers/STM32U0xx_HAL_Driver/Inc/stm32u0xx_ll_adc.h ****                                             | ADC_CFGR1_AWD1EN | ADC_CFGR1_AWD1SGL) /*!< ADC analog
1011:Drivers/STM32U0xx_HAL_Driver/Inc/stm32u0xx_ll_adc.h ****                                            of ADC channel ADCx_IN17, converted by group regular onl
1012:Drivers/STM32U0xx_HAL_Driver/Inc/stm32u0xx_ll_adc.h **** #define LL_ADC_AWD_CHANNEL_18_REG          ((LL_ADC_CHANNEL_18 & ADC_CHANNEL_ID_MASK) \
1013:Drivers/STM32U0xx_HAL_Driver/Inc/stm32u0xx_ll_adc.h ****                                             | ADC_CFGR1_AWD1EN | ADC_CFGR1_AWD1SGL) /*!< ADC analog
1014:Drivers/STM32U0xx_HAL_Driver/Inc/stm32u0xx_ll_adc.h ****                                            of ADC channel ADCx_IN18, converted by group regular onl
1015:Drivers/STM32U0xx_HAL_Driver/Inc/stm32u0xx_ll_adc.h **** #define LL_ADC_AWD_CHANNEL_19_REG          ((LL_ADC_CHANNEL_19 & ADC_CHANNEL_ID_MASK) \
1016:Drivers/STM32U0xx_HAL_Driver/Inc/stm32u0xx_ll_adc.h ****                                             | ADC_CFGR1_AWD1EN | ADC_CFGR1_AWD1SGL) /*!< ADC analog
1017:Drivers/STM32U0xx_HAL_Driver/Inc/stm32u0xx_ll_adc.h ****                                            of ADC channel ADCx_IN19, converted by group regular onl
1018:Drivers/STM32U0xx_HAL_Driver/Inc/stm32u0xx_ll_adc.h **** #define LL_ADC_AWD_CH_VREFINT_REG          ((LL_ADC_CHANNEL_VREFINT    & ADC_CHANNEL_ID_MASK) \
1019:Drivers/STM32U0xx_HAL_Driver/Inc/stm32u0xx_ll_adc.h ****                                             | ADC_CFGR1_AWD1EN | ADC_CFGR1_AWD1SGL) /*!< ADC analog
1020:Drivers/STM32U0xx_HAL_Driver/Inc/stm32u0xx_ll_adc.h ****                                            of ADC internal channel connected to VrefInt: Internal
1021:Drivers/STM32U0xx_HAL_Driver/Inc/stm32u0xx_ll_adc.h ****                                            voltage reference, converted by group regular only */
1022:Drivers/STM32U0xx_HAL_Driver/Inc/stm32u0xx_ll_adc.h **** #define LL_ADC_AWD_CH_TEMPSENSOR_REG       ((LL_ADC_CHANNEL_TEMPSENSOR & ADC_CHANNEL_ID_MASK) \
1023:Drivers/STM32U0xx_HAL_Driver/Inc/stm32u0xx_ll_adc.h ****                                             | ADC_CFGR1_AWD1EN | ADC_CFGR1_AWD1SGL) /*!< ADC analog
1024:Drivers/STM32U0xx_HAL_Driver/Inc/stm32u0xx_ll_adc.h ****                                            of ADC internal channel connected to internal temperatur
1025:Drivers/STM32U0xx_HAL_Driver/Inc/stm32u0xx_ll_adc.h ****                                            converted by group regular only */
1026:Drivers/STM32U0xx_HAL_Driver/Inc/stm32u0xx_ll_adc.h **** #define LL_ADC_AWD_CH_VBAT_REG             ((LL_ADC_CHANNEL_VBAT       & ADC_CHANNEL_ID_MASK) \
1027:Drivers/STM32U0xx_HAL_Driver/Inc/stm32u0xx_ll_adc.h ****                                             | ADC_CFGR1_AWD1EN | ADC_CFGR1_AWD1SGL) /*!< ADC analog
1028:Drivers/STM32U0xx_HAL_Driver/Inc/stm32u0xx_ll_adc.h ****                                            of ADC internal channel connected to Vbat/3: Vbat
1029:Drivers/STM32U0xx_HAL_Driver/Inc/stm32u0xx_ll_adc.h ****                                            voltage through a divider ladder of factor 1/3 to have c
1030:Drivers/STM32U0xx_HAL_Driver/Inc/stm32u0xx_ll_adc.h ****                                            below Vdda, converted by group regular only */
1031:Drivers/STM32U0xx_HAL_Driver/Inc/stm32u0xx_ll_adc.h **** #define LL_ADC_AWD_CH_DACCH1_REG           ((LL_ADC_CHANNEL_DACCH1     & ADC_CHANNEL_ID_MASK) \
1032:Drivers/STM32U0xx_HAL_Driver/Inc/stm32u0xx_ll_adc.h ****                                             | ADC_CFGR1_AWD1EN | ADC_CFGR1_AWD1SGL) /*!< ADC analog
1033:Drivers/STM32U0xx_HAL_Driver/Inc/stm32u0xx_ll_adc.h ****                                            of ADC internal channel connected to DAC channel 1,
1034:Drivers/STM32U0xx_HAL_Driver/Inc/stm32u0xx_ll_adc.h ****                                            converted by group regular only */
1035:Drivers/STM32U0xx_HAL_Driver/Inc/stm32u0xx_ll_adc.h **** /**
1036:Drivers/STM32U0xx_HAL_Driver/Inc/stm32u0xx_ll_adc.h ****   * @}
1037:Drivers/STM32U0xx_HAL_Driver/Inc/stm32u0xx_ll_adc.h ****   */
1038:Drivers/STM32U0xx_HAL_Driver/Inc/stm32u0xx_ll_adc.h **** 
1039:Drivers/STM32U0xx_HAL_Driver/Inc/stm32u0xx_ll_adc.h **** /** @defgroup ADC_LL_EC_AWD_THRESHOLDS  Analog watchdog - Thresholds
1040:Drivers/STM32U0xx_HAL_Driver/Inc/stm32u0xx_ll_adc.h ****   * @{
1041:Drivers/STM32U0xx_HAL_Driver/Inc/stm32u0xx_ll_adc.h ****   */
1042:Drivers/STM32U0xx_HAL_Driver/Inc/stm32u0xx_ll_adc.h **** #define LL_ADC_AWD_THRESHOLD_HIGH          (ADC_AWD1TR_HT1)   /*!< ADC analog watchdog threshold hi
1043:Drivers/STM32U0xx_HAL_Driver/Inc/stm32u0xx_ll_adc.h **** #define LL_ADC_AWD_THRESHOLD_LOW           (ADC_AWD1TR_LT1)   /*!< ADC analog watchdog threshold lo
1044:Drivers/STM32U0xx_HAL_Driver/Inc/stm32u0xx_ll_adc.h **** #define LL_ADC_AWD_THRESHOLDS_HIGH_LOW     (ADC_AWD1TR_HT1 \
1045:Drivers/STM32U0xx_HAL_Driver/Inc/stm32u0xx_ll_adc.h ****                                             | ADC_AWD1TR_LT1)  /*!< ADC analog watchdog both thresh
1046:Drivers/STM32U0xx_HAL_Driver/Inc/stm32u0xx_ll_adc.h ****                                                                    concatenated into the same data 
ARM GAS  C:\Users\upo\AppData\Local\Temp\ccZrPTgE.s 			page 23


1047:Drivers/STM32U0xx_HAL_Driver/Inc/stm32u0xx_ll_adc.h **** /**
1048:Drivers/STM32U0xx_HAL_Driver/Inc/stm32u0xx_ll_adc.h ****   * @}
1049:Drivers/STM32U0xx_HAL_Driver/Inc/stm32u0xx_ll_adc.h ****   */
1050:Drivers/STM32U0xx_HAL_Driver/Inc/stm32u0xx_ll_adc.h **** 
1051:Drivers/STM32U0xx_HAL_Driver/Inc/stm32u0xx_ll_adc.h **** /** @defgroup ADC_LL_EC_OVS_SCOPE  Oversampling - Oversampling scope
1052:Drivers/STM32U0xx_HAL_Driver/Inc/stm32u0xx_ll_adc.h ****   * @{
1053:Drivers/STM32U0xx_HAL_Driver/Inc/stm32u0xx_ll_adc.h ****   */
1054:Drivers/STM32U0xx_HAL_Driver/Inc/stm32u0xx_ll_adc.h **** #define LL_ADC_OVS_DISABLE                 (0x00000000UL)                      /*!< ADC oversamplin
1055:Drivers/STM32U0xx_HAL_Driver/Inc/stm32u0xx_ll_adc.h **** #define LL_ADC_OVS_GRP_REGULAR_CONTINUED   (ADC_CFGR2_OVSE)                    /*!< ADC oversamplin
1056:Drivers/STM32U0xx_HAL_Driver/Inc/stm32u0xx_ll_adc.h ****                                            ADC group regular. Literal suffix "continued" is kept fo
1057:Drivers/STM32U0xx_HAL_Driver/Inc/stm32u0xx_ll_adc.h ****                                            with other STM32 devices featuring ADC group injected, i
1058:Drivers/STM32U0xx_HAL_Driver/Inc/stm32u0xx_ll_adc.h ****                                            oversampling scope parameters are available. */
1059:Drivers/STM32U0xx_HAL_Driver/Inc/stm32u0xx_ll_adc.h **** /**
1060:Drivers/STM32U0xx_HAL_Driver/Inc/stm32u0xx_ll_adc.h ****   * @}
1061:Drivers/STM32U0xx_HAL_Driver/Inc/stm32u0xx_ll_adc.h ****   */
1062:Drivers/STM32U0xx_HAL_Driver/Inc/stm32u0xx_ll_adc.h **** 
1063:Drivers/STM32U0xx_HAL_Driver/Inc/stm32u0xx_ll_adc.h **** /** @defgroup ADC_LL_EC_OVS_DISCONT_MODE  Oversampling - Discontinuous mode
1064:Drivers/STM32U0xx_HAL_Driver/Inc/stm32u0xx_ll_adc.h ****   * @{
1065:Drivers/STM32U0xx_HAL_Driver/Inc/stm32u0xx_ll_adc.h ****   */
1066:Drivers/STM32U0xx_HAL_Driver/Inc/stm32u0xx_ll_adc.h **** #define LL_ADC_OVS_REG_CONT                (0x00000000UL)     /*!< ADC oversampling discontinuous m
1067:Drivers/STM32U0xx_HAL_Driver/Inc/stm32u0xx_ll_adc.h **** (all conversions of oversampling ratio are done from 1 trigger) */
1068:Drivers/STM32U0xx_HAL_Driver/Inc/stm32u0xx_ll_adc.h **** #define LL_ADC_OVS_REG_DISCONT             (ADC_CFGR2_TOVS)   /*!< ADC oversampling discontinuous m
1069:Drivers/STM32U0xx_HAL_Driver/Inc/stm32u0xx_ll_adc.h ****                                            mode (each conversion of oversampling ratio needs a trig
1070:Drivers/STM32U0xx_HAL_Driver/Inc/stm32u0xx_ll_adc.h **** /**
1071:Drivers/STM32U0xx_HAL_Driver/Inc/stm32u0xx_ll_adc.h ****   * @}
1072:Drivers/STM32U0xx_HAL_Driver/Inc/stm32u0xx_ll_adc.h ****   */
1073:Drivers/STM32U0xx_HAL_Driver/Inc/stm32u0xx_ll_adc.h **** 
1074:Drivers/STM32U0xx_HAL_Driver/Inc/stm32u0xx_ll_adc.h **** /** @defgroup ADC_LL_EC_OVS_RATIO  Oversampling - Ratio
1075:Drivers/STM32U0xx_HAL_Driver/Inc/stm32u0xx_ll_adc.h ****   * @{
1076:Drivers/STM32U0xx_HAL_Driver/Inc/stm32u0xx_ll_adc.h ****   */
1077:Drivers/STM32U0xx_HAL_Driver/Inc/stm32u0xx_ll_adc.h **** #define LL_ADC_OVS_RATIO_2                 (0x00000000UL)                        /*!< ADC oversampl
1078:Drivers/STM32U0xx_HAL_Driver/Inc/stm32u0xx_ll_adc.h ****                                            (sum of conversions data computed to result as oversampl
1079:Drivers/STM32U0xx_HAL_Driver/Inc/stm32u0xx_ll_adc.h ****                                            (before potential shift) */
1080:Drivers/STM32U0xx_HAL_Driver/Inc/stm32u0xx_ll_adc.h **** #define LL_ADC_OVS_RATIO_4                 (ADC_CFGR2_OVSR_0)                    /*!< ADC oversampl
1081:Drivers/STM32U0xx_HAL_Driver/Inc/stm32u0xx_ll_adc.h ****                                            (sum of conversions data computed to result as oversampl
1082:Drivers/STM32U0xx_HAL_Driver/Inc/stm32u0xx_ll_adc.h ****                                            (before potential shift) */
1083:Drivers/STM32U0xx_HAL_Driver/Inc/stm32u0xx_ll_adc.h **** #define LL_ADC_OVS_RATIO_8                 (ADC_CFGR2_OVSR_1)                    /*!< ADC oversampl
1084:Drivers/STM32U0xx_HAL_Driver/Inc/stm32u0xx_ll_adc.h ****                                            (sum of conversions data computed to result as oversampl
1085:Drivers/STM32U0xx_HAL_Driver/Inc/stm32u0xx_ll_adc.h ****                                            (before potential shift) */
1086:Drivers/STM32U0xx_HAL_Driver/Inc/stm32u0xx_ll_adc.h **** #define LL_ADC_OVS_RATIO_16                (ADC_CFGR2_OVSR_1 | ADC_CFGR2_OVSR_0) /*!< ADC oversampl
1087:Drivers/STM32U0xx_HAL_Driver/Inc/stm32u0xx_ll_adc.h ****                                            (sum of conversions data computed to result as oversampl
1088:Drivers/STM32U0xx_HAL_Driver/Inc/stm32u0xx_ll_adc.h ****                                            (before potential shift) */
1089:Drivers/STM32U0xx_HAL_Driver/Inc/stm32u0xx_ll_adc.h **** #define LL_ADC_OVS_RATIO_32                (ADC_CFGR2_OVSR_2)                    /*!< ADC oversampl
1090:Drivers/STM32U0xx_HAL_Driver/Inc/stm32u0xx_ll_adc.h ****                                            (sum of conversions data computed to result as oversampl
1091:Drivers/STM32U0xx_HAL_Driver/Inc/stm32u0xx_ll_adc.h ****                                            (before potential shift) */
1092:Drivers/STM32U0xx_HAL_Driver/Inc/stm32u0xx_ll_adc.h **** #define LL_ADC_OVS_RATIO_64                (ADC_CFGR2_OVSR_2 | ADC_CFGR2_OVSR_0) /*!< ADC oversampl
1093:Drivers/STM32U0xx_HAL_Driver/Inc/stm32u0xx_ll_adc.h ****                                            (sum of conversions data computed to result as oversampl
1094:Drivers/STM32U0xx_HAL_Driver/Inc/stm32u0xx_ll_adc.h ****                                            (before potential shift) */
1095:Drivers/STM32U0xx_HAL_Driver/Inc/stm32u0xx_ll_adc.h **** #define LL_ADC_OVS_RATIO_128               (ADC_CFGR2_OVSR_2 | ADC_CFGR2_OVSR_1) /*!< ADC oversampl
1096:Drivers/STM32U0xx_HAL_Driver/Inc/stm32u0xx_ll_adc.h ****                                            (sum of conversions data computed to result as oversampl
1097:Drivers/STM32U0xx_HAL_Driver/Inc/stm32u0xx_ll_adc.h ****                                            (before potential shift) */
1098:Drivers/STM32U0xx_HAL_Driver/Inc/stm32u0xx_ll_adc.h **** #define LL_ADC_OVS_RATIO_256               (ADC_CFGR2_OVSR_2 | ADC_CFGR2_OVSR_1 \
1099:Drivers/STM32U0xx_HAL_Driver/Inc/stm32u0xx_ll_adc.h ****                                             | ADC_CFGR2_OVSR_0)                   /*!< ADC oversamp
1100:Drivers/STM32U0xx_HAL_Driver/Inc/stm32u0xx_ll_adc.h ****                                            (sum of conversions data computed to result as oversampl
1101:Drivers/STM32U0xx_HAL_Driver/Inc/stm32u0xx_ll_adc.h ****                                            (before potential shift) */
1102:Drivers/STM32U0xx_HAL_Driver/Inc/stm32u0xx_ll_adc.h **** /**
1103:Drivers/STM32U0xx_HAL_Driver/Inc/stm32u0xx_ll_adc.h ****   * @}
ARM GAS  C:\Users\upo\AppData\Local\Temp\ccZrPTgE.s 			page 24


1104:Drivers/STM32U0xx_HAL_Driver/Inc/stm32u0xx_ll_adc.h ****   */
1105:Drivers/STM32U0xx_HAL_Driver/Inc/stm32u0xx_ll_adc.h **** 
1106:Drivers/STM32U0xx_HAL_Driver/Inc/stm32u0xx_ll_adc.h **** /** @defgroup ADC_LL_EC_OVS_SHIFT  Oversampling - Data right shift
1107:Drivers/STM32U0xx_HAL_Driver/Inc/stm32u0xx_ll_adc.h ****   * @{
1108:Drivers/STM32U0xx_HAL_Driver/Inc/stm32u0xx_ll_adc.h ****   */
1109:Drivers/STM32U0xx_HAL_Driver/Inc/stm32u0xx_ll_adc.h **** #define LL_ADC_OVS_SHIFT_NONE              (0x00000000UL)                        /*!< ADC oversampl
1110:Drivers/STM32U0xx_HAL_Driver/Inc/stm32u0xx_ll_adc.h ****                                            (sum of the ADC conversions data is not divided to resul
1111:Drivers/STM32U0xx_HAL_Driver/Inc/stm32u0xx_ll_adc.h ****                                            conversion data) */
1112:Drivers/STM32U0xx_HAL_Driver/Inc/stm32u0xx_ll_adc.h **** #define LL_ADC_OVS_SHIFT_RIGHT_1           (ADC_CFGR2_OVSS_0)                    /*!< ADC oversampl
1113:Drivers/STM32U0xx_HAL_Driver/Inc/stm32u0xx_ll_adc.h ****                                            (sum of the ADC conversions data (after OVS ratio) is di
1114:Drivers/STM32U0xx_HAL_Driver/Inc/stm32u0xx_ll_adc.h ****                                            to result as oversampling conversion data) */
1115:Drivers/STM32U0xx_HAL_Driver/Inc/stm32u0xx_ll_adc.h **** #define LL_ADC_OVS_SHIFT_RIGHT_2           (ADC_CFGR2_OVSS_1)                    /*!< ADC oversampl
1116:Drivers/STM32U0xx_HAL_Driver/Inc/stm32u0xx_ll_adc.h ****                                            (sum of the ADC conversions data (after OVS ratio) is di
1117:Drivers/STM32U0xx_HAL_Driver/Inc/stm32u0xx_ll_adc.h ****                                            to result as oversampling conversion data) */
1118:Drivers/STM32U0xx_HAL_Driver/Inc/stm32u0xx_ll_adc.h **** #define LL_ADC_OVS_SHIFT_RIGHT_3           (ADC_CFGR2_OVSS_1 | ADC_CFGR2_OVSS_0) /*!< ADC oversampl
1119:Drivers/STM32U0xx_HAL_Driver/Inc/stm32u0xx_ll_adc.h ****                                            (sum of the ADC conversions data (after OVS ratio) is di
1120:Drivers/STM32U0xx_HAL_Driver/Inc/stm32u0xx_ll_adc.h ****                                            to result as oversampling conversion data) */
1121:Drivers/STM32U0xx_HAL_Driver/Inc/stm32u0xx_ll_adc.h **** #define LL_ADC_OVS_SHIFT_RIGHT_4           (ADC_CFGR2_OVSS_2)                    /*!< ADC oversampl
1122:Drivers/STM32U0xx_HAL_Driver/Inc/stm32u0xx_ll_adc.h ****                                            (sum of the ADC conversions data (after OVS ratio) is di
1123:Drivers/STM32U0xx_HAL_Driver/Inc/stm32u0xx_ll_adc.h ****                                            to result as oversampling conversion data) */
1124:Drivers/STM32U0xx_HAL_Driver/Inc/stm32u0xx_ll_adc.h **** #define LL_ADC_OVS_SHIFT_RIGHT_5           (ADC_CFGR2_OVSS_2 | ADC_CFGR2_OVSS_0) /*!< ADC oversampl
1125:Drivers/STM32U0xx_HAL_Driver/Inc/stm32u0xx_ll_adc.h ****                                            (sum of the ADC conversions data (after OVS ratio) is di
1126:Drivers/STM32U0xx_HAL_Driver/Inc/stm32u0xx_ll_adc.h ****                                            to result as oversampling conversion data) */
1127:Drivers/STM32U0xx_HAL_Driver/Inc/stm32u0xx_ll_adc.h **** #define LL_ADC_OVS_SHIFT_RIGHT_6           (ADC_CFGR2_OVSS_2 | ADC_CFGR2_OVSS_1) /*!< ADC oversampl
1128:Drivers/STM32U0xx_HAL_Driver/Inc/stm32u0xx_ll_adc.h ****                                            (sum of the ADC conversions data (after OVS ratio) is di
1129:Drivers/STM32U0xx_HAL_Driver/Inc/stm32u0xx_ll_adc.h ****                                            to result as oversampling conversion data) */
1130:Drivers/STM32U0xx_HAL_Driver/Inc/stm32u0xx_ll_adc.h **** #define LL_ADC_OVS_SHIFT_RIGHT_7           (ADC_CFGR2_OVSS_2 | ADC_CFGR2_OVSS_1 \
1131:Drivers/STM32U0xx_HAL_Driver/Inc/stm32u0xx_ll_adc.h ****                                             | ADC_CFGR2_OVSS_0)                   /*!< ADC oversamp
1132:Drivers/STM32U0xx_HAL_Driver/Inc/stm32u0xx_ll_adc.h ****                                            (sum of the ADC conversions data (after OVS ratio) is di
1133:Drivers/STM32U0xx_HAL_Driver/Inc/stm32u0xx_ll_adc.h ****                                            to result as oversampling conversion data) */
1134:Drivers/STM32U0xx_HAL_Driver/Inc/stm32u0xx_ll_adc.h **** #define LL_ADC_OVS_SHIFT_RIGHT_8           (ADC_CFGR2_OVSS_3)                    /*!< ADC oversampl
1135:Drivers/STM32U0xx_HAL_Driver/Inc/stm32u0xx_ll_adc.h ****                                            (sum of the ADC conversions data (after OVS ratio) is di
1136:Drivers/STM32U0xx_HAL_Driver/Inc/stm32u0xx_ll_adc.h ****                                            to result as oversampling conversion data) */
1137:Drivers/STM32U0xx_HAL_Driver/Inc/stm32u0xx_ll_adc.h **** /**
1138:Drivers/STM32U0xx_HAL_Driver/Inc/stm32u0xx_ll_adc.h ****   * @}
1139:Drivers/STM32U0xx_HAL_Driver/Inc/stm32u0xx_ll_adc.h ****   */
1140:Drivers/STM32U0xx_HAL_Driver/Inc/stm32u0xx_ll_adc.h **** 
1141:Drivers/STM32U0xx_HAL_Driver/Inc/stm32u0xx_ll_adc.h **** /** @defgroup ADC_LL_EC_HELPER_MACRO  Definitions of constants used by helper macro
1142:Drivers/STM32U0xx_HAL_Driver/Inc/stm32u0xx_ll_adc.h ****   * @{
1143:Drivers/STM32U0xx_HAL_Driver/Inc/stm32u0xx_ll_adc.h ****   */
1144:Drivers/STM32U0xx_HAL_Driver/Inc/stm32u0xx_ll_adc.h **** #define LL_ADC_TEMPERATURE_CALC_ERROR      ((int16_t)0x7FFF)  /* Temperature calculation error usin
1145:Drivers/STM32U0xx_HAL_Driver/Inc/stm32u0xx_ll_adc.h ****                                                                  @ref __LL_ADC_CALC_TEMPERATURE(), 
1146:Drivers/STM32U0xx_HAL_Driver/Inc/stm32u0xx_ll_adc.h ****                                                                  calibration parameters. This value
1147:Drivers/STM32U0xx_HAL_Driver/Inc/stm32u0xx_ll_adc.h ****                                                                  (to fit on signed word or double w
1148:Drivers/STM32U0xx_HAL_Driver/Inc/stm32u0xx_ll_adc.h ****                                                                  to an inconsistent temperature val
1149:Drivers/STM32U0xx_HAL_Driver/Inc/stm32u0xx_ll_adc.h **** /**
1150:Drivers/STM32U0xx_HAL_Driver/Inc/stm32u0xx_ll_adc.h ****   * @}
1151:Drivers/STM32U0xx_HAL_Driver/Inc/stm32u0xx_ll_adc.h ****   */
1152:Drivers/STM32U0xx_HAL_Driver/Inc/stm32u0xx_ll_adc.h **** 
1153:Drivers/STM32U0xx_HAL_Driver/Inc/stm32u0xx_ll_adc.h **** /** @defgroup ADC_LL_EC_HW_DELAYS  Definitions of ADC hardware constraints delays
1154:Drivers/STM32U0xx_HAL_Driver/Inc/stm32u0xx_ll_adc.h ****   * @note   Only ADC peripheral HW delays are defined in ADC LL driver driver,
1155:Drivers/STM32U0xx_HAL_Driver/Inc/stm32u0xx_ll_adc.h ****   *         not timeout values.
1156:Drivers/STM32U0xx_HAL_Driver/Inc/stm32u0xx_ll_adc.h ****   *         For details on delays values, refer to descriptions in source code
1157:Drivers/STM32U0xx_HAL_Driver/Inc/stm32u0xx_ll_adc.h ****   *         above each literal definition.
1158:Drivers/STM32U0xx_HAL_Driver/Inc/stm32u0xx_ll_adc.h ****   * @{
1159:Drivers/STM32U0xx_HAL_Driver/Inc/stm32u0xx_ll_adc.h ****   */
1160:Drivers/STM32U0xx_HAL_Driver/Inc/stm32u0xx_ll_adc.h **** 
ARM GAS  C:\Users\upo\AppData\Local\Temp\ccZrPTgE.s 			page 25


1161:Drivers/STM32U0xx_HAL_Driver/Inc/stm32u0xx_ll_adc.h **** /* Note: Only ADC peripheral HW delays are defined in ADC LL driver driver,   */
1162:Drivers/STM32U0xx_HAL_Driver/Inc/stm32u0xx_ll_adc.h **** /*       not timeout values.                                                  */
1163:Drivers/STM32U0xx_HAL_Driver/Inc/stm32u0xx_ll_adc.h **** /*       Timeout values for ADC operations are dependent to device clock      */
1164:Drivers/STM32U0xx_HAL_Driver/Inc/stm32u0xx_ll_adc.h **** /*       configuration (system clock versus ADC clock),                       */
1165:Drivers/STM32U0xx_HAL_Driver/Inc/stm32u0xx_ll_adc.h **** /*       and therefore must be defined in user application.                   */
1166:Drivers/STM32U0xx_HAL_Driver/Inc/stm32u0xx_ll_adc.h **** /*       Indications for estimation of ADC timeout delays, for this           */
1167:Drivers/STM32U0xx_HAL_Driver/Inc/stm32u0xx_ll_adc.h **** /*       STM32 series:                                                        */
1168:Drivers/STM32U0xx_HAL_Driver/Inc/stm32u0xx_ll_adc.h **** /*       - ADC calibration time: maximum delay is 82/fADC.                    */
1169:Drivers/STM32U0xx_HAL_Driver/Inc/stm32u0xx_ll_adc.h **** /*         (refer to device datasheet, parameter "tCAL")                      */
1170:Drivers/STM32U0xx_HAL_Driver/Inc/stm32u0xx_ll_adc.h **** /*       - ADC enable time: maximum delay is 1 conversion cycle.              */
1171:Drivers/STM32U0xx_HAL_Driver/Inc/stm32u0xx_ll_adc.h **** /*         (refer to device datasheet, parameter "tSTAB")                     */
1172:Drivers/STM32U0xx_HAL_Driver/Inc/stm32u0xx_ll_adc.h **** /*       - ADC disable time: maximum delay should be a few ADC clock cycles   */
1173:Drivers/STM32U0xx_HAL_Driver/Inc/stm32u0xx_ll_adc.h **** /*       - ADC stop conversion time: maximum delay should be a few ADC clock  */
1174:Drivers/STM32U0xx_HAL_Driver/Inc/stm32u0xx_ll_adc.h **** /*         cycles                                                             */
1175:Drivers/STM32U0xx_HAL_Driver/Inc/stm32u0xx_ll_adc.h **** /*       - ADC conversion time: duration depending on ADC clock and ADC       */
1176:Drivers/STM32U0xx_HAL_Driver/Inc/stm32u0xx_ll_adc.h **** /*         configuration.                                                     */
1177:Drivers/STM32U0xx_HAL_Driver/Inc/stm32u0xx_ll_adc.h **** /*         (refer to device reference manual, section "Timing")               */
1178:Drivers/STM32U0xx_HAL_Driver/Inc/stm32u0xx_ll_adc.h **** 
1179:Drivers/STM32U0xx_HAL_Driver/Inc/stm32u0xx_ll_adc.h **** /* Delay for ADC stabilization time (ADC voltage regulator start-up time)     */
1180:Drivers/STM32U0xx_HAL_Driver/Inc/stm32u0xx_ll_adc.h **** /* Delay set to maximum value (refer to device datasheet,                     */
1181:Drivers/STM32U0xx_HAL_Driver/Inc/stm32u0xx_ll_adc.h **** /* parameter "tADCVREG_STUP").                                                */
1182:Drivers/STM32U0xx_HAL_Driver/Inc/stm32u0xx_ll_adc.h **** /* Unit: us                                                                   */
1183:Drivers/STM32U0xx_HAL_Driver/Inc/stm32u0xx_ll_adc.h **** #define LL_ADC_DELAY_INTERNAL_REGUL_STAB_US ( 20UL)           /*!< Delay for ADC stabilization time
1184:Drivers/STM32U0xx_HAL_Driver/Inc/stm32u0xx_ll_adc.h ****                                                               regulator start-up time) */
1185:Drivers/STM32U0xx_HAL_Driver/Inc/stm32u0xx_ll_adc.h **** 
1186:Drivers/STM32U0xx_HAL_Driver/Inc/stm32u0xx_ll_adc.h **** /* Delay for internal voltage reference stabilization time.                   */
1187:Drivers/STM32U0xx_HAL_Driver/Inc/stm32u0xx_ll_adc.h **** /* Delay set to maximum value (refer to device datasheet,                     */
1188:Drivers/STM32U0xx_HAL_Driver/Inc/stm32u0xx_ll_adc.h **** /* parameter "tstart_vrefint").                                               */
1189:Drivers/STM32U0xx_HAL_Driver/Inc/stm32u0xx_ll_adc.h **** /* Unit: us                                                                   */
1190:Drivers/STM32U0xx_HAL_Driver/Inc/stm32u0xx_ll_adc.h **** #define LL_ADC_DELAY_VREFINT_STAB_US           ( 12UL)        /*!< Delay for internal voltage refer
1191:Drivers/STM32U0xx_HAL_Driver/Inc/stm32u0xx_ll_adc.h ****                                                                    time */
1192:Drivers/STM32U0xx_HAL_Driver/Inc/stm32u0xx_ll_adc.h **** 
1193:Drivers/STM32U0xx_HAL_Driver/Inc/stm32u0xx_ll_adc.h **** /* Delay for temperature sensor stabilization time.                           */
1194:Drivers/STM32U0xx_HAL_Driver/Inc/stm32u0xx_ll_adc.h **** /* Literal set to maximum value (refer to device datasheet,                   */
1195:Drivers/STM32U0xx_HAL_Driver/Inc/stm32u0xx_ll_adc.h **** /* parameter "tSTART").                                                       */
1196:Drivers/STM32U0xx_HAL_Driver/Inc/stm32u0xx_ll_adc.h **** /* Unit: us                                                                   */
1197:Drivers/STM32U0xx_HAL_Driver/Inc/stm32u0xx_ll_adc.h **** #define LL_ADC_DELAY_TEMPSENSOR_STAB_US        (120UL)        /*!< Delay for temperature sensor sta
1198:Drivers/STM32U0xx_HAL_Driver/Inc/stm32u0xx_ll_adc.h ****                                                                    (starting from temperature senso
1199:Drivers/STM32U0xx_HAL_Driver/Inc/stm32u0xx_ll_adc.h ****                                                                    @ref LL_ADC_SetCommonPathInterna
1200:Drivers/STM32U0xx_HAL_Driver/Inc/stm32u0xx_ll_adc.h **** #define LL_ADC_DELAY_TEMPSENSOR_BUFFER_STAB_US ( 15UL)        /*!< Delay for temperature sensor buf
1201:Drivers/STM32U0xx_HAL_Driver/Inc/stm32u0xx_ll_adc.h ****                                                                    time (starting from ADC enable, 
1202:Drivers/STM32U0xx_HAL_Driver/Inc/stm32u0xx_ll_adc.h ****                                                                    @ref LL_ADC_Enable()) */
1203:Drivers/STM32U0xx_HAL_Driver/Inc/stm32u0xx_ll_adc.h **** 
1204:Drivers/STM32U0xx_HAL_Driver/Inc/stm32u0xx_ll_adc.h **** /* Delay required between ADC end of calibration and ADC enable.              */
1205:Drivers/STM32U0xx_HAL_Driver/Inc/stm32u0xx_ll_adc.h **** /* Note: On this STM32 series, a minimum number of ADC clock cycles           */
1206:Drivers/STM32U0xx_HAL_Driver/Inc/stm32u0xx_ll_adc.h **** /*       are required between ADC end of calibration and ADC enable.          */
1207:Drivers/STM32U0xx_HAL_Driver/Inc/stm32u0xx_ll_adc.h **** /*       Wait time can be computed in user application by waiting for the     */
1208:Drivers/STM32U0xx_HAL_Driver/Inc/stm32u0xx_ll_adc.h **** /*       equivalent number of CPU cycles, by taking into account              */
1209:Drivers/STM32U0xx_HAL_Driver/Inc/stm32u0xx_ll_adc.h **** /*       ratio of CPU clock versus ADC clock prescalers.                      */
1210:Drivers/STM32U0xx_HAL_Driver/Inc/stm32u0xx_ll_adc.h **** /* Unit: ADC clock cycles.                                                    */
1211:Drivers/STM32U0xx_HAL_Driver/Inc/stm32u0xx_ll_adc.h **** #define LL_ADC_DELAY_CALIB_ENABLE_ADC_CYCLES   (  2UL)        /*!< Delay required between ADC end o
1212:Drivers/STM32U0xx_HAL_Driver/Inc/stm32u0xx_ll_adc.h ****                                                                    and ADC enable */
1213:Drivers/STM32U0xx_HAL_Driver/Inc/stm32u0xx_ll_adc.h **** 
1214:Drivers/STM32U0xx_HAL_Driver/Inc/stm32u0xx_ll_adc.h **** /**
1215:Drivers/STM32U0xx_HAL_Driver/Inc/stm32u0xx_ll_adc.h ****   * @}
1216:Drivers/STM32U0xx_HAL_Driver/Inc/stm32u0xx_ll_adc.h ****   */
1217:Drivers/STM32U0xx_HAL_Driver/Inc/stm32u0xx_ll_adc.h **** 
ARM GAS  C:\Users\upo\AppData\Local\Temp\ccZrPTgE.s 			page 26


1218:Drivers/STM32U0xx_HAL_Driver/Inc/stm32u0xx_ll_adc.h **** /**
1219:Drivers/STM32U0xx_HAL_Driver/Inc/stm32u0xx_ll_adc.h ****   * @}
1220:Drivers/STM32U0xx_HAL_Driver/Inc/stm32u0xx_ll_adc.h ****   */
1221:Drivers/STM32U0xx_HAL_Driver/Inc/stm32u0xx_ll_adc.h **** 
1222:Drivers/STM32U0xx_HAL_Driver/Inc/stm32u0xx_ll_adc.h **** 
1223:Drivers/STM32U0xx_HAL_Driver/Inc/stm32u0xx_ll_adc.h **** /* Exported macro ------------------------------------------------------------*/
1224:Drivers/STM32U0xx_HAL_Driver/Inc/stm32u0xx_ll_adc.h **** /** @defgroup ADC_LL_Exported_Macros ADC Exported Macros
1225:Drivers/STM32U0xx_HAL_Driver/Inc/stm32u0xx_ll_adc.h ****   * @{
1226:Drivers/STM32U0xx_HAL_Driver/Inc/stm32u0xx_ll_adc.h ****   */
1227:Drivers/STM32U0xx_HAL_Driver/Inc/stm32u0xx_ll_adc.h **** 
1228:Drivers/STM32U0xx_HAL_Driver/Inc/stm32u0xx_ll_adc.h **** /** @defgroup ADC_LL_EM_WRITE_READ Common write and read registers Macros
1229:Drivers/STM32U0xx_HAL_Driver/Inc/stm32u0xx_ll_adc.h ****   * @{
1230:Drivers/STM32U0xx_HAL_Driver/Inc/stm32u0xx_ll_adc.h ****   */
1231:Drivers/STM32U0xx_HAL_Driver/Inc/stm32u0xx_ll_adc.h **** 
1232:Drivers/STM32U0xx_HAL_Driver/Inc/stm32u0xx_ll_adc.h **** /**
1233:Drivers/STM32U0xx_HAL_Driver/Inc/stm32u0xx_ll_adc.h ****   * @brief  Write a value in ADC register
1234:Drivers/STM32U0xx_HAL_Driver/Inc/stm32u0xx_ll_adc.h ****   * @param  __INSTANCE__ ADC Instance
1235:Drivers/STM32U0xx_HAL_Driver/Inc/stm32u0xx_ll_adc.h ****   * @param  __REG__ Register to be written
1236:Drivers/STM32U0xx_HAL_Driver/Inc/stm32u0xx_ll_adc.h ****   * @param  __VALUE__ Value to be written in the register
1237:Drivers/STM32U0xx_HAL_Driver/Inc/stm32u0xx_ll_adc.h ****   * @retval None
1238:Drivers/STM32U0xx_HAL_Driver/Inc/stm32u0xx_ll_adc.h ****   */
1239:Drivers/STM32U0xx_HAL_Driver/Inc/stm32u0xx_ll_adc.h **** #define LL_ADC_WriteReg(__INSTANCE__, __REG__, __VALUE__) WRITE_REG(__INSTANCE__->__REG__, (__VALUE
1240:Drivers/STM32U0xx_HAL_Driver/Inc/stm32u0xx_ll_adc.h **** 
1241:Drivers/STM32U0xx_HAL_Driver/Inc/stm32u0xx_ll_adc.h **** /**
1242:Drivers/STM32U0xx_HAL_Driver/Inc/stm32u0xx_ll_adc.h ****   * @brief  Read a value in ADC register
1243:Drivers/STM32U0xx_HAL_Driver/Inc/stm32u0xx_ll_adc.h ****   * @param  __INSTANCE__ ADC Instance
1244:Drivers/STM32U0xx_HAL_Driver/Inc/stm32u0xx_ll_adc.h ****   * @param  __REG__ Register to be read
1245:Drivers/STM32U0xx_HAL_Driver/Inc/stm32u0xx_ll_adc.h ****   * @retval Register value
1246:Drivers/STM32U0xx_HAL_Driver/Inc/stm32u0xx_ll_adc.h ****   */
1247:Drivers/STM32U0xx_HAL_Driver/Inc/stm32u0xx_ll_adc.h **** #define LL_ADC_ReadReg(__INSTANCE__, __REG__) READ_REG(__INSTANCE__->__REG__)
1248:Drivers/STM32U0xx_HAL_Driver/Inc/stm32u0xx_ll_adc.h **** /**
1249:Drivers/STM32U0xx_HAL_Driver/Inc/stm32u0xx_ll_adc.h ****   * @}
1250:Drivers/STM32U0xx_HAL_Driver/Inc/stm32u0xx_ll_adc.h ****   */
1251:Drivers/STM32U0xx_HAL_Driver/Inc/stm32u0xx_ll_adc.h **** 
1252:Drivers/STM32U0xx_HAL_Driver/Inc/stm32u0xx_ll_adc.h **** /** @defgroup ADC_LL_EM_HELPER_MACRO ADC helper macro
1253:Drivers/STM32U0xx_HAL_Driver/Inc/stm32u0xx_ll_adc.h ****   * @{
1254:Drivers/STM32U0xx_HAL_Driver/Inc/stm32u0xx_ll_adc.h ****   */
1255:Drivers/STM32U0xx_HAL_Driver/Inc/stm32u0xx_ll_adc.h **** 
1256:Drivers/STM32U0xx_HAL_Driver/Inc/stm32u0xx_ll_adc.h **** /**
1257:Drivers/STM32U0xx_HAL_Driver/Inc/stm32u0xx_ll_adc.h ****   * @brief  Helper macro to get ADC channel number in decimal format
1258:Drivers/STM32U0xx_HAL_Driver/Inc/stm32u0xx_ll_adc.h ****   *         from literals LL_ADC_CHANNEL_x.
1259:Drivers/STM32U0xx_HAL_Driver/Inc/stm32u0xx_ll_adc.h ****   * @note   Example:
1260:Drivers/STM32U0xx_HAL_Driver/Inc/stm32u0xx_ll_adc.h ****   *           __LL_ADC_CHANNEL_TO_DECIMAL_NB(LL_ADC_CHANNEL_4)
1261:Drivers/STM32U0xx_HAL_Driver/Inc/stm32u0xx_ll_adc.h ****   *           will return decimal number "4".
1262:Drivers/STM32U0xx_HAL_Driver/Inc/stm32u0xx_ll_adc.h ****   * @note   The input can be a value from functions where a channel
1263:Drivers/STM32U0xx_HAL_Driver/Inc/stm32u0xx_ll_adc.h ****   *         number is returned, either defined with number
1264:Drivers/STM32U0xx_HAL_Driver/Inc/stm32u0xx_ll_adc.h ****   *         or with bitfield (only one bit must be set).
1265:Drivers/STM32U0xx_HAL_Driver/Inc/stm32u0xx_ll_adc.h ****   * @param  __CHANNEL__ This parameter can be one of the following values:
1266:Drivers/STM32U0xx_HAL_Driver/Inc/stm32u0xx_ll_adc.h ****   *         @arg @ref LL_ADC_CHANNEL_0
1267:Drivers/STM32U0xx_HAL_Driver/Inc/stm32u0xx_ll_adc.h ****   *         @arg @ref LL_ADC_CHANNEL_1
1268:Drivers/STM32U0xx_HAL_Driver/Inc/stm32u0xx_ll_adc.h ****   *         @arg @ref LL_ADC_CHANNEL_2
1269:Drivers/STM32U0xx_HAL_Driver/Inc/stm32u0xx_ll_adc.h ****   *         @arg @ref LL_ADC_CHANNEL_3
1270:Drivers/STM32U0xx_HAL_Driver/Inc/stm32u0xx_ll_adc.h ****   *         @arg @ref LL_ADC_CHANNEL_4
1271:Drivers/STM32U0xx_HAL_Driver/Inc/stm32u0xx_ll_adc.h ****   *         @arg @ref LL_ADC_CHANNEL_5
1272:Drivers/STM32U0xx_HAL_Driver/Inc/stm32u0xx_ll_adc.h ****   *         @arg @ref LL_ADC_CHANNEL_6
1273:Drivers/STM32U0xx_HAL_Driver/Inc/stm32u0xx_ll_adc.h ****   *         @arg @ref LL_ADC_CHANNEL_7
1274:Drivers/STM32U0xx_HAL_Driver/Inc/stm32u0xx_ll_adc.h ****   *         @arg @ref LL_ADC_CHANNEL_8
ARM GAS  C:\Users\upo\AppData\Local\Temp\ccZrPTgE.s 			page 27


1275:Drivers/STM32U0xx_HAL_Driver/Inc/stm32u0xx_ll_adc.h ****   *         @arg @ref LL_ADC_CHANNEL_9
1276:Drivers/STM32U0xx_HAL_Driver/Inc/stm32u0xx_ll_adc.h ****   *         @arg @ref LL_ADC_CHANNEL_10
1277:Drivers/STM32U0xx_HAL_Driver/Inc/stm32u0xx_ll_adc.h ****   *         @arg @ref LL_ADC_CHANNEL_11
1278:Drivers/STM32U0xx_HAL_Driver/Inc/stm32u0xx_ll_adc.h ****   *         @arg @ref LL_ADC_CHANNEL_12
1279:Drivers/STM32U0xx_HAL_Driver/Inc/stm32u0xx_ll_adc.h ****   *         @arg @ref LL_ADC_CHANNEL_13
1280:Drivers/STM32U0xx_HAL_Driver/Inc/stm32u0xx_ll_adc.h ****   *         @arg @ref LL_ADC_CHANNEL_14
1281:Drivers/STM32U0xx_HAL_Driver/Inc/stm32u0xx_ll_adc.h ****   *         @arg @ref LL_ADC_CHANNEL_15
1282:Drivers/STM32U0xx_HAL_Driver/Inc/stm32u0xx_ll_adc.h ****   *         @arg @ref LL_ADC_CHANNEL_16
1283:Drivers/STM32U0xx_HAL_Driver/Inc/stm32u0xx_ll_adc.h ****   *         @arg @ref LL_ADC_CHANNEL_17
1284:Drivers/STM32U0xx_HAL_Driver/Inc/stm32u0xx_ll_adc.h ****   *         @arg @ref LL_ADC_CHANNEL_18
1285:Drivers/STM32U0xx_HAL_Driver/Inc/stm32u0xx_ll_adc.h ****   *         @arg @ref LL_ADC_CHANNEL_19
1286:Drivers/STM32U0xx_HAL_Driver/Inc/stm32u0xx_ll_adc.h ****   *         @arg @ref LL_ADC_CHANNEL_TEMPSENSOR
1287:Drivers/STM32U0xx_HAL_Driver/Inc/stm32u0xx_ll_adc.h ****   *         @arg @ref LL_ADC_CHANNEL_VREFINT
1288:Drivers/STM32U0xx_HAL_Driver/Inc/stm32u0xx_ll_adc.h ****   *         @arg @ref LL_ADC_CHANNEL_VBAT
1289:Drivers/STM32U0xx_HAL_Driver/Inc/stm32u0xx_ll_adc.h ****   *         @arg @ref LL_ADC_CHANNEL_DACCH1
1290:Drivers/STM32U0xx_HAL_Driver/Inc/stm32u0xx_ll_adc.h ****   * @retval Value between Min_Data=0 and Max_Data=18
1291:Drivers/STM32U0xx_HAL_Driver/Inc/stm32u0xx_ll_adc.h ****   */
1292:Drivers/STM32U0xx_HAL_Driver/Inc/stm32u0xx_ll_adc.h **** #if defined(CORE_CM0PLUS)
1293:Drivers/STM32U0xx_HAL_Driver/Inc/stm32u0xx_ll_adc.h **** #define __LL_ADC_CHANNEL_TO_DECIMAL_NB(__CHANNEL__)                                                
1294:Drivers/STM32U0xx_HAL_Driver/Inc/stm32u0xx_ll_adc.h ****   ((((__CHANNEL__) & ADC_CHANNEL_ID_BITFIELD_MASK) == 0UL) ?                                       
1295:Drivers/STM32U0xx_HAL_Driver/Inc/stm32u0xx_ll_adc.h ****    (                                                                                               
1296:Drivers/STM32U0xx_HAL_Driver/Inc/stm32u0xx_ll_adc.h ****        ((__CHANNEL__) & ADC_CHANNEL_ID_NUMBER_MASK) >> ADC_CHANNEL_ID_NUMBER_BITOFFSET_POS         
1297:Drivers/STM32U0xx_HAL_Driver/Inc/stm32u0xx_ll_adc.h ****    )                                                                                               
1298:Drivers/STM32U0xx_HAL_Driver/Inc/stm32u0xx_ll_adc.h ****    :                                                                                               
1299:Drivers/STM32U0xx_HAL_Driver/Inc/stm32u0xx_ll_adc.h ****    ((((__CHANNEL__) & ADC_CHANNEL_0_BITFIELD) == ADC_CHANNEL_0_BITFIELD) ? (0UL) :                 
1300:Drivers/STM32U0xx_HAL_Driver/Inc/stm32u0xx_ll_adc.h ****     ((((__CHANNEL__) & ADC_CHANNEL_1_BITFIELD) == ADC_CHANNEL_1_BITFIELD) ? (1UL) :                
1301:Drivers/STM32U0xx_HAL_Driver/Inc/stm32u0xx_ll_adc.h ****      ((((__CHANNEL__) & ADC_CHANNEL_2_BITFIELD) == ADC_CHANNEL_2_BITFIELD) ? (2UL) :               
1302:Drivers/STM32U0xx_HAL_Driver/Inc/stm32u0xx_ll_adc.h ****       ((((__CHANNEL__) & ADC_CHANNEL_3_BITFIELD) == ADC_CHANNEL_3_BITFIELD) ? (3UL) :              
1303:Drivers/STM32U0xx_HAL_Driver/Inc/stm32u0xx_ll_adc.h ****        ((((__CHANNEL__) & ADC_CHANNEL_4_BITFIELD) == ADC_CHANNEL_4_BITFIELD) ? (4UL) :             
1304:Drivers/STM32U0xx_HAL_Driver/Inc/stm32u0xx_ll_adc.h ****         ((((__CHANNEL__) & ADC_CHANNEL_5_BITFIELD) == ADC_CHANNEL_5_BITFIELD) ? (5UL) :            
1305:Drivers/STM32U0xx_HAL_Driver/Inc/stm32u0xx_ll_adc.h ****          ((((__CHANNEL__) & ADC_CHANNEL_6_BITFIELD) == ADC_CHANNEL_6_BITFIELD) ? (6UL) :           
1306:Drivers/STM32U0xx_HAL_Driver/Inc/stm32u0xx_ll_adc.h ****           ((((__CHANNEL__) & ADC_CHANNEL_7_BITFIELD) == ADC_CHANNEL_7_BITFIELD) ? (7UL) :          
1307:Drivers/STM32U0xx_HAL_Driver/Inc/stm32u0xx_ll_adc.h ****            ((((__CHANNEL__) & ADC_CHANNEL_8_BITFIELD) == ADC_CHANNEL_8_BITFIELD) ? (8UL) :         
1308:Drivers/STM32U0xx_HAL_Driver/Inc/stm32u0xx_ll_adc.h ****             ((((__CHANNEL__) & ADC_CHANNEL_9_BITFIELD) == ADC_CHANNEL_9_BITFIELD) ? (9UL) :        
1309:Drivers/STM32U0xx_HAL_Driver/Inc/stm32u0xx_ll_adc.h ****              ((((__CHANNEL__) & ADC_CHANNEL_10_BITFIELD) == ADC_CHANNEL_10_BITFIELD) ? (10UL) :    
1310:Drivers/STM32U0xx_HAL_Driver/Inc/stm32u0xx_ll_adc.h ****               ((((__CHANNEL__) & ADC_CHANNEL_11_BITFIELD) == ADC_CHANNEL_11_BITFIELD) ? (11UL) :   
1311:Drivers/STM32U0xx_HAL_Driver/Inc/stm32u0xx_ll_adc.h ****                ((((__CHANNEL__) & ADC_CHANNEL_12_BITFIELD) == ADC_CHANNEL_12_BITFIELD) ? (12UL) :  
1312:Drivers/STM32U0xx_HAL_Driver/Inc/stm32u0xx_ll_adc.h ****                 ((((__CHANNEL__) & ADC_CHANNEL_13_BITFIELD) == ADC_CHANNEL_13_BITFIELD) ? (13UL) : 
1313:Drivers/STM32U0xx_HAL_Driver/Inc/stm32u0xx_ll_adc.h ****                  ((((__CHANNEL__) & ADC_CHANNEL_14_BITFIELD) == ADC_CHANNEL_14_BITFIELD) ? (14UL) :
1314:Drivers/STM32U0xx_HAL_Driver/Inc/stm32u0xx_ll_adc.h ****                   ((((__CHANNEL__) & ADC_CHANNEL_15_BITFIELD) == ADC_CHANNEL_15_BITFIELD) ? (15UL) 
1315:Drivers/STM32U0xx_HAL_Driver/Inc/stm32u0xx_ll_adc.h ****                    ((((__CHANNEL__) & ADC_CHANNEL_16_BITFIELD) == ADC_CHANNEL_16_BITFIELD) ? (16UL)
1316:Drivers/STM32U0xx_HAL_Driver/Inc/stm32u0xx_ll_adc.h ****                     ((((__CHANNEL__) & ADC_CHANNEL_17_BITFIELD) == ADC_CHANNEL_17_BITFIELD) ? (17UL
1317:Drivers/STM32U0xx_HAL_Driver/Inc/stm32u0xx_ll_adc.h ****                      (0UL))))))))))))))))))))
1318:Drivers/STM32U0xx_HAL_Driver/Inc/stm32u0xx_ll_adc.h **** 
1319:Drivers/STM32U0xx_HAL_Driver/Inc/stm32u0xx_ll_adc.h **** #else
1320:Drivers/STM32U0xx_HAL_Driver/Inc/stm32u0xx_ll_adc.h **** #define __LL_ADC_CHANNEL_TO_DECIMAL_NB(__CHANNEL__)                                        \
1321:Drivers/STM32U0xx_HAL_Driver/Inc/stm32u0xx_ll_adc.h ****   ((((__CHANNEL__) & ADC_CHANNEL_ID_BITFIELD_MASK) == 0UL) ?                               \
1322:Drivers/STM32U0xx_HAL_Driver/Inc/stm32u0xx_ll_adc.h ****    (                                                                                       \
1323:Drivers/STM32U0xx_HAL_Driver/Inc/stm32u0xx_ll_adc.h ****        ((__CHANNEL__) & ADC_CHANNEL_ID_NUMBER_MASK) >> ADC_CHANNEL_ID_NUMBER_BITOFFSET_POS \
1324:Drivers/STM32U0xx_HAL_Driver/Inc/stm32u0xx_ll_adc.h ****    )                                                                                       \
1325:Drivers/STM32U0xx_HAL_Driver/Inc/stm32u0xx_ll_adc.h ****    :                                                                                       \
1326:Drivers/STM32U0xx_HAL_Driver/Inc/stm32u0xx_ll_adc.h ****    (                                                                                       \
1327:Drivers/STM32U0xx_HAL_Driver/Inc/stm32u0xx_ll_adc.h ****        (uint32_t)POSITION_VAL((__CHANNEL__))                                               \
1328:Drivers/STM32U0xx_HAL_Driver/Inc/stm32u0xx_ll_adc.h ****    )                                                                                       \
1329:Drivers/STM32U0xx_HAL_Driver/Inc/stm32u0xx_ll_adc.h ****   )
1330:Drivers/STM32U0xx_HAL_Driver/Inc/stm32u0xx_ll_adc.h **** #endif /* CORE_CM0PLUS */
1331:Drivers/STM32U0xx_HAL_Driver/Inc/stm32u0xx_ll_adc.h **** 
ARM GAS  C:\Users\upo\AppData\Local\Temp\ccZrPTgE.s 			page 28


1332:Drivers/STM32U0xx_HAL_Driver/Inc/stm32u0xx_ll_adc.h **** /**
1333:Drivers/STM32U0xx_HAL_Driver/Inc/stm32u0xx_ll_adc.h ****   * @brief  Helper macro to get ADC channel in literal format LL_ADC_CHANNEL_x
1334:Drivers/STM32U0xx_HAL_Driver/Inc/stm32u0xx_ll_adc.h ****   *         from number in decimal format.
1335:Drivers/STM32U0xx_HAL_Driver/Inc/stm32u0xx_ll_adc.h ****   * @note   Example:
1336:Drivers/STM32U0xx_HAL_Driver/Inc/stm32u0xx_ll_adc.h ****   *           __LL_ADC_DECIMAL_NB_TO_CHANNEL(4)
1337:Drivers/STM32U0xx_HAL_Driver/Inc/stm32u0xx_ll_adc.h ****   *           will return a data equivalent to "LL_ADC_CHANNEL_4".
1338:Drivers/STM32U0xx_HAL_Driver/Inc/stm32u0xx_ll_adc.h ****   * @param  __DECIMAL_NB__ Value between Min_Data=0 and Max_Data=18
1339:Drivers/STM32U0xx_HAL_Driver/Inc/stm32u0xx_ll_adc.h ****   * @retval Returned value can be one of the following values:
1340:Drivers/STM32U0xx_HAL_Driver/Inc/stm32u0xx_ll_adc.h ****   *         @arg @ref LL_ADC_CHANNEL_0
1341:Drivers/STM32U0xx_HAL_Driver/Inc/stm32u0xx_ll_adc.h ****   *         @arg @ref LL_ADC_CHANNEL_1
1342:Drivers/STM32U0xx_HAL_Driver/Inc/stm32u0xx_ll_adc.h ****   *         @arg @ref LL_ADC_CHANNEL_2
1343:Drivers/STM32U0xx_HAL_Driver/Inc/stm32u0xx_ll_adc.h ****   *         @arg @ref LL_ADC_CHANNEL_3
1344:Drivers/STM32U0xx_HAL_Driver/Inc/stm32u0xx_ll_adc.h ****   *         @arg @ref LL_ADC_CHANNEL_4
1345:Drivers/STM32U0xx_HAL_Driver/Inc/stm32u0xx_ll_adc.h ****   *         @arg @ref LL_ADC_CHANNEL_5
1346:Drivers/STM32U0xx_HAL_Driver/Inc/stm32u0xx_ll_adc.h ****   *         @arg @ref LL_ADC_CHANNEL_6
1347:Drivers/STM32U0xx_HAL_Driver/Inc/stm32u0xx_ll_adc.h ****   *         @arg @ref LL_ADC_CHANNEL_7
1348:Drivers/STM32U0xx_HAL_Driver/Inc/stm32u0xx_ll_adc.h ****   *         @arg @ref LL_ADC_CHANNEL_8
1349:Drivers/STM32U0xx_HAL_Driver/Inc/stm32u0xx_ll_adc.h ****   *         @arg @ref LL_ADC_CHANNEL_9
1350:Drivers/STM32U0xx_HAL_Driver/Inc/stm32u0xx_ll_adc.h ****   *         @arg @ref LL_ADC_CHANNEL_10
1351:Drivers/STM32U0xx_HAL_Driver/Inc/stm32u0xx_ll_adc.h ****   *         @arg @ref LL_ADC_CHANNEL_11
1352:Drivers/STM32U0xx_HAL_Driver/Inc/stm32u0xx_ll_adc.h ****   *         @arg @ref LL_ADC_CHANNEL_12
1353:Drivers/STM32U0xx_HAL_Driver/Inc/stm32u0xx_ll_adc.h ****   *         @arg @ref LL_ADC_CHANNEL_13
1354:Drivers/STM32U0xx_HAL_Driver/Inc/stm32u0xx_ll_adc.h ****   *         @arg @ref LL_ADC_CHANNEL_14
1355:Drivers/STM32U0xx_HAL_Driver/Inc/stm32u0xx_ll_adc.h ****   *         @arg @ref LL_ADC_CHANNEL_15
1356:Drivers/STM32U0xx_HAL_Driver/Inc/stm32u0xx_ll_adc.h ****   *         @arg @ref LL_ADC_CHANNEL_16
1357:Drivers/STM32U0xx_HAL_Driver/Inc/stm32u0xx_ll_adc.h ****   *         @arg @ref LL_ADC_CHANNEL_17
1358:Drivers/STM32U0xx_HAL_Driver/Inc/stm32u0xx_ll_adc.h ****   *         @arg @ref LL_ADC_CHANNEL_18
1359:Drivers/STM32U0xx_HAL_Driver/Inc/stm32u0xx_ll_adc.h ****   *         @arg @ref LL_ADC_CHANNEL_19
1360:Drivers/STM32U0xx_HAL_Driver/Inc/stm32u0xx_ll_adc.h ****   *         @arg @ref LL_ADC_CHANNEL_TEMPSENSOR
1361:Drivers/STM32U0xx_HAL_Driver/Inc/stm32u0xx_ll_adc.h ****   *         @arg @ref LL_ADC_CHANNEL_VREFINT
1362:Drivers/STM32U0xx_HAL_Driver/Inc/stm32u0xx_ll_adc.h ****   *         @arg @ref LL_ADC_CHANNEL_VBAT
1363:Drivers/STM32U0xx_HAL_Driver/Inc/stm32u0xx_ll_adc.h ****   *         @arg @ref LL_ADC_CHANNEL_DACCH1
1364:Drivers/STM32U0xx_HAL_Driver/Inc/stm32u0xx_ll_adc.h ****   */
1365:Drivers/STM32U0xx_HAL_Driver/Inc/stm32u0xx_ll_adc.h **** #define __LL_ADC_DECIMAL_NB_TO_CHANNEL(__DECIMAL_NB__)                         \
1366:Drivers/STM32U0xx_HAL_Driver/Inc/stm32u0xx_ll_adc.h ****   (((__DECIMAL_NB__) << ADC_CHANNEL_ID_NUMBER_BITOFFSET_POS) |                 \
1367:Drivers/STM32U0xx_HAL_Driver/Inc/stm32u0xx_ll_adc.h ****    (ADC_CHSELR_CHSEL0 << (__DECIMAL_NB__)))
1368:Drivers/STM32U0xx_HAL_Driver/Inc/stm32u0xx_ll_adc.h **** 
1369:Drivers/STM32U0xx_HAL_Driver/Inc/stm32u0xx_ll_adc.h **** /**
1370:Drivers/STM32U0xx_HAL_Driver/Inc/stm32u0xx_ll_adc.h ****   * @brief  Helper macro to determine whether the selected channel
1371:Drivers/STM32U0xx_HAL_Driver/Inc/stm32u0xx_ll_adc.h ****   *         corresponds to literal definitions of driver.
1372:Drivers/STM32U0xx_HAL_Driver/Inc/stm32u0xx_ll_adc.h ****   * @note   The different literal definitions of ADC channels are:
1373:Drivers/STM32U0xx_HAL_Driver/Inc/stm32u0xx_ll_adc.h ****   *         - ADC internal channel:
1374:Drivers/STM32U0xx_HAL_Driver/Inc/stm32u0xx_ll_adc.h ****   *           LL_ADC_CHANNEL_VREFINT, LL_ADC_CHANNEL_TEMPSENSOR, ...
1375:Drivers/STM32U0xx_HAL_Driver/Inc/stm32u0xx_ll_adc.h ****   *         - ADC external channel (channel connected to a GPIO pin):
1376:Drivers/STM32U0xx_HAL_Driver/Inc/stm32u0xx_ll_adc.h ****   *           LL_ADC_CHANNEL_1, LL_ADC_CHANNEL_2, ...
1377:Drivers/STM32U0xx_HAL_Driver/Inc/stm32u0xx_ll_adc.h ****   * @note   The channel parameter must be a value defined from literal
1378:Drivers/STM32U0xx_HAL_Driver/Inc/stm32u0xx_ll_adc.h ****   *         definition of a ADC internal channel (LL_ADC_CHANNEL_VREFINT,
1379:Drivers/STM32U0xx_HAL_Driver/Inc/stm32u0xx_ll_adc.h ****   *         LL_ADC_CHANNEL_TEMPSENSOR, ...),
1380:Drivers/STM32U0xx_HAL_Driver/Inc/stm32u0xx_ll_adc.h ****   *         ADC external channel (LL_ADC_CHANNEL_1, LL_ADC_CHANNEL_2, ...),
1381:Drivers/STM32U0xx_HAL_Driver/Inc/stm32u0xx_ll_adc.h ****   *         must not be a value from functions where a channel number is
1382:Drivers/STM32U0xx_HAL_Driver/Inc/stm32u0xx_ll_adc.h ****   *         returned from ADC registers,
1383:Drivers/STM32U0xx_HAL_Driver/Inc/stm32u0xx_ll_adc.h ****   *         because internal and external channels share the same channel
1384:Drivers/STM32U0xx_HAL_Driver/Inc/stm32u0xx_ll_adc.h ****   *         number in ADC registers. The differentiation is made only with
1385:Drivers/STM32U0xx_HAL_Driver/Inc/stm32u0xx_ll_adc.h ****   *         parameters definitions of driver.
1386:Drivers/STM32U0xx_HAL_Driver/Inc/stm32u0xx_ll_adc.h ****   * @param  __CHANNEL__ This parameter can be one of the following values:
1387:Drivers/STM32U0xx_HAL_Driver/Inc/stm32u0xx_ll_adc.h ****   *         @arg @ref LL_ADC_CHANNEL_0
1388:Drivers/STM32U0xx_HAL_Driver/Inc/stm32u0xx_ll_adc.h ****   *         @arg @ref LL_ADC_CHANNEL_1
ARM GAS  C:\Users\upo\AppData\Local\Temp\ccZrPTgE.s 			page 29


1389:Drivers/STM32U0xx_HAL_Driver/Inc/stm32u0xx_ll_adc.h ****   *         @arg @ref LL_ADC_CHANNEL_2
1390:Drivers/STM32U0xx_HAL_Driver/Inc/stm32u0xx_ll_adc.h ****   *         @arg @ref LL_ADC_CHANNEL_3
1391:Drivers/STM32U0xx_HAL_Driver/Inc/stm32u0xx_ll_adc.h ****   *         @arg @ref LL_ADC_CHANNEL_4
1392:Drivers/STM32U0xx_HAL_Driver/Inc/stm32u0xx_ll_adc.h ****   *         @arg @ref LL_ADC_CHANNEL_5
1393:Drivers/STM32U0xx_HAL_Driver/Inc/stm32u0xx_ll_adc.h ****   *         @arg @ref LL_ADC_CHANNEL_6
1394:Drivers/STM32U0xx_HAL_Driver/Inc/stm32u0xx_ll_adc.h ****   *         @arg @ref LL_ADC_CHANNEL_7
1395:Drivers/STM32U0xx_HAL_Driver/Inc/stm32u0xx_ll_adc.h ****   *         @arg @ref LL_ADC_CHANNEL_8
1396:Drivers/STM32U0xx_HAL_Driver/Inc/stm32u0xx_ll_adc.h ****   *         @arg @ref LL_ADC_CHANNEL_9
1397:Drivers/STM32U0xx_HAL_Driver/Inc/stm32u0xx_ll_adc.h ****   *         @arg @ref LL_ADC_CHANNEL_10
1398:Drivers/STM32U0xx_HAL_Driver/Inc/stm32u0xx_ll_adc.h ****   *         @arg @ref LL_ADC_CHANNEL_11
1399:Drivers/STM32U0xx_HAL_Driver/Inc/stm32u0xx_ll_adc.h ****   *         @arg @ref LL_ADC_CHANNEL_12
1400:Drivers/STM32U0xx_HAL_Driver/Inc/stm32u0xx_ll_adc.h ****   *         @arg @ref LL_ADC_CHANNEL_13
1401:Drivers/STM32U0xx_HAL_Driver/Inc/stm32u0xx_ll_adc.h ****   *         @arg @ref LL_ADC_CHANNEL_14
1402:Drivers/STM32U0xx_HAL_Driver/Inc/stm32u0xx_ll_adc.h ****   *         @arg @ref LL_ADC_CHANNEL_15
1403:Drivers/STM32U0xx_HAL_Driver/Inc/stm32u0xx_ll_adc.h ****   *         @arg @ref LL_ADC_CHANNEL_16
1404:Drivers/STM32U0xx_HAL_Driver/Inc/stm32u0xx_ll_adc.h ****   *         @arg @ref LL_ADC_CHANNEL_17
1405:Drivers/STM32U0xx_HAL_Driver/Inc/stm32u0xx_ll_adc.h ****   *         @arg @ref LL_ADC_CHANNEL_18
1406:Drivers/STM32U0xx_HAL_Driver/Inc/stm32u0xx_ll_adc.h ****   *         @arg @ref LL_ADC_CHANNEL_19
1407:Drivers/STM32U0xx_HAL_Driver/Inc/stm32u0xx_ll_adc.h ****   *         @arg @ref LL_ADC_CHANNEL_TEMPSENSOR
1408:Drivers/STM32U0xx_HAL_Driver/Inc/stm32u0xx_ll_adc.h ****   *         @arg @ref LL_ADC_CHANNEL_VREFINT
1409:Drivers/STM32U0xx_HAL_Driver/Inc/stm32u0xx_ll_adc.h ****   *         @arg @ref LL_ADC_CHANNEL_VBAT
1410:Drivers/STM32U0xx_HAL_Driver/Inc/stm32u0xx_ll_adc.h ****   *         @arg @ref LL_ADC_CHANNEL_DACCH1
1411:Drivers/STM32U0xx_HAL_Driver/Inc/stm32u0xx_ll_adc.h ****   * @retval Value "0" if the channel corresponds to a parameter definition of a ADC external channe
1412:Drivers/STM32U0xx_HAL_Driver/Inc/stm32u0xx_ll_adc.h ****                       connected to a GPIO pin).
1413:Drivers/STM32U0xx_HAL_Driver/Inc/stm32u0xx_ll_adc.h ****   *         Value "1" if the channel corresponds to a parameter definition of a ADC internal channe
1414:Drivers/STM32U0xx_HAL_Driver/Inc/stm32u0xx_ll_adc.h ****   */
1415:Drivers/STM32U0xx_HAL_Driver/Inc/stm32u0xx_ll_adc.h **** #define __LL_ADC_IS_CHANNEL_INTERNAL(__CHANNEL__)                              \
1416:Drivers/STM32U0xx_HAL_Driver/Inc/stm32u0xx_ll_adc.h ****   (((__CHANNEL__) & ADC_CHANNEL_ID_INTERNAL_CH_MASK) != 0UL)
1417:Drivers/STM32U0xx_HAL_Driver/Inc/stm32u0xx_ll_adc.h **** 
1418:Drivers/STM32U0xx_HAL_Driver/Inc/stm32u0xx_ll_adc.h **** /**
1419:Drivers/STM32U0xx_HAL_Driver/Inc/stm32u0xx_ll_adc.h ****   * @brief  Helper macro to convert a channel defined from parameter
1420:Drivers/STM32U0xx_HAL_Driver/Inc/stm32u0xx_ll_adc.h ****   *         definition of a ADC internal channel (LL_ADC_CHANNEL_VREFINT,
1421:Drivers/STM32U0xx_HAL_Driver/Inc/stm32u0xx_ll_adc.h ****   *         LL_ADC_CHANNEL_TEMPSENSOR, ...),
1422:Drivers/STM32U0xx_HAL_Driver/Inc/stm32u0xx_ll_adc.h ****   *         to its equivalent parameter definition of a ADC external channel
1423:Drivers/STM32U0xx_HAL_Driver/Inc/stm32u0xx_ll_adc.h ****   *         (LL_ADC_CHANNEL_1, LL_ADC_CHANNEL_2, ...).
1424:Drivers/STM32U0xx_HAL_Driver/Inc/stm32u0xx_ll_adc.h ****   * @note   The channel parameter can be, additionally to a value
1425:Drivers/STM32U0xx_HAL_Driver/Inc/stm32u0xx_ll_adc.h ****   *         defined from parameter definition of a ADC internal channel
1426:Drivers/STM32U0xx_HAL_Driver/Inc/stm32u0xx_ll_adc.h ****   *         (LL_ADC_CHANNEL_VREFINT, LL_ADC_CHANNEL_TEMPSENSOR, ...),
1427:Drivers/STM32U0xx_HAL_Driver/Inc/stm32u0xx_ll_adc.h ****   *         a value defined from parameter definition of
1428:Drivers/STM32U0xx_HAL_Driver/Inc/stm32u0xx_ll_adc.h ****   *         ADC external channel (LL_ADC_CHANNEL_1, LL_ADC_CHANNEL_2, ...)
1429:Drivers/STM32U0xx_HAL_Driver/Inc/stm32u0xx_ll_adc.h ****   *         or a value from functions where a channel number is returned
1430:Drivers/STM32U0xx_HAL_Driver/Inc/stm32u0xx_ll_adc.h ****   *         from ADC registers.
1431:Drivers/STM32U0xx_HAL_Driver/Inc/stm32u0xx_ll_adc.h ****   * @param  __CHANNEL__ This parameter can be one of the following values:
1432:Drivers/STM32U0xx_HAL_Driver/Inc/stm32u0xx_ll_adc.h ****   *         @arg @ref LL_ADC_CHANNEL_0
1433:Drivers/STM32U0xx_HAL_Driver/Inc/stm32u0xx_ll_adc.h ****   *         @arg @ref LL_ADC_CHANNEL_1
1434:Drivers/STM32U0xx_HAL_Driver/Inc/stm32u0xx_ll_adc.h ****   *         @arg @ref LL_ADC_CHANNEL_2
1435:Drivers/STM32U0xx_HAL_Driver/Inc/stm32u0xx_ll_adc.h ****   *         @arg @ref LL_ADC_CHANNEL_3
1436:Drivers/STM32U0xx_HAL_Driver/Inc/stm32u0xx_ll_adc.h ****   *         @arg @ref LL_ADC_CHANNEL_4
1437:Drivers/STM32U0xx_HAL_Driver/Inc/stm32u0xx_ll_adc.h ****   *         @arg @ref LL_ADC_CHANNEL_5
1438:Drivers/STM32U0xx_HAL_Driver/Inc/stm32u0xx_ll_adc.h ****   *         @arg @ref LL_ADC_CHANNEL_6
1439:Drivers/STM32U0xx_HAL_Driver/Inc/stm32u0xx_ll_adc.h ****   *         @arg @ref LL_ADC_CHANNEL_7
1440:Drivers/STM32U0xx_HAL_Driver/Inc/stm32u0xx_ll_adc.h ****   *         @arg @ref LL_ADC_CHANNEL_8
1441:Drivers/STM32U0xx_HAL_Driver/Inc/stm32u0xx_ll_adc.h ****   *         @arg @ref LL_ADC_CHANNEL_9
1442:Drivers/STM32U0xx_HAL_Driver/Inc/stm32u0xx_ll_adc.h ****   *         @arg @ref LL_ADC_CHANNEL_10
1443:Drivers/STM32U0xx_HAL_Driver/Inc/stm32u0xx_ll_adc.h ****   *         @arg @ref LL_ADC_CHANNEL_11
1444:Drivers/STM32U0xx_HAL_Driver/Inc/stm32u0xx_ll_adc.h ****   *         @arg @ref LL_ADC_CHANNEL_12
1445:Drivers/STM32U0xx_HAL_Driver/Inc/stm32u0xx_ll_adc.h ****   *         @arg @ref LL_ADC_CHANNEL_13
ARM GAS  C:\Users\upo\AppData\Local\Temp\ccZrPTgE.s 			page 30


1446:Drivers/STM32U0xx_HAL_Driver/Inc/stm32u0xx_ll_adc.h ****   *         @arg @ref LL_ADC_CHANNEL_14
1447:Drivers/STM32U0xx_HAL_Driver/Inc/stm32u0xx_ll_adc.h ****   *         @arg @ref LL_ADC_CHANNEL_15
1448:Drivers/STM32U0xx_HAL_Driver/Inc/stm32u0xx_ll_adc.h ****   *         @arg @ref LL_ADC_CHANNEL_16
1449:Drivers/STM32U0xx_HAL_Driver/Inc/stm32u0xx_ll_adc.h ****   *         @arg @ref LL_ADC_CHANNEL_17
1450:Drivers/STM32U0xx_HAL_Driver/Inc/stm32u0xx_ll_adc.h ****   *         @arg @ref LL_ADC_CHANNEL_18
1451:Drivers/STM32U0xx_HAL_Driver/Inc/stm32u0xx_ll_adc.h ****   *         @arg @ref LL_ADC_CHANNEL_19
1452:Drivers/STM32U0xx_HAL_Driver/Inc/stm32u0xx_ll_adc.h ****   *         @arg @ref LL_ADC_CHANNEL_TEMPSENSOR
1453:Drivers/STM32U0xx_HAL_Driver/Inc/stm32u0xx_ll_adc.h ****   *         @arg @ref LL_ADC_CHANNEL_VREFINT
1454:Drivers/STM32U0xx_HAL_Driver/Inc/stm32u0xx_ll_adc.h ****   *         @arg @ref LL_ADC_CHANNEL_VBAT
1455:Drivers/STM32U0xx_HAL_Driver/Inc/stm32u0xx_ll_adc.h ****   *         @arg @ref LL_ADC_CHANNEL_DACCH1
1456:Drivers/STM32U0xx_HAL_Driver/Inc/stm32u0xx_ll_adc.h ****   * @retval Returned value can be one of the following values:
1457:Drivers/STM32U0xx_HAL_Driver/Inc/stm32u0xx_ll_adc.h ****   *         @arg @ref LL_ADC_CHANNEL_0
1458:Drivers/STM32U0xx_HAL_Driver/Inc/stm32u0xx_ll_adc.h ****   *         @arg @ref LL_ADC_CHANNEL_1
1459:Drivers/STM32U0xx_HAL_Driver/Inc/stm32u0xx_ll_adc.h ****   *         @arg @ref LL_ADC_CHANNEL_2
1460:Drivers/STM32U0xx_HAL_Driver/Inc/stm32u0xx_ll_adc.h ****   *         @arg @ref LL_ADC_CHANNEL_3
1461:Drivers/STM32U0xx_HAL_Driver/Inc/stm32u0xx_ll_adc.h ****   *         @arg @ref LL_ADC_CHANNEL_4
1462:Drivers/STM32U0xx_HAL_Driver/Inc/stm32u0xx_ll_adc.h ****   *         @arg @ref LL_ADC_CHANNEL_5
1463:Drivers/STM32U0xx_HAL_Driver/Inc/stm32u0xx_ll_adc.h ****   *         @arg @ref LL_ADC_CHANNEL_6
1464:Drivers/STM32U0xx_HAL_Driver/Inc/stm32u0xx_ll_adc.h ****   *         @arg @ref LL_ADC_CHANNEL_7
1465:Drivers/STM32U0xx_HAL_Driver/Inc/stm32u0xx_ll_adc.h ****   *         @arg @ref LL_ADC_CHANNEL_8
1466:Drivers/STM32U0xx_HAL_Driver/Inc/stm32u0xx_ll_adc.h ****   *         @arg @ref LL_ADC_CHANNEL_9
1467:Drivers/STM32U0xx_HAL_Driver/Inc/stm32u0xx_ll_adc.h ****   *         @arg @ref LL_ADC_CHANNEL_10
1468:Drivers/STM32U0xx_HAL_Driver/Inc/stm32u0xx_ll_adc.h ****   *         @arg @ref LL_ADC_CHANNEL_11
1469:Drivers/STM32U0xx_HAL_Driver/Inc/stm32u0xx_ll_adc.h ****   *         @arg @ref LL_ADC_CHANNEL_12
1470:Drivers/STM32U0xx_HAL_Driver/Inc/stm32u0xx_ll_adc.h ****   *         @arg @ref LL_ADC_CHANNEL_13
1471:Drivers/STM32U0xx_HAL_Driver/Inc/stm32u0xx_ll_adc.h ****   *         @arg @ref LL_ADC_CHANNEL_14
1472:Drivers/STM32U0xx_HAL_Driver/Inc/stm32u0xx_ll_adc.h ****   *         @arg @ref LL_ADC_CHANNEL_15
1473:Drivers/STM32U0xx_HAL_Driver/Inc/stm32u0xx_ll_adc.h ****   *         @arg @ref LL_ADC_CHANNEL_16
1474:Drivers/STM32U0xx_HAL_Driver/Inc/stm32u0xx_ll_adc.h ****   *         @arg @ref LL_ADC_CHANNEL_17
1475:Drivers/STM32U0xx_HAL_Driver/Inc/stm32u0xx_ll_adc.h ****   *         @arg @ref LL_ADC_CHANNEL_18
1476:Drivers/STM32U0xx_HAL_Driver/Inc/stm32u0xx_ll_adc.h ****   *         @arg @ref LL_ADC_CHANNEL_19
1477:Drivers/STM32U0xx_HAL_Driver/Inc/stm32u0xx_ll_adc.h ****   */
1478:Drivers/STM32U0xx_HAL_Driver/Inc/stm32u0xx_ll_adc.h **** #define __LL_ADC_CHANNEL_INTERNAL_TO_EXTERNAL(__CHANNEL__)                     \
1479:Drivers/STM32U0xx_HAL_Driver/Inc/stm32u0xx_ll_adc.h ****   ((__CHANNEL__) & ~ADC_CHANNEL_ID_INTERNAL_CH_MASK)
1480:Drivers/STM32U0xx_HAL_Driver/Inc/stm32u0xx_ll_adc.h **** 
1481:Drivers/STM32U0xx_HAL_Driver/Inc/stm32u0xx_ll_adc.h **** /**
1482:Drivers/STM32U0xx_HAL_Driver/Inc/stm32u0xx_ll_adc.h ****   * @brief  Helper macro to determine whether the internal channel
1483:Drivers/STM32U0xx_HAL_Driver/Inc/stm32u0xx_ll_adc.h ****   *         selected is available on the ADC instance selected.
1484:Drivers/STM32U0xx_HAL_Driver/Inc/stm32u0xx_ll_adc.h ****   * @note   The channel parameter must be a value defined from parameter
1485:Drivers/STM32U0xx_HAL_Driver/Inc/stm32u0xx_ll_adc.h ****   *         definition of a ADC internal channel (LL_ADC_CHANNEL_VREFINT,
1486:Drivers/STM32U0xx_HAL_Driver/Inc/stm32u0xx_ll_adc.h ****   *         LL_ADC_CHANNEL_TEMPSENSOR, ...),
1487:Drivers/STM32U0xx_HAL_Driver/Inc/stm32u0xx_ll_adc.h ****   *         must not be a value defined from parameter definition of
1488:Drivers/STM32U0xx_HAL_Driver/Inc/stm32u0xx_ll_adc.h ****   *         ADC external channel (LL_ADC_CHANNEL_1, LL_ADC_CHANNEL_2, ...)
1489:Drivers/STM32U0xx_HAL_Driver/Inc/stm32u0xx_ll_adc.h ****   *         or a value from functions where a channel number is
1490:Drivers/STM32U0xx_HAL_Driver/Inc/stm32u0xx_ll_adc.h ****   *         returned from ADC registers,
1491:Drivers/STM32U0xx_HAL_Driver/Inc/stm32u0xx_ll_adc.h ****   *         because internal and external channels share the same channel
1492:Drivers/STM32U0xx_HAL_Driver/Inc/stm32u0xx_ll_adc.h ****   *         number in ADC registers. The differentiation is made only with
1493:Drivers/STM32U0xx_HAL_Driver/Inc/stm32u0xx_ll_adc.h ****   *         parameters definitions of driver.
1494:Drivers/STM32U0xx_HAL_Driver/Inc/stm32u0xx_ll_adc.h ****   * @param  __ADC_INSTANCE__ ADC instance
1495:Drivers/STM32U0xx_HAL_Driver/Inc/stm32u0xx_ll_adc.h ****   * @param  __CHANNEL__ This parameter can be one of the following values:
1496:Drivers/STM32U0xx_HAL_Driver/Inc/stm32u0xx_ll_adc.h ****   *         @arg @ref LL_ADC_CHANNEL_TEMPSENSOR
1497:Drivers/STM32U0xx_HAL_Driver/Inc/stm32u0xx_ll_adc.h ****   *         @arg @ref LL_ADC_CHANNEL_VREFINT
1498:Drivers/STM32U0xx_HAL_Driver/Inc/stm32u0xx_ll_adc.h ****   *         @arg @ref LL_ADC_CHANNEL_VBAT
1499:Drivers/STM32U0xx_HAL_Driver/Inc/stm32u0xx_ll_adc.h ****   *         @arg @ref LL_ADC_CHANNEL_DACCH1
1500:Drivers/STM32U0xx_HAL_Driver/Inc/stm32u0xx_ll_adc.h ****   * @retval Value "0" if the internal channel selected is not available on the ADC instance selecte
1501:Drivers/STM32U0xx_HAL_Driver/Inc/stm32u0xx_ll_adc.h ****   *         Value "1" if the internal channel selected is available on the ADC instance selected.
1502:Drivers/STM32U0xx_HAL_Driver/Inc/stm32u0xx_ll_adc.h ****   */
ARM GAS  C:\Users\upo\AppData\Local\Temp\ccZrPTgE.s 			page 31


1503:Drivers/STM32U0xx_HAL_Driver/Inc/stm32u0xx_ll_adc.h **** #define __LL_ADC_IS_CHANNEL_INTERNAL_AVAILABLE(__ADC_INSTANCE__, __CHANNEL__)  \
1504:Drivers/STM32U0xx_HAL_Driver/Inc/stm32u0xx_ll_adc.h ****   (((__CHANNEL__) == LL_ADC_CHANNEL_VREFINT)    ||                             \
1505:Drivers/STM32U0xx_HAL_Driver/Inc/stm32u0xx_ll_adc.h ****    ((__CHANNEL__) == LL_ADC_CHANNEL_TEMPSENSOR) ||                             \
1506:Drivers/STM32U0xx_HAL_Driver/Inc/stm32u0xx_ll_adc.h ****    ((__CHANNEL__) == LL_ADC_CHANNEL_VBAT)       ||                             \
1507:Drivers/STM32U0xx_HAL_Driver/Inc/stm32u0xx_ll_adc.h ****    ((__CHANNEL__) == LL_ADC_CHANNEL_DACCH1))
1508:Drivers/STM32U0xx_HAL_Driver/Inc/stm32u0xx_ll_adc.h **** 
1509:Drivers/STM32U0xx_HAL_Driver/Inc/stm32u0xx_ll_adc.h **** /**
1510:Drivers/STM32U0xx_HAL_Driver/Inc/stm32u0xx_ll_adc.h ****   * @brief  Helper macro to define ADC analog watchdog parameter:
1511:Drivers/STM32U0xx_HAL_Driver/Inc/stm32u0xx_ll_adc.h ****   *         define a single channel to monitor with analog watchdog
1512:Drivers/STM32U0xx_HAL_Driver/Inc/stm32u0xx_ll_adc.h ****   *         from sequencer channel and groups definition.
1513:Drivers/STM32U0xx_HAL_Driver/Inc/stm32u0xx_ll_adc.h ****   * @note   To be used with function @ref LL_ADC_SetAnalogWDMonitChannels().
1514:Drivers/STM32U0xx_HAL_Driver/Inc/stm32u0xx_ll_adc.h ****   *         Example:
1515:Drivers/STM32U0xx_HAL_Driver/Inc/stm32u0xx_ll_adc.h ****   *           LL_ADC_SetAnalogWDMonitChannels(
1516:Drivers/STM32U0xx_HAL_Driver/Inc/stm32u0xx_ll_adc.h ****   *             ADC1, LL_ADC_AWD1,
1517:Drivers/STM32U0xx_HAL_Driver/Inc/stm32u0xx_ll_adc.h ****   *             __LL_ADC_ANALOGWD_CHANNEL_GROUP(LL_ADC_CHANNEL4, LL_ADC_GROUP_REGULAR))
1518:Drivers/STM32U0xx_HAL_Driver/Inc/stm32u0xx_ll_adc.h ****   * @param  __CHANNEL__ This parameter can be one of the following values:
1519:Drivers/STM32U0xx_HAL_Driver/Inc/stm32u0xx_ll_adc.h ****   *         @arg @ref LL_ADC_CHANNEL_0
1520:Drivers/STM32U0xx_HAL_Driver/Inc/stm32u0xx_ll_adc.h ****   *         @arg @ref LL_ADC_CHANNEL_1
1521:Drivers/STM32U0xx_HAL_Driver/Inc/stm32u0xx_ll_adc.h ****   *         @arg @ref LL_ADC_CHANNEL_2
1522:Drivers/STM32U0xx_HAL_Driver/Inc/stm32u0xx_ll_adc.h ****   *         @arg @ref LL_ADC_CHANNEL_3
1523:Drivers/STM32U0xx_HAL_Driver/Inc/stm32u0xx_ll_adc.h ****   *         @arg @ref LL_ADC_CHANNEL_4
1524:Drivers/STM32U0xx_HAL_Driver/Inc/stm32u0xx_ll_adc.h ****   *         @arg @ref LL_ADC_CHANNEL_5
1525:Drivers/STM32U0xx_HAL_Driver/Inc/stm32u0xx_ll_adc.h ****   *         @arg @ref LL_ADC_CHANNEL_6
1526:Drivers/STM32U0xx_HAL_Driver/Inc/stm32u0xx_ll_adc.h ****   *         @arg @ref LL_ADC_CHANNEL_7
1527:Drivers/STM32U0xx_HAL_Driver/Inc/stm32u0xx_ll_adc.h ****   *         @arg @ref LL_ADC_CHANNEL_8
1528:Drivers/STM32U0xx_HAL_Driver/Inc/stm32u0xx_ll_adc.h ****   *         @arg @ref LL_ADC_CHANNEL_9
1529:Drivers/STM32U0xx_HAL_Driver/Inc/stm32u0xx_ll_adc.h ****   *         @arg @ref LL_ADC_CHANNEL_10
1530:Drivers/STM32U0xx_HAL_Driver/Inc/stm32u0xx_ll_adc.h ****   *         @arg @ref LL_ADC_CHANNEL_11
1531:Drivers/STM32U0xx_HAL_Driver/Inc/stm32u0xx_ll_adc.h ****   *         @arg @ref LL_ADC_CHANNEL_12
1532:Drivers/STM32U0xx_HAL_Driver/Inc/stm32u0xx_ll_adc.h ****   *         @arg @ref LL_ADC_CHANNEL_13
1533:Drivers/STM32U0xx_HAL_Driver/Inc/stm32u0xx_ll_adc.h ****   *         @arg @ref LL_ADC_CHANNEL_14
1534:Drivers/STM32U0xx_HAL_Driver/Inc/stm32u0xx_ll_adc.h ****   *         @arg @ref LL_ADC_CHANNEL_15
1535:Drivers/STM32U0xx_HAL_Driver/Inc/stm32u0xx_ll_adc.h ****   *         @arg @ref LL_ADC_CHANNEL_16
1536:Drivers/STM32U0xx_HAL_Driver/Inc/stm32u0xx_ll_adc.h ****   *         @arg @ref LL_ADC_CHANNEL_17
1537:Drivers/STM32U0xx_HAL_Driver/Inc/stm32u0xx_ll_adc.h ****   *         @arg @ref LL_ADC_CHANNEL_18
1538:Drivers/STM32U0xx_HAL_Driver/Inc/stm32u0xx_ll_adc.h ****   *         @arg @ref LL_ADC_CHANNEL_19
1539:Drivers/STM32U0xx_HAL_Driver/Inc/stm32u0xx_ll_adc.h ****   *         @arg @ref LL_ADC_CHANNEL_TEMPSENSOR
1540:Drivers/STM32U0xx_HAL_Driver/Inc/stm32u0xx_ll_adc.h ****   *         @arg @ref LL_ADC_CHANNEL_VREFINT
1541:Drivers/STM32U0xx_HAL_Driver/Inc/stm32u0xx_ll_adc.h ****   *         @arg @ref LL_ADC_CHANNEL_VBAT
1542:Drivers/STM32U0xx_HAL_Driver/Inc/stm32u0xx_ll_adc.h ****   *         @arg @ref LL_ADC_CHANNEL_DACCH1
1543:Drivers/STM32U0xx_HAL_Driver/Inc/stm32u0xx_ll_adc.h ****   * @param  __GROUP__ This parameter can be one of the following values:
1544:Drivers/STM32U0xx_HAL_Driver/Inc/stm32u0xx_ll_adc.h ****   *         @arg @ref LL_ADC_GROUP_REGULAR
1545:Drivers/STM32U0xx_HAL_Driver/Inc/stm32u0xx_ll_adc.h ****   * @retval Returned value can be one of the following values:
1546:Drivers/STM32U0xx_HAL_Driver/Inc/stm32u0xx_ll_adc.h ****   *         @arg @ref LL_ADC_AWD_DISABLE
1547:Drivers/STM32U0xx_HAL_Driver/Inc/stm32u0xx_ll_adc.h ****   *         @arg @ref LL_ADC_AWD_ALL_CHANNELS_REG
1548:Drivers/STM32U0xx_HAL_Driver/Inc/stm32u0xx_ll_adc.h ****   *         @arg @ref LL_ADC_AWD_CHANNEL_0_REG
1549:Drivers/STM32U0xx_HAL_Driver/Inc/stm32u0xx_ll_adc.h ****   *         @arg @ref LL_ADC_AWD_CHANNEL_1_REG
1550:Drivers/STM32U0xx_HAL_Driver/Inc/stm32u0xx_ll_adc.h ****   *         @arg @ref LL_ADC_AWD_CHANNEL_2_REG
1551:Drivers/STM32U0xx_HAL_Driver/Inc/stm32u0xx_ll_adc.h ****   *         @arg @ref LL_ADC_AWD_CHANNEL_3_REG
1552:Drivers/STM32U0xx_HAL_Driver/Inc/stm32u0xx_ll_adc.h ****   *         @arg @ref LL_ADC_AWD_CHANNEL_4_REG
1553:Drivers/STM32U0xx_HAL_Driver/Inc/stm32u0xx_ll_adc.h ****   *         @arg @ref LL_ADC_AWD_CHANNEL_5_REG
1554:Drivers/STM32U0xx_HAL_Driver/Inc/stm32u0xx_ll_adc.h ****   *         @arg @ref LL_ADC_AWD_CHANNEL_6_REG
1555:Drivers/STM32U0xx_HAL_Driver/Inc/stm32u0xx_ll_adc.h ****   *         @arg @ref LL_ADC_AWD_CHANNEL_7_REG
1556:Drivers/STM32U0xx_HAL_Driver/Inc/stm32u0xx_ll_adc.h ****   *         @arg @ref LL_ADC_AWD_CHANNEL_8_REG
1557:Drivers/STM32U0xx_HAL_Driver/Inc/stm32u0xx_ll_adc.h ****   *         @arg @ref LL_ADC_AWD_CHANNEL_9_REG
1558:Drivers/STM32U0xx_HAL_Driver/Inc/stm32u0xx_ll_adc.h ****   *         @arg @ref LL_ADC_AWD_CHANNEL_10_REG
1559:Drivers/STM32U0xx_HAL_Driver/Inc/stm32u0xx_ll_adc.h ****   *         @arg @ref LL_ADC_AWD_CHANNEL_11_REG
ARM GAS  C:\Users\upo\AppData\Local\Temp\ccZrPTgE.s 			page 32


1560:Drivers/STM32U0xx_HAL_Driver/Inc/stm32u0xx_ll_adc.h ****   *         @arg @ref LL_ADC_AWD_CHANNEL_12_REG
1561:Drivers/STM32U0xx_HAL_Driver/Inc/stm32u0xx_ll_adc.h ****   *         @arg @ref LL_ADC_AWD_CHANNEL_13_REG
1562:Drivers/STM32U0xx_HAL_Driver/Inc/stm32u0xx_ll_adc.h ****   *         @arg @ref LL_ADC_AWD_CHANNEL_14_REG
1563:Drivers/STM32U0xx_HAL_Driver/Inc/stm32u0xx_ll_adc.h ****   *         @arg @ref LL_ADC_AWD_CHANNEL_15_REG
1564:Drivers/STM32U0xx_HAL_Driver/Inc/stm32u0xx_ll_adc.h ****   *         @arg @ref LL_ADC_AWD_CHANNEL_16_REG
1565:Drivers/STM32U0xx_HAL_Driver/Inc/stm32u0xx_ll_adc.h ****   *         @arg @ref LL_ADC_AWD_CHANNEL_17_REG
1566:Drivers/STM32U0xx_HAL_Driver/Inc/stm32u0xx_ll_adc.h ****   *         @arg @ref LL_ADC_AWD_CHANNEL_18_REG
1567:Drivers/STM32U0xx_HAL_Driver/Inc/stm32u0xx_ll_adc.h ****   *         @arg @ref LL_ADC_AWD_CHANNEL_19_REG
1568:Drivers/STM32U0xx_HAL_Driver/Inc/stm32u0xx_ll_adc.h ****   *         @arg @ref LL_ADC_AWD_CH_TEMPSENSOR_REG
1569:Drivers/STM32U0xx_HAL_Driver/Inc/stm32u0xx_ll_adc.h ****   *         @arg @ref LL_ADC_AWD_CH_VREFINT_REG
1570:Drivers/STM32U0xx_HAL_Driver/Inc/stm32u0xx_ll_adc.h ****   *         @arg @ref LL_ADC_AWD_CH_VBAT_REG
1571:Drivers/STM32U0xx_HAL_Driver/Inc/stm32u0xx_ll_adc.h ****   *         @arg @ref LL_ADC_AWD_CH_DACCH1_REG
1572:Drivers/STM32U0xx_HAL_Driver/Inc/stm32u0xx_ll_adc.h ****   */
1573:Drivers/STM32U0xx_HAL_Driver/Inc/stm32u0xx_ll_adc.h **** #define __LL_ADC_ANALOGWD_CHANNEL_GROUP(__CHANNEL__, __GROUP__)                                    
1574:Drivers/STM32U0xx_HAL_Driver/Inc/stm32u0xx_ll_adc.h ****   (((__CHANNEL__) & ADC_CHANNEL_ID_MASK) | ADC_CFGR1_AWD1EN | ADC_CFGR1_AWD1SGL)
1575:Drivers/STM32U0xx_HAL_Driver/Inc/stm32u0xx_ll_adc.h **** 
1576:Drivers/STM32U0xx_HAL_Driver/Inc/stm32u0xx_ll_adc.h **** /**
1577:Drivers/STM32U0xx_HAL_Driver/Inc/stm32u0xx_ll_adc.h ****   * @brief  Helper macro to set the value of ADC analog watchdog threshold high
1578:Drivers/STM32U0xx_HAL_Driver/Inc/stm32u0xx_ll_adc.h ****   *         or low in function of ADC resolution, when ADC resolution is
1579:Drivers/STM32U0xx_HAL_Driver/Inc/stm32u0xx_ll_adc.h ****   *         different of 12 bits.
1580:Drivers/STM32U0xx_HAL_Driver/Inc/stm32u0xx_ll_adc.h ****   * @note   To be used with function @ref LL_ADC_ConfigAnalogWDThresholds()
1581:Drivers/STM32U0xx_HAL_Driver/Inc/stm32u0xx_ll_adc.h ****   *         or @ref LL_ADC_SetAnalogWDThresholds().
1582:Drivers/STM32U0xx_HAL_Driver/Inc/stm32u0xx_ll_adc.h ****   *         Example, with a ADC resolution of 8 bits, to set the value of
1583:Drivers/STM32U0xx_HAL_Driver/Inc/stm32u0xx_ll_adc.h ****   *         analog watchdog threshold high (on 8 bits):
1584:Drivers/STM32U0xx_HAL_Driver/Inc/stm32u0xx_ll_adc.h ****   *           LL_ADC_SetAnalogWDThresholds
1585:Drivers/STM32U0xx_HAL_Driver/Inc/stm32u0xx_ll_adc.h ****   *            (< ADCx param >,
1586:Drivers/STM32U0xx_HAL_Driver/Inc/stm32u0xx_ll_adc.h ****   *             __LL_ADC_ANALOGWD_SET_THRESHOLD_RESOLUTION(LL_ADC_RESOLUTION_8B, <threshold_value_8
1587:Drivers/STM32U0xx_HAL_Driver/Inc/stm32u0xx_ll_adc.h ****   *            );
1588:Drivers/STM32U0xx_HAL_Driver/Inc/stm32u0xx_ll_adc.h ****   * @param  __ADC_RESOLUTION__ This parameter can be one of the following values:
1589:Drivers/STM32U0xx_HAL_Driver/Inc/stm32u0xx_ll_adc.h ****   *         @arg @ref LL_ADC_RESOLUTION_12B
1590:Drivers/STM32U0xx_HAL_Driver/Inc/stm32u0xx_ll_adc.h ****   *         @arg @ref LL_ADC_RESOLUTION_10B
1591:Drivers/STM32U0xx_HAL_Driver/Inc/stm32u0xx_ll_adc.h ****   *         @arg @ref LL_ADC_RESOLUTION_8B
1592:Drivers/STM32U0xx_HAL_Driver/Inc/stm32u0xx_ll_adc.h ****   *         @arg @ref LL_ADC_RESOLUTION_6B
1593:Drivers/STM32U0xx_HAL_Driver/Inc/stm32u0xx_ll_adc.h ****   * @param  __AWD_THRESHOLD__ Value between Min_Data=0x000 and Max_Data=0xFFF
1594:Drivers/STM32U0xx_HAL_Driver/Inc/stm32u0xx_ll_adc.h ****   * @retval Value between Min_Data=0x000 and Max_Data=0xFFF
1595:Drivers/STM32U0xx_HAL_Driver/Inc/stm32u0xx_ll_adc.h ****   */
1596:Drivers/STM32U0xx_HAL_Driver/Inc/stm32u0xx_ll_adc.h **** #define __LL_ADC_ANALOGWD_SET_THRESHOLD_RESOLUTION(__ADC_RESOLUTION__, __AWD_THRESHOLD__) \
1597:Drivers/STM32U0xx_HAL_Driver/Inc/stm32u0xx_ll_adc.h ****   ((__AWD_THRESHOLD__) << ((__ADC_RESOLUTION__) >> (ADC_CFGR1_RES_BITOFFSET_POS - 1U )))
1598:Drivers/STM32U0xx_HAL_Driver/Inc/stm32u0xx_ll_adc.h **** 
1599:Drivers/STM32U0xx_HAL_Driver/Inc/stm32u0xx_ll_adc.h **** /**
1600:Drivers/STM32U0xx_HAL_Driver/Inc/stm32u0xx_ll_adc.h ****   * @brief  Helper macro to get the value of ADC analog watchdog threshold high
1601:Drivers/STM32U0xx_HAL_Driver/Inc/stm32u0xx_ll_adc.h ****   *         or low in function of ADC resolution, when ADC resolution is
1602:Drivers/STM32U0xx_HAL_Driver/Inc/stm32u0xx_ll_adc.h ****   *         different of 12 bits.
1603:Drivers/STM32U0xx_HAL_Driver/Inc/stm32u0xx_ll_adc.h ****   * @note   To be used with function @ref LL_ADC_GetAnalogWDThresholds().
1604:Drivers/STM32U0xx_HAL_Driver/Inc/stm32u0xx_ll_adc.h ****   *         Example, with a ADC resolution of 8 bits, to get the value of
1605:Drivers/STM32U0xx_HAL_Driver/Inc/stm32u0xx_ll_adc.h ****   *         analog watchdog threshold high (on 8 bits):
1606:Drivers/STM32U0xx_HAL_Driver/Inc/stm32u0xx_ll_adc.h ****   *           < threshold_value_6_bits > = __LL_ADC_ANALOGWD_GET_THRESHOLD_RESOLUTION
1607:Drivers/STM32U0xx_HAL_Driver/Inc/stm32u0xx_ll_adc.h ****   *            (LL_ADC_RESOLUTION_8B,
1608:Drivers/STM32U0xx_HAL_Driver/Inc/stm32u0xx_ll_adc.h ****   *             LL_ADC_GetAnalogWDThresholds(<ADCx param>, LL_ADC_AWD_THRESHOLD_HIGH)
1609:Drivers/STM32U0xx_HAL_Driver/Inc/stm32u0xx_ll_adc.h ****   *            );
1610:Drivers/STM32U0xx_HAL_Driver/Inc/stm32u0xx_ll_adc.h ****   * @param  __ADC_RESOLUTION__ This parameter can be one of the following values:
1611:Drivers/STM32U0xx_HAL_Driver/Inc/stm32u0xx_ll_adc.h ****   *         @arg @ref LL_ADC_RESOLUTION_12B
1612:Drivers/STM32U0xx_HAL_Driver/Inc/stm32u0xx_ll_adc.h ****   *         @arg @ref LL_ADC_RESOLUTION_10B
1613:Drivers/STM32U0xx_HAL_Driver/Inc/stm32u0xx_ll_adc.h ****   *         @arg @ref LL_ADC_RESOLUTION_8B
1614:Drivers/STM32U0xx_HAL_Driver/Inc/stm32u0xx_ll_adc.h ****   *         @arg @ref LL_ADC_RESOLUTION_6B
1615:Drivers/STM32U0xx_HAL_Driver/Inc/stm32u0xx_ll_adc.h ****   * @param  __AWD_THRESHOLD_12_BITS__ Value between Min_Data=0x000 and Max_Data=0xFFF
1616:Drivers/STM32U0xx_HAL_Driver/Inc/stm32u0xx_ll_adc.h ****   * @retval Value between Min_Data=0x000 and Max_Data=0xFFF
ARM GAS  C:\Users\upo\AppData\Local\Temp\ccZrPTgE.s 			page 33


1617:Drivers/STM32U0xx_HAL_Driver/Inc/stm32u0xx_ll_adc.h ****   */
1618:Drivers/STM32U0xx_HAL_Driver/Inc/stm32u0xx_ll_adc.h **** #define __LL_ADC_ANALOGWD_GET_THRESHOLD_RESOLUTION(__ADC_RESOLUTION__, __AWD_THRESHOLD_12_BITS__) \
1619:Drivers/STM32U0xx_HAL_Driver/Inc/stm32u0xx_ll_adc.h ****   ((__AWD_THRESHOLD_12_BITS__) >> ((__ADC_RESOLUTION__) >> (ADC_CFGR1_RES_BITOFFSET_POS - 1U )))
1620:Drivers/STM32U0xx_HAL_Driver/Inc/stm32u0xx_ll_adc.h **** 
1621:Drivers/STM32U0xx_HAL_Driver/Inc/stm32u0xx_ll_adc.h **** /**
1622:Drivers/STM32U0xx_HAL_Driver/Inc/stm32u0xx_ll_adc.h ****   * @brief  Helper macro to get the ADC analog watchdog threshold high
1623:Drivers/STM32U0xx_HAL_Driver/Inc/stm32u0xx_ll_adc.h ****   *         or low from raw value containing both thresholds concatenated.
1624:Drivers/STM32U0xx_HAL_Driver/Inc/stm32u0xx_ll_adc.h ****   * @note   To be used with function @ref LL_ADC_GetAnalogWDThresholds().
1625:Drivers/STM32U0xx_HAL_Driver/Inc/stm32u0xx_ll_adc.h ****   *         Example, to get analog watchdog threshold high from the register raw value:
1626:Drivers/STM32U0xx_HAL_Driver/Inc/stm32u0xx_ll_adc.h ****   *           __LL_ADC_ANALOGWD_THRESHOLDS_HIGH_LOW(LL_ADC_AWD_THRESHOLD_HIGH, <raw_value_with_both
1627:Drivers/STM32U0xx_HAL_Driver/Inc/stm32u0xx_ll_adc.h ****   * @param  __AWD_THRESHOLD_TYPE__ This parameter can be one of the following values:
1628:Drivers/STM32U0xx_HAL_Driver/Inc/stm32u0xx_ll_adc.h ****   *         @arg @ref LL_ADC_AWD_THRESHOLD_HIGH
1629:Drivers/STM32U0xx_HAL_Driver/Inc/stm32u0xx_ll_adc.h ****   *         @arg @ref LL_ADC_AWD_THRESHOLD_LOW
1630:Drivers/STM32U0xx_HAL_Driver/Inc/stm32u0xx_ll_adc.h ****   * @param  __AWD_THRESHOLDS__ Value between Min_Data=0x00000000 and Max_Data=0xFFFFFFFF
1631:Drivers/STM32U0xx_HAL_Driver/Inc/stm32u0xx_ll_adc.h ****   * @retval Value between Min_Data=0x000 and Max_Data=0xFFF
1632:Drivers/STM32U0xx_HAL_Driver/Inc/stm32u0xx_ll_adc.h ****   */
1633:Drivers/STM32U0xx_HAL_Driver/Inc/stm32u0xx_ll_adc.h **** #define __LL_ADC_ANALOGWD_THRESHOLDS_HIGH_LOW(__AWD_THRESHOLD_TYPE__, __AWD_THRESHOLDS__)          
1634:Drivers/STM32U0xx_HAL_Driver/Inc/stm32u0xx_ll_adc.h ****   (((__AWD_THRESHOLDS__) >> (((__AWD_THRESHOLD_TYPE__) & ADC_AWD_TRX_BIT_HIGH_MASK) >> ADC_AWD_TRX_
1635:Drivers/STM32U0xx_HAL_Driver/Inc/stm32u0xx_ll_adc.h ****    & LL_ADC_AWD_THRESHOLD_LOW)
1636:Drivers/STM32U0xx_HAL_Driver/Inc/stm32u0xx_ll_adc.h **** 
1637:Drivers/STM32U0xx_HAL_Driver/Inc/stm32u0xx_ll_adc.h **** /**
1638:Drivers/STM32U0xx_HAL_Driver/Inc/stm32u0xx_ll_adc.h ****   * @brief  Helper macro to select the ADC common instance
1639:Drivers/STM32U0xx_HAL_Driver/Inc/stm32u0xx_ll_adc.h ****   *         to which is belonging the selected ADC instance.
1640:Drivers/STM32U0xx_HAL_Driver/Inc/stm32u0xx_ll_adc.h ****   * @note   ADC common register instance can be used for:
1641:Drivers/STM32U0xx_HAL_Driver/Inc/stm32u0xx_ll_adc.h ****   *         - Set parameters common to several ADC instances
1642:Drivers/STM32U0xx_HAL_Driver/Inc/stm32u0xx_ll_adc.h ****   *         - Multimode (for devices with several ADC instances)
1643:Drivers/STM32U0xx_HAL_Driver/Inc/stm32u0xx_ll_adc.h ****   *         Refer to functions having argument "ADCxy_COMMON" as parameter.
1644:Drivers/STM32U0xx_HAL_Driver/Inc/stm32u0xx_ll_adc.h ****   * @param  __ADCx__ ADC instance
1645:Drivers/STM32U0xx_HAL_Driver/Inc/stm32u0xx_ll_adc.h ****   * @retval ADC common register instance
1646:Drivers/STM32U0xx_HAL_Driver/Inc/stm32u0xx_ll_adc.h ****   */
1647:Drivers/STM32U0xx_HAL_Driver/Inc/stm32u0xx_ll_adc.h **** #define __LL_ADC_COMMON_INSTANCE(__ADCx__)                                     \
1648:Drivers/STM32U0xx_HAL_Driver/Inc/stm32u0xx_ll_adc.h ****   (ADC1_COMMON)
1649:Drivers/STM32U0xx_HAL_Driver/Inc/stm32u0xx_ll_adc.h **** 
1650:Drivers/STM32U0xx_HAL_Driver/Inc/stm32u0xx_ll_adc.h **** /**
1651:Drivers/STM32U0xx_HAL_Driver/Inc/stm32u0xx_ll_adc.h ****   * @brief  Helper macro to check if all ADC instances sharing the same
1652:Drivers/STM32U0xx_HAL_Driver/Inc/stm32u0xx_ll_adc.h ****   *         ADC common instance are disabled.
1653:Drivers/STM32U0xx_HAL_Driver/Inc/stm32u0xx_ll_adc.h ****   * @note   This check is required by functions with setting conditioned to
1654:Drivers/STM32U0xx_HAL_Driver/Inc/stm32u0xx_ll_adc.h ****   *         ADC state:
1655:Drivers/STM32U0xx_HAL_Driver/Inc/stm32u0xx_ll_adc.h ****   *         All ADC instances of the ADC common group must be disabled.
1656:Drivers/STM32U0xx_HAL_Driver/Inc/stm32u0xx_ll_adc.h ****   *         Refer to functions having argument "ADCxy_COMMON" as parameter.
1657:Drivers/STM32U0xx_HAL_Driver/Inc/stm32u0xx_ll_adc.h ****   * @note   On devices with only 1 ADC common instance, parameter of this macro
1658:Drivers/STM32U0xx_HAL_Driver/Inc/stm32u0xx_ll_adc.h ****   *         is useless and can be ignored (parameter kept for compatibility
1659:Drivers/STM32U0xx_HAL_Driver/Inc/stm32u0xx_ll_adc.h ****   *         with devices featuring several ADC common instances).
1660:Drivers/STM32U0xx_HAL_Driver/Inc/stm32u0xx_ll_adc.h ****   * @param  __ADCXY_COMMON__ ADC common instance
1661:Drivers/STM32U0xx_HAL_Driver/Inc/stm32u0xx_ll_adc.h ****   *         (can be set directly from CMSIS definition or by using helper macro @ref __LL_ADC_COMMO
1662:Drivers/STM32U0xx_HAL_Driver/Inc/stm32u0xx_ll_adc.h ****   * @retval Value "0" if all ADC instances sharing the same ADC common instance
1663:Drivers/STM32U0xx_HAL_Driver/Inc/stm32u0xx_ll_adc.h ****   *         are disabled.
1664:Drivers/STM32U0xx_HAL_Driver/Inc/stm32u0xx_ll_adc.h ****   *         Value "1" if at least one ADC instance sharing the same ADC common instance
1665:Drivers/STM32U0xx_HAL_Driver/Inc/stm32u0xx_ll_adc.h ****   *         is enabled.
1666:Drivers/STM32U0xx_HAL_Driver/Inc/stm32u0xx_ll_adc.h ****   */
1667:Drivers/STM32U0xx_HAL_Driver/Inc/stm32u0xx_ll_adc.h **** #define __LL_ADC_IS_ENABLED_ALL_COMMON_INSTANCE(__ADCXY_COMMON__)              \
1668:Drivers/STM32U0xx_HAL_Driver/Inc/stm32u0xx_ll_adc.h ****   LL_ADC_IsEnabled(ADC1)
1669:Drivers/STM32U0xx_HAL_Driver/Inc/stm32u0xx_ll_adc.h **** 
1670:Drivers/STM32U0xx_HAL_Driver/Inc/stm32u0xx_ll_adc.h **** /**
1671:Drivers/STM32U0xx_HAL_Driver/Inc/stm32u0xx_ll_adc.h ****   * @brief  Helper macro to define the ADC conversion data full-scale digital
1672:Drivers/STM32U0xx_HAL_Driver/Inc/stm32u0xx_ll_adc.h ****   *         value corresponding to the selected ADC resolution.
1673:Drivers/STM32U0xx_HAL_Driver/Inc/stm32u0xx_ll_adc.h ****   * @note   ADC conversion data full-scale corresponds to voltage range
ARM GAS  C:\Users\upo\AppData\Local\Temp\ccZrPTgE.s 			page 34


1674:Drivers/STM32U0xx_HAL_Driver/Inc/stm32u0xx_ll_adc.h ****   *         determined by analog voltage references Vref+ and Vref-
1675:Drivers/STM32U0xx_HAL_Driver/Inc/stm32u0xx_ll_adc.h ****   *         (refer to reference manual).
1676:Drivers/STM32U0xx_HAL_Driver/Inc/stm32u0xx_ll_adc.h ****   * @param  __ADC_RESOLUTION__ This parameter can be one of the following values:
1677:Drivers/STM32U0xx_HAL_Driver/Inc/stm32u0xx_ll_adc.h ****   *         @arg @ref LL_ADC_RESOLUTION_12B
1678:Drivers/STM32U0xx_HAL_Driver/Inc/stm32u0xx_ll_adc.h ****   *         @arg @ref LL_ADC_RESOLUTION_10B
1679:Drivers/STM32U0xx_HAL_Driver/Inc/stm32u0xx_ll_adc.h ****   *         @arg @ref LL_ADC_RESOLUTION_8B
1680:Drivers/STM32U0xx_HAL_Driver/Inc/stm32u0xx_ll_adc.h ****   *         @arg @ref LL_ADC_RESOLUTION_6B
1681:Drivers/STM32U0xx_HAL_Driver/Inc/stm32u0xx_ll_adc.h ****   * @retval ADC conversion data full-scale digital value (unit: digital value of ADC conversion dat
1682:Drivers/STM32U0xx_HAL_Driver/Inc/stm32u0xx_ll_adc.h ****   */
1683:Drivers/STM32U0xx_HAL_Driver/Inc/stm32u0xx_ll_adc.h **** #define __LL_ADC_DIGITAL_SCALE(__ADC_RESOLUTION__)                             \
1684:Drivers/STM32U0xx_HAL_Driver/Inc/stm32u0xx_ll_adc.h ****   (0xFFFUL >> ((__ADC_RESOLUTION__) >> (ADC_CFGR1_RES_BITOFFSET_POS - 1UL)))
1685:Drivers/STM32U0xx_HAL_Driver/Inc/stm32u0xx_ll_adc.h **** 
1686:Drivers/STM32U0xx_HAL_Driver/Inc/stm32u0xx_ll_adc.h **** /**
1687:Drivers/STM32U0xx_HAL_Driver/Inc/stm32u0xx_ll_adc.h ****   * @brief  Helper macro to convert the ADC conversion data from
1688:Drivers/STM32U0xx_HAL_Driver/Inc/stm32u0xx_ll_adc.h ****   *         a resolution to another resolution.
1689:Drivers/STM32U0xx_HAL_Driver/Inc/stm32u0xx_ll_adc.h ****   * @param  __DATA__ ADC conversion data to be converted
1690:Drivers/STM32U0xx_HAL_Driver/Inc/stm32u0xx_ll_adc.h ****   * @param  __ADC_RESOLUTION_CURRENT__ Resolution of the data to be converted
1691:Drivers/STM32U0xx_HAL_Driver/Inc/stm32u0xx_ll_adc.h ****   *         This parameter can be one of the following values:
1692:Drivers/STM32U0xx_HAL_Driver/Inc/stm32u0xx_ll_adc.h ****   *         @arg @ref LL_ADC_RESOLUTION_12B
1693:Drivers/STM32U0xx_HAL_Driver/Inc/stm32u0xx_ll_adc.h ****   *         @arg @ref LL_ADC_RESOLUTION_10B
1694:Drivers/STM32U0xx_HAL_Driver/Inc/stm32u0xx_ll_adc.h ****   *         @arg @ref LL_ADC_RESOLUTION_8B
1695:Drivers/STM32U0xx_HAL_Driver/Inc/stm32u0xx_ll_adc.h ****   *         @arg @ref LL_ADC_RESOLUTION_6B
1696:Drivers/STM32U0xx_HAL_Driver/Inc/stm32u0xx_ll_adc.h ****   * @param  __ADC_RESOLUTION_TARGET__ Resolution of the data after conversion
1697:Drivers/STM32U0xx_HAL_Driver/Inc/stm32u0xx_ll_adc.h ****   *         This parameter can be one of the following values:
1698:Drivers/STM32U0xx_HAL_Driver/Inc/stm32u0xx_ll_adc.h ****   *         @arg @ref LL_ADC_RESOLUTION_12B
1699:Drivers/STM32U0xx_HAL_Driver/Inc/stm32u0xx_ll_adc.h ****   *         @arg @ref LL_ADC_RESOLUTION_10B
1700:Drivers/STM32U0xx_HAL_Driver/Inc/stm32u0xx_ll_adc.h ****   *         @arg @ref LL_ADC_RESOLUTION_8B
1701:Drivers/STM32U0xx_HAL_Driver/Inc/stm32u0xx_ll_adc.h ****   *         @arg @ref LL_ADC_RESOLUTION_6B
1702:Drivers/STM32U0xx_HAL_Driver/Inc/stm32u0xx_ll_adc.h ****   * @retval ADC conversion data to the requested resolution
1703:Drivers/STM32U0xx_HAL_Driver/Inc/stm32u0xx_ll_adc.h ****   */
1704:Drivers/STM32U0xx_HAL_Driver/Inc/stm32u0xx_ll_adc.h **** #define __LL_ADC_CONVERT_DATA_RESOLUTION(__DATA__,\
1705:Drivers/STM32U0xx_HAL_Driver/Inc/stm32u0xx_ll_adc.h ****                                          __ADC_RESOLUTION_CURRENT__,\
1706:Drivers/STM32U0xx_HAL_Driver/Inc/stm32u0xx_ll_adc.h ****                                          __ADC_RESOLUTION_TARGET__)          \
1707:Drivers/STM32U0xx_HAL_Driver/Inc/stm32u0xx_ll_adc.h **** (((__DATA__)                                                                 \
1708:Drivers/STM32U0xx_HAL_Driver/Inc/stm32u0xx_ll_adc.h ****   << ((__ADC_RESOLUTION_CURRENT__) >> (ADC_CFGR1_RES_BITOFFSET_POS - 1UL)))  \
1709:Drivers/STM32U0xx_HAL_Driver/Inc/stm32u0xx_ll_adc.h ****  >> ((__ADC_RESOLUTION_TARGET__) >> (ADC_CFGR1_RES_BITOFFSET_POS - 1UL))     \
1710:Drivers/STM32U0xx_HAL_Driver/Inc/stm32u0xx_ll_adc.h **** )
1711:Drivers/STM32U0xx_HAL_Driver/Inc/stm32u0xx_ll_adc.h **** 
1712:Drivers/STM32U0xx_HAL_Driver/Inc/stm32u0xx_ll_adc.h **** /**
1713:Drivers/STM32U0xx_HAL_Driver/Inc/stm32u0xx_ll_adc.h ****   * @brief  Helper macro to calculate the voltage (unit: mVolt)
1714:Drivers/STM32U0xx_HAL_Driver/Inc/stm32u0xx_ll_adc.h ****   *         corresponding to a ADC conversion data (unit: digital value).
1715:Drivers/STM32U0xx_HAL_Driver/Inc/stm32u0xx_ll_adc.h ****   * @note   Analog reference voltage (Vref+) must be either known from
1716:Drivers/STM32U0xx_HAL_Driver/Inc/stm32u0xx_ll_adc.h ****   *         user board environment or can be calculated using ADC measurement
1717:Drivers/STM32U0xx_HAL_Driver/Inc/stm32u0xx_ll_adc.h ****   *         and ADC helper macro @ref __LL_ADC_CALC_VREFANALOG_VOLTAGE().
1718:Drivers/STM32U0xx_HAL_Driver/Inc/stm32u0xx_ll_adc.h ****   * @param  __VREFANALOG_VOLTAGE__ Analog reference voltage (unit: mV)
1719:Drivers/STM32U0xx_HAL_Driver/Inc/stm32u0xx_ll_adc.h ****   * @param  __ADC_DATA__ ADC conversion data (resolution 12 bits)
1720:Drivers/STM32U0xx_HAL_Driver/Inc/stm32u0xx_ll_adc.h ****   *                       (unit: digital value).
1721:Drivers/STM32U0xx_HAL_Driver/Inc/stm32u0xx_ll_adc.h ****   * @param  __ADC_RESOLUTION__ This parameter can be one of the following values:
1722:Drivers/STM32U0xx_HAL_Driver/Inc/stm32u0xx_ll_adc.h ****   *         @arg @ref LL_ADC_RESOLUTION_12B
1723:Drivers/STM32U0xx_HAL_Driver/Inc/stm32u0xx_ll_adc.h ****   *         @arg @ref LL_ADC_RESOLUTION_10B
1724:Drivers/STM32U0xx_HAL_Driver/Inc/stm32u0xx_ll_adc.h ****   *         @arg @ref LL_ADC_RESOLUTION_8B
1725:Drivers/STM32U0xx_HAL_Driver/Inc/stm32u0xx_ll_adc.h ****   *         @arg @ref LL_ADC_RESOLUTION_6B
1726:Drivers/STM32U0xx_HAL_Driver/Inc/stm32u0xx_ll_adc.h ****   * @retval ADC conversion data equivalent voltage value (unit: mVolt)
1727:Drivers/STM32U0xx_HAL_Driver/Inc/stm32u0xx_ll_adc.h ****   */
1728:Drivers/STM32U0xx_HAL_Driver/Inc/stm32u0xx_ll_adc.h **** #define __LL_ADC_CALC_DATA_TO_VOLTAGE(__VREFANALOG_VOLTAGE__,\
1729:Drivers/STM32U0xx_HAL_Driver/Inc/stm32u0xx_ll_adc.h ****                                       __ADC_DATA__,\
1730:Drivers/STM32U0xx_HAL_Driver/Inc/stm32u0xx_ll_adc.h ****                                       __ADC_RESOLUTION__)                    \
ARM GAS  C:\Users\upo\AppData\Local\Temp\ccZrPTgE.s 			page 35


1731:Drivers/STM32U0xx_HAL_Driver/Inc/stm32u0xx_ll_adc.h **** ((__ADC_DATA__) * (__VREFANALOG_VOLTAGE__)                                   \
1732:Drivers/STM32U0xx_HAL_Driver/Inc/stm32u0xx_ll_adc.h ****  / __LL_ADC_DIGITAL_SCALE(__ADC_RESOLUTION__)                                \
1733:Drivers/STM32U0xx_HAL_Driver/Inc/stm32u0xx_ll_adc.h **** )
1734:Drivers/STM32U0xx_HAL_Driver/Inc/stm32u0xx_ll_adc.h **** 
1735:Drivers/STM32U0xx_HAL_Driver/Inc/stm32u0xx_ll_adc.h **** /**
1736:Drivers/STM32U0xx_HAL_Driver/Inc/stm32u0xx_ll_adc.h ****   * @brief  Helper macro to calculate analog reference voltage (Vref+)
1737:Drivers/STM32U0xx_HAL_Driver/Inc/stm32u0xx_ll_adc.h ****   *         (unit: mVolt) from ADC conversion data of internal voltage
1738:Drivers/STM32U0xx_HAL_Driver/Inc/stm32u0xx_ll_adc.h ****   *         reference VrefInt.
1739:Drivers/STM32U0xx_HAL_Driver/Inc/stm32u0xx_ll_adc.h ****   * @note   Computation is using VrefInt calibration value
1740:Drivers/STM32U0xx_HAL_Driver/Inc/stm32u0xx_ll_adc.h ****   *         stored in system memory for each device during production.
1741:Drivers/STM32U0xx_HAL_Driver/Inc/stm32u0xx_ll_adc.h ****   * @note   This voltage depends on user board environment: voltage level
1742:Drivers/STM32U0xx_HAL_Driver/Inc/stm32u0xx_ll_adc.h ****   *         connected to pin Vref+.
1743:Drivers/STM32U0xx_HAL_Driver/Inc/stm32u0xx_ll_adc.h ****   *         On devices with small package, the pin Vref+ is not present
1744:Drivers/STM32U0xx_HAL_Driver/Inc/stm32u0xx_ll_adc.h ****   *         and internally bonded to pin Vdda.
1745:Drivers/STM32U0xx_HAL_Driver/Inc/stm32u0xx_ll_adc.h ****   * @note   On this STM32 series, calibration data of internal voltage reference
1746:Drivers/STM32U0xx_HAL_Driver/Inc/stm32u0xx_ll_adc.h ****   *         VrefInt corresponds to a resolution of 12 bits,
1747:Drivers/STM32U0xx_HAL_Driver/Inc/stm32u0xx_ll_adc.h ****   *         this is the recommended ADC resolution to convert voltage of
1748:Drivers/STM32U0xx_HAL_Driver/Inc/stm32u0xx_ll_adc.h ****   *         internal voltage reference VrefInt.
1749:Drivers/STM32U0xx_HAL_Driver/Inc/stm32u0xx_ll_adc.h ****   *         Otherwise, this macro performs the processing to scale
1750:Drivers/STM32U0xx_HAL_Driver/Inc/stm32u0xx_ll_adc.h ****   *         ADC conversion data to 12 bits.
1751:Drivers/STM32U0xx_HAL_Driver/Inc/stm32u0xx_ll_adc.h ****   * @param  __VREFINT_ADC_DATA__ ADC conversion data (resolution 12 bits)
1752:Drivers/STM32U0xx_HAL_Driver/Inc/stm32u0xx_ll_adc.h ****   *         of internal voltage reference VrefInt (unit: digital value).
1753:Drivers/STM32U0xx_HAL_Driver/Inc/stm32u0xx_ll_adc.h ****   * @param  __ADC_RESOLUTION__ This parameter can be one of the following values:
1754:Drivers/STM32U0xx_HAL_Driver/Inc/stm32u0xx_ll_adc.h ****   *         @arg @ref LL_ADC_RESOLUTION_12B
1755:Drivers/STM32U0xx_HAL_Driver/Inc/stm32u0xx_ll_adc.h ****   *         @arg @ref LL_ADC_RESOLUTION_10B
1756:Drivers/STM32U0xx_HAL_Driver/Inc/stm32u0xx_ll_adc.h ****   *         @arg @ref LL_ADC_RESOLUTION_8B
1757:Drivers/STM32U0xx_HAL_Driver/Inc/stm32u0xx_ll_adc.h ****   *         @arg @ref LL_ADC_RESOLUTION_6B
1758:Drivers/STM32U0xx_HAL_Driver/Inc/stm32u0xx_ll_adc.h ****   * @retval Analog reference voltage (unit: mV)
1759:Drivers/STM32U0xx_HAL_Driver/Inc/stm32u0xx_ll_adc.h ****   */
1760:Drivers/STM32U0xx_HAL_Driver/Inc/stm32u0xx_ll_adc.h **** #define __LL_ADC_CALC_VREFANALOG_VOLTAGE(__VREFINT_ADC_DATA__,\
1761:Drivers/STM32U0xx_HAL_Driver/Inc/stm32u0xx_ll_adc.h ****                                          __ADC_RESOLUTION__)                 \
1762:Drivers/STM32U0xx_HAL_Driver/Inc/stm32u0xx_ll_adc.h **** (((uint32_t)(*VREFINT_CAL_ADDR) * VREFINT_CAL_VREF)                          \
1763:Drivers/STM32U0xx_HAL_Driver/Inc/stm32u0xx_ll_adc.h ****  / __LL_ADC_CONVERT_DATA_RESOLUTION((__VREFINT_ADC_DATA__),                  \
1764:Drivers/STM32U0xx_HAL_Driver/Inc/stm32u0xx_ll_adc.h ****                                     (__ADC_RESOLUTION__),                    \
1765:Drivers/STM32U0xx_HAL_Driver/Inc/stm32u0xx_ll_adc.h ****                                     LL_ADC_RESOLUTION_12B)                   \
1766:Drivers/STM32U0xx_HAL_Driver/Inc/stm32u0xx_ll_adc.h **** )
1767:Drivers/STM32U0xx_HAL_Driver/Inc/stm32u0xx_ll_adc.h **** 
1768:Drivers/STM32U0xx_HAL_Driver/Inc/stm32u0xx_ll_adc.h **** /**
1769:Drivers/STM32U0xx_HAL_Driver/Inc/stm32u0xx_ll_adc.h ****   * @brief  Helper macro to calculate the temperature (unit: degree Celsius)
1770:Drivers/STM32U0xx_HAL_Driver/Inc/stm32u0xx_ll_adc.h ****   *         from ADC conversion data of internal temperature sensor.
1771:Drivers/STM32U0xx_HAL_Driver/Inc/stm32u0xx_ll_adc.h ****   * @note   Computation is using temperature sensor calibration values
1772:Drivers/STM32U0xx_HAL_Driver/Inc/stm32u0xx_ll_adc.h ****   *         stored in system memory for each device during production.
1773:Drivers/STM32U0xx_HAL_Driver/Inc/stm32u0xx_ll_adc.h ****   * @note   Calculation formula:
1774:Drivers/STM32U0xx_HAL_Driver/Inc/stm32u0xx_ll_adc.h ****   *           Temperature = ((TS_ADC_DATA - TS_CAL1)
1775:Drivers/STM32U0xx_HAL_Driver/Inc/stm32u0xx_ll_adc.h ****   *                           * (TS_CAL2_TEMP - TS_CAL1_TEMP))
1776:Drivers/STM32U0xx_HAL_Driver/Inc/stm32u0xx_ll_adc.h ****   *                         / (TS_CAL2 - TS_CAL1) + TS_CAL1_TEMP
1777:Drivers/STM32U0xx_HAL_Driver/Inc/stm32u0xx_ll_adc.h ****   *           with TS_ADC_DATA = temperature sensor raw data measured by ADC
1778:Drivers/STM32U0xx_HAL_Driver/Inc/stm32u0xx_ll_adc.h ****   *                Avg_Slope = (TS_CAL2 - TS_CAL1)
1779:Drivers/STM32U0xx_HAL_Driver/Inc/stm32u0xx_ll_adc.h ****   *                            / (TS_CAL2_TEMP - TS_CAL1_TEMP)
1780:Drivers/STM32U0xx_HAL_Driver/Inc/stm32u0xx_ll_adc.h ****   *                TS_CAL1   = equivalent TS_ADC_DATA at temperature
1781:Drivers/STM32U0xx_HAL_Driver/Inc/stm32u0xx_ll_adc.h ****   *                            TEMP_DEGC_CAL1 (calibrated in factory)
1782:Drivers/STM32U0xx_HAL_Driver/Inc/stm32u0xx_ll_adc.h ****   *                TS_CAL2   = equivalent TS_ADC_DATA at temperature
1783:Drivers/STM32U0xx_HAL_Driver/Inc/stm32u0xx_ll_adc.h ****   *                            TEMP_DEGC_CAL2 (calibrated in factory)
1784:Drivers/STM32U0xx_HAL_Driver/Inc/stm32u0xx_ll_adc.h ****   *         Caution: Calculation relevancy under reserve that calibration
1785:Drivers/STM32U0xx_HAL_Driver/Inc/stm32u0xx_ll_adc.h ****   *                  parameters are correct (address and data).
1786:Drivers/STM32U0xx_HAL_Driver/Inc/stm32u0xx_ll_adc.h ****   *                  To calculate temperature using temperature sensor
1787:Drivers/STM32U0xx_HAL_Driver/Inc/stm32u0xx_ll_adc.h ****   *                  datasheet typical values (generic values less, therefore
ARM GAS  C:\Users\upo\AppData\Local\Temp\ccZrPTgE.s 			page 36


1788:Drivers/STM32U0xx_HAL_Driver/Inc/stm32u0xx_ll_adc.h ****   *                  less accurate than calibrated values),
1789:Drivers/STM32U0xx_HAL_Driver/Inc/stm32u0xx_ll_adc.h ****   *                  use helper macro @ref __LL_ADC_CALC_TEMPERATURE_TYP_PARAMS().
1790:Drivers/STM32U0xx_HAL_Driver/Inc/stm32u0xx_ll_adc.h ****   * @note   As calculation input, the analog reference voltage (Vref+) must be
1791:Drivers/STM32U0xx_HAL_Driver/Inc/stm32u0xx_ll_adc.h ****   *         defined as it impacts the ADC LSB equivalent voltage.
1792:Drivers/STM32U0xx_HAL_Driver/Inc/stm32u0xx_ll_adc.h ****   * @note   Analog reference voltage (Vref+) must be either known from
1793:Drivers/STM32U0xx_HAL_Driver/Inc/stm32u0xx_ll_adc.h ****   *         user board environment or can be calculated using ADC measurement
1794:Drivers/STM32U0xx_HAL_Driver/Inc/stm32u0xx_ll_adc.h ****   *         and ADC helper macro @ref __LL_ADC_CALC_VREFANALOG_VOLTAGE().
1795:Drivers/STM32U0xx_HAL_Driver/Inc/stm32u0xx_ll_adc.h ****   * @note   On this STM32 series, calibration data of temperature sensor
1796:Drivers/STM32U0xx_HAL_Driver/Inc/stm32u0xx_ll_adc.h ****   *         corresponds to a resolution of 12 bits,
1797:Drivers/STM32U0xx_HAL_Driver/Inc/stm32u0xx_ll_adc.h ****   *         this is the recommended ADC resolution to convert voltage of
1798:Drivers/STM32U0xx_HAL_Driver/Inc/stm32u0xx_ll_adc.h ****   *         temperature sensor.
1799:Drivers/STM32U0xx_HAL_Driver/Inc/stm32u0xx_ll_adc.h ****   *         Otherwise, this macro performs the processing to scale
1800:Drivers/STM32U0xx_HAL_Driver/Inc/stm32u0xx_ll_adc.h ****   *         ADC conversion data to 12 bits.
1801:Drivers/STM32U0xx_HAL_Driver/Inc/stm32u0xx_ll_adc.h ****   * @param  __VREFANALOG_VOLTAGE__  Analog reference voltage (unit: mV)
1802:Drivers/STM32U0xx_HAL_Driver/Inc/stm32u0xx_ll_adc.h ****   * @param  __TEMPSENSOR_ADC_DATA__ ADC conversion data of internal
1803:Drivers/STM32U0xx_HAL_Driver/Inc/stm32u0xx_ll_adc.h ****   *                                 temperature sensor (unit: digital value).
1804:Drivers/STM32U0xx_HAL_Driver/Inc/stm32u0xx_ll_adc.h ****   * @param  __ADC_RESOLUTION__      ADC resolution at which internal temperature
1805:Drivers/STM32U0xx_HAL_Driver/Inc/stm32u0xx_ll_adc.h ****   *                                 sensor voltage has been measured.
1806:Drivers/STM32U0xx_HAL_Driver/Inc/stm32u0xx_ll_adc.h ****   *         This parameter can be one of the following values:
1807:Drivers/STM32U0xx_HAL_Driver/Inc/stm32u0xx_ll_adc.h ****   *         @arg @ref LL_ADC_RESOLUTION_12B
1808:Drivers/STM32U0xx_HAL_Driver/Inc/stm32u0xx_ll_adc.h ****   *         @arg @ref LL_ADC_RESOLUTION_10B
1809:Drivers/STM32U0xx_HAL_Driver/Inc/stm32u0xx_ll_adc.h ****   *         @arg @ref LL_ADC_RESOLUTION_8B
1810:Drivers/STM32U0xx_HAL_Driver/Inc/stm32u0xx_ll_adc.h ****   *         @arg @ref LL_ADC_RESOLUTION_6B
1811:Drivers/STM32U0xx_HAL_Driver/Inc/stm32u0xx_ll_adc.h ****   * @retval Temperature (unit: degree Celsius)
1812:Drivers/STM32U0xx_HAL_Driver/Inc/stm32u0xx_ll_adc.h ****   *         In case or error, value LL_ADC_TEMPERATURE_CALC_ERROR is returned (inconsistent tempera
1813:Drivers/STM32U0xx_HAL_Driver/Inc/stm32u0xx_ll_adc.h ****   */
1814:Drivers/STM32U0xx_HAL_Driver/Inc/stm32u0xx_ll_adc.h **** #define __LL_ADC_CALC_TEMPERATURE(__VREFANALOG_VOLTAGE__,\
1815:Drivers/STM32U0xx_HAL_Driver/Inc/stm32u0xx_ll_adc.h ****                                   __TEMPSENSOR_ADC_DATA__,\
1816:Drivers/STM32U0xx_HAL_Driver/Inc/stm32u0xx_ll_adc.h ****                                   __ADC_RESOLUTION__)\
1817:Drivers/STM32U0xx_HAL_Driver/Inc/stm32u0xx_ll_adc.h **** ((((int32_t)*TEMPSENSOR_CAL2_ADDR - (int32_t)*TEMPSENSOR_CAL1_ADDR) != 0) ?       \
1818:Drivers/STM32U0xx_HAL_Driver/Inc/stm32u0xx_ll_adc.h ****  (((( ((int32_t)((__LL_ADC_CONVERT_DATA_RESOLUTION((__TEMPSENSOR_ADC_DATA__),     \
1819:Drivers/STM32U0xx_HAL_Driver/Inc/stm32u0xx_ll_adc.h ****                                                    (__ADC_RESOLUTION__),          \
1820:Drivers/STM32U0xx_HAL_Driver/Inc/stm32u0xx_ll_adc.h ****                                                    LL_ADC_RESOLUTION_12B)         \
1821:Drivers/STM32U0xx_HAL_Driver/Inc/stm32u0xx_ll_adc.h ****                   * (__VREFANALOG_VOLTAGE__))                                     \
1822:Drivers/STM32U0xx_HAL_Driver/Inc/stm32u0xx_ll_adc.h ****                  / TEMPSENSOR_CAL_VREFANALOG)                                     \
1823:Drivers/STM32U0xx_HAL_Driver/Inc/stm32u0xx_ll_adc.h ****        - (int32_t) *TEMPSENSOR_CAL1_ADDR)                                         \
1824:Drivers/STM32U0xx_HAL_Driver/Inc/stm32u0xx_ll_adc.h ****     ) * (int32_t)(TEMPSENSOR_CAL2_TEMP - TEMPSENSOR_CAL1_TEMP)                    \
1825:Drivers/STM32U0xx_HAL_Driver/Inc/stm32u0xx_ll_adc.h ****    ) / (int32_t)((int32_t)*TEMPSENSOR_CAL2_ADDR - (int32_t)*TEMPSENSOR_CAL1_ADDR) \
1826:Drivers/STM32U0xx_HAL_Driver/Inc/stm32u0xx_ll_adc.h ****   ) + TEMPSENSOR_CAL1_TEMP                                                        \
1827:Drivers/STM32U0xx_HAL_Driver/Inc/stm32u0xx_ll_adc.h ****  )                                                                                \
1828:Drivers/STM32U0xx_HAL_Driver/Inc/stm32u0xx_ll_adc.h ****  :                                                                                \
1829:Drivers/STM32U0xx_HAL_Driver/Inc/stm32u0xx_ll_adc.h ****  ((int32_t)LL_ADC_TEMPERATURE_CALC_ERROR)                                         \
1830:Drivers/STM32U0xx_HAL_Driver/Inc/stm32u0xx_ll_adc.h **** )
1831:Drivers/STM32U0xx_HAL_Driver/Inc/stm32u0xx_ll_adc.h **** 
1832:Drivers/STM32U0xx_HAL_Driver/Inc/stm32u0xx_ll_adc.h **** /**
1833:Drivers/STM32U0xx_HAL_Driver/Inc/stm32u0xx_ll_adc.h ****   * @brief  Helper macro to calculate the temperature (unit: degree Celsius)
1834:Drivers/STM32U0xx_HAL_Driver/Inc/stm32u0xx_ll_adc.h ****   *         from ADC conversion data of internal temperature sensor.
1835:Drivers/STM32U0xx_HAL_Driver/Inc/stm32u0xx_ll_adc.h ****   * @note   Computation is using temperature sensor typical values
1836:Drivers/STM32U0xx_HAL_Driver/Inc/stm32u0xx_ll_adc.h ****   *         (refer to device datasheet).
1837:Drivers/STM32U0xx_HAL_Driver/Inc/stm32u0xx_ll_adc.h ****   * @note   Calculation formula:
1838:Drivers/STM32U0xx_HAL_Driver/Inc/stm32u0xx_ll_adc.h ****   *           Temperature = (TS_TYP_CALx_VOLT(uV) - TS_ADC_DATA * Conversion_uV)
1839:Drivers/STM32U0xx_HAL_Driver/Inc/stm32u0xx_ll_adc.h ****   *                         / Avg_Slope + CALx_TEMP
1840:Drivers/STM32U0xx_HAL_Driver/Inc/stm32u0xx_ll_adc.h ****   *           with TS_ADC_DATA      = temperature sensor raw data measured by ADC
1841:Drivers/STM32U0xx_HAL_Driver/Inc/stm32u0xx_ll_adc.h ****   *                                   (unit: digital value)
1842:Drivers/STM32U0xx_HAL_Driver/Inc/stm32u0xx_ll_adc.h ****   *                Avg_Slope        = temperature sensor slope
1843:Drivers/STM32U0xx_HAL_Driver/Inc/stm32u0xx_ll_adc.h ****   *                                   (unit: uV/Degree Celsius)
1844:Drivers/STM32U0xx_HAL_Driver/Inc/stm32u0xx_ll_adc.h ****   *                TS_TYP_CALx_VOLT = temperature sensor digital value at
ARM GAS  C:\Users\upo\AppData\Local\Temp\ccZrPTgE.s 			page 37


1845:Drivers/STM32U0xx_HAL_Driver/Inc/stm32u0xx_ll_adc.h ****   *                                   temperature CALx_TEMP (unit: mV)
1846:Drivers/STM32U0xx_HAL_Driver/Inc/stm32u0xx_ll_adc.h ****   *         Caution: Calculation relevancy under reserve the temperature sensor
1847:Drivers/STM32U0xx_HAL_Driver/Inc/stm32u0xx_ll_adc.h ****   *                  of the current device has characteristics in line with
1848:Drivers/STM32U0xx_HAL_Driver/Inc/stm32u0xx_ll_adc.h ****   *                  datasheet typical values.
1849:Drivers/STM32U0xx_HAL_Driver/Inc/stm32u0xx_ll_adc.h ****   *                  If temperature sensor calibration values are available on
1850:Drivers/STM32U0xx_HAL_Driver/Inc/stm32u0xx_ll_adc.h ****   *                  on this device (presence of macro __LL_ADC_CALC_TEMPERATURE()),
1851:Drivers/STM32U0xx_HAL_Driver/Inc/stm32u0xx_ll_adc.h ****   *                  temperature calculation will be more accurate using
1852:Drivers/STM32U0xx_HAL_Driver/Inc/stm32u0xx_ll_adc.h ****   *                  helper macro @ref __LL_ADC_CALC_TEMPERATURE().
1853:Drivers/STM32U0xx_HAL_Driver/Inc/stm32u0xx_ll_adc.h ****   * @note   As calculation input, the analog reference voltage (Vref+) must be
1854:Drivers/STM32U0xx_HAL_Driver/Inc/stm32u0xx_ll_adc.h ****   *         defined as it impacts the ADC LSB equivalent voltage.
1855:Drivers/STM32U0xx_HAL_Driver/Inc/stm32u0xx_ll_adc.h ****   * @note   Analog reference voltage (Vref+) must be either known from
1856:Drivers/STM32U0xx_HAL_Driver/Inc/stm32u0xx_ll_adc.h ****   *         user board environment or can be calculated using ADC measurement
1857:Drivers/STM32U0xx_HAL_Driver/Inc/stm32u0xx_ll_adc.h ****   *         and ADC helper macro @ref __LL_ADC_CALC_VREFANALOG_VOLTAGE().
1858:Drivers/STM32U0xx_HAL_Driver/Inc/stm32u0xx_ll_adc.h ****   * @note   ADC measurement data must correspond to a resolution of 12 bits
1859:Drivers/STM32U0xx_HAL_Driver/Inc/stm32u0xx_ll_adc.h ****   *         (full scale digital value 4095). If not the case, the data must be
1860:Drivers/STM32U0xx_HAL_Driver/Inc/stm32u0xx_ll_adc.h ****   *         preliminarily rescaled to an equivalent resolution of 12 bits.
1861:Drivers/STM32U0xx_HAL_Driver/Inc/stm32u0xx_ll_adc.h ****   * @param  __TEMPSENSOR_TYP_AVGSLOPE__   Device datasheet data: Temperature sensor slope typical v
1862:Drivers/STM32U0xx_HAL_Driver/Inc/stm32u0xx_ll_adc.h ****                                           (unit: uV/DegCelsius).
1863:Drivers/STM32U0xx_HAL_Driver/Inc/stm32u0xx_ll_adc.h ****   *                                       On this STM32 series, refer to device datasheet parameter
1864:Drivers/STM32U0xx_HAL_Driver/Inc/stm32u0xx_ll_adc.h ****   * @param  __TEMPSENSOR_TYP_CALX_V__     Device datasheet data: Temperature sensor voltage typical
1865:Drivers/STM32U0xx_HAL_Driver/Inc/stm32u0xx_ll_adc.h ****                                           (at temperature and Vref+ defined in parameters below) (u
1866:Drivers/STM32U0xx_HAL_Driver/Inc/stm32u0xx_ll_adc.h ****   *                                       On this STM32 series, refer to datasheet parameter "V30" 
1867:Drivers/STM32U0xx_HAL_Driver/Inc/stm32u0xx_ll_adc.h ****   *                                       to TS_CAL1).
1868:Drivers/STM32U0xx_HAL_Driver/Inc/stm32u0xx_ll_adc.h ****   * @param  __TEMPSENSOR_CALX_TEMP__      Device datasheet data: Temperature at which temperature s
1869:Drivers/STM32U0xx_HAL_Driver/Inc/stm32u0xx_ll_adc.h ****                                           (see parameter above) is corresponding (unit: mV)
1870:Drivers/STM32U0xx_HAL_Driver/Inc/stm32u0xx_ll_adc.h ****   * @param  __VREFANALOG_VOLTAGE__        Analog voltage reference (Vref+) value (unit: mV)
1871:Drivers/STM32U0xx_HAL_Driver/Inc/stm32u0xx_ll_adc.h ****   * @param  __TEMPSENSOR_ADC_DATA__       ADC conversion data of internal temperature sensor (unit:
1872:Drivers/STM32U0xx_HAL_Driver/Inc/stm32u0xx_ll_adc.h ****   * @param  __ADC_RESOLUTION__            ADC resolution at which internal temperature sensor volta
