ARM GAS  C:\Users\upo\AppData\Local\Temp\cc686eZe.s 			page 1


   1              		.cpu cortex-m0plus
   2              		.arch armv6s-m
   3              		.fpu softvfp
   4              		.eabi_attribute 20, 1
   5              		.eabi_attribute 21, 1
   6              		.eabi_attribute 23, 3
   7              		.eabi_attribute 24, 1
   8              		.eabi_attribute 25, 1
   9              		.eabi_attribute 26, 1
  10              		.eabi_attribute 30, 2
  11              		.eabi_attribute 34, 0
  12              		.eabi_attribute 18, 4
  13              		.file	"stm32u0xx_hal_gpio.c"
  14              		.text
  15              	.Ltext0:
  16              		.cfi_sections	.debug_frame
  17              		.file 1 "Drivers/STM32U0xx_HAL_Driver/Src/stm32u0xx_hal_gpio.c"
  18              		.section	.text.HAL_GPIO_Init,"ax",%progbits
  19              		.align	1
  20              		.p2align 2,,3
  21              		.global	HAL_GPIO_Init
  22              		.syntax unified
  23              		.code	16
  24              		.thumb_func
  26              	HAL_GPIO_Init:
  27              	.LVL0:
  28              	.LFB334:
   1:Drivers/STM32U0xx_HAL_Driver/Src/stm32u0xx_hal_gpio.c **** /**
   2:Drivers/STM32U0xx_HAL_Driver/Src/stm32u0xx_hal_gpio.c ****   ******************************************************************************
   3:Drivers/STM32U0xx_HAL_Driver/Src/stm32u0xx_hal_gpio.c ****   * @file    stm32u0xx_hal_gpio.c
   4:Drivers/STM32U0xx_HAL_Driver/Src/stm32u0xx_hal_gpio.c ****   * @author  MCD Application Team
   5:Drivers/STM32U0xx_HAL_Driver/Src/stm32u0xx_hal_gpio.c ****   * @brief   GPIO HAL module driver.
   6:Drivers/STM32U0xx_HAL_Driver/Src/stm32u0xx_hal_gpio.c ****   *          This file provides firmware functions to manage the following
   7:Drivers/STM32U0xx_HAL_Driver/Src/stm32u0xx_hal_gpio.c ****   *          functionalities of the General Purpose Input/Output (GPIO) peripheral:
   8:Drivers/STM32U0xx_HAL_Driver/Src/stm32u0xx_hal_gpio.c ****   *           + Initialization and de-initialization functions
   9:Drivers/STM32U0xx_HAL_Driver/Src/stm32u0xx_hal_gpio.c ****   *           + IO operation functions
  10:Drivers/STM32U0xx_HAL_Driver/Src/stm32u0xx_hal_gpio.c ****   *
  11:Drivers/STM32U0xx_HAL_Driver/Src/stm32u0xx_hal_gpio.c ****   ******************************************************************************
  12:Drivers/STM32U0xx_HAL_Driver/Src/stm32u0xx_hal_gpio.c ****   * @attention
  13:Drivers/STM32U0xx_HAL_Driver/Src/stm32u0xx_hal_gpio.c ****   *
  14:Drivers/STM32U0xx_HAL_Driver/Src/stm32u0xx_hal_gpio.c ****   * Copyright (c) 2023 STMicroelectronics.
  15:Drivers/STM32U0xx_HAL_Driver/Src/stm32u0xx_hal_gpio.c ****   * All rights reserved.
  16:Drivers/STM32U0xx_HAL_Driver/Src/stm32u0xx_hal_gpio.c ****   *
  17:Drivers/STM32U0xx_HAL_Driver/Src/stm32u0xx_hal_gpio.c ****   * This software is licensed under terms that can be found in the LICENSE file
  18:Drivers/STM32U0xx_HAL_Driver/Src/stm32u0xx_hal_gpio.c ****   * in the root directory of this software component.
  19:Drivers/STM32U0xx_HAL_Driver/Src/stm32u0xx_hal_gpio.c ****   * If no LICENSE file comes with this software, it is provided AS-IS.
  20:Drivers/STM32U0xx_HAL_Driver/Src/stm32u0xx_hal_gpio.c ****   *
  21:Drivers/STM32U0xx_HAL_Driver/Src/stm32u0xx_hal_gpio.c ****   ******************************************************************************
  22:Drivers/STM32U0xx_HAL_Driver/Src/stm32u0xx_hal_gpio.c ****   @verbatim
  23:Drivers/STM32U0xx_HAL_Driver/Src/stm32u0xx_hal_gpio.c ****   ==============================================================================
  24:Drivers/STM32U0xx_HAL_Driver/Src/stm32u0xx_hal_gpio.c ****                     ##### GPIO Peripheral features #####
  25:Drivers/STM32U0xx_HAL_Driver/Src/stm32u0xx_hal_gpio.c ****   ==============================================================================
  26:Drivers/STM32U0xx_HAL_Driver/Src/stm32u0xx_hal_gpio.c ****   [..]
  27:Drivers/STM32U0xx_HAL_Driver/Src/stm32u0xx_hal_gpio.c ****     (+) Each port bit of the general-purpose I/O (GPIO) ports can be individually
  28:Drivers/STM32U0xx_HAL_Driver/Src/stm32u0xx_hal_gpio.c ****         configured by software in several modes:
  29:Drivers/STM32U0xx_HAL_Driver/Src/stm32u0xx_hal_gpio.c ****         (++) Input mode
  30:Drivers/STM32U0xx_HAL_Driver/Src/stm32u0xx_hal_gpio.c ****         (++) Analog mode
ARM GAS  C:\Users\upo\AppData\Local\Temp\cc686eZe.s 			page 2


  31:Drivers/STM32U0xx_HAL_Driver/Src/stm32u0xx_hal_gpio.c ****         (++) Output mode
  32:Drivers/STM32U0xx_HAL_Driver/Src/stm32u0xx_hal_gpio.c ****         (++) Alternate function mode
  33:Drivers/STM32U0xx_HAL_Driver/Src/stm32u0xx_hal_gpio.c ****         (++) External interrupt/event lines
  34:Drivers/STM32U0xx_HAL_Driver/Src/stm32u0xx_hal_gpio.c **** 
  35:Drivers/STM32U0xx_HAL_Driver/Src/stm32u0xx_hal_gpio.c ****     (+) During and just after reset, the alternate functions and external interrupt
  36:Drivers/STM32U0xx_HAL_Driver/Src/stm32u0xx_hal_gpio.c ****         lines are not active and the I/O ports are configured in input floating mode.
  37:Drivers/STM32U0xx_HAL_Driver/Src/stm32u0xx_hal_gpio.c **** 
  38:Drivers/STM32U0xx_HAL_Driver/Src/stm32u0xx_hal_gpio.c ****     (+) All GPIO pins have weak internal pull-up and pull-down resistors, which can be
  39:Drivers/STM32U0xx_HAL_Driver/Src/stm32u0xx_hal_gpio.c ****         activated or not.
  40:Drivers/STM32U0xx_HAL_Driver/Src/stm32u0xx_hal_gpio.c **** 
  41:Drivers/STM32U0xx_HAL_Driver/Src/stm32u0xx_hal_gpio.c ****     (+) In Output or Alternate mode, each IO can be configured on open-drain or push-pull
  42:Drivers/STM32U0xx_HAL_Driver/Src/stm32u0xx_hal_gpio.c ****         type and the IO speed can be selected depending on the VDD value.
  43:Drivers/STM32U0xx_HAL_Driver/Src/stm32u0xx_hal_gpio.c **** 
  44:Drivers/STM32U0xx_HAL_Driver/Src/stm32u0xx_hal_gpio.c ****     (+) The microcontroller IO pins are connected to onboard peripherals/modules through a
  45:Drivers/STM32U0xx_HAL_Driver/Src/stm32u0xx_hal_gpio.c ****         multiplexer that allows only one peripheral alternate function (AF) connected
  46:Drivers/STM32U0xx_HAL_Driver/Src/stm32u0xx_hal_gpio.c ****        to an IO pin at a time. In this way, there can be no conflict between peripherals
  47:Drivers/STM32U0xx_HAL_Driver/Src/stm32u0xx_hal_gpio.c ****        sharing the same IO pin.
  48:Drivers/STM32U0xx_HAL_Driver/Src/stm32u0xx_hal_gpio.c **** 
  49:Drivers/STM32U0xx_HAL_Driver/Src/stm32u0xx_hal_gpio.c ****     (+) All ports have external interrupt/event capability. To use external interrupt
  50:Drivers/STM32U0xx_HAL_Driver/Src/stm32u0xx_hal_gpio.c ****         lines, the port must be configured in input mode. All available GPIO pins are
  51:Drivers/STM32U0xx_HAL_Driver/Src/stm32u0xx_hal_gpio.c ****         connected to the 16 external interrupt/event lines from EXTI0 to EXTI15.
  52:Drivers/STM32U0xx_HAL_Driver/Src/stm32u0xx_hal_gpio.c **** 
  53:Drivers/STM32U0xx_HAL_Driver/Src/stm32u0xx_hal_gpio.c ****     (+) The external interrupt/event controller consists of up to 28 edge detectors
  54:Drivers/STM32U0xx_HAL_Driver/Src/stm32u0xx_hal_gpio.c ****         (16 lines are connected to GPIO) for generating event/interrupt requests (each
  55:Drivers/STM32U0xx_HAL_Driver/Src/stm32u0xx_hal_gpio.c ****         input line can be independently configured to select the type (interrupt or event)
  56:Drivers/STM32U0xx_HAL_Driver/Src/stm32u0xx_hal_gpio.c ****         and the corresponding trigger event (rising or falling or both). Each line can
  57:Drivers/STM32U0xx_HAL_Driver/Src/stm32u0xx_hal_gpio.c ****         also be masked independently.
  58:Drivers/STM32U0xx_HAL_Driver/Src/stm32u0xx_hal_gpio.c **** 
  59:Drivers/STM32U0xx_HAL_Driver/Src/stm32u0xx_hal_gpio.c ****                      ##### How to use this driver #####
  60:Drivers/STM32U0xx_HAL_Driver/Src/stm32u0xx_hal_gpio.c ****   ==============================================================================
  61:Drivers/STM32U0xx_HAL_Driver/Src/stm32u0xx_hal_gpio.c ****   [..]
  62:Drivers/STM32U0xx_HAL_Driver/Src/stm32u0xx_hal_gpio.c ****     (#) Enable the GPIO AHB clock using the following function: __HAL_RCC_GPIOx_CLK_ENABLE().
  63:Drivers/STM32U0xx_HAL_Driver/Src/stm32u0xx_hal_gpio.c **** 
  64:Drivers/STM32U0xx_HAL_Driver/Src/stm32u0xx_hal_gpio.c ****     (#) Configure the GPIO pin(s) using HAL_GPIO_Init().
  65:Drivers/STM32U0xx_HAL_Driver/Src/stm32u0xx_hal_gpio.c ****         (++) Configure the IO mode using "Mode" member from GPIO_InitTypeDef structure
  66:Drivers/STM32U0xx_HAL_Driver/Src/stm32u0xx_hal_gpio.c ****         (++) Activate Pull-up, Pull-down resistor using "Pull" member from GPIO_InitTypeDef
  67:Drivers/STM32U0xx_HAL_Driver/Src/stm32u0xx_hal_gpio.c ****              structure.
  68:Drivers/STM32U0xx_HAL_Driver/Src/stm32u0xx_hal_gpio.c ****         (++) In case of Output or alternate function mode selection: the speed is
  69:Drivers/STM32U0xx_HAL_Driver/Src/stm32u0xx_hal_gpio.c ****              configured through "Speed" member from GPIO_InitTypeDef structure.
  70:Drivers/STM32U0xx_HAL_Driver/Src/stm32u0xx_hal_gpio.c ****         (++) In alternate mode is selection, the alternate function connected to the IO
  71:Drivers/STM32U0xx_HAL_Driver/Src/stm32u0xx_hal_gpio.c ****              is configured through "Alternate" member from GPIO_InitTypeDef structure.
  72:Drivers/STM32U0xx_HAL_Driver/Src/stm32u0xx_hal_gpio.c ****         (++) Analog mode is required when a pin is to be used as ADC channel
  73:Drivers/STM32U0xx_HAL_Driver/Src/stm32u0xx_hal_gpio.c ****              or DAC output.
  74:Drivers/STM32U0xx_HAL_Driver/Src/stm32u0xx_hal_gpio.c ****         (++) In case of external interrupt/event selection the "Mode" member from
  75:Drivers/STM32U0xx_HAL_Driver/Src/stm32u0xx_hal_gpio.c ****              GPIO_InitTypeDef structure select the type (interrupt or event) and
  76:Drivers/STM32U0xx_HAL_Driver/Src/stm32u0xx_hal_gpio.c ****              the corresponding trigger event (rising or falling or both).
  77:Drivers/STM32U0xx_HAL_Driver/Src/stm32u0xx_hal_gpio.c **** 
  78:Drivers/STM32U0xx_HAL_Driver/Src/stm32u0xx_hal_gpio.c ****     (#) In case of external interrupt/event mode selection, configure NVIC IRQ priority
  79:Drivers/STM32U0xx_HAL_Driver/Src/stm32u0xx_hal_gpio.c ****         mapped to the EXTI line using HAL_NVIC_SetPriority() and enable it using
  80:Drivers/STM32U0xx_HAL_Driver/Src/stm32u0xx_hal_gpio.c ****         HAL_NVIC_EnableIRQ().
  81:Drivers/STM32U0xx_HAL_Driver/Src/stm32u0xx_hal_gpio.c **** 
  82:Drivers/STM32U0xx_HAL_Driver/Src/stm32u0xx_hal_gpio.c ****     (#) To get the level of a pin configured in input mode use HAL_GPIO_ReadPin().
  83:Drivers/STM32U0xx_HAL_Driver/Src/stm32u0xx_hal_gpio.c **** 
  84:Drivers/STM32U0xx_HAL_Driver/Src/stm32u0xx_hal_gpio.c ****     (#) To set/reset the level of a pin configured in output mode use
  85:Drivers/STM32U0xx_HAL_Driver/Src/stm32u0xx_hal_gpio.c ****         HAL_GPIO_WritePin()/HAL_GPIO_TogglePin().
  86:Drivers/STM32U0xx_HAL_Driver/Src/stm32u0xx_hal_gpio.c **** 
  87:Drivers/STM32U0xx_HAL_Driver/Src/stm32u0xx_hal_gpio.c ****    (#) To lock pin configuration until next reset use HAL_GPIO_LockPin().
ARM GAS  C:\Users\upo\AppData\Local\Temp\cc686eZe.s 			page 3


  88:Drivers/STM32U0xx_HAL_Driver/Src/stm32u0xx_hal_gpio.c **** 
  89:Drivers/STM32U0xx_HAL_Driver/Src/stm32u0xx_hal_gpio.c ****     (#) During and just after reset, the alternate functions are not
  90:Drivers/STM32U0xx_HAL_Driver/Src/stm32u0xx_hal_gpio.c ****         active and the GPIO pins are configured in input floating mode (except JTAG
  91:Drivers/STM32U0xx_HAL_Driver/Src/stm32u0xx_hal_gpio.c ****         pins).
  92:Drivers/STM32U0xx_HAL_Driver/Src/stm32u0xx_hal_gpio.c **** 
  93:Drivers/STM32U0xx_HAL_Driver/Src/stm32u0xx_hal_gpio.c ****     (#) The LSE oscillator pins OSC32_IN and OSC32_OUT can be used as general purpose
  94:Drivers/STM32U0xx_HAL_Driver/Src/stm32u0xx_hal_gpio.c ****         (PC14 and PC15, respectively) when the LSE oscillator is off. The LSE has
  95:Drivers/STM32U0xx_HAL_Driver/Src/stm32u0xx_hal_gpio.c ****         priority over the GPIO function.
  96:Drivers/STM32U0xx_HAL_Driver/Src/stm32u0xx_hal_gpio.c **** 
  97:Drivers/STM32U0xx_HAL_Driver/Src/stm32u0xx_hal_gpio.c ****     (#) The HSE oscillator pins OSC_IN/OSC_OUT can be used as
  98:Drivers/STM32U0xx_HAL_Driver/Src/stm32u0xx_hal_gpio.c ****         general purpose PF0 and PF1, respectively, when the HSE oscillator is off.
  99:Drivers/STM32U0xx_HAL_Driver/Src/stm32u0xx_hal_gpio.c ****         The HSE has priority over the GPIO function.
 100:Drivers/STM32U0xx_HAL_Driver/Src/stm32u0xx_hal_gpio.c **** 
 101:Drivers/STM32U0xx_HAL_Driver/Src/stm32u0xx_hal_gpio.c ****   @endverbatim
 102:Drivers/STM32U0xx_HAL_Driver/Src/stm32u0xx_hal_gpio.c ****   ******************************************************************************
 103:Drivers/STM32U0xx_HAL_Driver/Src/stm32u0xx_hal_gpio.c ****   */
 104:Drivers/STM32U0xx_HAL_Driver/Src/stm32u0xx_hal_gpio.c **** 
 105:Drivers/STM32U0xx_HAL_Driver/Src/stm32u0xx_hal_gpio.c **** /* Includes ------------------------------------------------------------------*/
 106:Drivers/STM32U0xx_HAL_Driver/Src/stm32u0xx_hal_gpio.c **** #include "stm32u0xx_hal.h"
 107:Drivers/STM32U0xx_HAL_Driver/Src/stm32u0xx_hal_gpio.c **** 
 108:Drivers/STM32U0xx_HAL_Driver/Src/stm32u0xx_hal_gpio.c **** /** @addtogroup STM32U0xx_HAL_Driver
 109:Drivers/STM32U0xx_HAL_Driver/Src/stm32u0xx_hal_gpio.c ****   * @{
 110:Drivers/STM32U0xx_HAL_Driver/Src/stm32u0xx_hal_gpio.c ****   */
 111:Drivers/STM32U0xx_HAL_Driver/Src/stm32u0xx_hal_gpio.c **** 
 112:Drivers/STM32U0xx_HAL_Driver/Src/stm32u0xx_hal_gpio.c **** /** @addtogroup GPIO
 113:Drivers/STM32U0xx_HAL_Driver/Src/stm32u0xx_hal_gpio.c ****   * @{
 114:Drivers/STM32U0xx_HAL_Driver/Src/stm32u0xx_hal_gpio.c ****   */
 115:Drivers/STM32U0xx_HAL_Driver/Src/stm32u0xx_hal_gpio.c **** 
 116:Drivers/STM32U0xx_HAL_Driver/Src/stm32u0xx_hal_gpio.c **** #ifdef HAL_GPIO_MODULE_ENABLED
 117:Drivers/STM32U0xx_HAL_Driver/Src/stm32u0xx_hal_gpio.c **** 
 118:Drivers/STM32U0xx_HAL_Driver/Src/stm32u0xx_hal_gpio.c **** /* Private typedef -----------------------------------------------------------*/
 119:Drivers/STM32U0xx_HAL_Driver/Src/stm32u0xx_hal_gpio.c **** /* Private defines ------------------------------------------------------------*/
 120:Drivers/STM32U0xx_HAL_Driver/Src/stm32u0xx_hal_gpio.c **** /** @addtogroup GPIO_Private_Constants
 121:Drivers/STM32U0xx_HAL_Driver/Src/stm32u0xx_hal_gpio.c ****   * @{
 122:Drivers/STM32U0xx_HAL_Driver/Src/stm32u0xx_hal_gpio.c ****   */
 123:Drivers/STM32U0xx_HAL_Driver/Src/stm32u0xx_hal_gpio.c **** #define GPIO_NUMBER           (16u)
 124:Drivers/STM32U0xx_HAL_Driver/Src/stm32u0xx_hal_gpio.c **** /**
 125:Drivers/STM32U0xx_HAL_Driver/Src/stm32u0xx_hal_gpio.c ****   * @}
 126:Drivers/STM32U0xx_HAL_Driver/Src/stm32u0xx_hal_gpio.c ****   */
 127:Drivers/STM32U0xx_HAL_Driver/Src/stm32u0xx_hal_gpio.c **** 
 128:Drivers/STM32U0xx_HAL_Driver/Src/stm32u0xx_hal_gpio.c **** /* Private macros ------------------------------------------------------------*/
 129:Drivers/STM32U0xx_HAL_Driver/Src/stm32u0xx_hal_gpio.c **** /* Private variables ---------------------------------------------------------*/
 130:Drivers/STM32U0xx_HAL_Driver/Src/stm32u0xx_hal_gpio.c **** /* Private function prototypes -----------------------------------------------*/
 131:Drivers/STM32U0xx_HAL_Driver/Src/stm32u0xx_hal_gpio.c **** /* Exported functions --------------------------------------------------------*/
 132:Drivers/STM32U0xx_HAL_Driver/Src/stm32u0xx_hal_gpio.c **** 
 133:Drivers/STM32U0xx_HAL_Driver/Src/stm32u0xx_hal_gpio.c **** /** @addtogroup GPIO_Exported_Functions
 134:Drivers/STM32U0xx_HAL_Driver/Src/stm32u0xx_hal_gpio.c ****   * @{
 135:Drivers/STM32U0xx_HAL_Driver/Src/stm32u0xx_hal_gpio.c ****   */
 136:Drivers/STM32U0xx_HAL_Driver/Src/stm32u0xx_hal_gpio.c **** 
 137:Drivers/STM32U0xx_HAL_Driver/Src/stm32u0xx_hal_gpio.c **** /** @addtogroup GPIO_Exported_Functions_Group1
 138:Drivers/STM32U0xx_HAL_Driver/Src/stm32u0xx_hal_gpio.c ****   *  @brief    Initialization and Configuration functions
 139:Drivers/STM32U0xx_HAL_Driver/Src/stm32u0xx_hal_gpio.c ****   *
 140:Drivers/STM32U0xx_HAL_Driver/Src/stm32u0xx_hal_gpio.c **** @verbatim
 141:Drivers/STM32U0xx_HAL_Driver/Src/stm32u0xx_hal_gpio.c ****  ===============================================================================
 142:Drivers/STM32U0xx_HAL_Driver/Src/stm32u0xx_hal_gpio.c ****               ##### Initialization and de-initialization functions #####
 143:Drivers/STM32U0xx_HAL_Driver/Src/stm32u0xx_hal_gpio.c ****  ===============================================================================
 144:Drivers/STM32U0xx_HAL_Driver/Src/stm32u0xx_hal_gpio.c **** 
ARM GAS  C:\Users\upo\AppData\Local\Temp\cc686eZe.s 			page 4


 145:Drivers/STM32U0xx_HAL_Driver/Src/stm32u0xx_hal_gpio.c **** @endverbatim
 146:Drivers/STM32U0xx_HAL_Driver/Src/stm32u0xx_hal_gpio.c ****   * @{
 147:Drivers/STM32U0xx_HAL_Driver/Src/stm32u0xx_hal_gpio.c ****   */
 148:Drivers/STM32U0xx_HAL_Driver/Src/stm32u0xx_hal_gpio.c **** 
 149:Drivers/STM32U0xx_HAL_Driver/Src/stm32u0xx_hal_gpio.c **** /**
 150:Drivers/STM32U0xx_HAL_Driver/Src/stm32u0xx_hal_gpio.c ****   * @brief  Initialize the GPIOx peripheral according to the specified parameters in the GPIO_Init.
 151:Drivers/STM32U0xx_HAL_Driver/Src/stm32u0xx_hal_gpio.c ****   * @param  GPIOx where x can be (A..F) to select the GPIO peripheral for STM32U0xx family
 152:Drivers/STM32U0xx_HAL_Driver/Src/stm32u0xx_hal_gpio.c ****   * @param  GPIO_Init pointer to a GPIO_InitTypeDef structure that contains
 153:Drivers/STM32U0xx_HAL_Driver/Src/stm32u0xx_hal_gpio.c ****   *         the configuration information for the specified GPIO peripheral.
 154:Drivers/STM32U0xx_HAL_Driver/Src/stm32u0xx_hal_gpio.c ****   * @retval None
 155:Drivers/STM32U0xx_HAL_Driver/Src/stm32u0xx_hal_gpio.c ****   */
 156:Drivers/STM32U0xx_HAL_Driver/Src/stm32u0xx_hal_gpio.c **** void HAL_GPIO_Init(GPIO_TypeDef  *GPIOx, const GPIO_InitTypeDef *GPIO_Init)
 157:Drivers/STM32U0xx_HAL_Driver/Src/stm32u0xx_hal_gpio.c **** {
  29              		.loc 1 157 1 view -0
  30              		.cfi_startproc
  31              		@ args = 0, pretend = 0, frame = 8
  32              		@ frame_needed = 0, uses_anonymous_args = 0
 158:Drivers/STM32U0xx_HAL_Driver/Src/stm32u0xx_hal_gpio.c ****   uint32_t position = 0x00u;
  33              		.loc 1 158 3 view .LVU1
 159:Drivers/STM32U0xx_HAL_Driver/Src/stm32u0xx_hal_gpio.c ****   uint32_t iocurrent;
  34              		.loc 1 159 3 view .LVU2
 160:Drivers/STM32U0xx_HAL_Driver/Src/stm32u0xx_hal_gpio.c ****   uint32_t temp;
  35              		.loc 1 160 3 view .LVU3
 161:Drivers/STM32U0xx_HAL_Driver/Src/stm32u0xx_hal_gpio.c **** 
 162:Drivers/STM32U0xx_HAL_Driver/Src/stm32u0xx_hal_gpio.c ****   /* Check the parameters */
 163:Drivers/STM32U0xx_HAL_Driver/Src/stm32u0xx_hal_gpio.c ****   assert_param(IS_GPIO_ALL_INSTANCE(GPIOx));
  36              		.loc 1 163 3 view .LVU4
 164:Drivers/STM32U0xx_HAL_Driver/Src/stm32u0xx_hal_gpio.c ****   assert_param(IS_GPIO_PIN(GPIO_Init->Pin));
  37              		.loc 1 164 3 view .LVU5
 165:Drivers/STM32U0xx_HAL_Driver/Src/stm32u0xx_hal_gpio.c ****   assert_param(IS_GPIO_MODE(GPIO_Init->Mode));
  38              		.loc 1 165 3 view .LVU6
 166:Drivers/STM32U0xx_HAL_Driver/Src/stm32u0xx_hal_gpio.c **** 
 167:Drivers/STM32U0xx_HAL_Driver/Src/stm32u0xx_hal_gpio.c ****   /* Configure the port pins */
 168:Drivers/STM32U0xx_HAL_Driver/Src/stm32u0xx_hal_gpio.c ****   while (((GPIO_Init->Pin) >> position) != 0x00u)
  39              		.loc 1 168 3 view .LVU7
  40              		.loc 1 168 41 view .LVU8
 157:Drivers/STM32U0xx_HAL_Driver/Src/stm32u0xx_hal_gpio.c ****   uint32_t position = 0x00u;
  41              		.loc 1 157 1 is_stmt 0 view .LVU9
  42 0000 F0B5     		push	{r4, r5, r6, r7, lr}
  43              	.LCFI0:
  44              		.cfi_def_cfa_offset 20
  45              		.cfi_offset 4, -20
  46              		.cfi_offset 5, -16
  47              		.cfi_offset 6, -12
  48              		.cfi_offset 7, -8
  49              		.cfi_offset 14, -4
  50 0002 DE46     		mov	lr, fp
  51 0004 5746     		mov	r7, r10
  52 0006 4E46     		mov	r6, r9
  53 0008 4546     		mov	r5, r8
  54 000a E0B5     		push	{r5, r6, r7, lr}
  55              	.LCFI1:
  56              		.cfi_def_cfa_offset 36
  57              		.cfi_offset 8, -36
  58              		.cfi_offset 9, -32
  59              		.cfi_offset 10, -28
  60              		.cfi_offset 11, -24
ARM GAS  C:\Users\upo\AppData\Local\Temp\cc686eZe.s 			page 5


  61              		.loc 1 168 21 view .LVU10
  62 000c 0C68     		ldr	r4, [r1]
 157:Drivers/STM32U0xx_HAL_Driver/Src/stm32u0xx_hal_gpio.c ****   uint32_t position = 0x00u;
  63              		.loc 1 157 1 view .LVU11
  64 000e 8B46     		mov	fp, r1
 158:Drivers/STM32U0xx_HAL_Driver/Src/stm32u0xx_hal_gpio.c ****   uint32_t iocurrent;
  65              		.loc 1 158 12 view .LVU12
  66 0010 0023     		movs	r3, #0
 157:Drivers/STM32U0xx_HAL_Driver/Src/stm32u0xx_hal_gpio.c ****   uint32_t position = 0x00u;
  67              		.loc 1 157 1 view .LVU13
  68 0012 83B0     		sub	sp, sp, #12
  69              	.LCFI2:
  70              		.cfi_def_cfa_offset 48
  71              		.loc 1 168 41 view .LVU14
  72 0014 002C     		cmp	r4, #0
  73 0016 70D0     		beq	.L1
  74              	.LVL1:
  75              	.L2:
 169:Drivers/STM32U0xx_HAL_Driver/Src/stm32u0xx_hal_gpio.c ****   {
 170:Drivers/STM32U0xx_HAL_Driver/Src/stm32u0xx_hal_gpio.c ****     /* Get current io position */
 171:Drivers/STM32U0xx_HAL_Driver/Src/stm32u0xx_hal_gpio.c ****     iocurrent = (GPIO_Init->Pin) & (1uL << position);
  76              		.loc 1 171 5 is_stmt 1 view .LVU15
  77              		.loc 1 171 41 is_stmt 0 view .LVU16
  78 0018 0122     		movs	r2, #1
  79 001a 9A40     		lsls	r2, r2, r3
  80 001c 9446     		mov	ip, r2
  81              		.loc 1 171 15 view .LVU17
  82 001e 2240     		ands	r2, r4
  83 0020 9246     		mov	r10, r2
  84              	.LVL2:
 172:Drivers/STM32U0xx_HAL_Driver/Src/stm32u0xx_hal_gpio.c **** 
 173:Drivers/STM32U0xx_HAL_Driver/Src/stm32u0xx_hal_gpio.c ****     if (iocurrent != 0x00u)
  85              		.loc 1 173 5 is_stmt 1 view .LVU18
  86              		.loc 1 173 8 is_stmt 0 view .LVU19
  87 0022 6246     		mov	r2, ip
  88              	.LVL3:
  89              		.loc 1 173 8 view .LVU20
  90 0024 1442     		tst	r4, r2
  91 0026 64D0     		beq	.L4
 174:Drivers/STM32U0xx_HAL_Driver/Src/stm32u0xx_hal_gpio.c ****     {
 175:Drivers/STM32U0xx_HAL_Driver/Src/stm32u0xx_hal_gpio.c ****       /*--------------------- GPIO Mode Configuration ------------------------*/
 176:Drivers/STM32U0xx_HAL_Driver/Src/stm32u0xx_hal_gpio.c ****       /* In case of Output or Alternate function mode selection */
 177:Drivers/STM32U0xx_HAL_Driver/Src/stm32u0xx_hal_gpio.c ****       if (((GPIO_Init->Mode & GPIO_MODE) == MODE_OUTPUT) || ((GPIO_Init->Mode & GPIO_MODE) == MODE_
  92              		.loc 1 177 7 is_stmt 1 view .LVU21
 178:Drivers/STM32U0xx_HAL_Driver/Src/stm32u0xx_hal_gpio.c ****       {
 179:Drivers/STM32U0xx_HAL_Driver/Src/stm32u0xx_hal_gpio.c ****         /* Check the Speed parameter */
 180:Drivers/STM32U0xx_HAL_Driver/Src/stm32u0xx_hal_gpio.c ****         assert_param(IS_GPIO_SPEED(GPIO_Init->Speed));
 181:Drivers/STM32U0xx_HAL_Driver/Src/stm32u0xx_hal_gpio.c **** 
 182:Drivers/STM32U0xx_HAL_Driver/Src/stm32u0xx_hal_gpio.c ****         /* Configure the IO Speed */
 183:Drivers/STM32U0xx_HAL_Driver/Src/stm32u0xx_hal_gpio.c ****         temp = GPIOx->OSPEEDR;
 184:Drivers/STM32U0xx_HAL_Driver/Src/stm32u0xx_hal_gpio.c ****         temp &= ~(GPIO_OSPEEDR_OSPEED0 << (position * GPIO_OSPEEDR_OSPEED1_Pos));
  93              		.loc 1 184 40 is_stmt 0 view .LVU22
  94 0028 0321     		movs	r1, #3
 177:Drivers/STM32U0xx_HAL_Driver/Src/stm32u0xx_hal_gpio.c ****       {
  95              		.loc 1 177 22 view .LVU23
  96 002a 5A46     		mov	r2, fp
  97 002c 5F00     		lsls	r7, r3, #1
ARM GAS  C:\Users\upo\AppData\Local\Temp\cc686eZe.s 			page 6


  98              		.loc 1 184 40 view .LVU24
  99 002e B940     		lsls	r1, r1, r7
 177:Drivers/STM32U0xx_HAL_Driver/Src/stm32u0xx_hal_gpio.c ****       {
 100              		.loc 1 177 22 view .LVU25
 101 0030 5568     		ldr	r5, [r2, #4]
 177:Drivers/STM32U0xx_HAL_Driver/Src/stm32u0xx_hal_gpio.c ****       {
 102              		.loc 1 177 29 view .LVU26
 103 0032 0322     		movs	r2, #3
 104              		.loc 1 184 17 view .LVU27
 105 0034 C943     		mvns	r1, r1
 177:Drivers/STM32U0xx_HAL_Driver/Src/stm32u0xx_hal_gpio.c ****       {
 106              		.loc 1 177 29 view .LVU28
 107 0036 2A40     		ands	r2, r5
 177:Drivers/STM32U0xx_HAL_Driver/Src/stm32u0xx_hal_gpio.c ****       {
 108              		.loc 1 177 58 view .LVU29
 109 0038 561E     		subs	r6, r2, #1
 110              		.loc 1 184 17 view .LVU30
 111 003a 0091     		str	r1, [sp]
 177:Drivers/STM32U0xx_HAL_Driver/Src/stm32u0xx_hal_gpio.c ****       {
 112              		.loc 1 177 10 view .LVU31
 113 003c 012E     		cmp	r6, #1
 114 003e 63D9     		bls	.L33
 185:Drivers/STM32U0xx_HAL_Driver/Src/stm32u0xx_hal_gpio.c ****         temp |= (GPIO_Init->Speed << (position * GPIO_OSPEEDR_OSPEED1_Pos));
 186:Drivers/STM32U0xx_HAL_Driver/Src/stm32u0xx_hal_gpio.c ****         GPIOx->OSPEEDR = temp;
 187:Drivers/STM32U0xx_HAL_Driver/Src/stm32u0xx_hal_gpio.c **** 
 188:Drivers/STM32U0xx_HAL_Driver/Src/stm32u0xx_hal_gpio.c ****         /* Configure the IO Output Type */
 189:Drivers/STM32U0xx_HAL_Driver/Src/stm32u0xx_hal_gpio.c ****         temp = GPIOx->OTYPER;
 190:Drivers/STM32U0xx_HAL_Driver/Src/stm32u0xx_hal_gpio.c ****         temp &= ~(GPIO_OTYPER_OT0 << position) ;
 191:Drivers/STM32U0xx_HAL_Driver/Src/stm32u0xx_hal_gpio.c ****         temp |= (((GPIO_Init->Mode & OUTPUT_TYPE) >> OUTPUT_TYPE_POS) << position);
 192:Drivers/STM32U0xx_HAL_Driver/Src/stm32u0xx_hal_gpio.c ****         GPIOx->OTYPER = temp;
 193:Drivers/STM32U0xx_HAL_Driver/Src/stm32u0xx_hal_gpio.c ****       }
 194:Drivers/STM32U0xx_HAL_Driver/Src/stm32u0xx_hal_gpio.c **** 
 195:Drivers/STM32U0xx_HAL_Driver/Src/stm32u0xx_hal_gpio.c ****       if ((GPIO_Init->Mode & GPIO_MODE) != MODE_ANALOG)
 115              		.loc 1 195 7 is_stmt 1 view .LVU32
 116              		.loc 1 195 10 is_stmt 0 view .LVU33
 117 0040 032A     		cmp	r2, #3
 118 0042 00D0     		beq	.LCB75
 119 0044 B5E0     		b	.L34	@long jump
 120              	.LCB75:
 121              	.L9:
 196:Drivers/STM32U0xx_HAL_Driver/Src/stm32u0xx_hal_gpio.c ****       {
 197:Drivers/STM32U0xx_HAL_Driver/Src/stm32u0xx_hal_gpio.c ****         /* Check the Pull parameter */
 198:Drivers/STM32U0xx_HAL_Driver/Src/stm32u0xx_hal_gpio.c ****         assert_param(IS_GPIO_PULL(GPIO_Init->Pull));
 199:Drivers/STM32U0xx_HAL_Driver/Src/stm32u0xx_hal_gpio.c **** 
 200:Drivers/STM32U0xx_HAL_Driver/Src/stm32u0xx_hal_gpio.c ****         /* Activate the Pull-up or Pull down resistor for the current IO */
 201:Drivers/STM32U0xx_HAL_Driver/Src/stm32u0xx_hal_gpio.c ****         temp = GPIOx->PUPDR;
 202:Drivers/STM32U0xx_HAL_Driver/Src/stm32u0xx_hal_gpio.c ****         temp &= ~(GPIO_PUPDR_PUPD0 << (position * GPIO_PUPDR_PUPD1_Pos));
 203:Drivers/STM32U0xx_HAL_Driver/Src/stm32u0xx_hal_gpio.c ****         temp |= ((GPIO_Init->Pull) << (position * GPIO_PUPDR_PUPD1_Pos));
 204:Drivers/STM32U0xx_HAL_Driver/Src/stm32u0xx_hal_gpio.c ****         GPIOx->PUPDR = temp;
 205:Drivers/STM32U0xx_HAL_Driver/Src/stm32u0xx_hal_gpio.c ****       }
 206:Drivers/STM32U0xx_HAL_Driver/Src/stm32u0xx_hal_gpio.c **** 
 207:Drivers/STM32U0xx_HAL_Driver/Src/stm32u0xx_hal_gpio.c ****       /* In case of Alternate function mode selection */
 208:Drivers/STM32U0xx_HAL_Driver/Src/stm32u0xx_hal_gpio.c ****       if ((GPIO_Init->Mode & GPIO_MODE) == MODE_AF)
 209:Drivers/STM32U0xx_HAL_Driver/Src/stm32u0xx_hal_gpio.c ****       {
 210:Drivers/STM32U0xx_HAL_Driver/Src/stm32u0xx_hal_gpio.c ****         /* Check the Alternate function parameters */
 211:Drivers/STM32U0xx_HAL_Driver/Src/stm32u0xx_hal_gpio.c ****         assert_param(IS_GPIO_AF_INSTANCE(GPIOx));
 212:Drivers/STM32U0xx_HAL_Driver/Src/stm32u0xx_hal_gpio.c ****         assert_param(IS_GPIO_AF(GPIO_Init->Alternate));
ARM GAS  C:\Users\upo\AppData\Local\Temp\cc686eZe.s 			page 7


 213:Drivers/STM32U0xx_HAL_Driver/Src/stm32u0xx_hal_gpio.c **** 
 214:Drivers/STM32U0xx_HAL_Driver/Src/stm32u0xx_hal_gpio.c ****         /* Configure Alternate function mapped with the current IO */
 215:Drivers/STM32U0xx_HAL_Driver/Src/stm32u0xx_hal_gpio.c ****         temp = GPIOx->AFR[position >> 3u];
 216:Drivers/STM32U0xx_HAL_Driver/Src/stm32u0xx_hal_gpio.c ****         temp &= ~(0xFu << ((position & 0x07u) * GPIO_AFRL_AFSEL1_Pos));
 217:Drivers/STM32U0xx_HAL_Driver/Src/stm32u0xx_hal_gpio.c ****         temp |= ((GPIO_Init->Alternate) << ((position & 0x07u) * GPIO_AFRL_AFSEL1_Pos));
 218:Drivers/STM32U0xx_HAL_Driver/Src/stm32u0xx_hal_gpio.c ****         GPIOx->AFR[position >> 3u] = temp;
 219:Drivers/STM32U0xx_HAL_Driver/Src/stm32u0xx_hal_gpio.c ****       }
 220:Drivers/STM32U0xx_HAL_Driver/Src/stm32u0xx_hal_gpio.c **** 
 221:Drivers/STM32U0xx_HAL_Driver/Src/stm32u0xx_hal_gpio.c ****       /* Configure IO Direction mode (Input, Output, Alternate or Analog) */
 222:Drivers/STM32U0xx_HAL_Driver/Src/stm32u0xx_hal_gpio.c ****       temp = GPIOx->MODER;
 122              		.loc 1 222 7 is_stmt 1 view .LVU34
 223:Drivers/STM32U0xx_HAL_Driver/Src/stm32u0xx_hal_gpio.c ****       temp &= ~(GPIO_MODER_MODE0 << (position * GPIO_MODER_MODE1_Pos));
 224:Drivers/STM32U0xx_HAL_Driver/Src/stm32u0xx_hal_gpio.c ****       temp |= ((GPIO_Init->Mode & GPIO_MODE) << (position * GPIO_MODER_MODE1_Pos));
 123              		.loc 1 224 46 is_stmt 0 view .LVU35
 124 0046 BA40     		lsls	r2, r2, r7
 222:Drivers/STM32U0xx_HAL_Driver/Src/stm32u0xx_hal_gpio.c ****       temp &= ~(GPIO_MODER_MODE0 << (position * GPIO_MODER_MODE1_Pos));
 125              		.loc 1 222 12 view .LVU36
 126 0048 0668     		ldr	r6, [r0]
 127              	.LVL4:
 223:Drivers/STM32U0xx_HAL_Driver/Src/stm32u0xx_hal_gpio.c ****       temp &= ~(GPIO_MODER_MODE0 << (position * GPIO_MODER_MODE1_Pos));
 128              		.loc 1 223 7 is_stmt 1 view .LVU37
 223:Drivers/STM32U0xx_HAL_Driver/Src/stm32u0xx_hal_gpio.c ****       temp &= ~(GPIO_MODER_MODE0 << (position * GPIO_MODER_MODE1_Pos));
 129              		.loc 1 223 12 is_stmt 0 view .LVU38
 130 004a 0099     		ldr	r1, [sp]
 131 004c 3140     		ands	r1, r6
 132              	.LVL5:
 133              		.loc 1 224 7 is_stmt 1 view .LVU39
 134              		.loc 1 224 12 is_stmt 0 view .LVU40
 135 004e 0A43     		orrs	r2, r1
 136              	.LVL6:
 225:Drivers/STM32U0xx_HAL_Driver/Src/stm32u0xx_hal_gpio.c ****       GPIOx->MODER = temp;
 137              		.loc 1 225 7 is_stmt 1 view .LVU41
 138              		.loc 1 225 20 is_stmt 0 view .LVU42
 139 0050 0260     		str	r2, [r0]
 226:Drivers/STM32U0xx_HAL_Driver/Src/stm32u0xx_hal_gpio.c **** 
 227:Drivers/STM32U0xx_HAL_Driver/Src/stm32u0xx_hal_gpio.c ****       /*--------------------- EXTI Mode Configuration ------------------------*/
 228:Drivers/STM32U0xx_HAL_Driver/Src/stm32u0xx_hal_gpio.c ****       /* Configure the External Interrupt or event for the current IO */
 229:Drivers/STM32U0xx_HAL_Driver/Src/stm32u0xx_hal_gpio.c ****       if ((GPIO_Init->Mode & EXTI_MODE) != 0x00u)
 140              		.loc 1 229 7 is_stmt 1 view .LVU43
 141              		.loc 1 229 10 is_stmt 0 view .LVU44
 142 0052 C022     		movs	r2, #192
 143              	.LVL7:
 144              		.loc 1 229 10 view .LVU45
 145 0054 9202     		lsls	r2, r2, #10
 146 0056 1542     		tst	r5, r2
 147 0058 4BD0     		beq	.L4
 230:Drivers/STM32U0xx_HAL_Driver/Src/stm32u0xx_hal_gpio.c ****       {
 231:Drivers/STM32U0xx_HAL_Driver/Src/stm32u0xx_hal_gpio.c ****         temp = EXTI->EXTICR[position >> 2u];
 148              		.loc 1 231 9 is_stmt 1 view .LVU46
 232:Drivers/STM32U0xx_HAL_Driver/Src/stm32u0xx_hal_gpio.c ****         temp &= ~(0x0FuL << (EXTI_EXTICR1_EXTI1_Pos * (position & 0x03u)));
 149              		.loc 1 232 65 is_stmt 0 view .LVU47
 150 005a 0327     		movs	r7, #3
 151              		.loc 1 232 26 view .LVU48
 152 005c 0F26     		movs	r6, #15
 153 005e 6549     		ldr	r1, .L40
 154              		.loc 1 232 65 view .LVU49
 155 0060 1F40     		ands	r7, r3
ARM GAS  C:\Users\upo\AppData\Local\Temp\cc686eZe.s 			page 8


 156 0062 8C46     		mov	ip, r1
 157              		.loc 1 232 53 view .LVU50
 158 0064 FF00     		lsls	r7, r7, #3
 159              		.loc 1 232 26 view .LVU51
 160 0066 BE40     		lsls	r6, r6, r7
 231:Drivers/STM32U0xx_HAL_Driver/Src/stm32u0xx_hal_gpio.c ****         temp &= ~(0x0FuL << (EXTI_EXTICR1_EXTI1_Pos * (position & 0x03u)));
 161              		.loc 1 231 38 view .LVU52
 162 0068 9A08     		lsrs	r2, r3, #2
 163 006a 9200     		lsls	r2, r2, #2
 164 006c 6244     		add	r2, r2, ip
 231:Drivers/STM32U0xx_HAL_Driver/Src/stm32u0xx_hal_gpio.c ****         temp &= ~(0x0FuL << (EXTI_EXTICR1_EXTI1_Pos * (position & 0x03u)));
 165              		.loc 1 231 14 view .LVU53
 166 006e 116E     		ldr	r1, [r2, #96]
 167              	.LVL8:
 168              		.loc 1 232 9 is_stmt 1 view .LVU54
 169              		.loc 1 232 14 is_stmt 0 view .LVU55
 170 0070 B143     		bics	r1, r6
 171              	.LVL9:
 233:Drivers/STM32U0xx_HAL_Driver/Src/stm32u0xx_hal_gpio.c ****         temp |= (GPIO_GET_INDEX(GPIOx) << (EXTI_EXTICR1_EXTI1_Pos * (position & 0x03u)));
 172              		.loc 1 233 9 is_stmt 1 view .LVU56
 173              		.loc 1 233 18 is_stmt 0 view .LVU57
 174 0072 A026     		movs	r6, #160
 175 0074 F605     		lsls	r6, r6, #23
 176 0076 B042     		cmp	r0, r6
 177 0078 16D0     		beq	.L11
 178              		.loc 1 233 18 discriminator 1 view .LVU58
 179 007a 5F4E     		ldr	r6, .L40+4
 180 007c B042     		cmp	r0, r6
 181 007e 00D1     		bne	.LCB123
 182 0080 A8E0     		b	.L35	@long jump
 183              	.LCB123:
 184              		.loc 1 233 18 discriminator 3 view .LVU59
 185 0082 5E4E     		ldr	r6, .L40+8
 186 0084 B042     		cmp	r0, r6
 187 0086 00D1     		bne	.LCB126
 188 0088 A8E0     		b	.L36	@long jump
 189              	.LCB126:
 190              		.loc 1 233 18 discriminator 5 view .LVU60
 191 008a 5D4E     		ldr	r6, .L40+12
 192 008c B042     		cmp	r0, r6
 193 008e 00D1     		bne	.LCB129
 194 0090 9CE0     		b	.L37	@long jump
 195              	.LCB129:
 196              		.loc 1 233 18 discriminator 7 view .LVU61
 197 0092 5C4E     		ldr	r6, .L40+16
 198 0094 B042     		cmp	r0, r6
 199 0096 00D1     		bne	.LCB132
 200 0098 A4E0     		b	.L38	@long jump
 201              	.LCB132:
 202              		.loc 1 233 18 discriminator 9 view .LVU62
 203 009a 5B4E     		ldr	r6, .L40+20
 204 009c B042     		cmp	r0, r6
 205 009e 00D1     		bne	.LCB135
 206 00a0 A4E0     		b	.L39	@long jump
 207              	.LCB135:
 208              		.loc 1 233 40 discriminator 12 view .LVU63
 209 00a2 0626     		movs	r6, #6
ARM GAS  C:\Users\upo\AppData\Local\Temp\cc686eZe.s 			page 9


 210 00a4 BE40     		lsls	r6, r6, r7
 211              		.loc 1 233 14 discriminator 12 view .LVU64
 212 00a6 3143     		orrs	r1, r6
 213              	.LVL10:
 214              	.L11:
 234:Drivers/STM32U0xx_HAL_Driver/Src/stm32u0xx_hal_gpio.c ****         EXTI->EXTICR[position >> 2u] = temp;
 215              		.loc 1 234 9 is_stmt 1 discriminator 24 view .LVU65
 235:Drivers/STM32U0xx_HAL_Driver/Src/stm32u0xx_hal_gpio.c **** 
 236:Drivers/STM32U0xx_HAL_Driver/Src/stm32u0xx_hal_gpio.c ****         /* Clear Rising Falling edge configuration */
 237:Drivers/STM32U0xx_HAL_Driver/Src/stm32u0xx_hal_gpio.c ****         temp = EXTI->RTSR1;
 238:Drivers/STM32U0xx_HAL_Driver/Src/stm32u0xx_hal_gpio.c ****         temp &= ~(iocurrent);
 239:Drivers/STM32U0xx_HAL_Driver/Src/stm32u0xx_hal_gpio.c ****         if ((GPIO_Init->Mode & TRIGGER_RISING) != 0x00u)
 216              		.loc 1 239 12 is_stmt 0 discriminator 24 view .LVU66
 217 00a8 8026     		movs	r6, #128
 234:Drivers/STM32U0xx_HAL_Driver/Src/stm32u0xx_hal_gpio.c ****         EXTI->EXTICR[position >> 2u] = temp;
 218              		.loc 1 234 38 discriminator 24 view .LVU67
 219 00aa 1166     		str	r1, [r2, #96]
 237:Drivers/STM32U0xx_HAL_Driver/Src/stm32u0xx_hal_gpio.c ****         temp &= ~(iocurrent);
 220              		.loc 1 237 9 is_stmt 1 discriminator 24 view .LVU68
 238:Drivers/STM32U0xx_HAL_Driver/Src/stm32u0xx_hal_gpio.c ****         if ((GPIO_Init->Mode & TRIGGER_RISING) != 0x00u)
 221              		.loc 1 238 17 is_stmt 0 discriminator 24 view .LVU69
 222 00ac 5146     		mov	r1, r10
 237:Drivers/STM32U0xx_HAL_Driver/Src/stm32u0xx_hal_gpio.c ****         temp &= ~(iocurrent);
 223              		.loc 1 237 14 discriminator 24 view .LVU70
 224 00ae 514A     		ldr	r2, .L40
 225              		.loc 1 239 12 discriminator 24 view .LVU71
 226 00b0 7603     		lsls	r6, r6, #13
 238:Drivers/STM32U0xx_HAL_Driver/Src/stm32u0xx_hal_gpio.c ****         if ((GPIO_Init->Mode & TRIGGER_RISING) != 0x00u)
 227              		.loc 1 238 17 discriminator 24 view .LVU72
 228 00b2 C943     		mvns	r1, r1
 237:Drivers/STM32U0xx_HAL_Driver/Src/stm32u0xx_hal_gpio.c ****         temp &= ~(iocurrent);
 229              		.loc 1 237 14 discriminator 24 view .LVU73
 230 00b4 1268     		ldr	r2, [r2]
 231              	.LVL11:
 238:Drivers/STM32U0xx_HAL_Driver/Src/stm32u0xx_hal_gpio.c ****         if ((GPIO_Init->Mode & TRIGGER_RISING) != 0x00u)
 232              		.loc 1 238 9 is_stmt 1 discriminator 24 view .LVU74
 233              		.loc 1 239 9 discriminator 24 view .LVU75
 234              		.loc 1 239 12 is_stmt 0 discriminator 24 view .LVU76
 235 00b6 3542     		tst	r5, r6
 236 00b8 00D0     		beq	.LCB159
 237 00ba 77E0     		b	.L17	@long jump
 238              	.LCB159:
 238:Drivers/STM32U0xx_HAL_Driver/Src/stm32u0xx_hal_gpio.c ****         if ((GPIO_Init->Mode & TRIGGER_RISING) != 0x00u)
 239              		.loc 1 238 14 view .LVU77
 240 00bc 0A40     		ands	r2, r1
 241              	.LVL12:
 242              	.L18:
 240:Drivers/STM32U0xx_HAL_Driver/Src/stm32u0xx_hal_gpio.c ****         {
 241:Drivers/STM32U0xx_HAL_Driver/Src/stm32u0xx_hal_gpio.c ****           temp |= iocurrent;
 242:Drivers/STM32U0xx_HAL_Driver/Src/stm32u0xx_hal_gpio.c ****         }
 243:Drivers/STM32U0xx_HAL_Driver/Src/stm32u0xx_hal_gpio.c ****         EXTI->RTSR1 = temp;
 243              		.loc 1 243 9 is_stmt 1 view .LVU78
 244              		.loc 1 243 21 is_stmt 0 view .LVU79
 245 00be 4D4E     		ldr	r6, .L40
 246 00c0 3260     		str	r2, [r6]
 244:Drivers/STM32U0xx_HAL_Driver/Src/stm32u0xx_hal_gpio.c **** 
 245:Drivers/STM32U0xx_HAL_Driver/Src/stm32u0xx_hal_gpio.c ****         temp = EXTI->FTSR1;
ARM GAS  C:\Users\upo\AppData\Local\Temp\cc686eZe.s 			page 10


 247              		.loc 1 245 9 is_stmt 1 view .LVU80
 248              		.loc 1 245 14 is_stmt 0 view .LVU81
 249 00c2 7268     		ldr	r2, [r6, #4]
 250              	.LVL13:
 246:Drivers/STM32U0xx_HAL_Driver/Src/stm32u0xx_hal_gpio.c ****         temp &= ~(iocurrent);
 251              		.loc 1 246 9 is_stmt 1 view .LVU82
 247:Drivers/STM32U0xx_HAL_Driver/Src/stm32u0xx_hal_gpio.c ****         if ((GPIO_Init->Mode & TRIGGER_FALLING) != 0x00u)
 252              		.loc 1 247 9 view .LVU83
 253              		.loc 1 247 12 is_stmt 0 view .LVU84
 254 00c4 8026     		movs	r6, #128
 255 00c6 B603     		lsls	r6, r6, #14
 256 00c8 3542     		tst	r5, r6
 257 00ca 6CD1     		bne	.L19
 246:Drivers/STM32U0xx_HAL_Driver/Src/stm32u0xx_hal_gpio.c ****         temp &= ~(iocurrent);
 258              		.loc 1 246 14 view .LVU85
 259 00cc 0A40     		ands	r2, r1
 260              	.LVL14:
 261              	.L20:
 248:Drivers/STM32U0xx_HAL_Driver/Src/stm32u0xx_hal_gpio.c ****         {
 249:Drivers/STM32U0xx_HAL_Driver/Src/stm32u0xx_hal_gpio.c ****           temp |= iocurrent;
 250:Drivers/STM32U0xx_HAL_Driver/Src/stm32u0xx_hal_gpio.c ****         }
 251:Drivers/STM32U0xx_HAL_Driver/Src/stm32u0xx_hal_gpio.c ****         EXTI->FTSR1 = temp;
 262              		.loc 1 251 9 is_stmt 1 view .LVU86
 263              		.loc 1 251 21 is_stmt 0 view .LVU87
 264 00ce 494E     		ldr	r6, .L40
 265 00d0 7260     		str	r2, [r6, #4]
 252:Drivers/STM32U0xx_HAL_Driver/Src/stm32u0xx_hal_gpio.c **** 
 253:Drivers/STM32U0xx_HAL_Driver/Src/stm32u0xx_hal_gpio.c ****         /* Clear EXTI line configuration */
 254:Drivers/STM32U0xx_HAL_Driver/Src/stm32u0xx_hal_gpio.c ****         temp = EXTI->EMR1;
 266              		.loc 1 254 9 is_stmt 1 view .LVU88
 267              		.loc 1 254 14 is_stmt 0 view .LVU89
 268 00d2 8422     		movs	r2, #132
 269              	.LVL15:
 270              		.loc 1 254 14 view .LVU90
 271 00d4 B258     		ldr	r2, [r6, r2]
 272              	.LVL16:
 255:Drivers/STM32U0xx_HAL_Driver/Src/stm32u0xx_hal_gpio.c ****         temp &= ~(iocurrent);
 273              		.loc 1 255 9 is_stmt 1 view .LVU91
 256:Drivers/STM32U0xx_HAL_Driver/Src/stm32u0xx_hal_gpio.c ****         if ((GPIO_Init->Mode & EXTI_EVT) != 0x00u)
 274              		.loc 1 256 9 view .LVU92
 275              		.loc 1 256 12 is_stmt 0 view .LVU93
 276 00d6 AF03     		lsls	r7, r5, #14
 277 00d8 62D4     		bmi	.L21
 255:Drivers/STM32U0xx_HAL_Driver/Src/stm32u0xx_hal_gpio.c ****         temp &= ~(iocurrent);
 278              		.loc 1 255 14 view .LVU94
 279 00da 0A40     		ands	r2, r1
 280              	.LVL17:
 281              	.L22:
 257:Drivers/STM32U0xx_HAL_Driver/Src/stm32u0xx_hal_gpio.c ****         {
 258:Drivers/STM32U0xx_HAL_Driver/Src/stm32u0xx_hal_gpio.c ****           temp |= iocurrent;
 259:Drivers/STM32U0xx_HAL_Driver/Src/stm32u0xx_hal_gpio.c ****         }
 260:Drivers/STM32U0xx_HAL_Driver/Src/stm32u0xx_hal_gpio.c ****         EXTI->EMR1 = temp;
 282              		.loc 1 260 9 is_stmt 1 view .LVU95
 283              		.loc 1 260 20 is_stmt 0 view .LVU96
 284 00dc 8427     		movs	r7, #132
 285 00de 454E     		ldr	r6, .L40
 286 00e0 F251     		str	r2, [r6, r7]
ARM GAS  C:\Users\upo\AppData\Local\Temp\cc686eZe.s 			page 11


 261:Drivers/STM32U0xx_HAL_Driver/Src/stm32u0xx_hal_gpio.c **** 
 262:Drivers/STM32U0xx_HAL_Driver/Src/stm32u0xx_hal_gpio.c ****         temp = EXTI->IMR1;
 287              		.loc 1 262 9 is_stmt 1 view .LVU97
 288              		.loc 1 262 14 is_stmt 0 view .LVU98
 289 00e2 8022     		movs	r2, #128
 290              	.LVL18:
 291              		.loc 1 262 14 view .LVU99
 292 00e4 B258     		ldr	r2, [r6, r2]
 293              	.LVL19:
 263:Drivers/STM32U0xx_HAL_Driver/Src/stm32u0xx_hal_gpio.c ****         temp &= ~(iocurrent);
 294              		.loc 1 263 9 is_stmt 1 view .LVU100
 264:Drivers/STM32U0xx_HAL_Driver/Src/stm32u0xx_hal_gpio.c ****         if ((GPIO_Init->Mode & EXTI_IT) != 0x00u)
 295              		.loc 1 264 9 view .LVU101
 296              		.loc 1 264 12 is_stmt 0 view .LVU102
 297 00e6 ED03     		lsls	r5, r5, #15
 298 00e8 56D4     		bmi	.L23
 263:Drivers/STM32U0xx_HAL_Driver/Src/stm32u0xx_hal_gpio.c ****         temp &= ~(iocurrent);
 299              		.loc 1 263 14 view .LVU103
 300 00ea 0A40     		ands	r2, r1
 301              	.LVL20:
 302              	.L24:
 265:Drivers/STM32U0xx_HAL_Driver/Src/stm32u0xx_hal_gpio.c ****         {
 266:Drivers/STM32U0xx_HAL_Driver/Src/stm32u0xx_hal_gpio.c ****           temp |= iocurrent;
 267:Drivers/STM32U0xx_HAL_Driver/Src/stm32u0xx_hal_gpio.c ****         }
 268:Drivers/STM32U0xx_HAL_Driver/Src/stm32u0xx_hal_gpio.c ****         EXTI->IMR1 = temp;
 303              		.loc 1 268 9 is_stmt 1 view .LVU104
 304              		.loc 1 268 20 is_stmt 0 view .LVU105
 305 00ec 8021     		movs	r1, #128
 306 00ee 414D     		ldr	r5, .L40
 307 00f0 6A50     		str	r2, [r5, r1]
 308              	.LVL21:
 309              	.L4:
 269:Drivers/STM32U0xx_HAL_Driver/Src/stm32u0xx_hal_gpio.c ****       }
 270:Drivers/STM32U0xx_HAL_Driver/Src/stm32u0xx_hal_gpio.c ****     }
 271:Drivers/STM32U0xx_HAL_Driver/Src/stm32u0xx_hal_gpio.c **** 
 272:Drivers/STM32U0xx_HAL_Driver/Src/stm32u0xx_hal_gpio.c ****     position++;
 310              		.loc 1 272 5 is_stmt 1 view .LVU106
 168:Drivers/STM32U0xx_HAL_Driver/Src/stm32u0xx_hal_gpio.c ****   {
 311              		.loc 1 168 28 is_stmt 0 view .LVU107
 312 00f2 2200     		movs	r2, r4
 313              		.loc 1 272 13 view .LVU108
 314 00f4 0133     		adds	r3, r3, #1
 315              	.LVL22:
 168:Drivers/STM32U0xx_HAL_Driver/Src/stm32u0xx_hal_gpio.c ****   {
 316              		.loc 1 168 41 is_stmt 1 view .LVU109
 168:Drivers/STM32U0xx_HAL_Driver/Src/stm32u0xx_hal_gpio.c ****   {
 317              		.loc 1 168 28 is_stmt 0 view .LVU110
 318 00f6 DA40     		lsrs	r2, r2, r3
 168:Drivers/STM32U0xx_HAL_Driver/Src/stm32u0xx_hal_gpio.c ****   {
 319              		.loc 1 168 41 view .LVU111
 320 00f8 8ED1     		bne	.L2
 321              	.LVL23:
 322              	.L1:
 273:Drivers/STM32U0xx_HAL_Driver/Src/stm32u0xx_hal_gpio.c ****   }
 274:Drivers/STM32U0xx_HAL_Driver/Src/stm32u0xx_hal_gpio.c **** }
 323              		.loc 1 274 1 view .LVU112
 324 00fa 03B0     		add	sp, sp, #12
ARM GAS  C:\Users\upo\AppData\Local\Temp\cc686eZe.s 			page 12


 325              		@ sp needed
 326              	.LVL24:
 327              		.loc 1 274 1 view .LVU113
 328 00fc F0BC     		pop	{r4, r5, r6, r7}
 329 00fe BB46     		mov	fp, r7
 330 0100 B246     		mov	r10, r6
 331 0102 A946     		mov	r9, r5
 332 0104 A046     		mov	r8, r4
 333 0106 F0BD     		pop	{r4, r5, r6, r7, pc}
 334              	.LVL25:
 335              	.L33:
 180:Drivers/STM32U0xx_HAL_Driver/Src/stm32u0xx_hal_gpio.c **** 
 336              		.loc 1 180 9 is_stmt 1 view .LVU114
 183:Drivers/STM32U0xx_HAL_Driver/Src/stm32u0xx_hal_gpio.c ****         temp &= ~(GPIO_OSPEEDR_OSPEED0 << (position * GPIO_OSPEEDR_OSPEED1_Pos));
 337              		.loc 1 183 9 view .LVU115
 183:Drivers/STM32U0xx_HAL_Driver/Src/stm32u0xx_hal_gpio.c ****         temp &= ~(GPIO_OSPEEDR_OSPEED0 << (position * GPIO_OSPEEDR_OSPEED1_Pos));
 338              		.loc 1 183 14 is_stmt 0 view .LVU116
 339 0108 8168     		ldr	r1, [r0, #8]
 340              	.LVL26:
 184:Drivers/STM32U0xx_HAL_Driver/Src/stm32u0xx_hal_gpio.c ****         temp |= (GPIO_Init->Speed << (position * GPIO_OSPEEDR_OSPEED1_Pos));
 341              		.loc 1 184 9 is_stmt 1 view .LVU117
 184:Drivers/STM32U0xx_HAL_Driver/Src/stm32u0xx_hal_gpio.c ****         temp |= (GPIO_Init->Speed << (position * GPIO_OSPEEDR_OSPEED1_Pos));
 342              		.loc 1 184 14 is_stmt 0 view .LVU118
 343 010a 0E00     		movs	r6, r1
 344 010c 0099     		ldr	r1, [sp]
 345              	.LVL27:
 184:Drivers/STM32U0xx_HAL_Driver/Src/stm32u0xx_hal_gpio.c ****         temp |= (GPIO_Init->Speed << (position * GPIO_OSPEEDR_OSPEED1_Pos));
 346              		.loc 1 184 14 view .LVU119
 347 010e 0E40     		ands	r6, r1
 348              	.LVL28:
 185:Drivers/STM32U0xx_HAL_Driver/Src/stm32u0xx_hal_gpio.c ****         GPIOx->OSPEEDR = temp;
 349              		.loc 1 185 35 view .LVU120
 350 0110 5946     		mov	r1, fp
 351 0112 C968     		ldr	r1, [r1, #12]
 184:Drivers/STM32U0xx_HAL_Driver/Src/stm32u0xx_hal_gpio.c ****         temp |= (GPIO_Init->Speed << (position * GPIO_OSPEEDR_OSPEED1_Pos));
 352              		.loc 1 184 14 view .LVU121
 353 0114 B146     		mov	r9, r6
 354              	.LVL29:
 185:Drivers/STM32U0xx_HAL_Driver/Src/stm32u0xx_hal_gpio.c ****         GPIOx->OSPEEDR = temp;
 355              		.loc 1 185 9 is_stmt 1 view .LVU122
 185:Drivers/STM32U0xx_HAL_Driver/Src/stm32u0xx_hal_gpio.c ****         GPIOx->OSPEEDR = temp;
 356              		.loc 1 185 35 is_stmt 0 view .LVU123
 357 0116 0E00     		movs	r6, r1
 358              	.LVL30:
 185:Drivers/STM32U0xx_HAL_Driver/Src/stm32u0xx_hal_gpio.c ****         GPIOx->OSPEEDR = temp;
 359              		.loc 1 185 35 view .LVU124
 360 0118 BE40     		lsls	r6, r6, r7
 361 011a B046     		mov	r8, r6
 185:Drivers/STM32U0xx_HAL_Driver/Src/stm32u0xx_hal_gpio.c ****         GPIOx->OSPEEDR = temp;
 362              		.loc 1 185 14 view .LVU125
 363 011c 4E46     		mov	r6, r9
 364 011e 4146     		mov	r1, r8
 365 0120 0E43     		orrs	r6, r1
 366              	.LVL31:
 186:Drivers/STM32U0xx_HAL_Driver/Src/stm32u0xx_hal_gpio.c **** 
 367              		.loc 1 186 9 is_stmt 1 view .LVU126
 186:Drivers/STM32U0xx_HAL_Driver/Src/stm32u0xx_hal_gpio.c **** 
ARM GAS  C:\Users\upo\AppData\Local\Temp\cc686eZe.s 			page 13


 368              		.loc 1 186 24 is_stmt 0 view .LVU127
 369 0122 8660     		str	r6, [r0, #8]
 189:Drivers/STM32U0xx_HAL_Driver/Src/stm32u0xx_hal_gpio.c ****         temp &= ~(GPIO_OTYPER_OT0 << position) ;
 370              		.loc 1 189 9 is_stmt 1 view .LVU128
 189:Drivers/STM32U0xx_HAL_Driver/Src/stm32u0xx_hal_gpio.c ****         temp &= ~(GPIO_OTYPER_OT0 << position) ;
 371              		.loc 1 189 14 is_stmt 0 view .LVU129
 372 0124 4168     		ldr	r1, [r0, #4]
 373              	.LVL32:
 190:Drivers/STM32U0xx_HAL_Driver/Src/stm32u0xx_hal_gpio.c ****         temp |= (((GPIO_Init->Mode & OUTPUT_TYPE) >> OUTPUT_TYPE_POS) << position);
 374              		.loc 1 190 9 is_stmt 1 view .LVU130
 190:Drivers/STM32U0xx_HAL_Driver/Src/stm32u0xx_hal_gpio.c ****         temp |= (((GPIO_Init->Mode & OUTPUT_TYPE) >> OUTPUT_TYPE_POS) << position);
 375              		.loc 1 190 14 is_stmt 0 view .LVU131
 376 0126 0E00     		movs	r6, r1
 377 0128 6146     		mov	r1, ip
 378              	.LVL33:
 190:Drivers/STM32U0xx_HAL_Driver/Src/stm32u0xx_hal_gpio.c ****         temp |= (((GPIO_Init->Mode & OUTPUT_TYPE) >> OUTPUT_TYPE_POS) << position);
 379              		.loc 1 190 14 view .LVU132
 380 012a 8E43     		bics	r6, r1
 381              	.LVL34:
 191:Drivers/STM32U0xx_HAL_Driver/Src/stm32u0xx_hal_gpio.c ****         GPIOx->OTYPER = temp;
 382              		.loc 1 191 51 view .LVU133
 383 012c 2909     		lsrs	r1, r5, #4
 190:Drivers/STM32U0xx_HAL_Driver/Src/stm32u0xx_hal_gpio.c ****         temp |= (((GPIO_Init->Mode & OUTPUT_TYPE) >> OUTPUT_TYPE_POS) << position);
 384              		.loc 1 190 14 view .LVU134
 385 012e B046     		mov	r8, r6
 386              	.LVL35:
 191:Drivers/STM32U0xx_HAL_Driver/Src/stm32u0xx_hal_gpio.c ****         GPIOx->OTYPER = temp;
 387              		.loc 1 191 9 is_stmt 1 view .LVU135
 191:Drivers/STM32U0xx_HAL_Driver/Src/stm32u0xx_hal_gpio.c ****         GPIOx->OTYPER = temp;
 388              		.loc 1 191 51 is_stmt 0 view .LVU136
 389 0130 0E00     		movs	r6, r1
 390              	.LVL36:
 191:Drivers/STM32U0xx_HAL_Driver/Src/stm32u0xx_hal_gpio.c ****         GPIOx->OTYPER = temp;
 391              		.loc 1 191 51 view .LVU137
 392 0132 0121     		movs	r1, #1
 393 0134 0E40     		ands	r6, r1
 191:Drivers/STM32U0xx_HAL_Driver/Src/stm32u0xx_hal_gpio.c ****         GPIOx->OTYPER = temp;
 394              		.loc 1 191 71 view .LVU138
 395 0136 9E40     		lsls	r6, r6, r3
 396 0138 B446     		mov	ip, r6
 191:Drivers/STM32U0xx_HAL_Driver/Src/stm32u0xx_hal_gpio.c ****         GPIOx->OTYPER = temp;
 397              		.loc 1 191 14 view .LVU139
 398 013a 4646     		mov	r6, r8
 399 013c 6146     		mov	r1, ip
 400 013e 0E43     		orrs	r6, r1
 401              	.LVL37:
 192:Drivers/STM32U0xx_HAL_Driver/Src/stm32u0xx_hal_gpio.c ****       }
 402              		.loc 1 192 9 is_stmt 1 view .LVU140
 192:Drivers/STM32U0xx_HAL_Driver/Src/stm32u0xx_hal_gpio.c ****       }
 403              		.loc 1 192 23 is_stmt 0 view .LVU141
 404 0140 4660     		str	r6, [r0, #4]
 195:Drivers/STM32U0xx_HAL_Driver/Src/stm32u0xx_hal_gpio.c ****       {
 405              		.loc 1 195 7 is_stmt 1 view .LVU142
 198:Drivers/STM32U0xx_HAL_Driver/Src/stm32u0xx_hal_gpio.c **** 
 406              		.loc 1 198 9 view .LVU143
 201:Drivers/STM32U0xx_HAL_Driver/Src/stm32u0xx_hal_gpio.c ****         temp &= ~(GPIO_PUPDR_PUPD0 << (position * GPIO_PUPDR_PUPD1_Pos));
 407              		.loc 1 201 9 view .LVU144
ARM GAS  C:\Users\upo\AppData\Local\Temp\cc686eZe.s 			page 14


 201:Drivers/STM32U0xx_HAL_Driver/Src/stm32u0xx_hal_gpio.c ****         temp &= ~(GPIO_PUPDR_PUPD0 << (position * GPIO_PUPDR_PUPD1_Pos));
 408              		.loc 1 201 14 is_stmt 0 view .LVU145
 409 0142 C168     		ldr	r1, [r0, #12]
 410              	.LVL38:
 202:Drivers/STM32U0xx_HAL_Driver/Src/stm32u0xx_hal_gpio.c ****         temp |= ((GPIO_Init->Pull) << (position * GPIO_PUPDR_PUPD1_Pos));
 411              		.loc 1 202 9 is_stmt 1 view .LVU146
 202:Drivers/STM32U0xx_HAL_Driver/Src/stm32u0xx_hal_gpio.c ****         temp |= ((GPIO_Init->Pull) << (position * GPIO_PUPDR_PUPD1_Pos));
 412              		.loc 1 202 14 is_stmt 0 view .LVU147
 413 0144 0E00     		movs	r6, r1
 414 0146 0099     		ldr	r1, [sp]
 415              	.LVL39:
 202:Drivers/STM32U0xx_HAL_Driver/Src/stm32u0xx_hal_gpio.c ****         temp |= ((GPIO_Init->Pull) << (position * GPIO_PUPDR_PUPD1_Pos));
 416              		.loc 1 202 14 view .LVU148
 417 0148 0E40     		ands	r6, r1
 418              	.LVL40:
 203:Drivers/STM32U0xx_HAL_Driver/Src/stm32u0xx_hal_gpio.c ****         GPIOx->PUPDR = temp;
 419              		.loc 1 203 36 view .LVU149
 420 014a 5946     		mov	r1, fp
 421 014c 8968     		ldr	r1, [r1, #8]
 202:Drivers/STM32U0xx_HAL_Driver/Src/stm32u0xx_hal_gpio.c ****         temp |= ((GPIO_Init->Pull) << (position * GPIO_PUPDR_PUPD1_Pos));
 422              		.loc 1 202 14 view .LVU150
 423 014e B046     		mov	r8, r6
 424              	.LVL41:
 203:Drivers/STM32U0xx_HAL_Driver/Src/stm32u0xx_hal_gpio.c ****         GPIOx->PUPDR = temp;
 425              		.loc 1 203 9 is_stmt 1 view .LVU151
 203:Drivers/STM32U0xx_HAL_Driver/Src/stm32u0xx_hal_gpio.c ****         GPIOx->PUPDR = temp;
 426              		.loc 1 203 36 is_stmt 0 view .LVU152
 427 0150 0E00     		movs	r6, r1
 428              	.LVL42:
 203:Drivers/STM32U0xx_HAL_Driver/Src/stm32u0xx_hal_gpio.c ****         GPIOx->PUPDR = temp;
 429              		.loc 1 203 36 view .LVU153
 430 0152 BE40     		lsls	r6, r6, r7
 431 0154 B446     		mov	ip, r6
 203:Drivers/STM32U0xx_HAL_Driver/Src/stm32u0xx_hal_gpio.c ****         GPIOx->PUPDR = temp;
 432              		.loc 1 203 14 view .LVU154
 433 0156 4646     		mov	r6, r8
 434 0158 6146     		mov	r1, ip
 435 015a 0E43     		orrs	r6, r1
 436              	.LVL43:
 204:Drivers/STM32U0xx_HAL_Driver/Src/stm32u0xx_hal_gpio.c ****       }
 437              		.loc 1 204 9 is_stmt 1 view .LVU155
 204:Drivers/STM32U0xx_HAL_Driver/Src/stm32u0xx_hal_gpio.c ****       }
 438              		.loc 1 204 22 is_stmt 0 view .LVU156
 439 015c C660     		str	r6, [r0, #12]
 208:Drivers/STM32U0xx_HAL_Driver/Src/stm32u0xx_hal_gpio.c ****       {
 440              		.loc 1 208 7 is_stmt 1 view .LVU157
 208:Drivers/STM32U0xx_HAL_Driver/Src/stm32u0xx_hal_gpio.c ****       {
 441              		.loc 1 208 10 is_stmt 0 view .LVU158
 442 015e 022A     		cmp	r2, #2
 443 0160 00D0     		beq	.LCB361
 444 0162 70E7     		b	.L9	@long jump
 445              	.LCB361:
 211:Drivers/STM32U0xx_HAL_Driver/Src/stm32u0xx_hal_gpio.c ****         assert_param(IS_GPIO_AF(GPIO_Init->Alternate));
 446              		.loc 1 211 9 is_stmt 1 view .LVU159
 212:Drivers/STM32U0xx_HAL_Driver/Src/stm32u0xx_hal_gpio.c **** 
 447              		.loc 1 212 9 view .LVU160
 215:Drivers/STM32U0xx_HAL_Driver/Src/stm32u0xx_hal_gpio.c ****         temp &= ~(0xFu << ((position & 0x07u) * GPIO_AFRL_AFSEL1_Pos));
ARM GAS  C:\Users\upo\AppData\Local\Temp\cc686eZe.s 			page 15


 448              		.loc 1 215 9 view .LVU161
 449              	.LVL44:
 216:Drivers/STM32U0xx_HAL_Driver/Src/stm32u0xx_hal_gpio.c ****         temp |= ((GPIO_Init->Alternate) << ((position & 0x07u) * GPIO_AFRL_AFSEL1_Pos));
 450              		.loc 1 216 9 view .LVU162
 217:Drivers/STM32U0xx_HAL_Driver/Src/stm32u0xx_hal_gpio.c ****         GPIOx->AFR[position >> 3u] = temp;
 451              		.loc 1 217 9 view .LVU163
 215:Drivers/STM32U0xx_HAL_Driver/Src/stm32u0xx_hal_gpio.c ****         temp &= ~(0xFu << ((position & 0x07u) * GPIO_AFRL_AFSEL1_Pos));
 452              		.loc 1 215 36 is_stmt 0 view .LVU164
 453 0164 D908     		lsrs	r1, r3, #3
 454 0166 8900     		lsls	r1, r1, #2
 455 0168 8C46     		mov	ip, r1
 456 016a 8444     		add	ip, ip, r0
 215:Drivers/STM32U0xx_HAL_Driver/Src/stm32u0xx_hal_gpio.c ****         temp &= ~(0xFu << ((position & 0x07u) * GPIO_AFRL_AFSEL1_Pos));
 457              		.loc 1 215 14 view .LVU165
 458 016c 6146     		mov	r1, ip
 459 016e 0E6A     		ldr	r6, [r1, #32]
 460              	.LVL45:
 216:Drivers/STM32U0xx_HAL_Driver/Src/stm32u0xx_hal_gpio.c ****         temp |= ((GPIO_Init->Alternate) << ((position & 0x07u) * GPIO_AFRL_AFSEL1_Pos));
 461              		.loc 1 216 38 view .LVU166
 462 0170 0721     		movs	r1, #7
 463 0172 1940     		ands	r1, r3
 216:Drivers/STM32U0xx_HAL_Driver/Src/stm32u0xx_hal_gpio.c ****         temp |= ((GPIO_Init->Alternate) << ((position & 0x07u) * GPIO_AFRL_AFSEL1_Pos));
 464              		.loc 1 216 47 view .LVU167
 465 0174 8900     		lsls	r1, r1, #2
 466 0176 8846     		mov	r8, r1
 215:Drivers/STM32U0xx_HAL_Driver/Src/stm32u0xx_hal_gpio.c ****         temp &= ~(0xFu << ((position & 0x07u) * GPIO_AFRL_AFSEL1_Pos));
 467              		.loc 1 215 14 view .LVU168
 468 0178 0196     		str	r6, [sp, #4]
 216:Drivers/STM32U0xx_HAL_Driver/Src/stm32u0xx_hal_gpio.c ****         temp |= ((GPIO_Init->Alternate) << ((position & 0x07u) * GPIO_AFRL_AFSEL1_Pos));
 469              		.loc 1 216 24 view .LVU169
 470 017a 0F21     		movs	r1, #15
 471 017c 4646     		mov	r6, r8
 472 017e B140     		lsls	r1, r1, r6
 216:Drivers/STM32U0xx_HAL_Driver/Src/stm32u0xx_hal_gpio.c ****         temp |= ((GPIO_Init->Alternate) << ((position & 0x07u) * GPIO_AFRL_AFSEL1_Pos));
 473              		.loc 1 216 14 view .LVU170
 474 0180 019E     		ldr	r6, [sp, #4]
 475 0182 8E43     		bics	r6, r1
 217:Drivers/STM32U0xx_HAL_Driver/Src/stm32u0xx_hal_gpio.c ****         GPIOx->AFR[position >> 3u] = temp;
 476              		.loc 1 217 41 view .LVU171
 477 0184 5946     		mov	r1, fp
 216:Drivers/STM32U0xx_HAL_Driver/Src/stm32u0xx_hal_gpio.c ****         temp |= ((GPIO_Init->Alternate) << ((position & 0x07u) * GPIO_AFRL_AFSEL1_Pos));
 478              		.loc 1 216 14 view .LVU172
 479 0186 0196     		str	r6, [sp, #4]
 217:Drivers/STM32U0xx_HAL_Driver/Src/stm32u0xx_hal_gpio.c ****         GPIOx->AFR[position >> 3u] = temp;
 480              		.loc 1 217 41 view .LVU173
 481 0188 4646     		mov	r6, r8
 482 018a 0969     		ldr	r1, [r1, #16]
 483 018c B140     		lsls	r1, r1, r6
 217:Drivers/STM32U0xx_HAL_Driver/Src/stm32u0xx_hal_gpio.c ****         GPIOx->AFR[position >> 3u] = temp;
 484              		.loc 1 217 14 view .LVU174
 485 018e 019E     		ldr	r6, [sp, #4]
 486 0190 0E43     		orrs	r6, r1
 218:Drivers/STM32U0xx_HAL_Driver/Src/stm32u0xx_hal_gpio.c ****       }
 487              		.loc 1 218 9 is_stmt 1 view .LVU175
 218:Drivers/STM32U0xx_HAL_Driver/Src/stm32u0xx_hal_gpio.c ****       }
 488              		.loc 1 218 36 is_stmt 0 view .LVU176
 489 0192 6146     		mov	r1, ip
ARM GAS  C:\Users\upo\AppData\Local\Temp\cc686eZe.s 			page 16


 490 0194 0E62     		str	r6, [r1, #32]
 491 0196 56E7     		b	.L9
 492              	.LVL46:
 493              	.L23:
 266:Drivers/STM32U0xx_HAL_Driver/Src/stm32u0xx_hal_gpio.c ****         }
 494              		.loc 1 266 11 is_stmt 1 view .LVU177
 266:Drivers/STM32U0xx_HAL_Driver/Src/stm32u0xx_hal_gpio.c ****         }
 495              		.loc 1 266 16 is_stmt 0 view .LVU178
 496 0198 5146     		mov	r1, r10
 497              	.LVL47:
 266:Drivers/STM32U0xx_HAL_Driver/Src/stm32u0xx_hal_gpio.c ****         }
 498              		.loc 1 266 16 view .LVU179
 499 019a 1143     		orrs	r1, r2
 500 019c 0A00     		movs	r2, r1
 501              	.LVL48:
 266:Drivers/STM32U0xx_HAL_Driver/Src/stm32u0xx_hal_gpio.c ****         }
 502              		.loc 1 266 16 view .LVU180
 503 019e A5E7     		b	.L24
 504              	.LVL49:
 505              	.L21:
 258:Drivers/STM32U0xx_HAL_Driver/Src/stm32u0xx_hal_gpio.c ****         }
 506              		.loc 1 258 11 is_stmt 1 view .LVU181
 258:Drivers/STM32U0xx_HAL_Driver/Src/stm32u0xx_hal_gpio.c ****         }
 507              		.loc 1 258 16 is_stmt 0 view .LVU182
 508 01a0 5646     		mov	r6, r10
 509 01a2 3243     		orrs	r2, r6
 510              	.LVL50:
 258:Drivers/STM32U0xx_HAL_Driver/Src/stm32u0xx_hal_gpio.c ****         }
 511              		.loc 1 258 16 view .LVU183
 512 01a4 9AE7     		b	.L22
 513              	.LVL51:
 514              	.L19:
 249:Drivers/STM32U0xx_HAL_Driver/Src/stm32u0xx_hal_gpio.c ****         }
 515              		.loc 1 249 11 is_stmt 1 view .LVU184
 249:Drivers/STM32U0xx_HAL_Driver/Src/stm32u0xx_hal_gpio.c ****         }
 516              		.loc 1 249 16 is_stmt 0 view .LVU185
 517 01a6 5646     		mov	r6, r10
 518 01a8 3243     		orrs	r2, r6
 519              	.LVL52:
 249:Drivers/STM32U0xx_HAL_Driver/Src/stm32u0xx_hal_gpio.c ****         }
 520              		.loc 1 249 16 view .LVU186
 521 01aa 90E7     		b	.L20
 522              	.LVL53:
 523              	.L17:
 241:Drivers/STM32U0xx_HAL_Driver/Src/stm32u0xx_hal_gpio.c ****         }
 524              		.loc 1 241 11 is_stmt 1 view .LVU187
 241:Drivers/STM32U0xx_HAL_Driver/Src/stm32u0xx_hal_gpio.c ****         }
 525              		.loc 1 241 16 is_stmt 0 view .LVU188
 526 01ac 5646     		mov	r6, r10
 527 01ae 3243     		orrs	r2, r6
 528              	.LVL54:
 241:Drivers/STM32U0xx_HAL_Driver/Src/stm32u0xx_hal_gpio.c ****         }
 529              		.loc 1 241 16 view .LVU189
 530 01b0 85E7     		b	.L18
 531              	.LVL55:
 532              	.L34:
 241:Drivers/STM32U0xx_HAL_Driver/Src/stm32u0xx_hal_gpio.c ****         }
ARM GAS  C:\Users\upo\AppData\Local\Temp\cc686eZe.s 			page 17


 533              		.loc 1 241 16 view .LVU190
 534 01b2 0E00     		movs	r6, r1
 198:Drivers/STM32U0xx_HAL_Driver/Src/stm32u0xx_hal_gpio.c **** 
 535              		.loc 1 198 9 is_stmt 1 view .LVU191
 201:Drivers/STM32U0xx_HAL_Driver/Src/stm32u0xx_hal_gpio.c ****         temp &= ~(GPIO_PUPDR_PUPD0 << (position * GPIO_PUPDR_PUPD1_Pos));
 536              		.loc 1 201 9 view .LVU192
 201:Drivers/STM32U0xx_HAL_Driver/Src/stm32u0xx_hal_gpio.c ****         temp &= ~(GPIO_PUPDR_PUPD0 << (position * GPIO_PUPDR_PUPD1_Pos));
 537              		.loc 1 201 14 is_stmt 0 view .LVU193
 538 01b4 C168     		ldr	r1, [r0, #12]
 539              	.LVL56:
 202:Drivers/STM32U0xx_HAL_Driver/Src/stm32u0xx_hal_gpio.c ****         temp |= ((GPIO_Init->Pull) << (position * GPIO_PUPDR_PUPD1_Pos));
 540              		.loc 1 202 9 is_stmt 1 view .LVU194
 202:Drivers/STM32U0xx_HAL_Driver/Src/stm32u0xx_hal_gpio.c ****         temp |= ((GPIO_Init->Pull) << (position * GPIO_PUPDR_PUPD1_Pos));
 541              		.loc 1 202 14 is_stmt 0 view .LVU195
 542 01b6 3140     		ands	r1, r6
 543              	.LVL57:
 202:Drivers/STM32U0xx_HAL_Driver/Src/stm32u0xx_hal_gpio.c ****         temp |= ((GPIO_Init->Pull) << (position * GPIO_PUPDR_PUPD1_Pos));
 544              		.loc 1 202 14 view .LVU196
 545 01b8 8846     		mov	r8, r1
 546              	.LVL58:
 203:Drivers/STM32U0xx_HAL_Driver/Src/stm32u0xx_hal_gpio.c ****         GPIOx->PUPDR = temp;
 547              		.loc 1 203 9 is_stmt 1 view .LVU197
 203:Drivers/STM32U0xx_HAL_Driver/Src/stm32u0xx_hal_gpio.c ****         GPIOx->PUPDR = temp;
 548              		.loc 1 203 36 is_stmt 0 view .LVU198
 549 01ba 5946     		mov	r1, fp
 550              	.LVL59:
 203:Drivers/STM32U0xx_HAL_Driver/Src/stm32u0xx_hal_gpio.c ****         GPIOx->PUPDR = temp;
 551              		.loc 1 203 36 view .LVU199
 552 01bc 8968     		ldr	r1, [r1, #8]
 553 01be B940     		lsls	r1, r1, r7
 554 01c0 8C46     		mov	ip, r1
 203:Drivers/STM32U0xx_HAL_Driver/Src/stm32u0xx_hal_gpio.c ****         GPIOx->PUPDR = temp;
 555              		.loc 1 203 14 view .LVU200
 556 01c2 4146     		mov	r1, r8
 557 01c4 6646     		mov	r6, ip
 558 01c6 3143     		orrs	r1, r6
 559              	.LVL60:
 204:Drivers/STM32U0xx_HAL_Driver/Src/stm32u0xx_hal_gpio.c ****       }
 560              		.loc 1 204 9 is_stmt 1 view .LVU201
 204:Drivers/STM32U0xx_HAL_Driver/Src/stm32u0xx_hal_gpio.c ****       }
 561              		.loc 1 204 22 is_stmt 0 view .LVU202
 562 01c8 C160     		str	r1, [r0, #12]
 208:Drivers/STM32U0xx_HAL_Driver/Src/stm32u0xx_hal_gpio.c ****       {
 563              		.loc 1 208 7 is_stmt 1 view .LVU203
 564 01ca 3CE7     		b	.L9
 565              	.LVL61:
 566              	.L37:
 233:Drivers/STM32U0xx_HAL_Driver/Src/stm32u0xx_hal_gpio.c ****         EXTI->EXTICR[position >> 2u] = temp;
 567              		.loc 1 233 40 is_stmt 0 view .LVU204
 568 01cc 0326     		movs	r6, #3
 569 01ce BE40     		lsls	r6, r6, r7
 233:Drivers/STM32U0xx_HAL_Driver/Src/stm32u0xx_hal_gpio.c ****         EXTI->EXTICR[position >> 2u] = temp;
 570              		.loc 1 233 14 view .LVU205
 571 01d0 3143     		orrs	r1, r6
 572              	.LVL62:
 233:Drivers/STM32U0xx_HAL_Driver/Src/stm32u0xx_hal_gpio.c ****         EXTI->EXTICR[position >> 2u] = temp;
 573              		.loc 1 233 14 view .LVU206
ARM GAS  C:\Users\upo\AppData\Local\Temp\cc686eZe.s 			page 18


 574 01d2 69E7     		b	.L11
 575              	.LVL63:
 576              	.L35:
 233:Drivers/STM32U0xx_HAL_Driver/Src/stm32u0xx_hal_gpio.c ****         EXTI->EXTICR[position >> 2u] = temp;
 577              		.loc 1 233 40 view .LVU207
 578 01d4 0126     		movs	r6, #1
 579 01d6 BE40     		lsls	r6, r6, r7
 233:Drivers/STM32U0xx_HAL_Driver/Src/stm32u0xx_hal_gpio.c ****         EXTI->EXTICR[position >> 2u] = temp;
 580              		.loc 1 233 14 view .LVU208
 581 01d8 3143     		orrs	r1, r6
 582              	.LVL64:
 233:Drivers/STM32U0xx_HAL_Driver/Src/stm32u0xx_hal_gpio.c ****         EXTI->EXTICR[position >> 2u] = temp;
 583              		.loc 1 233 14 view .LVU209
 584 01da 65E7     		b	.L11
 585              	.LVL65:
 586              	.L36:
 233:Drivers/STM32U0xx_HAL_Driver/Src/stm32u0xx_hal_gpio.c ****         EXTI->EXTICR[position >> 2u] = temp;
 587              		.loc 1 233 40 view .LVU210
 588 01dc 0226     		movs	r6, #2
 589 01de BE40     		lsls	r6, r6, r7
 233:Drivers/STM32U0xx_HAL_Driver/Src/stm32u0xx_hal_gpio.c ****         EXTI->EXTICR[position >> 2u] = temp;
 590              		.loc 1 233 14 view .LVU211
 591 01e0 3143     		orrs	r1, r6
 592              	.LVL66:
 233:Drivers/STM32U0xx_HAL_Driver/Src/stm32u0xx_hal_gpio.c ****         EXTI->EXTICR[position >> 2u] = temp;
 593              		.loc 1 233 14 view .LVU212
 594 01e2 61E7     		b	.L11
 595              	.LVL67:
 596              	.L38:
 233:Drivers/STM32U0xx_HAL_Driver/Src/stm32u0xx_hal_gpio.c ****         EXTI->EXTICR[position >> 2u] = temp;
 597              		.loc 1 233 40 view .LVU213
 598 01e4 0426     		movs	r6, #4
 599 01e6 BE40     		lsls	r6, r6, r7
 233:Drivers/STM32U0xx_HAL_Driver/Src/stm32u0xx_hal_gpio.c ****         EXTI->EXTICR[position >> 2u] = temp;
 600              		.loc 1 233 14 view .LVU214
 601 01e8 3143     		orrs	r1, r6
 602              	.LVL68:
 233:Drivers/STM32U0xx_HAL_Driver/Src/stm32u0xx_hal_gpio.c ****         EXTI->EXTICR[position >> 2u] = temp;
 603              		.loc 1 233 14 view .LVU215
 604 01ea 5DE7     		b	.L11
 605              	.LVL69:
 606              	.L39:
 233:Drivers/STM32U0xx_HAL_Driver/Src/stm32u0xx_hal_gpio.c ****         EXTI->EXTICR[position >> 2u] = temp;
 607              		.loc 1 233 40 view .LVU216
 608 01ec 0526     		movs	r6, #5
 609 01ee BE40     		lsls	r6, r6, r7
 233:Drivers/STM32U0xx_HAL_Driver/Src/stm32u0xx_hal_gpio.c ****         EXTI->EXTICR[position >> 2u] = temp;
 610              		.loc 1 233 14 view .LVU217
 611 01f0 3143     		orrs	r1, r6
 612              	.LVL70:
 233:Drivers/STM32U0xx_HAL_Driver/Src/stm32u0xx_hal_gpio.c ****         EXTI->EXTICR[position >> 2u] = temp;
 613              		.loc 1 233 14 view .LVU218
 614 01f2 59E7     		b	.L11
 615              	.L41:
 616              		.align	2
 617              	.L40:
 618 01f4 00180240 		.word	1073879040
ARM GAS  C:\Users\upo\AppData\Local\Temp\cc686eZe.s 			page 19


 619 01f8 00040050 		.word	1342178304
 620 01fc 00080050 		.word	1342179328
 621 0200 000C0050 		.word	1342180352
 622 0204 00100050 		.word	1342181376
 623 0208 00140050 		.word	1342182400
 624              		.cfi_endproc
 625              	.LFE334:
 627              		.section	.text.HAL_GPIO_DeInit,"ax",%progbits
 628              		.align	1
 629              		.p2align 2,,3
 630              		.global	HAL_GPIO_DeInit
 631              		.syntax unified
 632              		.code	16
 633              		.thumb_func
 635              	HAL_GPIO_DeInit:
 636              	.LVL71:
 637              	.LFB335:
 275:Drivers/STM32U0xx_HAL_Driver/Src/stm32u0xx_hal_gpio.c **** 
 276:Drivers/STM32U0xx_HAL_Driver/Src/stm32u0xx_hal_gpio.c **** /**
 277:Drivers/STM32U0xx_HAL_Driver/Src/stm32u0xx_hal_gpio.c ****   * @brief  De-initialize the GPIOx peripheral registers to their default reset values.
 278:Drivers/STM32U0xx_HAL_Driver/Src/stm32u0xx_hal_gpio.c ****   * @param  GPIOx where x can be (A..F) to select the GPIO peripheral for STM32U0xx family
 279:Drivers/STM32U0xx_HAL_Driver/Src/stm32u0xx_hal_gpio.c ****   * @param  GPIO_Pin specifies the port bit to be written.
 280:Drivers/STM32U0xx_HAL_Driver/Src/stm32u0xx_hal_gpio.c ****   *         This parameter can be any combination of GPIO_Pin_x where x can be (0..15).
 281:Drivers/STM32U0xx_HAL_Driver/Src/stm32u0xx_hal_gpio.c ****   * @retval None
 282:Drivers/STM32U0xx_HAL_Driver/Src/stm32u0xx_hal_gpio.c ****   */
 283:Drivers/STM32U0xx_HAL_Driver/Src/stm32u0xx_hal_gpio.c **** void HAL_GPIO_DeInit(GPIO_TypeDef  *GPIOx, uint32_t GPIO_Pin)
 284:Drivers/STM32U0xx_HAL_Driver/Src/stm32u0xx_hal_gpio.c **** {
 638              		.loc 1 284 1 is_stmt 1 view -0
 639              		.cfi_startproc
 640              		@ args = 0, pretend = 0, frame = 8
 641              		@ frame_needed = 0, uses_anonymous_args = 0
 285:Drivers/STM32U0xx_HAL_Driver/Src/stm32u0xx_hal_gpio.c ****   uint32_t position = 0x00u;
 642              		.loc 1 285 3 view .LVU220
 286:Drivers/STM32U0xx_HAL_Driver/Src/stm32u0xx_hal_gpio.c ****   uint32_t iocurrent;
 643              		.loc 1 286 3 view .LVU221
 287:Drivers/STM32U0xx_HAL_Driver/Src/stm32u0xx_hal_gpio.c ****   uint32_t tmp;
 644              		.loc 1 287 3 view .LVU222
 288:Drivers/STM32U0xx_HAL_Driver/Src/stm32u0xx_hal_gpio.c **** 
 289:Drivers/STM32U0xx_HAL_Driver/Src/stm32u0xx_hal_gpio.c ****   /* Check the parameters */
 290:Drivers/STM32U0xx_HAL_Driver/Src/stm32u0xx_hal_gpio.c ****   assert_param(IS_GPIO_ALL_INSTANCE(GPIOx));
 645              		.loc 1 290 3 view .LVU223
 291:Drivers/STM32U0xx_HAL_Driver/Src/stm32u0xx_hal_gpio.c ****   assert_param(IS_GPIO_PIN(GPIO_Pin));
 646              		.loc 1 291 3 view .LVU224
 292:Drivers/STM32U0xx_HAL_Driver/Src/stm32u0xx_hal_gpio.c **** 
 293:Drivers/STM32U0xx_HAL_Driver/Src/stm32u0xx_hal_gpio.c ****   /* Configure the port pins */
 294:Drivers/STM32U0xx_HAL_Driver/Src/stm32u0xx_hal_gpio.c ****   while ((GPIO_Pin >> position) != 0x00u)
 647              		.loc 1 294 3 view .LVU225
 648              		.loc 1 294 33 view .LVU226
 284:Drivers/STM32U0xx_HAL_Driver/Src/stm32u0xx_hal_gpio.c ****   uint32_t position = 0x00u;
 649              		.loc 1 284 1 is_stmt 0 view .LVU227
 650 0000 F0B5     		push	{r4, r5, r6, r7, lr}
 651              	.LCFI3:
 652              		.cfi_def_cfa_offset 20
 653              		.cfi_offset 4, -20
 654              		.cfi_offset 5, -16
 655              		.cfi_offset 6, -12
 656              		.cfi_offset 7, -8
ARM GAS  C:\Users\upo\AppData\Local\Temp\cc686eZe.s 			page 20


 657              		.cfi_offset 14, -4
 658 0002 DE46     		mov	lr, fp
 659 0004 5746     		mov	r7, r10
 660 0006 4E46     		mov	r6, r9
 661 0008 4546     		mov	r5, r8
 662 000a E0B5     		push	{r5, r6, r7, lr}
 663              	.LCFI4:
 664              		.cfi_def_cfa_offset 36
 665              		.cfi_offset 8, -36
 666              		.cfi_offset 9, -32
 667              		.cfi_offset 10, -28
 668              		.cfi_offset 11, -24
 285:Drivers/STM32U0xx_HAL_Driver/Src/stm32u0xx_hal_gpio.c ****   uint32_t iocurrent;
 669              		.loc 1 285 12 view .LVU228
 670 000c 0023     		movs	r3, #0
 284:Drivers/STM32U0xx_HAL_Driver/Src/stm32u0xx_hal_gpio.c ****   uint32_t position = 0x00u;
 671              		.loc 1 284 1 view .LVU229
 672 000e 83B0     		sub	sp, sp, #12
 673              	.LCFI5:
 674              		.cfi_def_cfa_offset 48
 675              		.loc 1 294 33 view .LVU230
 676 0010 0029     		cmp	r1, #0
 677 0012 6AD0     		beq	.L42
 295:Drivers/STM32U0xx_HAL_Driver/Src/stm32u0xx_hal_gpio.c ****   {
 296:Drivers/STM32U0xx_HAL_Driver/Src/stm32u0xx_hal_gpio.c ****     /* Get current io position */
 297:Drivers/STM32U0xx_HAL_Driver/Src/stm32u0xx_hal_gpio.c ****     iocurrent = (GPIO_Pin) & (1uL << position);
 678              		.loc 1 297 35 view .LVU231
 679 0014 0122     		movs	r2, #1
 680 0016 9146     		mov	r9, r2
 298:Drivers/STM32U0xx_HAL_Driver/Src/stm32u0xx_hal_gpio.c **** 
 299:Drivers/STM32U0xx_HAL_Driver/Src/stm32u0xx_hal_gpio.c ****     if (iocurrent != 0x00u)
 300:Drivers/STM32U0xx_HAL_Driver/Src/stm32u0xx_hal_gpio.c ****     {
 301:Drivers/STM32U0xx_HAL_Driver/Src/stm32u0xx_hal_gpio.c ****       /*------------------------- EXTI Mode Configuration --------------------*/
 302:Drivers/STM32U0xx_HAL_Driver/Src/stm32u0xx_hal_gpio.c ****       /* Clear the External Interrupt or Event for the current IO */
 303:Drivers/STM32U0xx_HAL_Driver/Src/stm32u0xx_hal_gpio.c **** 
 304:Drivers/STM32U0xx_HAL_Driver/Src/stm32u0xx_hal_gpio.c ****       tmp = EXTI->EXTICR[position >> 2u];
 305:Drivers/STM32U0xx_HAL_Driver/Src/stm32u0xx_hal_gpio.c ****       tmp &= (0x0FuL << (EXTI_EXTICR1_EXTI1_Pos * (position & 0x03u)));
 681              		.loc 1 305 61 view .LVU232
 682 0018 0232     		adds	r2, r2, #2
 683 001a 9346     		mov	fp, r2
 306:Drivers/STM32U0xx_HAL_Driver/Src/stm32u0xx_hal_gpio.c ****       if (tmp == (GPIO_GET_INDEX(GPIOx) << (EXTI_EXTICR1_EXTI1_Pos * (position & 0x03u))))
 307:Drivers/STM32U0xx_HAL_Driver/Src/stm32u0xx_hal_gpio.c ****       {
 308:Drivers/STM32U0xx_HAL_Driver/Src/stm32u0xx_hal_gpio.c ****         /* Clear EXTI line configuration */
 309:Drivers/STM32U0xx_HAL_Driver/Src/stm32u0xx_hal_gpio.c ****         EXTI->IMR1 &= ~(iocurrent);
 684              		.loc 1 309 13 view .LVU233
 685 001c 404A     		ldr	r2, .L64
 686 001e 9446     		mov	ip, r2
 687              	.LVL72:
 688              	.L43:
 297:Drivers/STM32U0xx_HAL_Driver/Src/stm32u0xx_hal_gpio.c **** 
 689              		.loc 1 297 5 is_stmt 1 view .LVU234
 297:Drivers/STM32U0xx_HAL_Driver/Src/stm32u0xx_hal_gpio.c **** 
 690              		.loc 1 297 35 is_stmt 0 view .LVU235
 691 0020 4A46     		mov	r2, r9
 297:Drivers/STM32U0xx_HAL_Driver/Src/stm32u0xx_hal_gpio.c **** 
 692              		.loc 1 297 15 view .LVU236
 693 0022 0F00     		movs	r7, r1
ARM GAS  C:\Users\upo\AppData\Local\Temp\cc686eZe.s 			page 21


 297:Drivers/STM32U0xx_HAL_Driver/Src/stm32u0xx_hal_gpio.c **** 
 694              		.loc 1 297 35 view .LVU237
 695 0024 9A40     		lsls	r2, r2, r3
 297:Drivers/STM32U0xx_HAL_Driver/Src/stm32u0xx_hal_gpio.c **** 
 696              		.loc 1 297 15 view .LVU238
 697 0026 1740     		ands	r7, r2
 698              	.LVL73:
 299:Drivers/STM32U0xx_HAL_Driver/Src/stm32u0xx_hal_gpio.c ****     {
 699              		.loc 1 299 5 is_stmt 1 view .LVU239
 299:Drivers/STM32U0xx_HAL_Driver/Src/stm32u0xx_hal_gpio.c ****     {
 700              		.loc 1 299 8 is_stmt 0 view .LVU240
 701 0028 1142     		tst	r1, r2
 702 002a 5AD0     		beq	.L44
 304:Drivers/STM32U0xx_HAL_Driver/Src/stm32u0xx_hal_gpio.c ****       tmp &= (0x0FuL << (EXTI_EXTICR1_EXTI1_Pos * (position & 0x03u)));
 703              		.loc 1 304 7 is_stmt 1 view .LVU241
 704 002c 3C4D     		ldr	r5, .L64
 304:Drivers/STM32U0xx_HAL_Driver/Src/stm32u0xx_hal_gpio.c ****       tmp &= (0x0FuL << (EXTI_EXTICR1_EXTI1_Pos * (position & 0x03u)));
 705              		.loc 1 304 35 is_stmt 0 view .LVU242
 706 002e 9C08     		lsrs	r4, r3, #2
 707 0030 A846     		mov	r8, r5
 708 0032 A400     		lsls	r4, r4, #2
 305:Drivers/STM32U0xx_HAL_Driver/Src/stm32u0xx_hal_gpio.c ****       if (tmp == (GPIO_GET_INDEX(GPIOx) << (EXTI_EXTICR1_EXTI1_Pos * (position & 0x03u))))
 709              		.loc 1 305 61 view .LVU243
 710 0034 5D46     		mov	r5, fp
 711 0036 4444     		add	r4, r4, r8
 304:Drivers/STM32U0xx_HAL_Driver/Src/stm32u0xx_hal_gpio.c ****       tmp &= (0x0FuL << (EXTI_EXTICR1_EXTI1_Pos * (position & 0x03u)));
 712              		.loc 1 304 11 view .LVU244
 713 0038 266E     		ldr	r6, [r4, #96]
 714              	.LVL74:
 305:Drivers/STM32U0xx_HAL_Driver/Src/stm32u0xx_hal_gpio.c ****       if (tmp == (GPIO_GET_INDEX(GPIOx) << (EXTI_EXTICR1_EXTI1_Pos * (position & 0x03u))))
 715              		.loc 1 305 7 is_stmt 1 view .LVU245
 716 003a 0194     		str	r4, [sp, #4]
 305:Drivers/STM32U0xx_HAL_Driver/Src/stm32u0xx_hal_gpio.c ****       if (tmp == (GPIO_GET_INDEX(GPIOx) << (EXTI_EXTICR1_EXTI1_Pos * (position & 0x03u))))
 717              		.loc 1 305 22 is_stmt 0 view .LVU246
 718 003c 0F24     		movs	r4, #15
 305:Drivers/STM32U0xx_HAL_Driver/Src/stm32u0xx_hal_gpio.c ****       if (tmp == (GPIO_GET_INDEX(GPIOx) << (EXTI_EXTICR1_EXTI1_Pos * (position & 0x03u))))
 719              		.loc 1 305 61 view .LVU247
 720 003e 1D40     		ands	r5, r3
 305:Drivers/STM32U0xx_HAL_Driver/Src/stm32u0xx_hal_gpio.c ****       if (tmp == (GPIO_GET_INDEX(GPIOx) << (EXTI_EXTICR1_EXTI1_Pos * (position & 0x03u))))
 721              		.loc 1 305 49 view .LVU248
 722 0040 ED00     		lsls	r5, r5, #3
 305:Drivers/STM32U0xx_HAL_Driver/Src/stm32u0xx_hal_gpio.c ****       if (tmp == (GPIO_GET_INDEX(GPIOx) << (EXTI_EXTICR1_EXTI1_Pos * (position & 0x03u))))
 723              		.loc 1 305 22 view .LVU249
 724 0042 AC40     		lsls	r4, r4, r5
 725 0044 A046     		mov	r8, r4
 305:Drivers/STM32U0xx_HAL_Driver/Src/stm32u0xx_hal_gpio.c ****       if (tmp == (GPIO_GET_INDEX(GPIOx) << (EXTI_EXTICR1_EXTI1_Pos * (position & 0x03u))))
 726              		.loc 1 305 11 view .LVU250
 727 0046 2640     		ands	r6, r4
 728              	.LVL75:
 306:Drivers/STM32U0xx_HAL_Driver/Src/stm32u0xx_hal_gpio.c ****       {
 729              		.loc 1 306 7 is_stmt 1 view .LVU251
 306:Drivers/STM32U0xx_HAL_Driver/Src/stm32u0xx_hal_gpio.c ****       {
 730              		.loc 1 306 19 is_stmt 0 view .LVU252
 731 0048 A024     		movs	r4, #160
 732 004a E405     		lsls	r4, r4, #23
 733 004c A042     		cmp	r0, r4
 734 004e 12D0     		beq	.L54
ARM GAS  C:\Users\upo\AppData\Local\Temp\cc686eZe.s 			page 22


 306:Drivers/STM32U0xx_HAL_Driver/Src/stm32u0xx_hal_gpio.c ****       {
 735              		.loc 1 306 19 discriminator 1 view .LVU253
 736 0050 344C     		ldr	r4, .L64+4
 737 0052 A042     		cmp	r0, r4
 738 0054 50D0     		beq	.L60
 306:Drivers/STM32U0xx_HAL_Driver/Src/stm32u0xx_hal_gpio.c ****       {
 739              		.loc 1 306 19 discriminator 3 view .LVU254
 740 0056 344C     		ldr	r4, .L64+8
 741 0058 A042     		cmp	r0, r4
 742 005a 51D0     		beq	.L61
 306:Drivers/STM32U0xx_HAL_Driver/Src/stm32u0xx_hal_gpio.c ****       {
 743              		.loc 1 306 19 discriminator 5 view .LVU255
 744 005c 334C     		ldr	r4, .L64+12
 745 005e A042     		cmp	r0, r4
 746 0060 56D0     		beq	.L62
 306:Drivers/STM32U0xx_HAL_Driver/Src/stm32u0xx_hal_gpio.c ****       {
 747              		.loc 1 306 19 discriminator 7 view .LVU256
 748 0062 334C     		ldr	r4, .L64+16
 749 0064 A042     		cmp	r0, r4
 750 0066 57D0     		beq	.L63
 306:Drivers/STM32U0xx_HAL_Driver/Src/stm32u0xx_hal_gpio.c ****       {
 751              		.loc 1 306 19 discriminator 9 view .LVU257
 752 0068 324C     		ldr	r4, .L64+20
 753 006a A042     		cmp	r0, r4
 754 006c 4CD0     		beq	.L50
 306:Drivers/STM32U0xx_HAL_Driver/Src/stm32u0xx_hal_gpio.c ****       {
 755              		.loc 1 306 41 view .LVU258
 756 006e 0624     		movs	r4, #6
 757 0070 AC40     		lsls	r4, r4, r5
 758 0072 2500     		movs	r5, r4
 759 0074 00E0     		b	.L45
 760              	.L54:
 761 0076 0025     		movs	r5, #0
 762              	.L45:
 306:Drivers/STM32U0xx_HAL_Driver/Src/stm32u0xx_hal_gpio.c ****       {
 763              		.loc 1 306 10 discriminator 24 view .LVU259
 764 0078 AE42     		cmp	r6, r5
 765 007a 14D1     		bne	.L51
 766              		.loc 1 309 9 is_stmt 1 view .LVU260
 767              		.loc 1 309 13 is_stmt 0 view .LVU261
 768 007c 8024     		movs	r4, #128
 769 007e 6546     		mov	r5, ip
 770              		.loc 1 309 20 view .LVU262
 771 0080 6646     		mov	r6, ip
 772              	.LVL76:
 773              		.loc 1 309 13 view .LVU263
 774 0082 2D59     		ldr	r5, [r5, r4]
 775              		.loc 1 309 20 view .LVU264
 776 0084 BD43     		bics	r5, r7
 777 0086 3551     		str	r5, [r6, r4]
 310:Drivers/STM32U0xx_HAL_Driver/Src/stm32u0xx_hal_gpio.c ****         EXTI->EMR1 &= ~(iocurrent);
 778              		.loc 1 310 9 is_stmt 1 view .LVU265
 779              		.loc 1 310 13 is_stmt 0 view .LVU266
 780 0088 0434     		adds	r4, r4, #4
 781 008a 3559     		ldr	r5, [r6, r4]
 782              		.loc 1 310 20 view .LVU267
 783 008c BD43     		bics	r5, r7
ARM GAS  C:\Users\upo\AppData\Local\Temp\cc686eZe.s 			page 23


 784 008e 3551     		str	r5, [r6, r4]
 311:Drivers/STM32U0xx_HAL_Driver/Src/stm32u0xx_hal_gpio.c **** 
 312:Drivers/STM32U0xx_HAL_Driver/Src/stm32u0xx_hal_gpio.c ****         /* Clear Rising Falling edge configuration */
 313:Drivers/STM32U0xx_HAL_Driver/Src/stm32u0xx_hal_gpio.c ****         EXTI->FTSR1 &= ~(iocurrent);
 785              		.loc 1 313 9 is_stmt 1 view .LVU268
 314:Drivers/STM32U0xx_HAL_Driver/Src/stm32u0xx_hal_gpio.c ****         EXTI->RTSR1 &= ~(iocurrent);
 315:Drivers/STM32U0xx_HAL_Driver/Src/stm32u0xx_hal_gpio.c **** 
 316:Drivers/STM32U0xx_HAL_Driver/Src/stm32u0xx_hal_gpio.c ****         tmp = 0x0FuL << (EXTI_EXTICR1_EXTI1_Pos * (position & 0x03u));
 317:Drivers/STM32U0xx_HAL_Driver/Src/stm32u0xx_hal_gpio.c ****         EXTI->EXTICR[position >> 2u] &= ~tmp;
 786              		.loc 1 317 38 is_stmt 0 view .LVU269
 787 0090 4446     		mov	r4, r8
 313:Drivers/STM32U0xx_HAL_Driver/Src/stm32u0xx_hal_gpio.c ****         EXTI->RTSR1 &= ~(iocurrent);
 788              		.loc 1 313 13 view .LVU270
 789 0092 7568     		ldr	r5, [r6, #4]
 313:Drivers/STM32U0xx_HAL_Driver/Src/stm32u0xx_hal_gpio.c ****         EXTI->RTSR1 &= ~(iocurrent);
 790              		.loc 1 313 21 view .LVU271
 791 0094 BD43     		bics	r5, r7
 792 0096 7560     		str	r5, [r6, #4]
 314:Drivers/STM32U0xx_HAL_Driver/Src/stm32u0xx_hal_gpio.c ****         EXTI->RTSR1 &= ~(iocurrent);
 793              		.loc 1 314 9 is_stmt 1 view .LVU272
 314:Drivers/STM32U0xx_HAL_Driver/Src/stm32u0xx_hal_gpio.c ****         EXTI->RTSR1 &= ~(iocurrent);
 794              		.loc 1 314 13 is_stmt 0 view .LVU273
 795 0098 3568     		ldr	r5, [r6]
 314:Drivers/STM32U0xx_HAL_Driver/Src/stm32u0xx_hal_gpio.c ****         EXTI->RTSR1 &= ~(iocurrent);
 796              		.loc 1 314 21 view .LVU274
 797 009a BD43     		bics	r5, r7
 798 009c 3560     		str	r5, [r6]
 316:Drivers/STM32U0xx_HAL_Driver/Src/stm32u0xx_hal_gpio.c ****         EXTI->EXTICR[position >> 2u] &= ~tmp;
 799              		.loc 1 316 9 is_stmt 1 view .LVU275
 800              	.LVL77:
 801              		.loc 1 317 9 view .LVU276
 802              		.loc 1 317 21 is_stmt 0 view .LVU277
 803 009e 019E     		ldr	r6, [sp, #4]
 804 00a0 356E     		ldr	r5, [r6, #96]
 805              		.loc 1 317 38 view .LVU278
 806 00a2 A543     		bics	r5, r4
 807 00a4 3566     		str	r5, [r6, #96]
 808              	.LVL78:
 809              	.L51:
 318:Drivers/STM32U0xx_HAL_Driver/Src/stm32u0xx_hal_gpio.c ****       }
 319:Drivers/STM32U0xx_HAL_Driver/Src/stm32u0xx_hal_gpio.c **** 
 320:Drivers/STM32U0xx_HAL_Driver/Src/stm32u0xx_hal_gpio.c ****       /*------------------------- GPIO Mode Configuration --------------------*/
 321:Drivers/STM32U0xx_HAL_Driver/Src/stm32u0xx_hal_gpio.c ****       /* Configure IO in Analog Mode */
 322:Drivers/STM32U0xx_HAL_Driver/Src/stm32u0xx_hal_gpio.c ****       GPIOx->MODER |= (GPIO_MODER_MODE0 << (position * GPIO_MODER_MODE1_Pos));
 810              		.loc 1 322 7 is_stmt 1 view .LVU279
 811              		.loc 1 322 41 is_stmt 0 view .LVU280
 812 00a6 5E46     		mov	r6, fp
 813 00a8 5D00     		lsls	r5, r3, #1
 814 00aa AE40     		lsls	r6, r6, r5
 815              		.loc 1 322 12 view .LVU281
 816 00ac 0468     		ldr	r4, [r0]
 817              		.loc 1 322 41 view .LVU282
 818 00ae 3500     		movs	r5, r6
 819              		.loc 1 322 20 view .LVU283
 820 00b0 3443     		orrs	r4, r6
 821 00b2 0460     		str	r4, [r0]
 323:Drivers/STM32U0xx_HAL_Driver/Src/stm32u0xx_hal_gpio.c **** 
ARM GAS  C:\Users\upo\AppData\Local\Temp\cc686eZe.s 			page 24


 324:Drivers/STM32U0xx_HAL_Driver/Src/stm32u0xx_hal_gpio.c ****       /* Configure the default Alternate Function in current IO */
 325:Drivers/STM32U0xx_HAL_Driver/Src/stm32u0xx_hal_gpio.c ****       GPIOx->AFR[position >> 3u] &= ~(0xFu << ((position & 0x07u) * GPIO_AFRL_AFSEL1_Pos)) ;
 822              		.loc 1 325 7 is_stmt 1 view .LVU284
 823              		.loc 1 325 17 is_stmt 0 view .LVU285
 824 00b4 DC08     		lsrs	r4, r3, #3
 825 00b6 A400     		lsls	r4, r4, #2
 826 00b8 0419     		adds	r4, r0, r4
 827 00ba 266A     		ldr	r6, [r4, #32]
 828              		.loc 1 325 58 view .LVU286
 829 00bc 0727     		movs	r7, #7
 830              	.LVL79:
 831              		.loc 1 325 17 view .LVU287
 832 00be B046     		mov	r8, r6
 833              		.loc 1 325 44 view .LVU288
 834 00c0 0F26     		movs	r6, #15
 835              		.loc 1 325 58 view .LVU289
 836 00c2 1F40     		ands	r7, r3
 837              		.loc 1 325 67 view .LVU290
 838 00c4 BF00     		lsls	r7, r7, #2
 839              		.loc 1 325 44 view .LVU291
 840 00c6 BE40     		lsls	r6, r6, r7
 841 00c8 3700     		movs	r7, r6
 842              		.loc 1 325 34 view .LVU292
 843 00ca 4646     		mov	r6, r8
 844 00cc BE43     		bics	r6, r7
 845 00ce 2662     		str	r6, [r4, #32]
 326:Drivers/STM32U0xx_HAL_Driver/Src/stm32u0xx_hal_gpio.c **** 
 327:Drivers/STM32U0xx_HAL_Driver/Src/stm32u0xx_hal_gpio.c ****       /* Configure the default value for IO Speed */
 328:Drivers/STM32U0xx_HAL_Driver/Src/stm32u0xx_hal_gpio.c ****       GPIOx->OSPEEDR &= ~(GPIO_OSPEEDR_OSPEED0 << (position * GPIO_OSPEEDR_OSPEED1_Pos));
 846              		.loc 1 328 7 is_stmt 1 view .LVU293
 847              		.loc 1 328 12 is_stmt 0 view .LVU294
 848 00d0 8468     		ldr	r4, [r0, #8]
 849              		.loc 1 328 22 view .LVU295
 850 00d2 AC43     		bics	r4, r5
 851 00d4 8460     		str	r4, [r0, #8]
 329:Drivers/STM32U0xx_HAL_Driver/Src/stm32u0xx_hal_gpio.c **** 
 330:Drivers/STM32U0xx_HAL_Driver/Src/stm32u0xx_hal_gpio.c ****       /* Configure the default value IO Output Type */
 331:Drivers/STM32U0xx_HAL_Driver/Src/stm32u0xx_hal_gpio.c ****       GPIOx->OTYPER  &= ~(GPIO_OTYPER_OT0 << position) ;
 852              		.loc 1 331 7 is_stmt 1 view .LVU296
 853              		.loc 1 331 12 is_stmt 0 view .LVU297
 854 00d6 4468     		ldr	r4, [r0, #4]
 855              		.loc 1 331 22 view .LVU298
 856 00d8 9443     		bics	r4, r2
 857 00da 4460     		str	r4, [r0, #4]
 332:Drivers/STM32U0xx_HAL_Driver/Src/stm32u0xx_hal_gpio.c **** 
 333:Drivers/STM32U0xx_HAL_Driver/Src/stm32u0xx_hal_gpio.c ****       /* Deactivate the Pull-up and Pull-down resistor for the current IO */
 334:Drivers/STM32U0xx_HAL_Driver/Src/stm32u0xx_hal_gpio.c ****       GPIOx->PUPDR &= ~(GPIO_PUPDR_PUPD0 << (position * GPIO_PUPDR_PUPD1_Pos));
 858              		.loc 1 334 7 is_stmt 1 view .LVU299
 859              		.loc 1 334 12 is_stmt 0 view .LVU300
 860 00dc C268     		ldr	r2, [r0, #12]
 861              	.LVL80:
 862              		.loc 1 334 20 view .LVU301
 863 00de AA43     		bics	r2, r5
 864 00e0 C260     		str	r2, [r0, #12]
 865              	.L44:
 335:Drivers/STM32U0xx_HAL_Driver/Src/stm32u0xx_hal_gpio.c ****     }
 336:Drivers/STM32U0xx_HAL_Driver/Src/stm32u0xx_hal_gpio.c **** 
ARM GAS  C:\Users\upo\AppData\Local\Temp\cc686eZe.s 			page 25


 337:Drivers/STM32U0xx_HAL_Driver/Src/stm32u0xx_hal_gpio.c ****     position++;
 866              		.loc 1 337 5 is_stmt 1 view .LVU302
 294:Drivers/STM32U0xx_HAL_Driver/Src/stm32u0xx_hal_gpio.c ****   {
 867              		.loc 1 294 20 is_stmt 0 view .LVU303
 868 00e2 0A00     		movs	r2, r1
 869              		.loc 1 337 13 view .LVU304
 870 00e4 0133     		adds	r3, r3, #1
 871              	.LVL81:
 294:Drivers/STM32U0xx_HAL_Driver/Src/stm32u0xx_hal_gpio.c ****   {
 872              		.loc 1 294 33 is_stmt 1 view .LVU305
 294:Drivers/STM32U0xx_HAL_Driver/Src/stm32u0xx_hal_gpio.c ****   {
 873              		.loc 1 294 20 is_stmt 0 view .LVU306
 874 00e6 DA40     		lsrs	r2, r2, r3
 294:Drivers/STM32U0xx_HAL_Driver/Src/stm32u0xx_hal_gpio.c ****   {
 875              		.loc 1 294 33 view .LVU307
 876 00e8 9AD1     		bne	.L43
 877              	.LVL82:
 878              	.L42:
 338:Drivers/STM32U0xx_HAL_Driver/Src/stm32u0xx_hal_gpio.c ****   }
 339:Drivers/STM32U0xx_HAL_Driver/Src/stm32u0xx_hal_gpio.c **** }
 879              		.loc 1 339 1 view .LVU308
 880 00ea 03B0     		add	sp, sp, #12
 881              		@ sp needed
 882 00ec F0BC     		pop	{r4, r5, r6, r7}
 883 00ee BB46     		mov	fp, r7
 884 00f0 B246     		mov	r10, r6
 885 00f2 A946     		mov	r9, r5
 886 00f4 A046     		mov	r8, r4
 887 00f6 F0BD     		pop	{r4, r5, r6, r7, pc}
 888              	.LVL83:
 889              	.L60:
 306:Drivers/STM32U0xx_HAL_Driver/Src/stm32u0xx_hal_gpio.c ****       {
 890              		.loc 1 306 41 view .LVU309
 891 00f8 4C46     		mov	r4, r9
 892 00fa AC40     		lsls	r4, r4, r5
 893 00fc 2500     		movs	r5, r4
 894 00fe BBE7     		b	.L45
 895              	.L61:
 896 0100 0224     		movs	r4, #2
 897 0102 AC40     		lsls	r4, r4, r5
 898 0104 2500     		movs	r5, r4
 899 0106 B7E7     		b	.L45
 900              	.L50:
 901 0108 0524     		movs	r4, #5
 902 010a AC40     		lsls	r4, r4, r5
 903 010c 2500     		movs	r5, r4
 904 010e B3E7     		b	.L45
 905              	.L62:
 906 0110 5C46     		mov	r4, fp
 907 0112 AC40     		lsls	r4, r4, r5
 908 0114 2500     		movs	r5, r4
 909 0116 AFE7     		b	.L45
 910              	.L63:
 911 0118 0424     		movs	r4, #4
 912 011a AC40     		lsls	r4, r4, r5
 913 011c 2500     		movs	r5, r4
 914 011e ABE7     		b	.L45
ARM GAS  C:\Users\upo\AppData\Local\Temp\cc686eZe.s 			page 26


 915              	.L65:
 916              		.align	2
 917              	.L64:
 918 0120 00180240 		.word	1073879040
 919 0124 00040050 		.word	1342178304
 920 0128 00080050 		.word	1342179328
 921 012c 000C0050 		.word	1342180352
 922 0130 00100050 		.word	1342181376
 923 0134 00140050 		.word	1342182400
 924              		.cfi_endproc
 925              	.LFE335:
 927              		.section	.text.HAL_GPIO_ReadPin,"ax",%progbits
 928              		.align	1
 929              		.p2align 2,,3
 930              		.global	HAL_GPIO_ReadPin
 931              		.syntax unified
 932              		.code	16
 933              		.thumb_func
 935              	HAL_GPIO_ReadPin:
 936              	.LVL84:
 937              	.LFB336:
 340:Drivers/STM32U0xx_HAL_Driver/Src/stm32u0xx_hal_gpio.c **** 
 341:Drivers/STM32U0xx_HAL_Driver/Src/stm32u0xx_hal_gpio.c **** /**
 342:Drivers/STM32U0xx_HAL_Driver/Src/stm32u0xx_hal_gpio.c ****   * @}
 343:Drivers/STM32U0xx_HAL_Driver/Src/stm32u0xx_hal_gpio.c ****   */
 344:Drivers/STM32U0xx_HAL_Driver/Src/stm32u0xx_hal_gpio.c **** 
 345:Drivers/STM32U0xx_HAL_Driver/Src/stm32u0xx_hal_gpio.c **** /** @addtogroup GPIO_Exported_Functions_Group2
 346:Drivers/STM32U0xx_HAL_Driver/Src/stm32u0xx_hal_gpio.c ****   *  @brief GPIO Read, Write, Toggle, Lock and EXTI management functions.
 347:Drivers/STM32U0xx_HAL_Driver/Src/stm32u0xx_hal_gpio.c ****   *
 348:Drivers/STM32U0xx_HAL_Driver/Src/stm32u0xx_hal_gpio.c **** @verbatim
 349:Drivers/STM32U0xx_HAL_Driver/Src/stm32u0xx_hal_gpio.c ****  ===============================================================================
 350:Drivers/STM32U0xx_HAL_Driver/Src/stm32u0xx_hal_gpio.c ****                        ##### IO operation functions #####
 351:Drivers/STM32U0xx_HAL_Driver/Src/stm32u0xx_hal_gpio.c ****  ===============================================================================
 352:Drivers/STM32U0xx_HAL_Driver/Src/stm32u0xx_hal_gpio.c **** 
 353:Drivers/STM32U0xx_HAL_Driver/Src/stm32u0xx_hal_gpio.c **** @endverbatim
 354:Drivers/STM32U0xx_HAL_Driver/Src/stm32u0xx_hal_gpio.c ****   * @{
 355:Drivers/STM32U0xx_HAL_Driver/Src/stm32u0xx_hal_gpio.c ****   */
 356:Drivers/STM32U0xx_HAL_Driver/Src/stm32u0xx_hal_gpio.c **** 
 357:Drivers/STM32U0xx_HAL_Driver/Src/stm32u0xx_hal_gpio.c **** /**
 358:Drivers/STM32U0xx_HAL_Driver/Src/stm32u0xx_hal_gpio.c ****   * @brief  Read the specified input port pin.
 359:Drivers/STM32U0xx_HAL_Driver/Src/stm32u0xx_hal_gpio.c ****   * @param  GPIOx where x can be (A..F) to select the GPIO peripheral for STM32U0xx family
 360:Drivers/STM32U0xx_HAL_Driver/Src/stm32u0xx_hal_gpio.c ****   * @param  GPIO_Pin specifies the port bit to read.
 361:Drivers/STM32U0xx_HAL_Driver/Src/stm32u0xx_hal_gpio.c ****   *         This parameter can be any combination of GPIO_Pin_x where x can be (0..15).
 362:Drivers/STM32U0xx_HAL_Driver/Src/stm32u0xx_hal_gpio.c ****   * @retval The input port pin value.
 363:Drivers/STM32U0xx_HAL_Driver/Src/stm32u0xx_hal_gpio.c ****   */
 364:Drivers/STM32U0xx_HAL_Driver/Src/stm32u0xx_hal_gpio.c **** GPIO_PinState HAL_GPIO_ReadPin(const GPIO_TypeDef *GPIOx, uint16_t GPIO_Pin)
 365:Drivers/STM32U0xx_HAL_Driver/Src/stm32u0xx_hal_gpio.c **** {
 938              		.loc 1 365 1 is_stmt 1 view -0
 939              		.cfi_startproc
 940              		@ args = 0, pretend = 0, frame = 0
 941              		@ frame_needed = 0, uses_anonymous_args = 0
 942              		@ link register save eliminated.
 366:Drivers/STM32U0xx_HAL_Driver/Src/stm32u0xx_hal_gpio.c ****   GPIO_PinState bitstatus;
 943              		.loc 1 366 3 view .LVU311
 367:Drivers/STM32U0xx_HAL_Driver/Src/stm32u0xx_hal_gpio.c **** 
 368:Drivers/STM32U0xx_HAL_Driver/Src/stm32u0xx_hal_gpio.c ****   /* Check the parameters */
 369:Drivers/STM32U0xx_HAL_Driver/Src/stm32u0xx_hal_gpio.c ****   assert_param(IS_GPIO_PIN(GPIO_Pin));
ARM GAS  C:\Users\upo\AppData\Local\Temp\cc686eZe.s 			page 27


 944              		.loc 1 369 3 view .LVU312
 370:Drivers/STM32U0xx_HAL_Driver/Src/stm32u0xx_hal_gpio.c **** 
 371:Drivers/STM32U0xx_HAL_Driver/Src/stm32u0xx_hal_gpio.c ****   if ((GPIOx->IDR & GPIO_Pin) != 0x00u)
 945              		.loc 1 371 3 view .LVU313
 946              		.loc 1 371 13 is_stmt 0 view .LVU314
 947 0000 0069     		ldr	r0, [r0, #16]
 948              	.LVL85:
 372:Drivers/STM32U0xx_HAL_Driver/Src/stm32u0xx_hal_gpio.c ****   {
 373:Drivers/STM32U0xx_HAL_Driver/Src/stm32u0xx_hal_gpio.c ****     bitstatus = GPIO_PIN_SET;
 374:Drivers/STM32U0xx_HAL_Driver/Src/stm32u0xx_hal_gpio.c ****   }
 375:Drivers/STM32U0xx_HAL_Driver/Src/stm32u0xx_hal_gpio.c ****   else
 376:Drivers/STM32U0xx_HAL_Driver/Src/stm32u0xx_hal_gpio.c ****   {
 377:Drivers/STM32U0xx_HAL_Driver/Src/stm32u0xx_hal_gpio.c ****     bitstatus = GPIO_PIN_RESET;
 378:Drivers/STM32U0xx_HAL_Driver/Src/stm32u0xx_hal_gpio.c ****   }
 379:Drivers/STM32U0xx_HAL_Driver/Src/stm32u0xx_hal_gpio.c ****   return bitstatus;
 949              		.loc 1 379 3 is_stmt 1 view .LVU315
 380:Drivers/STM32U0xx_HAL_Driver/Src/stm32u0xx_hal_gpio.c **** }
 950              		.loc 1 380 1 is_stmt 0 view .LVU316
 951              		@ sp needed
 371:Drivers/STM32U0xx_HAL_Driver/Src/stm32u0xx_hal_gpio.c ****   {
 952              		.loc 1 371 19 view .LVU317
 953 0002 0840     		ands	r0, r1
 954              	.LVL86:
 371:Drivers/STM32U0xx_HAL_Driver/Src/stm32u0xx_hal_gpio.c ****   {
 955              		.loc 1 371 6 view .LVU318
 956 0004 431E     		subs	r3, r0, #1
 957 0006 9841     		sbcs	r0, r0, r3
 379:Drivers/STM32U0xx_HAL_Driver/Src/stm32u0xx_hal_gpio.c **** }
 958              		.loc 1 379 10 view .LVU319
 959 0008 C0B2     		uxtb	r0, r0
 960              		.loc 1 380 1 view .LVU320
 961 000a 7047     		bx	lr
 962              		.cfi_endproc
 963              	.LFE336:
 965              		.section	.text.HAL_GPIO_WritePin,"ax",%progbits
 966              		.align	1
 967              		.p2align 2,,3
 968              		.global	HAL_GPIO_WritePin
 969              		.syntax unified
 970              		.code	16
 971              		.thumb_func
 973              	HAL_GPIO_WritePin:
 974              	.LVL87:
 975              	.LFB337:
 381:Drivers/STM32U0xx_HAL_Driver/Src/stm32u0xx_hal_gpio.c **** 
 382:Drivers/STM32U0xx_HAL_Driver/Src/stm32u0xx_hal_gpio.c **** /**
 383:Drivers/STM32U0xx_HAL_Driver/Src/stm32u0xx_hal_gpio.c ****   * @brief  Set or clear the selected data port bit.
 384:Drivers/STM32U0xx_HAL_Driver/Src/stm32u0xx_hal_gpio.c ****   *
 385:Drivers/STM32U0xx_HAL_Driver/Src/stm32u0xx_hal_gpio.c ****   * @note   This function uses GPIOx_BSRR and GPIOx_BRR registers to allow atomic read/modify
 386:Drivers/STM32U0xx_HAL_Driver/Src/stm32u0xx_hal_gpio.c ****   *         accesses. In this way, there is no risk of an IRQ occurring between
 387:Drivers/STM32U0xx_HAL_Driver/Src/stm32u0xx_hal_gpio.c ****   *         the read and the modify access.
 388:Drivers/STM32U0xx_HAL_Driver/Src/stm32u0xx_hal_gpio.c ****   *
 389:Drivers/STM32U0xx_HAL_Driver/Src/stm32u0xx_hal_gpio.c ****   * @param  GPIOx where x can be (A..F) to select the GPIO peripheral for STM32U0xx family
 390:Drivers/STM32U0xx_HAL_Driver/Src/stm32u0xx_hal_gpio.c ****   * @param  GPIO_Pin specifies the port bit to be written.
 391:Drivers/STM32U0xx_HAL_Driver/Src/stm32u0xx_hal_gpio.c ****   *         This parameter can be any combination of GPIO_Pin_x where x can be (0..15).
 392:Drivers/STM32U0xx_HAL_Driver/Src/stm32u0xx_hal_gpio.c ****   * @param  PinState specifies the value to be written to the selected bit.
 393:Drivers/STM32U0xx_HAL_Driver/Src/stm32u0xx_hal_gpio.c ****   *         This parameter can be one of the GPIO_PinState enum values:
ARM GAS  C:\Users\upo\AppData\Local\Temp\cc686eZe.s 			page 28


 394:Drivers/STM32U0xx_HAL_Driver/Src/stm32u0xx_hal_gpio.c ****   *            @arg GPIO_PIN_RESET: to clear the port pin
 395:Drivers/STM32U0xx_HAL_Driver/Src/stm32u0xx_hal_gpio.c ****   *            @arg GPIO_PIN_SET: to set the port pin
 396:Drivers/STM32U0xx_HAL_Driver/Src/stm32u0xx_hal_gpio.c ****   * @retval None
 397:Drivers/STM32U0xx_HAL_Driver/Src/stm32u0xx_hal_gpio.c ****   */
 398:Drivers/STM32U0xx_HAL_Driver/Src/stm32u0xx_hal_gpio.c **** void HAL_GPIO_WritePin(GPIO_TypeDef *GPIOx, uint16_t GPIO_Pin, GPIO_PinState PinState)
 399:Drivers/STM32U0xx_HAL_Driver/Src/stm32u0xx_hal_gpio.c **** {
 976              		.loc 1 399 1 is_stmt 1 view -0
 977              		.cfi_startproc
 978              		@ args = 0, pretend = 0, frame = 0
 979              		@ frame_needed = 0, uses_anonymous_args = 0
 980              		@ link register save eliminated.
 400:Drivers/STM32U0xx_HAL_Driver/Src/stm32u0xx_hal_gpio.c ****   /* Check the parameters */
 401:Drivers/STM32U0xx_HAL_Driver/Src/stm32u0xx_hal_gpio.c ****   assert_param(IS_GPIO_PIN(GPIO_Pin));
 981              		.loc 1 401 3 view .LVU322
 402:Drivers/STM32U0xx_HAL_Driver/Src/stm32u0xx_hal_gpio.c ****   assert_param(IS_GPIO_PIN_ACTION(PinState));
 982              		.loc 1 402 3 view .LVU323
 403:Drivers/STM32U0xx_HAL_Driver/Src/stm32u0xx_hal_gpio.c **** 
 404:Drivers/STM32U0xx_HAL_Driver/Src/stm32u0xx_hal_gpio.c ****   if (PinState != GPIO_PIN_RESET)
 983              		.loc 1 404 3 view .LVU324
 984              		.loc 1 404 6 is_stmt 0 view .LVU325
 985 0000 002A     		cmp	r2, #0
 986 0002 01D0     		beq	.L68
 405:Drivers/STM32U0xx_HAL_Driver/Src/stm32u0xx_hal_gpio.c ****   {
 406:Drivers/STM32U0xx_HAL_Driver/Src/stm32u0xx_hal_gpio.c ****     GPIOx->BSRR = (uint32_t)GPIO_Pin;
 987              		.loc 1 406 5 is_stmt 1 view .LVU326
 988              		.loc 1 406 17 is_stmt 0 view .LVU327
 989 0004 8161     		str	r1, [r0, #24]
 990              	.L67:
 407:Drivers/STM32U0xx_HAL_Driver/Src/stm32u0xx_hal_gpio.c ****   }
 408:Drivers/STM32U0xx_HAL_Driver/Src/stm32u0xx_hal_gpio.c ****   else
 409:Drivers/STM32U0xx_HAL_Driver/Src/stm32u0xx_hal_gpio.c ****   {
 410:Drivers/STM32U0xx_HAL_Driver/Src/stm32u0xx_hal_gpio.c ****     GPIOx->BRR = (uint32_t)GPIO_Pin;
 411:Drivers/STM32U0xx_HAL_Driver/Src/stm32u0xx_hal_gpio.c ****   }
 412:Drivers/STM32U0xx_HAL_Driver/Src/stm32u0xx_hal_gpio.c **** }
 991              		.loc 1 412 1 view .LVU328
 992              		@ sp needed
 993 0006 7047     		bx	lr
 994              	.L68:
 410:Drivers/STM32U0xx_HAL_Driver/Src/stm32u0xx_hal_gpio.c ****   }
 995              		.loc 1 410 5 is_stmt 1 view .LVU329
 410:Drivers/STM32U0xx_HAL_Driver/Src/stm32u0xx_hal_gpio.c ****   }
 996              		.loc 1 410 16 is_stmt 0 view .LVU330
 997 0008 8162     		str	r1, [r0, #40]
 998              		.loc 1 412 1 view .LVU331
 999 000a FCE7     		b	.L67
 1000              		.cfi_endproc
 1001              	.LFE337:
 1003              		.section	.text.HAL_GPIO_TogglePin,"ax",%progbits
 1004              		.align	1
 1005              		.p2align 2,,3
 1006              		.global	HAL_GPIO_TogglePin
 1007              		.syntax unified
 1008              		.code	16
 1009              		.thumb_func
 1011              	HAL_GPIO_TogglePin:
 1012              	.LVL88:
 1013              	.LFB338:
ARM GAS  C:\Users\upo\AppData\Local\Temp\cc686eZe.s 			page 29


 413:Drivers/STM32U0xx_HAL_Driver/Src/stm32u0xx_hal_gpio.c **** 
 414:Drivers/STM32U0xx_HAL_Driver/Src/stm32u0xx_hal_gpio.c **** /**
 415:Drivers/STM32U0xx_HAL_Driver/Src/stm32u0xx_hal_gpio.c ****   * @brief  Toggle the specified GPIO pin.
 416:Drivers/STM32U0xx_HAL_Driver/Src/stm32u0xx_hal_gpio.c ****   * @param  GPIOx where x can be (A..F) to select the GPIO peripheral for STM32U0xx family
 417:Drivers/STM32U0xx_HAL_Driver/Src/stm32u0xx_hal_gpio.c ****   * @param  GPIO_Pin specifies the pin to be toggled.
 418:Drivers/STM32U0xx_HAL_Driver/Src/stm32u0xx_hal_gpio.c ****   *         This parameter can be any combination of GPIO_Pin_x where x can be (0..15).
 419:Drivers/STM32U0xx_HAL_Driver/Src/stm32u0xx_hal_gpio.c ****   * @retval None
 420:Drivers/STM32U0xx_HAL_Driver/Src/stm32u0xx_hal_gpio.c ****   */
 421:Drivers/STM32U0xx_HAL_Driver/Src/stm32u0xx_hal_gpio.c **** void HAL_GPIO_TogglePin(GPIO_TypeDef *GPIOx, uint16_t GPIO_Pin)
 422:Drivers/STM32U0xx_HAL_Driver/Src/stm32u0xx_hal_gpio.c **** {
 1014              		.loc 1 422 1 is_stmt 1 view -0
 1015              		.cfi_startproc
 1016              		@ args = 0, pretend = 0, frame = 0
 1017              		@ frame_needed = 0, uses_anonymous_args = 0
 1018              		@ link register save eliminated.
 423:Drivers/STM32U0xx_HAL_Driver/Src/stm32u0xx_hal_gpio.c ****   uint32_t odr;
 1019              		.loc 1 423 3 view .LVU333
 424:Drivers/STM32U0xx_HAL_Driver/Src/stm32u0xx_hal_gpio.c **** 
 425:Drivers/STM32U0xx_HAL_Driver/Src/stm32u0xx_hal_gpio.c ****   /* Check the parameters */
 426:Drivers/STM32U0xx_HAL_Driver/Src/stm32u0xx_hal_gpio.c ****   assert_param(IS_GPIO_PIN(GPIO_Pin));
 1020              		.loc 1 426 3 view .LVU334
 427:Drivers/STM32U0xx_HAL_Driver/Src/stm32u0xx_hal_gpio.c **** 
 428:Drivers/STM32U0xx_HAL_Driver/Src/stm32u0xx_hal_gpio.c ****   /* get current Output Data Register value */
 429:Drivers/STM32U0xx_HAL_Driver/Src/stm32u0xx_hal_gpio.c ****   odr = GPIOx->ODR;
 1021              		.loc 1 429 3 view .LVU335
 1022              		.loc 1 429 7 is_stmt 0 view .LVU336
 1023 0000 4269     		ldr	r2, [r0, #20]
 1024              	.LVL89:
 430:Drivers/STM32U0xx_HAL_Driver/Src/stm32u0xx_hal_gpio.c **** 
 431:Drivers/STM32U0xx_HAL_Driver/Src/stm32u0xx_hal_gpio.c ****   /* Set selected pins that were at low level, and reset ones that were high */
 432:Drivers/STM32U0xx_HAL_Driver/Src/stm32u0xx_hal_gpio.c ****   GPIOx->BSRR = ((odr & GPIO_Pin) << GPIO_NUMBER) | (~odr & GPIO_Pin);
 1025              		.loc 1 432 3 is_stmt 1 view .LVU337
 433:Drivers/STM32U0xx_HAL_Driver/Src/stm32u0xx_hal_gpio.c **** }
 1026              		.loc 1 433 1 is_stmt 0 view .LVU338
 1027              		@ sp needed
 432:Drivers/STM32U0xx_HAL_Driver/Src/stm32u0xx_hal_gpio.c **** }
 1028              		.loc 1 432 23 view .LVU339
 1029 0002 1300     		movs	r3, r2
 1030 0004 0B40     		ands	r3, r1
 432:Drivers/STM32U0xx_HAL_Driver/Src/stm32u0xx_hal_gpio.c **** }
 1031              		.loc 1 432 35 view .LVU340
 1032 0006 1B04     		lsls	r3, r3, #16
 432:Drivers/STM32U0xx_HAL_Driver/Src/stm32u0xx_hal_gpio.c **** }
 1033              		.loc 1 432 59 view .LVU341
 1034 0008 9143     		bics	r1, r2
 1035              	.LVL90:
 432:Drivers/STM32U0xx_HAL_Driver/Src/stm32u0xx_hal_gpio.c **** }
 1036              		.loc 1 432 51 view .LVU342
 1037 000a 0B43     		orrs	r3, r1
 432:Drivers/STM32U0xx_HAL_Driver/Src/stm32u0xx_hal_gpio.c **** }
 1038              		.loc 1 432 15 view .LVU343
 1039 000c 8361     		str	r3, [r0, #24]
 1040              		.loc 1 433 1 view .LVU344
 1041 000e 7047     		bx	lr
 1042              		.cfi_endproc
 1043              	.LFE338:
 1045              		.section	.text.HAL_GPIO_LockPin,"ax",%progbits
ARM GAS  C:\Users\upo\AppData\Local\Temp\cc686eZe.s 			page 30


 1046              		.align	1
 1047              		.p2align 2,,3
 1048              		.global	HAL_GPIO_LockPin
 1049              		.syntax unified
 1050              		.code	16
 1051              		.thumb_func
 1053              	HAL_GPIO_LockPin:
 1054              	.LVL91:
 1055              	.LFB339:
 434:Drivers/STM32U0xx_HAL_Driver/Src/stm32u0xx_hal_gpio.c **** 
 435:Drivers/STM32U0xx_HAL_Driver/Src/stm32u0xx_hal_gpio.c **** /**
 436:Drivers/STM32U0xx_HAL_Driver/Src/stm32u0xx_hal_gpio.c ****   * @brief  Lock GPIO Pins configuration registers.
 437:Drivers/STM32U0xx_HAL_Driver/Src/stm32u0xx_hal_gpio.c ****   * @note   The locked registers are GPIOx_MODER, GPIOx_OTYPER, GPIOx_OSPEEDR,
 438:Drivers/STM32U0xx_HAL_Driver/Src/stm32u0xx_hal_gpio.c ****   *         GPIOx_PUPDR, GPIOx_AFRL and GPIOx_AFRH.
 439:Drivers/STM32U0xx_HAL_Driver/Src/stm32u0xx_hal_gpio.c ****   * @note   The configuration of the locked GPIO pins can no longer be modified
 440:Drivers/STM32U0xx_HAL_Driver/Src/stm32u0xx_hal_gpio.c ****   *         until the next reset.
 441:Drivers/STM32U0xx_HAL_Driver/Src/stm32u0xx_hal_gpio.c ****   * @param  GPIOx where x can be (A..F) to select the GPIO peripheral for STM32U0xx family
 442:Drivers/STM32U0xx_HAL_Driver/Src/stm32u0xx_hal_gpio.c ****   * @param  GPIO_Pin specifies the port bits to be locked.
 443:Drivers/STM32U0xx_HAL_Driver/Src/stm32u0xx_hal_gpio.c ****   *         This parameter can be any combination of GPIO_Pin_x where x can be (0..15).
 444:Drivers/STM32U0xx_HAL_Driver/Src/stm32u0xx_hal_gpio.c ****   * @retval None
 445:Drivers/STM32U0xx_HAL_Driver/Src/stm32u0xx_hal_gpio.c ****   */
 446:Drivers/STM32U0xx_HAL_Driver/Src/stm32u0xx_hal_gpio.c **** HAL_StatusTypeDef HAL_GPIO_LockPin(GPIO_TypeDef *GPIOx, uint16_t GPIO_Pin)
 447:Drivers/STM32U0xx_HAL_Driver/Src/stm32u0xx_hal_gpio.c **** {
 1056              		.loc 1 447 1 is_stmt 1 view -0
 1057              		.cfi_startproc
 1058              		@ args = 0, pretend = 0, frame = 8
 1059              		@ frame_needed = 0, uses_anonymous_args = 0
 1060              		@ link register save eliminated.
 448:Drivers/STM32U0xx_HAL_Driver/Src/stm32u0xx_hal_gpio.c ****   __IO uint32_t tmp = GPIO_LCKR_LCKK;
 1061              		.loc 1 448 3 view .LVU346
 1062              		.loc 1 448 17 is_stmt 0 view .LVU347
 1063 0000 8023     		movs	r3, #128
 447:Drivers/STM32U0xx_HAL_Driver/Src/stm32u0xx_hal_gpio.c ****   __IO uint32_t tmp = GPIO_LCKR_LCKK;
 1064              		.loc 1 447 1 view .LVU348
 1065 0002 82B0     		sub	sp, sp, #8
 1066              	.LCFI6:
 1067              		.cfi_def_cfa_offset 8
 1068              		.loc 1 448 17 view .LVU349
 1069 0004 5B02     		lsls	r3, r3, #9
 1070 0006 0193     		str	r3, [sp, #4]
 449:Drivers/STM32U0xx_HAL_Driver/Src/stm32u0xx_hal_gpio.c **** 
 450:Drivers/STM32U0xx_HAL_Driver/Src/stm32u0xx_hal_gpio.c ****   /* Check the parameters */
 451:Drivers/STM32U0xx_HAL_Driver/Src/stm32u0xx_hal_gpio.c ****   assert_param(IS_GPIO_LOCK_INSTANCE(GPIOx));
 1071              		.loc 1 451 3 is_stmt 1 view .LVU350
 452:Drivers/STM32U0xx_HAL_Driver/Src/stm32u0xx_hal_gpio.c ****   assert_param(IS_GPIO_PIN(GPIO_Pin));
 1072              		.loc 1 452 3 view .LVU351
 453:Drivers/STM32U0xx_HAL_Driver/Src/stm32u0xx_hal_gpio.c **** 
 454:Drivers/STM32U0xx_HAL_Driver/Src/stm32u0xx_hal_gpio.c ****   /* Apply lock key write sequence */
 455:Drivers/STM32U0xx_HAL_Driver/Src/stm32u0xx_hal_gpio.c ****   tmp |= GPIO_Pin;
 1073              		.loc 1 455 3 view .LVU352
 1074              		.loc 1 455 7 is_stmt 0 view .LVU353
 1075 0008 019B     		ldr	r3, [sp, #4]
 1076 000a 0B43     		orrs	r3, r1
 1077 000c 0193     		str	r3, [sp, #4]
 456:Drivers/STM32U0xx_HAL_Driver/Src/stm32u0xx_hal_gpio.c ****   /* Set LCKx bit(s): LCKK='1' + LCK[15-0] */
 457:Drivers/STM32U0xx_HAL_Driver/Src/stm32u0xx_hal_gpio.c ****   GPIOx->LCKR = tmp;
 1078              		.loc 1 457 3 is_stmt 1 view .LVU354
ARM GAS  C:\Users\upo\AppData\Local\Temp\cc686eZe.s 			page 31


 1079              		.loc 1 457 15 is_stmt 0 view .LVU355
 1080 000e 019B     		ldr	r3, [sp, #4]
 1081 0010 C361     		str	r3, [r0, #28]
 458:Drivers/STM32U0xx_HAL_Driver/Src/stm32u0xx_hal_gpio.c ****   /* Reset LCKx bit(s): LCKK='0' + LCK[15-0] */
 459:Drivers/STM32U0xx_HAL_Driver/Src/stm32u0xx_hal_gpio.c ****   GPIOx->LCKR = GPIO_Pin;
 1082              		.loc 1 459 3 is_stmt 1 view .LVU356
 1083              		.loc 1 459 15 is_stmt 0 view .LVU357
 1084 0012 C161     		str	r1, [r0, #28]
 460:Drivers/STM32U0xx_HAL_Driver/Src/stm32u0xx_hal_gpio.c ****   /* Set LCKx bit(s): LCKK='1' + LCK[15-0] */
 461:Drivers/STM32U0xx_HAL_Driver/Src/stm32u0xx_hal_gpio.c ****   GPIOx->LCKR = tmp;
 1085              		.loc 1 461 3 is_stmt 1 view .LVU358
 1086              		.loc 1 461 15 is_stmt 0 view .LVU359
 1087 0014 019B     		ldr	r3, [sp, #4]
 1088 0016 C361     		str	r3, [r0, #28]
 462:Drivers/STM32U0xx_HAL_Driver/Src/stm32u0xx_hal_gpio.c ****   /* Read LCKK register. This read is mandatory to complete key lock sequence */
 463:Drivers/STM32U0xx_HAL_Driver/Src/stm32u0xx_hal_gpio.c ****   tmp = GPIOx->LCKR;
 1089              		.loc 1 463 3 is_stmt 1 view .LVU360
 1090              		.loc 1 463 14 is_stmt 0 view .LVU361
 1091 0018 C369     		ldr	r3, [r0, #28]
 1092              		.loc 1 463 7 view .LVU362
 1093 001a 0193     		str	r3, [sp, #4]
 464:Drivers/STM32U0xx_HAL_Driver/Src/stm32u0xx_hal_gpio.c **** 
 465:Drivers/STM32U0xx_HAL_Driver/Src/stm32u0xx_hal_gpio.c ****   /* read again in order to confirm lock is active */
 466:Drivers/STM32U0xx_HAL_Driver/Src/stm32u0xx_hal_gpio.c ****   if ((GPIOx->LCKR & GPIO_LCKR_LCKK) != 0x00u)
 1094              		.loc 1 466 3 is_stmt 1 view .LVU363
 1095              		.loc 1 466 13 is_stmt 0 view .LVU364
 1096 001c C369     		ldr	r3, [r0, #28]
 467:Drivers/STM32U0xx_HAL_Driver/Src/stm32u0xx_hal_gpio.c ****   {
 468:Drivers/STM32U0xx_HAL_Driver/Src/stm32u0xx_hal_gpio.c ****     return HAL_OK;
 469:Drivers/STM32U0xx_HAL_Driver/Src/stm32u0xx_hal_gpio.c ****   }
 470:Drivers/STM32U0xx_HAL_Driver/Src/stm32u0xx_hal_gpio.c ****   else
 471:Drivers/STM32U0xx_HAL_Driver/Src/stm32u0xx_hal_gpio.c ****   {
 472:Drivers/STM32U0xx_HAL_Driver/Src/stm32u0xx_hal_gpio.c ****     return HAL_ERROR;
 473:Drivers/STM32U0xx_HAL_Driver/Src/stm32u0xx_hal_gpio.c ****   }
 474:Drivers/STM32U0xx_HAL_Driver/Src/stm32u0xx_hal_gpio.c **** }
 1097              		.loc 1 474 1 view .LVU365
 1098 001e 0120     		movs	r0, #1
 1099              	.LVL92:
 466:Drivers/STM32U0xx_HAL_Driver/Src/stm32u0xx_hal_gpio.c ****   {
 1100              		.loc 1 466 6 view .LVU366
 1101 0020 1B0C     		lsrs	r3, r3, #16
 1102              		.loc 1 474 1 view .LVU367
 1103 0022 9843     		bics	r0, r3
 1104 0024 02B0     		add	sp, sp, #8
 1105              		@ sp needed
 1106 0026 7047     		bx	lr
 1107              		.cfi_endproc
 1108              	.LFE339:
 1110              		.section	.text.HAL_GPIO_EXTI_Rising_Callback,"ax",%progbits
 1111              		.align	1
 1112              		.p2align 2,,3
 1113              		.weak	HAL_GPIO_EXTI_Rising_Callback
 1114              		.syntax unified
 1115              		.code	16
 1116              		.thumb_func
 1118              	HAL_GPIO_EXTI_Rising_Callback:
 1119              	.LVL93:
ARM GAS  C:\Users\upo\AppData\Local\Temp\cc686eZe.s 			page 32


 1120              	.LFB341:
 475:Drivers/STM32U0xx_HAL_Driver/Src/stm32u0xx_hal_gpio.c **** 
 476:Drivers/STM32U0xx_HAL_Driver/Src/stm32u0xx_hal_gpio.c **** /**
 477:Drivers/STM32U0xx_HAL_Driver/Src/stm32u0xx_hal_gpio.c ****   * @brief  Handle EXTI interrupt request.
 478:Drivers/STM32U0xx_HAL_Driver/Src/stm32u0xx_hal_gpio.c ****   * @param  GPIO_Pin Specifies the port pin connected to corresponding EXTI line.
 479:Drivers/STM32U0xx_HAL_Driver/Src/stm32u0xx_hal_gpio.c ****   * @retval None
 480:Drivers/STM32U0xx_HAL_Driver/Src/stm32u0xx_hal_gpio.c ****   */
 481:Drivers/STM32U0xx_HAL_Driver/Src/stm32u0xx_hal_gpio.c **** void HAL_GPIO_EXTI_IRQHandler(uint16_t GPIO_Pin)
 482:Drivers/STM32U0xx_HAL_Driver/Src/stm32u0xx_hal_gpio.c **** {
 483:Drivers/STM32U0xx_HAL_Driver/Src/stm32u0xx_hal_gpio.c ****   /* EXTI line interrupt detected */
 484:Drivers/STM32U0xx_HAL_Driver/Src/stm32u0xx_hal_gpio.c ****   if (__HAL_GPIO_EXTI_GET_RISING_IT(GPIO_Pin) != 0x00u)
 485:Drivers/STM32U0xx_HAL_Driver/Src/stm32u0xx_hal_gpio.c ****   {
 486:Drivers/STM32U0xx_HAL_Driver/Src/stm32u0xx_hal_gpio.c ****     __HAL_GPIO_EXTI_CLEAR_RISING_IT(GPIO_Pin);
 487:Drivers/STM32U0xx_HAL_Driver/Src/stm32u0xx_hal_gpio.c ****     HAL_GPIO_EXTI_Rising_Callback(GPIO_Pin);
 488:Drivers/STM32U0xx_HAL_Driver/Src/stm32u0xx_hal_gpio.c ****   }
 489:Drivers/STM32U0xx_HAL_Driver/Src/stm32u0xx_hal_gpio.c **** 
 490:Drivers/STM32U0xx_HAL_Driver/Src/stm32u0xx_hal_gpio.c ****   if (__HAL_GPIO_EXTI_GET_FALLING_IT(GPIO_Pin) != 0x00u)
 491:Drivers/STM32U0xx_HAL_Driver/Src/stm32u0xx_hal_gpio.c ****   {
 492:Drivers/STM32U0xx_HAL_Driver/Src/stm32u0xx_hal_gpio.c ****     __HAL_GPIO_EXTI_CLEAR_FALLING_IT(GPIO_Pin);
 493:Drivers/STM32U0xx_HAL_Driver/Src/stm32u0xx_hal_gpio.c ****     HAL_GPIO_EXTI_Falling_Callback(GPIO_Pin);
 494:Drivers/STM32U0xx_HAL_Driver/Src/stm32u0xx_hal_gpio.c ****   }
 495:Drivers/STM32U0xx_HAL_Driver/Src/stm32u0xx_hal_gpio.c **** }
 496:Drivers/STM32U0xx_HAL_Driver/Src/stm32u0xx_hal_gpio.c **** 
 497:Drivers/STM32U0xx_HAL_Driver/Src/stm32u0xx_hal_gpio.c **** /**
 498:Drivers/STM32U0xx_HAL_Driver/Src/stm32u0xx_hal_gpio.c ****   * @brief  EXTI line detection callback.
 499:Drivers/STM32U0xx_HAL_Driver/Src/stm32u0xx_hal_gpio.c ****   * @param  GPIO_Pin Specifies the port pin connected to corresponding EXTI line.
 500:Drivers/STM32U0xx_HAL_Driver/Src/stm32u0xx_hal_gpio.c ****   * @retval None
 501:Drivers/STM32U0xx_HAL_Driver/Src/stm32u0xx_hal_gpio.c ****   */
 502:Drivers/STM32U0xx_HAL_Driver/Src/stm32u0xx_hal_gpio.c **** __weak void HAL_GPIO_EXTI_Rising_Callback(uint16_t GPIO_Pin)
 503:Drivers/STM32U0xx_HAL_Driver/Src/stm32u0xx_hal_gpio.c **** {
 1121              		.loc 1 503 1 is_stmt 1 view -0
 1122              		.cfi_startproc
 1123              		@ args = 0, pretend = 0, frame = 0
 1124              		@ frame_needed = 0, uses_anonymous_args = 0
 1125              		@ link register save eliminated.
 504:Drivers/STM32U0xx_HAL_Driver/Src/stm32u0xx_hal_gpio.c ****   /* Prevent unused argument(s) compilation warning */
 505:Drivers/STM32U0xx_HAL_Driver/Src/stm32u0xx_hal_gpio.c ****   UNUSED(GPIO_Pin);
 1126              		.loc 1 505 3 view .LVU369
 506:Drivers/STM32U0xx_HAL_Driver/Src/stm32u0xx_hal_gpio.c **** 
 507:Drivers/STM32U0xx_HAL_Driver/Src/stm32u0xx_hal_gpio.c ****   /* NOTE: This function should not be modified, when the callback is needed,
 508:Drivers/STM32U0xx_HAL_Driver/Src/stm32u0xx_hal_gpio.c ****            the HAL_GPIO_EXTI_Rising_Callback could be implemented in the user file
 509:Drivers/STM32U0xx_HAL_Driver/Src/stm32u0xx_hal_gpio.c ****    */
 510:Drivers/STM32U0xx_HAL_Driver/Src/stm32u0xx_hal_gpio.c **** }
 1127              		.loc 1 510 1 is_stmt 0 view .LVU370
 1128              		@ sp needed
 1129 0000 7047     		bx	lr
 1130              		.cfi_endproc
 1131              	.LFE341:
 1133 0002 C046     		.section	.text.HAL_GPIO_EXTI_Falling_Callback,"ax",%progbits
 1134              		.align	1
 1135              		.p2align 2,,3
 1136              		.weak	HAL_GPIO_EXTI_Falling_Callback
 1137              		.syntax unified
 1138              		.code	16
 1139              		.thumb_func
 1141              	HAL_GPIO_EXTI_Falling_Callback:
 1142              	.LFB344:
ARM GAS  C:\Users\upo\AppData\Local\Temp\cc686eZe.s 			page 33


 1143              		.cfi_startproc
 511:Drivers/STM32U0xx_HAL_Driver/Src/stm32u0xx_hal_gpio.c **** 
 512:Drivers/STM32U0xx_HAL_Driver/Src/stm32u0xx_hal_gpio.c **** /**
 513:Drivers/STM32U0xx_HAL_Driver/Src/stm32u0xx_hal_gpio.c ****   * @brief  EXTI line detection callback.
 514:Drivers/STM32U0xx_HAL_Driver/Src/stm32u0xx_hal_gpio.c ****   * @param  GPIO_Pin Specifies the port pin connected to corresponding EXTI line.
 515:Drivers/STM32U0xx_HAL_Driver/Src/stm32u0xx_hal_gpio.c ****   * @retval None
 516:Drivers/STM32U0xx_HAL_Driver/Src/stm32u0xx_hal_gpio.c ****   */
 517:Drivers/STM32U0xx_HAL_Driver/Src/stm32u0xx_hal_gpio.c **** __weak void HAL_GPIO_EXTI_Falling_Callback(uint16_t GPIO_Pin)
 1144              		.loc 1 517 13 is_stmt 1 view -0
 1145              		@ args = 0, pretend = 0, frame = 0
 1146              		@ frame_needed = 0, uses_anonymous_args = 0
 1147              		@ link register save eliminated.
 1148              		@ sp needed
 1149 0000 7047     		bx	lr
 1150              		.cfi_endproc
 1151              	.LFE344:
 1153 0002 C046     		.section	.text.HAL_GPIO_EXTI_IRQHandler,"ax",%progbits
 1154              		.align	1
 1155              		.p2align 2,,3
 1156              		.global	HAL_GPIO_EXTI_IRQHandler
 1157              		.syntax unified
 1158              		.code	16
 1159              		.thumb_func
 1161              	HAL_GPIO_EXTI_IRQHandler:
 1162              	.LVL94:
 1163              	.LFB340:
 482:Drivers/STM32U0xx_HAL_Driver/Src/stm32u0xx_hal_gpio.c ****   /* EXTI line interrupt detected */
 1164              		.loc 1 482 1 view -0
 1165              		.cfi_startproc
 1166              		@ args = 0, pretend = 0, frame = 0
 1167              		@ frame_needed = 0, uses_anonymous_args = 0
 484:Drivers/STM32U0xx_HAL_Driver/Src/stm32u0xx_hal_gpio.c ****   {
 1168              		.loc 1 484 3 view .LVU373
 484:Drivers/STM32U0xx_HAL_Driver/Src/stm32u0xx_hal_gpio.c ****   {
 1169              		.loc 1 484 7 is_stmt 0 view .LVU374
 1170 0000 0B4B     		ldr	r3, .L85
 482:Drivers/STM32U0xx_HAL_Driver/Src/stm32u0xx_hal_gpio.c ****   /* EXTI line interrupt detected */
 1171              		.loc 1 482 1 view .LVU375
 1172 0002 10B5     		push	{r4, lr}
 1173              	.LCFI7:
 1174              		.cfi_def_cfa_offset 8
 1175              		.cfi_offset 4, -8
 1176              		.cfi_offset 14, -4
 484:Drivers/STM32U0xx_HAL_Driver/Src/stm32u0xx_hal_gpio.c ****   {
 1177              		.loc 1 484 7 view .LVU376
 1178 0004 DA68     		ldr	r2, [r3, #12]
 482:Drivers/STM32U0xx_HAL_Driver/Src/stm32u0xx_hal_gpio.c ****   /* EXTI line interrupt detected */
 1179              		.loc 1 482 1 view .LVU377
 1180 0006 0400     		movs	r4, r0
 484:Drivers/STM32U0xx_HAL_Driver/Src/stm32u0xx_hal_gpio.c ****   {
 1181              		.loc 1 484 6 view .LVU378
 1182 0008 1042     		tst	r0, r2
 1183 000a 04D1     		bne	.L83
 490:Drivers/STM32U0xx_HAL_Driver/Src/stm32u0xx_hal_gpio.c ****   {
 1184              		.loc 1 490 3 is_stmt 1 view .LVU379
 490:Drivers/STM32U0xx_HAL_Driver/Src/stm32u0xx_hal_gpio.c ****   {
 1185              		.loc 1 490 7 is_stmt 0 view .LVU380
ARM GAS  C:\Users\upo\AppData\Local\Temp\cc686eZe.s 			page 34


 1186 000c 084B     		ldr	r3, .L85
 1187 000e 1A69     		ldr	r2, [r3, #16]
 490:Drivers/STM32U0xx_HAL_Driver/Src/stm32u0xx_hal_gpio.c ****   {
 1188              		.loc 1 490 6 view .LVU381
 1189 0010 2242     		tst	r2, r4
 1190 0012 07D1     		bne	.L84
 1191              	.LVL95:
 1192              	.L74:
 495:Drivers/STM32U0xx_HAL_Driver/Src/stm32u0xx_hal_gpio.c **** 
 1193              		.loc 1 495 1 view .LVU382
 1194              		@ sp needed
 1195 0014 10BD     		pop	{r4, pc}
 1196              	.LVL96:
 1197              	.L83:
 486:Drivers/STM32U0xx_HAL_Driver/Src/stm32u0xx_hal_gpio.c ****     HAL_GPIO_EXTI_Rising_Callback(GPIO_Pin);
 1198              		.loc 1 486 5 is_stmt 1 view .LVU383
 1199 0016 D860     		str	r0, [r3, #12]
 487:Drivers/STM32U0xx_HAL_Driver/Src/stm32u0xx_hal_gpio.c ****   }
 1200              		.loc 1 487 5 view .LVU384
 1201 0018 FFF7FEFF 		bl	HAL_GPIO_EXTI_Rising_Callback
 1202              	.LVL97:
 490:Drivers/STM32U0xx_HAL_Driver/Src/stm32u0xx_hal_gpio.c ****   {
 1203              		.loc 1 490 3 view .LVU385
 490:Drivers/STM32U0xx_HAL_Driver/Src/stm32u0xx_hal_gpio.c ****   {
 1204              		.loc 1 490 7 is_stmt 0 view .LVU386
 1205 001c 044B     		ldr	r3, .L85
 1206 001e 1A69     		ldr	r2, [r3, #16]
 490:Drivers/STM32U0xx_HAL_Driver/Src/stm32u0xx_hal_gpio.c ****   {
 1207              		.loc 1 490 6 view .LVU387
 1208 0020 2242     		tst	r2, r4
 1209 0022 F7D0     		beq	.L74
 1210              	.L84:
 492:Drivers/STM32U0xx_HAL_Driver/Src/stm32u0xx_hal_gpio.c ****     HAL_GPIO_EXTI_Falling_Callback(GPIO_Pin);
 1211              		.loc 1 492 5 is_stmt 1 view .LVU388
 493:Drivers/STM32U0xx_HAL_Driver/Src/stm32u0xx_hal_gpio.c ****   }
 1212              		.loc 1 493 5 is_stmt 0 view .LVU389
 1213 0024 2000     		movs	r0, r4
 492:Drivers/STM32U0xx_HAL_Driver/Src/stm32u0xx_hal_gpio.c ****     HAL_GPIO_EXTI_Falling_Callback(GPIO_Pin);
 1214              		.loc 1 492 5 view .LVU390
 1215 0026 1C61     		str	r4, [r3, #16]
 493:Drivers/STM32U0xx_HAL_Driver/Src/stm32u0xx_hal_gpio.c ****   }
 1216              		.loc 1 493 5 is_stmt 1 view .LVU391
 1217 0028 FFF7FEFF 		bl	HAL_GPIO_EXTI_Falling_Callback
 1218              	.LVL98:
 495:Drivers/STM32U0xx_HAL_Driver/Src/stm32u0xx_hal_gpio.c **** 
 1219              		.loc 1 495 1 is_stmt 0 view .LVU392
 1220 002c F2E7     		b	.L74
 1221              	.L86:
 1222 002e C046     		.align	2
 1223              	.L85:
 1224 0030 00180240 		.word	1073879040
 1225              		.cfi_endproc
 1226              	.LFE340:
 1228              		.text
 1229              	.Letext0:
 1230              		.file 2 "C:\\ST\\STM32CubeCLT_1.15.0\\GNU-tools-for-STM32\\bin/../lib/gcc/arm-none-eabi/12.3.1/../
 1231              		.file 3 "C:\\ST\\STM32CubeCLT_1.15.0\\GNU-tools-for-STM32\\bin/../lib/gcc/arm-none-eabi/12.3.1/../
ARM GAS  C:\Users\upo\AppData\Local\Temp\cc686eZe.s 			page 35


 1232              		.file 4 "Drivers/CMSIS/Device/ST/STM32U0xx/Include/stm32u073xx.h"
 1233              		.file 5 "Drivers/STM32U0xx_HAL_Driver/Inc/stm32u0xx_hal_def.h"
 1234              		.file 6 "Drivers/STM32U0xx_HAL_Driver/Inc/stm32u0xx_hal_gpio.h"
 1235              		.file 7 "Drivers/STM32U0xx_HAL_Driver/Inc/stm32u0xx_ll_dma.h"
ARM GAS  C:\Users\upo\AppData\Local\Temp\cc686eZe.s 			page 36

