ARM GAS  C:\Users\upo\AppData\Local\Temp\ccaBY4hr.s 			page 1


   1              		.cpu cortex-m0plus
   2              		.arch armv6s-m
   3              		.fpu softvfp
   4              		.eabi_attribute 20, 1
   5              		.eabi_attribute 21, 1
   6              		.eabi_attribute 23, 3
   7              		.eabi_attribute 24, 1
   8              		.eabi_attribute 25, 1
   9              		.eabi_attribute 26, 1
  10              		.eabi_attribute 30, 2
  11              		.eabi_attribute 34, 0
  12              		.eabi_attribute 18, 4
  13              		.file	"stm32u0xx_hal_adc.c"
  14              		.text
  15              	.Ltext0:
  16              		.cfi_sections	.debug_frame
  17              		.file 1 "Drivers/STM32U0xx_HAL_Driver/Src/stm32u0xx_hal_adc.c"
  18              		.section	.text.HAL_ADC_MspInit,"ax",%progbits
  19              		.align	1
  20              		.p2align 2,,3
  21              		.weak	HAL_ADC_MspInit
  22              		.syntax unified
  23              		.code	16
  24              		.thumb_func
  26              	HAL_ADC_MspInit:
  27              	.LVL0:
  28              	.LFB336:
   1:Drivers/STM32U0xx_HAL_Driver/Src/stm32u0xx_hal_adc.c **** /**
   2:Drivers/STM32U0xx_HAL_Driver/Src/stm32u0xx_hal_adc.c ****   ******************************************************************************
   3:Drivers/STM32U0xx_HAL_Driver/Src/stm32u0xx_hal_adc.c ****   * @file    stm32u0xx_hal_adc.c
   4:Drivers/STM32U0xx_HAL_Driver/Src/stm32u0xx_hal_adc.c ****   * @author  MCD Application Team
   5:Drivers/STM32U0xx_HAL_Driver/Src/stm32u0xx_hal_adc.c ****   * @brief   This file provides firmware functions to manage the following
   6:Drivers/STM32U0xx_HAL_Driver/Src/stm32u0xx_hal_adc.c ****   *          functionalities of the Analog to Digital Converter (ADC)
   7:Drivers/STM32U0xx_HAL_Driver/Src/stm32u0xx_hal_adc.c ****   *          peripheral:
   8:Drivers/STM32U0xx_HAL_Driver/Src/stm32u0xx_hal_adc.c ****   *           + Initialization and de-initialization functions
   9:Drivers/STM32U0xx_HAL_Driver/Src/stm32u0xx_hal_adc.c ****   *           + Peripheral Control functions
  10:Drivers/STM32U0xx_HAL_Driver/Src/stm32u0xx_hal_adc.c ****   *           + Peripheral State functions
  11:Drivers/STM32U0xx_HAL_Driver/Src/stm32u0xx_hal_adc.c ****   *          Other functions (extended functions) are available in file
  12:Drivers/STM32U0xx_HAL_Driver/Src/stm32u0xx_hal_adc.c ****   *          "stm32u0xx_hal_adc_ex.c".
  13:Drivers/STM32U0xx_HAL_Driver/Src/stm32u0xx_hal_adc.c ****   *
  14:Drivers/STM32U0xx_HAL_Driver/Src/stm32u0xx_hal_adc.c ****   ******************************************************************************
  15:Drivers/STM32U0xx_HAL_Driver/Src/stm32u0xx_hal_adc.c ****   * @attention
  16:Drivers/STM32U0xx_HAL_Driver/Src/stm32u0xx_hal_adc.c ****   *
  17:Drivers/STM32U0xx_HAL_Driver/Src/stm32u0xx_hal_adc.c ****   * Copyright (c) 2023 STMicroelectronics.
  18:Drivers/STM32U0xx_HAL_Driver/Src/stm32u0xx_hal_adc.c ****   * All rights reserved.
  19:Drivers/STM32U0xx_HAL_Driver/Src/stm32u0xx_hal_adc.c ****   *
  20:Drivers/STM32U0xx_HAL_Driver/Src/stm32u0xx_hal_adc.c ****   * This software is licensed under terms that can be found in the LICENSE file
  21:Drivers/STM32U0xx_HAL_Driver/Src/stm32u0xx_hal_adc.c ****   * in the root directory of this software component.
  22:Drivers/STM32U0xx_HAL_Driver/Src/stm32u0xx_hal_adc.c ****   * If no LICENSE file comes with this software, it is provided AS-IS.
  23:Drivers/STM32U0xx_HAL_Driver/Src/stm32u0xx_hal_adc.c ****   *
  24:Drivers/STM32U0xx_HAL_Driver/Src/stm32u0xx_hal_adc.c ****   ******************************************************************************
  25:Drivers/STM32U0xx_HAL_Driver/Src/stm32u0xx_hal_adc.c ****   @verbatim
  26:Drivers/STM32U0xx_HAL_Driver/Src/stm32u0xx_hal_adc.c ****   ==============================================================================
  27:Drivers/STM32U0xx_HAL_Driver/Src/stm32u0xx_hal_adc.c ****                      ##### ADC peripheral features #####
  28:Drivers/STM32U0xx_HAL_Driver/Src/stm32u0xx_hal_adc.c ****   ==============================================================================
  29:Drivers/STM32U0xx_HAL_Driver/Src/stm32u0xx_hal_adc.c ****   [..]
  30:Drivers/STM32U0xx_HAL_Driver/Src/stm32u0xx_hal_adc.c ****   (+) 12-bit, 10-bit, 8-bit or 6-bit configurable resolution.
ARM GAS  C:\Users\upo\AppData\Local\Temp\ccaBY4hr.s 			page 2


  31:Drivers/STM32U0xx_HAL_Driver/Src/stm32u0xx_hal_adc.c **** 
  32:Drivers/STM32U0xx_HAL_Driver/Src/stm32u0xx_hal_adc.c ****   (+) Interrupt generation at the end of regular conversion and in case of
  33:Drivers/STM32U0xx_HAL_Driver/Src/stm32u0xx_hal_adc.c ****       analog watchdog or overrun events.
  34:Drivers/STM32U0xx_HAL_Driver/Src/stm32u0xx_hal_adc.c **** 
  35:Drivers/STM32U0xx_HAL_Driver/Src/stm32u0xx_hal_adc.c ****   (+) Single and continuous conversion modes.
  36:Drivers/STM32U0xx_HAL_Driver/Src/stm32u0xx_hal_adc.c **** 
  37:Drivers/STM32U0xx_HAL_Driver/Src/stm32u0xx_hal_adc.c ****   (+) Scan mode for conversion of several channels sequentially.
  38:Drivers/STM32U0xx_HAL_Driver/Src/stm32u0xx_hal_adc.c **** 
  39:Drivers/STM32U0xx_HAL_Driver/Src/stm32u0xx_hal_adc.c ****   (+) Data alignment with in-built data coherency.
  40:Drivers/STM32U0xx_HAL_Driver/Src/stm32u0xx_hal_adc.c **** 
  41:Drivers/STM32U0xx_HAL_Driver/Src/stm32u0xx_hal_adc.c ****   (+) Programmable sampling time (common to group of channels)
  42:Drivers/STM32U0xx_HAL_Driver/Src/stm32u0xx_hal_adc.c **** 
  43:Drivers/STM32U0xx_HAL_Driver/Src/stm32u0xx_hal_adc.c ****   (+) External trigger (timer or EXTI) with configurable polarity
  44:Drivers/STM32U0xx_HAL_Driver/Src/stm32u0xx_hal_adc.c **** 
  45:Drivers/STM32U0xx_HAL_Driver/Src/stm32u0xx_hal_adc.c ****   (+) DMA request generation for transfer of conversions data of regular group.
  46:Drivers/STM32U0xx_HAL_Driver/Src/stm32u0xx_hal_adc.c **** 
  47:Drivers/STM32U0xx_HAL_Driver/Src/stm32u0xx_hal_adc.c ****   (+) ADC calibration
  48:Drivers/STM32U0xx_HAL_Driver/Src/stm32u0xx_hal_adc.c **** 
  49:Drivers/STM32U0xx_HAL_Driver/Src/stm32u0xx_hal_adc.c ****   (+) ADC conversion of regular group.
  50:Drivers/STM32U0xx_HAL_Driver/Src/stm32u0xx_hal_adc.c **** 
  51:Drivers/STM32U0xx_HAL_Driver/Src/stm32u0xx_hal_adc.c ****   (+) ADC supply requirements: 1.62 V to 3.6 V.
  52:Drivers/STM32U0xx_HAL_Driver/Src/stm32u0xx_hal_adc.c **** 
  53:Drivers/STM32U0xx_HAL_Driver/Src/stm32u0xx_hal_adc.c ****   (+) ADC input range: from Vref- (connected to Vssa) to Vref+ (connected to
  54:Drivers/STM32U0xx_HAL_Driver/Src/stm32u0xx_hal_adc.c ****       Vdda or to an external voltage reference).
  55:Drivers/STM32U0xx_HAL_Driver/Src/stm32u0xx_hal_adc.c **** 
  56:Drivers/STM32U0xx_HAL_Driver/Src/stm32u0xx_hal_adc.c **** 
  57:Drivers/STM32U0xx_HAL_Driver/Src/stm32u0xx_hal_adc.c ****                      ##### How to use this driver #####
  58:Drivers/STM32U0xx_HAL_Driver/Src/stm32u0xx_hal_adc.c ****   ==============================================================================
  59:Drivers/STM32U0xx_HAL_Driver/Src/stm32u0xx_hal_adc.c ****     [..]
  60:Drivers/STM32U0xx_HAL_Driver/Src/stm32u0xx_hal_adc.c **** 
  61:Drivers/STM32U0xx_HAL_Driver/Src/stm32u0xx_hal_adc.c ****      *** Configuration of top level parameters related to ADC ***
  62:Drivers/STM32U0xx_HAL_Driver/Src/stm32u0xx_hal_adc.c ****      ============================================================
  63:Drivers/STM32U0xx_HAL_Driver/Src/stm32u0xx_hal_adc.c ****      [..]
  64:Drivers/STM32U0xx_HAL_Driver/Src/stm32u0xx_hal_adc.c **** 
  65:Drivers/STM32U0xx_HAL_Driver/Src/stm32u0xx_hal_adc.c ****     (#) Enable the ADC interface
  66:Drivers/STM32U0xx_HAL_Driver/Src/stm32u0xx_hal_adc.c ****         (++) As prerequisite, ADC clock must be configured at RCC top level.
  67:Drivers/STM32U0xx_HAL_Driver/Src/stm32u0xx_hal_adc.c ****              Caution: On this series, ADC clock frequency max is 35MHz (refer
  68:Drivers/STM32U0xx_HAL_Driver/Src/stm32u0xx_hal_adc.c ****                       to device datasheet).
  69:Drivers/STM32U0xx_HAL_Driver/Src/stm32u0xx_hal_adc.c ****                       Therefore, ADC clock source from RCC and ADC clock
  70:Drivers/STM32U0xx_HAL_Driver/Src/stm32u0xx_hal_adc.c ****                       prescaler must be configured to remain below
  71:Drivers/STM32U0xx_HAL_Driver/Src/stm32u0xx_hal_adc.c ****                       this maximum frequency.
  72:Drivers/STM32U0xx_HAL_Driver/Src/stm32u0xx_hal_adc.c **** 
  73:Drivers/STM32U0xx_HAL_Driver/Src/stm32u0xx_hal_adc.c ****         (++) Two clock settings are mandatory:
  74:Drivers/STM32U0xx_HAL_Driver/Src/stm32u0xx_hal_adc.c ****              (+++) ADC clock (core clock, also possibly conversion clock).
  75:Drivers/STM32U0xx_HAL_Driver/Src/stm32u0xx_hal_adc.c **** 
  76:Drivers/STM32U0xx_HAL_Driver/Src/stm32u0xx_hal_adc.c ****              (+++) ADC clock (conversions clock).
  77:Drivers/STM32U0xx_HAL_Driver/Src/stm32u0xx_hal_adc.c ****                    Four possible clock sources: synchronous clock from APB clock (same as ADC core 
  78:Drivers/STM32U0xx_HAL_Driver/Src/stm32u0xx_hal_adc.c ****                    or asynchronous clock from RCC level: SYSCLK, HSI16, PLLPCLK.
  79:Drivers/STM32U0xx_HAL_Driver/Src/stm32u0xx_hal_adc.c **** 
  80:Drivers/STM32U0xx_HAL_Driver/Src/stm32u0xx_hal_adc.c ****              (+++) Example:
  81:Drivers/STM32U0xx_HAL_Driver/Src/stm32u0xx_hal_adc.c ****                    Into HAL_ADC_MspInit() (recommended code location) or with
  82:Drivers/STM32U0xx_HAL_Driver/Src/stm32u0xx_hal_adc.c ****                    other device clock parameters configuration:
  83:Drivers/STM32U0xx_HAL_Driver/Src/stm32u0xx_hal_adc.c ****                (+++) __HAL_RCC_ADC_CLK_ENABLE();                  (mandatory: core clock)
  84:Drivers/STM32U0xx_HAL_Driver/Src/stm32u0xx_hal_adc.c ****                (+++) __HAL_RCC_ADC_CLK_ENABLE();                  (mandatory)
  85:Drivers/STM32U0xx_HAL_Driver/Src/stm32u0xx_hal_adc.c **** 
  86:Drivers/STM32U0xx_HAL_Driver/Src/stm32u0xx_hal_adc.c ****         (++) ADC clock source and clock prescaler are configured at ADC level with
  87:Drivers/STM32U0xx_HAL_Driver/Src/stm32u0xx_hal_adc.c ****              parameter "ClockPrescaler" using function HAL_ADC_Init().
ARM GAS  C:\Users\upo\AppData\Local\Temp\ccaBY4hr.s 			page 3


  88:Drivers/STM32U0xx_HAL_Driver/Src/stm32u0xx_hal_adc.c **** 
  89:Drivers/STM32U0xx_HAL_Driver/Src/stm32u0xx_hal_adc.c ****     (#) ADC pins configuration
  90:Drivers/STM32U0xx_HAL_Driver/Src/stm32u0xx_hal_adc.c ****          (++) Enable the clock for the ADC GPIOs
  91:Drivers/STM32U0xx_HAL_Driver/Src/stm32u0xx_hal_adc.c ****               using macro __HAL_RCC_GPIOx_CLK_ENABLE()
  92:Drivers/STM32U0xx_HAL_Driver/Src/stm32u0xx_hal_adc.c ****          (++) Configure these ADC pins in analog mode
  93:Drivers/STM32U0xx_HAL_Driver/Src/stm32u0xx_hal_adc.c ****               using function HAL_GPIO_Init()
  94:Drivers/STM32U0xx_HAL_Driver/Src/stm32u0xx_hal_adc.c **** 
  95:Drivers/STM32U0xx_HAL_Driver/Src/stm32u0xx_hal_adc.c ****     (#) Optionally, in case of usage of ADC with interruptions:
  96:Drivers/STM32U0xx_HAL_Driver/Src/stm32u0xx_hal_adc.c ****          (++) Configure the NVIC for ADC
  97:Drivers/STM32U0xx_HAL_Driver/Src/stm32u0xx_hal_adc.c ****               using function HAL_NVIC_EnableIRQ(ADCx_IRQn)
  98:Drivers/STM32U0xx_HAL_Driver/Src/stm32u0xx_hal_adc.c ****          (++) Insert the ADC interruption handler function HAL_ADC_IRQHandler()
  99:Drivers/STM32U0xx_HAL_Driver/Src/stm32u0xx_hal_adc.c ****               into the function of corresponding ADC interruption vector
 100:Drivers/STM32U0xx_HAL_Driver/Src/stm32u0xx_hal_adc.c ****               ADCx_IRQHandler().
 101:Drivers/STM32U0xx_HAL_Driver/Src/stm32u0xx_hal_adc.c **** 
 102:Drivers/STM32U0xx_HAL_Driver/Src/stm32u0xx_hal_adc.c ****     (#) Optionally, in case of usage of DMA:
 103:Drivers/STM32U0xx_HAL_Driver/Src/stm32u0xx_hal_adc.c ****          (++) Configure the DMA (DMA channel, mode normal or circular, ...)
 104:Drivers/STM32U0xx_HAL_Driver/Src/stm32u0xx_hal_adc.c ****               using function HAL_DMA_Init().
 105:Drivers/STM32U0xx_HAL_Driver/Src/stm32u0xx_hal_adc.c ****          (++) Configure the NVIC for DMA
 106:Drivers/STM32U0xx_HAL_Driver/Src/stm32u0xx_hal_adc.c ****               using function HAL_NVIC_EnableIRQ(DMAx_Channelx_IRQn)
 107:Drivers/STM32U0xx_HAL_Driver/Src/stm32u0xx_hal_adc.c ****          (++) Insert the ADC interruption handler function HAL_ADC_IRQHandler()
 108:Drivers/STM32U0xx_HAL_Driver/Src/stm32u0xx_hal_adc.c ****               into the function of corresponding DMA interruption vector
 109:Drivers/STM32U0xx_HAL_Driver/Src/stm32u0xx_hal_adc.c ****               DMAx_Channelx_IRQHandler().
 110:Drivers/STM32U0xx_HAL_Driver/Src/stm32u0xx_hal_adc.c **** 
 111:Drivers/STM32U0xx_HAL_Driver/Src/stm32u0xx_hal_adc.c ****      *** Configuration of ADC, group regular, channels parameters ***
 112:Drivers/STM32U0xx_HAL_Driver/Src/stm32u0xx_hal_adc.c ****      ================================================================
 113:Drivers/STM32U0xx_HAL_Driver/Src/stm32u0xx_hal_adc.c ****      [..]
 114:Drivers/STM32U0xx_HAL_Driver/Src/stm32u0xx_hal_adc.c **** 
 115:Drivers/STM32U0xx_HAL_Driver/Src/stm32u0xx_hal_adc.c ****     (#) Configure the ADC parameters (resolution, data alignment, ...)
 116:Drivers/STM32U0xx_HAL_Driver/Src/stm32u0xx_hal_adc.c ****         and regular group parameters (conversion trigger, sequencer, ...)
 117:Drivers/STM32U0xx_HAL_Driver/Src/stm32u0xx_hal_adc.c ****         using function HAL_ADC_Init().
 118:Drivers/STM32U0xx_HAL_Driver/Src/stm32u0xx_hal_adc.c **** 
 119:Drivers/STM32U0xx_HAL_Driver/Src/stm32u0xx_hal_adc.c ****     (#) Configure the channels for regular group parameters (channel number,
 120:Drivers/STM32U0xx_HAL_Driver/Src/stm32u0xx_hal_adc.c ****         channel rank into sequencer, ..., into regular group)
 121:Drivers/STM32U0xx_HAL_Driver/Src/stm32u0xx_hal_adc.c ****         using function HAL_ADC_ConfigChannel().
 122:Drivers/STM32U0xx_HAL_Driver/Src/stm32u0xx_hal_adc.c **** 
 123:Drivers/STM32U0xx_HAL_Driver/Src/stm32u0xx_hal_adc.c ****     (#) Optionally, configure the analog watchdog parameters (channels
 124:Drivers/STM32U0xx_HAL_Driver/Src/stm32u0xx_hal_adc.c ****         monitored, thresholds, ...)
 125:Drivers/STM32U0xx_HAL_Driver/Src/stm32u0xx_hal_adc.c ****         using function HAL_ADC_AnalogWDGConfig().
 126:Drivers/STM32U0xx_HAL_Driver/Src/stm32u0xx_hal_adc.c **** 
 127:Drivers/STM32U0xx_HAL_Driver/Src/stm32u0xx_hal_adc.c ****      *** Execution of ADC conversions ***
 128:Drivers/STM32U0xx_HAL_Driver/Src/stm32u0xx_hal_adc.c ****      ====================================
 129:Drivers/STM32U0xx_HAL_Driver/Src/stm32u0xx_hal_adc.c ****      [..]
 130:Drivers/STM32U0xx_HAL_Driver/Src/stm32u0xx_hal_adc.c **** 
 131:Drivers/STM32U0xx_HAL_Driver/Src/stm32u0xx_hal_adc.c ****     (#) Optionally, perform an automatic ADC calibration to improve the
 132:Drivers/STM32U0xx_HAL_Driver/Src/stm32u0xx_hal_adc.c ****         conversion accuracy
 133:Drivers/STM32U0xx_HAL_Driver/Src/stm32u0xx_hal_adc.c ****         using function HAL_ADCEx_Calibration_Start().
 134:Drivers/STM32U0xx_HAL_Driver/Src/stm32u0xx_hal_adc.c **** 
 135:Drivers/STM32U0xx_HAL_Driver/Src/stm32u0xx_hal_adc.c ****     (#) ADC driver can be used among three modes: polling, interruption,
 136:Drivers/STM32U0xx_HAL_Driver/Src/stm32u0xx_hal_adc.c ****         transfer by DMA.
 137:Drivers/STM32U0xx_HAL_Driver/Src/stm32u0xx_hal_adc.c **** 
 138:Drivers/STM32U0xx_HAL_Driver/Src/stm32u0xx_hal_adc.c ****         (++) ADC conversion by polling:
 139:Drivers/STM32U0xx_HAL_Driver/Src/stm32u0xx_hal_adc.c ****           (+++) Activate the ADC peripheral and start conversions
 140:Drivers/STM32U0xx_HAL_Driver/Src/stm32u0xx_hal_adc.c ****                 using function HAL_ADC_Start()
 141:Drivers/STM32U0xx_HAL_Driver/Src/stm32u0xx_hal_adc.c ****           (+++) Wait for ADC conversion completion
 142:Drivers/STM32U0xx_HAL_Driver/Src/stm32u0xx_hal_adc.c ****                 using function HAL_ADC_PollForConversion()
 143:Drivers/STM32U0xx_HAL_Driver/Src/stm32u0xx_hal_adc.c ****           (+++) Retrieve conversion results
 144:Drivers/STM32U0xx_HAL_Driver/Src/stm32u0xx_hal_adc.c ****                 using function HAL_ADC_GetValue()
ARM GAS  C:\Users\upo\AppData\Local\Temp\ccaBY4hr.s 			page 4


 145:Drivers/STM32U0xx_HAL_Driver/Src/stm32u0xx_hal_adc.c ****           (+++) Stop conversion and disable the ADC peripheral
 146:Drivers/STM32U0xx_HAL_Driver/Src/stm32u0xx_hal_adc.c ****                 using function HAL_ADC_Stop()
 147:Drivers/STM32U0xx_HAL_Driver/Src/stm32u0xx_hal_adc.c **** 
 148:Drivers/STM32U0xx_HAL_Driver/Src/stm32u0xx_hal_adc.c ****         (++) ADC conversion by interruption:
 149:Drivers/STM32U0xx_HAL_Driver/Src/stm32u0xx_hal_adc.c ****           (+++) Activate the ADC peripheral and start conversions
 150:Drivers/STM32U0xx_HAL_Driver/Src/stm32u0xx_hal_adc.c ****                 using function HAL_ADC_Start_IT()
 151:Drivers/STM32U0xx_HAL_Driver/Src/stm32u0xx_hal_adc.c ****           (+++) Wait for ADC conversion completion by call of function
 152:Drivers/STM32U0xx_HAL_Driver/Src/stm32u0xx_hal_adc.c ****                 HAL_ADC_ConvCpltCallback()
 153:Drivers/STM32U0xx_HAL_Driver/Src/stm32u0xx_hal_adc.c ****                 (this function must be implemented in user program)
 154:Drivers/STM32U0xx_HAL_Driver/Src/stm32u0xx_hal_adc.c ****           (+++) Retrieve conversion results
 155:Drivers/STM32U0xx_HAL_Driver/Src/stm32u0xx_hal_adc.c ****                 using function HAL_ADC_GetValue()
 156:Drivers/STM32U0xx_HAL_Driver/Src/stm32u0xx_hal_adc.c ****           (+++) Stop conversion and disable the ADC peripheral
 157:Drivers/STM32U0xx_HAL_Driver/Src/stm32u0xx_hal_adc.c ****                 using function HAL_ADC_Stop_IT()
 158:Drivers/STM32U0xx_HAL_Driver/Src/stm32u0xx_hal_adc.c **** 
 159:Drivers/STM32U0xx_HAL_Driver/Src/stm32u0xx_hal_adc.c ****         (++) ADC conversion with transfer by DMA:
 160:Drivers/STM32U0xx_HAL_Driver/Src/stm32u0xx_hal_adc.c ****           (+++) Activate the ADC peripheral and start conversions
 161:Drivers/STM32U0xx_HAL_Driver/Src/stm32u0xx_hal_adc.c ****                 using function HAL_ADC_Start_DMA()
 162:Drivers/STM32U0xx_HAL_Driver/Src/stm32u0xx_hal_adc.c ****           (+++) Wait for ADC conversion completion by call of function
 163:Drivers/STM32U0xx_HAL_Driver/Src/stm32u0xx_hal_adc.c ****                 HAL_ADC_ConvCpltCallback() or HAL_ADC_ConvHalfCpltCallback()
 164:Drivers/STM32U0xx_HAL_Driver/Src/stm32u0xx_hal_adc.c ****                 (these functions must be implemented in user program)
 165:Drivers/STM32U0xx_HAL_Driver/Src/stm32u0xx_hal_adc.c ****           (+++) Conversion results are automatically transferred by DMA into
 166:Drivers/STM32U0xx_HAL_Driver/Src/stm32u0xx_hal_adc.c ****                 destination variable address.
 167:Drivers/STM32U0xx_HAL_Driver/Src/stm32u0xx_hal_adc.c ****           (+++) Stop conversion and disable the ADC peripheral
 168:Drivers/STM32U0xx_HAL_Driver/Src/stm32u0xx_hal_adc.c ****                 using function HAL_ADC_Stop_DMA()
 169:Drivers/STM32U0xx_HAL_Driver/Src/stm32u0xx_hal_adc.c **** 
 170:Drivers/STM32U0xx_HAL_Driver/Src/stm32u0xx_hal_adc.c ****      [..]
 171:Drivers/STM32U0xx_HAL_Driver/Src/stm32u0xx_hal_adc.c **** 
 172:Drivers/STM32U0xx_HAL_Driver/Src/stm32u0xx_hal_adc.c ****     (@) Callback functions must be implemented in user program:
 173:Drivers/STM32U0xx_HAL_Driver/Src/stm32u0xx_hal_adc.c ****       (+@) HAL_ADC_ErrorCallback()
 174:Drivers/STM32U0xx_HAL_Driver/Src/stm32u0xx_hal_adc.c ****       (+@) HAL_ADC_LevelOutOfWindowCallback() (callback of analog watchdog)
 175:Drivers/STM32U0xx_HAL_Driver/Src/stm32u0xx_hal_adc.c ****       (+@) HAL_ADC_ConvCpltCallback()
 176:Drivers/STM32U0xx_HAL_Driver/Src/stm32u0xx_hal_adc.c ****       (+@) HAL_ADC_ConvHalfCpltCallback
 177:Drivers/STM32U0xx_HAL_Driver/Src/stm32u0xx_hal_adc.c **** 
 178:Drivers/STM32U0xx_HAL_Driver/Src/stm32u0xx_hal_adc.c ****      *** Deinitialization of ADC ***
 179:Drivers/STM32U0xx_HAL_Driver/Src/stm32u0xx_hal_adc.c ****      ============================================================
 180:Drivers/STM32U0xx_HAL_Driver/Src/stm32u0xx_hal_adc.c ****      [..]
 181:Drivers/STM32U0xx_HAL_Driver/Src/stm32u0xx_hal_adc.c **** 
 182:Drivers/STM32U0xx_HAL_Driver/Src/stm32u0xx_hal_adc.c ****     (#) Disable the ADC interface
 183:Drivers/STM32U0xx_HAL_Driver/Src/stm32u0xx_hal_adc.c ****       (++) ADC clock can be hard reset and disabled at RCC top level.
 184:Drivers/STM32U0xx_HAL_Driver/Src/stm32u0xx_hal_adc.c ****         (++) Hard reset of ADC peripherals
 185:Drivers/STM32U0xx_HAL_Driver/Src/stm32u0xx_hal_adc.c ****              using macro __ADCx_FORCE_RESET(), __ADCx_RELEASE_RESET().
 186:Drivers/STM32U0xx_HAL_Driver/Src/stm32u0xx_hal_adc.c ****         (++) ADC clock disable
 187:Drivers/STM32U0xx_HAL_Driver/Src/stm32u0xx_hal_adc.c ****              using the equivalent macro/functions as configuration step.
 188:Drivers/STM32U0xx_HAL_Driver/Src/stm32u0xx_hal_adc.c ****              (+++) Example:
 189:Drivers/STM32U0xx_HAL_Driver/Src/stm32u0xx_hal_adc.c ****                    Into HAL_ADC_MspDeInit() (recommended code location) or with
 190:Drivers/STM32U0xx_HAL_Driver/Src/stm32u0xx_hal_adc.c ****                    other device clock parameters configuration:
 191:Drivers/STM32U0xx_HAL_Driver/Src/stm32u0xx_hal_adc.c ****                (+++) RCC_OscInitStructure.OscillatorType = RCC_OSCILLATORTYPE_HSI14;
 192:Drivers/STM32U0xx_HAL_Driver/Src/stm32u0xx_hal_adc.c ****                (+++) RCC_OscInitStructure.HSI14State = RCC_HSI14_OFF; (if not used for system clock
 193:Drivers/STM32U0xx_HAL_Driver/Src/stm32u0xx_hal_adc.c ****                (+++) HAL_RCC_OscConfig(&RCC_OscInitStructure);
 194:Drivers/STM32U0xx_HAL_Driver/Src/stm32u0xx_hal_adc.c **** 
 195:Drivers/STM32U0xx_HAL_Driver/Src/stm32u0xx_hal_adc.c ****     (#) ADC pins configuration
 196:Drivers/STM32U0xx_HAL_Driver/Src/stm32u0xx_hal_adc.c ****          (++) Disable the clock for the ADC GPIOs
 197:Drivers/STM32U0xx_HAL_Driver/Src/stm32u0xx_hal_adc.c ****               using macro __HAL_RCC_GPIOx_CLK_DISABLE()
 198:Drivers/STM32U0xx_HAL_Driver/Src/stm32u0xx_hal_adc.c **** 
 199:Drivers/STM32U0xx_HAL_Driver/Src/stm32u0xx_hal_adc.c ****     (#) Optionally, in case of usage of ADC with interruptions:
 200:Drivers/STM32U0xx_HAL_Driver/Src/stm32u0xx_hal_adc.c ****          (++) Disable the NVIC for ADC
 201:Drivers/STM32U0xx_HAL_Driver/Src/stm32u0xx_hal_adc.c ****               using function HAL_NVIC_EnableIRQ(ADCx_IRQn)
ARM GAS  C:\Users\upo\AppData\Local\Temp\ccaBY4hr.s 			page 5


 202:Drivers/STM32U0xx_HAL_Driver/Src/stm32u0xx_hal_adc.c **** 
 203:Drivers/STM32U0xx_HAL_Driver/Src/stm32u0xx_hal_adc.c ****     (#) Optionally, in case of usage of DMA:
 204:Drivers/STM32U0xx_HAL_Driver/Src/stm32u0xx_hal_adc.c ****          (++) Deinitialize the DMA
 205:Drivers/STM32U0xx_HAL_Driver/Src/stm32u0xx_hal_adc.c ****               using function HAL_DMA_Init().
 206:Drivers/STM32U0xx_HAL_Driver/Src/stm32u0xx_hal_adc.c ****          (++) Disable the NVIC for DMA
 207:Drivers/STM32U0xx_HAL_Driver/Src/stm32u0xx_hal_adc.c ****               using function HAL_NVIC_EnableIRQ(DMAx_Channelx_IRQn)
 208:Drivers/STM32U0xx_HAL_Driver/Src/stm32u0xx_hal_adc.c **** 
 209:Drivers/STM32U0xx_HAL_Driver/Src/stm32u0xx_hal_adc.c ****     [..]
 210:Drivers/STM32U0xx_HAL_Driver/Src/stm32u0xx_hal_adc.c **** 
 211:Drivers/STM32U0xx_HAL_Driver/Src/stm32u0xx_hal_adc.c ****     *** Callback registration ***
 212:Drivers/STM32U0xx_HAL_Driver/Src/stm32u0xx_hal_adc.c ****     =============================================
 213:Drivers/STM32U0xx_HAL_Driver/Src/stm32u0xx_hal_adc.c ****     [..]
 214:Drivers/STM32U0xx_HAL_Driver/Src/stm32u0xx_hal_adc.c **** 
 215:Drivers/STM32U0xx_HAL_Driver/Src/stm32u0xx_hal_adc.c ****      The compilation flag USE_HAL_ADC_REGISTER_CALLBACKS, when set to 1,
 216:Drivers/STM32U0xx_HAL_Driver/Src/stm32u0xx_hal_adc.c ****      allows the user to configure dynamically the driver callbacks.
 217:Drivers/STM32U0xx_HAL_Driver/Src/stm32u0xx_hal_adc.c ****      Use Functions HAL_ADC_RegisterCallback()
 218:Drivers/STM32U0xx_HAL_Driver/Src/stm32u0xx_hal_adc.c ****      to register an interrupt callback.
 219:Drivers/STM32U0xx_HAL_Driver/Src/stm32u0xx_hal_adc.c ****     [..]
 220:Drivers/STM32U0xx_HAL_Driver/Src/stm32u0xx_hal_adc.c **** 
 221:Drivers/STM32U0xx_HAL_Driver/Src/stm32u0xx_hal_adc.c ****      Function HAL_ADC_RegisterCallback() allows to register following callbacks:
 222:Drivers/STM32U0xx_HAL_Driver/Src/stm32u0xx_hal_adc.c ****        (+) ConvCpltCallback               : ADC conversion complete callback
 223:Drivers/STM32U0xx_HAL_Driver/Src/stm32u0xx_hal_adc.c ****        (+) ConvHalfCpltCallback           : ADC conversion DMA half-transfer callback
 224:Drivers/STM32U0xx_HAL_Driver/Src/stm32u0xx_hal_adc.c ****        (+) LevelOutOfWindowCallback       : ADC analog watchdog 1 callback
 225:Drivers/STM32U0xx_HAL_Driver/Src/stm32u0xx_hal_adc.c ****        (+) ErrorCallback                  : ADC error callback
 226:Drivers/STM32U0xx_HAL_Driver/Src/stm32u0xx_hal_adc.c ****        (+) LevelOutOfWindow2Callback      : ADC analog watchdog 2 callback
 227:Drivers/STM32U0xx_HAL_Driver/Src/stm32u0xx_hal_adc.c ****        (+) LevelOutOfWindow3Callback      : ADC analog watchdog 3 callback
 228:Drivers/STM32U0xx_HAL_Driver/Src/stm32u0xx_hal_adc.c ****        (+) EndOfSamplingCallback          : ADC end of sampling callback
 229:Drivers/STM32U0xx_HAL_Driver/Src/stm32u0xx_hal_adc.c ****        (+) MspInitCallback                : ADC Msp Init callback
 230:Drivers/STM32U0xx_HAL_Driver/Src/stm32u0xx_hal_adc.c ****        (+) MspDeInitCallback              : ADC Msp DeInit callback
 231:Drivers/STM32U0xx_HAL_Driver/Src/stm32u0xx_hal_adc.c ****      This function takes as parameters the HAL peripheral handle, the Callback ID
 232:Drivers/STM32U0xx_HAL_Driver/Src/stm32u0xx_hal_adc.c ****      and a pointer to the user callback function.
 233:Drivers/STM32U0xx_HAL_Driver/Src/stm32u0xx_hal_adc.c ****     [..]
 234:Drivers/STM32U0xx_HAL_Driver/Src/stm32u0xx_hal_adc.c **** 
 235:Drivers/STM32U0xx_HAL_Driver/Src/stm32u0xx_hal_adc.c ****      Use function HAL_ADC_UnRegisterCallback to reset a callback to the default
 236:Drivers/STM32U0xx_HAL_Driver/Src/stm32u0xx_hal_adc.c ****      weak function.
 237:Drivers/STM32U0xx_HAL_Driver/Src/stm32u0xx_hal_adc.c ****     [..]
 238:Drivers/STM32U0xx_HAL_Driver/Src/stm32u0xx_hal_adc.c **** 
 239:Drivers/STM32U0xx_HAL_Driver/Src/stm32u0xx_hal_adc.c ****      HAL_ADC_UnRegisterCallback takes as parameters the HAL peripheral handle,
 240:Drivers/STM32U0xx_HAL_Driver/Src/stm32u0xx_hal_adc.c ****      and the Callback ID.
 241:Drivers/STM32U0xx_HAL_Driver/Src/stm32u0xx_hal_adc.c ****      This function allows to reset following callbacks:
 242:Drivers/STM32U0xx_HAL_Driver/Src/stm32u0xx_hal_adc.c ****        (+) ConvCpltCallback               : ADC conversion complete callback
 243:Drivers/STM32U0xx_HAL_Driver/Src/stm32u0xx_hal_adc.c ****        (+) ConvHalfCpltCallback           : ADC conversion DMA half-transfer callback
 244:Drivers/STM32U0xx_HAL_Driver/Src/stm32u0xx_hal_adc.c ****        (+) LevelOutOfWindowCallback       : ADC analog watchdog 1 callback
 245:Drivers/STM32U0xx_HAL_Driver/Src/stm32u0xx_hal_adc.c ****        (+) ErrorCallback                  : ADC error callback
 246:Drivers/STM32U0xx_HAL_Driver/Src/stm32u0xx_hal_adc.c ****        (+) LevelOutOfWindow2Callback      : ADC analog watchdog 2 callback
 247:Drivers/STM32U0xx_HAL_Driver/Src/stm32u0xx_hal_adc.c ****        (+) LevelOutOfWindow3Callback      : ADC analog watchdog 3 callback
 248:Drivers/STM32U0xx_HAL_Driver/Src/stm32u0xx_hal_adc.c ****        (+) EndOfSamplingCallback          : ADC end of sampling callback
 249:Drivers/STM32U0xx_HAL_Driver/Src/stm32u0xx_hal_adc.c ****        (+) MspInitCallback                : ADC Msp Init callback
 250:Drivers/STM32U0xx_HAL_Driver/Src/stm32u0xx_hal_adc.c ****        (+) MspDeInitCallback              : ADC Msp DeInit callback
 251:Drivers/STM32U0xx_HAL_Driver/Src/stm32u0xx_hal_adc.c ****      [..]
 252:Drivers/STM32U0xx_HAL_Driver/Src/stm32u0xx_hal_adc.c **** 
 253:Drivers/STM32U0xx_HAL_Driver/Src/stm32u0xx_hal_adc.c ****      By default, after the HAL_ADC_Init() and when the state is HAL_ADC_STATE_RESET
 254:Drivers/STM32U0xx_HAL_Driver/Src/stm32u0xx_hal_adc.c ****      all callbacks are set to the corresponding weak functions:
 255:Drivers/STM32U0xx_HAL_Driver/Src/stm32u0xx_hal_adc.c ****      examples HAL_ADC_ConvCpltCallback(), HAL_ADC_ErrorCallback().
 256:Drivers/STM32U0xx_HAL_Driver/Src/stm32u0xx_hal_adc.c ****      Exception done for MspInit and MspDeInit functions that are
 257:Drivers/STM32U0xx_HAL_Driver/Src/stm32u0xx_hal_adc.c ****      reset to the legacy weak functions in the HAL_ADC_Init()/ HAL_ADC_DeInit() only when
 258:Drivers/STM32U0xx_HAL_Driver/Src/stm32u0xx_hal_adc.c ****      these callbacks are null (not registered beforehand).
ARM GAS  C:\Users\upo\AppData\Local\Temp\ccaBY4hr.s 			page 6


 259:Drivers/STM32U0xx_HAL_Driver/Src/stm32u0xx_hal_adc.c ****     [..]
 260:Drivers/STM32U0xx_HAL_Driver/Src/stm32u0xx_hal_adc.c **** 
 261:Drivers/STM32U0xx_HAL_Driver/Src/stm32u0xx_hal_adc.c ****      If MspInit or MspDeInit are not null, the HAL_ADC_Init()/ HAL_ADC_DeInit()
 262:Drivers/STM32U0xx_HAL_Driver/Src/stm32u0xx_hal_adc.c ****      keep and use the user MspInit/MspDeInit callbacks (registered beforehand) whatever the state.
 263:Drivers/STM32U0xx_HAL_Driver/Src/stm32u0xx_hal_adc.c ****      [..]
 264:Drivers/STM32U0xx_HAL_Driver/Src/stm32u0xx_hal_adc.c **** 
 265:Drivers/STM32U0xx_HAL_Driver/Src/stm32u0xx_hal_adc.c ****      Callbacks can be registered/unregistered in HAL_ADC_STATE_READY state only.
 266:Drivers/STM32U0xx_HAL_Driver/Src/stm32u0xx_hal_adc.c ****      Exception done MspInit/MspDeInit functions that can be registered/unregistered
 267:Drivers/STM32U0xx_HAL_Driver/Src/stm32u0xx_hal_adc.c ****      in HAL_ADC_STATE_READY or HAL_ADC_STATE_RESET state,
 268:Drivers/STM32U0xx_HAL_Driver/Src/stm32u0xx_hal_adc.c ****      thus registered (user) MspInit/DeInit callbacks can be used during the Init/DeInit.
 269:Drivers/STM32U0xx_HAL_Driver/Src/stm32u0xx_hal_adc.c ****     [..]
 270:Drivers/STM32U0xx_HAL_Driver/Src/stm32u0xx_hal_adc.c **** 
 271:Drivers/STM32U0xx_HAL_Driver/Src/stm32u0xx_hal_adc.c ****      Then, the user first registers the MspInit/MspDeInit user callbacks
 272:Drivers/STM32U0xx_HAL_Driver/Src/stm32u0xx_hal_adc.c ****      using HAL_ADC_RegisterCallback() before calling HAL_ADC_DeInit()
 273:Drivers/STM32U0xx_HAL_Driver/Src/stm32u0xx_hal_adc.c ****      or HAL_ADC_Init() function.
 274:Drivers/STM32U0xx_HAL_Driver/Src/stm32u0xx_hal_adc.c ****      [..]
 275:Drivers/STM32U0xx_HAL_Driver/Src/stm32u0xx_hal_adc.c **** 
 276:Drivers/STM32U0xx_HAL_Driver/Src/stm32u0xx_hal_adc.c ****      When the compilation flag USE_HAL_ADC_REGISTER_CALLBACKS is set to 0 or
 277:Drivers/STM32U0xx_HAL_Driver/Src/stm32u0xx_hal_adc.c ****      not defined, the callback registration feature is not available and all callbacks
 278:Drivers/STM32U0xx_HAL_Driver/Src/stm32u0xx_hal_adc.c ****      are set to the corresponding weak functions.
 279:Drivers/STM32U0xx_HAL_Driver/Src/stm32u0xx_hal_adc.c **** 
 280:Drivers/STM32U0xx_HAL_Driver/Src/stm32u0xx_hal_adc.c ****   @endverbatim
 281:Drivers/STM32U0xx_HAL_Driver/Src/stm32u0xx_hal_adc.c ****   ******************************************************************************
 282:Drivers/STM32U0xx_HAL_Driver/Src/stm32u0xx_hal_adc.c ****   */
 283:Drivers/STM32U0xx_HAL_Driver/Src/stm32u0xx_hal_adc.c **** 
 284:Drivers/STM32U0xx_HAL_Driver/Src/stm32u0xx_hal_adc.c **** /* Includes ------------------------------------------------------------------*/
 285:Drivers/STM32U0xx_HAL_Driver/Src/stm32u0xx_hal_adc.c **** #include "stm32u0xx_hal.h"
 286:Drivers/STM32U0xx_HAL_Driver/Src/stm32u0xx_hal_adc.c **** 
 287:Drivers/STM32U0xx_HAL_Driver/Src/stm32u0xx_hal_adc.c **** /** @addtogroup STM32U0xx_HAL_Driver
 288:Drivers/STM32U0xx_HAL_Driver/Src/stm32u0xx_hal_adc.c ****   * @{
 289:Drivers/STM32U0xx_HAL_Driver/Src/stm32u0xx_hal_adc.c ****   */
 290:Drivers/STM32U0xx_HAL_Driver/Src/stm32u0xx_hal_adc.c **** 
 291:Drivers/STM32U0xx_HAL_Driver/Src/stm32u0xx_hal_adc.c **** /** @defgroup ADC ADC
 292:Drivers/STM32U0xx_HAL_Driver/Src/stm32u0xx_hal_adc.c ****   * @brief ADC HAL module driver
 293:Drivers/STM32U0xx_HAL_Driver/Src/stm32u0xx_hal_adc.c ****   * @{
 294:Drivers/STM32U0xx_HAL_Driver/Src/stm32u0xx_hal_adc.c ****   */
 295:Drivers/STM32U0xx_HAL_Driver/Src/stm32u0xx_hal_adc.c **** 
 296:Drivers/STM32U0xx_HAL_Driver/Src/stm32u0xx_hal_adc.c **** #ifdef HAL_ADC_MODULE_ENABLED
 297:Drivers/STM32U0xx_HAL_Driver/Src/stm32u0xx_hal_adc.c **** 
 298:Drivers/STM32U0xx_HAL_Driver/Src/stm32u0xx_hal_adc.c **** /* Private typedef -----------------------------------------------------------*/
 299:Drivers/STM32U0xx_HAL_Driver/Src/stm32u0xx_hal_adc.c **** /* Private define ------------------------------------------------------------*/
 300:Drivers/STM32U0xx_HAL_Driver/Src/stm32u0xx_hal_adc.c **** 
 301:Drivers/STM32U0xx_HAL_Driver/Src/stm32u0xx_hal_adc.c **** /** @defgroup ADC_Private_Constants ADC Private Constants
 302:Drivers/STM32U0xx_HAL_Driver/Src/stm32u0xx_hal_adc.c ****   * @{
 303:Drivers/STM32U0xx_HAL_Driver/Src/stm32u0xx_hal_adc.c ****   */
 304:Drivers/STM32U0xx_HAL_Driver/Src/stm32u0xx_hal_adc.c **** 
 305:Drivers/STM32U0xx_HAL_Driver/Src/stm32u0xx_hal_adc.c **** /* Fixed timeout values for ADC calibration, enable settling time, disable  */
 306:Drivers/STM32U0xx_HAL_Driver/Src/stm32u0xx_hal_adc.c **** /* settling time.                                                           */
 307:Drivers/STM32U0xx_HAL_Driver/Src/stm32u0xx_hal_adc.c **** /* Values defined to be higher than worst cases: low clock frequency,       */
 308:Drivers/STM32U0xx_HAL_Driver/Src/stm32u0xx_hal_adc.c **** /* maximum prescaler.                                                       */
 309:Drivers/STM32U0xx_HAL_Driver/Src/stm32u0xx_hal_adc.c **** /* Ex of profile low frequency : Clock source at 0.1 MHz, ADC clock         */
 310:Drivers/STM32U0xx_HAL_Driver/Src/stm32u0xx_hal_adc.c **** /* prescaler 4, sampling time 7.5 ADC clock cycles, resolution 12 bits.     */
 311:Drivers/STM32U0xx_HAL_Driver/Src/stm32u0xx_hal_adc.c **** /* Unit: ms                                                                 */
 312:Drivers/STM32U0xx_HAL_Driver/Src/stm32u0xx_hal_adc.c **** #define ADC_ENABLE_TIMEOUT              (2UL)
 313:Drivers/STM32U0xx_HAL_Driver/Src/stm32u0xx_hal_adc.c **** #define ADC_DISABLE_TIMEOUT             (2UL)
 314:Drivers/STM32U0xx_HAL_Driver/Src/stm32u0xx_hal_adc.c **** #define ADC_STOP_CONVERSION_TIMEOUT     (2UL)
 315:Drivers/STM32U0xx_HAL_Driver/Src/stm32u0xx_hal_adc.c **** #define ADC_CHANNEL_CONF_RDY_TIMEOUT    (1UL)
ARM GAS  C:\Users\upo\AppData\Local\Temp\ccaBY4hr.s 			page 7


 316:Drivers/STM32U0xx_HAL_Driver/Src/stm32u0xx_hal_adc.c **** 
 317:Drivers/STM32U0xx_HAL_Driver/Src/stm32u0xx_hal_adc.c **** /* Register CHSELR bits corresponding to ranks 2 to 8 .                     */
 318:Drivers/STM32U0xx_HAL_Driver/Src/stm32u0xx_hal_adc.c **** #define ADC_CHSELR_SQ2_TO_SQ8           (ADC_CHSELR_SQ2 | ADC_CHSELR_SQ3 | ADC_CHSELR_SQ4 | \
 319:Drivers/STM32U0xx_HAL_Driver/Src/stm32u0xx_hal_adc.c ****                                          ADC_CHSELR_SQ5 | ADC_CHSELR_SQ6 | ADC_CHSELR_SQ7 | ADC_CHS
 320:Drivers/STM32U0xx_HAL_Driver/Src/stm32u0xx_hal_adc.c **** 
 321:Drivers/STM32U0xx_HAL_Driver/Src/stm32u0xx_hal_adc.c **** /**
 322:Drivers/STM32U0xx_HAL_Driver/Src/stm32u0xx_hal_adc.c ****   * @}
 323:Drivers/STM32U0xx_HAL_Driver/Src/stm32u0xx_hal_adc.c ****   */
 324:Drivers/STM32U0xx_HAL_Driver/Src/stm32u0xx_hal_adc.c **** 
 325:Drivers/STM32U0xx_HAL_Driver/Src/stm32u0xx_hal_adc.c **** /* Private macro -------------------------------------------------------------*/
 326:Drivers/STM32U0xx_HAL_Driver/Src/stm32u0xx_hal_adc.c **** /* Private variables ---------------------------------------------------------*/
 327:Drivers/STM32U0xx_HAL_Driver/Src/stm32u0xx_hal_adc.c **** /* Private function prototypes -----------------------------------------------*/
 328:Drivers/STM32U0xx_HAL_Driver/Src/stm32u0xx_hal_adc.c **** /** @defgroup ADC_Private_Functions ADC Private Functions
 329:Drivers/STM32U0xx_HAL_Driver/Src/stm32u0xx_hal_adc.c ****   * @{
 330:Drivers/STM32U0xx_HAL_Driver/Src/stm32u0xx_hal_adc.c ****   */
 331:Drivers/STM32U0xx_HAL_Driver/Src/stm32u0xx_hal_adc.c **** static void ADC_DMAConvCplt(DMA_HandleTypeDef *hdma);
 332:Drivers/STM32U0xx_HAL_Driver/Src/stm32u0xx_hal_adc.c **** static void ADC_DMAHalfConvCplt(DMA_HandleTypeDef *hdma);
 333:Drivers/STM32U0xx_HAL_Driver/Src/stm32u0xx_hal_adc.c **** static void ADC_DMAError(DMA_HandleTypeDef *hdma);
 334:Drivers/STM32U0xx_HAL_Driver/Src/stm32u0xx_hal_adc.c **** /**
 335:Drivers/STM32U0xx_HAL_Driver/Src/stm32u0xx_hal_adc.c ****   * @}
 336:Drivers/STM32U0xx_HAL_Driver/Src/stm32u0xx_hal_adc.c ****   */
 337:Drivers/STM32U0xx_HAL_Driver/Src/stm32u0xx_hal_adc.c **** 
 338:Drivers/STM32U0xx_HAL_Driver/Src/stm32u0xx_hal_adc.c **** /* Exported functions ---------------------------------------------------------*/
 339:Drivers/STM32U0xx_HAL_Driver/Src/stm32u0xx_hal_adc.c **** 
 340:Drivers/STM32U0xx_HAL_Driver/Src/stm32u0xx_hal_adc.c **** /** @defgroup ADC_Exported_Functions ADC Exported Functions
 341:Drivers/STM32U0xx_HAL_Driver/Src/stm32u0xx_hal_adc.c ****   * @{
 342:Drivers/STM32U0xx_HAL_Driver/Src/stm32u0xx_hal_adc.c ****   */
 343:Drivers/STM32U0xx_HAL_Driver/Src/stm32u0xx_hal_adc.c **** 
 344:Drivers/STM32U0xx_HAL_Driver/Src/stm32u0xx_hal_adc.c **** /** @defgroup ADC_Exported_Functions_Group1 Initialization and de-initialization functions
 345:Drivers/STM32U0xx_HAL_Driver/Src/stm32u0xx_hal_adc.c ****   * @brief    ADC Initialization and Configuration functions
 346:Drivers/STM32U0xx_HAL_Driver/Src/stm32u0xx_hal_adc.c ****   *
 347:Drivers/STM32U0xx_HAL_Driver/Src/stm32u0xx_hal_adc.c **** @verbatim
 348:Drivers/STM32U0xx_HAL_Driver/Src/stm32u0xx_hal_adc.c ****  ===============================================================================
 349:Drivers/STM32U0xx_HAL_Driver/Src/stm32u0xx_hal_adc.c ****               ##### Initialization and de-initialization functions #####
 350:Drivers/STM32U0xx_HAL_Driver/Src/stm32u0xx_hal_adc.c ****  ===============================================================================
 351:Drivers/STM32U0xx_HAL_Driver/Src/stm32u0xx_hal_adc.c ****     [..]  This section provides functions allowing to:
 352:Drivers/STM32U0xx_HAL_Driver/Src/stm32u0xx_hal_adc.c ****       (+) Initialize and configure the ADC.
 353:Drivers/STM32U0xx_HAL_Driver/Src/stm32u0xx_hal_adc.c ****       (+) De-initialize the ADC.
 354:Drivers/STM32U0xx_HAL_Driver/Src/stm32u0xx_hal_adc.c **** @endverbatim
 355:Drivers/STM32U0xx_HAL_Driver/Src/stm32u0xx_hal_adc.c ****   * @{
 356:Drivers/STM32U0xx_HAL_Driver/Src/stm32u0xx_hal_adc.c ****   */
 357:Drivers/STM32U0xx_HAL_Driver/Src/stm32u0xx_hal_adc.c **** 
 358:Drivers/STM32U0xx_HAL_Driver/Src/stm32u0xx_hal_adc.c **** /**
 359:Drivers/STM32U0xx_HAL_Driver/Src/stm32u0xx_hal_adc.c ****   * @brief  Initialize the ADC peripheral and regular group according to
 360:Drivers/STM32U0xx_HAL_Driver/Src/stm32u0xx_hal_adc.c ****   *         parameters specified in structure "ADC_InitTypeDef".
 361:Drivers/STM32U0xx_HAL_Driver/Src/stm32u0xx_hal_adc.c ****   * @note   As prerequisite, ADC clock must be configured at RCC top level
 362:Drivers/STM32U0xx_HAL_Driver/Src/stm32u0xx_hal_adc.c ****   *         (refer to description of RCC configuration for ADC
 363:Drivers/STM32U0xx_HAL_Driver/Src/stm32u0xx_hal_adc.c ****   *         in header of this file).
 364:Drivers/STM32U0xx_HAL_Driver/Src/stm32u0xx_hal_adc.c ****   * @note   Possibility to update parameters on the fly:
 365:Drivers/STM32U0xx_HAL_Driver/Src/stm32u0xx_hal_adc.c ****   *         This function initializes the ADC MSP (HAL_ADC_MspInit()) only when
 366:Drivers/STM32U0xx_HAL_Driver/Src/stm32u0xx_hal_adc.c ****   *         coming from ADC state reset. Following calls to this function can
 367:Drivers/STM32U0xx_HAL_Driver/Src/stm32u0xx_hal_adc.c ****   *         be used to reconfigure some parameters of ADC_InitTypeDef
 368:Drivers/STM32U0xx_HAL_Driver/Src/stm32u0xx_hal_adc.c ****   *         structure on the fly, without modifying MSP configuration. If ADC
 369:Drivers/STM32U0xx_HAL_Driver/Src/stm32u0xx_hal_adc.c ****   *         MSP has to be modified again, HAL_ADC_DeInit() must be called
 370:Drivers/STM32U0xx_HAL_Driver/Src/stm32u0xx_hal_adc.c ****   *         before HAL_ADC_Init().
 371:Drivers/STM32U0xx_HAL_Driver/Src/stm32u0xx_hal_adc.c ****   *         The setting of these parameters is conditioned to ADC state.
 372:Drivers/STM32U0xx_HAL_Driver/Src/stm32u0xx_hal_adc.c ****   *         For parameters constraints, see comments of structure
ARM GAS  C:\Users\upo\AppData\Local\Temp\ccaBY4hr.s 			page 8


 373:Drivers/STM32U0xx_HAL_Driver/Src/stm32u0xx_hal_adc.c ****   *         "ADC_InitTypeDef".
 374:Drivers/STM32U0xx_HAL_Driver/Src/stm32u0xx_hal_adc.c ****   * @note   This function configures the ADC within 2 scopes: scope of entire
 375:Drivers/STM32U0xx_HAL_Driver/Src/stm32u0xx_hal_adc.c ****   *         ADC and scope of regular group. For parameters details, see comments
 376:Drivers/STM32U0xx_HAL_Driver/Src/stm32u0xx_hal_adc.c ****   *         of structure "ADC_InitTypeDef".
 377:Drivers/STM32U0xx_HAL_Driver/Src/stm32u0xx_hal_adc.c ****   * @param hadc ADC handle
 378:Drivers/STM32U0xx_HAL_Driver/Src/stm32u0xx_hal_adc.c ****   * @retval HAL status
 379:Drivers/STM32U0xx_HAL_Driver/Src/stm32u0xx_hal_adc.c ****   */
 380:Drivers/STM32U0xx_HAL_Driver/Src/stm32u0xx_hal_adc.c **** HAL_StatusTypeDef HAL_ADC_Init(ADC_HandleTypeDef *hadc)
 381:Drivers/STM32U0xx_HAL_Driver/Src/stm32u0xx_hal_adc.c **** {
 382:Drivers/STM32U0xx_HAL_Driver/Src/stm32u0xx_hal_adc.c ****   HAL_StatusTypeDef tmp_hal_status = HAL_OK;
 383:Drivers/STM32U0xx_HAL_Driver/Src/stm32u0xx_hal_adc.c ****   uint32_t tmp_cfgr1 = 0UL;
 384:Drivers/STM32U0xx_HAL_Driver/Src/stm32u0xx_hal_adc.c ****   uint32_t tmp_cfgr2 = 0UL;
 385:Drivers/STM32U0xx_HAL_Driver/Src/stm32u0xx_hal_adc.c ****   uint32_t tmp_adc_reg_is_conversion_on_going;
 386:Drivers/STM32U0xx_HAL_Driver/Src/stm32u0xx_hal_adc.c ****   __IO uint32_t wait_loop_index = 0UL;
 387:Drivers/STM32U0xx_HAL_Driver/Src/stm32u0xx_hal_adc.c **** 
 388:Drivers/STM32U0xx_HAL_Driver/Src/stm32u0xx_hal_adc.c ****   /* Check ADC handle */
 389:Drivers/STM32U0xx_HAL_Driver/Src/stm32u0xx_hal_adc.c ****   if (hadc == NULL)
 390:Drivers/STM32U0xx_HAL_Driver/Src/stm32u0xx_hal_adc.c ****   {
 391:Drivers/STM32U0xx_HAL_Driver/Src/stm32u0xx_hal_adc.c ****     return HAL_ERROR;
 392:Drivers/STM32U0xx_HAL_Driver/Src/stm32u0xx_hal_adc.c ****   }
 393:Drivers/STM32U0xx_HAL_Driver/Src/stm32u0xx_hal_adc.c **** 
 394:Drivers/STM32U0xx_HAL_Driver/Src/stm32u0xx_hal_adc.c ****   /* Check the parameters */
 395:Drivers/STM32U0xx_HAL_Driver/Src/stm32u0xx_hal_adc.c ****   assert_param(IS_ADC_ALL_INSTANCE(hadc->Instance));
 396:Drivers/STM32U0xx_HAL_Driver/Src/stm32u0xx_hal_adc.c ****   assert_param(IS_ADC_CLOCKPRESCALER(hadc->Init.ClockPrescaler));
 397:Drivers/STM32U0xx_HAL_Driver/Src/stm32u0xx_hal_adc.c ****   assert_param(IS_ADC_RESOLUTION(hadc->Init.Resolution));
 398:Drivers/STM32U0xx_HAL_Driver/Src/stm32u0xx_hal_adc.c ****   assert_param(IS_ADC_DATA_ALIGN(hadc->Init.DataAlign));
 399:Drivers/STM32U0xx_HAL_Driver/Src/stm32u0xx_hal_adc.c ****   assert_param(IS_ADC_SCAN_MODE(hadc->Init.ScanConvMode));
 400:Drivers/STM32U0xx_HAL_Driver/Src/stm32u0xx_hal_adc.c ****   assert_param(IS_FUNCTIONAL_STATE(hadc->Init.ContinuousConvMode));
 401:Drivers/STM32U0xx_HAL_Driver/Src/stm32u0xx_hal_adc.c ****   assert_param(IS_ADC_EXTTRIG_EDGE(hadc->Init.ExternalTrigConvEdge));
 402:Drivers/STM32U0xx_HAL_Driver/Src/stm32u0xx_hal_adc.c ****   assert_param(IS_ADC_EXTTRIG(hadc->Init.ExternalTrigConv));
 403:Drivers/STM32U0xx_HAL_Driver/Src/stm32u0xx_hal_adc.c ****   assert_param(IS_FUNCTIONAL_STATE(hadc->Init.DMAContinuousRequests));
 404:Drivers/STM32U0xx_HAL_Driver/Src/stm32u0xx_hal_adc.c ****   assert_param(IS_ADC_EOC_SELECTION(hadc->Init.EOCSelection));
 405:Drivers/STM32U0xx_HAL_Driver/Src/stm32u0xx_hal_adc.c ****   assert_param(IS_ADC_OVERRUN(hadc->Init.Overrun));
 406:Drivers/STM32U0xx_HAL_Driver/Src/stm32u0xx_hal_adc.c ****   assert_param(IS_FUNCTIONAL_STATE(hadc->Init.LowPowerAutoWait));
 407:Drivers/STM32U0xx_HAL_Driver/Src/stm32u0xx_hal_adc.c ****   assert_param(IS_FUNCTIONAL_STATE(hadc->Init.LowPowerAutoPowerOff));
 408:Drivers/STM32U0xx_HAL_Driver/Src/stm32u0xx_hal_adc.c ****   assert_param(IS_ADC_SAMPLE_TIME(hadc->Init.SamplingTimeCommon1));
 409:Drivers/STM32U0xx_HAL_Driver/Src/stm32u0xx_hal_adc.c ****   assert_param(IS_ADC_SAMPLE_TIME(hadc->Init.SamplingTimeCommon2));
 410:Drivers/STM32U0xx_HAL_Driver/Src/stm32u0xx_hal_adc.c ****   assert_param(IS_FUNCTIONAL_STATE(hadc->Init.OversamplingMode));
 411:Drivers/STM32U0xx_HAL_Driver/Src/stm32u0xx_hal_adc.c ****   if (hadc->Init.OversamplingMode == ENABLE)
 412:Drivers/STM32U0xx_HAL_Driver/Src/stm32u0xx_hal_adc.c ****   {
 413:Drivers/STM32U0xx_HAL_Driver/Src/stm32u0xx_hal_adc.c ****     assert_param(IS_ADC_OVERSAMPLING_RATIO(hadc->Init.Oversampling.Ratio));
 414:Drivers/STM32U0xx_HAL_Driver/Src/stm32u0xx_hal_adc.c ****     assert_param(IS_ADC_RIGHT_BIT_SHIFT(hadc->Init.Oversampling.RightBitShift));
 415:Drivers/STM32U0xx_HAL_Driver/Src/stm32u0xx_hal_adc.c ****     assert_param(IS_ADC_TRIGGERED_OVERSAMPLING_MODE(hadc->Init.Oversampling.TriggeredMode));
 416:Drivers/STM32U0xx_HAL_Driver/Src/stm32u0xx_hal_adc.c ****   }
 417:Drivers/STM32U0xx_HAL_Driver/Src/stm32u0xx_hal_adc.c ****   assert_param(IS_ADC_TRIGGER_FREQ(hadc->Init.TriggerFrequencyMode));
 418:Drivers/STM32U0xx_HAL_Driver/Src/stm32u0xx_hal_adc.c **** 
 419:Drivers/STM32U0xx_HAL_Driver/Src/stm32u0xx_hal_adc.c ****   if (hadc->Init.ScanConvMode != ADC_SCAN_DISABLE)
 420:Drivers/STM32U0xx_HAL_Driver/Src/stm32u0xx_hal_adc.c ****   {
 421:Drivers/STM32U0xx_HAL_Driver/Src/stm32u0xx_hal_adc.c ****     assert_param(IS_FUNCTIONAL_STATE(hadc->Init.DiscontinuousConvMode));
 422:Drivers/STM32U0xx_HAL_Driver/Src/stm32u0xx_hal_adc.c **** 
 423:Drivers/STM32U0xx_HAL_Driver/Src/stm32u0xx_hal_adc.c ****     if (hadc->Init.ScanConvMode == ADC_SCAN_ENABLE)
 424:Drivers/STM32U0xx_HAL_Driver/Src/stm32u0xx_hal_adc.c ****     {
 425:Drivers/STM32U0xx_HAL_Driver/Src/stm32u0xx_hal_adc.c ****       assert_param(IS_ADC_REGULAR_NB_CONV(hadc->Init.NbrOfConversion));
 426:Drivers/STM32U0xx_HAL_Driver/Src/stm32u0xx_hal_adc.c ****     }
 427:Drivers/STM32U0xx_HAL_Driver/Src/stm32u0xx_hal_adc.c ****   }
 428:Drivers/STM32U0xx_HAL_Driver/Src/stm32u0xx_hal_adc.c **** 
 429:Drivers/STM32U0xx_HAL_Driver/Src/stm32u0xx_hal_adc.c ****   /* ADC group regular discontinuous mode can be enabled only if              */
ARM GAS  C:\Users\upo\AppData\Local\Temp\ccaBY4hr.s 			page 9


 430:Drivers/STM32U0xx_HAL_Driver/Src/stm32u0xx_hal_adc.c ****   /* continuous mode is disabled.                                             */
 431:Drivers/STM32U0xx_HAL_Driver/Src/stm32u0xx_hal_adc.c ****   assert_param(!((hadc->Init.DiscontinuousConvMode == ENABLE) && (hadc->Init.ContinuousConvMode == 
 432:Drivers/STM32U0xx_HAL_Driver/Src/stm32u0xx_hal_adc.c **** 
 433:Drivers/STM32U0xx_HAL_Driver/Src/stm32u0xx_hal_adc.c ****   /* Actions performed only if ADC is coming from state reset:                */
 434:Drivers/STM32U0xx_HAL_Driver/Src/stm32u0xx_hal_adc.c ****   /* - Initialization of ADC MSP                                              */
 435:Drivers/STM32U0xx_HAL_Driver/Src/stm32u0xx_hal_adc.c ****   if (hadc->State == HAL_ADC_STATE_RESET)
 436:Drivers/STM32U0xx_HAL_Driver/Src/stm32u0xx_hal_adc.c ****   {
 437:Drivers/STM32U0xx_HAL_Driver/Src/stm32u0xx_hal_adc.c **** #if (USE_HAL_ADC_REGISTER_CALLBACKS == 1)
 438:Drivers/STM32U0xx_HAL_Driver/Src/stm32u0xx_hal_adc.c ****     /* Init the ADC Callback settings */
 439:Drivers/STM32U0xx_HAL_Driver/Src/stm32u0xx_hal_adc.c ****     hadc->ConvCpltCallback              = HAL_ADC_ConvCpltCallback;                 /* Legacy weak 
 440:Drivers/STM32U0xx_HAL_Driver/Src/stm32u0xx_hal_adc.c ****     hadc->ConvHalfCpltCallback          = HAL_ADC_ConvHalfCpltCallback;             /* Legacy weak 
 441:Drivers/STM32U0xx_HAL_Driver/Src/stm32u0xx_hal_adc.c ****     hadc->LevelOutOfWindowCallback      = HAL_ADC_LevelOutOfWindowCallback;         /* Legacy weak 
 442:Drivers/STM32U0xx_HAL_Driver/Src/stm32u0xx_hal_adc.c ****     hadc->ErrorCallback                 = HAL_ADC_ErrorCallback;                    /* Legacy weak 
 443:Drivers/STM32U0xx_HAL_Driver/Src/stm32u0xx_hal_adc.c ****     hadc->LevelOutOfWindow2Callback     = HAL_ADCEx_LevelOutOfWindow2Callback;      /* Legacy weak 
 444:Drivers/STM32U0xx_HAL_Driver/Src/stm32u0xx_hal_adc.c ****     hadc->LevelOutOfWindow3Callback     = HAL_ADCEx_LevelOutOfWindow3Callback;      /* Legacy weak 
 445:Drivers/STM32U0xx_HAL_Driver/Src/stm32u0xx_hal_adc.c ****     hadc->EndOfSamplingCallback         = HAL_ADCEx_EndOfSamplingCallback;          /* Legacy weak 
 446:Drivers/STM32U0xx_HAL_Driver/Src/stm32u0xx_hal_adc.c ****     hadc->CalibrationCpltCallback       = HAL_ADC_CalibrationCpltCallback;          /* Legacy weak 
 447:Drivers/STM32U0xx_HAL_Driver/Src/stm32u0xx_hal_adc.c ****     hadc->ADCReadyCallback              = HAL_ADC_ADCReadyCallback;                 /* Legacy weak 
 448:Drivers/STM32U0xx_HAL_Driver/Src/stm32u0xx_hal_adc.c ****     hadc->ChannelConfigReadyCallback    = HAL_ADCEx_ChannelConfigReadyCallback;     /* Legacy weak 
 449:Drivers/STM32U0xx_HAL_Driver/Src/stm32u0xx_hal_adc.c **** 
 450:Drivers/STM32U0xx_HAL_Driver/Src/stm32u0xx_hal_adc.c ****     if (hadc->MspInitCallback == NULL)
 451:Drivers/STM32U0xx_HAL_Driver/Src/stm32u0xx_hal_adc.c ****     {
 452:Drivers/STM32U0xx_HAL_Driver/Src/stm32u0xx_hal_adc.c ****       hadc->MspInitCallback = HAL_ADC_MspInit; /* Legacy weak MspInit  */
 453:Drivers/STM32U0xx_HAL_Driver/Src/stm32u0xx_hal_adc.c ****     }
 454:Drivers/STM32U0xx_HAL_Driver/Src/stm32u0xx_hal_adc.c **** 
 455:Drivers/STM32U0xx_HAL_Driver/Src/stm32u0xx_hal_adc.c ****     /* Init the low level hardware */
 456:Drivers/STM32U0xx_HAL_Driver/Src/stm32u0xx_hal_adc.c ****     hadc->MspInitCallback(hadc);
 457:Drivers/STM32U0xx_HAL_Driver/Src/stm32u0xx_hal_adc.c **** #else
 458:Drivers/STM32U0xx_HAL_Driver/Src/stm32u0xx_hal_adc.c ****     /* Init the low level hardware */
 459:Drivers/STM32U0xx_HAL_Driver/Src/stm32u0xx_hal_adc.c ****     HAL_ADC_MspInit(hadc);
 460:Drivers/STM32U0xx_HAL_Driver/Src/stm32u0xx_hal_adc.c **** #endif /* USE_HAL_ADC_REGISTER_CALLBACKS */
 461:Drivers/STM32U0xx_HAL_Driver/Src/stm32u0xx_hal_adc.c **** 
 462:Drivers/STM32U0xx_HAL_Driver/Src/stm32u0xx_hal_adc.c ****     /* Set ADC error code to none */
 463:Drivers/STM32U0xx_HAL_Driver/Src/stm32u0xx_hal_adc.c ****     ADC_CLEAR_ERRORCODE(hadc);
 464:Drivers/STM32U0xx_HAL_Driver/Src/stm32u0xx_hal_adc.c **** 
 465:Drivers/STM32U0xx_HAL_Driver/Src/stm32u0xx_hal_adc.c ****     /* Initialize Lock */
 466:Drivers/STM32U0xx_HAL_Driver/Src/stm32u0xx_hal_adc.c ****     hadc->Lock = HAL_UNLOCKED;
 467:Drivers/STM32U0xx_HAL_Driver/Src/stm32u0xx_hal_adc.c ****   }
 468:Drivers/STM32U0xx_HAL_Driver/Src/stm32u0xx_hal_adc.c **** 
 469:Drivers/STM32U0xx_HAL_Driver/Src/stm32u0xx_hal_adc.c ****   if (LL_ADC_IsInternalRegulatorEnabled(hadc->Instance) == 0UL)
 470:Drivers/STM32U0xx_HAL_Driver/Src/stm32u0xx_hal_adc.c ****   {
 471:Drivers/STM32U0xx_HAL_Driver/Src/stm32u0xx_hal_adc.c ****     /* Enable ADC internal voltage regulator */
 472:Drivers/STM32U0xx_HAL_Driver/Src/stm32u0xx_hal_adc.c ****     LL_ADC_EnableInternalRegulator(hadc->Instance);
 473:Drivers/STM32U0xx_HAL_Driver/Src/stm32u0xx_hal_adc.c **** 
 474:Drivers/STM32U0xx_HAL_Driver/Src/stm32u0xx_hal_adc.c ****     /* Delay for ADC stabilization time */
 475:Drivers/STM32U0xx_HAL_Driver/Src/stm32u0xx_hal_adc.c ****     /* Wait loop initialization and execution */
 476:Drivers/STM32U0xx_HAL_Driver/Src/stm32u0xx_hal_adc.c ****     /* Note: Variable divided by 2 to compensate partially              */
 477:Drivers/STM32U0xx_HAL_Driver/Src/stm32u0xx_hal_adc.c ****     /*       CPU processing cycles, scaling in us split to not          */
 478:Drivers/STM32U0xx_HAL_Driver/Src/stm32u0xx_hal_adc.c ****     /*       exceed 32 bits register capacity and handle low frequency. */
 479:Drivers/STM32U0xx_HAL_Driver/Src/stm32u0xx_hal_adc.c ****     wait_loop_index = ((LL_ADC_DELAY_INTERNAL_REGUL_STAB_US / 10UL) * ((SystemCoreClock / (100000UL
 480:Drivers/STM32U0xx_HAL_Driver/Src/stm32u0xx_hal_adc.c ****     while (wait_loop_index != 0UL)
 481:Drivers/STM32U0xx_HAL_Driver/Src/stm32u0xx_hal_adc.c ****     {
 482:Drivers/STM32U0xx_HAL_Driver/Src/stm32u0xx_hal_adc.c ****       wait_loop_index--;
 483:Drivers/STM32U0xx_HAL_Driver/Src/stm32u0xx_hal_adc.c ****     }
 484:Drivers/STM32U0xx_HAL_Driver/Src/stm32u0xx_hal_adc.c ****   }
 485:Drivers/STM32U0xx_HAL_Driver/Src/stm32u0xx_hal_adc.c **** 
 486:Drivers/STM32U0xx_HAL_Driver/Src/stm32u0xx_hal_adc.c ****   /* Verification that ADC voltage regulator is correctly enabled, whether    */
ARM GAS  C:\Users\upo\AppData\Local\Temp\ccaBY4hr.s 			page 10


 487:Drivers/STM32U0xx_HAL_Driver/Src/stm32u0xx_hal_adc.c ****   /* or not ADC is coming from state reset (if any potential problem of       */
 488:Drivers/STM32U0xx_HAL_Driver/Src/stm32u0xx_hal_adc.c ****   /* clocking, voltage regulator would not be enabled).                       */
 489:Drivers/STM32U0xx_HAL_Driver/Src/stm32u0xx_hal_adc.c ****   if (LL_ADC_IsInternalRegulatorEnabled(hadc->Instance) == 0UL)
 490:Drivers/STM32U0xx_HAL_Driver/Src/stm32u0xx_hal_adc.c ****   {
 491:Drivers/STM32U0xx_HAL_Driver/Src/stm32u0xx_hal_adc.c ****     /* Update ADC state machine to error */
 492:Drivers/STM32U0xx_HAL_Driver/Src/stm32u0xx_hal_adc.c ****     SET_BIT(hadc->State, HAL_ADC_STATE_ERROR_INTERNAL);
 493:Drivers/STM32U0xx_HAL_Driver/Src/stm32u0xx_hal_adc.c **** 
 494:Drivers/STM32U0xx_HAL_Driver/Src/stm32u0xx_hal_adc.c ****     /* Set ADC error code to ADC peripheral internal error */
 495:Drivers/STM32U0xx_HAL_Driver/Src/stm32u0xx_hal_adc.c ****     SET_BIT(hadc->ErrorCode, HAL_ADC_ERROR_INTERNAL);
 496:Drivers/STM32U0xx_HAL_Driver/Src/stm32u0xx_hal_adc.c **** 
 497:Drivers/STM32U0xx_HAL_Driver/Src/stm32u0xx_hal_adc.c ****     tmp_hal_status = HAL_ERROR;
 498:Drivers/STM32U0xx_HAL_Driver/Src/stm32u0xx_hal_adc.c ****   }
 499:Drivers/STM32U0xx_HAL_Driver/Src/stm32u0xx_hal_adc.c **** 
 500:Drivers/STM32U0xx_HAL_Driver/Src/stm32u0xx_hal_adc.c ****   /* Configuration of ADC parameters if previous preliminary actions are      */
 501:Drivers/STM32U0xx_HAL_Driver/Src/stm32u0xx_hal_adc.c ****   /* correctly completed and if there is no conversion on going on regular    */
 502:Drivers/STM32U0xx_HAL_Driver/Src/stm32u0xx_hal_adc.c ****   /* group (ADC may already be enabled at this point if HAL_ADC_Init() is     */
 503:Drivers/STM32U0xx_HAL_Driver/Src/stm32u0xx_hal_adc.c ****   /* called to update a parameter on the fly).                                */
 504:Drivers/STM32U0xx_HAL_Driver/Src/stm32u0xx_hal_adc.c ****   tmp_adc_reg_is_conversion_on_going = LL_ADC_REG_IsConversionOngoing(hadc->Instance);
 505:Drivers/STM32U0xx_HAL_Driver/Src/stm32u0xx_hal_adc.c **** 
 506:Drivers/STM32U0xx_HAL_Driver/Src/stm32u0xx_hal_adc.c ****   if (((hadc->State & HAL_ADC_STATE_ERROR_INTERNAL) == 0UL)
 507:Drivers/STM32U0xx_HAL_Driver/Src/stm32u0xx_hal_adc.c ****       && (tmp_adc_reg_is_conversion_on_going == 0UL)
 508:Drivers/STM32U0xx_HAL_Driver/Src/stm32u0xx_hal_adc.c ****      )
 509:Drivers/STM32U0xx_HAL_Driver/Src/stm32u0xx_hal_adc.c ****   {
 510:Drivers/STM32U0xx_HAL_Driver/Src/stm32u0xx_hal_adc.c ****     /* Set ADC state */
 511:Drivers/STM32U0xx_HAL_Driver/Src/stm32u0xx_hal_adc.c ****     ADC_STATE_CLR_SET(hadc->State,
 512:Drivers/STM32U0xx_HAL_Driver/Src/stm32u0xx_hal_adc.c ****                       HAL_ADC_STATE_REG_BUSY,
 513:Drivers/STM32U0xx_HAL_Driver/Src/stm32u0xx_hal_adc.c ****                       HAL_ADC_STATE_BUSY_INTERNAL);
 514:Drivers/STM32U0xx_HAL_Driver/Src/stm32u0xx_hal_adc.c **** 
 515:Drivers/STM32U0xx_HAL_Driver/Src/stm32u0xx_hal_adc.c ****     /* Configuration of common ADC parameters                                 */
 516:Drivers/STM32U0xx_HAL_Driver/Src/stm32u0xx_hal_adc.c **** 
 517:Drivers/STM32U0xx_HAL_Driver/Src/stm32u0xx_hal_adc.c ****     /* Parameters update conditioned to ADC state:                            */
 518:Drivers/STM32U0xx_HAL_Driver/Src/stm32u0xx_hal_adc.c ****     /* Parameters that can be updated only when ADC is disabled:              */
 519:Drivers/STM32U0xx_HAL_Driver/Src/stm32u0xx_hal_adc.c ****     /*  - Internal voltage regulator (no parameter in HAL ADC init structure) */
 520:Drivers/STM32U0xx_HAL_Driver/Src/stm32u0xx_hal_adc.c ****     /*  - Clock configuration                                                 */
 521:Drivers/STM32U0xx_HAL_Driver/Src/stm32u0xx_hal_adc.c ****     /*  - ADC resolution                                                      */
 522:Drivers/STM32U0xx_HAL_Driver/Src/stm32u0xx_hal_adc.c ****     /*  - Oversampling                                                        */
 523:Drivers/STM32U0xx_HAL_Driver/Src/stm32u0xx_hal_adc.c ****     /*  - discontinuous mode                                                  */
 524:Drivers/STM32U0xx_HAL_Driver/Src/stm32u0xx_hal_adc.c ****     /*  - LowPowerAutoWait mode                                               */
 525:Drivers/STM32U0xx_HAL_Driver/Src/stm32u0xx_hal_adc.c ****     /*  - LowPowerAutoPowerOff mode                                           */
 526:Drivers/STM32U0xx_HAL_Driver/Src/stm32u0xx_hal_adc.c ****     /*  - continuous conversion mode                                          */
 527:Drivers/STM32U0xx_HAL_Driver/Src/stm32u0xx_hal_adc.c ****     /*  - overrun                                                             */
 528:Drivers/STM32U0xx_HAL_Driver/Src/stm32u0xx_hal_adc.c ****     /*  - external trigger to start conversion                                */
 529:Drivers/STM32U0xx_HAL_Driver/Src/stm32u0xx_hal_adc.c ****     /*  - external trigger polarity                                           */
 530:Drivers/STM32U0xx_HAL_Driver/Src/stm32u0xx_hal_adc.c ****     /*  - data alignment                                                      */
 531:Drivers/STM32U0xx_HAL_Driver/Src/stm32u0xx_hal_adc.c ****     /*  - resolution                                                          */
 532:Drivers/STM32U0xx_HAL_Driver/Src/stm32u0xx_hal_adc.c ****     /*  - scan direction                                                      */
 533:Drivers/STM32U0xx_HAL_Driver/Src/stm32u0xx_hal_adc.c ****     /*  - DMA continuous request                                              */
 534:Drivers/STM32U0xx_HAL_Driver/Src/stm32u0xx_hal_adc.c ****     /*  - Trigger frequency mode                                              */
 535:Drivers/STM32U0xx_HAL_Driver/Src/stm32u0xx_hal_adc.c ****     /* Note: If low power mode AutoPowerOff is enabled, ADC enable            */
 536:Drivers/STM32U0xx_HAL_Driver/Src/stm32u0xx_hal_adc.c ****     /*       and disable phases are performed automatically by hardware       */
 537:Drivers/STM32U0xx_HAL_Driver/Src/stm32u0xx_hal_adc.c ****     /*       (in this case, flag ADC_FLAG_RDY is not set).                    */
 538:Drivers/STM32U0xx_HAL_Driver/Src/stm32u0xx_hal_adc.c ****     if (LL_ADC_IsEnabled(hadc->Instance) == 0UL)
 539:Drivers/STM32U0xx_HAL_Driver/Src/stm32u0xx_hal_adc.c ****     {
 540:Drivers/STM32U0xx_HAL_Driver/Src/stm32u0xx_hal_adc.c ****       /* Some parameters of this register are not reset, since they are set   */
 541:Drivers/STM32U0xx_HAL_Driver/Src/stm32u0xx_hal_adc.c ****       /* by other functions and must be kept in case of usage of this         */
 542:Drivers/STM32U0xx_HAL_Driver/Src/stm32u0xx_hal_adc.c ****       /* function on the fly (update of a parameter of ADC_InitTypeDef        */
 543:Drivers/STM32U0xx_HAL_Driver/Src/stm32u0xx_hal_adc.c ****       /* without needing to reconfigure all other ADC groups/channels         */
ARM GAS  C:\Users\upo\AppData\Local\Temp\ccaBY4hr.s 			page 11


 544:Drivers/STM32U0xx_HAL_Driver/Src/stm32u0xx_hal_adc.c ****       /* parameters):                                                         */
 545:Drivers/STM32U0xx_HAL_Driver/Src/stm32u0xx_hal_adc.c ****       /*   - internal measurement paths (VrefInt, ...)                        */
 546:Drivers/STM32U0xx_HAL_Driver/Src/stm32u0xx_hal_adc.c ****       /*     (set into HAL_ADC_ConfigChannel() )                              */
 547:Drivers/STM32U0xx_HAL_Driver/Src/stm32u0xx_hal_adc.c **** 
 548:Drivers/STM32U0xx_HAL_Driver/Src/stm32u0xx_hal_adc.c ****       tmp_cfgr1 |= (hadc->Init.Resolution                                          |
 549:Drivers/STM32U0xx_HAL_Driver/Src/stm32u0xx_hal_adc.c ****                     ADC_CFGR1_AUTOWAIT((uint32_t)hadc->Init.LowPowerAutoWait)      |
 550:Drivers/STM32U0xx_HAL_Driver/Src/stm32u0xx_hal_adc.c ****                     ADC_CFGR1_AUTOOFF((uint32_t)hadc->Init.LowPowerAutoPowerOff)   |
 551:Drivers/STM32U0xx_HAL_Driver/Src/stm32u0xx_hal_adc.c ****                     ADC_CFGR1_CONTINUOUS((uint32_t)hadc->Init.ContinuousConvMode)  |
 552:Drivers/STM32U0xx_HAL_Driver/Src/stm32u0xx_hal_adc.c ****                     ADC_CFGR1_OVERRUN(hadc->Init.Overrun)                          |
 553:Drivers/STM32U0xx_HAL_Driver/Src/stm32u0xx_hal_adc.c ****                     hadc->Init.DataAlign                                           |
 554:Drivers/STM32U0xx_HAL_Driver/Src/stm32u0xx_hal_adc.c ****                     ADC_SCAN_SEQ_MODE(hadc->Init.ScanConvMode)                     |
 555:Drivers/STM32U0xx_HAL_Driver/Src/stm32u0xx_hal_adc.c ****                     ADC_CFGR1_DMACONTREQ((uint32_t)hadc->Init.DMAContinuousRequests));
 556:Drivers/STM32U0xx_HAL_Driver/Src/stm32u0xx_hal_adc.c **** 
 557:Drivers/STM32U0xx_HAL_Driver/Src/stm32u0xx_hal_adc.c ****       /* Update setting of discontinuous mode only if continuous mode is disabled */
 558:Drivers/STM32U0xx_HAL_Driver/Src/stm32u0xx_hal_adc.c ****       if (hadc->Init.DiscontinuousConvMode == ENABLE)
 559:Drivers/STM32U0xx_HAL_Driver/Src/stm32u0xx_hal_adc.c ****       {
 560:Drivers/STM32U0xx_HAL_Driver/Src/stm32u0xx_hal_adc.c ****         if (hadc->Init.ContinuousConvMode == DISABLE)
 561:Drivers/STM32U0xx_HAL_Driver/Src/stm32u0xx_hal_adc.c ****         {
 562:Drivers/STM32U0xx_HAL_Driver/Src/stm32u0xx_hal_adc.c ****           /* Enable the selected ADC group regular discontinuous mode */
 563:Drivers/STM32U0xx_HAL_Driver/Src/stm32u0xx_hal_adc.c ****           tmp_cfgr1 |= ADC_CFGR1_DISCEN;
 564:Drivers/STM32U0xx_HAL_Driver/Src/stm32u0xx_hal_adc.c ****         }
 565:Drivers/STM32U0xx_HAL_Driver/Src/stm32u0xx_hal_adc.c ****         else
 566:Drivers/STM32U0xx_HAL_Driver/Src/stm32u0xx_hal_adc.c ****         {
 567:Drivers/STM32U0xx_HAL_Driver/Src/stm32u0xx_hal_adc.c ****           /* ADC regular group discontinuous was intended to be enabled,        */
 568:Drivers/STM32U0xx_HAL_Driver/Src/stm32u0xx_hal_adc.c ****           /* but ADC regular group modes continuous and sequencer discontinuous */
 569:Drivers/STM32U0xx_HAL_Driver/Src/stm32u0xx_hal_adc.c ****           /* cannot be enabled simultaneously.                                  */
 570:Drivers/STM32U0xx_HAL_Driver/Src/stm32u0xx_hal_adc.c **** 
 571:Drivers/STM32U0xx_HAL_Driver/Src/stm32u0xx_hal_adc.c ****           /* Update ADC state machine to error */
 572:Drivers/STM32U0xx_HAL_Driver/Src/stm32u0xx_hal_adc.c ****           SET_BIT(hadc->State, HAL_ADC_STATE_ERROR_CONFIG);
 573:Drivers/STM32U0xx_HAL_Driver/Src/stm32u0xx_hal_adc.c **** 
 574:Drivers/STM32U0xx_HAL_Driver/Src/stm32u0xx_hal_adc.c ****           /* Set ADC error code to ADC peripheral internal error */
 575:Drivers/STM32U0xx_HAL_Driver/Src/stm32u0xx_hal_adc.c ****           SET_BIT(hadc->ErrorCode, HAL_ADC_ERROR_INTERNAL);
 576:Drivers/STM32U0xx_HAL_Driver/Src/stm32u0xx_hal_adc.c ****         }
 577:Drivers/STM32U0xx_HAL_Driver/Src/stm32u0xx_hal_adc.c ****       }
 578:Drivers/STM32U0xx_HAL_Driver/Src/stm32u0xx_hal_adc.c **** 
 579:Drivers/STM32U0xx_HAL_Driver/Src/stm32u0xx_hal_adc.c ****       /* Enable external trigger if trigger selection is different of software  */
 580:Drivers/STM32U0xx_HAL_Driver/Src/stm32u0xx_hal_adc.c ****       /* start.                                                                 */
 581:Drivers/STM32U0xx_HAL_Driver/Src/stm32u0xx_hal_adc.c ****       /* Note: This configuration keeps the hardware feature of parameter       */
 582:Drivers/STM32U0xx_HAL_Driver/Src/stm32u0xx_hal_adc.c ****       /*       ExternalTrigConvEdge "trigger edge none" equivalent to           */
 583:Drivers/STM32U0xx_HAL_Driver/Src/stm32u0xx_hal_adc.c ****       /*       software start.                                                  */
 584:Drivers/STM32U0xx_HAL_Driver/Src/stm32u0xx_hal_adc.c ****       if (hadc->Init.ExternalTrigConv != ADC_SOFTWARE_START)
 585:Drivers/STM32U0xx_HAL_Driver/Src/stm32u0xx_hal_adc.c ****       {
 586:Drivers/STM32U0xx_HAL_Driver/Src/stm32u0xx_hal_adc.c ****         tmp_cfgr1 |= ((hadc->Init.ExternalTrigConv & ADC_CFGR1_EXTSEL) |
 587:Drivers/STM32U0xx_HAL_Driver/Src/stm32u0xx_hal_adc.c ****                       hadc->Init.ExternalTrigConvEdge);
 588:Drivers/STM32U0xx_HAL_Driver/Src/stm32u0xx_hal_adc.c ****       }
 589:Drivers/STM32U0xx_HAL_Driver/Src/stm32u0xx_hal_adc.c **** 
 590:Drivers/STM32U0xx_HAL_Driver/Src/stm32u0xx_hal_adc.c ****       /* Update ADC configuration register with previous settings */
 591:Drivers/STM32U0xx_HAL_Driver/Src/stm32u0xx_hal_adc.c ****       MODIFY_REG(hadc->Instance->CFGR1,
 592:Drivers/STM32U0xx_HAL_Driver/Src/stm32u0xx_hal_adc.c ****                  ADC_CFGR1_RES       |
 593:Drivers/STM32U0xx_HAL_Driver/Src/stm32u0xx_hal_adc.c ****                  ADC_CFGR1_DISCEN    |
 594:Drivers/STM32U0xx_HAL_Driver/Src/stm32u0xx_hal_adc.c ****                  ADC_CFGR1_CHSELRMOD |
 595:Drivers/STM32U0xx_HAL_Driver/Src/stm32u0xx_hal_adc.c ****                  ADC_CFGR1_AUTOFF    |
 596:Drivers/STM32U0xx_HAL_Driver/Src/stm32u0xx_hal_adc.c ****                  ADC_CFGR1_WAIT      |
 597:Drivers/STM32U0xx_HAL_Driver/Src/stm32u0xx_hal_adc.c ****                  ADC_CFGR1_CONT      |
 598:Drivers/STM32U0xx_HAL_Driver/Src/stm32u0xx_hal_adc.c ****                  ADC_CFGR1_OVRMOD    |
 599:Drivers/STM32U0xx_HAL_Driver/Src/stm32u0xx_hal_adc.c ****                  ADC_CFGR1_EXTSEL    |
 600:Drivers/STM32U0xx_HAL_Driver/Src/stm32u0xx_hal_adc.c ****                  ADC_CFGR1_EXTEN     |
ARM GAS  C:\Users\upo\AppData\Local\Temp\ccaBY4hr.s 			page 12


 601:Drivers/STM32U0xx_HAL_Driver/Src/stm32u0xx_hal_adc.c ****                  ADC_CFGR1_ALIGN     |
 602:Drivers/STM32U0xx_HAL_Driver/Src/stm32u0xx_hal_adc.c ****                  ADC_CFGR1_SCANDIR   |
 603:Drivers/STM32U0xx_HAL_Driver/Src/stm32u0xx_hal_adc.c ****                  ADC_CFGR1_DMACFG,
 604:Drivers/STM32U0xx_HAL_Driver/Src/stm32u0xx_hal_adc.c ****                  tmp_cfgr1);
 605:Drivers/STM32U0xx_HAL_Driver/Src/stm32u0xx_hal_adc.c **** 
 606:Drivers/STM32U0xx_HAL_Driver/Src/stm32u0xx_hal_adc.c ****       tmp_cfgr2 |= ((hadc->Init.ClockPrescaler & ADC_CFGR2_CKMODE) |
 607:Drivers/STM32U0xx_HAL_Driver/Src/stm32u0xx_hal_adc.c ****                     hadc->Init.TriggerFrequencyMode
 608:Drivers/STM32U0xx_HAL_Driver/Src/stm32u0xx_hal_adc.c ****                    );
 609:Drivers/STM32U0xx_HAL_Driver/Src/stm32u0xx_hal_adc.c **** 
 610:Drivers/STM32U0xx_HAL_Driver/Src/stm32u0xx_hal_adc.c ****       if (hadc->Init.OversamplingMode == ENABLE)
 611:Drivers/STM32U0xx_HAL_Driver/Src/stm32u0xx_hal_adc.c ****       {
 612:Drivers/STM32U0xx_HAL_Driver/Src/stm32u0xx_hal_adc.c ****         tmp_cfgr2 |= (ADC_CFGR2_OVSE |
 613:Drivers/STM32U0xx_HAL_Driver/Src/stm32u0xx_hal_adc.c ****                       (hadc->Init.ClockPrescaler & ADC_CFGR2_CKMODE) |
 614:Drivers/STM32U0xx_HAL_Driver/Src/stm32u0xx_hal_adc.c ****                       hadc->Init.Oversampling.Ratio         |
 615:Drivers/STM32U0xx_HAL_Driver/Src/stm32u0xx_hal_adc.c ****                       hadc->Init.Oversampling.RightBitShift |
 616:Drivers/STM32U0xx_HAL_Driver/Src/stm32u0xx_hal_adc.c ****                       hadc->Init.Oversampling.TriggeredMode
 617:Drivers/STM32U0xx_HAL_Driver/Src/stm32u0xx_hal_adc.c ****                      );
 618:Drivers/STM32U0xx_HAL_Driver/Src/stm32u0xx_hal_adc.c ****       }
 619:Drivers/STM32U0xx_HAL_Driver/Src/stm32u0xx_hal_adc.c **** 
 620:Drivers/STM32U0xx_HAL_Driver/Src/stm32u0xx_hal_adc.c ****       MODIFY_REG(hadc->Instance->CFGR2,
 621:Drivers/STM32U0xx_HAL_Driver/Src/stm32u0xx_hal_adc.c ****                  ADC_CFGR2_CKMODE |
 622:Drivers/STM32U0xx_HAL_Driver/Src/stm32u0xx_hal_adc.c ****                  ADC_CFGR2_LFTRIG |
 623:Drivers/STM32U0xx_HAL_Driver/Src/stm32u0xx_hal_adc.c ****                  ADC_CFGR2_OVSE   |
 624:Drivers/STM32U0xx_HAL_Driver/Src/stm32u0xx_hal_adc.c ****                  ADC_CFGR2_OVSR   |
 625:Drivers/STM32U0xx_HAL_Driver/Src/stm32u0xx_hal_adc.c ****                  ADC_CFGR2_OVSS   |
 626:Drivers/STM32U0xx_HAL_Driver/Src/stm32u0xx_hal_adc.c ****                  ADC_CFGR2_TOVS,
 627:Drivers/STM32U0xx_HAL_Driver/Src/stm32u0xx_hal_adc.c ****                  tmp_cfgr2);
 628:Drivers/STM32U0xx_HAL_Driver/Src/stm32u0xx_hal_adc.c **** 
 629:Drivers/STM32U0xx_HAL_Driver/Src/stm32u0xx_hal_adc.c ****       /* Configuration of ADC clock mode: asynchronous clock source           */
 630:Drivers/STM32U0xx_HAL_Driver/Src/stm32u0xx_hal_adc.c ****       /* with selectable prescaler.                                           */
 631:Drivers/STM32U0xx_HAL_Driver/Src/stm32u0xx_hal_adc.c ****       if (((hadc->Init.ClockPrescaler) != ADC_CLOCK_SYNC_PCLK_DIV1) &&
 632:Drivers/STM32U0xx_HAL_Driver/Src/stm32u0xx_hal_adc.c ****           ((hadc->Init.ClockPrescaler) != ADC_CLOCK_SYNC_PCLK_DIV2) &&
 633:Drivers/STM32U0xx_HAL_Driver/Src/stm32u0xx_hal_adc.c ****           ((hadc->Init.ClockPrescaler) != ADC_CLOCK_SYNC_PCLK_DIV4))
 634:Drivers/STM32U0xx_HAL_Driver/Src/stm32u0xx_hal_adc.c ****       {
 635:Drivers/STM32U0xx_HAL_Driver/Src/stm32u0xx_hal_adc.c ****         MODIFY_REG(ADC1_COMMON->CCR,
 636:Drivers/STM32U0xx_HAL_Driver/Src/stm32u0xx_hal_adc.c ****                    ADC_CCR_PRESC,
 637:Drivers/STM32U0xx_HAL_Driver/Src/stm32u0xx_hal_adc.c ****                    hadc->Init.ClockPrescaler & ADC_CCR_PRESC);
 638:Drivers/STM32U0xx_HAL_Driver/Src/stm32u0xx_hal_adc.c ****       }
 639:Drivers/STM32U0xx_HAL_Driver/Src/stm32u0xx_hal_adc.c ****     }
 640:Drivers/STM32U0xx_HAL_Driver/Src/stm32u0xx_hal_adc.c **** 
 641:Drivers/STM32U0xx_HAL_Driver/Src/stm32u0xx_hal_adc.c ****     /* Channel sampling time configuration */
 642:Drivers/STM32U0xx_HAL_Driver/Src/stm32u0xx_hal_adc.c ****     LL_ADC_SetSamplingTimeCommonChannels(hadc->Instance, LL_ADC_SAMPLINGTIME_COMMON_1, hadc->Init.S
 643:Drivers/STM32U0xx_HAL_Driver/Src/stm32u0xx_hal_adc.c ****     LL_ADC_SetSamplingTimeCommonChannels(hadc->Instance, LL_ADC_SAMPLINGTIME_COMMON_2, hadc->Init.S
 644:Drivers/STM32U0xx_HAL_Driver/Src/stm32u0xx_hal_adc.c **** 
 645:Drivers/STM32U0xx_HAL_Driver/Src/stm32u0xx_hal_adc.c ****     /* Configuration of regular group sequencer:                              */
 646:Drivers/STM32U0xx_HAL_Driver/Src/stm32u0xx_hal_adc.c ****     /* - if scan mode is disabled, regular channels sequence length is set to */
 647:Drivers/STM32U0xx_HAL_Driver/Src/stm32u0xx_hal_adc.c ****     /*   0x00: 1 channel converted (channel on regular rank 1)                */
 648:Drivers/STM32U0xx_HAL_Driver/Src/stm32u0xx_hal_adc.c ****     /*   Parameter "NbrOfConversion" is discarded.                            */
 649:Drivers/STM32U0xx_HAL_Driver/Src/stm32u0xx_hal_adc.c ****     /*   Note: Scan mode is not present by hardware on this device, but       */
 650:Drivers/STM32U0xx_HAL_Driver/Src/stm32u0xx_hal_adc.c ****     /*   emulated by software for alignment over all STM32 devices.           */
 651:Drivers/STM32U0xx_HAL_Driver/Src/stm32u0xx_hal_adc.c ****     /* - if scan mode is enabled, regular channels sequence length is set to  */
 652:Drivers/STM32U0xx_HAL_Driver/Src/stm32u0xx_hal_adc.c ****     /*   parameter "NbrOfConversion".                                         */
 653:Drivers/STM32U0xx_HAL_Driver/Src/stm32u0xx_hal_adc.c ****     /*   Channels must be configured into each rank using function            */
 654:Drivers/STM32U0xx_HAL_Driver/Src/stm32u0xx_hal_adc.c ****     /*   "HAL_ADC_ConfigChannel()".                                           */
 655:Drivers/STM32U0xx_HAL_Driver/Src/stm32u0xx_hal_adc.c ****     if (hadc->Init.ScanConvMode == ADC_SCAN_DISABLE)
 656:Drivers/STM32U0xx_HAL_Driver/Src/stm32u0xx_hal_adc.c ****     {
 657:Drivers/STM32U0xx_HAL_Driver/Src/stm32u0xx_hal_adc.c ****       /* Set sequencer scan length by clearing ranks above rank 1             */
ARM GAS  C:\Users\upo\AppData\Local\Temp\ccaBY4hr.s 			page 13


 658:Drivers/STM32U0xx_HAL_Driver/Src/stm32u0xx_hal_adc.c ****       /* and do not modify rank 1 value.                                      */
 659:Drivers/STM32U0xx_HAL_Driver/Src/stm32u0xx_hal_adc.c ****       SET_BIT(hadc->Instance->CHSELR,
 660:Drivers/STM32U0xx_HAL_Driver/Src/stm32u0xx_hal_adc.c ****               ADC_CHSELR_SQ2_TO_SQ8);
 661:Drivers/STM32U0xx_HAL_Driver/Src/stm32u0xx_hal_adc.c ****     }
 662:Drivers/STM32U0xx_HAL_Driver/Src/stm32u0xx_hal_adc.c ****     else if (hadc->Init.ScanConvMode == ADC_SCAN_ENABLE)
 663:Drivers/STM32U0xx_HAL_Driver/Src/stm32u0xx_hal_adc.c ****     {
 664:Drivers/STM32U0xx_HAL_Driver/Src/stm32u0xx_hal_adc.c ****       /* Set ADC group regular sequencer:                                   */
 665:Drivers/STM32U0xx_HAL_Driver/Src/stm32u0xx_hal_adc.c ****       /*  - Set ADC group regular sequencer to value memorized              */
 666:Drivers/STM32U0xx_HAL_Driver/Src/stm32u0xx_hal_adc.c ****       /*    in HAL ADC handle                                               */
 667:Drivers/STM32U0xx_HAL_Driver/Src/stm32u0xx_hal_adc.c ****       /*    Note: This value maybe be initialized at a unknown value,       */
 668:Drivers/STM32U0xx_HAL_Driver/Src/stm32u0xx_hal_adc.c ****       /*          therefore after the first call of "HAL_ADC_Init()",       */
 669:Drivers/STM32U0xx_HAL_Driver/Src/stm32u0xx_hal_adc.c ****       /*          each rank corresponding to parameter "NbrOfConversion"    */
 670:Drivers/STM32U0xx_HAL_Driver/Src/stm32u0xx_hal_adc.c ****       /*          must be set using "HAL_ADC_ConfigChannel()".              */
 671:Drivers/STM32U0xx_HAL_Driver/Src/stm32u0xx_hal_adc.c ****       /*  - Set sequencer scan length by clearing ranks above maximum rank  */
 672:Drivers/STM32U0xx_HAL_Driver/Src/stm32u0xx_hal_adc.c ****       /*    and do not modify other ranks value.                            */
 673:Drivers/STM32U0xx_HAL_Driver/Src/stm32u0xx_hal_adc.c ****       MODIFY_REG(hadc->Instance->CHSELR,
 674:Drivers/STM32U0xx_HAL_Driver/Src/stm32u0xx_hal_adc.c ****                  ADC_CHSELR_SQ_ALL,
 675:Drivers/STM32U0xx_HAL_Driver/Src/stm32u0xx_hal_adc.c ****                  (ADC_CHSELR_SQ2_TO_SQ8 << (((hadc->Init.NbrOfConversion - 1UL) * ADC_REGULAR_RANK_
 676:Drivers/STM32U0xx_HAL_Driver/Src/stm32u0xx_hal_adc.c ****                  | (hadc->ADCGroupRegularSequencerRanks)
 677:Drivers/STM32U0xx_HAL_Driver/Src/stm32u0xx_hal_adc.c ****                 );
 678:Drivers/STM32U0xx_HAL_Driver/Src/stm32u0xx_hal_adc.c ****     }
 679:Drivers/STM32U0xx_HAL_Driver/Src/stm32u0xx_hal_adc.c ****     else
 680:Drivers/STM32U0xx_HAL_Driver/Src/stm32u0xx_hal_adc.c ****     {
 681:Drivers/STM32U0xx_HAL_Driver/Src/stm32u0xx_hal_adc.c ****       /* Nothing to do */
 682:Drivers/STM32U0xx_HAL_Driver/Src/stm32u0xx_hal_adc.c ****     }
 683:Drivers/STM32U0xx_HAL_Driver/Src/stm32u0xx_hal_adc.c **** 
 684:Drivers/STM32U0xx_HAL_Driver/Src/stm32u0xx_hal_adc.c ****     /* Check back that ADC registers have effectively been configured to      */
 685:Drivers/STM32U0xx_HAL_Driver/Src/stm32u0xx_hal_adc.c ****     /* ensure of no potential problem of ADC core peripheral clocking.        */
 686:Drivers/STM32U0xx_HAL_Driver/Src/stm32u0xx_hal_adc.c ****     if (LL_ADC_GetSamplingTimeCommonChannels(hadc->Instance, LL_ADC_SAMPLINGTIME_COMMON_1)
 687:Drivers/STM32U0xx_HAL_Driver/Src/stm32u0xx_hal_adc.c ****         == hadc->Init.SamplingTimeCommon1)
 688:Drivers/STM32U0xx_HAL_Driver/Src/stm32u0xx_hal_adc.c ****     {
 689:Drivers/STM32U0xx_HAL_Driver/Src/stm32u0xx_hal_adc.c ****       /* Set ADC error code to none */
 690:Drivers/STM32U0xx_HAL_Driver/Src/stm32u0xx_hal_adc.c ****       ADC_CLEAR_ERRORCODE(hadc);
 691:Drivers/STM32U0xx_HAL_Driver/Src/stm32u0xx_hal_adc.c **** 
 692:Drivers/STM32U0xx_HAL_Driver/Src/stm32u0xx_hal_adc.c ****       /* Set the ADC state */
 693:Drivers/STM32U0xx_HAL_Driver/Src/stm32u0xx_hal_adc.c ****       ADC_STATE_CLR_SET(hadc->State,
 694:Drivers/STM32U0xx_HAL_Driver/Src/stm32u0xx_hal_adc.c ****                         HAL_ADC_STATE_BUSY_INTERNAL,
 695:Drivers/STM32U0xx_HAL_Driver/Src/stm32u0xx_hal_adc.c ****                         HAL_ADC_STATE_READY);
 696:Drivers/STM32U0xx_HAL_Driver/Src/stm32u0xx_hal_adc.c ****     }
 697:Drivers/STM32U0xx_HAL_Driver/Src/stm32u0xx_hal_adc.c ****     else
 698:Drivers/STM32U0xx_HAL_Driver/Src/stm32u0xx_hal_adc.c ****     {
 699:Drivers/STM32U0xx_HAL_Driver/Src/stm32u0xx_hal_adc.c ****       /* Update ADC state machine to error */
 700:Drivers/STM32U0xx_HAL_Driver/Src/stm32u0xx_hal_adc.c ****       ADC_STATE_CLR_SET(hadc->State,
 701:Drivers/STM32U0xx_HAL_Driver/Src/stm32u0xx_hal_adc.c ****                         HAL_ADC_STATE_BUSY_INTERNAL,
 702:Drivers/STM32U0xx_HAL_Driver/Src/stm32u0xx_hal_adc.c ****                         HAL_ADC_STATE_ERROR_INTERNAL);
 703:Drivers/STM32U0xx_HAL_Driver/Src/stm32u0xx_hal_adc.c **** 
 704:Drivers/STM32U0xx_HAL_Driver/Src/stm32u0xx_hal_adc.c ****       /* Set ADC error code to ADC peripheral internal error */
 705:Drivers/STM32U0xx_HAL_Driver/Src/stm32u0xx_hal_adc.c ****       SET_BIT(hadc->ErrorCode, HAL_ADC_ERROR_INTERNAL);
 706:Drivers/STM32U0xx_HAL_Driver/Src/stm32u0xx_hal_adc.c **** 
 707:Drivers/STM32U0xx_HAL_Driver/Src/stm32u0xx_hal_adc.c ****       tmp_hal_status = HAL_ERROR;
 708:Drivers/STM32U0xx_HAL_Driver/Src/stm32u0xx_hal_adc.c ****     }
 709:Drivers/STM32U0xx_HAL_Driver/Src/stm32u0xx_hal_adc.c **** 
 710:Drivers/STM32U0xx_HAL_Driver/Src/stm32u0xx_hal_adc.c ****   }
 711:Drivers/STM32U0xx_HAL_Driver/Src/stm32u0xx_hal_adc.c ****   else
 712:Drivers/STM32U0xx_HAL_Driver/Src/stm32u0xx_hal_adc.c ****   {
 713:Drivers/STM32U0xx_HAL_Driver/Src/stm32u0xx_hal_adc.c ****     /* Update ADC state machine to error */
 714:Drivers/STM32U0xx_HAL_Driver/Src/stm32u0xx_hal_adc.c ****     SET_BIT(hadc->State, HAL_ADC_STATE_ERROR_INTERNAL);
ARM GAS  C:\Users\upo\AppData\Local\Temp\ccaBY4hr.s 			page 14


 715:Drivers/STM32U0xx_HAL_Driver/Src/stm32u0xx_hal_adc.c **** 
 716:Drivers/STM32U0xx_HAL_Driver/Src/stm32u0xx_hal_adc.c ****     tmp_hal_status = HAL_ERROR;
 717:Drivers/STM32U0xx_HAL_Driver/Src/stm32u0xx_hal_adc.c ****   }
 718:Drivers/STM32U0xx_HAL_Driver/Src/stm32u0xx_hal_adc.c **** 
 719:Drivers/STM32U0xx_HAL_Driver/Src/stm32u0xx_hal_adc.c ****   return tmp_hal_status;
 720:Drivers/STM32U0xx_HAL_Driver/Src/stm32u0xx_hal_adc.c **** }
 721:Drivers/STM32U0xx_HAL_Driver/Src/stm32u0xx_hal_adc.c **** 
 722:Drivers/STM32U0xx_HAL_Driver/Src/stm32u0xx_hal_adc.c **** /**
 723:Drivers/STM32U0xx_HAL_Driver/Src/stm32u0xx_hal_adc.c ****   * @brief  Deinitialize the ADC peripheral registers to their default reset
 724:Drivers/STM32U0xx_HAL_Driver/Src/stm32u0xx_hal_adc.c ****   *         values, with deinitialization of the ADC MSP.
 725:Drivers/STM32U0xx_HAL_Driver/Src/stm32u0xx_hal_adc.c ****   * @note   For devices with several ADCs: reset of ADC common registers is done
 726:Drivers/STM32U0xx_HAL_Driver/Src/stm32u0xx_hal_adc.c ****   *         only if all ADCs sharing the same common group are disabled.
 727:Drivers/STM32U0xx_HAL_Driver/Src/stm32u0xx_hal_adc.c ****   *         (function "HAL_ADC_MspDeInit()" is also called under the same conditions:
 728:Drivers/STM32U0xx_HAL_Driver/Src/stm32u0xx_hal_adc.c ****   *         all ADC instances use the same core clock at RCC level, disabling
 729:Drivers/STM32U0xx_HAL_Driver/Src/stm32u0xx_hal_adc.c ****   *         the core clock reset all ADC instances).
 730:Drivers/STM32U0xx_HAL_Driver/Src/stm32u0xx_hal_adc.c ****   *         If this is not the case, reset of these common parameters reset is
 731:Drivers/STM32U0xx_HAL_Driver/Src/stm32u0xx_hal_adc.c ****   *         bypassed without error reporting: it can be the intended behavior in
 732:Drivers/STM32U0xx_HAL_Driver/Src/stm32u0xx_hal_adc.c ****   *         case of reset of a single ADC while the other ADCs sharing the same
 733:Drivers/STM32U0xx_HAL_Driver/Src/stm32u0xx_hal_adc.c ****   *         common group is still running.
 734:Drivers/STM32U0xx_HAL_Driver/Src/stm32u0xx_hal_adc.c ****   * @param hadc ADC handle
 735:Drivers/STM32U0xx_HAL_Driver/Src/stm32u0xx_hal_adc.c ****   * @retval HAL status
 736:Drivers/STM32U0xx_HAL_Driver/Src/stm32u0xx_hal_adc.c ****   */
 737:Drivers/STM32U0xx_HAL_Driver/Src/stm32u0xx_hal_adc.c **** HAL_StatusTypeDef HAL_ADC_DeInit(ADC_HandleTypeDef *hadc)
 738:Drivers/STM32U0xx_HAL_Driver/Src/stm32u0xx_hal_adc.c **** {
 739:Drivers/STM32U0xx_HAL_Driver/Src/stm32u0xx_hal_adc.c ****   HAL_StatusTypeDef tmp_hal_status;
 740:Drivers/STM32U0xx_HAL_Driver/Src/stm32u0xx_hal_adc.c **** 
 741:Drivers/STM32U0xx_HAL_Driver/Src/stm32u0xx_hal_adc.c ****   /* Check ADC handle */
 742:Drivers/STM32U0xx_HAL_Driver/Src/stm32u0xx_hal_adc.c ****   if (hadc == NULL)
 743:Drivers/STM32U0xx_HAL_Driver/Src/stm32u0xx_hal_adc.c ****   {
 744:Drivers/STM32U0xx_HAL_Driver/Src/stm32u0xx_hal_adc.c ****     return HAL_ERROR;
 745:Drivers/STM32U0xx_HAL_Driver/Src/stm32u0xx_hal_adc.c ****   }
 746:Drivers/STM32U0xx_HAL_Driver/Src/stm32u0xx_hal_adc.c **** 
 747:Drivers/STM32U0xx_HAL_Driver/Src/stm32u0xx_hal_adc.c ****   /* Check the parameters */
 748:Drivers/STM32U0xx_HAL_Driver/Src/stm32u0xx_hal_adc.c ****   assert_param(IS_ADC_ALL_INSTANCE(hadc->Instance));
 749:Drivers/STM32U0xx_HAL_Driver/Src/stm32u0xx_hal_adc.c **** 
 750:Drivers/STM32U0xx_HAL_Driver/Src/stm32u0xx_hal_adc.c ****   /* Set ADC state */
 751:Drivers/STM32U0xx_HAL_Driver/Src/stm32u0xx_hal_adc.c ****   SET_BIT(hadc->State, HAL_ADC_STATE_BUSY_INTERNAL);
 752:Drivers/STM32U0xx_HAL_Driver/Src/stm32u0xx_hal_adc.c **** 
 753:Drivers/STM32U0xx_HAL_Driver/Src/stm32u0xx_hal_adc.c ****   /* Stop potential conversion on going, on regular group */
 754:Drivers/STM32U0xx_HAL_Driver/Src/stm32u0xx_hal_adc.c ****   tmp_hal_status = ADC_ConversionStop(hadc);
 755:Drivers/STM32U0xx_HAL_Driver/Src/stm32u0xx_hal_adc.c **** 
 756:Drivers/STM32U0xx_HAL_Driver/Src/stm32u0xx_hal_adc.c ****   /* Disable ADC peripheral if conversions are effectively stopped */
 757:Drivers/STM32U0xx_HAL_Driver/Src/stm32u0xx_hal_adc.c ****   if (tmp_hal_status == HAL_OK)
 758:Drivers/STM32U0xx_HAL_Driver/Src/stm32u0xx_hal_adc.c ****   {
 759:Drivers/STM32U0xx_HAL_Driver/Src/stm32u0xx_hal_adc.c ****     /* Disable the ADC peripheral */
 760:Drivers/STM32U0xx_HAL_Driver/Src/stm32u0xx_hal_adc.c ****     tmp_hal_status = ADC_Disable(hadc);
 761:Drivers/STM32U0xx_HAL_Driver/Src/stm32u0xx_hal_adc.c **** 
 762:Drivers/STM32U0xx_HAL_Driver/Src/stm32u0xx_hal_adc.c ****     /* Check if ADC is effectively disabled */
 763:Drivers/STM32U0xx_HAL_Driver/Src/stm32u0xx_hal_adc.c ****     if (tmp_hal_status == HAL_OK)
 764:Drivers/STM32U0xx_HAL_Driver/Src/stm32u0xx_hal_adc.c ****     {
 765:Drivers/STM32U0xx_HAL_Driver/Src/stm32u0xx_hal_adc.c ****       /* Change ADC state */
 766:Drivers/STM32U0xx_HAL_Driver/Src/stm32u0xx_hal_adc.c ****       hadc->State = HAL_ADC_STATE_READY;
 767:Drivers/STM32U0xx_HAL_Driver/Src/stm32u0xx_hal_adc.c ****     }
 768:Drivers/STM32U0xx_HAL_Driver/Src/stm32u0xx_hal_adc.c **** 
 769:Drivers/STM32U0xx_HAL_Driver/Src/stm32u0xx_hal_adc.c ****     /* Disable ADC internal voltage regulator */
 770:Drivers/STM32U0xx_HAL_Driver/Src/stm32u0xx_hal_adc.c ****     LL_ADC_DisableInternalRegulator(hadc->Instance);
 771:Drivers/STM32U0xx_HAL_Driver/Src/stm32u0xx_hal_adc.c ****   }
ARM GAS  C:\Users\upo\AppData\Local\Temp\ccaBY4hr.s 			page 15


 772:Drivers/STM32U0xx_HAL_Driver/Src/stm32u0xx_hal_adc.c **** 
 773:Drivers/STM32U0xx_HAL_Driver/Src/stm32u0xx_hal_adc.c ****   /* Note: HAL ADC deInit is done independently of ADC conversion stop        */
 774:Drivers/STM32U0xx_HAL_Driver/Src/stm32u0xx_hal_adc.c ****   /*       and disable return status. In case of status fail, attempt to      */
 775:Drivers/STM32U0xx_HAL_Driver/Src/stm32u0xx_hal_adc.c ****   /*       perform deinitialization anyway and it is up user code in          */
 776:Drivers/STM32U0xx_HAL_Driver/Src/stm32u0xx_hal_adc.c ****   /*       in HAL_ADC_MspDeInit() to reset the ADC peripheral using           */
 777:Drivers/STM32U0xx_HAL_Driver/Src/stm32u0xx_hal_adc.c ****   /*       system RCC hard reset.                                             */
 778:Drivers/STM32U0xx_HAL_Driver/Src/stm32u0xx_hal_adc.c **** 
 779:Drivers/STM32U0xx_HAL_Driver/Src/stm32u0xx_hal_adc.c ****   /* ========== Reset ADC registers ========== */
 780:Drivers/STM32U0xx_HAL_Driver/Src/stm32u0xx_hal_adc.c ****   /* Reset register IER */
 781:Drivers/STM32U0xx_HAL_Driver/Src/stm32u0xx_hal_adc.c ****   __HAL_ADC_DISABLE_IT(hadc, (ADC_IT_AWD3  | ADC_IT_AWD2 |
 782:Drivers/STM32U0xx_HAL_Driver/Src/stm32u0xx_hal_adc.c ****                               ADC_IT_AWD1  | ADC_IT_OVR  |
 783:Drivers/STM32U0xx_HAL_Driver/Src/stm32u0xx_hal_adc.c ****                               ADC_IT_EOS   | ADC_IT_EOC  |
 784:Drivers/STM32U0xx_HAL_Driver/Src/stm32u0xx_hal_adc.c ****                               ADC_IT_EOCAL | ADC_IT_EOSMP | ADC_IT_RDY));
 785:Drivers/STM32U0xx_HAL_Driver/Src/stm32u0xx_hal_adc.c **** 
 786:Drivers/STM32U0xx_HAL_Driver/Src/stm32u0xx_hal_adc.c ****   /* Reset register ISR */
 787:Drivers/STM32U0xx_HAL_Driver/Src/stm32u0xx_hal_adc.c ****   __HAL_ADC_CLEAR_FLAG(hadc, (ADC_FLAG_AWD3  | ADC_FLAG_AWD2 |
 788:Drivers/STM32U0xx_HAL_Driver/Src/stm32u0xx_hal_adc.c ****                               ADC_FLAG_AWD1  | ADC_FLAG_OVR  |
 789:Drivers/STM32U0xx_HAL_Driver/Src/stm32u0xx_hal_adc.c ****                               ADC_FLAG_EOS   | ADC_FLAG_EOC  |
 790:Drivers/STM32U0xx_HAL_Driver/Src/stm32u0xx_hal_adc.c ****                               ADC_FLAG_EOCAL | ADC_FLAG_EOSMP | ADC_FLAG_RDY));
 791:Drivers/STM32U0xx_HAL_Driver/Src/stm32u0xx_hal_adc.c **** 
 792:Drivers/STM32U0xx_HAL_Driver/Src/stm32u0xx_hal_adc.c ****   /* Reset register CR */
 793:Drivers/STM32U0xx_HAL_Driver/Src/stm32u0xx_hal_adc.c ****   /* Bits ADC_CR_ADCAL, ADC_CR_ADSTP, ADC_CR_ADSTART are in access mode     */
 794:Drivers/STM32U0xx_HAL_Driver/Src/stm32u0xx_hal_adc.c ****   /* "read-set": no direct reset applicable.                                */
 795:Drivers/STM32U0xx_HAL_Driver/Src/stm32u0xx_hal_adc.c **** 
 796:Drivers/STM32U0xx_HAL_Driver/Src/stm32u0xx_hal_adc.c ****   /* Reset register CFGR1 */
 797:Drivers/STM32U0xx_HAL_Driver/Src/stm32u0xx_hal_adc.c ****   hadc->Instance->CFGR1 &= ~(ADC_CFGR1_AWD1CH   | ADC_CFGR1_AWD1EN  | ADC_CFGR1_AWD1SGL | ADC_CFGR1
 798:Drivers/STM32U0xx_HAL_Driver/Src/stm32u0xx_hal_adc.c ****                              ADC_CFGR1_CHSELRMOD | ADC_CFGR1_AUTOFF |
 799:Drivers/STM32U0xx_HAL_Driver/Src/stm32u0xx_hal_adc.c ****                              ADC_CFGR1_WAIT | ADC_CFGR1_CONT | ADC_CFGR1_OVRMOD |
 800:Drivers/STM32U0xx_HAL_Driver/Src/stm32u0xx_hal_adc.c ****                              ADC_CFGR1_EXTEN   | ADC_CFGR1_EXTSEL | ADC_CFGR1_ALIGN  | ADC_CFGR1_RE
 801:Drivers/STM32U0xx_HAL_Driver/Src/stm32u0xx_hal_adc.c ****                              ADC_CFGR1_SCANDIR | ADC_CFGR1_DMACFG | ADC_CFGR1_DMAEN);
 802:Drivers/STM32U0xx_HAL_Driver/Src/stm32u0xx_hal_adc.c **** 
 803:Drivers/STM32U0xx_HAL_Driver/Src/stm32u0xx_hal_adc.c ****   /* Reset register SMPR */
 804:Drivers/STM32U0xx_HAL_Driver/Src/stm32u0xx_hal_adc.c ****   hadc->Instance->SMPR &= ~ADC_SMPR_SMP1;
 805:Drivers/STM32U0xx_HAL_Driver/Src/stm32u0xx_hal_adc.c **** 
 806:Drivers/STM32U0xx_HAL_Driver/Src/stm32u0xx_hal_adc.c ****   /* Reset register CHSELR */
 807:Drivers/STM32U0xx_HAL_Driver/Src/stm32u0xx_hal_adc.c ****   hadc->Instance->CHSELR &= ~(ADC_CHSELR_SQ_ALL);
 808:Drivers/STM32U0xx_HAL_Driver/Src/stm32u0xx_hal_adc.c **** 
 809:Drivers/STM32U0xx_HAL_Driver/Src/stm32u0xx_hal_adc.c ****   /* Reset register DR */
 810:Drivers/STM32U0xx_HAL_Driver/Src/stm32u0xx_hal_adc.c ****   /* bits in access mode read only, no direct reset applicable */
 811:Drivers/STM32U0xx_HAL_Driver/Src/stm32u0xx_hal_adc.c **** 
 812:Drivers/STM32U0xx_HAL_Driver/Src/stm32u0xx_hal_adc.c ****   /* Reset registers AWDxTR */
 813:Drivers/STM32U0xx_HAL_Driver/Src/stm32u0xx_hal_adc.c ****   hadc->Instance->AWD1TR &= ~(ADC_AWD1TR_HT1 | ADC_AWD1TR_LT1);
 814:Drivers/STM32U0xx_HAL_Driver/Src/stm32u0xx_hal_adc.c ****   hadc->Instance->AWD2TR &= ~(ADC_AWD2TR_HT2 | ADC_AWD2TR_LT2);
 815:Drivers/STM32U0xx_HAL_Driver/Src/stm32u0xx_hal_adc.c ****   hadc->Instance->AWD3TR &= ~(ADC_AWD3TR_HT3 | ADC_AWD3TR_LT3);
 816:Drivers/STM32U0xx_HAL_Driver/Src/stm32u0xx_hal_adc.c **** 
 817:Drivers/STM32U0xx_HAL_Driver/Src/stm32u0xx_hal_adc.c ****   /* Reset register CFGR2 */
 818:Drivers/STM32U0xx_HAL_Driver/Src/stm32u0xx_hal_adc.c ****   /* Note: CFGR2 reset done at the end of de-initialization due to          */
 819:Drivers/STM32U0xx_HAL_Driver/Src/stm32u0xx_hal_adc.c ****   /*       clock source reset                                               */
 820:Drivers/STM32U0xx_HAL_Driver/Src/stm32u0xx_hal_adc.c ****   /* Note: Update of ADC clock mode is conditioned to ADC state disabled:   */
 821:Drivers/STM32U0xx_HAL_Driver/Src/stm32u0xx_hal_adc.c ****   /*       already done above.                                              */
 822:Drivers/STM32U0xx_HAL_Driver/Src/stm32u0xx_hal_adc.c ****   hadc->Instance->CFGR2 &= ~ADC_CFGR2_CKMODE;
 823:Drivers/STM32U0xx_HAL_Driver/Src/stm32u0xx_hal_adc.c **** 
 824:Drivers/STM32U0xx_HAL_Driver/Src/stm32u0xx_hal_adc.c ****   /* Reset register CCR */
 825:Drivers/STM32U0xx_HAL_Driver/Src/stm32u0xx_hal_adc.c ****   ADC1_COMMON->CCR &= ~(ADC_CCR_VBATEN | ADC_CCR_TSEN | ADC_CCR_VREFEN | ADC_CCR_PRESC);
 826:Drivers/STM32U0xx_HAL_Driver/Src/stm32u0xx_hal_adc.c **** 
 827:Drivers/STM32U0xx_HAL_Driver/Src/stm32u0xx_hal_adc.c ****   /* ========== Hard reset ADC peripheral ========== */
 828:Drivers/STM32U0xx_HAL_Driver/Src/stm32u0xx_hal_adc.c ****   /* Performs a global reset of the entire ADC peripheral: ADC state is     */
ARM GAS  C:\Users\upo\AppData\Local\Temp\ccaBY4hr.s 			page 16


 829:Drivers/STM32U0xx_HAL_Driver/Src/stm32u0xx_hal_adc.c ****   /* forced to a similar state after device power-on.                       */
 830:Drivers/STM32U0xx_HAL_Driver/Src/stm32u0xx_hal_adc.c ****   /* Note: A possible implementation is to add RCC bus reset of ADC         */
 831:Drivers/STM32U0xx_HAL_Driver/Src/stm32u0xx_hal_adc.c ****   /* (for example, using macro                                              */
 832:Drivers/STM32U0xx_HAL_Driver/Src/stm32u0xx_hal_adc.c ****   /*  __HAL_RCC_ADC..._FORCE_RESET()/..._RELEASE_RESET()/..._CLK_DISABLE()) */
 833:Drivers/STM32U0xx_HAL_Driver/Src/stm32u0xx_hal_adc.c ****   /* in function "void HAL_ADC_MspDeInit(ADC_HandleTypeDef *hadc)":         */
 834:Drivers/STM32U0xx_HAL_Driver/Src/stm32u0xx_hal_adc.c **** #if (USE_HAL_ADC_REGISTER_CALLBACKS == 1)
 835:Drivers/STM32U0xx_HAL_Driver/Src/stm32u0xx_hal_adc.c ****   if (hadc->MspDeInitCallback == NULL)
 836:Drivers/STM32U0xx_HAL_Driver/Src/stm32u0xx_hal_adc.c ****   {
 837:Drivers/STM32U0xx_HAL_Driver/Src/stm32u0xx_hal_adc.c ****     hadc->MspDeInitCallback = HAL_ADC_MspDeInit; /* Legacy weak MspDeInit  */
 838:Drivers/STM32U0xx_HAL_Driver/Src/stm32u0xx_hal_adc.c ****   }
 839:Drivers/STM32U0xx_HAL_Driver/Src/stm32u0xx_hal_adc.c **** 
 840:Drivers/STM32U0xx_HAL_Driver/Src/stm32u0xx_hal_adc.c ****   /* DeInit the low level hardware */
 841:Drivers/STM32U0xx_HAL_Driver/Src/stm32u0xx_hal_adc.c ****   hadc->MspDeInitCallback(hadc);
 842:Drivers/STM32U0xx_HAL_Driver/Src/stm32u0xx_hal_adc.c **** #else
 843:Drivers/STM32U0xx_HAL_Driver/Src/stm32u0xx_hal_adc.c ****   /* DeInit the low level hardware */
 844:Drivers/STM32U0xx_HAL_Driver/Src/stm32u0xx_hal_adc.c ****   HAL_ADC_MspDeInit(hadc);
 845:Drivers/STM32U0xx_HAL_Driver/Src/stm32u0xx_hal_adc.c **** #endif /* USE_HAL_ADC_REGISTER_CALLBACKS */
 846:Drivers/STM32U0xx_HAL_Driver/Src/stm32u0xx_hal_adc.c **** 
 847:Drivers/STM32U0xx_HAL_Driver/Src/stm32u0xx_hal_adc.c ****   /* Reset HAL ADC handle variable */
 848:Drivers/STM32U0xx_HAL_Driver/Src/stm32u0xx_hal_adc.c ****   hadc->ADCGroupRegularSequencerRanks = 0x00000000UL;
 849:Drivers/STM32U0xx_HAL_Driver/Src/stm32u0xx_hal_adc.c **** 
 850:Drivers/STM32U0xx_HAL_Driver/Src/stm32u0xx_hal_adc.c ****   /* Set ADC error code to none */
 851:Drivers/STM32U0xx_HAL_Driver/Src/stm32u0xx_hal_adc.c ****   ADC_CLEAR_ERRORCODE(hadc);
 852:Drivers/STM32U0xx_HAL_Driver/Src/stm32u0xx_hal_adc.c **** 
 853:Drivers/STM32U0xx_HAL_Driver/Src/stm32u0xx_hal_adc.c ****   /* Set ADC state */
 854:Drivers/STM32U0xx_HAL_Driver/Src/stm32u0xx_hal_adc.c ****   hadc->State = HAL_ADC_STATE_RESET;
 855:Drivers/STM32U0xx_HAL_Driver/Src/stm32u0xx_hal_adc.c **** 
 856:Drivers/STM32U0xx_HAL_Driver/Src/stm32u0xx_hal_adc.c ****   __HAL_UNLOCK(hadc);
 857:Drivers/STM32U0xx_HAL_Driver/Src/stm32u0xx_hal_adc.c **** 
 858:Drivers/STM32U0xx_HAL_Driver/Src/stm32u0xx_hal_adc.c ****   return tmp_hal_status;
 859:Drivers/STM32U0xx_HAL_Driver/Src/stm32u0xx_hal_adc.c **** }
 860:Drivers/STM32U0xx_HAL_Driver/Src/stm32u0xx_hal_adc.c **** 
 861:Drivers/STM32U0xx_HAL_Driver/Src/stm32u0xx_hal_adc.c **** /**
 862:Drivers/STM32U0xx_HAL_Driver/Src/stm32u0xx_hal_adc.c ****   * @brief  Initialize the ADC MSP.
 863:Drivers/STM32U0xx_HAL_Driver/Src/stm32u0xx_hal_adc.c ****   * @param hadc ADC handle
 864:Drivers/STM32U0xx_HAL_Driver/Src/stm32u0xx_hal_adc.c ****   * @retval None
 865:Drivers/STM32U0xx_HAL_Driver/Src/stm32u0xx_hal_adc.c ****   */
 866:Drivers/STM32U0xx_HAL_Driver/Src/stm32u0xx_hal_adc.c **** __weak void HAL_ADC_MspInit(ADC_HandleTypeDef *hadc)
 867:Drivers/STM32U0xx_HAL_Driver/Src/stm32u0xx_hal_adc.c **** {
  29              		.loc 1 867 1 view -0
  30              		.cfi_startproc
  31              		@ args = 0, pretend = 0, frame = 0
  32              		@ frame_needed = 0, uses_anonymous_args = 0
  33              		@ link register save eliminated.
 868:Drivers/STM32U0xx_HAL_Driver/Src/stm32u0xx_hal_adc.c ****   /* Prevent unused argument(s) compilation warning */
 869:Drivers/STM32U0xx_HAL_Driver/Src/stm32u0xx_hal_adc.c ****   UNUSED(hadc);
  34              		.loc 1 869 3 view .LVU1
 870:Drivers/STM32U0xx_HAL_Driver/Src/stm32u0xx_hal_adc.c **** 
 871:Drivers/STM32U0xx_HAL_Driver/Src/stm32u0xx_hal_adc.c ****   /* NOTE : This function should not be modified. When the callback is needed,
 872:Drivers/STM32U0xx_HAL_Driver/Src/stm32u0xx_hal_adc.c ****             function HAL_ADC_MspInit must be implemented in the user file.
 873:Drivers/STM32U0xx_HAL_Driver/Src/stm32u0xx_hal_adc.c ****    */
 874:Drivers/STM32U0xx_HAL_Driver/Src/stm32u0xx_hal_adc.c **** }
  35              		.loc 1 874 1 is_stmt 0 view .LVU2
  36              		@ sp needed
  37 0000 7047     		bx	lr
  38              		.cfi_endproc
  39              	.LFE336:
ARM GAS  C:\Users\upo\AppData\Local\Temp\ccaBY4hr.s 			page 17


  41              		.global	__aeabi_uidiv
  42 0002 C046     		.section	.text.HAL_ADC_Init,"ax",%progbits
  43              		.align	1
  44              		.p2align 2,,3
  45              		.global	HAL_ADC_Init
  46              		.syntax unified
  47              		.code	16
  48              		.thumb_func
  50              	HAL_ADC_Init:
  51              	.LVL1:
  52              	.LFB334:
 381:Drivers/STM32U0xx_HAL_Driver/Src/stm32u0xx_hal_adc.c ****   HAL_StatusTypeDef tmp_hal_status = HAL_OK;
  53              		.loc 1 381 1 is_stmt 1 view -0
  54              		.cfi_startproc
  55              		@ args = 0, pretend = 0, frame = 8
  56              		@ frame_needed = 0, uses_anonymous_args = 0
 382:Drivers/STM32U0xx_HAL_Driver/Src/stm32u0xx_hal_adc.c ****   uint32_t tmp_cfgr1 = 0UL;
  57              		.loc 1 382 3 view .LVU4
 383:Drivers/STM32U0xx_HAL_Driver/Src/stm32u0xx_hal_adc.c ****   uint32_t tmp_cfgr2 = 0UL;
  58              		.loc 1 383 3 view .LVU5
 384:Drivers/STM32U0xx_HAL_Driver/Src/stm32u0xx_hal_adc.c ****   uint32_t tmp_adc_reg_is_conversion_on_going;
  59              		.loc 1 384 3 view .LVU6
 385:Drivers/STM32U0xx_HAL_Driver/Src/stm32u0xx_hal_adc.c ****   __IO uint32_t wait_loop_index = 0UL;
  60              		.loc 1 385 3 view .LVU7
 386:Drivers/STM32U0xx_HAL_Driver/Src/stm32u0xx_hal_adc.c **** 
  61              		.loc 1 386 3 view .LVU8
 381:Drivers/STM32U0xx_HAL_Driver/Src/stm32u0xx_hal_adc.c ****   HAL_StatusTypeDef tmp_hal_status = HAL_OK;
  62              		.loc 1 381 1 is_stmt 0 view .LVU9
  63 0000 F0B5     		push	{r4, r5, r6, r7, lr}
  64              	.LCFI0:
  65              		.cfi_def_cfa_offset 20
  66              		.cfi_offset 4, -20
  67              		.cfi_offset 5, -16
  68              		.cfi_offset 6, -12
  69              		.cfi_offset 7, -8
  70              		.cfi_offset 14, -4
  71 0002 D646     		mov	lr, r10
  72 0004 4F46     		mov	r7, r9
  73 0006 4646     		mov	r6, r8
 386:Drivers/STM32U0xx_HAL_Driver/Src/stm32u0xx_hal_adc.c **** 
  74              		.loc 1 386 17 view .LVU10
  75 0008 0023     		movs	r3, #0
 381:Drivers/STM32U0xx_HAL_Driver/Src/stm32u0xx_hal_adc.c ****   HAL_StatusTypeDef tmp_hal_status = HAL_OK;
  76              		.loc 1 381 1 view .LVU11
  77 000a C0B5     		push	{r6, r7, lr}
  78              	.LCFI1:
  79              		.cfi_def_cfa_offset 32
  80              		.cfi_offset 8, -32
  81              		.cfi_offset 9, -28
  82              		.cfi_offset 10, -24
  83 000c 82B0     		sub	sp, sp, #8
  84              	.LCFI2:
  85              		.cfi_def_cfa_offset 40
 381:Drivers/STM32U0xx_HAL_Driver/Src/stm32u0xx_hal_adc.c ****   HAL_StatusTypeDef tmp_hal_status = HAL_OK;
  86              		.loc 1 381 1 view .LVU12
  87 000e 041E     		subs	r4, r0, #0
 386:Drivers/STM32U0xx_HAL_Driver/Src/stm32u0xx_hal_adc.c **** 
ARM GAS  C:\Users\upo\AppData\Local\Temp\ccaBY4hr.s 			page 18


  88              		.loc 1 386 17 view .LVU13
  89 0010 0193     		str	r3, [sp, #4]
 389:Drivers/STM32U0xx_HAL_Driver/Src/stm32u0xx_hal_adc.c ****   {
  90              		.loc 1 389 3 is_stmt 1 view .LVU14
 389:Drivers/STM32U0xx_HAL_Driver/Src/stm32u0xx_hal_adc.c ****   {
  91              		.loc 1 389 6 is_stmt 0 view .LVU15
  92 0012 2CD0     		beq	.L4
 395:Drivers/STM32U0xx_HAL_Driver/Src/stm32u0xx_hal_adc.c ****   assert_param(IS_ADC_CLOCKPRESCALER(hadc->Init.ClockPrescaler));
  93              		.loc 1 395 3 is_stmt 1 view .LVU16
 396:Drivers/STM32U0xx_HAL_Driver/Src/stm32u0xx_hal_adc.c ****   assert_param(IS_ADC_RESOLUTION(hadc->Init.Resolution));
  94              		.loc 1 396 3 view .LVU17
 397:Drivers/STM32U0xx_HAL_Driver/Src/stm32u0xx_hal_adc.c ****   assert_param(IS_ADC_DATA_ALIGN(hadc->Init.DataAlign));
  95              		.loc 1 397 3 view .LVU18
 398:Drivers/STM32U0xx_HAL_Driver/Src/stm32u0xx_hal_adc.c ****   assert_param(IS_ADC_SCAN_MODE(hadc->Init.ScanConvMode));
  96              		.loc 1 398 3 view .LVU19
 399:Drivers/STM32U0xx_HAL_Driver/Src/stm32u0xx_hal_adc.c ****   assert_param(IS_FUNCTIONAL_STATE(hadc->Init.ContinuousConvMode));
  97              		.loc 1 399 3 view .LVU20
 400:Drivers/STM32U0xx_HAL_Driver/Src/stm32u0xx_hal_adc.c ****   assert_param(IS_ADC_EXTTRIG_EDGE(hadc->Init.ExternalTrigConvEdge));
  98              		.loc 1 400 3 view .LVU21
 401:Drivers/STM32U0xx_HAL_Driver/Src/stm32u0xx_hal_adc.c ****   assert_param(IS_ADC_EXTTRIG(hadc->Init.ExternalTrigConv));
  99              		.loc 1 401 3 view .LVU22
 402:Drivers/STM32U0xx_HAL_Driver/Src/stm32u0xx_hal_adc.c ****   assert_param(IS_FUNCTIONAL_STATE(hadc->Init.DMAContinuousRequests));
 100              		.loc 1 402 3 view .LVU23
 403:Drivers/STM32U0xx_HAL_Driver/Src/stm32u0xx_hal_adc.c ****   assert_param(IS_ADC_EOC_SELECTION(hadc->Init.EOCSelection));
 101              		.loc 1 403 3 view .LVU24
 404:Drivers/STM32U0xx_HAL_Driver/Src/stm32u0xx_hal_adc.c ****   assert_param(IS_ADC_OVERRUN(hadc->Init.Overrun));
 102              		.loc 1 404 3 view .LVU25
 405:Drivers/STM32U0xx_HAL_Driver/Src/stm32u0xx_hal_adc.c ****   assert_param(IS_FUNCTIONAL_STATE(hadc->Init.LowPowerAutoWait));
 103              		.loc 1 405 3 view .LVU26
 406:Drivers/STM32U0xx_HAL_Driver/Src/stm32u0xx_hal_adc.c ****   assert_param(IS_FUNCTIONAL_STATE(hadc->Init.LowPowerAutoPowerOff));
 104              		.loc 1 406 3 view .LVU27
 407:Drivers/STM32U0xx_HAL_Driver/Src/stm32u0xx_hal_adc.c ****   assert_param(IS_ADC_SAMPLE_TIME(hadc->Init.SamplingTimeCommon1));
 105              		.loc 1 407 3 view .LVU28
 408:Drivers/STM32U0xx_HAL_Driver/Src/stm32u0xx_hal_adc.c ****   assert_param(IS_ADC_SAMPLE_TIME(hadc->Init.SamplingTimeCommon2));
 106              		.loc 1 408 3 view .LVU29
 409:Drivers/STM32U0xx_HAL_Driver/Src/stm32u0xx_hal_adc.c ****   assert_param(IS_FUNCTIONAL_STATE(hadc->Init.OversamplingMode));
 107              		.loc 1 409 3 view .LVU30
 410:Drivers/STM32U0xx_HAL_Driver/Src/stm32u0xx_hal_adc.c ****   if (hadc->Init.OversamplingMode == ENABLE)
 108              		.loc 1 410 3 view .LVU31
 411:Drivers/STM32U0xx_HAL_Driver/Src/stm32u0xx_hal_adc.c ****   {
 109              		.loc 1 411 3 view .LVU32
 413:Drivers/STM32U0xx_HAL_Driver/Src/stm32u0xx_hal_adc.c ****     assert_param(IS_ADC_RIGHT_BIT_SHIFT(hadc->Init.Oversampling.RightBitShift));
 110              		.loc 1 413 5 view .LVU33
 414:Drivers/STM32U0xx_HAL_Driver/Src/stm32u0xx_hal_adc.c ****     assert_param(IS_ADC_TRIGGERED_OVERSAMPLING_MODE(hadc->Init.Oversampling.TriggeredMode));
 111              		.loc 1 414 5 view .LVU34
 415:Drivers/STM32U0xx_HAL_Driver/Src/stm32u0xx_hal_adc.c ****   }
 112              		.loc 1 415 5 view .LVU35
 417:Drivers/STM32U0xx_HAL_Driver/Src/stm32u0xx_hal_adc.c **** 
 113              		.loc 1 417 3 view .LVU36
 419:Drivers/STM32U0xx_HAL_Driver/Src/stm32u0xx_hal_adc.c ****   {
 114              		.loc 1 419 3 view .LVU37
 425:Drivers/STM32U0xx_HAL_Driver/Src/stm32u0xx_hal_adc.c ****     }
 115              		.loc 1 425 7 view .LVU38
 431:Drivers/STM32U0xx_HAL_Driver/Src/stm32u0xx_hal_adc.c **** 
 116              		.loc 1 431 3 view .LVU39
 435:Drivers/STM32U0xx_HAL_Driver/Src/stm32u0xx_hal_adc.c ****   {
 117              		.loc 1 435 3 view .LVU40
ARM GAS  C:\Users\upo\AppData\Local\Temp\ccaBY4hr.s 			page 19


 435:Drivers/STM32U0xx_HAL_Driver/Src/stm32u0xx_hal_adc.c ****   {
 118              		.loc 1 435 11 is_stmt 0 view .LVU41
 119 0014 856D     		ldr	r5, [r0, #88]
 435:Drivers/STM32U0xx_HAL_Driver/Src/stm32u0xx_hal_adc.c ****   {
 120              		.loc 1 435 6 view .LVU42
 121 0016 002D     		cmp	r5, #0
 122 0018 00D1     		bne	.LCB78
 123 001a CCE0     		b	.L42	@long jump
 124              	.LCB78:
 125              	.LVL2:
 126              	.L5:
 469:Drivers/STM32U0xx_HAL_Driver/Src/stm32u0xx_hal_adc.c ****   {
 127              		.loc 1 469 3 is_stmt 1 view .LVU43
 128              	.LBB162:
 129              	.LBB163:
 130              		.file 2 "Drivers/STM32U0xx_HAL_Driver/Inc/stm32u0xx_ll_adc.h"
   1:Drivers/STM32U0xx_HAL_Driver/Inc/stm32u0xx_ll_adc.h **** /**
   2:Drivers/STM32U0xx_HAL_Driver/Inc/stm32u0xx_ll_adc.h ****   ******************************************************************************
   3:Drivers/STM32U0xx_HAL_Driver/Inc/stm32u0xx_ll_adc.h ****   * @file    stm32u0xx_ll_adc.h
   4:Drivers/STM32U0xx_HAL_Driver/Inc/stm32u0xx_ll_adc.h ****   * @author  MCD Application Team
   5:Drivers/STM32U0xx_HAL_Driver/Inc/stm32u0xx_ll_adc.h ****   * @brief   Header file of ADC LL module.
   6:Drivers/STM32U0xx_HAL_Driver/Inc/stm32u0xx_ll_adc.h ****   ******************************************************************************
   7:Drivers/STM32U0xx_HAL_Driver/Inc/stm32u0xx_ll_adc.h ****   * @attention
   8:Drivers/STM32U0xx_HAL_Driver/Inc/stm32u0xx_ll_adc.h ****   *
   9:Drivers/STM32U0xx_HAL_Driver/Inc/stm32u0xx_ll_adc.h ****   * Copyright (c) 2023 STMicroelectronics.
  10:Drivers/STM32U0xx_HAL_Driver/Inc/stm32u0xx_ll_adc.h ****   * All rights reserved.
  11:Drivers/STM32U0xx_HAL_Driver/Inc/stm32u0xx_ll_adc.h ****   *
  12:Drivers/STM32U0xx_HAL_Driver/Inc/stm32u0xx_ll_adc.h ****   * This software is licensed under terms that can be found in the LICENSE file
  13:Drivers/STM32U0xx_HAL_Driver/Inc/stm32u0xx_ll_adc.h ****   * in the root directory of this software component.
  14:Drivers/STM32U0xx_HAL_Driver/Inc/stm32u0xx_ll_adc.h ****   * If no LICENSE file comes with this software, it is provided AS-IS.
  15:Drivers/STM32U0xx_HAL_Driver/Inc/stm32u0xx_ll_adc.h ****   *
  16:Drivers/STM32U0xx_HAL_Driver/Inc/stm32u0xx_ll_adc.h ****   ******************************************************************************
  17:Drivers/STM32U0xx_HAL_Driver/Inc/stm32u0xx_ll_adc.h ****   */
  18:Drivers/STM32U0xx_HAL_Driver/Inc/stm32u0xx_ll_adc.h **** 
  19:Drivers/STM32U0xx_HAL_Driver/Inc/stm32u0xx_ll_adc.h **** /* Define to prevent recursive inclusion -------------------------------------*/
  20:Drivers/STM32U0xx_HAL_Driver/Inc/stm32u0xx_ll_adc.h **** #ifndef STM32U0xx_LL_ADC_H
  21:Drivers/STM32U0xx_HAL_Driver/Inc/stm32u0xx_ll_adc.h **** #define STM32U0xx_LL_ADC_H
  22:Drivers/STM32U0xx_HAL_Driver/Inc/stm32u0xx_ll_adc.h **** 
  23:Drivers/STM32U0xx_HAL_Driver/Inc/stm32u0xx_ll_adc.h **** #ifdef __cplusplus
  24:Drivers/STM32U0xx_HAL_Driver/Inc/stm32u0xx_ll_adc.h **** extern "C" {
  25:Drivers/STM32U0xx_HAL_Driver/Inc/stm32u0xx_ll_adc.h **** #endif
  26:Drivers/STM32U0xx_HAL_Driver/Inc/stm32u0xx_ll_adc.h **** 
  27:Drivers/STM32U0xx_HAL_Driver/Inc/stm32u0xx_ll_adc.h **** /* Includes ------------------------------------------------------------------*/
  28:Drivers/STM32U0xx_HAL_Driver/Inc/stm32u0xx_ll_adc.h **** #include "stm32u0xx.h"
  29:Drivers/STM32U0xx_HAL_Driver/Inc/stm32u0xx_ll_adc.h **** 
  30:Drivers/STM32U0xx_HAL_Driver/Inc/stm32u0xx_ll_adc.h **** /** @addtogroup STM32U0xx_LL_Driver
  31:Drivers/STM32U0xx_HAL_Driver/Inc/stm32u0xx_ll_adc.h ****   * @{
  32:Drivers/STM32U0xx_HAL_Driver/Inc/stm32u0xx_ll_adc.h ****   */
  33:Drivers/STM32U0xx_HAL_Driver/Inc/stm32u0xx_ll_adc.h **** 
  34:Drivers/STM32U0xx_HAL_Driver/Inc/stm32u0xx_ll_adc.h **** #if defined (ADC1)
  35:Drivers/STM32U0xx_HAL_Driver/Inc/stm32u0xx_ll_adc.h **** 
  36:Drivers/STM32U0xx_HAL_Driver/Inc/stm32u0xx_ll_adc.h **** /** @defgroup ADC_LL ADC
  37:Drivers/STM32U0xx_HAL_Driver/Inc/stm32u0xx_ll_adc.h ****   * @{
  38:Drivers/STM32U0xx_HAL_Driver/Inc/stm32u0xx_ll_adc.h ****   */
  39:Drivers/STM32U0xx_HAL_Driver/Inc/stm32u0xx_ll_adc.h **** 
  40:Drivers/STM32U0xx_HAL_Driver/Inc/stm32u0xx_ll_adc.h **** /* Private types -------------------------------------------------------------*/
  41:Drivers/STM32U0xx_HAL_Driver/Inc/stm32u0xx_ll_adc.h **** /* Private variables ---------------------------------------------------------*/
ARM GAS  C:\Users\upo\AppData\Local\Temp\ccaBY4hr.s 			page 20


  42:Drivers/STM32U0xx_HAL_Driver/Inc/stm32u0xx_ll_adc.h **** 
  43:Drivers/STM32U0xx_HAL_Driver/Inc/stm32u0xx_ll_adc.h **** /* Private constants ---------------------------------------------------------*/
  44:Drivers/STM32U0xx_HAL_Driver/Inc/stm32u0xx_ll_adc.h **** /** @defgroup ADC_LL_Private_Constants ADC Private Constants
  45:Drivers/STM32U0xx_HAL_Driver/Inc/stm32u0xx_ll_adc.h ****   * @{
  46:Drivers/STM32U0xx_HAL_Driver/Inc/stm32u0xx_ll_adc.h ****   */
  47:Drivers/STM32U0xx_HAL_Driver/Inc/stm32u0xx_ll_adc.h **** 
  48:Drivers/STM32U0xx_HAL_Driver/Inc/stm32u0xx_ll_adc.h **** /* Internal mask for ADC group regular sequencer:                             */
  49:Drivers/STM32U0xx_HAL_Driver/Inc/stm32u0xx_ll_adc.h **** /* To select into literal LL_ADC_REG_RANK_x the relevant bits for:            */
  50:Drivers/STM32U0xx_HAL_Driver/Inc/stm32u0xx_ll_adc.h **** /* - sequencer rank bits position into the selected register                  */
  51:Drivers/STM32U0xx_HAL_Driver/Inc/stm32u0xx_ll_adc.h **** 
  52:Drivers/STM32U0xx_HAL_Driver/Inc/stm32u0xx_ll_adc.h **** #define ADC_REG_RANK_ID_SQRX_MASK          (ADC_CHANNEL_ID_NUMBER_MASK_POSBIT0)
  53:Drivers/STM32U0xx_HAL_Driver/Inc/stm32u0xx_ll_adc.h **** 
  54:Drivers/STM32U0xx_HAL_Driver/Inc/stm32u0xx_ll_adc.h **** /* Definition of ADC group regular sequencer bits information to be inserted  */
  55:Drivers/STM32U0xx_HAL_Driver/Inc/stm32u0xx_ll_adc.h **** /* into ADC group regular sequencer ranks literals definition.                */
  56:Drivers/STM32U0xx_HAL_Driver/Inc/stm32u0xx_ll_adc.h **** #define ADC_REG_RANK_1_SQRX_BITOFFSET_POS  ( 0UL) /* Equivalent to bitfield "ADC_CHSELR_SQ1" positi
  57:Drivers/STM32U0xx_HAL_Driver/Inc/stm32u0xx_ll_adc.h **** #define ADC_REG_RANK_2_SQRX_BITOFFSET_POS  ( 4UL) /* Equivalent to bitfield "ADC_CHSELR_SQ2" positi
  58:Drivers/STM32U0xx_HAL_Driver/Inc/stm32u0xx_ll_adc.h **** #define ADC_REG_RANK_3_SQRX_BITOFFSET_POS  ( 8UL) /* Equivalent to bitfield "ADC_CHSELR_SQ3" positi
  59:Drivers/STM32U0xx_HAL_Driver/Inc/stm32u0xx_ll_adc.h **** #define ADC_REG_RANK_4_SQRX_BITOFFSET_POS  (12UL) /* Equivalent to bitfield "ADC_CHSELR_SQ4" positi
  60:Drivers/STM32U0xx_HAL_Driver/Inc/stm32u0xx_ll_adc.h **** #define ADC_REG_RANK_5_SQRX_BITOFFSET_POS  (16UL) /* Equivalent to bitfield "ADC_CHSELR_SQ5" positi
  61:Drivers/STM32U0xx_HAL_Driver/Inc/stm32u0xx_ll_adc.h **** #define ADC_REG_RANK_6_SQRX_BITOFFSET_POS  (20UL) /* Equivalent to bitfield "ADC_CHSELR_SQ6" positi
  62:Drivers/STM32U0xx_HAL_Driver/Inc/stm32u0xx_ll_adc.h **** #define ADC_REG_RANK_7_SQRX_BITOFFSET_POS  (24UL) /* Equivalent to bitfield "ADC_CHSELR_SQ7" positi
  63:Drivers/STM32U0xx_HAL_Driver/Inc/stm32u0xx_ll_adc.h **** #define ADC_REG_RANK_8_SQRX_BITOFFSET_POS  (28UL) /* Equivalent to bitfield "ADC_CHSELR_SQ8" positi
  64:Drivers/STM32U0xx_HAL_Driver/Inc/stm32u0xx_ll_adc.h **** 
  65:Drivers/STM32U0xx_HAL_Driver/Inc/stm32u0xx_ll_adc.h **** 
  66:Drivers/STM32U0xx_HAL_Driver/Inc/stm32u0xx_ll_adc.h **** /* Internal mask for ADC group regular trigger:                               */
  67:Drivers/STM32U0xx_HAL_Driver/Inc/stm32u0xx_ll_adc.h **** /* To select into literal LL_ADC_REG_TRIG_x the relevant bits for:            */
  68:Drivers/STM32U0xx_HAL_Driver/Inc/stm32u0xx_ll_adc.h **** /* - regular trigger source                                                   */
  69:Drivers/STM32U0xx_HAL_Driver/Inc/stm32u0xx_ll_adc.h **** /* - regular trigger edge                                                     */
  70:Drivers/STM32U0xx_HAL_Driver/Inc/stm32u0xx_ll_adc.h **** #define ADC_REG_TRIG_EXT_EDGE_DEFAULT      (ADC_CFGR1_EXTEN_0) /* Trigger edge set to rising edge (
  71:Drivers/STM32U0xx_HAL_Driver/Inc/stm32u0xx_ll_adc.h ****                                                                   compatibility with some ADC on ot
  72:Drivers/STM32U0xx_HAL_Driver/Inc/stm32u0xx_ll_adc.h ****                                                                   having this setting set by HW def
  73:Drivers/STM32U0xx_HAL_Driver/Inc/stm32u0xx_ll_adc.h **** 
  74:Drivers/STM32U0xx_HAL_Driver/Inc/stm32u0xx_ll_adc.h **** /* Mask containing trigger source masks for each of possible                  */
  75:Drivers/STM32U0xx_HAL_Driver/Inc/stm32u0xx_ll_adc.h **** /* trigger edge selection duplicated with shifts [0; 4; 8; 12]                */
  76:Drivers/STM32U0xx_HAL_Driver/Inc/stm32u0xx_ll_adc.h **** /* corresponding to {SW start; ext trigger; ext trigger; ext trigger}.        */
  77:Drivers/STM32U0xx_HAL_Driver/Inc/stm32u0xx_ll_adc.h **** #define ADC_REG_TRIG_SOURCE_MASK           (((LL_ADC_REG_TRIG_SOFTWARE & ADC_CFGR1_EXTSEL) << (4U *
  78:Drivers/STM32U0xx_HAL_Driver/Inc/stm32u0xx_ll_adc.h ****                                             ((ADC_CFGR1_EXTSEL)                            << (4U *
  79:Drivers/STM32U0xx_HAL_Driver/Inc/stm32u0xx_ll_adc.h ****                                             ((ADC_CFGR1_EXTSEL)                            << (4U *
  80:Drivers/STM32U0xx_HAL_Driver/Inc/stm32u0xx_ll_adc.h ****                                             ((ADC_CFGR1_EXTSEL)                            << (4U *
  81:Drivers/STM32U0xx_HAL_Driver/Inc/stm32u0xx_ll_adc.h **** 
  82:Drivers/STM32U0xx_HAL_Driver/Inc/stm32u0xx_ll_adc.h **** /* Mask containing trigger edge masks for each of possible                    */
  83:Drivers/STM32U0xx_HAL_Driver/Inc/stm32u0xx_ll_adc.h **** /* trigger edge selection duplicated with shifts [0; 4; 8; 12]                */
  84:Drivers/STM32U0xx_HAL_Driver/Inc/stm32u0xx_ll_adc.h **** /* corresponding to {SW start; ext trigger; ext trigger; ext trigger}.        */
  85:Drivers/STM32U0xx_HAL_Driver/Inc/stm32u0xx_ll_adc.h **** #define ADC_REG_TRIG_EDGE_MASK             (((LL_ADC_REG_TRIG_SOFTWARE & ADC_CFGR1_EXTEN) << (4U * 
  86:Drivers/STM32U0xx_HAL_Driver/Inc/stm32u0xx_ll_adc.h ****                                             ((ADC_REG_TRIG_EXT_EDGE_DEFAULT)              << (4U * 
  87:Drivers/STM32U0xx_HAL_Driver/Inc/stm32u0xx_ll_adc.h ****                                             ((ADC_REG_TRIG_EXT_EDGE_DEFAULT)              << (4U * 
  88:Drivers/STM32U0xx_HAL_Driver/Inc/stm32u0xx_ll_adc.h ****                                             ((ADC_REG_TRIG_EXT_EDGE_DEFAULT)              << (4U * 
  89:Drivers/STM32U0xx_HAL_Driver/Inc/stm32u0xx_ll_adc.h **** 
  90:Drivers/STM32U0xx_HAL_Driver/Inc/stm32u0xx_ll_adc.h **** /* Definition of ADC group regular trigger bits information.                  */
  91:Drivers/STM32U0xx_HAL_Driver/Inc/stm32u0xx_ll_adc.h **** #define ADC_REG_TRIG_EXTSEL_BITOFFSET_POS  ( 6UL) /* Equivalent to bitfield "ADC_CFGR1_EXTSEL" posi
  92:Drivers/STM32U0xx_HAL_Driver/Inc/stm32u0xx_ll_adc.h **** #define ADC_REG_TRIG_EXTEN_BITOFFSET_POS   (10UL) /* Equivalent to bitfield "ADC_CFGR1_EXTEN" posit
  93:Drivers/STM32U0xx_HAL_Driver/Inc/stm32u0xx_ll_adc.h **** 
  94:Drivers/STM32U0xx_HAL_Driver/Inc/stm32u0xx_ll_adc.h **** 
  95:Drivers/STM32U0xx_HAL_Driver/Inc/stm32u0xx_ll_adc.h **** /* Internal mask for ADC channel:                                             */
  96:Drivers/STM32U0xx_HAL_Driver/Inc/stm32u0xx_ll_adc.h **** /* To select into literal LL_ADC_CHANNEL_x the relevant bits for:             */
  97:Drivers/STM32U0xx_HAL_Driver/Inc/stm32u0xx_ll_adc.h **** /* - channel identifier defined by number                                     */
  98:Drivers/STM32U0xx_HAL_Driver/Inc/stm32u0xx_ll_adc.h **** /* - channel identifier defined by bitfield                                   */
ARM GAS  C:\Users\upo\AppData\Local\Temp\ccaBY4hr.s 			page 21


  99:Drivers/STM32U0xx_HAL_Driver/Inc/stm32u0xx_ll_adc.h **** /* - channel differentiation between external channels (connected to          */
 100:Drivers/STM32U0xx_HAL_Driver/Inc/stm32u0xx_ll_adc.h **** /*   GPIO pins) and internal channels (connected to internal paths)           */
 101:Drivers/STM32U0xx_HAL_Driver/Inc/stm32u0xx_ll_adc.h **** #define ADC_CHANNEL_ID_NUMBER_MASK         (ADC_CFGR1_AWD1CH)
 102:Drivers/STM32U0xx_HAL_Driver/Inc/stm32u0xx_ll_adc.h **** #define ADC_CHANNEL_ID_BITFIELD_MASK       (ADC_CHSELR_CHSEL)
 103:Drivers/STM32U0xx_HAL_Driver/Inc/stm32u0xx_ll_adc.h **** #define ADC_CHANNEL_ID_NUMBER_MASK_SEQ     (ADC_CHSELR_SQ1 << ADC_CHANNEL_ID_NUMBER_BITOFFSET_POS) 
 104:Drivers/STM32U0xx_HAL_Driver/Inc/stm32u0xx_ll_adc.h ****   ADC_CHANNEL_ID_NUMBER_MASK with reduced range: on this STM32 series, ADC group regular sequencer,
 105:Drivers/STM32U0xx_HAL_Driver/Inc/stm32u0xx_ll_adc.h ****   if set to mode "fully configurable", can contain channels with a restricted channel number.
 106:Drivers/STM32U0xx_HAL_Driver/Inc/stm32u0xx_ll_adc.h ****   Refer to function @ref LL_ADC_REG_SetSequencerConfigurable(). */
 107:Drivers/STM32U0xx_HAL_Driver/Inc/stm32u0xx_ll_adc.h **** #define ADC_CHANNEL_ID_NUMBER_BITOFFSET_POS (26UL)              /* Equivalent to bitfield "ADC_CHAN
 108:Drivers/STM32U0xx_HAL_Driver/Inc/stm32u0xx_ll_adc.h ****                                                                    position in register */
 109:Drivers/STM32U0xx_HAL_Driver/Inc/stm32u0xx_ll_adc.h **** #define ADC_CHANNEL_ID_MASK                (ADC_CHANNEL_ID_NUMBER_MASK | ADC_CHANNEL_ID_BITFIELD_MA
 110:Drivers/STM32U0xx_HAL_Driver/Inc/stm32u0xx_ll_adc.h ****                                             ADC_CHANNEL_ID_INTERNAL_CH_MASK)
 111:Drivers/STM32U0xx_HAL_Driver/Inc/stm32u0xx_ll_adc.h **** /* Equivalent mask of ADC_CHANNEL_NUMBER_MASK aligned on register LSB (bit 0) */
 112:Drivers/STM32U0xx_HAL_Driver/Inc/stm32u0xx_ll_adc.h **** #define ADC_CHANNEL_ID_NUMBER_MASK_POSBIT0 (0x0000001FUL) /* Equivalent to shift: (ADC_CHANNEL_NUMB
 113:Drivers/STM32U0xx_HAL_Driver/Inc/stm32u0xx_ll_adc.h ****   >> [Position of bitfield "ADC_CHANNEL_NUMBER_MASK" in register]) */
 114:Drivers/STM32U0xx_HAL_Driver/Inc/stm32u0xx_ll_adc.h **** 
 115:Drivers/STM32U0xx_HAL_Driver/Inc/stm32u0xx_ll_adc.h **** /* Channel differentiation between external and internal channels */
 116:Drivers/STM32U0xx_HAL_Driver/Inc/stm32u0xx_ll_adc.h **** #define ADC_CHANNEL_ID_INTERNAL_CH         (0x80000000UL) /* Marker of internal channel */
 117:Drivers/STM32U0xx_HAL_Driver/Inc/stm32u0xx_ll_adc.h **** #define ADC_CHANNEL_ID_INTERNAL_CH_MASK    (ADC_CHANNEL_ID_INTERNAL_CH)
 118:Drivers/STM32U0xx_HAL_Driver/Inc/stm32u0xx_ll_adc.h **** 
 119:Drivers/STM32U0xx_HAL_Driver/Inc/stm32u0xx_ll_adc.h **** /* Definition of channels ID number information to be inserted into           */
 120:Drivers/STM32U0xx_HAL_Driver/Inc/stm32u0xx_ll_adc.h **** /* channels literals definition.                                              */
 121:Drivers/STM32U0xx_HAL_Driver/Inc/stm32u0xx_ll_adc.h **** #define ADC_CHANNEL_0_NUMBER               (0x00000000UL)
 122:Drivers/STM32U0xx_HAL_Driver/Inc/stm32u0xx_ll_adc.h **** #define ADC_CHANNEL_1_NUMBER               (ADC_CFGR1_AWD1CH_0)
 123:Drivers/STM32U0xx_HAL_Driver/Inc/stm32u0xx_ll_adc.h **** #define ADC_CHANNEL_2_NUMBER               (ADC_CFGR1_AWD1CH_1)
 124:Drivers/STM32U0xx_HAL_Driver/Inc/stm32u0xx_ll_adc.h **** #define ADC_CHANNEL_3_NUMBER               (ADC_CFGR1_AWD1CH_1 | ADC_CFGR1_AWD1CH_0)
 125:Drivers/STM32U0xx_HAL_Driver/Inc/stm32u0xx_ll_adc.h **** #define ADC_CHANNEL_4_NUMBER               (ADC_CFGR1_AWD1CH_2)
 126:Drivers/STM32U0xx_HAL_Driver/Inc/stm32u0xx_ll_adc.h **** #define ADC_CHANNEL_5_NUMBER               (ADC_CFGR1_AWD1CH_2 | ADC_CFGR1_AWD1CH_0)
 127:Drivers/STM32U0xx_HAL_Driver/Inc/stm32u0xx_ll_adc.h **** #define ADC_CHANNEL_6_NUMBER               (ADC_CFGR1_AWD1CH_2 | ADC_CFGR1_AWD1CH_1)
 128:Drivers/STM32U0xx_HAL_Driver/Inc/stm32u0xx_ll_adc.h **** #define ADC_CHANNEL_7_NUMBER               (ADC_CFGR1_AWD1CH_2 | ADC_CFGR1_AWD1CH_1 | ADC_CFGR1_AWD
 129:Drivers/STM32U0xx_HAL_Driver/Inc/stm32u0xx_ll_adc.h **** #define ADC_CHANNEL_8_NUMBER               (ADC_CFGR1_AWD1CH_3)
 130:Drivers/STM32U0xx_HAL_Driver/Inc/stm32u0xx_ll_adc.h **** #define ADC_CHANNEL_9_NUMBER               (ADC_CFGR1_AWD1CH_3 | ADC_CFGR1_AWD1CH_0)
 131:Drivers/STM32U0xx_HAL_Driver/Inc/stm32u0xx_ll_adc.h **** #define ADC_CHANNEL_10_NUMBER              (ADC_CFGR1_AWD1CH_3 | ADC_CFGR1_AWD1CH_1)
 132:Drivers/STM32U0xx_HAL_Driver/Inc/stm32u0xx_ll_adc.h **** #define ADC_CHANNEL_11_NUMBER              (ADC_CFGR1_AWD1CH_3 | ADC_CFGR1_AWD1CH_1 | ADC_CFGR1_AWD
 133:Drivers/STM32U0xx_HAL_Driver/Inc/stm32u0xx_ll_adc.h **** #define ADC_CHANNEL_12_NUMBER              (ADC_CFGR1_AWD1CH_3 | ADC_CFGR1_AWD1CH_2)
 134:Drivers/STM32U0xx_HAL_Driver/Inc/stm32u0xx_ll_adc.h **** #define ADC_CHANNEL_13_NUMBER              (ADC_CFGR1_AWD1CH_3 | ADC_CFGR1_AWD1CH_2 | ADC_CFGR1_AWD
 135:Drivers/STM32U0xx_HAL_Driver/Inc/stm32u0xx_ll_adc.h **** #define ADC_CHANNEL_14_NUMBER              (ADC_CFGR1_AWD1CH_3 | ADC_CFGR1_AWD1CH_2 | ADC_CFGR1_AWD
 136:Drivers/STM32U0xx_HAL_Driver/Inc/stm32u0xx_ll_adc.h **** #define ADC_CHANNEL_15_NUMBER              (ADC_CFGR1_AWD1CH_3 | ADC_CFGR1_AWD1CH_2 | \
 137:Drivers/STM32U0xx_HAL_Driver/Inc/stm32u0xx_ll_adc.h ****                                             ADC_CFGR1_AWD1CH_1 | ADC_CFGR1_AWD1CH_0)
 138:Drivers/STM32U0xx_HAL_Driver/Inc/stm32u0xx_ll_adc.h **** #define ADC_CHANNEL_16_NUMBER              (ADC_CFGR1_AWD1CH_4)
 139:Drivers/STM32U0xx_HAL_Driver/Inc/stm32u0xx_ll_adc.h **** #define ADC_CHANNEL_17_NUMBER              (ADC_CFGR1_AWD1CH_4 | ADC_CFGR1_AWD1CH_0)
 140:Drivers/STM32U0xx_HAL_Driver/Inc/stm32u0xx_ll_adc.h **** #define ADC_CHANNEL_18_NUMBER              (ADC_CFGR1_AWD1CH_4 | ADC_CFGR1_AWD1CH_1)
 141:Drivers/STM32U0xx_HAL_Driver/Inc/stm32u0xx_ll_adc.h **** #define ADC_CHANNEL_19_NUMBER              (ADC_CFGR1_AWD1CH_4 | ADC_CFGR1_AWD1CH_1 | ADC_CFGR1_AWD
 142:Drivers/STM32U0xx_HAL_Driver/Inc/stm32u0xx_ll_adc.h **** 
 143:Drivers/STM32U0xx_HAL_Driver/Inc/stm32u0xx_ll_adc.h **** /* Definition of channels ID bitfield information to be inserted into         */
 144:Drivers/STM32U0xx_HAL_Driver/Inc/stm32u0xx_ll_adc.h **** /* channels literals definition.                                              */
 145:Drivers/STM32U0xx_HAL_Driver/Inc/stm32u0xx_ll_adc.h **** #define ADC_CHANNEL_0_BITFIELD             (ADC_CHSELR_CHSEL0)
 146:Drivers/STM32U0xx_HAL_Driver/Inc/stm32u0xx_ll_adc.h **** #define ADC_CHANNEL_1_BITFIELD             (ADC_CHSELR_CHSEL1)
 147:Drivers/STM32U0xx_HAL_Driver/Inc/stm32u0xx_ll_adc.h **** #define ADC_CHANNEL_2_BITFIELD             (ADC_CHSELR_CHSEL2)
 148:Drivers/STM32U0xx_HAL_Driver/Inc/stm32u0xx_ll_adc.h **** #define ADC_CHANNEL_3_BITFIELD             (ADC_CHSELR_CHSEL3)
 149:Drivers/STM32U0xx_HAL_Driver/Inc/stm32u0xx_ll_adc.h **** #define ADC_CHANNEL_4_BITFIELD             (ADC_CHSELR_CHSEL4)
 150:Drivers/STM32U0xx_HAL_Driver/Inc/stm32u0xx_ll_adc.h **** #define ADC_CHANNEL_5_BITFIELD             (ADC_CHSELR_CHSEL5)
 151:Drivers/STM32U0xx_HAL_Driver/Inc/stm32u0xx_ll_adc.h **** #define ADC_CHANNEL_6_BITFIELD             (ADC_CHSELR_CHSEL6)
 152:Drivers/STM32U0xx_HAL_Driver/Inc/stm32u0xx_ll_adc.h **** #define ADC_CHANNEL_7_BITFIELD             (ADC_CHSELR_CHSEL7)
 153:Drivers/STM32U0xx_HAL_Driver/Inc/stm32u0xx_ll_adc.h **** #define ADC_CHANNEL_8_BITFIELD             (ADC_CHSELR_CHSEL8)
 154:Drivers/STM32U0xx_HAL_Driver/Inc/stm32u0xx_ll_adc.h **** #define ADC_CHANNEL_9_BITFIELD             (ADC_CHSELR_CHSEL9)
 155:Drivers/STM32U0xx_HAL_Driver/Inc/stm32u0xx_ll_adc.h **** #define ADC_CHANNEL_10_BITFIELD            (ADC_CHSELR_CHSEL10)
ARM GAS  C:\Users\upo\AppData\Local\Temp\ccaBY4hr.s 			page 22


 156:Drivers/STM32U0xx_HAL_Driver/Inc/stm32u0xx_ll_adc.h **** #define ADC_CHANNEL_11_BITFIELD            (ADC_CHSELR_CHSEL11)
 157:Drivers/STM32U0xx_HAL_Driver/Inc/stm32u0xx_ll_adc.h **** #define ADC_CHANNEL_12_BITFIELD            (ADC_CHSELR_CHSEL12)
 158:Drivers/STM32U0xx_HAL_Driver/Inc/stm32u0xx_ll_adc.h **** #define ADC_CHANNEL_13_BITFIELD            (ADC_CHSELR_CHSEL13)
 159:Drivers/STM32U0xx_HAL_Driver/Inc/stm32u0xx_ll_adc.h **** #define ADC_CHANNEL_14_BITFIELD            (ADC_CHSELR_CHSEL14)
 160:Drivers/STM32U0xx_HAL_Driver/Inc/stm32u0xx_ll_adc.h **** #define ADC_CHANNEL_15_BITFIELD            (ADC_CHSELR_CHSEL15)
 161:Drivers/STM32U0xx_HAL_Driver/Inc/stm32u0xx_ll_adc.h **** #define ADC_CHANNEL_16_BITFIELD            (ADC_CHSELR_CHSEL16)
 162:Drivers/STM32U0xx_HAL_Driver/Inc/stm32u0xx_ll_adc.h **** #define ADC_CHANNEL_17_BITFIELD            (ADC_CHSELR_CHSEL17)
 163:Drivers/STM32U0xx_HAL_Driver/Inc/stm32u0xx_ll_adc.h **** #define ADC_CHANNEL_18_BITFIELD            (ADC_CHSELR_CHSEL18)
 164:Drivers/STM32U0xx_HAL_Driver/Inc/stm32u0xx_ll_adc.h **** #define ADC_CHANNEL_19_BITFIELD            (ADC_CHSELR_CHSEL19)
 165:Drivers/STM32U0xx_HAL_Driver/Inc/stm32u0xx_ll_adc.h **** 
 166:Drivers/STM32U0xx_HAL_Driver/Inc/stm32u0xx_ll_adc.h **** /* Internal mask for ADC channel sampling time:                               */
 167:Drivers/STM32U0xx_HAL_Driver/Inc/stm32u0xx_ll_adc.h **** /* To select into literals LL_ADC_SAMPLINGTIME_x                              */
 168:Drivers/STM32U0xx_HAL_Driver/Inc/stm32u0xx_ll_adc.h **** /* the relevant bits for:                                                     */
 169:Drivers/STM32U0xx_HAL_Driver/Inc/stm32u0xx_ll_adc.h **** /* (concatenation of multiple bits used in register SMPR)                     */
 170:Drivers/STM32U0xx_HAL_Driver/Inc/stm32u0xx_ll_adc.h **** /* - ADC channels sampling time: setting channel wise, to map each channel    */
 171:Drivers/STM32U0xx_HAL_Driver/Inc/stm32u0xx_ll_adc.h **** /*   on one of the common sampling time available.                            */
 172:Drivers/STM32U0xx_HAL_Driver/Inc/stm32u0xx_ll_adc.h **** /* - ADC channels common sampling time: set a sampling time into one of the   */
 173:Drivers/STM32U0xx_HAL_Driver/Inc/stm32u0xx_ll_adc.h **** /*   common sampling time available.                                          */
 174:Drivers/STM32U0xx_HAL_Driver/Inc/stm32u0xx_ll_adc.h **** #define ADC_SAMPLING_TIME_CH_MASK          (ADC_CHANNEL_ID_BITFIELD_MASK << ADC_SMPR_SMPSEL0_BITOFF
 175:Drivers/STM32U0xx_HAL_Driver/Inc/stm32u0xx_ll_adc.h **** #define ADC_SAMPLING_TIME_SMP_MASK         (ADC_SMPR_SMP2 | ADC_SMPR_SMP1)
 176:Drivers/STM32U0xx_HAL_Driver/Inc/stm32u0xx_ll_adc.h **** #define ADC_SAMPLING_TIME_SMP_SHIFT_MASK   (ADC_SMPR_SMP2_BITOFFSET_POS | ADC_SMPR_SMP1_BITOFFSET_P
 177:Drivers/STM32U0xx_HAL_Driver/Inc/stm32u0xx_ll_adc.h **** 
 178:Drivers/STM32U0xx_HAL_Driver/Inc/stm32u0xx_ll_adc.h **** /* Internal mask for ADC analog watchdog:                                     */
 179:Drivers/STM32U0xx_HAL_Driver/Inc/stm32u0xx_ll_adc.h **** /* To select into literals LL_ADC_AWD_CHANNELx_xxx the relevant bits for:     */
 180:Drivers/STM32U0xx_HAL_Driver/Inc/stm32u0xx_ll_adc.h **** /* (concatenation of multiple bits used in different analog watchdogs,        */
 181:Drivers/STM32U0xx_HAL_Driver/Inc/stm32u0xx_ll_adc.h **** /* (feature of several watchdogs not available on all STM32 series)).         */
 182:Drivers/STM32U0xx_HAL_Driver/Inc/stm32u0xx_ll_adc.h **** /* - analog watchdog 1: monitored channel defined by number,                  */
 183:Drivers/STM32U0xx_HAL_Driver/Inc/stm32u0xx_ll_adc.h **** /*   selection of ADC group (ADC group regular).                              */
 184:Drivers/STM32U0xx_HAL_Driver/Inc/stm32u0xx_ll_adc.h **** /* - analog watchdog 2 and 3: monitored channel defined by bitfield, no       */
 185:Drivers/STM32U0xx_HAL_Driver/Inc/stm32u0xx_ll_adc.h **** /*   selection on groups.                                                     */
 186:Drivers/STM32U0xx_HAL_Driver/Inc/stm32u0xx_ll_adc.h **** 
 187:Drivers/STM32U0xx_HAL_Driver/Inc/stm32u0xx_ll_adc.h **** /* Internal register offset for ADC analog watchdog channel configuration */
 188:Drivers/STM32U0xx_HAL_Driver/Inc/stm32u0xx_ll_adc.h **** #define ADC_AWD_CR1_REGOFFSET              (0x00000000UL)
 189:Drivers/STM32U0xx_HAL_Driver/Inc/stm32u0xx_ll_adc.h **** #define ADC_AWD_CR2_REGOFFSET              (0x00100000UL)
 190:Drivers/STM32U0xx_HAL_Driver/Inc/stm32u0xx_ll_adc.h **** #define ADC_AWD_CR3_REGOFFSET              (0x00200000UL)
 191:Drivers/STM32U0xx_HAL_Driver/Inc/stm32u0xx_ll_adc.h **** 
 192:Drivers/STM32U0xx_HAL_Driver/Inc/stm32u0xx_ll_adc.h **** /* Register offset gap between AWD1 and AWD2-AWD3 configuration registers */
 193:Drivers/STM32U0xx_HAL_Driver/Inc/stm32u0xx_ll_adc.h **** /* (Set separately as ADC_AWD_CRX_REGOFFSET to spare 32 bits space */
 194:Drivers/STM32U0xx_HAL_Driver/Inc/stm32u0xx_ll_adc.h **** #define ADC_AWD_CR12_REGOFFSETGAP_MASK     (ADC_AWD2CR_AWD2CH_0)
 195:Drivers/STM32U0xx_HAL_Driver/Inc/stm32u0xx_ll_adc.h **** #define ADC_AWD_CR12_REGOFFSETGAP_VAL      (0x00000024UL)
 196:Drivers/STM32U0xx_HAL_Driver/Inc/stm32u0xx_ll_adc.h **** 
 197:Drivers/STM32U0xx_HAL_Driver/Inc/stm32u0xx_ll_adc.h **** #define ADC_AWD_CRX_REGOFFSET_MASK         (ADC_AWD_CR1_REGOFFSET | ADC_AWD_CR2_REGOFFSET | ADC_AWD
 198:Drivers/STM32U0xx_HAL_Driver/Inc/stm32u0xx_ll_adc.h **** #define ADC_AWD_CRX_REGOFFSET_BITOFFSET_POS (20UL)
 199:Drivers/STM32U0xx_HAL_Driver/Inc/stm32u0xx_ll_adc.h **** 
 200:Drivers/STM32U0xx_HAL_Driver/Inc/stm32u0xx_ll_adc.h **** #define ADC_AWD_CR1_CHANNEL_MASK           (ADC_CFGR1_AWD1CH | ADC_CFGR1_AWD1EN | ADC_CFGR1_AWD1SGL
 201:Drivers/STM32U0xx_HAL_Driver/Inc/stm32u0xx_ll_adc.h **** #define ADC_AWD_CR23_CHANNEL_MASK          (ADC_AWD2CR_AWD2CH)
 202:Drivers/STM32U0xx_HAL_Driver/Inc/stm32u0xx_ll_adc.h **** #define ADC_AWD_CR_ALL_CHANNEL_MASK        (ADC_AWD_CR1_CHANNEL_MASK | ADC_AWD_CR23_CHANNEL_MASK)
 203:Drivers/STM32U0xx_HAL_Driver/Inc/stm32u0xx_ll_adc.h **** 
 204:Drivers/STM32U0xx_HAL_Driver/Inc/stm32u0xx_ll_adc.h **** #define ADC_AWD_CRX_REGOFFSET_POS          (20UL)                      /* Position of bits ADC_AWD_
 205:Drivers/STM32U0xx_HAL_Driver/Inc/stm32u0xx_ll_adc.h ****                                                                           in ADC_AWD_CRX_REGOFFSET_
 206:Drivers/STM32U0xx_HAL_Driver/Inc/stm32u0xx_ll_adc.h **** 
 207:Drivers/STM32U0xx_HAL_Driver/Inc/stm32u0xx_ll_adc.h **** /* Internal register offset for ADC analog watchdog threshold configuration */
 208:Drivers/STM32U0xx_HAL_Driver/Inc/stm32u0xx_ll_adc.h **** #define ADC_AWD_TR1_REGOFFSET              (ADC_AWD_CR1_REGOFFSET)
 209:Drivers/STM32U0xx_HAL_Driver/Inc/stm32u0xx_ll_adc.h **** #define ADC_AWD_TR2_REGOFFSET              (ADC_AWD_CR2_REGOFFSET)
 210:Drivers/STM32U0xx_HAL_Driver/Inc/stm32u0xx_ll_adc.h **** #define ADC_AWD_TR3_REGOFFSET              (ADC_AWD_CR3_REGOFFSET + (1UL << ADC_AWD_CRX_REGOFFSET_B
 211:Drivers/STM32U0xx_HAL_Driver/Inc/stm32u0xx_ll_adc.h **** #define ADC_AWD_TRX_REGOFFSET_MASK         (ADC_AWD_TR1_REGOFFSET | ADC_AWD_TR2_REGOFFSET | ADC_AWD
 212:Drivers/STM32U0xx_HAL_Driver/Inc/stm32u0xx_ll_adc.h **** #define ADC_AWD_TRX_REGOFFSET_POS          (ADC_AWD_CRX_REGOFFSET_POS)      /* Position of bits ADC
ARM GAS  C:\Users\upo\AppData\Local\Temp\ccaBY4hr.s 			page 23


 213:Drivers/STM32U0xx_HAL_Driver/Inc/stm32u0xx_ll_adc.h ****                                                                                in ADC_AWD_TRX_REGOF
 214:Drivers/STM32U0xx_HAL_Driver/Inc/stm32u0xx_ll_adc.h **** #define ADC_AWD_TRX_BIT_HIGH_MASK          (0x00010000UL)                   /* Selection of 1 bit t
 215:Drivers/STM32U0xx_HAL_Driver/Inc/stm32u0xx_ll_adc.h ****                                                                                threshold high: mask
 216:Drivers/STM32U0xx_HAL_Driver/Inc/stm32u0xx_ll_adc.h **** #define ADC_AWD_TRX_BIT_HIGH_POS           (16UL)                           /* Selection of 1 bit t
 217:Drivers/STM32U0xx_HAL_Driver/Inc/stm32u0xx_ll_adc.h ****                                                                                threshold high: posi
 218:Drivers/STM32U0xx_HAL_Driver/Inc/stm32u0xx_ll_adc.h **** #define ADC_AWD_TRX_BIT_HIGH_SHIFT4        (ADC_AWD_TRX_BIT_HIGH_POS - 4UL) /* Shift of bit ADC_AWD
 219:Drivers/STM32U0xx_HAL_Driver/Inc/stm32u0xx_ll_adc.h ****                                                                                position to perform 
 220:Drivers/STM32U0xx_HAL_Driver/Inc/stm32u0xx_ll_adc.h **** #define ADC_AWD_TRX_REGOFFSET_BITOFFSET_POS (20UL)
 221:Drivers/STM32U0xx_HAL_Driver/Inc/stm32u0xx_ll_adc.h **** 
 222:Drivers/STM32U0xx_HAL_Driver/Inc/stm32u0xx_ll_adc.h **** 
 223:Drivers/STM32U0xx_HAL_Driver/Inc/stm32u0xx_ll_adc.h **** /* ADC registers bits positions */
 224:Drivers/STM32U0xx_HAL_Driver/Inc/stm32u0xx_ll_adc.h **** #define ADC_CFGR1_RES_BITOFFSET_POS        ( 3UL) /* Equivalent to bitfield "ADC_CFGR1_RES" positio
 225:Drivers/STM32U0xx_HAL_Driver/Inc/stm32u0xx_ll_adc.h **** #define ADC_CFGR1_AWDSGL_BITOFFSET_POS     (22UL) /* Equivalent to bitfield "ADC_CFGR1_AWDSGL" posi
 226:Drivers/STM32U0xx_HAL_Driver/Inc/stm32u0xx_ll_adc.h **** #define ADC_TR1_HT1_BITOFFSET_POS          (16UL) /* Equivalent to bitfield "ADC_TR1_HT1" position 
 227:Drivers/STM32U0xx_HAL_Driver/Inc/stm32u0xx_ll_adc.h **** #define ADC_CHSELR_CHSEL0_BITOFFSET_POS    ( 0UL) /* Equivalent to bitfield "ADC_CHSELR_CHSEL0" pos
 228:Drivers/STM32U0xx_HAL_Driver/Inc/stm32u0xx_ll_adc.h **** #define ADC_CHSELR_CHSEL1_BITOFFSET_POS    ( 1UL) /* Equivalent to bitfield "ADC_CHSELR_CHSEL1" pos
 229:Drivers/STM32U0xx_HAL_Driver/Inc/stm32u0xx_ll_adc.h **** #define ADC_CHSELR_CHSEL2_BITOFFSET_POS    ( 2UL) /* Equivalent to bitfield "ADC_CHSELR_CHSEL2" pos
 230:Drivers/STM32U0xx_HAL_Driver/Inc/stm32u0xx_ll_adc.h **** #define ADC_CHSELR_CHSEL3_BITOFFSET_POS    ( 3UL) /* Equivalent to bitfield "ADC_CHSELR_CHSEL3" pos
 231:Drivers/STM32U0xx_HAL_Driver/Inc/stm32u0xx_ll_adc.h **** #define ADC_CHSELR_CHSEL4_BITOFFSET_POS    ( 4UL) /* Equivalent to bitfield "ADC_CHSELR_CHSEL4" pos
 232:Drivers/STM32U0xx_HAL_Driver/Inc/stm32u0xx_ll_adc.h **** #define ADC_CHSELR_CHSEL5_BITOFFSET_POS    ( 5UL) /* Equivalent to bitfield "ADC_CHSELR_CHSEL5" pos
 233:Drivers/STM32U0xx_HAL_Driver/Inc/stm32u0xx_ll_adc.h **** #define ADC_CHSELR_CHSEL6_BITOFFSET_POS    ( 6UL) /* Equivalent to bitfield "ADC_CHSELR_CHSEL6" pos
 234:Drivers/STM32U0xx_HAL_Driver/Inc/stm32u0xx_ll_adc.h **** #define ADC_CHSELR_CHSEL7_BITOFFSET_POS    ( 7UL) /* Equivalent to bitfield "ADC_CHSELR_CHSEL7" pos
 235:Drivers/STM32U0xx_HAL_Driver/Inc/stm32u0xx_ll_adc.h **** #define ADC_CHSELR_CHSEL8_BITOFFSET_POS    ( 8UL) /* Equivalent to bitfield "ADC_CHSELR_CHSEL8" pos
 236:Drivers/STM32U0xx_HAL_Driver/Inc/stm32u0xx_ll_adc.h **** #define ADC_CHSELR_CHSEL9_BITOFFSET_POS    ( 9UL) /* Equivalent to bitfield "ADC_CHSELR_CHSEL9" pos
 237:Drivers/STM32U0xx_HAL_Driver/Inc/stm32u0xx_ll_adc.h **** #define ADC_CHSELR_CHSEL10_BITOFFSET_POS   (10UL) /* Equivalent to bitfield "ADC_CHSELR_CHSEL10" po
 238:Drivers/STM32U0xx_HAL_Driver/Inc/stm32u0xx_ll_adc.h **** #define ADC_CHSELR_CHSEL11_BITOFFSET_POS   (11UL) /* Equivalent to bitfield "ADC_CHSELR_CHSEL11" po
 239:Drivers/STM32U0xx_HAL_Driver/Inc/stm32u0xx_ll_adc.h **** #define ADC_CHSELR_CHSEL12_BITOFFSET_POS   (12UL) /* Equivalent to bitfield "ADC_CHSELR_CHSEL12" po
 240:Drivers/STM32U0xx_HAL_Driver/Inc/stm32u0xx_ll_adc.h **** #define ADC_CHSELR_CHSEL13_BITOFFSET_POS   (13UL) /* Equivalent to bitfield "ADC_CHSELR_CHSEL13" po
 241:Drivers/STM32U0xx_HAL_Driver/Inc/stm32u0xx_ll_adc.h **** #define ADC_CHSELR_CHSEL14_BITOFFSET_POS   (14UL) /* Equivalent to bitfield "ADC_CHSELR_CHSEL14" po
 242:Drivers/STM32U0xx_HAL_Driver/Inc/stm32u0xx_ll_adc.h **** #define ADC_CHSELR_CHSEL15_BITOFFSET_POS   (15UL) /* Equivalent to bitfield "ADC_CHSELR_CHSEL15" po
 243:Drivers/STM32U0xx_HAL_Driver/Inc/stm32u0xx_ll_adc.h **** #define ADC_CHSELR_CHSEL16_BITOFFSET_POS   (16UL) /* Equivalent to bitfield "ADC_CHSELR_CHSEL16" po
 244:Drivers/STM32U0xx_HAL_Driver/Inc/stm32u0xx_ll_adc.h **** #define ADC_CHSELR_CHSEL17_BITOFFSET_POS   (17UL) /* Equivalent to bitfield "ADC_CHSELR_CHSEL17" po
 245:Drivers/STM32U0xx_HAL_Driver/Inc/stm32u0xx_ll_adc.h **** #define ADC_CHSELR_CHSEL18_BITOFFSET_POS   (18UL) /* Equivalent to bitfield "ADC_CHSELR_CHSEL18" po
 246:Drivers/STM32U0xx_HAL_Driver/Inc/stm32u0xx_ll_adc.h **** #define ADC_CHSELR_CHSEL19_BITOFFSET_POS   (19UL) /* Equivalent to bitfield "ADC_CHSELR_CHSEL19" po
 247:Drivers/STM32U0xx_HAL_Driver/Inc/stm32u0xx_ll_adc.h **** #define ADC_SMPR_SMP1_BITOFFSET_POS        ( 0UL) /* Equivalent to bitfield "ADC_SMPR_SMP1" positio
 248:Drivers/STM32U0xx_HAL_Driver/Inc/stm32u0xx_ll_adc.h **** #define ADC_SMPR_SMP2_BITOFFSET_POS        ( 4UL) /* Equivalent to bitfield "ADC_SMPR_SMP2" positio
 249:Drivers/STM32U0xx_HAL_Driver/Inc/stm32u0xx_ll_adc.h **** #define ADC_SMPR_SMPSEL0_BITOFFSET_POS     ( 8UL) /* Equivalent to bitfield "ADC_SMPR_SMPSEL0" posi
 250:Drivers/STM32U0xx_HAL_Driver/Inc/stm32u0xx_ll_adc.h **** 
 251:Drivers/STM32U0xx_HAL_Driver/Inc/stm32u0xx_ll_adc.h **** 
 252:Drivers/STM32U0xx_HAL_Driver/Inc/stm32u0xx_ll_adc.h **** /* ADC registers bits groups */
 253:Drivers/STM32U0xx_HAL_Driver/Inc/stm32u0xx_ll_adc.h **** #define ADC_CR_BITS_PROPERTY_RS            (ADC_CR_ADCAL | ADC_CR_ADEN | ADC_CR_ADDIS \
 254:Drivers/STM32U0xx_HAL_Driver/Inc/stm32u0xx_ll_adc.h ****                                             | ADC_CR_ADSTART | ADC_CR_ADSTP)            /* ADC regi
 255:Drivers/STM32U0xx_HAL_Driver/Inc/stm32u0xx_ll_adc.h ****                                            HW property "rs": Software can read as well as set this 
 256:Drivers/STM32U0xx_HAL_Driver/Inc/stm32u0xx_ll_adc.h ****                                            Writing '0' has no effect on the bit value. */
 257:Drivers/STM32U0xx_HAL_Driver/Inc/stm32u0xx_ll_adc.h **** 
 258:Drivers/STM32U0xx_HAL_Driver/Inc/stm32u0xx_ll_adc.h **** 
 259:Drivers/STM32U0xx_HAL_Driver/Inc/stm32u0xx_ll_adc.h **** /* ADC internal channels related definitions */
 260:Drivers/STM32U0xx_HAL_Driver/Inc/stm32u0xx_ll_adc.h **** /* Internal voltage reference VrefInt */
 261:Drivers/STM32U0xx_HAL_Driver/Inc/stm32u0xx_ll_adc.h **** #define VREFINT_CAL_ADDR                   ((uint16_t*) (0x1FFF6EA4UL)) /* Internal voltage referen
 262:Drivers/STM32U0xx_HAL_Driver/Inc/stm32u0xx_ll_adc.h ****                                            parameter VREFINT_CAL: VrefInt ADC raw data acquired at 
 263:Drivers/STM32U0xx_HAL_Driver/Inc/stm32u0xx_ll_adc.h ****                                            (tolerance: +-5 DegC), Vref+ = 3.0 V (tolerance: +-10 mV
 264:Drivers/STM32U0xx_HAL_Driver/Inc/stm32u0xx_ll_adc.h **** #define VREFINT_CAL_VREF                   ( 3000UL)                    /* Analog voltage reference
 265:Drivers/STM32U0xx_HAL_Driver/Inc/stm32u0xx_ll_adc.h ****                                            with which VrefInt has been calibrated in production
 266:Drivers/STM32U0xx_HAL_Driver/Inc/stm32u0xx_ll_adc.h ****                                            (tolerance: +-10 mV) (unit: mV). */
 267:Drivers/STM32U0xx_HAL_Driver/Inc/stm32u0xx_ll_adc.h **** /* Temperature sensor */
 268:Drivers/STM32U0xx_HAL_Driver/Inc/stm32u0xx_ll_adc.h **** #define TEMPSENSOR_CAL1_ADDR               ((uint16_t*) (0x1FFF6E68UL)) /* Address of parameter TS_
 269:Drivers/STM32U0xx_HAL_Driver/Inc/stm32u0xx_ll_adc.h ****                                            temperature sensor ADC raw data acquired at temperature 
ARM GAS  C:\Users\upo\AppData\Local\Temp\ccaBY4hr.s 			page 24


 270:Drivers/STM32U0xx_HAL_Driver/Inc/stm32u0xx_ll_adc.h ****                                            (tolerance: +-5 DegC), Vref+ = 3.0 V (tolerance: +-10 mV
 271:Drivers/STM32U0xx_HAL_Driver/Inc/stm32u0xx_ll_adc.h **** #define TEMPSENSOR_CAL2_ADDR               ((uint16_t*) (0x1FFF6E8AUL)) /* Address of parameter TS_
 272:Drivers/STM32U0xx_HAL_Driver/Inc/stm32u0xx_ll_adc.h ****                                            temperature sensor ADC raw data acquired at temperature 
 273:Drivers/STM32U0xx_HAL_Driver/Inc/stm32u0xx_ll_adc.h ****                                            (tolerance: +-5 DegC), Vref+ = 3.0 V (tolerance: +-10 mV
 274:Drivers/STM32U0xx_HAL_Driver/Inc/stm32u0xx_ll_adc.h **** #define TEMPSENSOR_CAL1_TEMP               (( int32_t)   30)            /* Temperature at which tem
 275:Drivers/STM32U0xx_HAL_Driver/Inc/stm32u0xx_ll_adc.h ****                                            has been calibrated in production for data into TEMPSENS
 276:Drivers/STM32U0xx_HAL_Driver/Inc/stm32u0xx_ll_adc.h ****                                            (tolerance: +-5 DegC) (unit: DegC). */
 277:Drivers/STM32U0xx_HAL_Driver/Inc/stm32u0xx_ll_adc.h **** #define TEMPSENSOR_CAL2_TEMP               (( int32_t)  130)            /* Temperature at which tem
 278:Drivers/STM32U0xx_HAL_Driver/Inc/stm32u0xx_ll_adc.h ****                                            has been calibrated in production for data into TEMPSENS
 279:Drivers/STM32U0xx_HAL_Driver/Inc/stm32u0xx_ll_adc.h ****                                            (tolerance: +-5 DegC) (unit: DegC). */
 280:Drivers/STM32U0xx_HAL_Driver/Inc/stm32u0xx_ll_adc.h **** #define TEMPSENSOR_CAL_VREFANALOG          ( 3000UL)                    /* Analog voltage reference
 281:Drivers/STM32U0xx_HAL_Driver/Inc/stm32u0xx_ll_adc.h ****                                            with which temperature sensor has been calibrated in pro
 282:Drivers/STM32U0xx_HAL_Driver/Inc/stm32u0xx_ll_adc.h ****                                            (tolerance: +-10 mV) (unit: mV). */
 283:Drivers/STM32U0xx_HAL_Driver/Inc/stm32u0xx_ll_adc.h **** 
 284:Drivers/STM32U0xx_HAL_Driver/Inc/stm32u0xx_ll_adc.h **** /**
 285:Drivers/STM32U0xx_HAL_Driver/Inc/stm32u0xx_ll_adc.h ****   * @}
 286:Drivers/STM32U0xx_HAL_Driver/Inc/stm32u0xx_ll_adc.h ****   */
 287:Drivers/STM32U0xx_HAL_Driver/Inc/stm32u0xx_ll_adc.h **** 
 288:Drivers/STM32U0xx_HAL_Driver/Inc/stm32u0xx_ll_adc.h **** 
 289:Drivers/STM32U0xx_HAL_Driver/Inc/stm32u0xx_ll_adc.h **** /* Private macros ------------------------------------------------------------*/
 290:Drivers/STM32U0xx_HAL_Driver/Inc/stm32u0xx_ll_adc.h **** /** @defgroup ADC_LL_Private_Macros ADC Private Macros
 291:Drivers/STM32U0xx_HAL_Driver/Inc/stm32u0xx_ll_adc.h ****   * @{
 292:Drivers/STM32U0xx_HAL_Driver/Inc/stm32u0xx_ll_adc.h ****   */
 293:Drivers/STM32U0xx_HAL_Driver/Inc/stm32u0xx_ll_adc.h **** 
 294:Drivers/STM32U0xx_HAL_Driver/Inc/stm32u0xx_ll_adc.h **** /**
 295:Drivers/STM32U0xx_HAL_Driver/Inc/stm32u0xx_ll_adc.h ****   * @brief  Driver macro reserved for internal use: set a pointer to
 296:Drivers/STM32U0xx_HAL_Driver/Inc/stm32u0xx_ll_adc.h ****   *         a register from a register basis from which an offset
 297:Drivers/STM32U0xx_HAL_Driver/Inc/stm32u0xx_ll_adc.h ****   *         is applied.
 298:Drivers/STM32U0xx_HAL_Driver/Inc/stm32u0xx_ll_adc.h ****   * @param  __REG__ Register basis from which the offset is applied.
 299:Drivers/STM32U0xx_HAL_Driver/Inc/stm32u0xx_ll_adc.h ****   * @param  __REG_OFFFSET__ Offset to be applied (unit: number of registers).
 300:Drivers/STM32U0xx_HAL_Driver/Inc/stm32u0xx_ll_adc.h ****   * @retval Pointer to register address
 301:Drivers/STM32U0xx_HAL_Driver/Inc/stm32u0xx_ll_adc.h ****   */
 302:Drivers/STM32U0xx_HAL_Driver/Inc/stm32u0xx_ll_adc.h **** #define __ADC_PTR_REG_OFFSET(__REG__, __REG_OFFFSET__)                         \
 303:Drivers/STM32U0xx_HAL_Driver/Inc/stm32u0xx_ll_adc.h ****   ((__IO uint32_t *)((uint32_t) ((uint32_t)(&(__REG__)) + ((__REG_OFFFSET__) << 2UL))))
 304:Drivers/STM32U0xx_HAL_Driver/Inc/stm32u0xx_ll_adc.h **** 
 305:Drivers/STM32U0xx_HAL_Driver/Inc/stm32u0xx_ll_adc.h **** /**
 306:Drivers/STM32U0xx_HAL_Driver/Inc/stm32u0xx_ll_adc.h ****   * @}
 307:Drivers/STM32U0xx_HAL_Driver/Inc/stm32u0xx_ll_adc.h ****   */
 308:Drivers/STM32U0xx_HAL_Driver/Inc/stm32u0xx_ll_adc.h **** 
 309:Drivers/STM32U0xx_HAL_Driver/Inc/stm32u0xx_ll_adc.h **** 
 310:Drivers/STM32U0xx_HAL_Driver/Inc/stm32u0xx_ll_adc.h **** /* Exported types ------------------------------------------------------------*/
 311:Drivers/STM32U0xx_HAL_Driver/Inc/stm32u0xx_ll_adc.h **** #if defined(USE_FULL_LL_DRIVER)
 312:Drivers/STM32U0xx_HAL_Driver/Inc/stm32u0xx_ll_adc.h **** /** @defgroup ADC_LL_ES_INIT ADC Exported Init structure
 313:Drivers/STM32U0xx_HAL_Driver/Inc/stm32u0xx_ll_adc.h ****   * @{
 314:Drivers/STM32U0xx_HAL_Driver/Inc/stm32u0xx_ll_adc.h ****   */
 315:Drivers/STM32U0xx_HAL_Driver/Inc/stm32u0xx_ll_adc.h **** 
 316:Drivers/STM32U0xx_HAL_Driver/Inc/stm32u0xx_ll_adc.h **** /**
 317:Drivers/STM32U0xx_HAL_Driver/Inc/stm32u0xx_ll_adc.h ****   * @brief  Structure definition of some features of ADC common parameters
 318:Drivers/STM32U0xx_HAL_Driver/Inc/stm32u0xx_ll_adc.h ****   *         and multimode
 319:Drivers/STM32U0xx_HAL_Driver/Inc/stm32u0xx_ll_adc.h ****   *         (all ADC instances belonging to the same ADC common instance).
 320:Drivers/STM32U0xx_HAL_Driver/Inc/stm32u0xx_ll_adc.h ****   * @note   The setting of these parameters by function @ref LL_ADC_CommonInit()
 321:Drivers/STM32U0xx_HAL_Driver/Inc/stm32u0xx_ll_adc.h ****   *         is conditioned to ADC instances state (all ADC instances
 322:Drivers/STM32U0xx_HAL_Driver/Inc/stm32u0xx_ll_adc.h ****   *         sharing the same ADC common instance):
 323:Drivers/STM32U0xx_HAL_Driver/Inc/stm32u0xx_ll_adc.h ****   *         All ADC instances sharing the same ADC common instance must be
 324:Drivers/STM32U0xx_HAL_Driver/Inc/stm32u0xx_ll_adc.h ****   *         disabled.
 325:Drivers/STM32U0xx_HAL_Driver/Inc/stm32u0xx_ll_adc.h ****   */
 326:Drivers/STM32U0xx_HAL_Driver/Inc/stm32u0xx_ll_adc.h **** typedef struct
ARM GAS  C:\Users\upo\AppData\Local\Temp\ccaBY4hr.s 			page 25


 327:Drivers/STM32U0xx_HAL_Driver/Inc/stm32u0xx_ll_adc.h **** {
 328:Drivers/STM32U0xx_HAL_Driver/Inc/stm32u0xx_ll_adc.h ****   uint32_t CommonClock;                 /*!< Set parameter common to several ADC: Clock source and 
 329:Drivers/STM32U0xx_HAL_Driver/Inc/stm32u0xx_ll_adc.h ****                                              This parameter can be a value of @ref ADC_LL_EC_COMMON
 330:Drivers/STM32U0xx_HAL_Driver/Inc/stm32u0xx_ll_adc.h ****                                              This feature can be modified afterwards using unitary 
 331:Drivers/STM32U0xx_HAL_Driver/Inc/stm32u0xx_ll_adc.h ****                                              @ref LL_ADC_SetCommonClock(). */
 332:Drivers/STM32U0xx_HAL_Driver/Inc/stm32u0xx_ll_adc.h **** 
 333:Drivers/STM32U0xx_HAL_Driver/Inc/stm32u0xx_ll_adc.h **** } LL_ADC_CommonInitTypeDef;
 334:Drivers/STM32U0xx_HAL_Driver/Inc/stm32u0xx_ll_adc.h **** 
 335:Drivers/STM32U0xx_HAL_Driver/Inc/stm32u0xx_ll_adc.h **** /**
 336:Drivers/STM32U0xx_HAL_Driver/Inc/stm32u0xx_ll_adc.h ****   * @brief  Structure definition of some features of ADC instance.
 337:Drivers/STM32U0xx_HAL_Driver/Inc/stm32u0xx_ll_adc.h ****   * @note   These parameters have an impact on ADC scope: ADC instance.
 338:Drivers/STM32U0xx_HAL_Driver/Inc/stm32u0xx_ll_adc.h ****   *         Refer to corresponding unitary functions into
 339:Drivers/STM32U0xx_HAL_Driver/Inc/stm32u0xx_ll_adc.h ****   *         @ref ADC_LL_EF_Configuration_ADC_Instance .
 340:Drivers/STM32U0xx_HAL_Driver/Inc/stm32u0xx_ll_adc.h ****   * @note   The setting of these parameters by function @ref LL_ADC_Init()
 341:Drivers/STM32U0xx_HAL_Driver/Inc/stm32u0xx_ll_adc.h ****   *         is conditioned to ADC state:
 342:Drivers/STM32U0xx_HAL_Driver/Inc/stm32u0xx_ll_adc.h ****   *         ADC instance must be disabled.
 343:Drivers/STM32U0xx_HAL_Driver/Inc/stm32u0xx_ll_adc.h ****   *         This condition is applied to all ADC features, for efficiency
 344:Drivers/STM32U0xx_HAL_Driver/Inc/stm32u0xx_ll_adc.h ****   *         and compatibility over all STM32 series. However, the different
 345:Drivers/STM32U0xx_HAL_Driver/Inc/stm32u0xx_ll_adc.h ****   *         features can be set under different ADC state conditions
 346:Drivers/STM32U0xx_HAL_Driver/Inc/stm32u0xx_ll_adc.h ****   *         (setting possible with ADC enabled without conversion on going,
 347:Drivers/STM32U0xx_HAL_Driver/Inc/stm32u0xx_ll_adc.h ****   *         ADC enabled with conversion on going, ...)
 348:Drivers/STM32U0xx_HAL_Driver/Inc/stm32u0xx_ll_adc.h ****   *         Each feature can be updated afterwards with a unitary function
 349:Drivers/STM32U0xx_HAL_Driver/Inc/stm32u0xx_ll_adc.h ****   *         and potentially with ADC in a different state than disabled,
 350:Drivers/STM32U0xx_HAL_Driver/Inc/stm32u0xx_ll_adc.h ****   *         refer to description of each function for setting
 351:Drivers/STM32U0xx_HAL_Driver/Inc/stm32u0xx_ll_adc.h ****   *         conditioned to ADC state.
 352:Drivers/STM32U0xx_HAL_Driver/Inc/stm32u0xx_ll_adc.h ****   */
 353:Drivers/STM32U0xx_HAL_Driver/Inc/stm32u0xx_ll_adc.h **** typedef struct
 354:Drivers/STM32U0xx_HAL_Driver/Inc/stm32u0xx_ll_adc.h **** {
 355:Drivers/STM32U0xx_HAL_Driver/Inc/stm32u0xx_ll_adc.h ****   uint32_t Clock;                       /*!< Set ADC instance clock source and prescaler.
 356:Drivers/STM32U0xx_HAL_Driver/Inc/stm32u0xx_ll_adc.h ****                                              This parameter can be a value of @ref ADC_LL_EC_CLOCK_
 357:Drivers/STM32U0xx_HAL_Driver/Inc/stm32u0xx_ll_adc.h ****                                             @note On this STM32 series, this parameter has some clo
 358:Drivers/STM32U0xx_HAL_Driver/Inc/stm32u0xx_ll_adc.h ****                                                   ADC clock synchronous (from PCLK) with prescaler 
 359:Drivers/STM32U0xx_HAL_Driver/Inc/stm32u0xx_ll_adc.h ****                                                   only if PCLK has a 50% duty clock cycle (APB pres
 360:Drivers/STM32U0xx_HAL_Driver/Inc/stm32u0xx_ll_adc.h ****                                                   inside the RCC must be bypassed and the system cl
 361:Drivers/STM32U0xx_HAL_Driver/Inc/stm32u0xx_ll_adc.h ****                                                   cycle).
 362:Drivers/STM32U0xx_HAL_Driver/Inc/stm32u0xx_ll_adc.h ****                                              This feature can be modified afterwards using unitary 
 363:Drivers/STM32U0xx_HAL_Driver/Inc/stm32u0xx_ll_adc.h ****                                              @ref LL_ADC_SetClock().
 364:Drivers/STM32U0xx_HAL_Driver/Inc/stm32u0xx_ll_adc.h ****                                              For more details, refer to description of this functio
 365:Drivers/STM32U0xx_HAL_Driver/Inc/stm32u0xx_ll_adc.h **** 
 366:Drivers/STM32U0xx_HAL_Driver/Inc/stm32u0xx_ll_adc.h ****   uint32_t Resolution;                  /*!< Set ADC resolution.
 367:Drivers/STM32U0xx_HAL_Driver/Inc/stm32u0xx_ll_adc.h ****                                              This parameter can be a value of @ref ADC_LL_EC_RESOLU
 368:Drivers/STM32U0xx_HAL_Driver/Inc/stm32u0xx_ll_adc.h ****                                              This feature can be modified afterwards using unitary 
 369:Drivers/STM32U0xx_HAL_Driver/Inc/stm32u0xx_ll_adc.h ****                                              @ref LL_ADC_SetResolution(). */
 370:Drivers/STM32U0xx_HAL_Driver/Inc/stm32u0xx_ll_adc.h **** 
 371:Drivers/STM32U0xx_HAL_Driver/Inc/stm32u0xx_ll_adc.h ****   uint32_t DataAlignment;               /*!< Set ADC conversion data alignment.
 372:Drivers/STM32U0xx_HAL_Driver/Inc/stm32u0xx_ll_adc.h ****                                              This parameter can be a value of @ref ADC_LL_EC_DATA_A
 373:Drivers/STM32U0xx_HAL_Driver/Inc/stm32u0xx_ll_adc.h ****                                              This feature can be modified afterwards using unitary 
 374:Drivers/STM32U0xx_HAL_Driver/Inc/stm32u0xx_ll_adc.h ****                                              @ref LL_ADC_SetDataAlignment(). */
 375:Drivers/STM32U0xx_HAL_Driver/Inc/stm32u0xx_ll_adc.h **** 
 376:Drivers/STM32U0xx_HAL_Driver/Inc/stm32u0xx_ll_adc.h ****   uint32_t LowPowerMode;                /*!< Set ADC low power mode.
 377:Drivers/STM32U0xx_HAL_Driver/Inc/stm32u0xx_ll_adc.h ****                                              This parameter can be a value of @ref ADC_LL_EC_LP_MOD
 378:Drivers/STM32U0xx_HAL_Driver/Inc/stm32u0xx_ll_adc.h ****                                              This feature can be modified afterwards using unitary 
 379:Drivers/STM32U0xx_HAL_Driver/Inc/stm32u0xx_ll_adc.h ****                                              @ref LL_ADC_SetLowPowerMode(). */
 380:Drivers/STM32U0xx_HAL_Driver/Inc/stm32u0xx_ll_adc.h **** 
 381:Drivers/STM32U0xx_HAL_Driver/Inc/stm32u0xx_ll_adc.h **** } LL_ADC_InitTypeDef;
 382:Drivers/STM32U0xx_HAL_Driver/Inc/stm32u0xx_ll_adc.h **** 
 383:Drivers/STM32U0xx_HAL_Driver/Inc/stm32u0xx_ll_adc.h **** /**
ARM GAS  C:\Users\upo\AppData\Local\Temp\ccaBY4hr.s 			page 26


 384:Drivers/STM32U0xx_HAL_Driver/Inc/stm32u0xx_ll_adc.h ****   * @brief  Structure definition of some features of ADC group regular.
 385:Drivers/STM32U0xx_HAL_Driver/Inc/stm32u0xx_ll_adc.h ****   * @note   These parameters have an impact on ADC scope: ADC group regular.
 386:Drivers/STM32U0xx_HAL_Driver/Inc/stm32u0xx_ll_adc.h ****   *         Refer to corresponding unitary functions into
 387:Drivers/STM32U0xx_HAL_Driver/Inc/stm32u0xx_ll_adc.h ****   *         @ref ADC_LL_EF_Configuration_ADC_Group_Regular
 388:Drivers/STM32U0xx_HAL_Driver/Inc/stm32u0xx_ll_adc.h ****   *         (functions with prefix "REG").
 389:Drivers/STM32U0xx_HAL_Driver/Inc/stm32u0xx_ll_adc.h ****   * @note   The setting of these parameters by function @ref LL_ADC_REG_Init()
 390:Drivers/STM32U0xx_HAL_Driver/Inc/stm32u0xx_ll_adc.h ****   *         is conditioned to ADC state:
 391:Drivers/STM32U0xx_HAL_Driver/Inc/stm32u0xx_ll_adc.h ****   *         ADC instance must be disabled.
 392:Drivers/STM32U0xx_HAL_Driver/Inc/stm32u0xx_ll_adc.h ****   *         This condition is applied to all ADC features, for efficiency
 393:Drivers/STM32U0xx_HAL_Driver/Inc/stm32u0xx_ll_adc.h ****   *         and compatibility over all STM32 series. However, the different
 394:Drivers/STM32U0xx_HAL_Driver/Inc/stm32u0xx_ll_adc.h ****   *         features can be set under different ADC state conditions
 395:Drivers/STM32U0xx_HAL_Driver/Inc/stm32u0xx_ll_adc.h ****   *         (setting possible with ADC enabled without conversion on going,
 396:Drivers/STM32U0xx_HAL_Driver/Inc/stm32u0xx_ll_adc.h ****   *         ADC enabled with conversion on going, ...)
 397:Drivers/STM32U0xx_HAL_Driver/Inc/stm32u0xx_ll_adc.h ****   *         Each feature can be updated afterwards with a unitary function
 398:Drivers/STM32U0xx_HAL_Driver/Inc/stm32u0xx_ll_adc.h ****   *         and potentially with ADC in a different state than disabled,
 399:Drivers/STM32U0xx_HAL_Driver/Inc/stm32u0xx_ll_adc.h ****   *         refer to description of each function for setting
 400:Drivers/STM32U0xx_HAL_Driver/Inc/stm32u0xx_ll_adc.h ****   *         conditioned to ADC state.
 401:Drivers/STM32U0xx_HAL_Driver/Inc/stm32u0xx_ll_adc.h ****   */
 402:Drivers/STM32U0xx_HAL_Driver/Inc/stm32u0xx_ll_adc.h **** typedef struct
 403:Drivers/STM32U0xx_HAL_Driver/Inc/stm32u0xx_ll_adc.h **** {
 404:Drivers/STM32U0xx_HAL_Driver/Inc/stm32u0xx_ll_adc.h ****   uint32_t TriggerSource;               /*!< Set ADC group regular conversion trigger source: inter
 405:Drivers/STM32U0xx_HAL_Driver/Inc/stm32u0xx_ll_adc.h ****                                              from external peripheral (timer event, external interr
 406:Drivers/STM32U0xx_HAL_Driver/Inc/stm32u0xx_ll_adc.h ****                                              This parameter can be a value of @ref ADC_LL_EC_REG_TR
 407:Drivers/STM32U0xx_HAL_Driver/Inc/stm32u0xx_ll_adc.h ****                                              @note On this STM32 series, setting trigger source to 
 408:Drivers/STM32U0xx_HAL_Driver/Inc/stm32u0xx_ll_adc.h ****                                                    set trigger polarity to rising edge(default sett
 409:Drivers/STM32U0xx_HAL_Driver/Inc/stm32u0xx_ll_adc.h ****                                                    with some ADC on other STM32 series having this 
 410:Drivers/STM32U0xx_HAL_Driver/Inc/stm32u0xx_ll_adc.h ****                                                    default value).
 411:Drivers/STM32U0xx_HAL_Driver/Inc/stm32u0xx_ll_adc.h ****                                                    In case of need to modify trigger edge, use func
 412:Drivers/STM32U0xx_HAL_Driver/Inc/stm32u0xx_ll_adc.h ****                                                    @ref LL_ADC_REG_SetTriggerEdge().
 413:Drivers/STM32U0xx_HAL_Driver/Inc/stm32u0xx_ll_adc.h ****                                              This feature can be modified afterwards using unitary 
 414:Drivers/STM32U0xx_HAL_Driver/Inc/stm32u0xx_ll_adc.h ****                                              @ref LL_ADC_REG_SetTriggerSource(). */
 415:Drivers/STM32U0xx_HAL_Driver/Inc/stm32u0xx_ll_adc.h **** 
 416:Drivers/STM32U0xx_HAL_Driver/Inc/stm32u0xx_ll_adc.h ****   uint32_t SequencerLength;             /*!< Set ADC group regular sequencer length.
 417:Drivers/STM32U0xx_HAL_Driver/Inc/stm32u0xx_ll_adc.h ****                                              @note This parameter has an effect only if group regul
 418:Drivers/STM32U0xx_HAL_Driver/Inc/stm32u0xx_ll_adc.h ****                                                     to mode "fully configurable". Refer to function
 419:Drivers/STM32U0xx_HAL_Driver/Inc/stm32u0xx_ll_adc.h ****                                                     @ref LL_ADC_REG_SetSequencerConfigurable().
 420:Drivers/STM32U0xx_HAL_Driver/Inc/stm32u0xx_ll_adc.h ****                                              This parameter can be a value of @ref ADC_LL_EC_REG_SE
 421:Drivers/STM32U0xx_HAL_Driver/Inc/stm32u0xx_ll_adc.h ****                                              This feature can be modified afterwards using unitary 
 422:Drivers/STM32U0xx_HAL_Driver/Inc/stm32u0xx_ll_adc.h ****                                              @ref LL_ADC_REG_SetSequencerLength(). */
 423:Drivers/STM32U0xx_HAL_Driver/Inc/stm32u0xx_ll_adc.h **** 
 424:Drivers/STM32U0xx_HAL_Driver/Inc/stm32u0xx_ll_adc.h ****   uint32_t SequencerDiscont;            /*!< Set ADC group regular sequencer discontinuous mode: se
 425:Drivers/STM32U0xx_HAL_Driver/Inc/stm32u0xx_ll_adc.h ****                                              and scan conversions interrupted every selected number
 426:Drivers/STM32U0xx_HAL_Driver/Inc/stm32u0xx_ll_adc.h ****                                              This parameter can be a value of @ref ADC_LL_EC_REG_SE
 427:Drivers/STM32U0xx_HAL_Driver/Inc/stm32u0xx_ll_adc.h ****                                              @note This parameter has an effect only if group regul
 428:Drivers/STM32U0xx_HAL_Driver/Inc/stm32u0xx_ll_adc.h ****                                                    enabled (depending on the sequencer mode: scan l
 429:Drivers/STM32U0xx_HAL_Driver/Inc/stm32u0xx_ll_adc.h ****                                                    more, or several ADC channels enabled in group r
 430:Drivers/STM32U0xx_HAL_Driver/Inc/stm32u0xx_ll_adc.h ****                                                    Refer to function @ref LL_ADC_REG_SetSequencerCo
 431:Drivers/STM32U0xx_HAL_Driver/Inc/stm32u0xx_ll_adc.h ****                                              This feature can be modified afterwards using unitary 
 432:Drivers/STM32U0xx_HAL_Driver/Inc/stm32u0xx_ll_adc.h ****                                              @ref LL_ADC_REG_SetSequencerDiscont(). */
 433:Drivers/STM32U0xx_HAL_Driver/Inc/stm32u0xx_ll_adc.h **** 
 434:Drivers/STM32U0xx_HAL_Driver/Inc/stm32u0xx_ll_adc.h ****   uint32_t ContinuousMode;              /*!< Set ADC continuous conversion mode on ADC group regula
 435:Drivers/STM32U0xx_HAL_Driver/Inc/stm32u0xx_ll_adc.h ****                                              conversions are performed in single mode (one conversi
 436:Drivers/STM32U0xx_HAL_Driver/Inc/stm32u0xx_ll_adc.h ****                                              continuous mode (after the first trigger, following co
 437:Drivers/STM32U0xx_HAL_Driver/Inc/stm32u0xx_ll_adc.h ****                                              successively automatically).
 438:Drivers/STM32U0xx_HAL_Driver/Inc/stm32u0xx_ll_adc.h ****                                              This parameter can be a value of @ref ADC_LL_EC_REG_CO
 439:Drivers/STM32U0xx_HAL_Driver/Inc/stm32u0xx_ll_adc.h ****                                              Note: It is not possible to enable both ADC group regu
 440:Drivers/STM32U0xx_HAL_Driver/Inc/stm32u0xx_ll_adc.h ****                                                    and discontinuous mode.
ARM GAS  C:\Users\upo\AppData\Local\Temp\ccaBY4hr.s 			page 27


 441:Drivers/STM32U0xx_HAL_Driver/Inc/stm32u0xx_ll_adc.h ****                                              This feature can be modified afterwards using unitary 
 442:Drivers/STM32U0xx_HAL_Driver/Inc/stm32u0xx_ll_adc.h ****                                              @ref LL_ADC_REG_SetContinuousMode(). */
 443:Drivers/STM32U0xx_HAL_Driver/Inc/stm32u0xx_ll_adc.h **** 
 444:Drivers/STM32U0xx_HAL_Driver/Inc/stm32u0xx_ll_adc.h ****   uint32_t DMATransfer;                 /*!< Set ADC group regular conversion data transfer: no tra
 445:Drivers/STM32U0xx_HAL_Driver/Inc/stm32u0xx_ll_adc.h ****                                              by DMA, and DMA requests mode.
 446:Drivers/STM32U0xx_HAL_Driver/Inc/stm32u0xx_ll_adc.h ****                                              This parameter can be a value of @ref ADC_LL_EC_REG_DM
 447:Drivers/STM32U0xx_HAL_Driver/Inc/stm32u0xx_ll_adc.h ****                                              This feature can be modified afterwards using unitary 
 448:Drivers/STM32U0xx_HAL_Driver/Inc/stm32u0xx_ll_adc.h ****                                              @ref LL_ADC_REG_SetDMATransfer(). */
 449:Drivers/STM32U0xx_HAL_Driver/Inc/stm32u0xx_ll_adc.h **** 
 450:Drivers/STM32U0xx_HAL_Driver/Inc/stm32u0xx_ll_adc.h ****   uint32_t Overrun;                     /*!< Set ADC group regular behavior in case of overrun:
 451:Drivers/STM32U0xx_HAL_Driver/Inc/stm32u0xx_ll_adc.h ****                                              data preserved or overwritten.
 452:Drivers/STM32U0xx_HAL_Driver/Inc/stm32u0xx_ll_adc.h ****                                              This parameter can be a value of @ref ADC_LL_EC_REG_OV
 453:Drivers/STM32U0xx_HAL_Driver/Inc/stm32u0xx_ll_adc.h ****                                              This feature can be modified afterwards using unitary 
 454:Drivers/STM32U0xx_HAL_Driver/Inc/stm32u0xx_ll_adc.h ****                                              @ref LL_ADC_REG_SetOverrun(). */
 455:Drivers/STM32U0xx_HAL_Driver/Inc/stm32u0xx_ll_adc.h **** 
 456:Drivers/STM32U0xx_HAL_Driver/Inc/stm32u0xx_ll_adc.h **** } LL_ADC_REG_InitTypeDef;
 457:Drivers/STM32U0xx_HAL_Driver/Inc/stm32u0xx_ll_adc.h **** 
 458:Drivers/STM32U0xx_HAL_Driver/Inc/stm32u0xx_ll_adc.h **** /**
 459:Drivers/STM32U0xx_HAL_Driver/Inc/stm32u0xx_ll_adc.h ****   * @}
 460:Drivers/STM32U0xx_HAL_Driver/Inc/stm32u0xx_ll_adc.h ****   */
 461:Drivers/STM32U0xx_HAL_Driver/Inc/stm32u0xx_ll_adc.h **** #endif /* USE_FULL_LL_DRIVER */
 462:Drivers/STM32U0xx_HAL_Driver/Inc/stm32u0xx_ll_adc.h **** 
 463:Drivers/STM32U0xx_HAL_Driver/Inc/stm32u0xx_ll_adc.h **** /* Exported constants --------------------------------------------------------*/
 464:Drivers/STM32U0xx_HAL_Driver/Inc/stm32u0xx_ll_adc.h **** /** @defgroup ADC_LL_Exported_Constants ADC Exported Constants
 465:Drivers/STM32U0xx_HAL_Driver/Inc/stm32u0xx_ll_adc.h ****   * @{
 466:Drivers/STM32U0xx_HAL_Driver/Inc/stm32u0xx_ll_adc.h ****   */
 467:Drivers/STM32U0xx_HAL_Driver/Inc/stm32u0xx_ll_adc.h **** 
 468:Drivers/STM32U0xx_HAL_Driver/Inc/stm32u0xx_ll_adc.h **** /** @defgroup ADC_LL_EC_FLAG ADC flags
 469:Drivers/STM32U0xx_HAL_Driver/Inc/stm32u0xx_ll_adc.h ****   * @brief    Flags defines which can be used with LL_ADC_ReadReg function
 470:Drivers/STM32U0xx_HAL_Driver/Inc/stm32u0xx_ll_adc.h ****   * @{
 471:Drivers/STM32U0xx_HAL_Driver/Inc/stm32u0xx_ll_adc.h ****   */
 472:Drivers/STM32U0xx_HAL_Driver/Inc/stm32u0xx_ll_adc.h **** #define LL_ADC_FLAG_ADRDY                  ADC_ISR_ADRDY      /*!< ADC flag ADC instance ready */
 473:Drivers/STM32U0xx_HAL_Driver/Inc/stm32u0xx_ll_adc.h **** #define LL_ADC_FLAG_CCRDY                  ADC_ISR_CCRDY      /*!< ADC flag ADC channel configurati
 474:Drivers/STM32U0xx_HAL_Driver/Inc/stm32u0xx_ll_adc.h **** #define LL_ADC_FLAG_EOC                    ADC_ISR_EOC        /*!< ADC flag ADC group regular end o
 475:Drivers/STM32U0xx_HAL_Driver/Inc/stm32u0xx_ll_adc.h ****                                            conversion */
 476:Drivers/STM32U0xx_HAL_Driver/Inc/stm32u0xx_ll_adc.h **** #define LL_ADC_FLAG_EOS                    ADC_ISR_EOS        /*!< ADC flag ADC group regular end o
 477:Drivers/STM32U0xx_HAL_Driver/Inc/stm32u0xx_ll_adc.h ****                                            conversions */
 478:Drivers/STM32U0xx_HAL_Driver/Inc/stm32u0xx_ll_adc.h **** #define LL_ADC_FLAG_OVR                    ADC_ISR_OVR        /*!< ADC flag ADC group regular overr
 479:Drivers/STM32U0xx_HAL_Driver/Inc/stm32u0xx_ll_adc.h **** #define LL_ADC_FLAG_EOSMP                  ADC_ISR_EOSMP      /*!< ADC flag ADC group regular end o
 480:Drivers/STM32U0xx_HAL_Driver/Inc/stm32u0xx_ll_adc.h **** #define LL_ADC_FLAG_AWD1                   ADC_ISR_AWD1       /*!< ADC flag ADC analog watchdog 1 *
 481:Drivers/STM32U0xx_HAL_Driver/Inc/stm32u0xx_ll_adc.h **** #define LL_ADC_FLAG_AWD2                   ADC_ISR_AWD2       /*!< ADC flag ADC analog watchdog 2 *
 482:Drivers/STM32U0xx_HAL_Driver/Inc/stm32u0xx_ll_adc.h **** #define LL_ADC_FLAG_AWD3                   ADC_ISR_AWD3       /*!< ADC flag ADC analog watchdog 3 *
 483:Drivers/STM32U0xx_HAL_Driver/Inc/stm32u0xx_ll_adc.h **** #define LL_ADC_FLAG_EOCAL                  ADC_ISR_EOCAL      /*!< ADC flag end of calibration */
 484:Drivers/STM32U0xx_HAL_Driver/Inc/stm32u0xx_ll_adc.h **** /**
 485:Drivers/STM32U0xx_HAL_Driver/Inc/stm32u0xx_ll_adc.h ****   * @}
 486:Drivers/STM32U0xx_HAL_Driver/Inc/stm32u0xx_ll_adc.h ****   */
 487:Drivers/STM32U0xx_HAL_Driver/Inc/stm32u0xx_ll_adc.h **** 
 488:Drivers/STM32U0xx_HAL_Driver/Inc/stm32u0xx_ll_adc.h **** /** @defgroup ADC_LL_EC_IT ADC interruptions for configuration (interruption enable or disable)
 489:Drivers/STM32U0xx_HAL_Driver/Inc/stm32u0xx_ll_adc.h ****   * @brief    IT defines which can be used with LL_ADC_ReadReg and  LL_ADC_WriteReg functions
 490:Drivers/STM32U0xx_HAL_Driver/Inc/stm32u0xx_ll_adc.h ****   * @{
 491:Drivers/STM32U0xx_HAL_Driver/Inc/stm32u0xx_ll_adc.h ****   */
 492:Drivers/STM32U0xx_HAL_Driver/Inc/stm32u0xx_ll_adc.h **** #define LL_ADC_IT_ADRDY                    ADC_IER_ADRDYIE    /*!< ADC interruption ADC instance re
 493:Drivers/STM32U0xx_HAL_Driver/Inc/stm32u0xx_ll_adc.h **** #define LL_ADC_IT_CCRDY                    ADC_IER_CCRDYIE    /*!< ADC interruption channel configu
 494:Drivers/STM32U0xx_HAL_Driver/Inc/stm32u0xx_ll_adc.h **** #define LL_ADC_IT_EOC                      ADC_IER_EOCIE      /*!< ADC interruption ADC group regul
 495:Drivers/STM32U0xx_HAL_Driver/Inc/stm32u0xx_ll_adc.h ****                                                                    conversion */
 496:Drivers/STM32U0xx_HAL_Driver/Inc/stm32u0xx_ll_adc.h **** #define LL_ADC_IT_EOS                      ADC_IER_EOSIE      /*!< ADC interruption ADC group regul
 497:Drivers/STM32U0xx_HAL_Driver/Inc/stm32u0xx_ll_adc.h ****                                                                    conversions */
ARM GAS  C:\Users\upo\AppData\Local\Temp\ccaBY4hr.s 			page 28


 498:Drivers/STM32U0xx_HAL_Driver/Inc/stm32u0xx_ll_adc.h **** #define LL_ADC_IT_OVR                      ADC_IER_OVRIE      /*!< ADC interruption ADC group regul
 499:Drivers/STM32U0xx_HAL_Driver/Inc/stm32u0xx_ll_adc.h **** #define LL_ADC_IT_EOSMP                    ADC_IER_EOSMPIE    /*!< ADC interruption ADC group regul
 500:Drivers/STM32U0xx_HAL_Driver/Inc/stm32u0xx_ll_adc.h ****                                                                    phase */
 501:Drivers/STM32U0xx_HAL_Driver/Inc/stm32u0xx_ll_adc.h **** #define LL_ADC_IT_AWD1                     ADC_IER_AWD1IE     /*!< ADC interruption ADC analog watc
 502:Drivers/STM32U0xx_HAL_Driver/Inc/stm32u0xx_ll_adc.h **** #define LL_ADC_IT_AWD2                     ADC_IER_AWD2IE     /*!< ADC interruption ADC analog watc
 503:Drivers/STM32U0xx_HAL_Driver/Inc/stm32u0xx_ll_adc.h **** #define LL_ADC_IT_AWD3                     ADC_IER_AWD3IE     /*!< ADC interruption ADC analog watc
 504:Drivers/STM32U0xx_HAL_Driver/Inc/stm32u0xx_ll_adc.h **** #define LL_ADC_IT_EOCAL                    ADC_IER_EOCALIE    /*!< ADC interruption ADC end of cali
 505:Drivers/STM32U0xx_HAL_Driver/Inc/stm32u0xx_ll_adc.h **** /**
 506:Drivers/STM32U0xx_HAL_Driver/Inc/stm32u0xx_ll_adc.h ****   * @}
 507:Drivers/STM32U0xx_HAL_Driver/Inc/stm32u0xx_ll_adc.h ****   */
 508:Drivers/STM32U0xx_HAL_Driver/Inc/stm32u0xx_ll_adc.h **** 
 509:Drivers/STM32U0xx_HAL_Driver/Inc/stm32u0xx_ll_adc.h **** /** @defgroup ADC_LL_EC_REGISTERS  ADC registers compliant with specific purpose
 510:Drivers/STM32U0xx_HAL_Driver/Inc/stm32u0xx_ll_adc.h ****   * @{
 511:Drivers/STM32U0xx_HAL_Driver/Inc/stm32u0xx_ll_adc.h ****   */
 512:Drivers/STM32U0xx_HAL_Driver/Inc/stm32u0xx_ll_adc.h **** /* List of ADC registers intended to be used (most commonly) with             */
 513:Drivers/STM32U0xx_HAL_Driver/Inc/stm32u0xx_ll_adc.h **** /* DMA transfer.                                                              */
 514:Drivers/STM32U0xx_HAL_Driver/Inc/stm32u0xx_ll_adc.h **** /* Refer to function @ref LL_ADC_DMA_GetRegAddr().                            */
 515:Drivers/STM32U0xx_HAL_Driver/Inc/stm32u0xx_ll_adc.h **** #define LL_ADC_DMA_REG_REGULAR_DATA        (0x00000000UL)      /* ADC group regular conversion data
 516:Drivers/STM32U0xx_HAL_Driver/Inc/stm32u0xx_ll_adc.h ****                                            (corresponding to register DR) to be used with ADC confi
 517:Drivers/STM32U0xx_HAL_Driver/Inc/stm32u0xx_ll_adc.h ****                                            mode. Without DMA transfer, register accessed by LL func
 518:Drivers/STM32U0xx_HAL_Driver/Inc/stm32u0xx_ll_adc.h ****                                            @ref LL_ADC_REG_ReadConversionData32() and other
 519:Drivers/STM32U0xx_HAL_Driver/Inc/stm32u0xx_ll_adc.h ****                                            functions @ref LL_ADC_REG_ReadConversionDatax() */
 520:Drivers/STM32U0xx_HAL_Driver/Inc/stm32u0xx_ll_adc.h **** /**
 521:Drivers/STM32U0xx_HAL_Driver/Inc/stm32u0xx_ll_adc.h ****   * @}
 522:Drivers/STM32U0xx_HAL_Driver/Inc/stm32u0xx_ll_adc.h ****   */
 523:Drivers/STM32U0xx_HAL_Driver/Inc/stm32u0xx_ll_adc.h **** 
 524:Drivers/STM32U0xx_HAL_Driver/Inc/stm32u0xx_ll_adc.h **** /** @defgroup ADC_LL_EC_COMMON_CLOCK_SOURCE  ADC common - Clock source
 525:Drivers/STM32U0xx_HAL_Driver/Inc/stm32u0xx_ll_adc.h ****   * @{
 526:Drivers/STM32U0xx_HAL_Driver/Inc/stm32u0xx_ll_adc.h ****   */
 527:Drivers/STM32U0xx_HAL_Driver/Inc/stm32u0xx_ll_adc.h **** #define LL_ADC_CLOCK_ASYNC_DIV1            (0x00000000UL)                      /*!< ADC asynchronou
 528:Drivers/STM32U0xx_HAL_Driver/Inc/stm32u0xx_ll_adc.h ****                                            prescaler */
 529:Drivers/STM32U0xx_HAL_Driver/Inc/stm32u0xx_ll_adc.h **** #define LL_ADC_CLOCK_ASYNC_DIV2            (ADC_CCR_PRESC_0)                   /*!< ADC asynchronou
 530:Drivers/STM32U0xx_HAL_Driver/Inc/stm32u0xx_ll_adc.h ****                                            prescaler division by 2. Setting common to ADC instances
 531:Drivers/STM32U0xx_HAL_Driver/Inc/stm32u0xx_ll_adc.h ****                                            group, applied ADC instance wise to each instance clock 
 532:Drivers/STM32U0xx_HAL_Driver/Inc/stm32u0xx_ll_adc.h ****                                            asynchronous (refer to function @ref LL_ADC_SetClock() )
 533:Drivers/STM32U0xx_HAL_Driver/Inc/stm32u0xx_ll_adc.h **** #define LL_ADC_CLOCK_ASYNC_DIV4            (ADC_CCR_PRESC_1)                   /*!< ADC asynchronou
 534:Drivers/STM32U0xx_HAL_Driver/Inc/stm32u0xx_ll_adc.h ****                                            prescaler division by 4. Setting common to ADC instances
 535:Drivers/STM32U0xx_HAL_Driver/Inc/stm32u0xx_ll_adc.h ****                                            group, applied ADC instance wise to each  instance clock
 536:Drivers/STM32U0xx_HAL_Driver/Inc/stm32u0xx_ll_adc.h ****                                            asynchronous (refer to function @ref LL_ADC_SetClock() )
 537:Drivers/STM32U0xx_HAL_Driver/Inc/stm32u0xx_ll_adc.h **** #define LL_ADC_CLOCK_ASYNC_DIV6            (ADC_CCR_PRESC_1 | ADC_CCR_PRESC_0) /*!< ADC asynchronou
 538:Drivers/STM32U0xx_HAL_Driver/Inc/stm32u0xx_ll_adc.h ****                                            prescaler division by 6. Setting common to ADC instances
 539:Drivers/STM32U0xx_HAL_Driver/Inc/stm32u0xx_ll_adc.h ****                                            group, applied ADC instance wise to each instance clock 
 540:Drivers/STM32U0xx_HAL_Driver/Inc/stm32u0xx_ll_adc.h ****                                            asynchronous (refer to function @ref LL_ADC_SetClock() )
 541:Drivers/STM32U0xx_HAL_Driver/Inc/stm32u0xx_ll_adc.h **** #define LL_ADC_CLOCK_ASYNC_DIV8            (ADC_CCR_PRESC_2)                   /*!< ADC asynchronou
 542:Drivers/STM32U0xx_HAL_Driver/Inc/stm32u0xx_ll_adc.h ****                                            prescaler division by 8. Setting common to ADC instances
 543:Drivers/STM32U0xx_HAL_Driver/Inc/stm32u0xx_ll_adc.h ****                                            group, applied ADC instance wise to each instance clock 
 544:Drivers/STM32U0xx_HAL_Driver/Inc/stm32u0xx_ll_adc.h ****                                            asynchronous (refer to function @ref LL_ADC_SetClock() )
 545:Drivers/STM32U0xx_HAL_Driver/Inc/stm32u0xx_ll_adc.h **** #define LL_ADC_CLOCK_ASYNC_DIV10           (ADC_CCR_PRESC_2 | ADC_CCR_PRESC_0) /*!< ADC asynchronou
 546:Drivers/STM32U0xx_HAL_Driver/Inc/stm32u0xx_ll_adc.h ****                                            prescaler division by 10. Setting common to ADC instance
 547:Drivers/STM32U0xx_HAL_Driver/Inc/stm32u0xx_ll_adc.h ****                                            group, applied ADC instance wise to each instance clock 
 548:Drivers/STM32U0xx_HAL_Driver/Inc/stm32u0xx_ll_adc.h ****                                            asynchronous (refer to function @ref LL_ADC_SetClock() )
 549:Drivers/STM32U0xx_HAL_Driver/Inc/stm32u0xx_ll_adc.h **** #define LL_ADC_CLOCK_ASYNC_DIV12           (ADC_CCR_PRESC_2 | ADC_CCR_PRESC_1) /*!< ADC asynchronou
 550:Drivers/STM32U0xx_HAL_Driver/Inc/stm32u0xx_ll_adc.h ****                                            prescaler division by 12. Setting common to ADC instance
 551:Drivers/STM32U0xx_HAL_Driver/Inc/stm32u0xx_ll_adc.h ****                                            group, applied ADC instance wise to each instance clock 
 552:Drivers/STM32U0xx_HAL_Driver/Inc/stm32u0xx_ll_adc.h ****                                            asynchronous (refer to function @ref LL_ADC_SetClock() )
 553:Drivers/STM32U0xx_HAL_Driver/Inc/stm32u0xx_ll_adc.h **** #define LL_ADC_CLOCK_ASYNC_DIV16           (ADC_CCR_PRESC_2 | ADC_CCR_PRESC_1 \
 554:Drivers/STM32U0xx_HAL_Driver/Inc/stm32u0xx_ll_adc.h ****                                             | ADC_CCR_PRESC_0)                  /*!< ADC asynchrono
ARM GAS  C:\Users\upo\AppData\Local\Temp\ccaBY4hr.s 			page 29


 555:Drivers/STM32U0xx_HAL_Driver/Inc/stm32u0xx_ll_adc.h ****                                            prescaler division by 16. Setting common to ADC instance
 556:Drivers/STM32U0xx_HAL_Driver/Inc/stm32u0xx_ll_adc.h ****                                            group, applied ADC instance wise to each instance clock 
 557:Drivers/STM32U0xx_HAL_Driver/Inc/stm32u0xx_ll_adc.h ****                                            asynchronous (refer to function @ref LL_ADC_SetClock() )
 558:Drivers/STM32U0xx_HAL_Driver/Inc/stm32u0xx_ll_adc.h **** #define LL_ADC_CLOCK_ASYNC_DIV32           (ADC_CCR_PRESC_3)                   /*!< ADC asynchronou
 559:Drivers/STM32U0xx_HAL_Driver/Inc/stm32u0xx_ll_adc.h ****                                            prescaler division by 32. Setting common to ADC instance
 560:Drivers/STM32U0xx_HAL_Driver/Inc/stm32u0xx_ll_adc.h ****                                            group, applied ADC instance wise to each instance clock 
 561:Drivers/STM32U0xx_HAL_Driver/Inc/stm32u0xx_ll_adc.h ****                                            asynchronous (refer to function @ref LL_ADC_SetClock() )
 562:Drivers/STM32U0xx_HAL_Driver/Inc/stm32u0xx_ll_adc.h **** #define LL_ADC_CLOCK_ASYNC_DIV64           (ADC_CCR_PRESC_3 | ADC_CCR_PRESC_0) /*!< ADC asynchronou
 563:Drivers/STM32U0xx_HAL_Driver/Inc/stm32u0xx_ll_adc.h ****                                            prescaler division by 64. Setting common to ADC instance
 564:Drivers/STM32U0xx_HAL_Driver/Inc/stm32u0xx_ll_adc.h ****                                            group, applied ADC instance wise to each instance clock 
 565:Drivers/STM32U0xx_HAL_Driver/Inc/stm32u0xx_ll_adc.h ****                                            asynchronous (refer to function @ref LL_ADC_SetClock() )
 566:Drivers/STM32U0xx_HAL_Driver/Inc/stm32u0xx_ll_adc.h **** #define LL_ADC_CLOCK_ASYNC_DIV128          (ADC_CCR_PRESC_3 | ADC_CCR_PRESC_1) /*!< ADC asynchronou
 567:Drivers/STM32U0xx_HAL_Driver/Inc/stm32u0xx_ll_adc.h ****                                            prescaler division by 128. Setting common to ADC instanc
 568:Drivers/STM32U0xx_HAL_Driver/Inc/stm32u0xx_ll_adc.h ****                                            group, applied ADC instance wise to each instance clock 
 569:Drivers/STM32U0xx_HAL_Driver/Inc/stm32u0xx_ll_adc.h ****                                            asynchronous (refer to function @ref LL_ADC_SetClock() )
 570:Drivers/STM32U0xx_HAL_Driver/Inc/stm32u0xx_ll_adc.h **** #define LL_ADC_CLOCK_ASYNC_DIV256          (ADC_CCR_PRESC_3 | ADC_CCR_PRESC_1 \
 571:Drivers/STM32U0xx_HAL_Driver/Inc/stm32u0xx_ll_adc.h ****                                             | ADC_CCR_PRESC_0)                  /*!< ADC asynchrono
 572:Drivers/STM32U0xx_HAL_Driver/Inc/stm32u0xx_ll_adc.h ****                                            prescaler division by 256. Setting common to ADC instanc
 573:Drivers/STM32U0xx_HAL_Driver/Inc/stm32u0xx_ll_adc.h ****                                            group, applied ADC instance wise to each instance clock 
 574:Drivers/STM32U0xx_HAL_Driver/Inc/stm32u0xx_ll_adc.h ****                                            asynchronous (refer to function @ref LL_ADC_SetClock() )
 575:Drivers/STM32U0xx_HAL_Driver/Inc/stm32u0xx_ll_adc.h **** /**
 576:Drivers/STM32U0xx_HAL_Driver/Inc/stm32u0xx_ll_adc.h ****   * @}
 577:Drivers/STM32U0xx_HAL_Driver/Inc/stm32u0xx_ll_adc.h ****   */
 578:Drivers/STM32U0xx_HAL_Driver/Inc/stm32u0xx_ll_adc.h **** 
 579:Drivers/STM32U0xx_HAL_Driver/Inc/stm32u0xx_ll_adc.h **** /** @defgroup ADC_LL_EC_COMMON_PATH_INTERNAL  ADC common - Measurement path to internal channels
 580:Drivers/STM32U0xx_HAL_Driver/Inc/stm32u0xx_ll_adc.h ****   * @{
 581:Drivers/STM32U0xx_HAL_Driver/Inc/stm32u0xx_ll_adc.h ****   */
 582:Drivers/STM32U0xx_HAL_Driver/Inc/stm32u0xx_ll_adc.h **** /* Note: Other measurement paths to internal channels may be available        */
 583:Drivers/STM32U0xx_HAL_Driver/Inc/stm32u0xx_ll_adc.h **** /*       (connections to other peripherals).                                  */
 584:Drivers/STM32U0xx_HAL_Driver/Inc/stm32u0xx_ll_adc.h **** /*       If they are not listed below, they do not require any specific       */
 585:Drivers/STM32U0xx_HAL_Driver/Inc/stm32u0xx_ll_adc.h **** /*       path enable. In this case, Access to measurement path is done        */
 586:Drivers/STM32U0xx_HAL_Driver/Inc/stm32u0xx_ll_adc.h **** /*       only by selecting the corresponding ADC internal channel.            */
 587:Drivers/STM32U0xx_HAL_Driver/Inc/stm32u0xx_ll_adc.h **** #define LL_ADC_PATH_INTERNAL_NONE          (0x00000000UL)       /*!< ADC measurement paths all disa
 588:Drivers/STM32U0xx_HAL_Driver/Inc/stm32u0xx_ll_adc.h **** #define LL_ADC_PATH_INTERNAL_VREFINT       (ADC_CCR_VREFEN)     /*!< ADC measurement path to intern
 589:Drivers/STM32U0xx_HAL_Driver/Inc/stm32u0xx_ll_adc.h **** #define LL_ADC_PATH_INTERNAL_TEMPSENSOR    (ADC_CCR_TSEN)       /*!< ADC measurement path to intern
 590:Drivers/STM32U0xx_HAL_Driver/Inc/stm32u0xx_ll_adc.h ****                                                                      temperature sensor */
 591:Drivers/STM32U0xx_HAL_Driver/Inc/stm32u0xx_ll_adc.h **** #define LL_ADC_PATH_INTERNAL_VBAT          (ADC_CCR_VBATEN)     /*!< ADC measurement path to intern
 592:Drivers/STM32U0xx_HAL_Driver/Inc/stm32u0xx_ll_adc.h **** /**
 593:Drivers/STM32U0xx_HAL_Driver/Inc/stm32u0xx_ll_adc.h ****   * @}
 594:Drivers/STM32U0xx_HAL_Driver/Inc/stm32u0xx_ll_adc.h ****   */
 595:Drivers/STM32U0xx_HAL_Driver/Inc/stm32u0xx_ll_adc.h **** 
 596:Drivers/STM32U0xx_HAL_Driver/Inc/stm32u0xx_ll_adc.h **** /** @defgroup ADC_LL_EC_CLOCK_SOURCE  ADC instance - Clock source
 597:Drivers/STM32U0xx_HAL_Driver/Inc/stm32u0xx_ll_adc.h ****   * @{
 598:Drivers/STM32U0xx_HAL_Driver/Inc/stm32u0xx_ll_adc.h ****   */
 599:Drivers/STM32U0xx_HAL_Driver/Inc/stm32u0xx_ll_adc.h **** #define LL_ADC_CLOCK_SYNC_PCLK_DIV4        (ADC_CFGR2_CKMODE_1) /*!< ADC synchronous clock derived 
 600:Drivers/STM32U0xx_HAL_Driver/Inc/stm32u0xx_ll_adc.h ****                                            divided by 4 */
 601:Drivers/STM32U0xx_HAL_Driver/Inc/stm32u0xx_ll_adc.h **** #define LL_ADC_CLOCK_SYNC_PCLK_DIV2        (ADC_CFGR2_CKMODE_0) /*!< ADC synchronous clock derived 
 602:Drivers/STM32U0xx_HAL_Driver/Inc/stm32u0xx_ll_adc.h ****                                            divided by 2 */
 603:Drivers/STM32U0xx_HAL_Driver/Inc/stm32u0xx_ll_adc.h **** #define LL_ADC_CLOCK_SYNC_PCLK_DIV1        (ADC_CFGR2_CKMODE_1 \
 604:Drivers/STM32U0xx_HAL_Driver/Inc/stm32u0xx_ll_adc.h ****                                             | ADC_CFGR2_CKMODE_0) /*!< ADC synchronous clock derive
 605:Drivers/STM32U0xx_HAL_Driver/Inc/stm32u0xx_ll_adc.h ****                                            not divided */
 606:Drivers/STM32U0xx_HAL_Driver/Inc/stm32u0xx_ll_adc.h **** #define LL_ADC_CLOCK_ASYNC                 (0x00000000UL)       /*!< ADC asynchronous clock. Asynch
 607:Drivers/STM32U0xx_HAL_Driver/Inc/stm32u0xx_ll_adc.h ****                                            prescaler can be configured using function @ref LL_ADC_S
 608:Drivers/STM32U0xx_HAL_Driver/Inc/stm32u0xx_ll_adc.h **** /**
 609:Drivers/STM32U0xx_HAL_Driver/Inc/stm32u0xx_ll_adc.h ****   * @}
 610:Drivers/STM32U0xx_HAL_Driver/Inc/stm32u0xx_ll_adc.h ****   */
 611:Drivers/STM32U0xx_HAL_Driver/Inc/stm32u0xx_ll_adc.h **** 
ARM GAS  C:\Users\upo\AppData\Local\Temp\ccaBY4hr.s 			page 30


 612:Drivers/STM32U0xx_HAL_Driver/Inc/stm32u0xx_ll_adc.h **** /** @defgroup ADC_LL_EC_RESOLUTION  ADC instance - Resolution
 613:Drivers/STM32U0xx_HAL_Driver/Inc/stm32u0xx_ll_adc.h ****   * @{
 614:Drivers/STM32U0xx_HAL_Driver/Inc/stm32u0xx_ll_adc.h ****   */
 615:Drivers/STM32U0xx_HAL_Driver/Inc/stm32u0xx_ll_adc.h **** #define LL_ADC_RESOLUTION_12B              (0x00000000UL)                      /*!< ADC resolution 
 616:Drivers/STM32U0xx_HAL_Driver/Inc/stm32u0xx_ll_adc.h **** #define LL_ADC_RESOLUTION_10B              (                  ADC_CFGR1_RES_0) /*!< ADC resolution 
 617:Drivers/STM32U0xx_HAL_Driver/Inc/stm32u0xx_ll_adc.h **** #define LL_ADC_RESOLUTION_8B               (ADC_CFGR1_RES_1                  ) /*!< ADC resolution 
 618:Drivers/STM32U0xx_HAL_Driver/Inc/stm32u0xx_ll_adc.h **** #define LL_ADC_RESOLUTION_6B               (ADC_CFGR1_RES_1 | ADC_CFGR1_RES_0) /*!< ADC resolution 
 619:Drivers/STM32U0xx_HAL_Driver/Inc/stm32u0xx_ll_adc.h **** /**
 620:Drivers/STM32U0xx_HAL_Driver/Inc/stm32u0xx_ll_adc.h ****   * @}
 621:Drivers/STM32U0xx_HAL_Driver/Inc/stm32u0xx_ll_adc.h ****   */
 622:Drivers/STM32U0xx_HAL_Driver/Inc/stm32u0xx_ll_adc.h **** 
 623:Drivers/STM32U0xx_HAL_Driver/Inc/stm32u0xx_ll_adc.h **** /** @defgroup ADC_LL_EC_DATA_ALIGN  ADC instance - Data alignment
 624:Drivers/STM32U0xx_HAL_Driver/Inc/stm32u0xx_ll_adc.h ****   * @{
 625:Drivers/STM32U0xx_HAL_Driver/Inc/stm32u0xx_ll_adc.h ****   */
 626:Drivers/STM32U0xx_HAL_Driver/Inc/stm32u0xx_ll_adc.h **** #define LL_ADC_DATA_ALIGN_RIGHT            (0x00000000UL)     /*!< ADC conversion data alignment: r
 627:Drivers/STM32U0xx_HAL_Driver/Inc/stm32u0xx_ll_adc.h ****                                            (alignment on data register LSB bit 0)*/
 628:Drivers/STM32U0xx_HAL_Driver/Inc/stm32u0xx_ll_adc.h **** #define LL_ADC_DATA_ALIGN_LEFT             (ADC_CFGR1_ALIGN)  /*!< ADC conversion data alignment: l
 629:Drivers/STM32U0xx_HAL_Driver/Inc/stm32u0xx_ll_adc.h ****                                            (alignment on data register MSB bit 15)*/
 630:Drivers/STM32U0xx_HAL_Driver/Inc/stm32u0xx_ll_adc.h **** /**
 631:Drivers/STM32U0xx_HAL_Driver/Inc/stm32u0xx_ll_adc.h ****   * @}
 632:Drivers/STM32U0xx_HAL_Driver/Inc/stm32u0xx_ll_adc.h ****   */
 633:Drivers/STM32U0xx_HAL_Driver/Inc/stm32u0xx_ll_adc.h **** 
 634:Drivers/STM32U0xx_HAL_Driver/Inc/stm32u0xx_ll_adc.h **** /** @defgroup ADC_LL_EC_LP_MODE  ADC instance - Low power mode
 635:Drivers/STM32U0xx_HAL_Driver/Inc/stm32u0xx_ll_adc.h ****   * @{
 636:Drivers/STM32U0xx_HAL_Driver/Inc/stm32u0xx_ll_adc.h ****   */
 637:Drivers/STM32U0xx_HAL_Driver/Inc/stm32u0xx_ll_adc.h **** #define LL_ADC_LP_MODE_NONE                (0x00000000UL)     /*!< No ADC low power mode activated 
 638:Drivers/STM32U0xx_HAL_Driver/Inc/stm32u0xx_ll_adc.h **** #define LL_ADC_LP_AUTOWAIT                 (ADC_CFGR1_WAIT)   /*!< ADC low power mode auto delay: D
 639:Drivers/STM32U0xx_HAL_Driver/Inc/stm32u0xx_ll_adc.h ****                                            mode, ADC conversions are performed only when necessary
 640:Drivers/STM32U0xx_HAL_Driver/Inc/stm32u0xx_ll_adc.h ****                                            (when previous ADC conversion data is read).
 641:Drivers/STM32U0xx_HAL_Driver/Inc/stm32u0xx_ll_adc.h ****                                            See description with function @ref LL_ADC_SetLowPowerMod
 642:Drivers/STM32U0xx_HAL_Driver/Inc/stm32u0xx_ll_adc.h **** #define LL_ADC_LP_AUTOPOWEROFF             (ADC_CFGR1_AUTOFF) /*!< ADC low power mode auto power-of
 643:Drivers/STM32U0xx_HAL_Driver/Inc/stm32u0xx_ll_adc.h ****                                            automatically powers-off after a ADC conversion and auto
 644:Drivers/STM32U0xx_HAL_Driver/Inc/stm32u0xx_ll_adc.h ****                                            when a new ADC conversion is triggered (with startup tim
 645:Drivers/STM32U0xx_HAL_Driver/Inc/stm32u0xx_ll_adc.h ****                                            and start of sampling). See description with function
 646:Drivers/STM32U0xx_HAL_Driver/Inc/stm32u0xx_ll_adc.h ****                                            @ref LL_ADC_SetLowPowerMode(). */
 647:Drivers/STM32U0xx_HAL_Driver/Inc/stm32u0xx_ll_adc.h **** #define LL_ADC_LP_AUTOWAIT_AUTOPOWEROFF    (ADC_CFGR1_WAIT | ADC_CFGR1_AUTOFF) /*!< ADC low power m
 648:Drivers/STM32U0xx_HAL_Driver/Inc/stm32u0xx_ll_adc.h **** and auto power-off combined. See description with function @ref LL_ADC_SetLowPowerMode(). */
 649:Drivers/STM32U0xx_HAL_Driver/Inc/stm32u0xx_ll_adc.h **** /**
 650:Drivers/STM32U0xx_HAL_Driver/Inc/stm32u0xx_ll_adc.h ****   * @}
 651:Drivers/STM32U0xx_HAL_Driver/Inc/stm32u0xx_ll_adc.h ****   */
 652:Drivers/STM32U0xx_HAL_Driver/Inc/stm32u0xx_ll_adc.h **** 
 653:Drivers/STM32U0xx_HAL_Driver/Inc/stm32u0xx_ll_adc.h **** /** @defgroup ADC_LL_EC_REG_TRIGGER_FREQ  ADC group regular - Trigger frequency mode
 654:Drivers/STM32U0xx_HAL_Driver/Inc/stm32u0xx_ll_adc.h ****   * @{
 655:Drivers/STM32U0xx_HAL_Driver/Inc/stm32u0xx_ll_adc.h ****   */
 656:Drivers/STM32U0xx_HAL_Driver/Inc/stm32u0xx_ll_adc.h **** #define LL_ADC_TRIGGER_FREQ_HIGH           (0x00000000UL)     /*!< ADC trigger frequency mode set t
 657:Drivers/STM32U0xx_HAL_Driver/Inc/stm32u0xx_ll_adc.h ****                                            Note: ADC trigger frequency mode must be set to low freq
 658:Drivers/STM32U0xx_HAL_Driver/Inc/stm32u0xx_ll_adc.h ****                                            is exceeded before ADC conversion start trigger event (b
 659:Drivers/STM32U0xx_HAL_Driver/Inc/stm32u0xx_ll_adc.h ****                                            and ADC conversion start trigger event or between two AD
 660:Drivers/STM32U0xx_HAL_Driver/Inc/stm32u0xx_ll_adc.h ****                                            trigger event).
 661:Drivers/STM32U0xx_HAL_Driver/Inc/stm32u0xx_ll_adc.h ****                                            Duration value: Refer to device datasheet, parameter "tI
 662:Drivers/STM32U0xx_HAL_Driver/Inc/stm32u0xx_ll_adc.h **** #define LL_ADC_TRIGGER_FREQ_LOW            (ADC_CFGR2_LFTRIG) /*!< ADC trigger frequency mode set t
 663:Drivers/STM32U0xx_HAL_Driver/Inc/stm32u0xx_ll_adc.h ****                                            Note: ADC trigger frequency mode must be set to low freq
 664:Drivers/STM32U0xx_HAL_Driver/Inc/stm32u0xx_ll_adc.h ****                                            is exceeded before ADC conversion start trigger event (b
 665:Drivers/STM32U0xx_HAL_Driver/Inc/stm32u0xx_ll_adc.h ****                                            and ADC conversion start trigger event or between two AD
 666:Drivers/STM32U0xx_HAL_Driver/Inc/stm32u0xx_ll_adc.h ****                                            trigger event).
 667:Drivers/STM32U0xx_HAL_Driver/Inc/stm32u0xx_ll_adc.h ****                                            Duration value: Refer to device datasheet, parameter "tI
 668:Drivers/STM32U0xx_HAL_Driver/Inc/stm32u0xx_ll_adc.h **** /**
ARM GAS  C:\Users\upo\AppData\Local\Temp\ccaBY4hr.s 			page 31


 669:Drivers/STM32U0xx_HAL_Driver/Inc/stm32u0xx_ll_adc.h ****   * @}
 670:Drivers/STM32U0xx_HAL_Driver/Inc/stm32u0xx_ll_adc.h ****   */
 671:Drivers/STM32U0xx_HAL_Driver/Inc/stm32u0xx_ll_adc.h **** 
 672:Drivers/STM32U0xx_HAL_Driver/Inc/stm32u0xx_ll_adc.h **** /** @defgroup ADC_LL_EC_SAMPLINGTIME_COMMON  ADC instance - Sampling time common to a group of chan
 673:Drivers/STM32U0xx_HAL_Driver/Inc/stm32u0xx_ll_adc.h ****   * @{
 674:Drivers/STM32U0xx_HAL_Driver/Inc/stm32u0xx_ll_adc.h ****   */
 675:Drivers/STM32U0xx_HAL_Driver/Inc/stm32u0xx_ll_adc.h **** #define LL_ADC_SAMPLINGTIME_COMMON_1       (ADC_SMPR_SMP1_BITOFFSET_POS) /*!< Set sampling time com
 676:Drivers/STM32U0xx_HAL_Driver/Inc/stm32u0xx_ll_adc.h ****                                            of channels: sampling time nb 1 */
 677:Drivers/STM32U0xx_HAL_Driver/Inc/stm32u0xx_ll_adc.h **** #define LL_ADC_SAMPLINGTIME_COMMON_2       (ADC_SMPR_SMP2_BITOFFSET_POS \
 678:Drivers/STM32U0xx_HAL_Driver/Inc/stm32u0xx_ll_adc.h ****                                             | ADC_SAMPLING_TIME_CH_MASK)  /*!< Set sampling time co
 679:Drivers/STM32U0xx_HAL_Driver/Inc/stm32u0xx_ll_adc.h ****                                            of channels: sampling time nb 2 */
 680:Drivers/STM32U0xx_HAL_Driver/Inc/stm32u0xx_ll_adc.h **** /**
 681:Drivers/STM32U0xx_HAL_Driver/Inc/stm32u0xx_ll_adc.h ****   * @}
 682:Drivers/STM32U0xx_HAL_Driver/Inc/stm32u0xx_ll_adc.h ****   */
 683:Drivers/STM32U0xx_HAL_Driver/Inc/stm32u0xx_ll_adc.h **** 
 684:Drivers/STM32U0xx_HAL_Driver/Inc/stm32u0xx_ll_adc.h **** /** @defgroup ADC_LL_EC_GROUPS  ADC instance - Groups
 685:Drivers/STM32U0xx_HAL_Driver/Inc/stm32u0xx_ll_adc.h ****   * @{
 686:Drivers/STM32U0xx_HAL_Driver/Inc/stm32u0xx_ll_adc.h ****   */
 687:Drivers/STM32U0xx_HAL_Driver/Inc/stm32u0xx_ll_adc.h **** #define LL_ADC_GROUP_REGULAR               (0x00000001UL)     /*!< ADC group regular (available on 
 688:Drivers/STM32U0xx_HAL_Driver/Inc/stm32u0xx_ll_adc.h **** /**
 689:Drivers/STM32U0xx_HAL_Driver/Inc/stm32u0xx_ll_adc.h ****   * @}
 690:Drivers/STM32U0xx_HAL_Driver/Inc/stm32u0xx_ll_adc.h ****   */
 691:Drivers/STM32U0xx_HAL_Driver/Inc/stm32u0xx_ll_adc.h **** 
 692:Drivers/STM32U0xx_HAL_Driver/Inc/stm32u0xx_ll_adc.h **** /** @defgroup ADC_LL_EC_CHANNEL  ADC instance - Channel number
 693:Drivers/STM32U0xx_HAL_Driver/Inc/stm32u0xx_ll_adc.h ****   * @{
 694:Drivers/STM32U0xx_HAL_Driver/Inc/stm32u0xx_ll_adc.h ****   */
 695:Drivers/STM32U0xx_HAL_Driver/Inc/stm32u0xx_ll_adc.h **** #define LL_ADC_CHANNEL_0                   (ADC_CHANNEL_0_NUMBER \
 696:Drivers/STM32U0xx_HAL_Driver/Inc/stm32u0xx_ll_adc.h ****                                             | ADC_CHANNEL_0_BITFIELD ) /*!< ADC channel ADCx_IN0  *
 697:Drivers/STM32U0xx_HAL_Driver/Inc/stm32u0xx_ll_adc.h **** #define LL_ADC_CHANNEL_1                   (ADC_CHANNEL_1_NUMBER \
 698:Drivers/STM32U0xx_HAL_Driver/Inc/stm32u0xx_ll_adc.h ****                                             | ADC_CHANNEL_1_BITFIELD ) /*!< ADC channel ADCx_IN1  *
 699:Drivers/STM32U0xx_HAL_Driver/Inc/stm32u0xx_ll_adc.h **** #define LL_ADC_CHANNEL_2                   (ADC_CHANNEL_2_NUMBER \
 700:Drivers/STM32U0xx_HAL_Driver/Inc/stm32u0xx_ll_adc.h ****                                             | ADC_CHANNEL_2_BITFIELD ) /*!< ADC channel ADCx_IN2  *
 701:Drivers/STM32U0xx_HAL_Driver/Inc/stm32u0xx_ll_adc.h **** #define LL_ADC_CHANNEL_3                   (ADC_CHANNEL_3_NUMBER \
 702:Drivers/STM32U0xx_HAL_Driver/Inc/stm32u0xx_ll_adc.h ****                                             | ADC_CHANNEL_3_BITFIELD ) /*!< ADC channel ADCx_IN3  *
 703:Drivers/STM32U0xx_HAL_Driver/Inc/stm32u0xx_ll_adc.h **** #define LL_ADC_CHANNEL_4                   (ADC_CHANNEL_4_NUMBER \
 704:Drivers/STM32U0xx_HAL_Driver/Inc/stm32u0xx_ll_adc.h ****                                             | ADC_CHANNEL_4_BITFIELD ) /*!< ADC channel ADCx_IN4  *
 705:Drivers/STM32U0xx_HAL_Driver/Inc/stm32u0xx_ll_adc.h **** #define LL_ADC_CHANNEL_5                   (ADC_CHANNEL_5_NUMBER \
 706:Drivers/STM32U0xx_HAL_Driver/Inc/stm32u0xx_ll_adc.h ****                                             | ADC_CHANNEL_5_BITFIELD ) /*!< ADC channel ADCx_IN5  *
 707:Drivers/STM32U0xx_HAL_Driver/Inc/stm32u0xx_ll_adc.h **** #define LL_ADC_CHANNEL_6                   (ADC_CHANNEL_6_NUMBER \
 708:Drivers/STM32U0xx_HAL_Driver/Inc/stm32u0xx_ll_adc.h ****                                             | ADC_CHANNEL_6_BITFIELD ) /*!< ADC channel ADCx_IN6  *
 709:Drivers/STM32U0xx_HAL_Driver/Inc/stm32u0xx_ll_adc.h **** #define LL_ADC_CHANNEL_7                   (ADC_CHANNEL_7_NUMBER \
 710:Drivers/STM32U0xx_HAL_Driver/Inc/stm32u0xx_ll_adc.h ****                                             | ADC_CHANNEL_7_BITFIELD ) /*!< ADC channel ADCx_IN7  *
 711:Drivers/STM32U0xx_HAL_Driver/Inc/stm32u0xx_ll_adc.h **** #define LL_ADC_CHANNEL_8                   (ADC_CHANNEL_8_NUMBER \
 712:Drivers/STM32U0xx_HAL_Driver/Inc/stm32u0xx_ll_adc.h ****                                             | ADC_CHANNEL_8_BITFIELD ) /*!< ADC channel ADCx_IN8  *
 713:Drivers/STM32U0xx_HAL_Driver/Inc/stm32u0xx_ll_adc.h **** #define LL_ADC_CHANNEL_9                   (ADC_CHANNEL_9_NUMBER \
 714:Drivers/STM32U0xx_HAL_Driver/Inc/stm32u0xx_ll_adc.h ****                                             | ADC_CHANNEL_9_BITFIELD ) /*!< ADC channel ADCx_IN9  *
 715:Drivers/STM32U0xx_HAL_Driver/Inc/stm32u0xx_ll_adc.h **** #define LL_ADC_CHANNEL_10                  (ADC_CHANNEL_10_NUMBER \
 716:Drivers/STM32U0xx_HAL_Driver/Inc/stm32u0xx_ll_adc.h ****                                             | ADC_CHANNEL_10_BITFIELD) /*!< ADC channel ADCx_IN10 *
 717:Drivers/STM32U0xx_HAL_Driver/Inc/stm32u0xx_ll_adc.h **** #define LL_ADC_CHANNEL_11                  (ADC_CHANNEL_11_NUMBER \
 718:Drivers/STM32U0xx_HAL_Driver/Inc/stm32u0xx_ll_adc.h ****                                             | ADC_CHANNEL_11_BITFIELD) /*!< ADC channel ADCx_IN11 *
 719:Drivers/STM32U0xx_HAL_Driver/Inc/stm32u0xx_ll_adc.h **** #define LL_ADC_CHANNEL_12                  (ADC_CHANNEL_12_NUMBER \
 720:Drivers/STM32U0xx_HAL_Driver/Inc/stm32u0xx_ll_adc.h ****                                             | ADC_CHANNEL_12_BITFIELD) /*!< ADC channel ADCx_IN12 *
 721:Drivers/STM32U0xx_HAL_Driver/Inc/stm32u0xx_ll_adc.h **** #define LL_ADC_CHANNEL_13                  (ADC_CHANNEL_13_NUMBER \
 722:Drivers/STM32U0xx_HAL_Driver/Inc/stm32u0xx_ll_adc.h ****                                             | ADC_CHANNEL_13_BITFIELD) /*!< ADC channel ADCx_IN13 *
 723:Drivers/STM32U0xx_HAL_Driver/Inc/stm32u0xx_ll_adc.h **** #define LL_ADC_CHANNEL_14                  (ADC_CHANNEL_14_NUMBER \
 724:Drivers/STM32U0xx_HAL_Driver/Inc/stm32u0xx_ll_adc.h ****                                             | ADC_CHANNEL_14_BITFIELD) /*!< ADC channel ADCx_IN14 *
 725:Drivers/STM32U0xx_HAL_Driver/Inc/stm32u0xx_ll_adc.h **** #define LL_ADC_CHANNEL_15                  (ADC_CHANNEL_15_NUMBER \
ARM GAS  C:\Users\upo\AppData\Local\Temp\ccaBY4hr.s 			page 32


 726:Drivers/STM32U0xx_HAL_Driver/Inc/stm32u0xx_ll_adc.h ****                                             | ADC_CHANNEL_15_BITFIELD) /*!< ADC channel ADCx_IN15 *
 727:Drivers/STM32U0xx_HAL_Driver/Inc/stm32u0xx_ll_adc.h **** #define LL_ADC_CHANNEL_16                  (ADC_CHANNEL_16_NUMBER \
 728:Drivers/STM32U0xx_HAL_Driver/Inc/stm32u0xx_ll_adc.h ****                                             | ADC_CHANNEL_16_BITFIELD) /*!< ADC channel ADCx_IN16 *
 729:Drivers/STM32U0xx_HAL_Driver/Inc/stm32u0xx_ll_adc.h **** #define LL_ADC_CHANNEL_17                  (ADC_CHANNEL_17_NUMBER \
 730:Drivers/STM32U0xx_HAL_Driver/Inc/stm32u0xx_ll_adc.h ****                                             | ADC_CHANNEL_17_BITFIELD) /*!< ADC channel ADCx_IN17 *
 731:Drivers/STM32U0xx_HAL_Driver/Inc/stm32u0xx_ll_adc.h **** #define LL_ADC_CHANNEL_18                  (ADC_CHANNEL_18_NUMBER \
 732:Drivers/STM32U0xx_HAL_Driver/Inc/stm32u0xx_ll_adc.h ****                                             | ADC_CHANNEL_18_BITFIELD) /*!< ADC channel ADCx_IN18 *
 733:Drivers/STM32U0xx_HAL_Driver/Inc/stm32u0xx_ll_adc.h **** #define LL_ADC_CHANNEL_19                  (ADC_CHANNEL_19_NUMBER \
 734:Drivers/STM32U0xx_HAL_Driver/Inc/stm32u0xx_ll_adc.h ****                                             | ADC_CHANNEL_19_BITFIELD) /*!< ADC channel ADCx_IN19 *
 735:Drivers/STM32U0xx_HAL_Driver/Inc/stm32u0xx_ll_adc.h **** #define LL_ADC_CHANNEL_TEMPSENSOR          (LL_ADC_CHANNEL_11 | ADC_CHANNEL_ID_INTERNAL_CH)  /*!< A
 736:Drivers/STM32U0xx_HAL_Driver/Inc/stm32u0xx_ll_adc.h ****                                            connected to internal temperature sensor. */
 737:Drivers/STM32U0xx_HAL_Driver/Inc/stm32u0xx_ll_adc.h **** #define LL_ADC_CHANNEL_VREFINT             (LL_ADC_CHANNEL_12 | ADC_CHANNEL_ID_INTERNAL_CH)  /*!< A
 738:Drivers/STM32U0xx_HAL_Driver/Inc/stm32u0xx_ll_adc.h ****                                            connected to VrefInt: Internal voltage reference. */
 739:Drivers/STM32U0xx_HAL_Driver/Inc/stm32u0xx_ll_adc.h **** #define LL_ADC_CHANNEL_VBAT                (LL_ADC_CHANNEL_13 | ADC_CHANNEL_ID_INTERNAL_CH)  /*!< A
 740:Drivers/STM32U0xx_HAL_Driver/Inc/stm32u0xx_ll_adc.h ****                                            connected to Vbat/3: Vbat voltage through a divider ladd
 741:Drivers/STM32U0xx_HAL_Driver/Inc/stm32u0xx_ll_adc.h ****                                            to have channel voltage always below Vdda. */
 742:Drivers/STM32U0xx_HAL_Driver/Inc/stm32u0xx_ll_adc.h **** #define LL_ADC_CHANNEL_DACCH1              (LL_ADC_CHANNEL_19 | ADC_CHANNEL_ID_INTERNAL_CH)  /*!< A
 743:Drivers/STM32U0xx_HAL_Driver/Inc/stm32u0xx_ll_adc.h ****                                            connected to DAC channel 1. */
 744:Drivers/STM32U0xx_HAL_Driver/Inc/stm32u0xx_ll_adc.h **** /**
 745:Drivers/STM32U0xx_HAL_Driver/Inc/stm32u0xx_ll_adc.h ****   * @}
 746:Drivers/STM32U0xx_HAL_Driver/Inc/stm32u0xx_ll_adc.h ****   */
 747:Drivers/STM32U0xx_HAL_Driver/Inc/stm32u0xx_ll_adc.h **** 
 748:Drivers/STM32U0xx_HAL_Driver/Inc/stm32u0xx_ll_adc.h **** /** @defgroup ADC_LL_EC_REG_TRIGGER_SOURCE  ADC group regular - Trigger source
 749:Drivers/STM32U0xx_HAL_Driver/Inc/stm32u0xx_ll_adc.h ****   * @{
 750:Drivers/STM32U0xx_HAL_Driver/Inc/stm32u0xx_ll_adc.h ****   */
 751:Drivers/STM32U0xx_HAL_Driver/Inc/stm32u0xx_ll_adc.h **** #define LL_ADC_REG_TRIG_SOFTWARE           (0x00000000UL)                                         /
 752:Drivers/STM32U0xx_HAL_Driver/Inc/stm32u0xx_ll_adc.h ****                                            conversion trigger internal: SW start. */
 753:Drivers/STM32U0xx_HAL_Driver/Inc/stm32u0xx_ll_adc.h **** #define LL_ADC_REG_TRIG_EXT_TIM1_TRGO2     (ADC_REG_TRIG_EXT_EDGE_DEFAULT)                        /
 754:Drivers/STM32U0xx_HAL_Driver/Inc/stm32u0xx_ll_adc.h ****                                            conversion trigger from external peripheral: TIM1 TRGO.
 755:Drivers/STM32U0xx_HAL_Driver/Inc/stm32u0xx_ll_adc.h ****                                            Trigger edge set to rising edge (default setting). */
 756:Drivers/STM32U0xx_HAL_Driver/Inc/stm32u0xx_ll_adc.h **** #define LL_ADC_REG_TRIG_EXT_TIM1_CH4       (ADC_CFGR1_EXTSEL_0 | ADC_REG_TRIG_EXT_EDGE_DEFAULT)   /
 757:Drivers/STM32U0xx_HAL_Driver/Inc/stm32u0xx_ll_adc.h ****                                            conversion trigger from external peripheral: TIM1 channe
 758:Drivers/STM32U0xx_HAL_Driver/Inc/stm32u0xx_ll_adc.h ****                                            (capture compare: input capture or output capture).
 759:Drivers/STM32U0xx_HAL_Driver/Inc/stm32u0xx_ll_adc.h ****                                            Trigger edge set to rising edge (default setting). */
 760:Drivers/STM32U0xx_HAL_Driver/Inc/stm32u0xx_ll_adc.h **** #define LL_ADC_REG_TRIG_EXT_TIM2_TRGO      (ADC_CFGR1_EXTSEL_1 | ADC_REG_TRIG_EXT_EDGE_DEFAULT)   /
 761:Drivers/STM32U0xx_HAL_Driver/Inc/stm32u0xx_ll_adc.h ****                                            conversion trigger from external peripheral: TIM2 TRGO.
 762:Drivers/STM32U0xx_HAL_Driver/Inc/stm32u0xx_ll_adc.h ****                                            Trigger edge set to rising edge (default setting). */
 763:Drivers/STM32U0xx_HAL_Driver/Inc/stm32u0xx_ll_adc.h **** #define LL_ADC_REG_TRIG_EXT_TIM3_TRGO      (ADC_CFGR1_EXTSEL_1 | ADC_CFGR1_EXTSEL_0 \
 764:Drivers/STM32U0xx_HAL_Driver/Inc/stm32u0xx_ll_adc.h ****                                             | ADC_REG_TRIG_EXT_EDGE_DEFAULT)                      /
 765:Drivers/STM32U0xx_HAL_Driver/Inc/stm32u0xx_ll_adc.h ****                                            conversion trigger from external peripheral: TIM3 TRGO.
 766:Drivers/STM32U0xx_HAL_Driver/Inc/stm32u0xx_ll_adc.h ****                                            Trigger edge set to rising edge (default setting). */
 767:Drivers/STM32U0xx_HAL_Driver/Inc/stm32u0xx_ll_adc.h **** #define LL_ADC_REG_TRIG_EXT_TIM15_TRGO     (ADC_CFGR1_EXTSEL_2 | ADC_REG_TRIG_EXT_EDGE_DEFAULT)   /
 768:Drivers/STM32U0xx_HAL_Driver/Inc/stm32u0xx_ll_adc.h ****                                            conversion trigger from external peripheral: TIM15 TRGO.
 769:Drivers/STM32U0xx_HAL_Driver/Inc/stm32u0xx_ll_adc.h ****                                            Trigger edge set to rising edge (default setting). */
 770:Drivers/STM32U0xx_HAL_Driver/Inc/stm32u0xx_ll_adc.h **** #define LL_ADC_REG_TRIG_EXT_TIM6_TRGO     (ADC_CFGR1_EXTSEL_2 | ADC_CFGR1_EXTSEL_0 \
 771:Drivers/STM32U0xx_HAL_Driver/Inc/stm32u0xx_ll_adc.h ****                                            | ADC_REG_TRIG_EXT_EDGE_DEFAULT)                      /*
 772:Drivers/STM32U0xx_HAL_Driver/Inc/stm32u0xx_ll_adc.h ****                                            conversion trigger from external peripheral: TIM6 TRGO.
 773:Drivers/STM32U0xx_HAL_Driver/Inc/stm32u0xx_ll_adc.h ****                                            Trigger edge set to rising edge (default setting). */
 774:Drivers/STM32U0xx_HAL_Driver/Inc/stm32u0xx_ll_adc.h **** #define LL_ADC_REG_TRIG_EXT_EXTI_LINE11    (ADC_CFGR1_EXTSEL_2 | ADC_CFGR1_EXTSEL_1 \
 775:Drivers/STM32U0xx_HAL_Driver/Inc/stm32u0xx_ll_adc.h ****                                             | ADC_CFGR1_EXTSEL_0 | ADC_REG_TRIG_EXT_EDGE_DEFAULT) /
 776:Drivers/STM32U0xx_HAL_Driver/Inc/stm32u0xx_ll_adc.h ****                                            conversion trigger from external peripheral: external in
 777:Drivers/STM32U0xx_HAL_Driver/Inc/stm32u0xx_ll_adc.h ****                                            Trigger edge set to rising edge (default setting). */
 778:Drivers/STM32U0xx_HAL_Driver/Inc/stm32u0xx_ll_adc.h **** /**
 779:Drivers/STM32U0xx_HAL_Driver/Inc/stm32u0xx_ll_adc.h ****   * @}
 780:Drivers/STM32U0xx_HAL_Driver/Inc/stm32u0xx_ll_adc.h ****   */
 781:Drivers/STM32U0xx_HAL_Driver/Inc/stm32u0xx_ll_adc.h **** 
 782:Drivers/STM32U0xx_HAL_Driver/Inc/stm32u0xx_ll_adc.h **** /** @defgroup ADC_LL_EC_REG_TRIGGER_EDGE  ADC group regular - Trigger edge
ARM GAS  C:\Users\upo\AppData\Local\Temp\ccaBY4hr.s 			page 33


 783:Drivers/STM32U0xx_HAL_Driver/Inc/stm32u0xx_ll_adc.h ****   * @{
 784:Drivers/STM32U0xx_HAL_Driver/Inc/stm32u0xx_ll_adc.h ****   */
 785:Drivers/STM32U0xx_HAL_Driver/Inc/stm32u0xx_ll_adc.h **** #define LL_ADC_REG_TRIG_EXT_RISING         (ADC_CFGR1_EXTEN_0)                     /*!< ADC group r
 786:Drivers/STM32U0xx_HAL_Driver/Inc/stm32u0xx_ll_adc.h ****                                            trigger polarity set to rising edge */
 787:Drivers/STM32U0xx_HAL_Driver/Inc/stm32u0xx_ll_adc.h **** #define LL_ADC_REG_TRIG_EXT_FALLING        (ADC_CFGR1_EXTEN_1)                     /*!< ADC group r
 788:Drivers/STM32U0xx_HAL_Driver/Inc/stm32u0xx_ll_adc.h ****                                            trigger polarity set to falling edge */
 789:Drivers/STM32U0xx_HAL_Driver/Inc/stm32u0xx_ll_adc.h **** #define LL_ADC_REG_TRIG_EXT_RISINGFALLING  (ADC_CFGR1_EXTEN_1 | ADC_CFGR1_EXTEN_0) /*!< ADC group r
 790:Drivers/STM32U0xx_HAL_Driver/Inc/stm32u0xx_ll_adc.h ****                                            trigger polarity set to both rising and falling edges */
 791:Drivers/STM32U0xx_HAL_Driver/Inc/stm32u0xx_ll_adc.h **** /**
 792:Drivers/STM32U0xx_HAL_Driver/Inc/stm32u0xx_ll_adc.h ****   * @}
 793:Drivers/STM32U0xx_HAL_Driver/Inc/stm32u0xx_ll_adc.h ****   */
 794:Drivers/STM32U0xx_HAL_Driver/Inc/stm32u0xx_ll_adc.h **** 
 795:Drivers/STM32U0xx_HAL_Driver/Inc/stm32u0xx_ll_adc.h **** /** @defgroup ADC_LL_EC_REG_CONTINUOUS_MODE  ADC group regular - Continuous mode
 796:Drivers/STM32U0xx_HAL_Driver/Inc/stm32u0xx_ll_adc.h ****   * @{
 797:Drivers/STM32U0xx_HAL_Driver/Inc/stm32u0xx_ll_adc.h ****   */
 798:Drivers/STM32U0xx_HAL_Driver/Inc/stm32u0xx_ll_adc.h **** #define LL_ADC_REG_CONV_SINGLE             (0x00000000UL)     /*!< ADC conversions performed in sin
 799:Drivers/STM32U0xx_HAL_Driver/Inc/stm32u0xx_ll_adc.h ****                                            one conversion per trigger */
 800:Drivers/STM32U0xx_HAL_Driver/Inc/stm32u0xx_ll_adc.h **** #define LL_ADC_REG_CONV_CONTINUOUS         (ADC_CFGR1_CONT)   /*!< ADC conversions performed in con
 801:Drivers/STM32U0xx_HAL_Driver/Inc/stm32u0xx_ll_adc.h ****                                            after the first trigger, following conversions launched 
 802:Drivers/STM32U0xx_HAL_Driver/Inc/stm32u0xx_ll_adc.h ****                                            automatically */
 803:Drivers/STM32U0xx_HAL_Driver/Inc/stm32u0xx_ll_adc.h **** /**
 804:Drivers/STM32U0xx_HAL_Driver/Inc/stm32u0xx_ll_adc.h ****   * @}
 805:Drivers/STM32U0xx_HAL_Driver/Inc/stm32u0xx_ll_adc.h ****   */
 806:Drivers/STM32U0xx_HAL_Driver/Inc/stm32u0xx_ll_adc.h **** 
 807:Drivers/STM32U0xx_HAL_Driver/Inc/stm32u0xx_ll_adc.h **** /** @defgroup ADC_LL_EC_REG_DMA_TRANSFER  ADC group regular - DMA transfer of ADC conversion data
 808:Drivers/STM32U0xx_HAL_Driver/Inc/stm32u0xx_ll_adc.h ****   * @{
 809:Drivers/STM32U0xx_HAL_Driver/Inc/stm32u0xx_ll_adc.h ****   */
 810:Drivers/STM32U0xx_HAL_Driver/Inc/stm32u0xx_ll_adc.h **** #define LL_ADC_REG_DMA_TRANSFER_NONE       (0x00000000UL)     /*!< ADC conversions are not transfer
 811:Drivers/STM32U0xx_HAL_Driver/Inc/stm32u0xx_ll_adc.h **** #define LL_ADC_REG_DMA_TRANSFER_LIMITED    (ADC_CFGR1_DMAEN)  /*!< ADC conversion data are transfer
 812:Drivers/STM32U0xx_HAL_Driver/Inc/stm32u0xx_ll_adc.h ****                                            in limited mode (one shot mode): DMA transfer requests a
 813:Drivers/STM32U0xx_HAL_Driver/Inc/stm32u0xx_ll_adc.h ****                                            number of DMA data transfers (number of ADC conversions)
 814:Drivers/STM32U0xx_HAL_Driver/Inc/stm32u0xx_ll_adc.h ****                                            This ADC mode is intended to be used with DMA mode non-c
 815:Drivers/STM32U0xx_HAL_Driver/Inc/stm32u0xx_ll_adc.h **** #define LL_ADC_REG_DMA_TRANSFER_UNLIMITED  (ADC_CFGR1_DMACFG | ADC_CFGR1_DMAEN)  /*!< ADC conversio
 816:Drivers/STM32U0xx_HAL_Driver/Inc/stm32u0xx_ll_adc.h ****                                            transferred by DMA, in unlimited mode: DMA transfer requ
 817:Drivers/STM32U0xx_HAL_Driver/Inc/stm32u0xx_ll_adc.h ****                                            whatever number of DMA data transferred (number of ADC c
 818:Drivers/STM32U0xx_HAL_Driver/Inc/stm32u0xx_ll_adc.h ****                                            This ADC mode is intended to be used with DMA mode circu
 819:Drivers/STM32U0xx_HAL_Driver/Inc/stm32u0xx_ll_adc.h **** /**
 820:Drivers/STM32U0xx_HAL_Driver/Inc/stm32u0xx_ll_adc.h ****   * @}
 821:Drivers/STM32U0xx_HAL_Driver/Inc/stm32u0xx_ll_adc.h ****   */
 822:Drivers/STM32U0xx_HAL_Driver/Inc/stm32u0xx_ll_adc.h **** 
 823:Drivers/STM32U0xx_HAL_Driver/Inc/stm32u0xx_ll_adc.h **** /** @defgroup ADC_LL_EC_REG_OVR_DATA_BEHAVIOR  ADC group regular - Overrun behavior on conversion d
 824:Drivers/STM32U0xx_HAL_Driver/Inc/stm32u0xx_ll_adc.h ****   * @{
 825:Drivers/STM32U0xx_HAL_Driver/Inc/stm32u0xx_ll_adc.h ****   */
 826:Drivers/STM32U0xx_HAL_Driver/Inc/stm32u0xx_ll_adc.h **** #define LL_ADC_REG_OVR_DATA_PRESERVED      (0x00000000UL)     /*!< ADC group regular behavior in ca
 827:Drivers/STM32U0xx_HAL_Driver/Inc/stm32u0xx_ll_adc.h ****                                                                    data preserved */
 828:Drivers/STM32U0xx_HAL_Driver/Inc/stm32u0xx_ll_adc.h **** #define LL_ADC_REG_OVR_DATA_OVERWRITTEN    (ADC_CFGR1_OVRMOD) /*!< ADC group regular behavior in ca
 829:Drivers/STM32U0xx_HAL_Driver/Inc/stm32u0xx_ll_adc.h ****                                                                    data overwritten */
 830:Drivers/STM32U0xx_HAL_Driver/Inc/stm32u0xx_ll_adc.h **** /**
 831:Drivers/STM32U0xx_HAL_Driver/Inc/stm32u0xx_ll_adc.h ****   * @}
 832:Drivers/STM32U0xx_HAL_Driver/Inc/stm32u0xx_ll_adc.h ****   */
 833:Drivers/STM32U0xx_HAL_Driver/Inc/stm32u0xx_ll_adc.h **** 
 834:Drivers/STM32U0xx_HAL_Driver/Inc/stm32u0xx_ll_adc.h **** /** @defgroup ADC_LL_EC_REG_SEQ_MODE  ADC group regular - Sequencer configuration flexibility
 835:Drivers/STM32U0xx_HAL_Driver/Inc/stm32u0xx_ll_adc.h ****   * @{
 836:Drivers/STM32U0xx_HAL_Driver/Inc/stm32u0xx_ll_adc.h ****   */
 837:Drivers/STM32U0xx_HAL_Driver/Inc/stm32u0xx_ll_adc.h **** #define LL_ADC_REG_SEQ_FIXED               (0x00000000UL)        /*!< Sequencer configured to not f
 838:Drivers/STM32U0xx_HAL_Driver/Inc/stm32u0xx_ll_adc.h ****                                            sequencer length and each rank affectation to a channel 
 839:Drivers/STM32U0xx_HAL_Driver/Inc/stm32u0xx_ll_adc.h ****                                            by channel HW number. Refer to description of function
ARM GAS  C:\Users\upo\AppData\Local\Temp\ccaBY4hr.s 			page 34


 840:Drivers/STM32U0xx_HAL_Driver/Inc/stm32u0xx_ll_adc.h ****                                            @ref LL_ADC_REG_SetSequencerChannels(). */
 841:Drivers/STM32U0xx_HAL_Driver/Inc/stm32u0xx_ll_adc.h **** #define LL_ADC_REG_SEQ_CONFIGURABLE        (ADC_CFGR1_CHSELRMOD) /*!< Sequencer configured to fully
 842:Drivers/STM32U0xx_HAL_Driver/Inc/stm32u0xx_ll_adc.h ****                                            sequencer length and each rank affectation to a channel 
 843:Drivers/STM32U0xx_HAL_Driver/Inc/stm32u0xx_ll_adc.h ****                                            Refer to description of function @ref LL_ADC_REG_SetSequ
 844:Drivers/STM32U0xx_HAL_Driver/Inc/stm32u0xx_ll_adc.h **** /**
 845:Drivers/STM32U0xx_HAL_Driver/Inc/stm32u0xx_ll_adc.h ****   * @}
 846:Drivers/STM32U0xx_HAL_Driver/Inc/stm32u0xx_ll_adc.h ****   */
 847:Drivers/STM32U0xx_HAL_Driver/Inc/stm32u0xx_ll_adc.h **** 
 848:Drivers/STM32U0xx_HAL_Driver/Inc/stm32u0xx_ll_adc.h **** /** @defgroup ADC_LL_EC_REG_SEQ_SCAN_LENGTH  ADC group regular - Sequencer scan length
 849:Drivers/STM32U0xx_HAL_Driver/Inc/stm32u0xx_ll_adc.h ****   * @{
 850:Drivers/STM32U0xx_HAL_Driver/Inc/stm32u0xx_ll_adc.h ****   */
 851:Drivers/STM32U0xx_HAL_Driver/Inc/stm32u0xx_ll_adc.h **** #define LL_ADC_REG_SEQ_SCAN_DISABLE        (ADC_CHSELR_SQ2)               /*!< ADC group regular se
 852:Drivers/STM32U0xx_HAL_Driver/Inc/stm32u0xx_ll_adc.h ****                                            (equivalent to sequencer of 1 rank: ADC conversion on on
 853:Drivers/STM32U0xx_HAL_Driver/Inc/stm32u0xx_ll_adc.h **** #define LL_ADC_REG_SEQ_SCAN_ENABLE_2RANKS  (ADC_CHSELR_SQ3)               /*!< ADC group regular se
 854:Drivers/STM32U0xx_HAL_Driver/Inc/stm32u0xx_ll_adc.h ****                                            with 2 ranks in the sequence */
 855:Drivers/STM32U0xx_HAL_Driver/Inc/stm32u0xx_ll_adc.h **** #define LL_ADC_REG_SEQ_SCAN_ENABLE_3RANKS  (ADC_CHSELR_SQ4)               /*!< ADC group regular se
 856:Drivers/STM32U0xx_HAL_Driver/Inc/stm32u0xx_ll_adc.h ****                                            with 3 ranks in the sequence */
 857:Drivers/STM32U0xx_HAL_Driver/Inc/stm32u0xx_ll_adc.h **** #define LL_ADC_REG_SEQ_SCAN_ENABLE_4RANKS  (ADC_CHSELR_SQ5)               /*!< ADC group regular se
 858:Drivers/STM32U0xx_HAL_Driver/Inc/stm32u0xx_ll_adc.h ****                                            with 4 ranks in the sequence */
 859:Drivers/STM32U0xx_HAL_Driver/Inc/stm32u0xx_ll_adc.h **** #define LL_ADC_REG_SEQ_SCAN_ENABLE_5RANKS  (ADC_CHSELR_SQ6)               /*!< ADC group regular se
 860:Drivers/STM32U0xx_HAL_Driver/Inc/stm32u0xx_ll_adc.h ****                                            with 5 ranks in the sequence */
 861:Drivers/STM32U0xx_HAL_Driver/Inc/stm32u0xx_ll_adc.h **** #define LL_ADC_REG_SEQ_SCAN_ENABLE_6RANKS  (ADC_CHSELR_SQ7)               /*!< ADC group regular se
 862:Drivers/STM32U0xx_HAL_Driver/Inc/stm32u0xx_ll_adc.h ****                                            with 6 ranks in the sequence */
 863:Drivers/STM32U0xx_HAL_Driver/Inc/stm32u0xx_ll_adc.h **** #define LL_ADC_REG_SEQ_SCAN_ENABLE_7RANKS  (ADC_CHSELR_SQ8)               /*!< ADC group regular se
 864:Drivers/STM32U0xx_HAL_Driver/Inc/stm32u0xx_ll_adc.h ****                                            with 7 ranks in the sequence */
 865:Drivers/STM32U0xx_HAL_Driver/Inc/stm32u0xx_ll_adc.h **** #define LL_ADC_REG_SEQ_SCAN_ENABLE_8RANKS  (0x00000000UL)                 /*!< ADC group regular se
 866:Drivers/STM32U0xx_HAL_Driver/Inc/stm32u0xx_ll_adc.h ****                                            with 8 ranks in the sequence */
 867:Drivers/STM32U0xx_HAL_Driver/Inc/stm32u0xx_ll_adc.h **** /**
 868:Drivers/STM32U0xx_HAL_Driver/Inc/stm32u0xx_ll_adc.h ****   * @}
 869:Drivers/STM32U0xx_HAL_Driver/Inc/stm32u0xx_ll_adc.h ****   */
 870:Drivers/STM32U0xx_HAL_Driver/Inc/stm32u0xx_ll_adc.h **** 
 871:Drivers/STM32U0xx_HAL_Driver/Inc/stm32u0xx_ll_adc.h **** /** @defgroup ADC_LL_EC_REG_SEQ_SCAN_DIRECTION  ADC group regular - Sequencer scan direction
 872:Drivers/STM32U0xx_HAL_Driver/Inc/stm32u0xx_ll_adc.h ****   * @{
 873:Drivers/STM32U0xx_HAL_Driver/Inc/stm32u0xx_ll_adc.h ****   */
 874:Drivers/STM32U0xx_HAL_Driver/Inc/stm32u0xx_ll_adc.h **** #define LL_ADC_REG_SEQ_SCAN_DIR_FORWARD    (0x00000000UL)      /*!< On this STM32 series, parameter
 875:Drivers/STM32U0xx_HAL_Driver/Inc/stm32u0xx_ll_adc.h ****                                            sequencer set to mode not fully configurable, refer to f
 876:Drivers/STM32U0xx_HAL_Driver/Inc/stm32u0xx_ll_adc.h ****                                            @ref LL_ADC_REG_SetSequencerConfigurable(). ADC group re
 877:Drivers/STM32U0xx_HAL_Driver/Inc/stm32u0xx_ll_adc.h ****                                            direction forward: from lowest channel number to highest
 878:Drivers/STM32U0xx_HAL_Driver/Inc/stm32u0xx_ll_adc.h ****                                            (scan of all ranks, ADC conversion of ranks with channel
 879:Drivers/STM32U0xx_HAL_Driver/Inc/stm32u0xx_ll_adc.h ****                                            sequencer). On some other STM32 series, this setting is 
 880:Drivers/STM32U0xx_HAL_Driver/Inc/stm32u0xx_ll_adc.h ****                                            and the default scan direction is forward. */
 881:Drivers/STM32U0xx_HAL_Driver/Inc/stm32u0xx_ll_adc.h **** #define LL_ADC_REG_SEQ_SCAN_DIR_BACKWARD   (ADC_CFGR1_SCANDIR) /*!< On this STM32 series, parameter
 882:Drivers/STM32U0xx_HAL_Driver/Inc/stm32u0xx_ll_adc.h ****                                            sequencer set to mode not fully configurable, refer to f
 883:Drivers/STM32U0xx_HAL_Driver/Inc/stm32u0xx_ll_adc.h ****                                            @ref LL_ADC_REG_SetSequencerConfigurable(). ADC group re
 884:Drivers/STM32U0xx_HAL_Driver/Inc/stm32u0xx_ll_adc.h ****                                            direction backward: from highest channel number to lowes
 885:Drivers/STM32U0xx_HAL_Driver/Inc/stm32u0xx_ll_adc.h ****                                            (scan of all ranks, ADC conversion of ranks with channel
 886:Drivers/STM32U0xx_HAL_Driver/Inc/stm32u0xx_ll_adc.h ****                                            sequencer) */
 887:Drivers/STM32U0xx_HAL_Driver/Inc/stm32u0xx_ll_adc.h **** /**
 888:Drivers/STM32U0xx_HAL_Driver/Inc/stm32u0xx_ll_adc.h ****   * @}
 889:Drivers/STM32U0xx_HAL_Driver/Inc/stm32u0xx_ll_adc.h ****   */
 890:Drivers/STM32U0xx_HAL_Driver/Inc/stm32u0xx_ll_adc.h **** 
 891:Drivers/STM32U0xx_HAL_Driver/Inc/stm32u0xx_ll_adc.h **** /** @defgroup ADC_LL_EC_REG_SEQ_DISCONT_MODE  ADC group regular - Sequencer discontinuous mode
 892:Drivers/STM32U0xx_HAL_Driver/Inc/stm32u0xx_ll_adc.h ****   * @{
 893:Drivers/STM32U0xx_HAL_Driver/Inc/stm32u0xx_ll_adc.h ****   */
 894:Drivers/STM32U0xx_HAL_Driver/Inc/stm32u0xx_ll_adc.h **** #define LL_ADC_REG_SEQ_DISCONT_DISABLE     (0x00000000UL)                          /*!< ADC group r
 895:Drivers/STM32U0xx_HAL_Driver/Inc/stm32u0xx_ll_adc.h ****                                            discontinuous mode disable */
 896:Drivers/STM32U0xx_HAL_Driver/Inc/stm32u0xx_ll_adc.h **** #define LL_ADC_REG_SEQ_DISCONT_1RANK       (ADC_CFGR1_DISCEN)                      /*!< ADC group r
ARM GAS  C:\Users\upo\AppData\Local\Temp\ccaBY4hr.s 			page 35


 897:Drivers/STM32U0xx_HAL_Driver/Inc/stm32u0xx_ll_adc.h ****                                            discontinuous mode enable with sequence interruption eve
 898:Drivers/STM32U0xx_HAL_Driver/Inc/stm32u0xx_ll_adc.h **** /**
 899:Drivers/STM32U0xx_HAL_Driver/Inc/stm32u0xx_ll_adc.h ****   * @}
 900:Drivers/STM32U0xx_HAL_Driver/Inc/stm32u0xx_ll_adc.h ****   */
 901:Drivers/STM32U0xx_HAL_Driver/Inc/stm32u0xx_ll_adc.h **** 
 902:Drivers/STM32U0xx_HAL_Driver/Inc/stm32u0xx_ll_adc.h **** /** @defgroup ADC_LL_EC_REG_SEQ_RANKS  ADC group regular - Sequencer ranks
 903:Drivers/STM32U0xx_HAL_Driver/Inc/stm32u0xx_ll_adc.h ****   * @{
 904:Drivers/STM32U0xx_HAL_Driver/Inc/stm32u0xx_ll_adc.h ****   */
 905:Drivers/STM32U0xx_HAL_Driver/Inc/stm32u0xx_ll_adc.h **** #define LL_ADC_REG_RANK_1                  (ADC_REG_RANK_1_SQRX_BITOFFSET_POS) /*!< ADC group regul
 906:Drivers/STM32U0xx_HAL_Driver/Inc/stm32u0xx_ll_adc.h **** #define LL_ADC_REG_RANK_2                  (ADC_REG_RANK_2_SQRX_BITOFFSET_POS) /*!< ADC group regul
 907:Drivers/STM32U0xx_HAL_Driver/Inc/stm32u0xx_ll_adc.h **** #define LL_ADC_REG_RANK_3                  (ADC_REG_RANK_3_SQRX_BITOFFSET_POS) /*!< ADC group regul
 908:Drivers/STM32U0xx_HAL_Driver/Inc/stm32u0xx_ll_adc.h **** #define LL_ADC_REG_RANK_4                  (ADC_REG_RANK_4_SQRX_BITOFFSET_POS) /*!< ADC group regul
 909:Drivers/STM32U0xx_HAL_Driver/Inc/stm32u0xx_ll_adc.h **** #define LL_ADC_REG_RANK_5                  (ADC_REG_RANK_5_SQRX_BITOFFSET_POS) /*!< ADC group regul
 910:Drivers/STM32U0xx_HAL_Driver/Inc/stm32u0xx_ll_adc.h **** #define LL_ADC_REG_RANK_6                  (ADC_REG_RANK_6_SQRX_BITOFFSET_POS) /*!< ADC group regul
 911:Drivers/STM32U0xx_HAL_Driver/Inc/stm32u0xx_ll_adc.h **** #define LL_ADC_REG_RANK_7                  (ADC_REG_RANK_7_SQRX_BITOFFSET_POS) /*!< ADC group regul
 912:Drivers/STM32U0xx_HAL_Driver/Inc/stm32u0xx_ll_adc.h **** #define LL_ADC_REG_RANK_8                  (ADC_REG_RANK_8_SQRX_BITOFFSET_POS) /*!< ADC group regul
 913:Drivers/STM32U0xx_HAL_Driver/Inc/stm32u0xx_ll_adc.h **** /**
 914:Drivers/STM32U0xx_HAL_Driver/Inc/stm32u0xx_ll_adc.h ****   * @}
 915:Drivers/STM32U0xx_HAL_Driver/Inc/stm32u0xx_ll_adc.h ****   */
 916:Drivers/STM32U0xx_HAL_Driver/Inc/stm32u0xx_ll_adc.h **** 
 917:Drivers/STM32U0xx_HAL_Driver/Inc/stm32u0xx_ll_adc.h **** /** @defgroup ADC_LL_EC_CHANNEL_SAMPLINGTIME  Channel - Sampling time
 918:Drivers/STM32U0xx_HAL_Driver/Inc/stm32u0xx_ll_adc.h ****   * @{
 919:Drivers/STM32U0xx_HAL_Driver/Inc/stm32u0xx_ll_adc.h ****   */
 920:Drivers/STM32U0xx_HAL_Driver/Inc/stm32u0xx_ll_adc.h **** #define LL_ADC_SAMPLINGTIME_1CYCLE_5       (0x00000000UL)     /*!< Sampling time 1.5 ADC clock cycl
 921:Drivers/STM32U0xx_HAL_Driver/Inc/stm32u0xx_ll_adc.h **** #define LL_ADC_SAMPLINGTIME_3CYCLES_5      (ADC_SMPR_SMP1_0)  /*!< Sampling time 3.5 ADC clock cycl
 922:Drivers/STM32U0xx_HAL_Driver/Inc/stm32u0xx_ll_adc.h **** #define LL_ADC_SAMPLINGTIME_7CYCLES_5      (ADC_SMPR_SMP1_1)  /*!< Sampling time 7.5 ADC clock cycl
 923:Drivers/STM32U0xx_HAL_Driver/Inc/stm32u0xx_ll_adc.h **** #define LL_ADC_SAMPLINGTIME_12CYCLES_5     (ADC_SMPR_SMP1_1 \
 924:Drivers/STM32U0xx_HAL_Driver/Inc/stm32u0xx_ll_adc.h ****                                             | ADC_SMPR_SMP1_0) /*!< Sampling time 12.5 ADC clock cy
 925:Drivers/STM32U0xx_HAL_Driver/Inc/stm32u0xx_ll_adc.h **** #define LL_ADC_SAMPLINGTIME_19CYCLES_5     (ADC_SMPR_SMP1_2)  /*!< Sampling time 19.5 ADC clock cyc
 926:Drivers/STM32U0xx_HAL_Driver/Inc/stm32u0xx_ll_adc.h **** #define LL_ADC_SAMPLINGTIME_39CYCLES_5     (ADC_SMPR_SMP1_2 \
 927:Drivers/STM32U0xx_HAL_Driver/Inc/stm32u0xx_ll_adc.h ****                                             | ADC_SMPR_SMP1_0) /*!< Sampling time 39.5 ADC clock cy
 928:Drivers/STM32U0xx_HAL_Driver/Inc/stm32u0xx_ll_adc.h **** #define LL_ADC_SAMPLINGTIME_79CYCLES_5     (ADC_SMPR_SMP1_2 \
 929:Drivers/STM32U0xx_HAL_Driver/Inc/stm32u0xx_ll_adc.h ****                                             | ADC_SMPR_SMP1_1) /*!< Sampling time 79.5 ADC clock cy
 930:Drivers/STM32U0xx_HAL_Driver/Inc/stm32u0xx_ll_adc.h **** #define LL_ADC_SAMPLINGTIME_160CYCLES_5    (ADC_SMPR_SMP1_2 \
 931:Drivers/STM32U0xx_HAL_Driver/Inc/stm32u0xx_ll_adc.h ****                                             | ADC_SMPR_SMP1_1 \
 932:Drivers/STM32U0xx_HAL_Driver/Inc/stm32u0xx_ll_adc.h ****                                             | ADC_SMPR_SMP1_0) /*!< Sampling time 160.5 ADC clock c
 933:Drivers/STM32U0xx_HAL_Driver/Inc/stm32u0xx_ll_adc.h **** /**
 934:Drivers/STM32U0xx_HAL_Driver/Inc/stm32u0xx_ll_adc.h ****   * @}
 935:Drivers/STM32U0xx_HAL_Driver/Inc/stm32u0xx_ll_adc.h ****   */
 936:Drivers/STM32U0xx_HAL_Driver/Inc/stm32u0xx_ll_adc.h **** 
 937:Drivers/STM32U0xx_HAL_Driver/Inc/stm32u0xx_ll_adc.h **** /** @defgroup ADC_LL_EC_AWD_NUMBER Analog watchdog - Analog watchdog number
 938:Drivers/STM32U0xx_HAL_Driver/Inc/stm32u0xx_ll_adc.h ****   * @{
 939:Drivers/STM32U0xx_HAL_Driver/Inc/stm32u0xx_ll_adc.h ****   */
 940:Drivers/STM32U0xx_HAL_Driver/Inc/stm32u0xx_ll_adc.h **** #define LL_ADC_AWD1                        (ADC_AWD_CR1_CHANNEL_MASK \
 941:Drivers/STM32U0xx_HAL_Driver/Inc/stm32u0xx_ll_adc.h ****                                             | ADC_AWD_CR1_REGOFFSET) /*!< ADC analog watchdog numbe
 942:Drivers/STM32U0xx_HAL_Driver/Inc/stm32u0xx_ll_adc.h **** #define LL_ADC_AWD2                        (ADC_AWD_CR23_CHANNEL_MASK \
 943:Drivers/STM32U0xx_HAL_Driver/Inc/stm32u0xx_ll_adc.h ****                                             | ADC_AWD_CR2_REGOFFSET) /*!< ADC analog watchdog numbe
 944:Drivers/STM32U0xx_HAL_Driver/Inc/stm32u0xx_ll_adc.h **** #define LL_ADC_AWD3                        (ADC_AWD_CR23_CHANNEL_MASK \
 945:Drivers/STM32U0xx_HAL_Driver/Inc/stm32u0xx_ll_adc.h ****                                             | ADC_AWD_CR3_REGOFFSET) /*!< ADC analog watchdog numbe
 946:Drivers/STM32U0xx_HAL_Driver/Inc/stm32u0xx_ll_adc.h **** /**
 947:Drivers/STM32U0xx_HAL_Driver/Inc/stm32u0xx_ll_adc.h ****   * @}
 948:Drivers/STM32U0xx_HAL_Driver/Inc/stm32u0xx_ll_adc.h ****   */
 949:Drivers/STM32U0xx_HAL_Driver/Inc/stm32u0xx_ll_adc.h **** 
 950:Drivers/STM32U0xx_HAL_Driver/Inc/stm32u0xx_ll_adc.h **** /** @defgroup ADC_LL_EC_AWD_CHANNELS  Analog watchdog - Monitored channels
 951:Drivers/STM32U0xx_HAL_Driver/Inc/stm32u0xx_ll_adc.h ****   * @{
 952:Drivers/STM32U0xx_HAL_Driver/Inc/stm32u0xx_ll_adc.h ****   */
 953:Drivers/STM32U0xx_HAL_Driver/Inc/stm32u0xx_ll_adc.h **** #define LL_ADC_AWD_DISABLE                 (0x00000000UL)                           /*!< ADC analog
ARM GAS  C:\Users\upo\AppData\Local\Temp\ccaBY4hr.s 			page 36


 954:Drivers/STM32U0xx_HAL_Driver/Inc/stm32u0xx_ll_adc.h ****                                            disabled */
 955:Drivers/STM32U0xx_HAL_Driver/Inc/stm32u0xx_ll_adc.h **** #define LL_ADC_AWD_ALL_CHANNELS_REG        (ADC_AWD_CR23_CHANNEL_MASK \
 956:Drivers/STM32U0xx_HAL_Driver/Inc/stm32u0xx_ll_adc.h ****                                             | ADC_CFGR1_AWD1EN)                     /*!< ADC analog
 957:Drivers/STM32U0xx_HAL_Driver/Inc/stm32u0xx_ll_adc.h ****                                            of all channels, converted by group regular only */
 958:Drivers/STM32U0xx_HAL_Driver/Inc/stm32u0xx_ll_adc.h **** #define LL_ADC_AWD_CHANNEL_0_REG           ((LL_ADC_CHANNEL_0  & ADC_CHANNEL_ID_MASK) \
 959:Drivers/STM32U0xx_HAL_Driver/Inc/stm32u0xx_ll_adc.h ****                                             | ADC_CFGR1_AWD1EN | ADC_CFGR1_AWD1SGL)  /*!< ADC analo
 960:Drivers/STM32U0xx_HAL_Driver/Inc/stm32u0xx_ll_adc.h ****                                            of ADC channel ADCx_IN0, converted by group regular only
 961:Drivers/STM32U0xx_HAL_Driver/Inc/stm32u0xx_ll_adc.h **** #define LL_ADC_AWD_CHANNEL_1_REG           ((LL_ADC_CHANNEL_1  & ADC_CHANNEL_ID_MASK) \
 962:Drivers/STM32U0xx_HAL_Driver/Inc/stm32u0xx_ll_adc.h ****                                             | ADC_CFGR1_AWD1EN | ADC_CFGR1_AWD1SGL)  /*!< ADC analo
 963:Drivers/STM32U0xx_HAL_Driver/Inc/stm32u0xx_ll_adc.h ****                                            of ADC channel ADCx_IN1, converted by group regular only
 964:Drivers/STM32U0xx_HAL_Driver/Inc/stm32u0xx_ll_adc.h **** #define LL_ADC_AWD_CHANNEL_2_REG           ((LL_ADC_CHANNEL_2  & ADC_CHANNEL_ID_MASK) \
 965:Drivers/STM32U0xx_HAL_Driver/Inc/stm32u0xx_ll_adc.h ****                                             | ADC_CFGR1_AWD1EN | ADC_CFGR1_AWD1SGL)  /*!< ADC analo
 966:Drivers/STM32U0xx_HAL_Driver/Inc/stm32u0xx_ll_adc.h ****                                            of ADC channel ADCx_IN2, converted by group regular only
 967:Drivers/STM32U0xx_HAL_Driver/Inc/stm32u0xx_ll_adc.h **** #define LL_ADC_AWD_CHANNEL_3_REG           ((LL_ADC_CHANNEL_3  & ADC_CHANNEL_ID_MASK) \
 968:Drivers/STM32U0xx_HAL_Driver/Inc/stm32u0xx_ll_adc.h ****                                             | ADC_CFGR1_AWD1EN | ADC_CFGR1_AWD1SGL)  /*!< ADC analo
 969:Drivers/STM32U0xx_HAL_Driver/Inc/stm32u0xx_ll_adc.h ****                                            of ADC channel ADCx_IN3, converted by group regular only
 970:Drivers/STM32U0xx_HAL_Driver/Inc/stm32u0xx_ll_adc.h **** #define LL_ADC_AWD_CHANNEL_4_REG           ((LL_ADC_CHANNEL_4  & ADC_CHANNEL_ID_MASK) \
 971:Drivers/STM32U0xx_HAL_Driver/Inc/stm32u0xx_ll_adc.h ****                                             | ADC_CFGR1_AWD1EN | ADC_CFGR1_AWD1SGL)  /*!< ADC analo
 972:Drivers/STM32U0xx_HAL_Driver/Inc/stm32u0xx_ll_adc.h ****                                            of ADC channel ADCx_IN4, converted by group regular only
 973:Drivers/STM32U0xx_HAL_Driver/Inc/stm32u0xx_ll_adc.h **** #define LL_ADC_AWD_CHANNEL_5_REG           ((LL_ADC_CHANNEL_5  & ADC_CHANNEL_ID_MASK) \
 974:Drivers/STM32U0xx_HAL_Driver/Inc/stm32u0xx_ll_adc.h ****                                             | ADC_CFGR1_AWD1EN | ADC_CFGR1_AWD1SGL)  /*!< ADC analo
 975:Drivers/STM32U0xx_HAL_Driver/Inc/stm32u0xx_ll_adc.h ****                                            of ADC channel ADCx_IN5, converted by group regular only
 976:Drivers/STM32U0xx_HAL_Driver/Inc/stm32u0xx_ll_adc.h **** #define LL_ADC_AWD_CHANNEL_6_REG           ((LL_ADC_CHANNEL_6  & ADC_CHANNEL_ID_MASK) \
 977:Drivers/STM32U0xx_HAL_Driver/Inc/stm32u0xx_ll_adc.h ****                                             | ADC_CFGR1_AWD1EN | ADC_CFGR1_AWD1SGL)  /*!< ADC analo
 978:Drivers/STM32U0xx_HAL_Driver/Inc/stm32u0xx_ll_adc.h ****                                            of ADC channel ADCx_IN6, converted by group regular only
 979:Drivers/STM32U0xx_HAL_Driver/Inc/stm32u0xx_ll_adc.h **** #define LL_ADC_AWD_CHANNEL_7_REG           ((LL_ADC_CHANNEL_7  & ADC_CHANNEL_ID_MASK) \
 980:Drivers/STM32U0xx_HAL_Driver/Inc/stm32u0xx_ll_adc.h ****                                             | ADC_CFGR1_AWD1EN | ADC_CFGR1_AWD1SGL)  /*!< ADC analo
 981:Drivers/STM32U0xx_HAL_Driver/Inc/stm32u0xx_ll_adc.h ****                                            of ADC channel ADCx_IN7, converted by group regular only
 982:Drivers/STM32U0xx_HAL_Driver/Inc/stm32u0xx_ll_adc.h **** #define LL_ADC_AWD_CHANNEL_8_REG           ((LL_ADC_CHANNEL_8  & ADC_CHANNEL_ID_MASK) \
 983:Drivers/STM32U0xx_HAL_Driver/Inc/stm32u0xx_ll_adc.h ****                                             | ADC_CFGR1_AWD1EN | ADC_CFGR1_AWD1SGL)  /*!< ADC analo
 984:Drivers/STM32U0xx_HAL_Driver/Inc/stm32u0xx_ll_adc.h ****                                            of ADC channel ADCx_IN8, converted by group regular only
 985:Drivers/STM32U0xx_HAL_Driver/Inc/stm32u0xx_ll_adc.h **** #define LL_ADC_AWD_CHANNEL_9_REG           ((LL_ADC_CHANNEL_9  & ADC_CHANNEL_ID_MASK) \
 986:Drivers/STM32U0xx_HAL_Driver/Inc/stm32u0xx_ll_adc.h ****                                             | ADC_CFGR1_AWD1EN | ADC_CFGR1_AWD1SGL)  /*!< ADC analo
 987:Drivers/STM32U0xx_HAL_Driver/Inc/stm32u0xx_ll_adc.h ****                                            of ADC channel ADCx_IN9, converted by group regular only
 988:Drivers/STM32U0xx_HAL_Driver/Inc/stm32u0xx_ll_adc.h **** #define LL_ADC_AWD_CHANNEL_10_REG          ((LL_ADC_CHANNEL_10 & ADC_CHANNEL_ID_MASK) \
 989:Drivers/STM32U0xx_HAL_Driver/Inc/stm32u0xx_ll_adc.h ****                                             | ADC_CFGR1_AWD1EN | ADC_CFGR1_AWD1SGL)  /*!< ADC analo
 990:Drivers/STM32U0xx_HAL_Driver/Inc/stm32u0xx_ll_adc.h ****                                            of ADC channel ADCx_IN10, converted by group regular onl
 991:Drivers/STM32U0xx_HAL_Driver/Inc/stm32u0xx_ll_adc.h **** #define LL_ADC_AWD_CHANNEL_11_REG          ((LL_ADC_CHANNEL_11 & ADC_CHANNEL_ID_MASK) \
 992:Drivers/STM32U0xx_HAL_Driver/Inc/stm32u0xx_ll_adc.h ****                                             | ADC_CFGR1_AWD1EN | ADC_CFGR1_AWD1SGL)  /*!< ADC analo
 993:Drivers/STM32U0xx_HAL_Driver/Inc/stm32u0xx_ll_adc.h ****                                            of ADC channel ADCx_IN11, converted by group regular onl
 994:Drivers/STM32U0xx_HAL_Driver/Inc/stm32u0xx_ll_adc.h **** #define LL_ADC_AWD_CHANNEL_12_REG          ((LL_ADC_CHANNEL_12 & ADC_CHANNEL_ID_MASK) \
 995:Drivers/STM32U0xx_HAL_Driver/Inc/stm32u0xx_ll_adc.h ****                                             | ADC_CFGR1_AWD1EN | ADC_CFGR1_AWD1SGL)  /*!< ADC analo
 996:Drivers/STM32U0xx_HAL_Driver/Inc/stm32u0xx_ll_adc.h ****                                            of ADC channel ADCx_IN12, converted by group regular onl
 997:Drivers/STM32U0xx_HAL_Driver/Inc/stm32u0xx_ll_adc.h **** #define LL_ADC_AWD_CHANNEL_13_REG          ((LL_ADC_CHANNEL_13 & ADC_CHANNEL_ID_MASK) \
 998:Drivers/STM32U0xx_HAL_Driver/Inc/stm32u0xx_ll_adc.h ****                                             | ADC_CFGR1_AWD1EN | ADC_CFGR1_AWD1SGL)  /*!< ADC analo
 999:Drivers/STM32U0xx_HAL_Driver/Inc/stm32u0xx_ll_adc.h ****                                            of ADC channel ADCx_IN13, converted by group regular onl
1000:Drivers/STM32U0xx_HAL_Driver/Inc/stm32u0xx_ll_adc.h **** #define LL_ADC_AWD_CHANNEL_14_REG          ((LL_ADC_CHANNEL_14 & ADC_CHANNEL_ID_MASK) \
1001:Drivers/STM32U0xx_HAL_Driver/Inc/stm32u0xx_ll_adc.h ****                                             | ADC_CFGR1_AWD1EN | ADC_CFGR1_AWD1SGL)  /*!< ADC analo
1002:Drivers/STM32U0xx_HAL_Driver/Inc/stm32u0xx_ll_adc.h ****                                            of ADC channel ADCx_IN14, converted by group regular onl
1003:Drivers/STM32U0xx_HAL_Driver/Inc/stm32u0xx_ll_adc.h **** #define LL_ADC_AWD_CHANNEL_15_REG          ((LL_ADC_CHANNEL_15 & ADC_CHANNEL_ID_MASK) \
1004:Drivers/STM32U0xx_HAL_Driver/Inc/stm32u0xx_ll_adc.h ****                                             | ADC_CFGR1_AWD1EN | ADC_CFGR1_AWD1SGL)  /*!< ADC analo
1005:Drivers/STM32U0xx_HAL_Driver/Inc/stm32u0xx_ll_adc.h ****                                            of ADC channel ADCx_IN15, converted by group regular onl
1006:Drivers/STM32U0xx_HAL_Driver/Inc/stm32u0xx_ll_adc.h **** #define LL_ADC_AWD_CHANNEL_16_REG          ((LL_ADC_CHANNEL_16 & ADC_CHANNEL_ID_MASK) \
1007:Drivers/STM32U0xx_HAL_Driver/Inc/stm32u0xx_ll_adc.h ****                                             | ADC_CFGR1_AWD1EN | ADC_CFGR1_AWD1SGL) /*!< ADC analog
1008:Drivers/STM32U0xx_HAL_Driver/Inc/stm32u0xx_ll_adc.h ****                                            of ADC channel ADCx_IN16, converted by group regular onl
1009:Drivers/STM32U0xx_HAL_Driver/Inc/stm32u0xx_ll_adc.h **** #define LL_ADC_AWD_CHANNEL_17_REG          ((LL_ADC_CHANNEL_17 & ADC_CHANNEL_ID_MASK) \
1010:Drivers/STM32U0xx_HAL_Driver/Inc/stm32u0xx_ll_adc.h ****                                             | ADC_CFGR1_AWD1EN | ADC_CFGR1_AWD1SGL) /*!< ADC analog
ARM GAS  C:\Users\upo\AppData\Local\Temp\ccaBY4hr.s 			page 37


1011:Drivers/STM32U0xx_HAL_Driver/Inc/stm32u0xx_ll_adc.h ****                                            of ADC channel ADCx_IN17, converted by group regular onl
1012:Drivers/STM32U0xx_HAL_Driver/Inc/stm32u0xx_ll_adc.h **** #define LL_ADC_AWD_CHANNEL_18_REG          ((LL_ADC_CHANNEL_18 & ADC_CHANNEL_ID_MASK) \
1013:Drivers/STM32U0xx_HAL_Driver/Inc/stm32u0xx_ll_adc.h ****                                             | ADC_CFGR1_AWD1EN | ADC_CFGR1_AWD1SGL) /*!< ADC analog
1014:Drivers/STM32U0xx_HAL_Driver/Inc/stm32u0xx_ll_adc.h ****                                            of ADC channel ADCx_IN18, converted by group regular onl
1015:Drivers/STM32U0xx_HAL_Driver/Inc/stm32u0xx_ll_adc.h **** #define LL_ADC_AWD_CHANNEL_19_REG          ((LL_ADC_CHANNEL_19 & ADC_CHANNEL_ID_MASK) \
1016:Drivers/STM32U0xx_HAL_Driver/Inc/stm32u0xx_ll_adc.h ****                                             | ADC_CFGR1_AWD1EN | ADC_CFGR1_AWD1SGL) /*!< ADC analog
1017:Drivers/STM32U0xx_HAL_Driver/Inc/stm32u0xx_ll_adc.h ****                                            of ADC channel ADCx_IN19, converted by group regular onl
1018:Drivers/STM32U0xx_HAL_Driver/Inc/stm32u0xx_ll_adc.h **** #define LL_ADC_AWD_CH_VREFINT_REG          ((LL_ADC_CHANNEL_VREFINT    & ADC_CHANNEL_ID_MASK) \
1019:Drivers/STM32U0xx_HAL_Driver/Inc/stm32u0xx_ll_adc.h ****                                             | ADC_CFGR1_AWD1EN | ADC_CFGR1_AWD1SGL) /*!< ADC analog
1020:Drivers/STM32U0xx_HAL_Driver/Inc/stm32u0xx_ll_adc.h ****                                            of ADC internal channel connected to VrefInt: Internal
1021:Drivers/STM32U0xx_HAL_Driver/Inc/stm32u0xx_ll_adc.h ****                                            voltage reference, converted by group regular only */
1022:Drivers/STM32U0xx_HAL_Driver/Inc/stm32u0xx_ll_adc.h **** #define LL_ADC_AWD_CH_TEMPSENSOR_REG       ((LL_ADC_CHANNEL_TEMPSENSOR & ADC_CHANNEL_ID_MASK) \
1023:Drivers/STM32U0xx_HAL_Driver/Inc/stm32u0xx_ll_adc.h ****                                             | ADC_CFGR1_AWD1EN | ADC_CFGR1_AWD1SGL) /*!< ADC analog
1024:Drivers/STM32U0xx_HAL_Driver/Inc/stm32u0xx_ll_adc.h ****                                            of ADC internal channel connected to internal temperatur
1025:Drivers/STM32U0xx_HAL_Driver/Inc/stm32u0xx_ll_adc.h ****                                            converted by group regular only */
1026:Drivers/STM32U0xx_HAL_Driver/Inc/stm32u0xx_ll_adc.h **** #define LL_ADC_AWD_CH_VBAT_REG             ((LL_ADC_CHANNEL_VBAT       & ADC_CHANNEL_ID_MASK) \
1027:Drivers/STM32U0xx_HAL_Driver/Inc/stm32u0xx_ll_adc.h ****                                             | ADC_CFGR1_AWD1EN | ADC_CFGR1_AWD1SGL) /*!< ADC analog
1028:Drivers/STM32U0xx_HAL_Driver/Inc/stm32u0xx_ll_adc.h ****                                            of ADC internal channel connected to Vbat/3: Vbat
1029:Drivers/STM32U0xx_HAL_Driver/Inc/stm32u0xx_ll_adc.h ****                                            voltage through a divider ladder of factor 1/3 to have c
1030:Drivers/STM32U0xx_HAL_Driver/Inc/stm32u0xx_ll_adc.h ****                                            below Vdda, converted by group regular only */
1031:Drivers/STM32U0xx_HAL_Driver/Inc/stm32u0xx_ll_adc.h **** #define LL_ADC_AWD_CH_DACCH1_REG           ((LL_ADC_CHANNEL_DACCH1     & ADC_CHANNEL_ID_MASK) \
1032:Drivers/STM32U0xx_HAL_Driver/Inc/stm32u0xx_ll_adc.h ****                                             | ADC_CFGR1_AWD1EN | ADC_CFGR1_AWD1SGL) /*!< ADC analog
1033:Drivers/STM32U0xx_HAL_Driver/Inc/stm32u0xx_ll_adc.h ****                                            of ADC internal channel connected to DAC channel 1,
1034:Drivers/STM32U0xx_HAL_Driver/Inc/stm32u0xx_ll_adc.h ****                                            converted by group regular only */
1035:Drivers/STM32U0xx_HAL_Driver/Inc/stm32u0xx_ll_adc.h **** /**
1036:Drivers/STM32U0xx_HAL_Driver/Inc/stm32u0xx_ll_adc.h ****   * @}
1037:Drivers/STM32U0xx_HAL_Driver/Inc/stm32u0xx_ll_adc.h ****   */
1038:Drivers/STM32U0xx_HAL_Driver/Inc/stm32u0xx_ll_adc.h **** 
1039:Drivers/STM32U0xx_HAL_Driver/Inc/stm32u0xx_ll_adc.h **** /** @defgroup ADC_LL_EC_AWD_THRESHOLDS  Analog watchdog - Thresholds
1040:Drivers/STM32U0xx_HAL_Driver/Inc/stm32u0xx_ll_adc.h ****   * @{
1041:Drivers/STM32U0xx_HAL_Driver/Inc/stm32u0xx_ll_adc.h ****   */
1042:Drivers/STM32U0xx_HAL_Driver/Inc/stm32u0xx_ll_adc.h **** #define LL_ADC_AWD_THRESHOLD_HIGH          (ADC_AWD1TR_HT1)   /*!< ADC analog watchdog threshold hi
1043:Drivers/STM32U0xx_HAL_Driver/Inc/stm32u0xx_ll_adc.h **** #define LL_ADC_AWD_THRESHOLD_LOW           (ADC_AWD1TR_LT1)   /*!< ADC analog watchdog threshold lo
1044:Drivers/STM32U0xx_HAL_Driver/Inc/stm32u0xx_ll_adc.h **** #define LL_ADC_AWD_THRESHOLDS_HIGH_LOW     (ADC_AWD1TR_HT1 \
1045:Drivers/STM32U0xx_HAL_Driver/Inc/stm32u0xx_ll_adc.h ****                                             | ADC_AWD1TR_LT1)  /*!< ADC analog watchdog both thresh
1046:Drivers/STM32U0xx_HAL_Driver/Inc/stm32u0xx_ll_adc.h ****                                                                    concatenated into the same data 
1047:Drivers/STM32U0xx_HAL_Driver/Inc/stm32u0xx_ll_adc.h **** /**
1048:Drivers/STM32U0xx_HAL_Driver/Inc/stm32u0xx_ll_adc.h ****   * @}
1049:Drivers/STM32U0xx_HAL_Driver/Inc/stm32u0xx_ll_adc.h ****   */
1050:Drivers/STM32U0xx_HAL_Driver/Inc/stm32u0xx_ll_adc.h **** 
1051:Drivers/STM32U0xx_HAL_Driver/Inc/stm32u0xx_ll_adc.h **** /** @defgroup ADC_LL_EC_OVS_SCOPE  Oversampling - Oversampling scope
1052:Drivers/STM32U0xx_HAL_Driver/Inc/stm32u0xx_ll_adc.h ****   * @{
1053:Drivers/STM32U0xx_HAL_Driver/Inc/stm32u0xx_ll_adc.h ****   */
1054:Drivers/STM32U0xx_HAL_Driver/Inc/stm32u0xx_ll_adc.h **** #define LL_ADC_OVS_DISABLE                 (0x00000000UL)                      /*!< ADC oversamplin
1055:Drivers/STM32U0xx_HAL_Driver/Inc/stm32u0xx_ll_adc.h **** #define LL_ADC_OVS_GRP_REGULAR_CONTINUED   (ADC_CFGR2_OVSE)                    /*!< ADC oversamplin
1056:Drivers/STM32U0xx_HAL_Driver/Inc/stm32u0xx_ll_adc.h ****                                            ADC group regular. Literal suffix "continued" is kept fo
1057:Drivers/STM32U0xx_HAL_Driver/Inc/stm32u0xx_ll_adc.h ****                                            with other STM32 devices featuring ADC group injected, i
1058:Drivers/STM32U0xx_HAL_Driver/Inc/stm32u0xx_ll_adc.h ****                                            oversampling scope parameters are available. */
1059:Drivers/STM32U0xx_HAL_Driver/Inc/stm32u0xx_ll_adc.h **** /**
1060:Drivers/STM32U0xx_HAL_Driver/Inc/stm32u0xx_ll_adc.h ****   * @}
1061:Drivers/STM32U0xx_HAL_Driver/Inc/stm32u0xx_ll_adc.h ****   */
1062:Drivers/STM32U0xx_HAL_Driver/Inc/stm32u0xx_ll_adc.h **** 
1063:Drivers/STM32U0xx_HAL_Driver/Inc/stm32u0xx_ll_adc.h **** /** @defgroup ADC_LL_EC_OVS_DISCONT_MODE  Oversampling - Discontinuous mode
1064:Drivers/STM32U0xx_HAL_Driver/Inc/stm32u0xx_ll_adc.h ****   * @{
1065:Drivers/STM32U0xx_HAL_Driver/Inc/stm32u0xx_ll_adc.h ****   */
1066:Drivers/STM32U0xx_HAL_Driver/Inc/stm32u0xx_ll_adc.h **** #define LL_ADC_OVS_REG_CONT                (0x00000000UL)     /*!< ADC oversampling discontinuous m
1067:Drivers/STM32U0xx_HAL_Driver/Inc/stm32u0xx_ll_adc.h **** (all conversions of oversampling ratio are done from 1 trigger) */
ARM GAS  C:\Users\upo\AppData\Local\Temp\ccaBY4hr.s 			page 38


1068:Drivers/STM32U0xx_HAL_Driver/Inc/stm32u0xx_ll_adc.h **** #define LL_ADC_OVS_REG_DISCONT             (ADC_CFGR2_TOVS)   /*!< ADC oversampling discontinuous m
1069:Drivers/STM32U0xx_HAL_Driver/Inc/stm32u0xx_ll_adc.h ****                                            mode (each conversion of oversampling ratio needs a trig
1070:Drivers/STM32U0xx_HAL_Driver/Inc/stm32u0xx_ll_adc.h **** /**
1071:Drivers/STM32U0xx_HAL_Driver/Inc/stm32u0xx_ll_adc.h ****   * @}
1072:Drivers/STM32U0xx_HAL_Driver/Inc/stm32u0xx_ll_adc.h ****   */
1073:Drivers/STM32U0xx_HAL_Driver/Inc/stm32u0xx_ll_adc.h **** 
1074:Drivers/STM32U0xx_HAL_Driver/Inc/stm32u0xx_ll_adc.h **** /** @defgroup ADC_LL_EC_OVS_RATIO  Oversampling - Ratio
1075:Drivers/STM32U0xx_HAL_Driver/Inc/stm32u0xx_ll_adc.h ****   * @{
1076:Drivers/STM32U0xx_HAL_Driver/Inc/stm32u0xx_ll_adc.h ****   */
1077:Drivers/STM32U0xx_HAL_Driver/Inc/stm32u0xx_ll_adc.h **** #define LL_ADC_OVS_RATIO_2                 (0x00000000UL)                        /*!< ADC oversampl
1078:Drivers/STM32U0xx_HAL_Driver/Inc/stm32u0xx_ll_adc.h ****                                            (sum of conversions data computed to result as oversampl
1079:Drivers/STM32U0xx_HAL_Driver/Inc/stm32u0xx_ll_adc.h ****                                            (before potential shift) */
1080:Drivers/STM32U0xx_HAL_Driver/Inc/stm32u0xx_ll_adc.h **** #define LL_ADC_OVS_RATIO_4                 (ADC_CFGR2_OVSR_0)                    /*!< ADC oversampl
1081:Drivers/STM32U0xx_HAL_Driver/Inc/stm32u0xx_ll_adc.h ****                                            (sum of conversions data computed to result as oversampl
1082:Drivers/STM32U0xx_HAL_Driver/Inc/stm32u0xx_ll_adc.h ****                                            (before potential shift) */
1083:Drivers/STM32U0xx_HAL_Driver/Inc/stm32u0xx_ll_adc.h **** #define LL_ADC_OVS_RATIO_8                 (ADC_CFGR2_OVSR_1)                    /*!< ADC oversampl
1084:Drivers/STM32U0xx_HAL_Driver/Inc/stm32u0xx_ll_adc.h ****                                            (sum of conversions data computed to result as oversampl
1085:Drivers/STM32U0xx_HAL_Driver/Inc/stm32u0xx_ll_adc.h ****                                            (before potential shift) */
1086:Drivers/STM32U0xx_HAL_Driver/Inc/stm32u0xx_ll_adc.h **** #define LL_ADC_OVS_RATIO_16                (ADC_CFGR2_OVSR_1 | ADC_CFGR2_OVSR_0) /*!< ADC oversampl
1087:Drivers/STM32U0xx_HAL_Driver/Inc/stm32u0xx_ll_adc.h ****                                            (sum of conversions data computed to result as oversampl
1088:Drivers/STM32U0xx_HAL_Driver/Inc/stm32u0xx_ll_adc.h ****                                            (before potential shift) */
1089:Drivers/STM32U0xx_HAL_Driver/Inc/stm32u0xx_ll_adc.h **** #define LL_ADC_OVS_RATIO_32                (ADC_CFGR2_OVSR_2)                    /*!< ADC oversampl
1090:Drivers/STM32U0xx_HAL_Driver/Inc/stm32u0xx_ll_adc.h ****                                            (sum of conversions data computed to result as oversampl
1091:Drivers/STM32U0xx_HAL_Driver/Inc/stm32u0xx_ll_adc.h ****                                            (before potential shift) */
1092:Drivers/STM32U0xx_HAL_Driver/Inc/stm32u0xx_ll_adc.h **** #define LL_ADC_OVS_RATIO_64                (ADC_CFGR2_OVSR_2 | ADC_CFGR2_OVSR_0) /*!< ADC oversampl
1093:Drivers/STM32U0xx_HAL_Driver/Inc/stm32u0xx_ll_adc.h ****                                            (sum of conversions data computed to result as oversampl
1094:Drivers/STM32U0xx_HAL_Driver/Inc/stm32u0xx_ll_adc.h ****                                            (before potential shift) */
1095:Drivers/STM32U0xx_HAL_Driver/Inc/stm32u0xx_ll_adc.h **** #define LL_ADC_OVS_RATIO_128               (ADC_CFGR2_OVSR_2 | ADC_CFGR2_OVSR_1) /*!< ADC oversampl
1096:Drivers/STM32U0xx_HAL_Driver/Inc/stm32u0xx_ll_adc.h ****                                            (sum of conversions data computed to result as oversampl
1097:Drivers/STM32U0xx_HAL_Driver/Inc/stm32u0xx_ll_adc.h ****                                            (before potential shift) */
1098:Drivers/STM32U0xx_HAL_Driver/Inc/stm32u0xx_ll_adc.h **** #define LL_ADC_OVS_RATIO_256               (ADC_CFGR2_OVSR_2 | ADC_CFGR2_OVSR_1 \
1099:Drivers/STM32U0xx_HAL_Driver/Inc/stm32u0xx_ll_adc.h ****                                             | ADC_CFGR2_OVSR_0)                   /*!< ADC oversamp
1100:Drivers/STM32U0xx_HAL_Driver/Inc/stm32u0xx_ll_adc.h ****                                            (sum of conversions data computed to result as oversampl
1101:Drivers/STM32U0xx_HAL_Driver/Inc/stm32u0xx_ll_adc.h ****                                            (before potential shift) */
1102:Drivers/STM32U0xx_HAL_Driver/Inc/stm32u0xx_ll_adc.h **** /**
1103:Drivers/STM32U0xx_HAL_Driver/Inc/stm32u0xx_ll_adc.h ****   * @}
1104:Drivers/STM32U0xx_HAL_Driver/Inc/stm32u0xx_ll_adc.h ****   */
1105:Drivers/STM32U0xx_HAL_Driver/Inc/stm32u0xx_ll_adc.h **** 
1106:Drivers/STM32U0xx_HAL_Driver/Inc/stm32u0xx_ll_adc.h **** /** @defgroup ADC_LL_EC_OVS_SHIFT  Oversampling - Data right shift
1107:Drivers/STM32U0xx_HAL_Driver/Inc/stm32u0xx_ll_adc.h ****   * @{
1108:Drivers/STM32U0xx_HAL_Driver/Inc/stm32u0xx_ll_adc.h ****   */
1109:Drivers/STM32U0xx_HAL_Driver/Inc/stm32u0xx_ll_adc.h **** #define LL_ADC_OVS_SHIFT_NONE              (0x00000000UL)                        /*!< ADC oversampl
1110:Drivers/STM32U0xx_HAL_Driver/Inc/stm32u0xx_ll_adc.h ****                                            (sum of the ADC conversions data is not divided to resul
1111:Drivers/STM32U0xx_HAL_Driver/Inc/stm32u0xx_ll_adc.h ****                                            conversion data) */
1112:Drivers/STM32U0xx_HAL_Driver/Inc/stm32u0xx_ll_adc.h **** #define LL_ADC_OVS_SHIFT_RIGHT_1           (ADC_CFGR2_OVSS_0)                    /*!< ADC oversampl
1113:Drivers/STM32U0xx_HAL_Driver/Inc/stm32u0xx_ll_adc.h ****                                            (sum of the ADC conversions data (after OVS ratio) is di
1114:Drivers/STM32U0xx_HAL_Driver/Inc/stm32u0xx_ll_adc.h ****                                            to result as oversampling conversion data) */
1115:Drivers/STM32U0xx_HAL_Driver/Inc/stm32u0xx_ll_adc.h **** #define LL_ADC_OVS_SHIFT_RIGHT_2           (ADC_CFGR2_OVSS_1)                    /*!< ADC oversampl
1116:Drivers/STM32U0xx_HAL_Driver/Inc/stm32u0xx_ll_adc.h ****                                            (sum of the ADC conversions data (after OVS ratio) is di
1117:Drivers/STM32U0xx_HAL_Driver/Inc/stm32u0xx_ll_adc.h ****                                            to result as oversampling conversion data) */
1118:Drivers/STM32U0xx_HAL_Driver/Inc/stm32u0xx_ll_adc.h **** #define LL_ADC_OVS_SHIFT_RIGHT_3           (ADC_CFGR2_OVSS_1 | ADC_CFGR2_OVSS_0) /*!< ADC oversampl
1119:Drivers/STM32U0xx_HAL_Driver/Inc/stm32u0xx_ll_adc.h ****                                            (sum of the ADC conversions data (after OVS ratio) is di
1120:Drivers/STM32U0xx_HAL_Driver/Inc/stm32u0xx_ll_adc.h ****                                            to result as oversampling conversion data) */
1121:Drivers/STM32U0xx_HAL_Driver/Inc/stm32u0xx_ll_adc.h **** #define LL_ADC_OVS_SHIFT_RIGHT_4           (ADC_CFGR2_OVSS_2)                    /*!< ADC oversampl
1122:Drivers/STM32U0xx_HAL_Driver/Inc/stm32u0xx_ll_adc.h ****                                            (sum of the ADC conversions data (after OVS ratio) is di
1123:Drivers/STM32U0xx_HAL_Driver/Inc/stm32u0xx_ll_adc.h ****                                            to result as oversampling conversion data) */
1124:Drivers/STM32U0xx_HAL_Driver/Inc/stm32u0xx_ll_adc.h **** #define LL_ADC_OVS_SHIFT_RIGHT_5           (ADC_CFGR2_OVSS_2 | ADC_CFGR2_OVSS_0) /*!< ADC oversampl
ARM GAS  C:\Users\upo\AppData\Local\Temp\ccaBY4hr.s 			page 39


1125:Drivers/STM32U0xx_HAL_Driver/Inc/stm32u0xx_ll_adc.h ****                                            (sum of the ADC conversions data (after OVS ratio) is di
1126:Drivers/STM32U0xx_HAL_Driver/Inc/stm32u0xx_ll_adc.h ****                                            to result as oversampling conversion data) */
1127:Drivers/STM32U0xx_HAL_Driver/Inc/stm32u0xx_ll_adc.h **** #define LL_ADC_OVS_SHIFT_RIGHT_6           (ADC_CFGR2_OVSS_2 | ADC_CFGR2_OVSS_1) /*!< ADC oversampl
