ARM GAS  C:\Users\upo\AppData\Local\Temp\ccdB8pc0.s 			page 1


   1              		.cpu cortex-m0plus
   2              		.arch armv6s-m
   3              		.fpu softvfp
   4              		.eabi_attribute 20, 1
   5              		.eabi_attribute 21, 1
   6              		.eabi_attribute 23, 3
   7              		.eabi_attribute 24, 1
   8              		.eabi_attribute 25, 1
   9              		.eabi_attribute 26, 1
  10              		.eabi_attribute 30, 2
  11              		.eabi_attribute 34, 0
  12              		.eabi_attribute 18, 4
  13              		.file	"stm32u0xx_hal_flash_ex.c"
  14              		.text
  15              	.Ltext0:
  16              		.cfi_sections	.debug_frame
  17              		.file 1 "Drivers/STM32U0xx_HAL_Driver/Src/stm32u0xx_hal_flash_ex.c"
  18              		.section	.text.HAL_FLASHEx_Erase,"ax",%progbits
  19              		.align	1
  20              		.p2align 2,,3
  21              		.global	HAL_FLASHEx_Erase
  22              		.syntax unified
  23              		.code	16
  24              		.thumb_func
  26              	HAL_FLASHEx_Erase:
  27              	.LVL0:
  28              	.LFB334:
   1:Drivers/STM32U0xx_HAL_Driver/Src/stm32u0xx_hal_flash_ex.c **** /**
   2:Drivers/STM32U0xx_HAL_Driver/Src/stm32u0xx_hal_flash_ex.c ****   ******************************************************************************
   3:Drivers/STM32U0xx_HAL_Driver/Src/stm32u0xx_hal_flash_ex.c ****   * @file    stm32u0xx_hal_flash_ex.c
   4:Drivers/STM32U0xx_HAL_Driver/Src/stm32u0xx_hal_flash_ex.c ****   * @author  MCD Application Team
   5:Drivers/STM32U0xx_HAL_Driver/Src/stm32u0xx_hal_flash_ex.c ****   * @brief   Extended FLASH HAL module driver.
   6:Drivers/STM32U0xx_HAL_Driver/Src/stm32u0xx_hal_flash_ex.c ****   *          This file provides firmware functions to manage the following
   7:Drivers/STM32U0xx_HAL_Driver/Src/stm32u0xx_hal_flash_ex.c ****   *          functionalities of the FLASH extended peripheral:
   8:Drivers/STM32U0xx_HAL_Driver/Src/stm32u0xx_hal_flash_ex.c ****   *           + Extended programming operations functions
   9:Drivers/STM32U0xx_HAL_Driver/Src/stm32u0xx_hal_flash_ex.c ****   *
  10:Drivers/STM32U0xx_HAL_Driver/Src/stm32u0xx_hal_flash_ex.c ****  @verbatim
  11:Drivers/STM32U0xx_HAL_Driver/Src/stm32u0xx_hal_flash_ex.c ****  ==============================================================================
  12:Drivers/STM32U0xx_HAL_Driver/Src/stm32u0xx_hal_flash_ex.c ****                    ##### Flash Extended features #####
  13:Drivers/STM32U0xx_HAL_Driver/Src/stm32u0xx_hal_flash_ex.c ****   ==============================================================================
  14:Drivers/STM32U0xx_HAL_Driver/Src/stm32u0xx_hal_flash_ex.c **** 
  15:Drivers/STM32U0xx_HAL_Driver/Src/stm32u0xx_hal_flash_ex.c ****   [..] Comparing to other previous devices, the FLASH interface for STM32U0xx
  16:Drivers/STM32U0xx_HAL_Driver/Src/stm32u0xx_hal_flash_ex.c ****        devices contains the following additional features
  17:Drivers/STM32U0xx_HAL_Driver/Src/stm32u0xx_hal_flash_ex.c **** 
  18:Drivers/STM32U0xx_HAL_Driver/Src/stm32u0xx_hal_flash_ex.c ****        (+) Capacity up to 128 Kbytes with single bank architecture supporting read-while-write
  19:Drivers/STM32U0xx_HAL_Driver/Src/stm32u0xx_hal_flash_ex.c ****            capability (RWW)
  20:Drivers/STM32U0xx_HAL_Driver/Src/stm32u0xx_hal_flash_ex.c ****        (+) Write protection
  21:Drivers/STM32U0xx_HAL_Driver/Src/stm32u0xx_hal_flash_ex.c ****        (+) Single bank memory organization
  22:Drivers/STM32U0xx_HAL_Driver/Src/stm32u0xx_hal_flash_ex.c ****        (+) Hide Protection areas
  23:Drivers/STM32U0xx_HAL_Driver/Src/stm32u0xx_hal_flash_ex.c **** 
  24:Drivers/STM32U0xx_HAL_Driver/Src/stm32u0xx_hal_flash_ex.c ****                         ##### How to use this driver #####
  25:Drivers/STM32U0xx_HAL_Driver/Src/stm32u0xx_hal_flash_ex.c ****  ==============================================================================
  26:Drivers/STM32U0xx_HAL_Driver/Src/stm32u0xx_hal_flash_ex.c ****   [..] This driver provides functions to configure and program the FLASH memory
  27:Drivers/STM32U0xx_HAL_Driver/Src/stm32u0xx_hal_flash_ex.c ****        of all STM32U0xx devices. It includes
  28:Drivers/STM32U0xx_HAL_Driver/Src/stm32u0xx_hal_flash_ex.c ****       (#) Flash Memory Erase functions:
  29:Drivers/STM32U0xx_HAL_Driver/Src/stm32u0xx_hal_flash_ex.c ****            (++) Lock and Unlock the FLASH interface using HAL_FLASH_Unlock() and
  30:Drivers/STM32U0xx_HAL_Driver/Src/stm32u0xx_hal_flash_ex.c ****                 HAL_FLASH_Lock() functions
ARM GAS  C:\Users\upo\AppData\Local\Temp\ccdB8pc0.s 			page 2


  31:Drivers/STM32U0xx_HAL_Driver/Src/stm32u0xx_hal_flash_ex.c ****            (++) Erase function: Erase page, erase all sectors
  32:Drivers/STM32U0xx_HAL_Driver/Src/stm32u0xx_hal_flash_ex.c ****            (++) There are two modes of erase :
  33:Drivers/STM32U0xx_HAL_Driver/Src/stm32u0xx_hal_flash_ex.c ****              (+++) Polling Mode using HAL_FLASHEx_Erase()
  34:Drivers/STM32U0xx_HAL_Driver/Src/stm32u0xx_hal_flash_ex.c ****              (+++) Interrupt Mode using HAL_FLASHEx_Erase_IT()
  35:Drivers/STM32U0xx_HAL_Driver/Src/stm32u0xx_hal_flash_ex.c **** 
  36:Drivers/STM32U0xx_HAL_Driver/Src/stm32u0xx_hal_flash_ex.c ****       (#) Option Bytes Programming function: Use HAL_FLASHEx_OBProgram() to :
  37:Drivers/STM32U0xx_HAL_Driver/Src/stm32u0xx_hal_flash_ex.c ****         (++) Set/Reset the write protection
  38:Drivers/STM32U0xx_HAL_Driver/Src/stm32u0xx_hal_flash_ex.c ****         (++) Set the Read protection Level
  39:Drivers/STM32U0xx_HAL_Driver/Src/stm32u0xx_hal_flash_ex.c ****         (++) Program the user Option Bytes
  40:Drivers/STM32U0xx_HAL_Driver/Src/stm32u0xx_hal_flash_ex.c ****         (++) Set boot lock
  41:Drivers/STM32U0xx_HAL_Driver/Src/stm32u0xx_hal_flash_ex.c ****         (++) Configure the Hide protection areas
  42:Drivers/STM32U0xx_HAL_Driver/Src/stm32u0xx_hal_flash_ex.c **** 
  43:Drivers/STM32U0xx_HAL_Driver/Src/stm32u0xx_hal_flash_ex.c ****       (#) Get Option Bytes Configuration function: Use HAL_FLASHEx_OBGetConfig() to :
  44:Drivers/STM32U0xx_HAL_Driver/Src/stm32u0xx_hal_flash_ex.c ****         (++) Get the value of a write protection area
  45:Drivers/STM32U0xx_HAL_Driver/Src/stm32u0xx_hal_flash_ex.c ****         (++) Know if the read protection is activated
  46:Drivers/STM32U0xx_HAL_Driver/Src/stm32u0xx_hal_flash_ex.c ****         (++) Get the value of the user Option Bytes
  47:Drivers/STM32U0xx_HAL_Driver/Src/stm32u0xx_hal_flash_ex.c ****         (++) Get the boot lock information
  48:Drivers/STM32U0xx_HAL_Driver/Src/stm32u0xx_hal_flash_ex.c ****         (++) Get the configuration of Hide protection areas
  49:Drivers/STM32U0xx_HAL_Driver/Src/stm32u0xx_hal_flash_ex.c **** 
  50:Drivers/STM32U0xx_HAL_Driver/Src/stm32u0xx_hal_flash_ex.c ****       (#) Enable or disable debugger usage using HAL_FLASHEx_EnableDebugger and
  51:Drivers/STM32U0xx_HAL_Driver/Src/stm32u0xx_hal_flash_ex.c ****           HAL_FLASHEx_DisableDebugger.
  52:Drivers/STM32U0xx_HAL_Driver/Src/stm32u0xx_hal_flash_ex.c **** 
  53:Drivers/STM32U0xx_HAL_Driver/Src/stm32u0xx_hal_flash_ex.c ****       (#) Check is flash content is empty or not using HAL_FLASHEx_FlashEmptyCheck.
  54:Drivers/STM32U0xx_HAL_Driver/Src/stm32u0xx_hal_flash_ex.c ****           and modify this setting (for flash loader purpose e.g.) using
  55:Drivers/STM32U0xx_HAL_Driver/Src/stm32u0xx_hal_flash_ex.c ****           HAL_FLASHEx_ForceFlashEmpty.
  56:Drivers/STM32U0xx_HAL_Driver/Src/stm32u0xx_hal_flash_ex.c **** 
  57:Drivers/STM32U0xx_HAL_Driver/Src/stm32u0xx_hal_flash_ex.c ****       (#) Enable HDP area protection using HAL_FLASHEx_EnableHDPProtection
  58:Drivers/STM32U0xx_HAL_Driver/Src/stm32u0xx_hal_flash_ex.c **** 
  59:Drivers/STM32U0xx_HAL_Driver/Src/stm32u0xx_hal_flash_ex.c ****  @endverbatim
  60:Drivers/STM32U0xx_HAL_Driver/Src/stm32u0xx_hal_flash_ex.c ****   ******************************************************************************
  61:Drivers/STM32U0xx_HAL_Driver/Src/stm32u0xx_hal_flash_ex.c ****   * @attention
  62:Drivers/STM32U0xx_HAL_Driver/Src/stm32u0xx_hal_flash_ex.c ****   *
  63:Drivers/STM32U0xx_HAL_Driver/Src/stm32u0xx_hal_flash_ex.c ****   * Copyright (c) 2023 STMicroelectronics.
  64:Drivers/STM32U0xx_HAL_Driver/Src/stm32u0xx_hal_flash_ex.c ****   * All rights reserved.
  65:Drivers/STM32U0xx_HAL_Driver/Src/stm32u0xx_hal_flash_ex.c ****   *
  66:Drivers/STM32U0xx_HAL_Driver/Src/stm32u0xx_hal_flash_ex.c ****   * This software is licensed under terms that can be found in the LICENSE file
  67:Drivers/STM32U0xx_HAL_Driver/Src/stm32u0xx_hal_flash_ex.c ****   * in the root directory of this software component.
  68:Drivers/STM32U0xx_HAL_Driver/Src/stm32u0xx_hal_flash_ex.c ****   * If no LICENSE file comes with this software, it is provided AS-IS.
  69:Drivers/STM32U0xx_HAL_Driver/Src/stm32u0xx_hal_flash_ex.c ****   *
  70:Drivers/STM32U0xx_HAL_Driver/Src/stm32u0xx_hal_flash_ex.c ****   ******************************************************************************
  71:Drivers/STM32U0xx_HAL_Driver/Src/stm32u0xx_hal_flash_ex.c ****   */
  72:Drivers/STM32U0xx_HAL_Driver/Src/stm32u0xx_hal_flash_ex.c **** 
  73:Drivers/STM32U0xx_HAL_Driver/Src/stm32u0xx_hal_flash_ex.c **** /* Includes ------------------------------------------------------------------*/
  74:Drivers/STM32U0xx_HAL_Driver/Src/stm32u0xx_hal_flash_ex.c **** #include "stm32u0xx_hal.h"
  75:Drivers/STM32U0xx_HAL_Driver/Src/stm32u0xx_hal_flash_ex.c **** 
  76:Drivers/STM32U0xx_HAL_Driver/Src/stm32u0xx_hal_flash_ex.c **** /** @addtogroup STM32U0xx_HAL_Driver
  77:Drivers/STM32U0xx_HAL_Driver/Src/stm32u0xx_hal_flash_ex.c ****   * @{
  78:Drivers/STM32U0xx_HAL_Driver/Src/stm32u0xx_hal_flash_ex.c ****   */
  79:Drivers/STM32U0xx_HAL_Driver/Src/stm32u0xx_hal_flash_ex.c **** 
  80:Drivers/STM32U0xx_HAL_Driver/Src/stm32u0xx_hal_flash_ex.c **** /** @defgroup FLASHEx FLASHEx
  81:Drivers/STM32U0xx_HAL_Driver/Src/stm32u0xx_hal_flash_ex.c ****   * @brief FLASH Extended HAL module driver
  82:Drivers/STM32U0xx_HAL_Driver/Src/stm32u0xx_hal_flash_ex.c ****   * @{
  83:Drivers/STM32U0xx_HAL_Driver/Src/stm32u0xx_hal_flash_ex.c ****   */
  84:Drivers/STM32U0xx_HAL_Driver/Src/stm32u0xx_hal_flash_ex.c **** 
  85:Drivers/STM32U0xx_HAL_Driver/Src/stm32u0xx_hal_flash_ex.c **** #ifdef HAL_FLASH_MODULE_ENABLED
  86:Drivers/STM32U0xx_HAL_Driver/Src/stm32u0xx_hal_flash_ex.c **** 
  87:Drivers/STM32U0xx_HAL_Driver/Src/stm32u0xx_hal_flash_ex.c **** /* Private typedef -----------------------------------------------------------*/
ARM GAS  C:\Users\upo\AppData\Local\Temp\ccdB8pc0.s 			page 3


  88:Drivers/STM32U0xx_HAL_Driver/Src/stm32u0xx_hal_flash_ex.c **** /* Private define ------------------------------------------------------------*/
  89:Drivers/STM32U0xx_HAL_Driver/Src/stm32u0xx_hal_flash_ex.c **** /* Private macro -------------------------------------------------------------*/
  90:Drivers/STM32U0xx_HAL_Driver/Src/stm32u0xx_hal_flash_ex.c **** /* Private variables ---------------------------------------------------------*/
  91:Drivers/STM32U0xx_HAL_Driver/Src/stm32u0xx_hal_flash_ex.c **** /* Private function prototypes -----------------------------------------------*/
  92:Drivers/STM32U0xx_HAL_Driver/Src/stm32u0xx_hal_flash_ex.c **** /** @defgroup FLASHEx_Private_Functions FLASHEx Private Functions
  93:Drivers/STM32U0xx_HAL_Driver/Src/stm32u0xx_hal_flash_ex.c ****   * @{
  94:Drivers/STM32U0xx_HAL_Driver/Src/stm32u0xx_hal_flash_ex.c ****   */
  95:Drivers/STM32U0xx_HAL_Driver/Src/stm32u0xx_hal_flash_ex.c **** static void               FLASH_MassErase(void);
  96:Drivers/STM32U0xx_HAL_Driver/Src/stm32u0xx_hal_flash_ex.c **** static void               FLASH_OB_WRPConfig(uint32_t WRPArea, uint32_t WRPStartOffset, uint32_t WR
  97:Drivers/STM32U0xx_HAL_Driver/Src/stm32u0xx_hal_flash_ex.c **** static void               FLASH_OB_GetWRP(uint32_t WRPArea, uint32_t *WRPStartOffset, uint32_t *WRD
  98:Drivers/STM32U0xx_HAL_Driver/Src/stm32u0xx_hal_flash_ex.c **** static void               FLASH_OB_OptrConfig(uint32_t UserType, uint32_t UserConfig, uint32_t RDPL
  99:Drivers/STM32U0xx_HAL_Driver/Src/stm32u0xx_hal_flash_ex.c **** static uint32_t           FLASH_OB_GetRDP(void);
 100:Drivers/STM32U0xx_HAL_Driver/Src/stm32u0xx_hal_flash_ex.c **** static uint32_t           FLASH_OB_GetUser(void);
 101:Drivers/STM32U0xx_HAL_Driver/Src/stm32u0xx_hal_flash_ex.c **** void                      FLASH_OB_GetOEMKeyCRC(uint32_t *OEM1KeyCRC, uint32_t *OEM2KEYCRC);
 102:Drivers/STM32U0xx_HAL_Driver/Src/stm32u0xx_hal_flash_ex.c **** static void               FLASH_OB_HDPConfig(uint32_t BootEntry, uint32_t HDPEndPage, uint32_t HDPE
 103:Drivers/STM32U0xx_HAL_Driver/Src/stm32u0xx_hal_flash_ex.c **** static void               FLASH_OB_GetHDPConfig(uint32_t *BootEntry, uint32_t *HDPEndPage, uint32_t
 104:Drivers/STM32U0xx_HAL_Driver/Src/stm32u0xx_hal_flash_ex.c **** static void               FLASH_OB_RDPKeyConfig(uint32_t RDPKeyType, uint32_t RDPKey0, uint32_t RDP
 105:Drivers/STM32U0xx_HAL_Driver/Src/stm32u0xx_hal_flash_ex.c ****                                                 uint32_t RDPKey2, uint32_t RDPKey3);
 106:Drivers/STM32U0xx_HAL_Driver/Src/stm32u0xx_hal_flash_ex.c **** 
 107:Drivers/STM32U0xx_HAL_Driver/Src/stm32u0xx_hal_flash_ex.c **** /**
 108:Drivers/STM32U0xx_HAL_Driver/Src/stm32u0xx_hal_flash_ex.c ****   * @}
 109:Drivers/STM32U0xx_HAL_Driver/Src/stm32u0xx_hal_flash_ex.c ****   */
 110:Drivers/STM32U0xx_HAL_Driver/Src/stm32u0xx_hal_flash_ex.c **** 
 111:Drivers/STM32U0xx_HAL_Driver/Src/stm32u0xx_hal_flash_ex.c **** /* Exported functions -------------------------------------------------------*/
 112:Drivers/STM32U0xx_HAL_Driver/Src/stm32u0xx_hal_flash_ex.c **** /** @defgroup FLASHEx_Exported_Functions FLASH Extended Exported Functions
 113:Drivers/STM32U0xx_HAL_Driver/Src/stm32u0xx_hal_flash_ex.c ****   * @{
 114:Drivers/STM32U0xx_HAL_Driver/Src/stm32u0xx_hal_flash_ex.c ****   */
 115:Drivers/STM32U0xx_HAL_Driver/Src/stm32u0xx_hal_flash_ex.c **** 
 116:Drivers/STM32U0xx_HAL_Driver/Src/stm32u0xx_hal_flash_ex.c **** /** @defgroup FLASHEx_Exported_Functions_Group1 Extended IO operation functions
 117:Drivers/STM32U0xx_HAL_Driver/Src/stm32u0xx_hal_flash_ex.c ****   *  @brief   Extended IO operation functions
 118:Drivers/STM32U0xx_HAL_Driver/Src/stm32u0xx_hal_flash_ex.c ****   *
 119:Drivers/STM32U0xx_HAL_Driver/Src/stm32u0xx_hal_flash_ex.c **** @verbatim
 120:Drivers/STM32U0xx_HAL_Driver/Src/stm32u0xx_hal_flash_ex.c ****  ===============================================================================
 121:Drivers/STM32U0xx_HAL_Driver/Src/stm32u0xx_hal_flash_ex.c ****                 ##### Extended programming operation functions #####
 122:Drivers/STM32U0xx_HAL_Driver/Src/stm32u0xx_hal_flash_ex.c ****  ===============================================================================
 123:Drivers/STM32U0xx_HAL_Driver/Src/stm32u0xx_hal_flash_ex.c ****     [..]
 124:Drivers/STM32U0xx_HAL_Driver/Src/stm32u0xx_hal_flash_ex.c ****     This subsection provides a set of functions allowing to manage the Extended FLASH
 125:Drivers/STM32U0xx_HAL_Driver/Src/stm32u0xx_hal_flash_ex.c ****     programming operations Operations.
 126:Drivers/STM32U0xx_HAL_Driver/Src/stm32u0xx_hal_flash_ex.c **** 
 127:Drivers/STM32U0xx_HAL_Driver/Src/stm32u0xx_hal_flash_ex.c **** @endverbatim
 128:Drivers/STM32U0xx_HAL_Driver/Src/stm32u0xx_hal_flash_ex.c ****   * @{
 129:Drivers/STM32U0xx_HAL_Driver/Src/stm32u0xx_hal_flash_ex.c ****   */
 130:Drivers/STM32U0xx_HAL_Driver/Src/stm32u0xx_hal_flash_ex.c **** /**
 131:Drivers/STM32U0xx_HAL_Driver/Src/stm32u0xx_hal_flash_ex.c ****   * @brief  Perform a mass erase or erase the specified FLASH memory pages.
 132:Drivers/STM32U0xx_HAL_Driver/Src/stm32u0xx_hal_flash_ex.c ****   * @param[in]  pEraseInit Pointer to an @ref FLASH_EraseInitTypeDef structure that
 133:Drivers/STM32U0xx_HAL_Driver/Src/stm32u0xx_hal_flash_ex.c ****   *         contains the configuration information for the erasing.
 134:Drivers/STM32U0xx_HAL_Driver/Src/stm32u0xx_hal_flash_ex.c ****   * @param[out]  PageError Pointer to variable that contains the configuration
 135:Drivers/STM32U0xx_HAL_Driver/Src/stm32u0xx_hal_flash_ex.c ****   *         information on faulty page in case of error (0xFFFFFFFF means that all
 136:Drivers/STM32U0xx_HAL_Driver/Src/stm32u0xx_hal_flash_ex.c ****   *         the pages have been correctly erased)
 137:Drivers/STM32U0xx_HAL_Driver/Src/stm32u0xx_hal_flash_ex.c ****   * @retval HAL Status
 138:Drivers/STM32U0xx_HAL_Driver/Src/stm32u0xx_hal_flash_ex.c ****   */
 139:Drivers/STM32U0xx_HAL_Driver/Src/stm32u0xx_hal_flash_ex.c **** HAL_StatusTypeDef HAL_FLASHEx_Erase(FLASH_EraseInitTypeDef *pEraseInit, uint32_t *PageError)
 140:Drivers/STM32U0xx_HAL_Driver/Src/stm32u0xx_hal_flash_ex.c **** {
  29              		.loc 1 140 1 view -0
  30              		.cfi_startproc
  31              		@ args = 0, pretend = 0, frame = 0
  32              		@ frame_needed = 0, uses_anonymous_args = 0
ARM GAS  C:\Users\upo\AppData\Local\Temp\ccdB8pc0.s 			page 4


 141:Drivers/STM32U0xx_HAL_Driver/Src/stm32u0xx_hal_flash_ex.c ****   HAL_StatusTypeDef status;
  33              		.loc 1 141 3 view .LVU1
 142:Drivers/STM32U0xx_HAL_Driver/Src/stm32u0xx_hal_flash_ex.c ****   uint32_t index;
  34              		.loc 1 142 3 view .LVU2
 143:Drivers/STM32U0xx_HAL_Driver/Src/stm32u0xx_hal_flash_ex.c **** 
 144:Drivers/STM32U0xx_HAL_Driver/Src/stm32u0xx_hal_flash_ex.c ****   /* Check the parameters */
 145:Drivers/STM32U0xx_HAL_Driver/Src/stm32u0xx_hal_flash_ex.c ****   assert_param(IS_FLASH_TYPEERASE(pEraseInit->TypeErase));
  35              		.loc 1 145 3 view .LVU3
 146:Drivers/STM32U0xx_HAL_Driver/Src/stm32u0xx_hal_flash_ex.c **** 
 147:Drivers/STM32U0xx_HAL_Driver/Src/stm32u0xx_hal_flash_ex.c ****   /* Process Locked */
 148:Drivers/STM32U0xx_HAL_Driver/Src/stm32u0xx_hal_flash_ex.c ****   __HAL_LOCK(&pFlash);
  36              		.loc 1 148 3 view .LVU4
  37              		.loc 1 148 3 view .LVU5
 140:Drivers/STM32U0xx_HAL_Driver/Src/stm32u0xx_hal_flash_ex.c ****   HAL_StatusTypeDef status;
  38              		.loc 1 140 1 is_stmt 0 view .LVU6
  39 0000 F0B5     		push	{r4, r5, r6, r7, lr}
  40              	.LCFI0:
  41              		.cfi_def_cfa_offset 20
  42              		.cfi_offset 4, -20
  43              		.cfi_offset 5, -16
  44              		.cfi_offset 6, -12
  45              		.cfi_offset 7, -8
  46              		.cfi_offset 14, -4
  47 0002 4F46     		mov	r7, r9
  48 0004 4646     		mov	r6, r8
  49 0006 D646     		mov	lr, r10
  50              		.loc 1 148 3 view .LVU7
  51 0008 2B4B     		ldr	r3, .L13
 140:Drivers/STM32U0xx_HAL_Driver/Src/stm32u0xx_hal_flash_ex.c ****   HAL_StatusTypeDef status;
  52              		.loc 1 140 1 view .LVU8
  53 000a 0500     		movs	r5, r0
  54              		.loc 1 148 3 view .LVU9
  55 000c 9846     		mov	r8, r3
  56 000e 1B78     		ldrb	r3, [r3]
 140:Drivers/STM32U0xx_HAL_Driver/Src/stm32u0xx_hal_flash_ex.c ****   HAL_StatusTypeDef status;
  57              		.loc 1 140 1 view .LVU10
  58 0010 8946     		mov	r9, r1
  59 0012 C0B5     		push	{r6, r7, lr}
  60              	.LCFI1:
  61              		.cfi_def_cfa_offset 32
  62              		.cfi_offset 8, -32
  63              		.cfi_offset 9, -28
  64              		.cfi_offset 10, -24
  65              		.loc 1 148 3 view .LVU11
  66 0014 012B     		cmp	r3, #1
  67 0016 41D0     		beq	.L9
  68              		.loc 1 148 3 is_stmt 1 discriminator 2 view .LVU12
  69 0018 4346     		mov	r3, r8
  70 001a 0124     		movs	r4, #1
 149:Drivers/STM32U0xx_HAL_Driver/Src/stm32u0xx_hal_flash_ex.c **** 
 150:Drivers/STM32U0xx_HAL_Driver/Src/stm32u0xx_hal_flash_ex.c ****   /* Reset error code */
 151:Drivers/STM32U0xx_HAL_Driver/Src/stm32u0xx_hal_flash_ex.c ****   pFlash.ErrorCode = HAL_FLASH_ERROR_NONE;
 152:Drivers/STM32U0xx_HAL_Driver/Src/stm32u0xx_hal_flash_ex.c **** 
 153:Drivers/STM32U0xx_HAL_Driver/Src/stm32u0xx_hal_flash_ex.c ****   /* Wait for last operation to be completed */
 154:Drivers/STM32U0xx_HAL_Driver/Src/stm32u0xx_hal_flash_ex.c ****   status = FLASH_WaitForLastOperation(FLASH_TIMEOUT_VALUE);
  71              		.loc 1 154 12 is_stmt 0 discriminator 2 view .LVU13
  72 001c FA20     		movs	r0, #250
ARM GAS  C:\Users\upo\AppData\Local\Temp\ccdB8pc0.s 			page 5


  73              	.LVL1:
 151:Drivers/STM32U0xx_HAL_Driver/Src/stm32u0xx_hal_flash_ex.c **** 
  74              		.loc 1 151 20 discriminator 2 view .LVU14
  75 001e 4246     		mov	r2, r8
 148:Drivers/STM32U0xx_HAL_Driver/Src/stm32u0xx_hal_flash_ex.c **** 
  76              		.loc 1 148 3 discriminator 2 view .LVU15
  77 0020 1C70     		strb	r4, [r3]
 148:Drivers/STM32U0xx_HAL_Driver/Src/stm32u0xx_hal_flash_ex.c **** 
  78              		.loc 1 148 3 is_stmt 1 discriminator 2 view .LVU16
 151:Drivers/STM32U0xx_HAL_Driver/Src/stm32u0xx_hal_flash_ex.c **** 
  79              		.loc 1 151 3 discriminator 2 view .LVU17
 151:Drivers/STM32U0xx_HAL_Driver/Src/stm32u0xx_hal_flash_ex.c **** 
  80              		.loc 1 151 20 is_stmt 0 discriminator 2 view .LVU18
  81 0022 0023     		movs	r3, #0
  82              		.loc 1 154 12 discriminator 2 view .LVU19
  83 0024 8000     		lsls	r0, r0, #2
 151:Drivers/STM32U0xx_HAL_Driver/Src/stm32u0xx_hal_flash_ex.c **** 
  84              		.loc 1 151 20 discriminator 2 view .LVU20
  85 0026 5360     		str	r3, [r2, #4]
  86              		.loc 1 154 3 is_stmt 1 discriminator 2 view .LVU21
  87              		.loc 1 154 12 is_stmt 0 discriminator 2 view .LVU22
  88 0028 FFF7FEFF 		bl	FLASH_WaitForLastOperation
  89              	.LVL2:
  90              		.loc 1 154 12 discriminator 2 view .LVU23
  91 002c 071E     		subs	r7, r0, #0
  92              	.LVL3:
 155:Drivers/STM32U0xx_HAL_Driver/Src/stm32u0xx_hal_flash_ex.c **** 
 156:Drivers/STM32U0xx_HAL_Driver/Src/stm32u0xx_hal_flash_ex.c ****   if (status == HAL_OK)
  93              		.loc 1 156 3 is_stmt 1 discriminator 2 view .LVU24
  94              		.loc 1 156 6 is_stmt 0 discriminator 2 view .LVU25
  95 002e 2CD1     		bne	.L3
 157:Drivers/STM32U0xx_HAL_Driver/Src/stm32u0xx_hal_flash_ex.c ****   {
 158:Drivers/STM32U0xx_HAL_Driver/Src/stm32u0xx_hal_flash_ex.c ****     /* For single bank product force Banks to Bank 1 */
 159:Drivers/STM32U0xx_HAL_Driver/Src/stm32u0xx_hal_flash_ex.c ****     pEraseInit->Banks = FLASH_BANK_1;
  96              		.loc 1 159 5 is_stmt 1 view .LVU26
 160:Drivers/STM32U0xx_HAL_Driver/Src/stm32u0xx_hal_flash_ex.c ****     if (pEraseInit->TypeErase == FLASH_TYPEERASE_MASS)
  97              		.loc 1 160 8 is_stmt 0 view .LVU27
  98 0030 2B68     		ldr	r3, [r5]
 159:Drivers/STM32U0xx_HAL_Driver/Src/stm32u0xx_hal_flash_ex.c ****     if (pEraseInit->TypeErase == FLASH_TYPEERASE_MASS)
  99              		.loc 1 159 23 view .LVU28
 100 0032 6C60     		str	r4, [r5, #4]
 101              		.loc 1 160 5 is_stmt 1 view .LVU29
 102              		.loc 1 160 8 is_stmt 0 view .LVU30
 103 0034 042B     		cmp	r3, #4
 104 0036 33D0     		beq	.L12
 161:Drivers/STM32U0xx_HAL_Driver/Src/stm32u0xx_hal_flash_ex.c ****     {
 162:Drivers/STM32U0xx_HAL_Driver/Src/stm32u0xx_hal_flash_ex.c ****       /* Proceed to Mass Erase */
 163:Drivers/STM32U0xx_HAL_Driver/Src/stm32u0xx_hal_flash_ex.c ****       FLASH_MassErase();
 164:Drivers/STM32U0xx_HAL_Driver/Src/stm32u0xx_hal_flash_ex.c **** 
 165:Drivers/STM32U0xx_HAL_Driver/Src/stm32u0xx_hal_flash_ex.c ****       /* Wait for last operation to be completed */
 166:Drivers/STM32U0xx_HAL_Driver/Src/stm32u0xx_hal_flash_ex.c ****       status = FLASH_WaitForLastOperation(FLASH_TIMEOUT_VALUE);
 167:Drivers/STM32U0xx_HAL_Driver/Src/stm32u0xx_hal_flash_ex.c ****     }
 168:Drivers/STM32U0xx_HAL_Driver/Src/stm32u0xx_hal_flash_ex.c ****     else
 169:Drivers/STM32U0xx_HAL_Driver/Src/stm32u0xx_hal_flash_ex.c ****     {
 170:Drivers/STM32U0xx_HAL_Driver/Src/stm32u0xx_hal_flash_ex.c ****       /*Initialization of PageError variable*/
 171:Drivers/STM32U0xx_HAL_Driver/Src/stm32u0xx_hal_flash_ex.c ****       *PageError = 0xFFFFFFFFU;
 105              		.loc 1 171 7 is_stmt 1 view .LVU31
ARM GAS  C:\Users\upo\AppData\Local\Temp\ccdB8pc0.s 			page 6


 106              		.loc 1 171 18 is_stmt 0 view .LVU32
 107 0038 0123     		movs	r3, #1
 108 003a 4A46     		mov	r2, r9
 109 003c 5B42     		rsbs	r3, r3, #0
 110 003e 1360     		str	r3, [r2]
 172:Drivers/STM32U0xx_HAL_Driver/Src/stm32u0xx_hal_flash_ex.c **** 
 173:Drivers/STM32U0xx_HAL_Driver/Src/stm32u0xx_hal_flash_ex.c ****       for (index = pEraseInit->Page; index < (pEraseInit->Page + pEraseInit->NbPages); index++)
 111              		.loc 1 173 7 is_stmt 1 view .LVU33
 112              		.loc 1 173 18 is_stmt 0 view .LVU34
 113 0040 AC68     		ldr	r4, [r5, #8]
 114              	.LVL4:
 115              		.loc 1 173 44 is_stmt 1 view .LVU35
 116              		.loc 1 173 64 is_stmt 0 view .LVU36
 117 0042 EB68     		ldr	r3, [r5, #12]
 118 0044 E318     		adds	r3, r4, r3
 119              		.loc 1 173 44 view .LVU37
 120 0046 9C42     		cmp	r4, r3
 121 0048 1AD2     		bcs	.L7
 122              	.LBB34:
 123              	.LBB35:
 174:Drivers/STM32U0xx_HAL_Driver/Src/stm32u0xx_hal_flash_ex.c ****       {
 175:Drivers/STM32U0xx_HAL_Driver/Src/stm32u0xx_hal_flash_ex.c ****         /* Start erase page */
 176:Drivers/STM32U0xx_HAL_Driver/Src/stm32u0xx_hal_flash_ex.c ****         FLASH_PageErase(index);
 177:Drivers/STM32U0xx_HAL_Driver/Src/stm32u0xx_hal_flash_ex.c **** 
 178:Drivers/STM32U0xx_HAL_Driver/Src/stm32u0xx_hal_flash_ex.c ****         /* Wait for last operation to be completed */
 179:Drivers/STM32U0xx_HAL_Driver/Src/stm32u0xx_hal_flash_ex.c ****         status = FLASH_WaitForLastOperation(FLASH_TIMEOUT_VALUE);
 180:Drivers/STM32U0xx_HAL_Driver/Src/stm32u0xx_hal_flash_ex.c **** 
 181:Drivers/STM32U0xx_HAL_Driver/Src/stm32u0xx_hal_flash_ex.c ****         if (status != HAL_OK)
 182:Drivers/STM32U0xx_HAL_Driver/Src/stm32u0xx_hal_flash_ex.c ****         {
 183:Drivers/STM32U0xx_HAL_Driver/Src/stm32u0xx_hal_flash_ex.c ****           /* In case of error, stop erase procedure and return the faulty address */
 184:Drivers/STM32U0xx_HAL_Driver/Src/stm32u0xx_hal_flash_ex.c ****           *PageError = index;
 185:Drivers/STM32U0xx_HAL_Driver/Src/stm32u0xx_hal_flash_ex.c ****           break;
 186:Drivers/STM32U0xx_HAL_Driver/Src/stm32u0xx_hal_flash_ex.c ****         }
 187:Drivers/STM32U0xx_HAL_Driver/Src/stm32u0xx_hal_flash_ex.c ****       }
 188:Drivers/STM32U0xx_HAL_Driver/Src/stm32u0xx_hal_flash_ex.c **** 
 189:Drivers/STM32U0xx_HAL_Driver/Src/stm32u0xx_hal_flash_ex.c ****       /* If operation is completed or interrupted, disable the Page Erase Bit */
 190:Drivers/STM32U0xx_HAL_Driver/Src/stm32u0xx_hal_flash_ex.c ****       CLEAR_BIT(FLASH->CR, FLASH_CR_PER);
 191:Drivers/STM32U0xx_HAL_Driver/Src/stm32u0xx_hal_flash_ex.c ****     }
 192:Drivers/STM32U0xx_HAL_Driver/Src/stm32u0xx_hal_flash_ex.c ****   }
 193:Drivers/STM32U0xx_HAL_Driver/Src/stm32u0xx_hal_flash_ex.c **** 
 194:Drivers/STM32U0xx_HAL_Driver/Src/stm32u0xx_hal_flash_ex.c ****   /* Process Unlocked */
 195:Drivers/STM32U0xx_HAL_Driver/Src/stm32u0xx_hal_flash_ex.c ****   __HAL_UNLOCK(&pFlash);
 196:Drivers/STM32U0xx_HAL_Driver/Src/stm32u0xx_hal_flash_ex.c **** 
 197:Drivers/STM32U0xx_HAL_Driver/Src/stm32u0xx_hal_flash_ex.c ****   /* return status */
 198:Drivers/STM32U0xx_HAL_Driver/Src/stm32u0xx_hal_flash_ex.c ****   return status;
 199:Drivers/STM32U0xx_HAL_Driver/Src/stm32u0xx_hal_flash_ex.c **** }
 200:Drivers/STM32U0xx_HAL_Driver/Src/stm32u0xx_hal_flash_ex.c **** 
 201:Drivers/STM32U0xx_HAL_Driver/Src/stm32u0xx_hal_flash_ex.c **** 
 202:Drivers/STM32U0xx_HAL_Driver/Src/stm32u0xx_hal_flash_ex.c **** /**
 203:Drivers/STM32U0xx_HAL_Driver/Src/stm32u0xx_hal_flash_ex.c ****   * @brief  Perform a mass erase or erase the specified FLASH memory pages with interrupt enabled.
 204:Drivers/STM32U0xx_HAL_Driver/Src/stm32u0xx_hal_flash_ex.c ****   * @param  pEraseInit Pointer to an @ref FLASH_EraseInitTypeDef structure that
 205:Drivers/STM32U0xx_HAL_Driver/Src/stm32u0xx_hal_flash_ex.c ****   *         contains the configuration information for the erasing.
 206:Drivers/STM32U0xx_HAL_Driver/Src/stm32u0xx_hal_flash_ex.c ****   * @retval HAL Status
 207:Drivers/STM32U0xx_HAL_Driver/Src/stm32u0xx_hal_flash_ex.c ****   */
 208:Drivers/STM32U0xx_HAL_Driver/Src/stm32u0xx_hal_flash_ex.c **** HAL_StatusTypeDef HAL_FLASHEx_Erase_IT(FLASH_EraseInitTypeDef *pEraseInit)
 209:Drivers/STM32U0xx_HAL_Driver/Src/stm32u0xx_hal_flash_ex.c **** {
 210:Drivers/STM32U0xx_HAL_Driver/Src/stm32u0xx_hal_flash_ex.c ****   HAL_StatusTypeDef status;
ARM GAS  C:\Users\upo\AppData\Local\Temp\ccdB8pc0.s 			page 7


 211:Drivers/STM32U0xx_HAL_Driver/Src/stm32u0xx_hal_flash_ex.c **** 
 212:Drivers/STM32U0xx_HAL_Driver/Src/stm32u0xx_hal_flash_ex.c ****   /* Check the parameters */
 213:Drivers/STM32U0xx_HAL_Driver/Src/stm32u0xx_hal_flash_ex.c ****   assert_param(IS_FLASH_TYPEERASE(pEraseInit->TypeErase));
 214:Drivers/STM32U0xx_HAL_Driver/Src/stm32u0xx_hal_flash_ex.c **** 
 215:Drivers/STM32U0xx_HAL_Driver/Src/stm32u0xx_hal_flash_ex.c ****   /* Process Locked */
 216:Drivers/STM32U0xx_HAL_Driver/Src/stm32u0xx_hal_flash_ex.c ****   __HAL_LOCK(&pFlash);
 217:Drivers/STM32U0xx_HAL_Driver/Src/stm32u0xx_hal_flash_ex.c **** 
 218:Drivers/STM32U0xx_HAL_Driver/Src/stm32u0xx_hal_flash_ex.c ****   /* Reset error code */
 219:Drivers/STM32U0xx_HAL_Driver/Src/stm32u0xx_hal_flash_ex.c ****   pFlash.ErrorCode = HAL_FLASH_ERROR_NONE;
 220:Drivers/STM32U0xx_HAL_Driver/Src/stm32u0xx_hal_flash_ex.c **** 
 221:Drivers/STM32U0xx_HAL_Driver/Src/stm32u0xx_hal_flash_ex.c ****   /* save procedure for interrupt treatment */
 222:Drivers/STM32U0xx_HAL_Driver/Src/stm32u0xx_hal_flash_ex.c ****   pFlash.ProcedureOnGoing = pEraseInit->TypeErase;
 223:Drivers/STM32U0xx_HAL_Driver/Src/stm32u0xx_hal_flash_ex.c **** 
 224:Drivers/STM32U0xx_HAL_Driver/Src/stm32u0xx_hal_flash_ex.c ****   /* Wait for last operation to be completed */
 225:Drivers/STM32U0xx_HAL_Driver/Src/stm32u0xx_hal_flash_ex.c ****   status = FLASH_WaitForLastOperation(FLASH_TIMEOUT_VALUE);
 226:Drivers/STM32U0xx_HAL_Driver/Src/stm32u0xx_hal_flash_ex.c **** 
 227:Drivers/STM32U0xx_HAL_Driver/Src/stm32u0xx_hal_flash_ex.c ****   if (status != HAL_OK)
 228:Drivers/STM32U0xx_HAL_Driver/Src/stm32u0xx_hal_flash_ex.c ****   {
 229:Drivers/STM32U0xx_HAL_Driver/Src/stm32u0xx_hal_flash_ex.c ****     /* Process Unlocked */
 230:Drivers/STM32U0xx_HAL_Driver/Src/stm32u0xx_hal_flash_ex.c ****     __HAL_UNLOCK(&pFlash);
 231:Drivers/STM32U0xx_HAL_Driver/Src/stm32u0xx_hal_flash_ex.c ****   }
 232:Drivers/STM32U0xx_HAL_Driver/Src/stm32u0xx_hal_flash_ex.c ****   else
 233:Drivers/STM32U0xx_HAL_Driver/Src/stm32u0xx_hal_flash_ex.c ****   {
 234:Drivers/STM32U0xx_HAL_Driver/Src/stm32u0xx_hal_flash_ex.c ****     /* For single bank product force Banks to Bank 1 */
 235:Drivers/STM32U0xx_HAL_Driver/Src/stm32u0xx_hal_flash_ex.c ****     pEraseInit->Banks = FLASH_BANK_1;
 236:Drivers/STM32U0xx_HAL_Driver/Src/stm32u0xx_hal_flash_ex.c ****     /* Store Bank number */
 237:Drivers/STM32U0xx_HAL_Driver/Src/stm32u0xx_hal_flash_ex.c ****     pFlash.Banks = pEraseInit->Banks;
 238:Drivers/STM32U0xx_HAL_Driver/Src/stm32u0xx_hal_flash_ex.c **** 
 239:Drivers/STM32U0xx_HAL_Driver/Src/stm32u0xx_hal_flash_ex.c ****     /* Enable End of Operation and Error interrupts */
 240:Drivers/STM32U0xx_HAL_Driver/Src/stm32u0xx_hal_flash_ex.c ****     FLASH->CR |= FLASH_CR_EOPIE | FLASH_CR_ERRIE;
 241:Drivers/STM32U0xx_HAL_Driver/Src/stm32u0xx_hal_flash_ex.c **** 
 242:Drivers/STM32U0xx_HAL_Driver/Src/stm32u0xx_hal_flash_ex.c ****     if (pEraseInit->TypeErase == FLASH_TYPEERASE_MASS)
 243:Drivers/STM32U0xx_HAL_Driver/Src/stm32u0xx_hal_flash_ex.c ****     {
 244:Drivers/STM32U0xx_HAL_Driver/Src/stm32u0xx_hal_flash_ex.c ****       /* Set Page to 0 for Interrupt callback management */
 245:Drivers/STM32U0xx_HAL_Driver/Src/stm32u0xx_hal_flash_ex.c ****       pFlash.Page = 0;
 246:Drivers/STM32U0xx_HAL_Driver/Src/stm32u0xx_hal_flash_ex.c **** 
 247:Drivers/STM32U0xx_HAL_Driver/Src/stm32u0xx_hal_flash_ex.c ****       /* Proceed to Mass Erase */
 248:Drivers/STM32U0xx_HAL_Driver/Src/stm32u0xx_hal_flash_ex.c ****       FLASH_MassErase();
 249:Drivers/STM32U0xx_HAL_Driver/Src/stm32u0xx_hal_flash_ex.c ****     }
 250:Drivers/STM32U0xx_HAL_Driver/Src/stm32u0xx_hal_flash_ex.c ****     else
 251:Drivers/STM32U0xx_HAL_Driver/Src/stm32u0xx_hal_flash_ex.c ****     {
 252:Drivers/STM32U0xx_HAL_Driver/Src/stm32u0xx_hal_flash_ex.c ****       /* Erase by page to be done */
 253:Drivers/STM32U0xx_HAL_Driver/Src/stm32u0xx_hal_flash_ex.c ****       pFlash.NbPagesToErase = pEraseInit->NbPages;
 254:Drivers/STM32U0xx_HAL_Driver/Src/stm32u0xx_hal_flash_ex.c ****       pFlash.Page = pEraseInit->Page;
 255:Drivers/STM32U0xx_HAL_Driver/Src/stm32u0xx_hal_flash_ex.c **** 
 256:Drivers/STM32U0xx_HAL_Driver/Src/stm32u0xx_hal_flash_ex.c ****       /*Erase 1st page and wait for IT */
 257:Drivers/STM32U0xx_HAL_Driver/Src/stm32u0xx_hal_flash_ex.c ****       FLASH_PageErase(pEraseInit->Page);
 258:Drivers/STM32U0xx_HAL_Driver/Src/stm32u0xx_hal_flash_ex.c ****     }
 259:Drivers/STM32U0xx_HAL_Driver/Src/stm32u0xx_hal_flash_ex.c ****   }
 260:Drivers/STM32U0xx_HAL_Driver/Src/stm32u0xx_hal_flash_ex.c **** 
 261:Drivers/STM32U0xx_HAL_Driver/Src/stm32u0xx_hal_flash_ex.c ****   /* return status */
 262:Drivers/STM32U0xx_HAL_Driver/Src/stm32u0xx_hal_flash_ex.c ****   return status;
 263:Drivers/STM32U0xx_HAL_Driver/Src/stm32u0xx_hal_flash_ex.c **** }
 264:Drivers/STM32U0xx_HAL_Driver/Src/stm32u0xx_hal_flash_ex.c **** 
 265:Drivers/STM32U0xx_HAL_Driver/Src/stm32u0xx_hal_flash_ex.c **** /**
 266:Drivers/STM32U0xx_HAL_Driver/Src/stm32u0xx_hal_flash_ex.c ****   * @brief  Program Option bytes.
 267:Drivers/STM32U0xx_HAL_Driver/Src/stm32u0xx_hal_flash_ex.c ****   * @param  pOBInit Pointer to an @ref FLASH_OBProgramInitTypeDef structure that
ARM GAS  C:\Users\upo\AppData\Local\Temp\ccdB8pc0.s 			page 8


 268:Drivers/STM32U0xx_HAL_Driver/Src/stm32u0xx_hal_flash_ex.c ****   *         contains the configuration information for the programming.
 269:Drivers/STM32U0xx_HAL_Driver/Src/stm32u0xx_hal_flash_ex.c ****   * @note   To configure any option bytes, the option lock bit OPTLOCK must be
 270:Drivers/STM32U0xx_HAL_Driver/Src/stm32u0xx_hal_flash_ex.c ****   *         cleared with the call of @ref HAL_FLASH_OB_Unlock() function.
 271:Drivers/STM32U0xx_HAL_Driver/Src/stm32u0xx_hal_flash_ex.c ****   * @note   New option bytes configuration will be taken into account only
 272:Drivers/STM32U0xx_HAL_Driver/Src/stm32u0xx_hal_flash_ex.c ****   *         - after an option bytes launch through the call of @ref HAL_FLASH_OB_Launch()
 273:Drivers/STM32U0xx_HAL_Driver/Src/stm32u0xx_hal_flash_ex.c ****   *         - a Power On Reset
 274:Drivers/STM32U0xx_HAL_Driver/Src/stm32u0xx_hal_flash_ex.c ****   *         - an exit from Standby or Shutdown mode.
 275:Drivers/STM32U0xx_HAL_Driver/Src/stm32u0xx_hal_flash_ex.c ****   * @retval HAL Status
 276:Drivers/STM32U0xx_HAL_Driver/Src/stm32u0xx_hal_flash_ex.c ****   */
 277:Drivers/STM32U0xx_HAL_Driver/Src/stm32u0xx_hal_flash_ex.c **** HAL_StatusTypeDef HAL_FLASHEx_OBProgram(FLASH_OBProgramInitTypeDef *pOBInit)
 278:Drivers/STM32U0xx_HAL_Driver/Src/stm32u0xx_hal_flash_ex.c **** {
 279:Drivers/STM32U0xx_HAL_Driver/Src/stm32u0xx_hal_flash_ex.c ****   uint32_t optr;
 280:Drivers/STM32U0xx_HAL_Driver/Src/stm32u0xx_hal_flash_ex.c ****   HAL_StatusTypeDef status;
 281:Drivers/STM32U0xx_HAL_Driver/Src/stm32u0xx_hal_flash_ex.c **** 
 282:Drivers/STM32U0xx_HAL_Driver/Src/stm32u0xx_hal_flash_ex.c ****   /* Check the parameters */
 283:Drivers/STM32U0xx_HAL_Driver/Src/stm32u0xx_hal_flash_ex.c ****   assert_param(IS_OPTIONBYTE(pOBInit->OptionType));
 284:Drivers/STM32U0xx_HAL_Driver/Src/stm32u0xx_hal_flash_ex.c **** 
 285:Drivers/STM32U0xx_HAL_Driver/Src/stm32u0xx_hal_flash_ex.c ****   /* Process Locked */
 286:Drivers/STM32U0xx_HAL_Driver/Src/stm32u0xx_hal_flash_ex.c ****   __HAL_LOCK(&pFlash);
 287:Drivers/STM32U0xx_HAL_Driver/Src/stm32u0xx_hal_flash_ex.c **** 
 288:Drivers/STM32U0xx_HAL_Driver/Src/stm32u0xx_hal_flash_ex.c ****   pFlash.ErrorCode = HAL_FLASH_ERROR_NONE;
 289:Drivers/STM32U0xx_HAL_Driver/Src/stm32u0xx_hal_flash_ex.c **** 
 290:Drivers/STM32U0xx_HAL_Driver/Src/stm32u0xx_hal_flash_ex.c ****   /* Write protection configuration */
 291:Drivers/STM32U0xx_HAL_Driver/Src/stm32u0xx_hal_flash_ex.c ****   if ((pOBInit->OptionType & OPTIONBYTE_WRP) != 0x00U)
 292:Drivers/STM32U0xx_HAL_Driver/Src/stm32u0xx_hal_flash_ex.c ****   {
 293:Drivers/STM32U0xx_HAL_Driver/Src/stm32u0xx_hal_flash_ex.c ****     /* Configure of Write protection on the selected area */
 294:Drivers/STM32U0xx_HAL_Driver/Src/stm32u0xx_hal_flash_ex.c ****     FLASH_OB_WRPConfig(pOBInit->WRPArea, pOBInit->WRPStartOffset, pOBInit->WRPEndOffset);
 295:Drivers/STM32U0xx_HAL_Driver/Src/stm32u0xx_hal_flash_ex.c ****   }
 296:Drivers/STM32U0xx_HAL_Driver/Src/stm32u0xx_hal_flash_ex.c **** 
 297:Drivers/STM32U0xx_HAL_Driver/Src/stm32u0xx_hal_flash_ex.c ****   /* Option register */
 298:Drivers/STM32U0xx_HAL_Driver/Src/stm32u0xx_hal_flash_ex.c ****   if ((pOBInit->OptionType & (OPTIONBYTE_RDP | OPTIONBYTE_USER)) == (OPTIONBYTE_RDP | OPTIONBYTE_US
 299:Drivers/STM32U0xx_HAL_Driver/Src/stm32u0xx_hal_flash_ex.c ****   {
 300:Drivers/STM32U0xx_HAL_Driver/Src/stm32u0xx_hal_flash_ex.c ****     /* Fully modify OPTR register with RDP & user data */
 301:Drivers/STM32U0xx_HAL_Driver/Src/stm32u0xx_hal_flash_ex.c ****     FLASH_OB_OptrConfig(pOBInit->USERType, pOBInit->USERConfig, pOBInit->RDPLevel);
 302:Drivers/STM32U0xx_HAL_Driver/Src/stm32u0xx_hal_flash_ex.c ****   }
 303:Drivers/STM32U0xx_HAL_Driver/Src/stm32u0xx_hal_flash_ex.c ****   else if ((pOBInit->OptionType & OPTIONBYTE_RDP) != 0x00U)
 304:Drivers/STM32U0xx_HAL_Driver/Src/stm32u0xx_hal_flash_ex.c ****   {
 305:Drivers/STM32U0xx_HAL_Driver/Src/stm32u0xx_hal_flash_ex.c ****     /* Only modify RDP so get current user data */
 306:Drivers/STM32U0xx_HAL_Driver/Src/stm32u0xx_hal_flash_ex.c ****     optr = FLASH_OB_GetUser();
 307:Drivers/STM32U0xx_HAL_Driver/Src/stm32u0xx_hal_flash_ex.c ****     FLASH_OB_OptrConfig(optr, optr, pOBInit->RDPLevel);
 308:Drivers/STM32U0xx_HAL_Driver/Src/stm32u0xx_hal_flash_ex.c ****   }
 309:Drivers/STM32U0xx_HAL_Driver/Src/stm32u0xx_hal_flash_ex.c ****   else if ((pOBInit->OptionType & OPTIONBYTE_USER) != 0x00U)
 310:Drivers/STM32U0xx_HAL_Driver/Src/stm32u0xx_hal_flash_ex.c ****   {
 311:Drivers/STM32U0xx_HAL_Driver/Src/stm32u0xx_hal_flash_ex.c ****     /* Only modify user so get current RDP level */
 312:Drivers/STM32U0xx_HAL_Driver/Src/stm32u0xx_hal_flash_ex.c ****     optr = FLASH_OB_GetRDP();
 313:Drivers/STM32U0xx_HAL_Driver/Src/stm32u0xx_hal_flash_ex.c ****     FLASH_OB_OptrConfig(pOBInit->USERType, pOBInit->USERConfig, optr);
 314:Drivers/STM32U0xx_HAL_Driver/Src/stm32u0xx_hal_flash_ex.c ****   }
 315:Drivers/STM32U0xx_HAL_Driver/Src/stm32u0xx_hal_flash_ex.c ****   else
 316:Drivers/STM32U0xx_HAL_Driver/Src/stm32u0xx_hal_flash_ex.c ****   {
 317:Drivers/STM32U0xx_HAL_Driver/Src/stm32u0xx_hal_flash_ex.c ****     /* nothing to do */
 318:Drivers/STM32U0xx_HAL_Driver/Src/stm32u0xx_hal_flash_ex.c ****   }
 319:Drivers/STM32U0xx_HAL_Driver/Src/stm32u0xx_hal_flash_ex.c **** 
 320:Drivers/STM32U0xx_HAL_Driver/Src/stm32u0xx_hal_flash_ex.c ****   /* HDP Area Configuration */
 321:Drivers/STM32U0xx_HAL_Driver/Src/stm32u0xx_hal_flash_ex.c ****   if ((pOBInit->OptionType & OPTIONBYTE_HDP) != 0x00U)
 322:Drivers/STM32U0xx_HAL_Driver/Src/stm32u0xx_hal_flash_ex.c ****   {
 323:Drivers/STM32U0xx_HAL_Driver/Src/stm32u0xx_hal_flash_ex.c ****     /* Configure the HDP area protection */
 324:Drivers/STM32U0xx_HAL_Driver/Src/stm32u0xx_hal_flash_ex.c ****     FLASH_OB_HDPConfig(pOBInit->BootLock, pOBInit->HDPEndPage, pOBInit->HDPState);
ARM GAS  C:\Users\upo\AppData\Local\Temp\ccdB8pc0.s 			page 9


 325:Drivers/STM32U0xx_HAL_Driver/Src/stm32u0xx_hal_flash_ex.c ****   }
 326:Drivers/STM32U0xx_HAL_Driver/Src/stm32u0xx_hal_flash_ex.c **** 
 327:Drivers/STM32U0xx_HAL_Driver/Src/stm32u0xx_hal_flash_ex.c ****   /* RDP Keys OEM1/2 Configuration */
 328:Drivers/STM32U0xx_HAL_Driver/Src/stm32u0xx_hal_flash_ex.c ****   if ((pOBInit->OptionType & OPTIONBYTE_RDPKEY) != 0x00U)
 329:Drivers/STM32U0xx_HAL_Driver/Src/stm32u0xx_hal_flash_ex.c ****   {
 330:Drivers/STM32U0xx_HAL_Driver/Src/stm32u0xx_hal_flash_ex.c ****     /* Configure the RDP keys */
 331:Drivers/STM32U0xx_HAL_Driver/Src/stm32u0xx_hal_flash_ex.c ****     FLASH_OB_RDPKeyConfig(pOBInit->RDPKeyType, pOBInit->RDPKey1, pOBInit->RDPKey2, pOBInit->RDPKey3
 332:Drivers/STM32U0xx_HAL_Driver/Src/stm32u0xx_hal_flash_ex.c ****   }
 333:Drivers/STM32U0xx_HAL_Driver/Src/stm32u0xx_hal_flash_ex.c **** 
 334:Drivers/STM32U0xx_HAL_Driver/Src/stm32u0xx_hal_flash_ex.c ****   /* Wait for last operation to be completed */
 335:Drivers/STM32U0xx_HAL_Driver/Src/stm32u0xx_hal_flash_ex.c ****   status = FLASH_WaitForLastOperation(FLASH_TIMEOUT_VALUE);
 336:Drivers/STM32U0xx_HAL_Driver/Src/stm32u0xx_hal_flash_ex.c **** 
 337:Drivers/STM32U0xx_HAL_Driver/Src/stm32u0xx_hal_flash_ex.c ****   if (status == HAL_OK)
 338:Drivers/STM32U0xx_HAL_Driver/Src/stm32u0xx_hal_flash_ex.c ****   {
 339:Drivers/STM32U0xx_HAL_Driver/Src/stm32u0xx_hal_flash_ex.c ****     /* Set OPTSTRT Bit */
 340:Drivers/STM32U0xx_HAL_Driver/Src/stm32u0xx_hal_flash_ex.c ****     SET_BIT(FLASH->CR, FLASH_CR_OPTSTRT);
 341:Drivers/STM32U0xx_HAL_Driver/Src/stm32u0xx_hal_flash_ex.c **** 
 342:Drivers/STM32U0xx_HAL_Driver/Src/stm32u0xx_hal_flash_ex.c ****     /* Wait for last operation to be completed */
 343:Drivers/STM32U0xx_HAL_Driver/Src/stm32u0xx_hal_flash_ex.c ****     status = FLASH_WaitForLastOperation(FLASH_TIMEOUT_VALUE);
 344:Drivers/STM32U0xx_HAL_Driver/Src/stm32u0xx_hal_flash_ex.c **** 
 345:Drivers/STM32U0xx_HAL_Driver/Src/stm32u0xx_hal_flash_ex.c ****     /* If the option byte program operation is completed, disable the OPTSTRT Bit */
 346:Drivers/STM32U0xx_HAL_Driver/Src/stm32u0xx_hal_flash_ex.c ****     CLEAR_BIT(FLASH->CR, FLASH_CR_OPTSTRT);
 347:Drivers/STM32U0xx_HAL_Driver/Src/stm32u0xx_hal_flash_ex.c ****   }
 348:Drivers/STM32U0xx_HAL_Driver/Src/stm32u0xx_hal_flash_ex.c **** 
 349:Drivers/STM32U0xx_HAL_Driver/Src/stm32u0xx_hal_flash_ex.c ****   /* Process Unlocked */
 350:Drivers/STM32U0xx_HAL_Driver/Src/stm32u0xx_hal_flash_ex.c ****   __HAL_UNLOCK(&pFlash);
 351:Drivers/STM32U0xx_HAL_Driver/Src/stm32u0xx_hal_flash_ex.c **** 
 352:Drivers/STM32U0xx_HAL_Driver/Src/stm32u0xx_hal_flash_ex.c ****   /* return status */
 353:Drivers/STM32U0xx_HAL_Driver/Src/stm32u0xx_hal_flash_ex.c ****   return status;
 354:Drivers/STM32U0xx_HAL_Driver/Src/stm32u0xx_hal_flash_ex.c **** }
 355:Drivers/STM32U0xx_HAL_Driver/Src/stm32u0xx_hal_flash_ex.c **** 
 356:Drivers/STM32U0xx_HAL_Driver/Src/stm32u0xx_hal_flash_ex.c **** /**
 357:Drivers/STM32U0xx_HAL_Driver/Src/stm32u0xx_hal_flash_ex.c ****   * @brief  Get the Option bytes configuration.
 358:Drivers/STM32U0xx_HAL_Driver/Src/stm32u0xx_hal_flash_ex.c ****   * @note   warning: this API only read flash register, it does not reflect any
 359:Drivers/STM32U0xx_HAL_Driver/Src/stm32u0xx_hal_flash_ex.c ****   *         change that would have been programmed between previous Option byte
 360:Drivers/STM32U0xx_HAL_Driver/Src/stm32u0xx_hal_flash_ex.c ****   *         loading and current call.
 361:Drivers/STM32U0xx_HAL_Driver/Src/stm32u0xx_hal_flash_ex.c ****   * @param  pOBInit Pointer to an @ref FLASH_OBProgramInitTypeDef structure that contains the
 362:Drivers/STM32U0xx_HAL_Driver/Src/stm32u0xx_hal_flash_ex.c ****   *                  configuration information. The fields pOBInit->WRPArea should
 363:Drivers/STM32U0xx_HAL_Driver/Src/stm32u0xx_hal_flash_ex.c ****   *                  indicate which area is requested for the WRP.
 364:Drivers/STM32U0xx_HAL_Driver/Src/stm32u0xx_hal_flash_ex.c ****   * @retval None
 365:Drivers/STM32U0xx_HAL_Driver/Src/stm32u0xx_hal_flash_ex.c ****   */
 366:Drivers/STM32U0xx_HAL_Driver/Src/stm32u0xx_hal_flash_ex.c **** void HAL_FLASHEx_OBGetConfig(FLASH_OBProgramInitTypeDef *pOBInit)
 367:Drivers/STM32U0xx_HAL_Driver/Src/stm32u0xx_hal_flash_ex.c **** {
 368:Drivers/STM32U0xx_HAL_Driver/Src/stm32u0xx_hal_flash_ex.c ****   pOBInit->OptionType = OPTIONBYTE_ALL;
 369:Drivers/STM32U0xx_HAL_Driver/Src/stm32u0xx_hal_flash_ex.c **** 
 370:Drivers/STM32U0xx_HAL_Driver/Src/stm32u0xx_hal_flash_ex.c ****   /* Get write protection on the selected area */
 371:Drivers/STM32U0xx_HAL_Driver/Src/stm32u0xx_hal_flash_ex.c ****   FLASH_OB_GetWRP(pOBInit->WRPArea, &(pOBInit->WRPStartOffset), &(pOBInit->WRPEndOffset));
 372:Drivers/STM32U0xx_HAL_Driver/Src/stm32u0xx_hal_flash_ex.c **** 
 373:Drivers/STM32U0xx_HAL_Driver/Src/stm32u0xx_hal_flash_ex.c ****   /* Get Read protection level */
 374:Drivers/STM32U0xx_HAL_Driver/Src/stm32u0xx_hal_flash_ex.c ****   pOBInit->RDPLevel = FLASH_OB_GetRDP();
 375:Drivers/STM32U0xx_HAL_Driver/Src/stm32u0xx_hal_flash_ex.c **** 
 376:Drivers/STM32U0xx_HAL_Driver/Src/stm32u0xx_hal_flash_ex.c ****   /* Get the user option bytes */
 377:Drivers/STM32U0xx_HAL_Driver/Src/stm32u0xx_hal_flash_ex.c ****   pOBInit->USERConfig = FLASH_OB_GetUser();
 378:Drivers/STM32U0xx_HAL_Driver/Src/stm32u0xx_hal_flash_ex.c ****   pOBInit->USERType = OB_USER_ALL;
 379:Drivers/STM32U0xx_HAL_Driver/Src/stm32u0xx_hal_flash_ex.c **** 
 380:Drivers/STM32U0xx_HAL_Driver/Src/stm32u0xx_hal_flash_ex.c ****   /* Get the Securable Memory Area protection */
 381:Drivers/STM32U0xx_HAL_Driver/Src/stm32u0xx_hal_flash_ex.c ****   FLASH_OB_GetHDPConfig(&(pOBInit->BootLock), &(pOBInit->HDPEndPage), &(pOBInit->HDPState));
ARM GAS  C:\Users\upo\AppData\Local\Temp\ccdB8pc0.s 			page 10


 382:Drivers/STM32U0xx_HAL_Driver/Src/stm32u0xx_hal_flash_ex.c **** }
 383:Drivers/STM32U0xx_HAL_Driver/Src/stm32u0xx_hal_flash_ex.c **** 
 384:Drivers/STM32U0xx_HAL_Driver/Src/stm32u0xx_hal_flash_ex.c **** /**
 385:Drivers/STM32U0xx_HAL_Driver/Src/stm32u0xx_hal_flash_ex.c ****   * @brief  Enable Debugger.
 386:Drivers/STM32U0xx_HAL_Driver/Src/stm32u0xx_hal_flash_ex.c ****   * @note   After calling this API, flash interface allow debugger intrusion.
 387:Drivers/STM32U0xx_HAL_Driver/Src/stm32u0xx_hal_flash_ex.c ****   * @retval None
 388:Drivers/STM32U0xx_HAL_Driver/Src/stm32u0xx_hal_flash_ex.c ****   */
 389:Drivers/STM32U0xx_HAL_Driver/Src/stm32u0xx_hal_flash_ex.c **** void HAL_FLASHEx_EnableDebugger(void)
 390:Drivers/STM32U0xx_HAL_Driver/Src/stm32u0xx_hal_flash_ex.c **** {
 391:Drivers/STM32U0xx_HAL_Driver/Src/stm32u0xx_hal_flash_ex.c ****   FLASH->ACR |= FLASH_ACR_DBG_SWEN;
 392:Drivers/STM32U0xx_HAL_Driver/Src/stm32u0xx_hal_flash_ex.c **** }
 393:Drivers/STM32U0xx_HAL_Driver/Src/stm32u0xx_hal_flash_ex.c **** 
 394:Drivers/STM32U0xx_HAL_Driver/Src/stm32u0xx_hal_flash_ex.c **** 
 395:Drivers/STM32U0xx_HAL_Driver/Src/stm32u0xx_hal_flash_ex.c **** /**
 396:Drivers/STM32U0xx_HAL_Driver/Src/stm32u0xx_hal_flash_ex.c ****   * @brief  Disable Debugger.
 397:Drivers/STM32U0xx_HAL_Driver/Src/stm32u0xx_hal_flash_ex.c ****   * @note   After calling this API, Debugger is disabled: it is no more possible to
 398:Drivers/STM32U0xx_HAL_Driver/Src/stm32u0xx_hal_flash_ex.c ****   *         break, see CPU register, etc...
 399:Drivers/STM32U0xx_HAL_Driver/Src/stm32u0xx_hal_flash_ex.c ****   * @retval None
 400:Drivers/STM32U0xx_HAL_Driver/Src/stm32u0xx_hal_flash_ex.c ****   */
 401:Drivers/STM32U0xx_HAL_Driver/Src/stm32u0xx_hal_flash_ex.c **** void HAL_FLASHEx_DisableDebugger(void)
 402:Drivers/STM32U0xx_HAL_Driver/Src/stm32u0xx_hal_flash_ex.c **** {
 403:Drivers/STM32U0xx_HAL_Driver/Src/stm32u0xx_hal_flash_ex.c ****   FLASH->ACR &= ~FLASH_ACR_DBG_SWEN;
 404:Drivers/STM32U0xx_HAL_Driver/Src/stm32u0xx_hal_flash_ex.c **** }
 405:Drivers/STM32U0xx_HAL_Driver/Src/stm32u0xx_hal_flash_ex.c **** 
 406:Drivers/STM32U0xx_HAL_Driver/Src/stm32u0xx_hal_flash_ex.c **** /**
 407:Drivers/STM32U0xx_HAL_Driver/Src/stm32u0xx_hal_flash_ex.c ****   * @brief  Flash Empty check
 408:Drivers/STM32U0xx_HAL_Driver/Src/stm32u0xx_hal_flash_ex.c ****   * @note   This API checks if first location in Flash is programmed or not.
 409:Drivers/STM32U0xx_HAL_Driver/Src/stm32u0xx_hal_flash_ex.c ****   *         This check is done once by Option Byte Loader.
 410:Drivers/STM32U0xx_HAL_Driver/Src/stm32u0xx_hal_flash_ex.c ****   * @retval 0 if 1st location is not programmed else
 411:Drivers/STM32U0xx_HAL_Driver/Src/stm32u0xx_hal_flash_ex.c ****   */
 412:Drivers/STM32U0xx_HAL_Driver/Src/stm32u0xx_hal_flash_ex.c **** uint32_t HAL_FLASHEx_FlashEmptyCheck(void)
 413:Drivers/STM32U0xx_HAL_Driver/Src/stm32u0xx_hal_flash_ex.c **** {
 414:Drivers/STM32U0xx_HAL_Driver/Src/stm32u0xx_hal_flash_ex.c ****   return ((FLASH->ACR & FLASH_ACR_EMPTY));
 415:Drivers/STM32U0xx_HAL_Driver/Src/stm32u0xx_hal_flash_ex.c **** }
 416:Drivers/STM32U0xx_HAL_Driver/Src/stm32u0xx_hal_flash_ex.c **** 
 417:Drivers/STM32U0xx_HAL_Driver/Src/stm32u0xx_hal_flash_ex.c **** 
 418:Drivers/STM32U0xx_HAL_Driver/Src/stm32u0xx_hal_flash_ex.c **** /**
 419:Drivers/STM32U0xx_HAL_Driver/Src/stm32u0xx_hal_flash_ex.c ****   * @brief  Force Empty check value.
 420:Drivers/STM32U0xx_HAL_Driver/Src/stm32u0xx_hal_flash_ex.c ****   * @note   Allows to modify program empty check value in order to force this
 421:Drivers/STM32U0xx_HAL_Driver/Src/stm32u0xx_hal_flash_ex.c ****   *         infrmation in Flash Interface, for all next reset that do not launch
 422:Drivers/STM32U0xx_HAL_Driver/Src/stm32u0xx_hal_flash_ex.c ****   *         Option Byte Loader.
 423:Drivers/STM32U0xx_HAL_Driver/Src/stm32u0xx_hal_flash_ex.c ****   * @param  FlashEmpty this parameter can be a value of @ref FLASHEx_Empty_Check
 424:Drivers/STM32U0xx_HAL_Driver/Src/stm32u0xx_hal_flash_ex.c ****   * @retval None
 425:Drivers/STM32U0xx_HAL_Driver/Src/stm32u0xx_hal_flash_ex.c ****   */
 426:Drivers/STM32U0xx_HAL_Driver/Src/stm32u0xx_hal_flash_ex.c **** void HAL_FLASHEx_ForceFlashEmpty(uint32_t FlashEmpty)
 427:Drivers/STM32U0xx_HAL_Driver/Src/stm32u0xx_hal_flash_ex.c **** {
 428:Drivers/STM32U0xx_HAL_Driver/Src/stm32u0xx_hal_flash_ex.c ****   uint32_t acr;
 429:Drivers/STM32U0xx_HAL_Driver/Src/stm32u0xx_hal_flash_ex.c ****   assert_param(IS_FLASH_EMPTY_CHECK(FlashEmpty));
 430:Drivers/STM32U0xx_HAL_Driver/Src/stm32u0xx_hal_flash_ex.c **** 
 431:Drivers/STM32U0xx_HAL_Driver/Src/stm32u0xx_hal_flash_ex.c ****   acr = (FLASH->ACR & ~FLASH_ACR_EMPTY);
 432:Drivers/STM32U0xx_HAL_Driver/Src/stm32u0xx_hal_flash_ex.c ****   FLASH->ACR = (acr | FlashEmpty);
 433:Drivers/STM32U0xx_HAL_Driver/Src/stm32u0xx_hal_flash_ex.c **** }
 434:Drivers/STM32U0xx_HAL_Driver/Src/stm32u0xx_hal_flash_ex.c **** 
 435:Drivers/STM32U0xx_HAL_Driver/Src/stm32u0xx_hal_flash_ex.c **** /**
 436:Drivers/STM32U0xx_HAL_Driver/Src/stm32u0xx_hal_flash_ex.c ****   * @}
 437:Drivers/STM32U0xx_HAL_Driver/Src/stm32u0xx_hal_flash_ex.c ****   */
 438:Drivers/STM32U0xx_HAL_Driver/Src/stm32u0xx_hal_flash_ex.c **** 
ARM GAS  C:\Users\upo\AppData\Local\Temp\ccdB8pc0.s 			page 11


 439:Drivers/STM32U0xx_HAL_Driver/Src/stm32u0xx_hal_flash_ex.c **** /**
 440:Drivers/STM32U0xx_HAL_Driver/Src/stm32u0xx_hal_flash_ex.c ****   * @}
 441:Drivers/STM32U0xx_HAL_Driver/Src/stm32u0xx_hal_flash_ex.c ****   */
 442:Drivers/STM32U0xx_HAL_Driver/Src/stm32u0xx_hal_flash_ex.c **** 
 443:Drivers/STM32U0xx_HAL_Driver/Src/stm32u0xx_hal_flash_ex.c **** /* Private functions ---------------------------------------------------------*/
 444:Drivers/STM32U0xx_HAL_Driver/Src/stm32u0xx_hal_flash_ex.c **** /** @addtogroup FLASHEx_Private_Functions
 445:Drivers/STM32U0xx_HAL_Driver/Src/stm32u0xx_hal_flash_ex.c ****   * @{
 446:Drivers/STM32U0xx_HAL_Driver/Src/stm32u0xx_hal_flash_ex.c ****   */
 447:Drivers/STM32U0xx_HAL_Driver/Src/stm32u0xx_hal_flash_ex.c **** 
 448:Drivers/STM32U0xx_HAL_Driver/Src/stm32u0xx_hal_flash_ex.c **** /**
 449:Drivers/STM32U0xx_HAL_Driver/Src/stm32u0xx_hal_flash_ex.c ****   * @brief  Mass erase of FLASH memory.
 450:Drivers/STM32U0xx_HAL_Driver/Src/stm32u0xx_hal_flash_ex.c ****   * @retval None
 451:Drivers/STM32U0xx_HAL_Driver/Src/stm32u0xx_hal_flash_ex.c ****   */
 452:Drivers/STM32U0xx_HAL_Driver/Src/stm32u0xx_hal_flash_ex.c **** static void FLASH_MassErase(void)
 453:Drivers/STM32U0xx_HAL_Driver/Src/stm32u0xx_hal_flash_ex.c **** {
 454:Drivers/STM32U0xx_HAL_Driver/Src/stm32u0xx_hal_flash_ex.c ****   /* Set the Mass Erase Bit and start bit */
 455:Drivers/STM32U0xx_HAL_Driver/Src/stm32u0xx_hal_flash_ex.c ****   SET_BIT(FLASH->CR, (FLASH_CR_STRT | FLASH_CR_MER1));
 456:Drivers/STM32U0xx_HAL_Driver/Src/stm32u0xx_hal_flash_ex.c **** }
 457:Drivers/STM32U0xx_HAL_Driver/Src/stm32u0xx_hal_flash_ex.c **** 
 458:Drivers/STM32U0xx_HAL_Driver/Src/stm32u0xx_hal_flash_ex.c **** /**
 459:Drivers/STM32U0xx_HAL_Driver/Src/stm32u0xx_hal_flash_ex.c ****   * @brief  Erase the specified FLASH memory page.
 460:Drivers/STM32U0xx_HAL_Driver/Src/stm32u0xx_hal_flash_ex.c ****   * @param  Page FLASH page to erase
 461:Drivers/STM32U0xx_HAL_Driver/Src/stm32u0xx_hal_flash_ex.c ****   *         This parameter must be a value between 0 and (max number of pages in Flash - 1)
 462:Drivers/STM32U0xx_HAL_Driver/Src/stm32u0xx_hal_flash_ex.c ****   * @retval None
 463:Drivers/STM32U0xx_HAL_Driver/Src/stm32u0xx_hal_flash_ex.c ****   */
 464:Drivers/STM32U0xx_HAL_Driver/Src/stm32u0xx_hal_flash_ex.c **** void FLASH_PageErase(uint32_t Page)
 465:Drivers/STM32U0xx_HAL_Driver/Src/stm32u0xx_hal_flash_ex.c **** {
 466:Drivers/STM32U0xx_HAL_Driver/Src/stm32u0xx_hal_flash_ex.c ****   uint32_t tmp;
 467:Drivers/STM32U0xx_HAL_Driver/Src/stm32u0xx_hal_flash_ex.c **** 
 468:Drivers/STM32U0xx_HAL_Driver/Src/stm32u0xx_hal_flash_ex.c ****   /* Check the parameters */
 469:Drivers/STM32U0xx_HAL_Driver/Src/stm32u0xx_hal_flash_ex.c ****   assert_param(IS_FLASH_BANK(FLASH_BANK_1));
 470:Drivers/STM32U0xx_HAL_Driver/Src/stm32u0xx_hal_flash_ex.c ****   assert_param(IS_FLASH_PAGE(Page));
 471:Drivers/STM32U0xx_HAL_Driver/Src/stm32u0xx_hal_flash_ex.c **** 
 472:Drivers/STM32U0xx_HAL_Driver/Src/stm32u0xx_hal_flash_ex.c ****   /* Get configuration register, then clear page number */
 473:Drivers/STM32U0xx_HAL_Driver/Src/stm32u0xx_hal_flash_ex.c ****   tmp = (FLASH->CR & ~FLASH_CR_PNB);
 124              		.loc 1 473 7 view .LVU38
 125 004a 1C4B     		ldr	r3, .L13+4
 126              		.loc 1 473 15 view .LVU39
 127 004c 1C4E     		ldr	r6, .L13+8
 128              		.loc 1 473 7 view .LVU40
 129 004e 9A46     		mov	r10, r3
 130 0050 05E0     		b	.L8
 131              	.LVL5:
 132              	.L6:
 133              		.loc 1 473 7 view .LVU41
 134              	.LBE35:
 135              	.LBE34:
 173:Drivers/STM32U0xx_HAL_Driver/Src/stm32u0xx_hal_flash_ex.c ****       {
 136              		.loc 1 173 93 is_stmt 1 discriminator 2 view .LVU42
 173:Drivers/STM32U0xx_HAL_Driver/Src/stm32u0xx_hal_flash_ex.c ****       {
 137              		.loc 1 173 64 is_stmt 0 discriminator 2 view .LVU43
 138 0052 AB68     		ldr	r3, [r5, #8]
 139 0054 EA68     		ldr	r2, [r5, #12]
 173:Drivers/STM32U0xx_HAL_Driver/Src/stm32u0xx_hal_flash_ex.c ****       {
 140              		.loc 1 173 93 discriminator 2 view .LVU44
 141 0056 0134     		adds	r4, r4, #1
 142              	.LVL6:
ARM GAS  C:\Users\upo\AppData\Local\Temp\ccdB8pc0.s 			page 12


 173:Drivers/STM32U0xx_HAL_Driver/Src/stm32u0xx_hal_flash_ex.c ****       {
 143              		.loc 1 173 44 is_stmt 1 discriminator 2 view .LVU45
 173:Drivers/STM32U0xx_HAL_Driver/Src/stm32u0xx_hal_flash_ex.c ****       {
 144              		.loc 1 173 64 is_stmt 0 discriminator 2 view .LVU46
 145 0058 9B18     		adds	r3, r3, r2
 173:Drivers/STM32U0xx_HAL_Driver/Src/stm32u0xx_hal_flash_ex.c ****       {
 146              		.loc 1 173 44 discriminator 2 view .LVU47
 147 005a A342     		cmp	r3, r4
 148 005c 10D9     		bls	.L7
 149              	.L8:
 176:Drivers/STM32U0xx_HAL_Driver/Src/stm32u0xx_hal_flash_ex.c **** 
 150              		.loc 1 176 9 is_stmt 1 view .LVU48
 151              	.LVL7:
 152              	.LBB39:
 153              	.LBI34:
 464:Drivers/STM32U0xx_HAL_Driver/Src/stm32u0xx_hal_flash_ex.c **** {
 154              		.loc 1 464 6 view .LVU49
 155              	.LBB36:
 466:Drivers/STM32U0xx_HAL_Driver/Src/stm32u0xx_hal_flash_ex.c **** 
 156              		.loc 1 466 3 view .LVU50
 469:Drivers/STM32U0xx_HAL_Driver/Src/stm32u0xx_hal_flash_ex.c ****   assert_param(IS_FLASH_PAGE(Page));
 157              		.loc 1 469 3 view .LVU51
 470:Drivers/STM32U0xx_HAL_Driver/Src/stm32u0xx_hal_flash_ex.c **** 
 158              		.loc 1 470 3 view .LVU52
 159              		.loc 1 473 3 view .LVU53
 160              		.loc 1 473 7 is_stmt 0 view .LVU54
 161 005e 5146     		mov	r1, r10
 162              	.LBE36:
 163              	.LBE39:
 179:Drivers/STM32U0xx_HAL_Driver/Src/stm32u0xx_hal_flash_ex.c **** 
 164              		.loc 1 179 18 view .LVU55
 165 0060 FA20     		movs	r0, #250
 166              	.LBB40:
 167              	.LBB37:
 168              		.loc 1 473 15 view .LVU56
 169 0062 7269     		ldr	r2, [r6, #20]
 170              	.LVL8:
 474:Drivers/STM32U0xx_HAL_Driver/Src/stm32u0xx_hal_flash_ex.c **** 
 475:Drivers/STM32U0xx_HAL_Driver/Src/stm32u0xx_hal_flash_ex.c ****   /* Set page number, Page Erase bit & Start bit */
 476:Drivers/STM32U0xx_HAL_Driver/Src/stm32u0xx_hal_flash_ex.c ****   FLASH->CR = (tmp | (FLASH_CR_STRT | (Page <<  FLASH_CR_PNB_Pos) | FLASH_CR_PER));
 171              		.loc 1 476 3 is_stmt 1 view .LVU57
 172              		.loc 1 476 20 is_stmt 0 view .LVU58
 173 0064 E300     		lsls	r3, r4, #3
 473:Drivers/STM32U0xx_HAL_Driver/Src/stm32u0xx_hal_flash_ex.c **** 
 174              		.loc 1 473 7 view .LVU59
 175 0066 0A40     		ands	r2, r1
 176              	.LVL9:
 177              		.loc 1 476 20 view .LVU60
 178 0068 1343     		orrs	r3, r2
 179 006a 164A     		ldr	r2, .L13+12
 180              	.LBE37:
 181              	.LBE40:
 179:Drivers/STM32U0xx_HAL_Driver/Src/stm32u0xx_hal_flash_ex.c **** 
 182              		.loc 1 179 18 view .LVU61
 183 006c 8000     		lsls	r0, r0, #2
 184              	.LBB41:
 185              	.LBB38:
ARM GAS  C:\Users\upo\AppData\Local\Temp\ccdB8pc0.s 			page 13


 186              		.loc 1 476 20 view .LVU62
 187 006e 1343     		orrs	r3, r2
 188              		.loc 1 476 13 view .LVU63
 189 0070 7361     		str	r3, [r6, #20]
 190              	.LVL10:
 191              		.loc 1 476 13 view .LVU64
 192              	.LBE38:
 193              	.LBE41:
 179:Drivers/STM32U0xx_HAL_Driver/Src/stm32u0xx_hal_flash_ex.c **** 
 194              		.loc 1 179 9 is_stmt 1 view .LVU65
 179:Drivers/STM32U0xx_HAL_Driver/Src/stm32u0xx_hal_flash_ex.c **** 
 195              		.loc 1 179 18 is_stmt 0 view .LVU66
 196 0072 FFF7FEFF 		bl	FLASH_WaitForLastOperation
 197              	.LVL11:
 181:Drivers/STM32U0xx_HAL_Driver/Src/stm32u0xx_hal_flash_ex.c ****         {
 198              		.loc 1 181 9 is_stmt 1 view .LVU67
 181:Drivers/STM32U0xx_HAL_Driver/Src/stm32u0xx_hal_flash_ex.c ****         {
 199              		.loc 1 181 12 is_stmt 0 view .LVU68
 200 0076 0028     		cmp	r0, #0
 201 0078 EBD0     		beq	.L6
 184:Drivers/STM32U0xx_HAL_Driver/Src/stm32u0xx_hal_flash_ex.c ****           break;
 202              		.loc 1 184 11 is_stmt 1 view .LVU69
 184:Drivers/STM32U0xx_HAL_Driver/Src/stm32u0xx_hal_flash_ex.c ****           break;
 203              		.loc 1 184 22 is_stmt 0 view .LVU70
 204 007a 4B46     		mov	r3, r9
 179:Drivers/STM32U0xx_HAL_Driver/Src/stm32u0xx_hal_flash_ex.c **** 
 205              		.loc 1 179 18 view .LVU71
 206 007c 0700     		movs	r7, r0
 184:Drivers/STM32U0xx_HAL_Driver/Src/stm32u0xx_hal_flash_ex.c ****           break;
 207              		.loc 1 184 22 view .LVU72
 208 007e 1C60     		str	r4, [r3]
 185:Drivers/STM32U0xx_HAL_Driver/Src/stm32u0xx_hal_flash_ex.c ****         }
 209              		.loc 1 185 11 is_stmt 1 view .LVU73
 210              	.LVL12:
 211              	.L7:
 190:Drivers/STM32U0xx_HAL_Driver/Src/stm32u0xx_hal_flash_ex.c ****     }
 212              		.loc 1 190 7 view .LVU74
 213 0080 0221     		movs	r1, #2
 214 0082 0F4A     		ldr	r2, .L13+8
 215 0084 5369     		ldr	r3, [r2, #20]
 216 0086 8B43     		bics	r3, r1
 217 0088 5361     		str	r3, [r2, #20]
 218              	.LVL13:
 219              	.L3:
 195:Drivers/STM32U0xx_HAL_Driver/Src/stm32u0xx_hal_flash_ex.c **** 
 220              		.loc 1 195 3 view .LVU75
 195:Drivers/STM32U0xx_HAL_Driver/Src/stm32u0xx_hal_flash_ex.c **** 
 221              		.loc 1 195 3 view .LVU76
 222 008a 0023     		movs	r3, #0
 223 008c 4246     		mov	r2, r8
 224 008e 1370     		strb	r3, [r2]
 195:Drivers/STM32U0xx_HAL_Driver/Src/stm32u0xx_hal_flash_ex.c **** 
 225              		.loc 1 195 3 view .LVU77
 198:Drivers/STM32U0xx_HAL_Driver/Src/stm32u0xx_hal_flash_ex.c **** }
 226              		.loc 1 198 3 view .LVU78
 227              	.LVL14:
 228              	.L2:
ARM GAS  C:\Users\upo\AppData\Local\Temp\ccdB8pc0.s 			page 14


 199:Drivers/STM32U0xx_HAL_Driver/Src/stm32u0xx_hal_flash_ex.c **** 
 229              		.loc 1 199 1 is_stmt 0 view .LVU79
 230 0090 3800     		movs	r0, r7
 231              		@ sp needed
 232              	.LVL15:
 233              	.LVL16:
 199:Drivers/STM32U0xx_HAL_Driver/Src/stm32u0xx_hal_flash_ex.c **** 
 234              		.loc 1 199 1 view .LVU80
 235 0092 E0BC     		pop	{r5, r6, r7}
 236 0094 BA46     		mov	r10, r7
 237 0096 B146     		mov	r9, r6
 238 0098 A846     		mov	r8, r5
 239 009a F0BD     		pop	{r4, r5, r6, r7, pc}
 240              	.LVL17:
 241              	.L9:
 148:Drivers/STM32U0xx_HAL_Driver/Src/stm32u0xx_hal_flash_ex.c **** 
 242              		.loc 1 148 3 view .LVU81
 243 009c 0227     		movs	r7, #2
 244 009e F7E7     		b	.L2
 245              	.LVL18:
 246              	.L12:
 163:Drivers/STM32U0xx_HAL_Driver/Src/stm32u0xx_hal_flash_ex.c **** 
 247              		.loc 1 163 7 is_stmt 1 view .LVU82
 248              	.LBB42:
 249              	.LBI42:
 452:Drivers/STM32U0xx_HAL_Driver/Src/stm32u0xx_hal_flash_ex.c **** {
 250              		.loc 1 452 13 view .LVU83
 251              	.LBB43:
 455:Drivers/STM32U0xx_HAL_Driver/Src/stm32u0xx_hal_flash_ex.c **** }
 252              		.loc 1 455 3 view .LVU84
 253              	.LBE43:
 254              	.LBE42:
 166:Drivers/STM32U0xx_HAL_Driver/Src/stm32u0xx_hal_flash_ex.c ****     }
 255              		.loc 1 166 16 is_stmt 0 view .LVU85
 256 00a0 FA20     		movs	r0, #250
 257              	.LVL19:
 258              	.LBB46:
 259              	.LBB44:
 455:Drivers/STM32U0xx_HAL_Driver/Src/stm32u0xx_hal_flash_ex.c **** }
 260              		.loc 1 455 3 view .LVU86
 261 00a2 074A     		ldr	r2, .L13+8
 262 00a4 084B     		ldr	r3, .L13+16
 263 00a6 5169     		ldr	r1, [r2, #20]
 264              	.LBE44:
 265              	.LBE46:
 166:Drivers/STM32U0xx_HAL_Driver/Src/stm32u0xx_hal_flash_ex.c ****     }
 266              		.loc 1 166 16 view .LVU87
 267 00a8 8000     		lsls	r0, r0, #2
 268              	.LBB47:
 269              	.LBB45:
 455:Drivers/STM32U0xx_HAL_Driver/Src/stm32u0xx_hal_flash_ex.c **** }
 270              		.loc 1 455 3 view .LVU88
 271 00aa 0B43     		orrs	r3, r1
 272 00ac 5361     		str	r3, [r2, #20]
 273              	.LBE45:
 274              	.LBE47:
 166:Drivers/STM32U0xx_HAL_Driver/Src/stm32u0xx_hal_flash_ex.c ****     }
ARM GAS  C:\Users\upo\AppData\Local\Temp\ccdB8pc0.s 			page 15


 275              		.loc 1 166 7 is_stmt 1 view .LVU89
 166:Drivers/STM32U0xx_HAL_Driver/Src/stm32u0xx_hal_flash_ex.c ****     }
 276              		.loc 1 166 16 is_stmt 0 view .LVU90
 277 00ae FFF7FEFF 		bl	FLASH_WaitForLastOperation
 278              	.LVL20:
 279 00b2 0700     		movs	r7, r0
 280              	.LVL21:
 166:Drivers/STM32U0xx_HAL_Driver/Src/stm32u0xx_hal_flash_ex.c ****     }
 281              		.loc 1 166 16 view .LVU91
 282 00b4 E9E7     		b	.L3
 283              	.L14:
 284 00b6 C046     		.align	2
 285              	.L13:
 286 00b8 00000000 		.word	pFlash
 287 00bc 07FCFFFF 		.word	-1017
 288 00c0 00200240 		.word	1073881088
 289 00c4 02000100 		.word	65538
 290 00c8 04000100 		.word	65540
 291              		.cfi_endproc
 292              	.LFE334:
 294              		.section	.text.HAL_FLASHEx_Erase_IT,"ax",%progbits
 295              		.align	1
 296              		.p2align 2,,3
 297              		.global	HAL_FLASHEx_Erase_IT
 298              		.syntax unified
 299              		.code	16
 300              		.thumb_func
 302              	HAL_FLASHEx_Erase_IT:
 303              	.LVL22:
 304              	.LFB335:
 209:Drivers/STM32U0xx_HAL_Driver/Src/stm32u0xx_hal_flash_ex.c ****   HAL_StatusTypeDef status;
 305              		.loc 1 209 1 is_stmt 1 view -0
 306              		.cfi_startproc
 307              		@ args = 0, pretend = 0, frame = 0
 308              		@ frame_needed = 0, uses_anonymous_args = 0
 210:Drivers/STM32U0xx_HAL_Driver/Src/stm32u0xx_hal_flash_ex.c **** 
 309              		.loc 1 210 3 view .LVU93
 213:Drivers/STM32U0xx_HAL_Driver/Src/stm32u0xx_hal_flash_ex.c **** 
 310              		.loc 1 213 3 view .LVU94
 216:Drivers/STM32U0xx_HAL_Driver/Src/stm32u0xx_hal_flash_ex.c **** 
 311              		.loc 1 216 3 view .LVU95
 216:Drivers/STM32U0xx_HAL_Driver/Src/stm32u0xx_hal_flash_ex.c **** 
 312              		.loc 1 216 3 view .LVU96
 209:Drivers/STM32U0xx_HAL_Driver/Src/stm32u0xx_hal_flash_ex.c ****   HAL_StatusTypeDef status;
 313              		.loc 1 209 1 is_stmt 0 view .LVU97
 314 0000 F8B5     		push	{r3, r4, r5, r6, r7, lr}
 315              	.LCFI2:
 316              		.cfi_def_cfa_offset 24
 317              		.cfi_offset 3, -24
 318              		.cfi_offset 4, -20
 319              		.cfi_offset 5, -16
 320              		.cfi_offset 6, -12
 321              		.cfi_offset 7, -8
 322              		.cfi_offset 14, -4
 216:Drivers/STM32U0xx_HAL_Driver/Src/stm32u0xx_hal_flash_ex.c **** 
 323              		.loc 1 216 3 view .LVU98
 324 0002 194C     		ldr	r4, .L23
ARM GAS  C:\Users\upo\AppData\Local\Temp\ccdB8pc0.s 			page 16


 209:Drivers/STM32U0xx_HAL_Driver/Src/stm32u0xx_hal_flash_ex.c ****   HAL_StatusTypeDef status;
 325              		.loc 1 209 1 view .LVU99
 326 0004 0500     		movs	r5, r0
 216:Drivers/STM32U0xx_HAL_Driver/Src/stm32u0xx_hal_flash_ex.c **** 
 327              		.loc 1 216 3 view .LVU100
 328 0006 2378     		ldrb	r3, [r4]
 329 0008 012B     		cmp	r3, #1
 330 000a 25D0     		beq	.L20
 216:Drivers/STM32U0xx_HAL_Driver/Src/stm32u0xx_hal_flash_ex.c **** 
 331              		.loc 1 216 3 is_stmt 1 discriminator 2 view .LVU101
 332 000c 0126     		movs	r6, #1
 333 000e 2670     		strb	r6, [r4]
 216:Drivers/STM32U0xx_HAL_Driver/Src/stm32u0xx_hal_flash_ex.c **** 
 334              		.loc 1 216 3 discriminator 2 view .LVU102
 219:Drivers/STM32U0xx_HAL_Driver/Src/stm32u0xx_hal_flash_ex.c **** 
 335              		.loc 1 219 3 discriminator 2 view .LVU103
 222:Drivers/STM32U0xx_HAL_Driver/Src/stm32u0xx_hal_flash_ex.c **** 
 336              		.loc 1 222 27 is_stmt 0 discriminator 2 view .LVU104
 337 0010 0368     		ldr	r3, [r0]
 225:Drivers/STM32U0xx_HAL_Driver/Src/stm32u0xx_hal_flash_ex.c **** 
 338              		.loc 1 225 12 discriminator 2 view .LVU105
 339 0012 FA20     		movs	r0, #250
 340              	.LVL23:
 219:Drivers/STM32U0xx_HAL_Driver/Src/stm32u0xx_hal_flash_ex.c **** 
 341              		.loc 1 219 20 discriminator 2 view .LVU106
 342 0014 0027     		movs	r7, #0
 225:Drivers/STM32U0xx_HAL_Driver/Src/stm32u0xx_hal_flash_ex.c **** 
 343              		.loc 1 225 12 discriminator 2 view .LVU107
 344 0016 8000     		lsls	r0, r0, #2
 219:Drivers/STM32U0xx_HAL_Driver/Src/stm32u0xx_hal_flash_ex.c **** 
 345              		.loc 1 219 20 discriminator 2 view .LVU108
 346 0018 6760     		str	r7, [r4, #4]
 222:Drivers/STM32U0xx_HAL_Driver/Src/stm32u0xx_hal_flash_ex.c **** 
 347              		.loc 1 222 3 is_stmt 1 discriminator 2 view .LVU109
 222:Drivers/STM32U0xx_HAL_Driver/Src/stm32u0xx_hal_flash_ex.c **** 
 348              		.loc 1 222 27 is_stmt 0 discriminator 2 view .LVU110
 349 001a A360     		str	r3, [r4, #8]
 225:Drivers/STM32U0xx_HAL_Driver/Src/stm32u0xx_hal_flash_ex.c **** 
 350              		.loc 1 225 3 is_stmt 1 discriminator 2 view .LVU111
 225:Drivers/STM32U0xx_HAL_Driver/Src/stm32u0xx_hal_flash_ex.c **** 
 351              		.loc 1 225 12 is_stmt 0 discriminator 2 view .LVU112
 352 001c FFF7FEFF 		bl	FLASH_WaitForLastOperation
 353              	.LVL24:
 227:Drivers/STM32U0xx_HAL_Driver/Src/stm32u0xx_hal_flash_ex.c ****   {
 354              		.loc 1 227 3 is_stmt 1 discriminator 2 view .LVU113
 227:Drivers/STM32U0xx_HAL_Driver/Src/stm32u0xx_hal_flash_ex.c ****   {
 355              		.loc 1 227 6 is_stmt 0 discriminator 2 view .LVU114
 356 0020 0028     		cmp	r0, #0
 357 0022 17D1     		bne	.L21
 235:Drivers/STM32U0xx_HAL_Driver/Src/stm32u0xx_hal_flash_ex.c ****     /* Store Bank number */
 358              		.loc 1 235 5 is_stmt 1 view .LVU115
 240:Drivers/STM32U0xx_HAL_Driver/Src/stm32u0xx_hal_flash_ex.c **** 
 359              		.loc 1 240 15 is_stmt 0 view .LVU116
 360 0024 C022     		movs	r2, #192
 240:Drivers/STM32U0xx_HAL_Driver/Src/stm32u0xx_hal_flash_ex.c **** 
 361              		.loc 1 240 10 view .LVU117
 362 0026 114B     		ldr	r3, .L23+4
ARM GAS  C:\Users\upo\AppData\Local\Temp\ccdB8pc0.s 			page 17


 235:Drivers/STM32U0xx_HAL_Driver/Src/stm32u0xx_hal_flash_ex.c ****     /* Store Bank number */
 363              		.loc 1 235 23 view .LVU118
 364 0028 6E60     		str	r6, [r5, #4]
 237:Drivers/STM32U0xx_HAL_Driver/Src/stm32u0xx_hal_flash_ex.c **** 
 365              		.loc 1 237 5 is_stmt 1 view .LVU119
 237:Drivers/STM32U0xx_HAL_Driver/Src/stm32u0xx_hal_flash_ex.c **** 
 366              		.loc 1 237 18 is_stmt 0 view .LVU120
 367 002a 2661     		str	r6, [r4, #16]
 240:Drivers/STM32U0xx_HAL_Driver/Src/stm32u0xx_hal_flash_ex.c **** 
 368              		.loc 1 240 5 is_stmt 1 view .LVU121
 240:Drivers/STM32U0xx_HAL_Driver/Src/stm32u0xx_hal_flash_ex.c **** 
 369              		.loc 1 240 10 is_stmt 0 view .LVU122
 370 002c 5969     		ldr	r1, [r3, #20]
 240:Drivers/STM32U0xx_HAL_Driver/Src/stm32u0xx_hal_flash_ex.c **** 
 371              		.loc 1 240 15 view .LVU123
 372 002e 9204     		lsls	r2, r2, #18
 373 0030 0A43     		orrs	r2, r1
 374 0032 5A61     		str	r2, [r3, #20]
 242:Drivers/STM32U0xx_HAL_Driver/Src/stm32u0xx_hal_flash_ex.c ****     {
 375              		.loc 1 242 5 is_stmt 1 view .LVU124
 242:Drivers/STM32U0xx_HAL_Driver/Src/stm32u0xx_hal_flash_ex.c ****     {
 376              		.loc 1 242 8 is_stmt 0 view .LVU125
 377 0034 2A68     		ldr	r2, [r5]
 378 0036 042A     		cmp	r2, #4
 379 0038 10D0     		beq	.L22
 253:Drivers/STM32U0xx_HAL_Driver/Src/stm32u0xx_hal_flash_ex.c ****       pFlash.Page = pEraseInit->Page;
 380              		.loc 1 253 7 is_stmt 1 view .LVU126
 253:Drivers/STM32U0xx_HAL_Driver/Src/stm32u0xx_hal_flash_ex.c ****       pFlash.Page = pEraseInit->Page;
 381              		.loc 1 253 29 is_stmt 0 view .LVU127
 382 003a EA68     		ldr	r2, [r5, #12]
 254:Drivers/STM32U0xx_HAL_Driver/Src/stm32u0xx_hal_flash_ex.c **** 
 383              		.loc 1 254 31 view .LVU128
 384 003c A968     		ldr	r1, [r5, #8]
 253:Drivers/STM32U0xx_HAL_Driver/Src/stm32u0xx_hal_flash_ex.c ****       pFlash.Page = pEraseInit->Page;
 385              		.loc 1 253 29 view .LVU129
 386 003e A261     		str	r2, [r4, #24]
 254:Drivers/STM32U0xx_HAL_Driver/Src/stm32u0xx_hal_flash_ex.c **** 
 387              		.loc 1 254 7 is_stmt 1 view .LVU130
 254:Drivers/STM32U0xx_HAL_Driver/Src/stm32u0xx_hal_flash_ex.c **** 
 388              		.loc 1 254 19 is_stmt 0 view .LVU131
 389 0040 6161     		str	r1, [r4, #20]
 257:Drivers/STM32U0xx_HAL_Driver/Src/stm32u0xx_hal_flash_ex.c ****     }
 390              		.loc 1 257 7 is_stmt 1 view .LVU132
 391              	.LVL25:
 392              	.LBB48:
 393              	.LBI48:
 464:Drivers/STM32U0xx_HAL_Driver/Src/stm32u0xx_hal_flash_ex.c **** {
 394              		.loc 1 464 6 view .LVU133
 395              	.LBB49:
 466:Drivers/STM32U0xx_HAL_Driver/Src/stm32u0xx_hal_flash_ex.c **** 
 396              		.loc 1 466 3 view .LVU134
 469:Drivers/STM32U0xx_HAL_Driver/Src/stm32u0xx_hal_flash_ex.c ****   assert_param(IS_FLASH_PAGE(Page));
 397              		.loc 1 469 3 view .LVU135
 470:Drivers/STM32U0xx_HAL_Driver/Src/stm32u0xx_hal_flash_ex.c **** 
 398              		.loc 1 470 3 view .LVU136
 473:Drivers/STM32U0xx_HAL_Driver/Src/stm32u0xx_hal_flash_ex.c **** 
 399              		.loc 1 473 3 view .LVU137
ARM GAS  C:\Users\upo\AppData\Local\Temp\ccdB8pc0.s 			page 18


 473:Drivers/STM32U0xx_HAL_Driver/Src/stm32u0xx_hal_flash_ex.c **** 
 400              		.loc 1 473 15 is_stmt 0 view .LVU138
 401 0042 5A69     		ldr	r2, [r3, #20]
 402              	.LVL26:
 403              		.loc 1 476 3 is_stmt 1 view .LVU139
 473:Drivers/STM32U0xx_HAL_Driver/Src/stm32u0xx_hal_flash_ex.c **** 
 404              		.loc 1 473 7 is_stmt 0 view .LVU140
 405 0044 0A4C     		ldr	r4, .L23+8
 406              		.loc 1 476 45 view .LVU141
 407 0046 C900     		lsls	r1, r1, #3
 408              	.LVL27:
 473:Drivers/STM32U0xx_HAL_Driver/Src/stm32u0xx_hal_flash_ex.c **** 
 409              		.loc 1 473 7 view .LVU142
 410 0048 2240     		ands	r2, r4
 411              	.LVL28:
 412              		.loc 1 476 20 view .LVU143
 413 004a 0A43     		orrs	r2, r1
 414              	.LVL29:
 415              		.loc 1 476 20 view .LVU144
 416 004c 0949     		ldr	r1, .L23+12
 417 004e 0A43     		orrs	r2, r1
 418              		.loc 1 476 13 view .LVU145
 419 0050 5A61     		str	r2, [r3, #20]
 420              	.LVL30:
 421              	.L16:
 422              		.loc 1 476 13 view .LVU146
 423              	.LBE49:
 424              	.LBE48:
 263:Drivers/STM32U0xx_HAL_Driver/Src/stm32u0xx_hal_flash_ex.c **** 
 425              		.loc 1 263 1 view .LVU147
 426              		@ sp needed
 427              	.LVL31:
 263:Drivers/STM32U0xx_HAL_Driver/Src/stm32u0xx_hal_flash_ex.c **** 
 428              		.loc 1 263 1 view .LVU148
 429 0052 F8BD     		pop	{r3, r4, r5, r6, r7, pc}
 430              	.LVL32:
 431              	.L21:
 230:Drivers/STM32U0xx_HAL_Driver/Src/stm32u0xx_hal_flash_ex.c ****   }
 432              		.loc 1 230 5 is_stmt 1 view .LVU149
 230:Drivers/STM32U0xx_HAL_Driver/Src/stm32u0xx_hal_flash_ex.c ****   }
 433              		.loc 1 230 5 view .LVU150
 434 0054 2770     		strb	r7, [r4]
 230:Drivers/STM32U0xx_HAL_Driver/Src/stm32u0xx_hal_flash_ex.c ****   }
 435              		.loc 1 230 5 view .LVU151
 436 0056 FCE7     		b	.L16
 437              	.LVL33:
 438              	.L20:
 216:Drivers/STM32U0xx_HAL_Driver/Src/stm32u0xx_hal_flash_ex.c **** 
 439              		.loc 1 216 3 is_stmt 0 view .LVU152
 440 0058 0220     		movs	r0, #2
 441              	.LVL34:
 216:Drivers/STM32U0xx_HAL_Driver/Src/stm32u0xx_hal_flash_ex.c **** 
 442              		.loc 1 216 3 view .LVU153
 443 005a FAE7     		b	.L16
 444              	.LVL35:
 445              	.L22:
 245:Drivers/STM32U0xx_HAL_Driver/Src/stm32u0xx_hal_flash_ex.c **** 
ARM GAS  C:\Users\upo\AppData\Local\Temp\ccdB8pc0.s 			page 19


 446              		.loc 1 245 7 is_stmt 1 view .LVU154
 245:Drivers/STM32U0xx_HAL_Driver/Src/stm32u0xx_hal_flash_ex.c **** 
 447              		.loc 1 245 19 is_stmt 0 view .LVU155
 448 005c 6061     		str	r0, [r4, #20]
 248:Drivers/STM32U0xx_HAL_Driver/Src/stm32u0xx_hal_flash_ex.c ****     }
 449              		.loc 1 248 7 is_stmt 1 view .LVU156
 450              	.LBB50:
 451              	.LBI50:
 452:Drivers/STM32U0xx_HAL_Driver/Src/stm32u0xx_hal_flash_ex.c **** {
 452              		.loc 1 452 13 view .LVU157
 453              	.LBB51:
 455:Drivers/STM32U0xx_HAL_Driver/Src/stm32u0xx_hal_flash_ex.c **** }
 454              		.loc 1 455 3 view .LVU158
 455 005e 5969     		ldr	r1, [r3, #20]
 456 0060 054A     		ldr	r2, .L23+16
 457 0062 0A43     		orrs	r2, r1
 458 0064 5A61     		str	r2, [r3, #20]
 456:Drivers/STM32U0xx_HAL_Driver/Src/stm32u0xx_hal_flash_ex.c **** 
 459              		.loc 1 456 1 is_stmt 0 view .LVU159
 460 0066 F4E7     		b	.L16
 461              	.L24:
 462              		.align	2
 463              	.L23:
 464 0068 00000000 		.word	pFlash
 465 006c 00200240 		.word	1073881088
 466 0070 07FCFFFF 		.word	-1017
 467 0074 02000100 		.word	65538
 468 0078 04000100 		.word	65540
 469              	.LBE51:
 470              	.LBE50:
 471              		.cfi_endproc
 472              	.LFE335:
 474              		.section	.text.HAL_FLASHEx_OBProgram,"ax",%progbits
 475              		.align	1
 476              		.p2align 2,,3
 477              		.global	HAL_FLASHEx_OBProgram
 478              		.syntax unified
 479              		.code	16
 480              		.thumb_func
 482              	HAL_FLASHEx_OBProgram:
 483              	.LVL36:
 484              	.LFB336:
 278:Drivers/STM32U0xx_HAL_Driver/Src/stm32u0xx_hal_flash_ex.c ****   uint32_t optr;
 485              		.loc 1 278 1 is_stmt 1 view -0
 486              		.cfi_startproc
 487              		@ args = 0, pretend = 0, frame = 0
 488              		@ frame_needed = 0, uses_anonymous_args = 0
 279:Drivers/STM32U0xx_HAL_Driver/Src/stm32u0xx_hal_flash_ex.c ****   HAL_StatusTypeDef status;
 489              		.loc 1 279 3 view .LVU161
 280:Drivers/STM32U0xx_HAL_Driver/Src/stm32u0xx_hal_flash_ex.c **** 
 490              		.loc 1 280 3 view .LVU162
 283:Drivers/STM32U0xx_HAL_Driver/Src/stm32u0xx_hal_flash_ex.c **** 
 491              		.loc 1 283 3 view .LVU163
 286:Drivers/STM32U0xx_HAL_Driver/Src/stm32u0xx_hal_flash_ex.c **** 
 492              		.loc 1 286 3 view .LVU164
 286:Drivers/STM32U0xx_HAL_Driver/Src/stm32u0xx_hal_flash_ex.c **** 
 493              		.loc 1 286 3 view .LVU165
ARM GAS  C:\Users\upo\AppData\Local\Temp\ccdB8pc0.s 			page 20


 278:Drivers/STM32U0xx_HAL_Driver/Src/stm32u0xx_hal_flash_ex.c ****   uint32_t optr;
 494              		.loc 1 278 1 is_stmt 0 view .LVU166
 495 0000 F8B5     		push	{r3, r4, r5, r6, r7, lr}
 496              	.LCFI3:
 497              		.cfi_def_cfa_offset 24
 498              		.cfi_offset 3, -24
 499              		.cfi_offset 4, -20
 500              		.cfi_offset 5, -16
 501              		.cfi_offset 6, -12
 502              		.cfi_offset 7, -8
 503              		.cfi_offset 14, -4
 286:Drivers/STM32U0xx_HAL_Driver/Src/stm32u0xx_hal_flash_ex.c **** 
 504              		.loc 1 286 3 view .LVU167
 505 0002 4C4C     		ldr	r4, .L63
 506 0004 2378     		ldrb	r3, [r4]
 507 0006 012B     		cmp	r3, #1
 508 0008 00D1     		bne	.LCB418
 509 000a 91E0     		b	.L39	@long jump
 510              	.LCB418:
 286:Drivers/STM32U0xx_HAL_Driver/Src/stm32u0xx_hal_flash_ex.c **** 
 511              		.loc 1 286 3 is_stmt 1 discriminator 2 view .LVU168
 512 000c 0122     		movs	r2, #1
 288:Drivers/STM32U0xx_HAL_Driver/Src/stm32u0xx_hal_flash_ex.c **** 
 513              		.loc 1 288 20 is_stmt 0 discriminator 2 view .LVU169
 514 000e 0023     		movs	r3, #0
 286:Drivers/STM32U0xx_HAL_Driver/Src/stm32u0xx_hal_flash_ex.c **** 
 515              		.loc 1 286 3 discriminator 2 view .LVU170
 516 0010 2270     		strb	r2, [r4]
 286:Drivers/STM32U0xx_HAL_Driver/Src/stm32u0xx_hal_flash_ex.c **** 
 517              		.loc 1 286 3 is_stmt 1 discriminator 2 view .LVU171
 288:Drivers/STM32U0xx_HAL_Driver/Src/stm32u0xx_hal_flash_ex.c **** 
 518              		.loc 1 288 3 discriminator 2 view .LVU172
 288:Drivers/STM32U0xx_HAL_Driver/Src/stm32u0xx_hal_flash_ex.c **** 
 519              		.loc 1 288 20 is_stmt 0 discriminator 2 view .LVU173
 520 0012 6360     		str	r3, [r4, #4]
 291:Drivers/STM32U0xx_HAL_Driver/Src/stm32u0xx_hal_flash_ex.c ****   {
 521              		.loc 1 291 3 is_stmt 1 discriminator 2 view .LVU174
 291:Drivers/STM32U0xx_HAL_Driver/Src/stm32u0xx_hal_flash_ex.c ****   {
 522              		.loc 1 291 15 is_stmt 0 discriminator 2 view .LVU175
 523 0014 0368     		ldr	r3, [r0]
 291:Drivers/STM32U0xx_HAL_Driver/Src/stm32u0xx_hal_flash_ex.c ****   {
 524              		.loc 1 291 6 discriminator 2 view .LVU176
 525 0016 1A42     		tst	r2, r3
 526 0018 09D0     		beq	.L27
 294:Drivers/STM32U0xx_HAL_Driver/Src/stm32u0xx_hal_flash_ex.c ****   }
 527              		.loc 1 294 5 is_stmt 1 view .LVU177
 528              	.LVL37:
 529              	.LBB52:
 530              	.LBI52:
 477:Drivers/STM32U0xx_HAL_Driver/Src/stm32u0xx_hal_flash_ex.c **** }
 478:Drivers/STM32U0xx_HAL_Driver/Src/stm32u0xx_hal_flash_ex.c **** 
 479:Drivers/STM32U0xx_HAL_Driver/Src/stm32u0xx_hal_flash_ex.c **** /**
 480:Drivers/STM32U0xx_HAL_Driver/Src/stm32u0xx_hal_flash_ex.c ****   * @brief  Flush the instruction cache.
 481:Drivers/STM32U0xx_HAL_Driver/Src/stm32u0xx_hal_flash_ex.c ****   * @retval None
 482:Drivers/STM32U0xx_HAL_Driver/Src/stm32u0xx_hal_flash_ex.c ****   */
 483:Drivers/STM32U0xx_HAL_Driver/Src/stm32u0xx_hal_flash_ex.c **** void FLASH_FlushCaches(void)
 484:Drivers/STM32U0xx_HAL_Driver/Src/stm32u0xx_hal_flash_ex.c **** {
ARM GAS  C:\Users\upo\AppData\Local\Temp\ccdB8pc0.s 			page 21


 485:Drivers/STM32U0xx_HAL_Driver/Src/stm32u0xx_hal_flash_ex.c ****   /* Flush instruction cache  */
 486:Drivers/STM32U0xx_HAL_Driver/Src/stm32u0xx_hal_flash_ex.c ****   if (READ_BIT(FLASH->ACR, FLASH_ACR_ICEN) != 0U)
 487:Drivers/STM32U0xx_HAL_Driver/Src/stm32u0xx_hal_flash_ex.c ****   {
 488:Drivers/STM32U0xx_HAL_Driver/Src/stm32u0xx_hal_flash_ex.c ****     /* Disable instruction cache */
 489:Drivers/STM32U0xx_HAL_Driver/Src/stm32u0xx_hal_flash_ex.c ****     __HAL_FLASH_INSTRUCTION_CACHE_DISABLE();
 490:Drivers/STM32U0xx_HAL_Driver/Src/stm32u0xx_hal_flash_ex.c ****     /* Reset instruction cache */
 491:Drivers/STM32U0xx_HAL_Driver/Src/stm32u0xx_hal_flash_ex.c ****     __HAL_FLASH_INSTRUCTION_CACHE_RESET();
 492:Drivers/STM32U0xx_HAL_Driver/Src/stm32u0xx_hal_flash_ex.c ****     /* Enable instruction cache */
 493:Drivers/STM32U0xx_HAL_Driver/Src/stm32u0xx_hal_flash_ex.c ****     __HAL_FLASH_INSTRUCTION_CACHE_ENABLE();
 494:Drivers/STM32U0xx_HAL_Driver/Src/stm32u0xx_hal_flash_ex.c ****   }
 495:Drivers/STM32U0xx_HAL_Driver/Src/stm32u0xx_hal_flash_ex.c **** }
 496:Drivers/STM32U0xx_HAL_Driver/Src/stm32u0xx_hal_flash_ex.c **** 
 497:Drivers/STM32U0xx_HAL_Driver/Src/stm32u0xx_hal_flash_ex.c **** 
 498:Drivers/STM32U0xx_HAL_Driver/Src/stm32u0xx_hal_flash_ex.c **** /**
 499:Drivers/STM32U0xx_HAL_Driver/Src/stm32u0xx_hal_flash_ex.c ****   * @brief  Configure the write protection of the desired pages.
 500:Drivers/STM32U0xx_HAL_Driver/Src/stm32u0xx_hal_flash_ex.c ****   * @note   When WRP is active in a zone, it cannot be erased or programmed.
 501:Drivers/STM32U0xx_HAL_Driver/Src/stm32u0xx_hal_flash_ex.c ****   *         Consequently, a software mass erase cannot be performed if one zone
 502:Drivers/STM32U0xx_HAL_Driver/Src/stm32u0xx_hal_flash_ex.c ****   *         is write-protected.
 503:Drivers/STM32U0xx_HAL_Driver/Src/stm32u0xx_hal_flash_ex.c ****   * @note   When the memory read protection level is selected (RDP level = 1),
 504:Drivers/STM32U0xx_HAL_Driver/Src/stm32u0xx_hal_flash_ex.c ****   *         it is not possible to program or erase Flash memory if the CPU debug
 505:Drivers/STM32U0xx_HAL_Driver/Src/stm32u0xx_hal_flash_ex.c ****   *         features are connected (JTAG or single wire) or boot code is being
 506:Drivers/STM32U0xx_HAL_Driver/Src/stm32u0xx_hal_flash_ex.c ****   *         executed from RAM or System flash, even if WRP is not activated.
 507:Drivers/STM32U0xx_HAL_Driver/Src/stm32u0xx_hal_flash_ex.c ****   * @param  WRPArea  Specifies the area to be configured.
 508:Drivers/STM32U0xx_HAL_Driver/Src/stm32u0xx_hal_flash_ex.c ****   *         This parameter can be one of the following values:
 509:Drivers/STM32U0xx_HAL_Driver/Src/stm32u0xx_hal_flash_ex.c ****   *           @arg @ref OB_WRPAREA_ZONE_A Flash Zone A
 510:Drivers/STM32U0xx_HAL_Driver/Src/stm32u0xx_hal_flash_ex.c ****   *           @arg @ref OB_WRPAREA_ZONE_B Flash Zone B
 511:Drivers/STM32U0xx_HAL_Driver/Src/stm32u0xx_hal_flash_ex.c ****   * @param  WRPStartOffset  Specifies the start page of the write protected area
 512:Drivers/STM32U0xx_HAL_Driver/Src/stm32u0xx_hal_flash_ex.c ****   *         This parameter can be page number between 0 and (max number of pages in the Flash Bank 
 513:Drivers/STM32U0xx_HAL_Driver/Src/stm32u0xx_hal_flash_ex.c ****   * @param  WRDPEndOffset  Specifies the end page of the write protected area
 514:Drivers/STM32U0xx_HAL_Driver/Src/stm32u0xx_hal_flash_ex.c ****   *         This parameter can be page number between WRPStartOffset and (max number of pages in th
 515:Drivers/STM32U0xx_HAL_Driver/Src/stm32u0xx_hal_flash_ex.c ****   * @retval None
 516:Drivers/STM32U0xx_HAL_Driver/Src/stm32u0xx_hal_flash_ex.c ****   */
 517:Drivers/STM32U0xx_HAL_Driver/Src/stm32u0xx_hal_flash_ex.c **** static void FLASH_OB_WRPConfig(uint32_t WRPArea, uint32_t WRPStartOffset, uint32_t WRDPEndOffset)
 531              		.loc 1 517 13 view .LVU178
 532              	.LBB53:
 518:Drivers/STM32U0xx_HAL_Driver/Src/stm32u0xx_hal_flash_ex.c **** {
 519:Drivers/STM32U0xx_HAL_Driver/Src/stm32u0xx_hal_flash_ex.c ****   /* Check the parameters */
 520:Drivers/STM32U0xx_HAL_Driver/Src/stm32u0xx_hal_flash_ex.c ****   assert_param(IS_OB_WRPAREA(WRPArea));
 533              		.loc 1 520 3 view .LVU179
 521:Drivers/STM32U0xx_HAL_Driver/Src/stm32u0xx_hal_flash_ex.c ****   assert_param(IS_FLASH_PAGE(WRPStartOffset));
 534              		.loc 1 521 3 view .LVU180
 522:Drivers/STM32U0xx_HAL_Driver/Src/stm32u0xx_hal_flash_ex.c ****   assert_param(IS_FLASH_PAGE(WRDPEndOffset));
 535              		.loc 1 522 3 view .LVU181
 523:Drivers/STM32U0xx_HAL_Driver/Src/stm32u0xx_hal_flash_ex.c **** 
 524:Drivers/STM32U0xx_HAL_Driver/Src/stm32u0xx_hal_flash_ex.c ****   /* Configure the write protected area */
 525:Drivers/STM32U0xx_HAL_Driver/Src/stm32u0xx_hal_flash_ex.c ****   if (WRPArea == OB_WRPAREA_ZONE_A)
 536              		.loc 1 525 3 view .LVU182
 526:Drivers/STM32U0xx_HAL_Driver/Src/stm32u0xx_hal_flash_ex.c ****   {
 527:Drivers/STM32U0xx_HAL_Driver/Src/stm32u0xx_hal_flash_ex.c ****     FLASH->WRP1AR = ((WRDPEndOffset << FLASH_WRP1AR_WRP1A_END_Pos) | WRPStartOffset);
 537              		.loc 1 527 37 is_stmt 0 view .LVU183
 538 001a C268     		ldr	r2, [r0, #12]
 539              		.loc 1 527 68 view .LVU184
 540 001c 8168     		ldr	r1, [r0, #8]
 541              		.loc 1 527 37 view .LVU185
 542 001e 1204     		lsls	r2, r2, #16
 543              		.loc 1 527 68 view .LVU186
 544 0020 0A43     		orrs	r2, r1
ARM GAS  C:\Users\upo\AppData\Local\Temp\ccdB8pc0.s 			page 22


 525:Drivers/STM32U0xx_HAL_Driver/Src/stm32u0xx_hal_flash_ex.c ****   {
 545              		.loc 1 525 6 view .LVU187
 546 0022 4168     		ldr	r1, [r0, #4]
 547 0024 0129     		cmp	r1, #1
 548 0026 00D1     		bne	.LCB448
 549 0028 7FE0     		b	.L58	@long jump
 550              	.LCB448:
 528:Drivers/STM32U0xx_HAL_Driver/Src/stm32u0xx_hal_flash_ex.c ****   }
 529:Drivers/STM32U0xx_HAL_Driver/Src/stm32u0xx_hal_flash_ex.c ****   else
 530:Drivers/STM32U0xx_HAL_Driver/Src/stm32u0xx_hal_flash_ex.c ****   {
 531:Drivers/STM32U0xx_HAL_Driver/Src/stm32u0xx_hal_flash_ex.c ****     FLASH->WRP1BR = ((WRDPEndOffset << FLASH_WRP1BR_WRP1B_END_Pos) | WRPStartOffset);
 551              		.loc 1 531 5 is_stmt 1 view .LVU188
 552              		.loc 1 531 19 is_stmt 0 view .LVU189
 553 002a 4349     		ldr	r1, .L63+4
 554 002c 0A63     		str	r2, [r1, #48]
 555              	.LVL38:
 556              	.L27:
 557              		.loc 1 531 19 view .LVU190
 558              	.LBE53:
 559              	.LBE52:
 298:Drivers/STM32U0xx_HAL_Driver/Src/stm32u0xx_hal_flash_ex.c ****   {
 560              		.loc 1 298 3 is_stmt 1 view .LVU191
 298:Drivers/STM32U0xx_HAL_Driver/Src/stm32u0xx_hal_flash_ex.c ****   {
 561              		.loc 1 298 28 is_stmt 0 view .LVU192
 562 002e 0622     		movs	r2, #6
 563 0030 1A40     		ands	r2, r3
 298:Drivers/STM32U0xx_HAL_Driver/Src/stm32u0xx_hal_flash_ex.c ****   {
 564              		.loc 1 298 6 view .LVU193
 565 0032 062A     		cmp	r2, #6
 566 0034 4AD0     		beq	.L59
 303:Drivers/STM32U0xx_HAL_Driver/Src/stm32u0xx_hal_flash_ex.c ****   {
 567              		.loc 1 303 8 is_stmt 1 view .LVU194
 303:Drivers/STM32U0xx_HAL_Driver/Src/stm32u0xx_hal_flash_ex.c ****   {
 568              		.loc 1 303 11 is_stmt 0 view .LVU195
 569 0036 9A07     		lsls	r2, r3, #30
 570 0038 2ED5     		bpl	.L31
 306:Drivers/STM32U0xx_HAL_Driver/Src/stm32u0xx_hal_flash_ex.c ****     FLASH_OB_OptrConfig(optr, optr, pOBInit->RDPLevel);
 571              		.loc 1 306 5 is_stmt 1 view .LVU196
 572              	.LBB55:
 573              	.LBI55:
 532:Drivers/STM32U0xx_HAL_Driver/Src/stm32u0xx_hal_flash_ex.c ****   }
 533:Drivers/STM32U0xx_HAL_Driver/Src/stm32u0xx_hal_flash_ex.c **** }
 534:Drivers/STM32U0xx_HAL_Driver/Src/stm32u0xx_hal_flash_ex.c **** 
 535:Drivers/STM32U0xx_HAL_Driver/Src/stm32u0xx_hal_flash_ex.c **** /**
 536:Drivers/STM32U0xx_HAL_Driver/Src/stm32u0xx_hal_flash_ex.c ****   * @brief  Return the FLASH Write Protection Option Bytes value.
 537:Drivers/STM32U0xx_HAL_Driver/Src/stm32u0xx_hal_flash_ex.c ****   * @param[in]  WRPArea Specifies the area to be returned.
 538:Drivers/STM32U0xx_HAL_Driver/Src/stm32u0xx_hal_flash_ex.c ****   *             This parameter can be one of the following values:
 539:Drivers/STM32U0xx_HAL_Driver/Src/stm32u0xx_hal_flash_ex.c ****   *               @arg @ref OB_WRPAREA_ZONE_A Flash Zone A
 540:Drivers/STM32U0xx_HAL_Driver/Src/stm32u0xx_hal_flash_ex.c ****   *               @arg @ref OB_WRPAREA_ZONE_B Flash Zone B
 541:Drivers/STM32U0xx_HAL_Driver/Src/stm32u0xx_hal_flash_ex.c ****   * @param[out]  WRPStartOffset  Specifies the address where to copied the start page
 542:Drivers/STM32U0xx_HAL_Driver/Src/stm32u0xx_hal_flash_ex.c ****   *                         of the write protected area
 543:Drivers/STM32U0xx_HAL_Driver/Src/stm32u0xx_hal_flash_ex.c ****   * @param[out]  WRDPEndOffset  Dpecifies the address where to copied the end page of
 544:Drivers/STM32U0xx_HAL_Driver/Src/stm32u0xx_hal_flash_ex.c ****   *                        the write protected area
 545:Drivers/STM32U0xx_HAL_Driver/Src/stm32u0xx_hal_flash_ex.c ****   * @retval None
 546:Drivers/STM32U0xx_HAL_Driver/Src/stm32u0xx_hal_flash_ex.c ****   */
 547:Drivers/STM32U0xx_HAL_Driver/Src/stm32u0xx_hal_flash_ex.c **** static void FLASH_OB_GetWRP(uint32_t WRPArea, uint32_t *WRPStartOffset, uint32_t *WRDPEndOffset)
 548:Drivers/STM32U0xx_HAL_Driver/Src/stm32u0xx_hal_flash_ex.c **** {
ARM GAS  C:\Users\upo\AppData\Local\Temp\ccdB8pc0.s 			page 23


 549:Drivers/STM32U0xx_HAL_Driver/Src/stm32u0xx_hal_flash_ex.c **** 
 550:Drivers/STM32U0xx_HAL_Driver/Src/stm32u0xx_hal_flash_ex.c ****   /* Get the configuration of the write protected area */
 551:Drivers/STM32U0xx_HAL_Driver/Src/stm32u0xx_hal_flash_ex.c ****   if (WRPArea == OB_WRPAREA_ZONE_A)
 552:Drivers/STM32U0xx_HAL_Driver/Src/stm32u0xx_hal_flash_ex.c ****   {
 553:Drivers/STM32U0xx_HAL_Driver/Src/stm32u0xx_hal_flash_ex.c ****     *WRPStartOffset = READ_BIT(FLASH->WRP1AR, FLASH_WRP1AR_WRP1A_STRT);
 554:Drivers/STM32U0xx_HAL_Driver/Src/stm32u0xx_hal_flash_ex.c ****     *WRDPEndOffset = (READ_BIT(FLASH->WRP1AR, FLASH_WRP1AR_WRP1A_END) >> FLASH_WRP1AR_WRP1A_END_Pos
 555:Drivers/STM32U0xx_HAL_Driver/Src/stm32u0xx_hal_flash_ex.c ****   }
 556:Drivers/STM32U0xx_HAL_Driver/Src/stm32u0xx_hal_flash_ex.c ****   else if (WRPArea == OB_WRPAREA_ZONE_B)
 557:Drivers/STM32U0xx_HAL_Driver/Src/stm32u0xx_hal_flash_ex.c ****   {
 558:Drivers/STM32U0xx_HAL_Driver/Src/stm32u0xx_hal_flash_ex.c ****     *WRPStartOffset = READ_BIT(FLASH->WRP1BR, FLASH_WRP1BR_WRP1B_STRT);
 559:Drivers/STM32U0xx_HAL_Driver/Src/stm32u0xx_hal_flash_ex.c ****     *WRDPEndOffset = (READ_BIT(FLASH->WRP1BR, FLASH_WRP1BR_WRP1B_END) >> FLASH_WRP1BR_WRP1B_END_Pos
 560:Drivers/STM32U0xx_HAL_Driver/Src/stm32u0xx_hal_flash_ex.c ****   }
 561:Drivers/STM32U0xx_HAL_Driver/Src/stm32u0xx_hal_flash_ex.c ****   else
 562:Drivers/STM32U0xx_HAL_Driver/Src/stm32u0xx_hal_flash_ex.c ****   {
 563:Drivers/STM32U0xx_HAL_Driver/Src/stm32u0xx_hal_flash_ex.c ****     /* Empty statement (to be compliant MISRA 15.7) */
 564:Drivers/STM32U0xx_HAL_Driver/Src/stm32u0xx_hal_flash_ex.c ****   }
 565:Drivers/STM32U0xx_HAL_Driver/Src/stm32u0xx_hal_flash_ex.c **** }
 566:Drivers/STM32U0xx_HAL_Driver/Src/stm32u0xx_hal_flash_ex.c **** 
 567:Drivers/STM32U0xx_HAL_Driver/Src/stm32u0xx_hal_flash_ex.c **** /**
 568:Drivers/STM32U0xx_HAL_Driver/Src/stm32u0xx_hal_flash_ex.c ****   * @brief  Set user & RDP configuration
 569:Drivers/STM32U0xx_HAL_Driver/Src/stm32u0xx_hal_flash_ex.c ****   * @note   !!! Warning : When enabling OB_RDP level 2 it is no more possible
 570:Drivers/STM32U0xx_HAL_Driver/Src/stm32u0xx_hal_flash_ex.c ****   *         to go back to level 1 or 0 !!!
 571:Drivers/STM32U0xx_HAL_Driver/Src/stm32u0xx_hal_flash_ex.c ****   * @param  UserType  The FLASH User Option Bytes to be modified.
 572:Drivers/STM32U0xx_HAL_Driver/Src/stm32u0xx_hal_flash_ex.c ****   *         This parameter can be a combination of @ref FLASH_OB_USER_Type
 573:Drivers/STM32U0xx_HAL_Driver/Src/stm32u0xx_hal_flash_ex.c ****   * @param  UserConfig  The FLASH User Option Bytes values.
 574:Drivers/STM32U0xx_HAL_Driver/Src/stm32u0xx_hal_flash_ex.c ****   *         This parameter can be a combination of:
 575:Drivers/STM32U0xx_HAL_Driver/Src/stm32u0xx_hal_flash_ex.c ****   *           @arg @ref FLASH_OB_USER_BOR_ENABLE
 576:Drivers/STM32U0xx_HAL_Driver/Src/stm32u0xx_hal_flash_ex.c ****   *           @arg @ref FLASH_OB_USER_BOR_LEVEL
 577:Drivers/STM32U0xx_HAL_Driver/Src/stm32u0xx_hal_flash_ex.c ****   *           @arg @ref FLASH_OB_USER_RESET_CONFIG
 578:Drivers/STM32U0xx_HAL_Driver/Src/stm32u0xx_hal_flash_ex.c ****   *           @arg @ref FLASH_OB_USER_NRST_STOP
 579:Drivers/STM32U0xx_HAL_Driver/Src/stm32u0xx_hal_flash_ex.c ****   *           @arg @ref FLASH_OB_USER_NRST_STANDBY
 580:Drivers/STM32U0xx_HAL_Driver/Src/stm32u0xx_hal_flash_ex.c ****   *           @arg @ref FLASH_OB_USER_NRST_SHUTDOWN
 581:Drivers/STM32U0xx_HAL_Driver/Src/stm32u0xx_hal_flash_ex.c ****   *           @arg @ref FLASH_OB_USER_IWDG_SW
 582:Drivers/STM32U0xx_HAL_Driver/Src/stm32u0xx_hal_flash_ex.c ****   *           @arg @ref FLASH_OB_USER_IWDG_STOP
 583:Drivers/STM32U0xx_HAL_Driver/Src/stm32u0xx_hal_flash_ex.c ****   *           @arg @ref FLASH_OB_USER_IWDG_STANDBY
 584:Drivers/STM32U0xx_HAL_Driver/Src/stm32u0xx_hal_flash_ex.c ****   *           @arg @ref FLASH_OB_USER_WWDG_SW
 585:Drivers/STM32U0xx_HAL_Driver/Src/stm32u0xx_hal_flash_ex.c ****   *           @arg @ref FLASH_OB_USER_SRAM_PARITY
 586:Drivers/STM32U0xx_HAL_Driver/Src/stm32u0xx_hal_flash_ex.c ****   *           @arg @ref FLASH_OB_USER_NBOOT_SEL
 587:Drivers/STM32U0xx_HAL_Driver/Src/stm32u0xx_hal_flash_ex.c ****   *           @arg @ref FLASH_OB_USER_NBOOT1
 588:Drivers/STM32U0xx_HAL_Driver/Src/stm32u0xx_hal_flash_ex.c ****   *           @arg @ref FLASH_OB_USER_NBOOT0
 589:Drivers/STM32U0xx_HAL_Driver/Src/stm32u0xx_hal_flash_ex.c ****   *           @arg @ref FLASH_OB_USER_INPUT_RESET_HOLDER
 590:Drivers/STM32U0xx_HAL_Driver/Src/stm32u0xx_hal_flash_ex.c ****   * @param  RDPLevel  specifies the read protection level.
 591:Drivers/STM32U0xx_HAL_Driver/Src/stm32u0xx_hal_flash_ex.c ****   *         This parameter can be one of the following values:
 592:Drivers/STM32U0xx_HAL_Driver/Src/stm32u0xx_hal_flash_ex.c ****   *           @arg @ref OB_RDP_LEVEL_0 No protection
 593:Drivers/STM32U0xx_HAL_Driver/Src/stm32u0xx_hal_flash_ex.c ****   *           @arg @ref OB_RDP_LEVEL_1 Memory Read protection
 594:Drivers/STM32U0xx_HAL_Driver/Src/stm32u0xx_hal_flash_ex.c ****   *           @arg @ref OB_RDP_LEVEL_2 Full chip protection
 595:Drivers/STM32U0xx_HAL_Driver/Src/stm32u0xx_hal_flash_ex.c ****   * @retval None
 596:Drivers/STM32U0xx_HAL_Driver/Src/stm32u0xx_hal_flash_ex.c ****   */
 597:Drivers/STM32U0xx_HAL_Driver/Src/stm32u0xx_hal_flash_ex.c **** static void FLASH_OB_OptrConfig(uint32_t UserType, uint32_t UserConfig, uint32_t RDPLevel)
 598:Drivers/STM32U0xx_HAL_Driver/Src/stm32u0xx_hal_flash_ex.c **** {
 599:Drivers/STM32U0xx_HAL_Driver/Src/stm32u0xx_hal_flash_ex.c ****   uint32_t optr;
 600:Drivers/STM32U0xx_HAL_Driver/Src/stm32u0xx_hal_flash_ex.c **** 
 601:Drivers/STM32U0xx_HAL_Driver/Src/stm32u0xx_hal_flash_ex.c ****   /* Check the parameters */
 602:Drivers/STM32U0xx_HAL_Driver/Src/stm32u0xx_hal_flash_ex.c ****   assert_param(IS_OB_USER_TYPE(UserType));
 603:Drivers/STM32U0xx_HAL_Driver/Src/stm32u0xx_hal_flash_ex.c ****   assert_param(IS_OB_USER_CONFIG(UserType, UserConfig));
 604:Drivers/STM32U0xx_HAL_Driver/Src/stm32u0xx_hal_flash_ex.c ****   assert_param(IS_OB_RDP_LEVEL(RDPLevel));
 605:Drivers/STM32U0xx_HAL_Driver/Src/stm32u0xx_hal_flash_ex.c **** 
ARM GAS  C:\Users\upo\AppData\Local\Temp\ccdB8pc0.s 			page 24


 606:Drivers/STM32U0xx_HAL_Driver/Src/stm32u0xx_hal_flash_ex.c ****   /* Configure the RDP level in the option bytes register */
 607:Drivers/STM32U0xx_HAL_Driver/Src/stm32u0xx_hal_flash_ex.c ****   optr = FLASH->OPTR;
 608:Drivers/STM32U0xx_HAL_Driver/Src/stm32u0xx_hal_flash_ex.c ****   optr &= ~(UserType | FLASH_OPTR_RDP);
 609:Drivers/STM32U0xx_HAL_Driver/Src/stm32u0xx_hal_flash_ex.c ****   FLASH->OPTR = (optr | UserConfig | RDPLevel);
 610:Drivers/STM32U0xx_HAL_Driver/Src/stm32u0xx_hal_flash_ex.c **** }
 611:Drivers/STM32U0xx_HAL_Driver/Src/stm32u0xx_hal_flash_ex.c **** 
 612:Drivers/STM32U0xx_HAL_Driver/Src/stm32u0xx_hal_flash_ex.c **** /**
 613:Drivers/STM32U0xx_HAL_Driver/Src/stm32u0xx_hal_flash_ex.c ****   * @brief  Return the FLASH Read Protection level.
 614:Drivers/STM32U0xx_HAL_Driver/Src/stm32u0xx_hal_flash_ex.c ****   * @retval FLASH ReadOut Protection Status:
 615:Drivers/STM32U0xx_HAL_Driver/Src/stm32u0xx_hal_flash_ex.c ****   *         This return value can be one of the following values:
 616:Drivers/STM32U0xx_HAL_Driver/Src/stm32u0xx_hal_flash_ex.c ****   *           @arg @ref OB_RDP_LEVEL_0 No protection
 617:Drivers/STM32U0xx_HAL_Driver/Src/stm32u0xx_hal_flash_ex.c ****   *           @arg @ref OB_RDP_LEVEL_1 Read protection of the memory
 618:Drivers/STM32U0xx_HAL_Driver/Src/stm32u0xx_hal_flash_ex.c ****   *           @arg @ref OB_RDP_LEVEL_2 Full chip protection
 619:Drivers/STM32U0xx_HAL_Driver/Src/stm32u0xx_hal_flash_ex.c ****   */
 620:Drivers/STM32U0xx_HAL_Driver/Src/stm32u0xx_hal_flash_ex.c **** static uint32_t FLASH_OB_GetRDP(void)
 621:Drivers/STM32U0xx_HAL_Driver/Src/stm32u0xx_hal_flash_ex.c **** {
 622:Drivers/STM32U0xx_HAL_Driver/Src/stm32u0xx_hal_flash_ex.c ****   uint32_t rdplvl = READ_BIT(FLASH->OPTR, FLASH_OPTR_RDP);
 623:Drivers/STM32U0xx_HAL_Driver/Src/stm32u0xx_hal_flash_ex.c **** 
 624:Drivers/STM32U0xx_HAL_Driver/Src/stm32u0xx_hal_flash_ex.c ****   if ((rdplvl != OB_RDP_LEVEL_0) && (rdplvl != OB_RDP_LEVEL_2))
 625:Drivers/STM32U0xx_HAL_Driver/Src/stm32u0xx_hal_flash_ex.c ****   {
 626:Drivers/STM32U0xx_HAL_Driver/Src/stm32u0xx_hal_flash_ex.c ****     return (OB_RDP_LEVEL_1);
 627:Drivers/STM32U0xx_HAL_Driver/Src/stm32u0xx_hal_flash_ex.c ****   }
 628:Drivers/STM32U0xx_HAL_Driver/Src/stm32u0xx_hal_flash_ex.c ****   else
 629:Drivers/STM32U0xx_HAL_Driver/Src/stm32u0xx_hal_flash_ex.c ****   {
 630:Drivers/STM32U0xx_HAL_Driver/Src/stm32u0xx_hal_flash_ex.c ****     return rdplvl;
 631:Drivers/STM32U0xx_HAL_Driver/Src/stm32u0xx_hal_flash_ex.c ****   }
 632:Drivers/STM32U0xx_HAL_Driver/Src/stm32u0xx_hal_flash_ex.c **** }
 633:Drivers/STM32U0xx_HAL_Driver/Src/stm32u0xx_hal_flash_ex.c **** 
 634:Drivers/STM32U0xx_HAL_Driver/Src/stm32u0xx_hal_flash_ex.c **** /**
 635:Drivers/STM32U0xx_HAL_Driver/Src/stm32u0xx_hal_flash_ex.c ****   * @brief  Return the FLASH User Option Byte value.
 636:Drivers/STM32U0xx_HAL_Driver/Src/stm32u0xx_hal_flash_ex.c ****   * @retval The FLASH User Option Bytes values. It will be a combination of all the following value
 637:Drivers/STM32U0xx_HAL_Driver/Src/stm32u0xx_hal_flash_ex.c ****   *           @arg @ref FLASH_OB_USER_BOR_ENABLE
 638:Drivers/STM32U0xx_HAL_Driver/Src/stm32u0xx_hal_flash_ex.c ****   *           @arg @ref FLASH_OB_USER_BOR_LEVEL
 639:Drivers/STM32U0xx_HAL_Driver/Src/stm32u0xx_hal_flash_ex.c ****   *           @arg @ref FLASH_OB_USER_RESET_CONFIG
 640:Drivers/STM32U0xx_HAL_Driver/Src/stm32u0xx_hal_flash_ex.c ****   *           @arg @ref FLASH_OB_USER_NRST_STOP
 641:Drivers/STM32U0xx_HAL_Driver/Src/stm32u0xx_hal_flash_ex.c ****   *           @arg @ref FLASH_OB_USER_NRST_STANDBY
 642:Drivers/STM32U0xx_HAL_Driver/Src/stm32u0xx_hal_flash_ex.c ****   *           @arg @ref FLASH_OB_USER_NRST_SHUTDOWN
 643:Drivers/STM32U0xx_HAL_Driver/Src/stm32u0xx_hal_flash_ex.c ****   *           @arg @ref FLASH_OB_USER_IWDG_SW
 644:Drivers/STM32U0xx_HAL_Driver/Src/stm32u0xx_hal_flash_ex.c ****   *           @arg @ref FLASH_OB_USER_IWDG_STOP
 645:Drivers/STM32U0xx_HAL_Driver/Src/stm32u0xx_hal_flash_ex.c ****   *           @arg @ref FLASH_OB_USER_IWDG_STANDBY
 646:Drivers/STM32U0xx_HAL_Driver/Src/stm32u0xx_hal_flash_ex.c ****   *           @arg @ref FLASH_OB_USER_WWDG_SW
 647:Drivers/STM32U0xx_HAL_Driver/Src/stm32u0xx_hal_flash_ex.c ****   *           @arg @ref FLASH_OB_USER_SRAM_PARITY
 648:Drivers/STM32U0xx_HAL_Driver/Src/stm32u0xx_hal_flash_ex.c ****   *           @arg @ref FLASH_OB_USER_NBOOT_SEL
 649:Drivers/STM32U0xx_HAL_Driver/Src/stm32u0xx_hal_flash_ex.c ****   *           @arg @ref FLASH_OB_USER_NBOOT1
 650:Drivers/STM32U0xx_HAL_Driver/Src/stm32u0xx_hal_flash_ex.c ****   *           @arg @ref FLASH_OB_USER_NBOOT0
 651:Drivers/STM32U0xx_HAL_Driver/Src/stm32u0xx_hal_flash_ex.c ****   *           @arg @ref FLASH_OB_USER_INPUT_RESET_HOLDER
 652:Drivers/STM32U0xx_HAL_Driver/Src/stm32u0xx_hal_flash_ex.c ****   */
 653:Drivers/STM32U0xx_HAL_Driver/Src/stm32u0xx_hal_flash_ex.c **** static uint32_t FLASH_OB_GetUser(void)
 574              		.loc 1 653 17 view .LVU197
 575              	.LBB56:
 654:Drivers/STM32U0xx_HAL_Driver/Src/stm32u0xx_hal_flash_ex.c **** {
 655:Drivers/STM32U0xx_HAL_Driver/Src/stm32u0xx_hal_flash_ex.c ****   uint32_t user = ((FLASH->OPTR & ~FLASH_OPTR_RDP) & OB_USER_ALL);
 576              		.loc 1 655 3 view .LVU198
 577              	.LBE56:
 578              	.LBE55:
 579              	.LBB58:
 580              	.LBB59:
ARM GAS  C:\Users\upo\AppData\Local\Temp\ccdB8pc0.s 			page 25


 608:Drivers/STM32U0xx_HAL_Driver/Src/stm32u0xx_hal_flash_ex.c ****   FLASH->OPTR = (optr | UserConfig | RDPLevel);
 581              		.loc 1 608 22 is_stmt 0 view .LVU199
 582 003a FF26     		movs	r6, #255
 583              	.LBE59:
 584              	.LBE58:
 585              	.LBB61:
 586              	.LBB57:
 587              		.loc 1 655 26 view .LVU200
 588 003c 3E4D     		ldr	r5, .L63+4
 589              		.loc 1 655 12 view .LVU201
 590 003e 3F49     		ldr	r1, .L63+8
 591              		.loc 1 655 26 view .LVU202
 592 0040 2A6A     		ldr	r2, [r5, #32]
 593              		.loc 1 655 12 view .LVU203
 594 0042 0A40     		ands	r2, r1
 595              	.LVL39:
 656:Drivers/STM32U0xx_HAL_Driver/Src/stm32u0xx_hal_flash_ex.c ****   return user;
 596              		.loc 1 656 3 is_stmt 1 view .LVU204
 597              		.loc 1 656 3 is_stmt 0 view .LVU205
 598              	.LBE57:
 599              	.LBE61:
 307:Drivers/STM32U0xx_HAL_Driver/Src/stm32u0xx_hal_flash_ex.c ****   }
 600              		.loc 1 307 5 is_stmt 1 view .LVU206
 601              	.LBB62:
 602              	.LBI58:
 597:Drivers/STM32U0xx_HAL_Driver/Src/stm32u0xx_hal_flash_ex.c **** {
 603              		.loc 1 597 13 view .LVU207
 604              	.LBB60:
 599:Drivers/STM32U0xx_HAL_Driver/Src/stm32u0xx_hal_flash_ex.c **** 
 605              		.loc 1 599 3 view .LVU208
 602:Drivers/STM32U0xx_HAL_Driver/Src/stm32u0xx_hal_flash_ex.c ****   assert_param(IS_OB_USER_CONFIG(UserType, UserConfig));
 606              		.loc 1 602 3 view .LVU209
 603:Drivers/STM32U0xx_HAL_Driver/Src/stm32u0xx_hal_flash_ex.c ****   assert_param(IS_OB_RDP_LEVEL(RDPLevel));
 607              		.loc 1 603 3 view .LVU210
 604:Drivers/STM32U0xx_HAL_Driver/Src/stm32u0xx_hal_flash_ex.c **** 
 608              		.loc 1 604 3 view .LVU211
 607:Drivers/STM32U0xx_HAL_Driver/Src/stm32u0xx_hal_flash_ex.c ****   optr &= ~(UserType | FLASH_OPTR_RDP);
 609              		.loc 1 607 3 view .LVU212
 607:Drivers/STM32U0xx_HAL_Driver/Src/stm32u0xx_hal_flash_ex.c ****   optr &= ~(UserType | FLASH_OPTR_RDP);
 610              		.loc 1 607 8 is_stmt 0 view .LVU213
 611 0044 296A     		ldr	r1, [r5, #32]
 612              	.LVL40:
 608:Drivers/STM32U0xx_HAL_Driver/Src/stm32u0xx_hal_flash_ex.c ****   FLASH->OPTR = (optr | UserConfig | RDPLevel);
 613              		.loc 1 608 3 is_stmt 1 view .LVU214
 609:Drivers/STM32U0xx_HAL_Driver/Src/stm32u0xx_hal_flash_ex.c **** }
 614              		.loc 1 609 3 view .LVU215
 608:Drivers/STM32U0xx_HAL_Driver/Src/stm32u0xx_hal_flash_ex.c ****   FLASH->OPTR = (optr | UserConfig | RDPLevel);
 615              		.loc 1 608 22 is_stmt 0 view .LVU216
 616 0046 1643     		orrs	r6, r2
 608:Drivers/STM32U0xx_HAL_Driver/Src/stm32u0xx_hal_flash_ex.c ****   FLASH->OPTR = (optr | UserConfig | RDPLevel);
 617              		.loc 1 608 8 view .LVU217
 618 0048 B143     		bics	r1, r6
 619              	.LVL41:
 609:Drivers/STM32U0xx_HAL_Driver/Src/stm32u0xx_hal_flash_ex.c **** }
 620              		.loc 1 609 36 view .LVU218
 621 004a 0669     		ldr	r6, [r0, #16]
 622 004c 3243     		orrs	r2, r6
ARM GAS  C:\Users\upo\AppData\Local\Temp\ccdB8pc0.s 			page 26


 623              	.LVL42:
 609:Drivers/STM32U0xx_HAL_Driver/Src/stm32u0xx_hal_flash_ex.c **** }
 624              		.loc 1 609 36 view .LVU219
 625 004e 0A43     		orrs	r2, r1
 609:Drivers/STM32U0xx_HAL_Driver/Src/stm32u0xx_hal_flash_ex.c **** }
 626              		.loc 1 609 15 view .LVU220
 627 0050 2A62     		str	r2, [r5, #32]
 628              	.LVL43:
 629              	.L30:
 609:Drivers/STM32U0xx_HAL_Driver/Src/stm32u0xx_hal_flash_ex.c **** }
 630              		.loc 1 609 15 view .LVU221
 631              	.LBE60:
 632              	.LBE62:
 318:Drivers/STM32U0xx_HAL_Driver/Src/stm32u0xx_hal_flash_ex.c **** 
 633              		.loc 1 318 3 is_stmt 1 view .LVU222
 321:Drivers/STM32U0xx_HAL_Driver/Src/stm32u0xx_hal_flash_ex.c ****   {
 634              		.loc 1 321 3 view .LVU223
 321:Drivers/STM32U0xx_HAL_Driver/Src/stm32u0xx_hal_flash_ex.c ****   {
 635              		.loc 1 321 6 is_stmt 0 view .LVU224
 636 0052 1A07     		lsls	r2, r3, #28
 637 0054 0CD5     		bpl	.L35
 324:Drivers/STM32U0xx_HAL_Driver/Src/stm32u0xx_hal_flash_ex.c ****   }
 638              		.loc 1 324 5 is_stmt 1 view .LVU225
 639              	.LVL44:
 640              	.LBB63:
 641              	.LBI63:
 657:Drivers/STM32U0xx_HAL_Driver/Src/stm32u0xx_hal_flash_ex.c **** }
 658:Drivers/STM32U0xx_HAL_Driver/Src/stm32u0xx_hal_flash_ex.c **** 
 659:Drivers/STM32U0xx_HAL_Driver/Src/stm32u0xx_hal_flash_ex.c **** /**
 660:Drivers/STM32U0xx_HAL_Driver/Src/stm32u0xx_hal_flash_ex.c ****   * @brief  Configure the HDP memory register.
 661:Drivers/STM32U0xx_HAL_Driver/Src/stm32u0xx_hal_flash_ex.c ****   * @param   BootEntry  specifies if boot scheme is forced to Flash (System or user) or not
 662:Drivers/STM32U0xx_HAL_Driver/Src/stm32u0xx_hal_flash_ex.c ****   *          This parameter can be one of the following values:
 663:Drivers/STM32U0xx_HAL_Driver/Src/stm32u0xx_hal_flash_ex.c ****   *           @arg @ref OB_BOOT_LOCK_DISABLE No boot entry
 664:Drivers/STM32U0xx_HAL_Driver/Src/stm32u0xx_hal_flash_ex.c ****   *           @arg @ref OB_BOOT_LOCK_ENABLE Flash selected as unique entry boot
 665:Drivers/STM32U0xx_HAL_Driver/Src/stm32u0xx_hal_flash_ex.c ****   * @param   HDPEndPage specifies the end page of the hide protection area
 666:Drivers/STM32U0xx_HAL_Driver/Src/stm32u0xx_hal_flash_ex.c ****   * @param   HDPEn     Enable and disable the HDP area
 667:Drivers/STM32U0xx_HAL_Driver/Src/stm32u0xx_hal_flash_ex.c ****   * @retval None
 668:Drivers/STM32U0xx_HAL_Driver/Src/stm32u0xx_hal_flash_ex.c ****   */
 669:Drivers/STM32U0xx_HAL_Driver/Src/stm32u0xx_hal_flash_ex.c **** static void FLASH_OB_HDPConfig(uint32_t BootEntry, uint32_t HDPEndPage, uint32_t HDPEn)
 642              		.loc 1 669 13 view .LVU226
 643              	.LBB64:
 670:Drivers/STM32U0xx_HAL_Driver/Src/stm32u0xx_hal_flash_ex.c **** {
 671:Drivers/STM32U0xx_HAL_Driver/Src/stm32u0xx_hal_flash_ex.c ****   uint32_t secmem;
 644              		.loc 1 671 3 view .LVU227
 672:Drivers/STM32U0xx_HAL_Driver/Src/stm32u0xx_hal_flash_ex.c **** 
 673:Drivers/STM32U0xx_HAL_Driver/Src/stm32u0xx_hal_flash_ex.c ****   /* Check the parameters */
 674:Drivers/STM32U0xx_HAL_Driver/Src/stm32u0xx_hal_flash_ex.c ****   assert_param(IS_OB_BOOT_LOCK(BootEntry));
 645              		.loc 1 674 3 view .LVU228
 675:Drivers/STM32U0xx_HAL_Driver/Src/stm32u0xx_hal_flash_ex.c ****   assert_param(IS_FLASH_PAGE(HDPEndPage));
 646              		.loc 1 675 3 view .LVU229
 676:Drivers/STM32U0xx_HAL_Driver/Src/stm32u0xx_hal_flash_ex.c ****   /* Set securable memory area configuration */
 677:Drivers/STM32U0xx_HAL_Driver/Src/stm32u0xx_hal_flash_ex.c ****   secmem = (FLASH->SECR & ~(FLASH_SECR_BOOT_LOCK | FLASH_SECR_HDP1_PEND | FLASH_SECR_HDP1EN));
 647              		.loc 1 677 3 view .LVU230
 648              		.loc 1 677 18 is_stmt 0 view .LVU231
 649 0056 8025     		movs	r5, #128
 678:Drivers/STM32U0xx_HAL_Driver/Src/stm32u0xx_hal_flash_ex.c ****   FLASH->SECR = (secmem | BootEntry | HDPEndPage | (HDPEn << FLASH_SECR_HDP1EN_Pos));
 650              		.loc 1 678 37 view .LVU232
ARM GAS  C:\Users\upo\AppData\Local\Temp\ccdB8pc0.s 			page 27


 651 0058 476B     		ldr	r7, [r0, #52]
 677:Drivers/STM32U0xx_HAL_Driver/Src/stm32u0xx_hal_flash_ex.c ****   FLASH->SECR = (secmem | BootEntry | HDPEndPage | (HDPEn << FLASH_SECR_HDP1EN_Pos));
 652              		.loc 1 677 18 view .LVU233
 653 005a 374E     		ldr	r6, .L63+4
 654              		.loc 1 678 37 view .LVU234
 655 005c 026B     		ldr	r2, [r0, #48]
 677:Drivers/STM32U0xx_HAL_Driver/Src/stm32u0xx_hal_flash_ex.c ****   FLASH->SECR = (secmem | BootEntry | HDPEndPage | (HDPEn << FLASH_SECR_HDP1EN_Pos));
 656              		.loc 1 677 18 view .LVU235
 657 005e 7159     		ldr	r1, [r6, r5]
 658              	.LVL45:
 659              		.loc 1 678 3 is_stmt 1 view .LVU236
 660              		.loc 1 678 37 is_stmt 0 view .LVU237
 661 0060 3A43     		orrs	r2, r7
 677:Drivers/STM32U0xx_HAL_Driver/Src/stm32u0xx_hal_flash_ex.c ****   FLASH->SECR = (secmem | BootEntry | HDPEndPage | (HDPEn << FLASH_SECR_HDP1EN_Pos));
 662              		.loc 1 677 10 view .LVU238
 663 0062 374F     		ldr	r7, .L63+12
 664 0064 3940     		ands	r1, r7
 665              	.LVL46:
 666              		.loc 1 678 37 view .LVU239
 667 0066 0A43     		orrs	r2, r1
 668              		.loc 1 678 59 view .LVU240
 669 0068 816B     		ldr	r1, [r0, #56]
 670              	.LVL47:
 671              		.loc 1 678 59 view .LVU241
 672 006a 0906     		lsls	r1, r1, #24
 673              		.loc 1 678 50 view .LVU242
 674 006c 0A43     		orrs	r2, r1
 675              		.loc 1 678 15 view .LVU243
 676 006e 7251     		str	r2, [r6, r5]
 677              	.LVL48:
 678              	.L35:
 679              		.loc 1 678 15 view .LVU244
 680              	.LBE64:
 681              	.LBE63:
 328:Drivers/STM32U0xx_HAL_Driver/Src/stm32u0xx_hal_flash_ex.c ****   {
 682              		.loc 1 328 3 is_stmt 1 view .LVU245
 328:Drivers/STM32U0xx_HAL_Driver/Src/stm32u0xx_hal_flash_ex.c ****   {
 683              		.loc 1 328 6 is_stmt 0 view .LVU246
 684 0070 DB06     		lsls	r3, r3, #27
 685 0072 08D5     		bpl	.L36
 331:Drivers/STM32U0xx_HAL_Driver/Src/stm32u0xx_hal_flash_ex.c ****   }
 686              		.loc 1 331 5 is_stmt 1 view .LVU247
 687 0074 C369     		ldr	r3, [r0, #28]
 688 0076 066A     		ldr	r6, [r0, #32]
 689 0078 456A     		ldr	r5, [r0, #36]
 690 007a 816A     		ldr	r1, [r0, #40]
 691 007c C26A     		ldr	r2, [r0, #44]
 692              	.LVL49:
 693              	.LBB65:
 694              	.LBI65:
 679:Drivers/STM32U0xx_HAL_Driver/Src/stm32u0xx_hal_flash_ex.c **** }
 680:Drivers/STM32U0xx_HAL_Driver/Src/stm32u0xx_hal_flash_ex.c **** 
 681:Drivers/STM32U0xx_HAL_Driver/Src/stm32u0xx_hal_flash_ex.c **** /**
 682:Drivers/STM32U0xx_HAL_Driver/Src/stm32u0xx_hal_flash_ex.c ****   * @brief   Return the HDP memory register configuration.
 683:Drivers/STM32U0xx_HAL_Driver/Src/stm32u0xx_hal_flash_ex.c ****   * @param   BootEntry  specifies if boot scheme configuration.
 684:Drivers/STM32U0xx_HAL_Driver/Src/stm32u0xx_hal_flash_ex.c ****   * @param   HDPEndPage specifies the end page of the hide protection area
 685:Drivers/STM32U0xx_HAL_Driver/Src/stm32u0xx_hal_flash_ex.c ****   * @param   HDPEn      specifies the status of the hide protection area (Enabled(other) or disable
ARM GAS  C:\Users\upo\AppData\Local\Temp\ccdB8pc0.s 			page 28


 686:Drivers/STM32U0xx_HAL_Driver/Src/stm32u0xx_hal_flash_ex.c ****   * @retval None
 687:Drivers/STM32U0xx_HAL_Driver/Src/stm32u0xx_hal_flash_ex.c ****   */
 688:Drivers/STM32U0xx_HAL_Driver/Src/stm32u0xx_hal_flash_ex.c **** static void FLASH_OB_GetHDPConfig(uint32_t *BootEntry, uint32_t *HDPEndPage, uint32_t *HDPEn)
 689:Drivers/STM32U0xx_HAL_Driver/Src/stm32u0xx_hal_flash_ex.c **** {
 690:Drivers/STM32U0xx_HAL_Driver/Src/stm32u0xx_hal_flash_ex.c ****   uint32_t secmem = FLASH->SECR;
 691:Drivers/STM32U0xx_HAL_Driver/Src/stm32u0xx_hal_flash_ex.c **** 
 692:Drivers/STM32U0xx_HAL_Driver/Src/stm32u0xx_hal_flash_ex.c ****   *BootEntry = (secmem & FLASH_SECR_BOOT_LOCK);
 693:Drivers/STM32U0xx_HAL_Driver/Src/stm32u0xx_hal_flash_ex.c ****   *HDPEndPage = (secmem & FLASH_SECR_HDP1_PEND);
 694:Drivers/STM32U0xx_HAL_Driver/Src/stm32u0xx_hal_flash_ex.c ****   *HDPEn = (secmem & FLASH_SECR_HDP1EN) >> FLASH_SECR_HDP1EN_Pos;
 695:Drivers/STM32U0xx_HAL_Driver/Src/stm32u0xx_hal_flash_ex.c **** }
 696:Drivers/STM32U0xx_HAL_Driver/Src/stm32u0xx_hal_flash_ex.c **** 
 697:Drivers/STM32U0xx_HAL_Driver/Src/stm32u0xx_hal_flash_ex.c **** /**
 698:Drivers/STM32U0xx_HAL_Driver/Src/stm32u0xx_hal_flash_ex.c ****   * @brief  Set the read protection key.
 699:Drivers/STM32U0xx_HAL_Driver/Src/stm32u0xx_hal_flash_ex.c ****   * @param  RDPKeyType specifies the read protection key type.
 700:Drivers/STM32U0xx_HAL_Driver/Src/stm32u0xx_hal_flash_ex.c ****   *         This parameter can be one of the following values:
 701:Drivers/STM32U0xx_HAL_Driver/Src/stm32u0xx_hal_flash_ex.c ****   *            @arg OB_RDP_KEY_OEM1: OEM1 key
 702:Drivers/STM32U0xx_HAL_Driver/Src/stm32u0xx_hal_flash_ex.c ****   *            @arg OB_RDP_KEY_OEM2: OEM2 key
 703:Drivers/STM32U0xx_HAL_Driver/Src/stm32u0xx_hal_flash_ex.c ****   * @param  RDPKey0 specifies the RDP key 0.
 704:Drivers/STM32U0xx_HAL_Driver/Src/stm32u0xx_hal_flash_ex.c ****   * @param  RDPKey1 specifies the RDP key 1.
 705:Drivers/STM32U0xx_HAL_Driver/Src/stm32u0xx_hal_flash_ex.c ****   * @param  RDPKey2 specifies the RDP key 2.
 706:Drivers/STM32U0xx_HAL_Driver/Src/stm32u0xx_hal_flash_ex.c ****   * @param  RDPKey3 specifies the RDP key 3.
 707:Drivers/STM32U0xx_HAL_Driver/Src/stm32u0xx_hal_flash_ex.c ****   * @retval None
 708:Drivers/STM32U0xx_HAL_Driver/Src/stm32u0xx_hal_flash_ex.c ****   */
 709:Drivers/STM32U0xx_HAL_Driver/Src/stm32u0xx_hal_flash_ex.c **** static void FLASH_OB_RDPKeyConfig(uint32_t RDPKeyType, uint32_t RDPKey0, uint32_t RDPKey1,
 695              		.loc 1 709 13 view .LVU248
 696              	.LBB66:
 710:Drivers/STM32U0xx_HAL_Driver/Src/stm32u0xx_hal_flash_ex.c ****                                   uint32_t RDPKey2, uint32_t RDPKey3)
 711:Drivers/STM32U0xx_HAL_Driver/Src/stm32u0xx_hal_flash_ex.c **** {
 712:Drivers/STM32U0xx_HAL_Driver/Src/stm32u0xx_hal_flash_ex.c ****   /* Check the parameters */
 713:Drivers/STM32U0xx_HAL_Driver/Src/stm32u0xx_hal_flash_ex.c ****   assert_param(IS_OB_RDP_KEY_TYPE(RDPKeyType));
 697              		.loc 1 713 3 view .LVU249
 714:Drivers/STM32U0xx_HAL_Driver/Src/stm32u0xx_hal_flash_ex.c **** 
 715:Drivers/STM32U0xx_HAL_Driver/Src/stm32u0xx_hal_flash_ex.c ****   /* Configure the RDP OEM1/2 key */
 716:Drivers/STM32U0xx_HAL_Driver/Src/stm32u0xx_hal_flash_ex.c ****   if (RDPKeyType == OB_RDP_KEY_OEM1)
 698              		.loc 1 716 3 view .LVU250
 699              		.loc 1 716 6 is_stmt 0 view .LVU251
 700 007e 012B     		cmp	r3, #1
 701 0080 49D0     		beq	.L60
 717:Drivers/STM32U0xx_HAL_Driver/Src/stm32u0xx_hal_flash_ex.c ****   {
 718:Drivers/STM32U0xx_HAL_Driver/Src/stm32u0xx_hal_flash_ex.c ****     WRITE_REG(FLASH->OEM1KEYW0R, RDPKey0);
 719:Drivers/STM32U0xx_HAL_Driver/Src/stm32u0xx_hal_flash_ex.c ****     WRITE_REG(FLASH->OEM1KEYW1R, RDPKey1);
 720:Drivers/STM32U0xx_HAL_Driver/Src/stm32u0xx_hal_flash_ex.c ****     WRITE_REG(FLASH->OEM1KEYW2R, RDPKey2);
 721:Drivers/STM32U0xx_HAL_Driver/Src/stm32u0xx_hal_flash_ex.c ****     WRITE_REG(FLASH->OEM1KEYW3R, RDPKey3);
 722:Drivers/STM32U0xx_HAL_Driver/Src/stm32u0xx_hal_flash_ex.c ****   }
 723:Drivers/STM32U0xx_HAL_Driver/Src/stm32u0xx_hal_flash_ex.c ****   else if (RDPKeyType == OB_RDP_KEY_OEM2)
 702              		.loc 1 723 8 is_stmt 1 view .LVU252
 703              		.loc 1 723 11 is_stmt 0 view .LVU253
 704 0082 022B     		cmp	r3, #2
 705 0084 3DD0     		beq	.L61
 706              	.LVL50:
 707              	.L36:
 708              		.loc 1 723 11 view .LVU254
 709              	.LBE66:
 710              	.LBE65:
 335:Drivers/STM32U0xx_HAL_Driver/Src/stm32u0xx_hal_flash_ex.c **** 
 711              		.loc 1 335 3 is_stmt 1 view .LVU255
 335:Drivers/STM32U0xx_HAL_Driver/Src/stm32u0xx_hal_flash_ex.c **** 
ARM GAS  C:\Users\upo\AppData\Local\Temp\ccdB8pc0.s 			page 29


 712              		.loc 1 335 12 is_stmt 0 view .LVU256
 713 0086 FA20     		movs	r0, #250
 714 0088 8000     		lsls	r0, r0, #2
 715 008a FFF7FEFF 		bl	FLASH_WaitForLastOperation
 716              	.LVL51:
 337:Drivers/STM32U0xx_HAL_Driver/Src/stm32u0xx_hal_flash_ex.c ****   {
 717              		.loc 1 337 3 is_stmt 1 view .LVU257
 337:Drivers/STM32U0xx_HAL_Driver/Src/stm32u0xx_hal_flash_ex.c ****   {
 718              		.loc 1 337 6 is_stmt 0 view .LVU258
 719 008e 0028     		cmp	r0, #0
 720 0090 28D0     		beq	.L62
 721              	.LVL52:
 722              	.L38:
 350:Drivers/STM32U0xx_HAL_Driver/Src/stm32u0xx_hal_flash_ex.c **** 
 723              		.loc 1 350 3 is_stmt 1 view .LVU259
 350:Drivers/STM32U0xx_HAL_Driver/Src/stm32u0xx_hal_flash_ex.c **** 
 724              		.loc 1 350 3 view .LVU260
 725 0092 0023     		movs	r3, #0
 726 0094 2370     		strb	r3, [r4]
 350:Drivers/STM32U0xx_HAL_Driver/Src/stm32u0xx_hal_flash_ex.c **** 
 727              		.loc 1 350 3 view .LVU261
 353:Drivers/STM32U0xx_HAL_Driver/Src/stm32u0xx_hal_flash_ex.c **** }
 728              		.loc 1 353 3 view .LVU262
 729              	.LVL53:
 730              	.L26:
 354:Drivers/STM32U0xx_HAL_Driver/Src/stm32u0xx_hal_flash_ex.c **** 
 731              		.loc 1 354 1 is_stmt 0 view .LVU263
 732              		@ sp needed
 733 0096 F8BD     		pop	{r3, r4, r5, r6, r7, pc}
 734              	.LVL54:
 735              	.L31:
 309:Drivers/STM32U0xx_HAL_Driver/Src/stm32u0xx_hal_flash_ex.c ****   {
 736              		.loc 1 309 8 is_stmt 1 view .LVU264
 309:Drivers/STM32U0xx_HAL_Driver/Src/stm32u0xx_hal_flash_ex.c ****   {
 737              		.loc 1 309 11 is_stmt 0 view .LVU265
 738 0098 5A07     		lsls	r2, r3, #29
 739 009a DAD5     		bpl	.L30
 312:Drivers/STM32U0xx_HAL_Driver/Src/stm32u0xx_hal_flash_ex.c ****     FLASH_OB_OptrConfig(pOBInit->USERType, pOBInit->USERConfig, optr);
 740              		.loc 1 312 5 is_stmt 1 view .LVU266
 741              	.LBB68:
 742              	.LBI68:
 620:Drivers/STM32U0xx_HAL_Driver/Src/stm32u0xx_hal_flash_ex.c **** {
 743              		.loc 1 620 17 view .LVU267
 744              	.LBB69:
 622:Drivers/STM32U0xx_HAL_Driver/Src/stm32u0xx_hal_flash_ex.c **** 
 745              		.loc 1 622 3 view .LVU268
 622:Drivers/STM32U0xx_HAL_Driver/Src/stm32u0xx_hal_flash_ex.c **** 
 746              		.loc 1 622 21 is_stmt 0 view .LVU269
 747 009c 264A     		ldr	r2, .L63+4
 748 009e 116A     		ldr	r1, [r2, #32]
 622:Drivers/STM32U0xx_HAL_Driver/Src/stm32u0xx_hal_flash_ex.c **** 
 749              		.loc 1 622 12 view .LVU270
 750 00a0 FF22     		movs	r2, #255
 751 00a2 0A40     		ands	r2, r1
 752              	.LVL55:
 624:Drivers/STM32U0xx_HAL_Driver/Src/stm32u0xx_hal_flash_ex.c ****   {
 753              		.loc 1 624 3 is_stmt 1 view .LVU271
ARM GAS  C:\Users\upo\AppData\Local\Temp\ccdB8pc0.s 			page 30


 624:Drivers/STM32U0xx_HAL_Driver/Src/stm32u0xx_hal_flash_ex.c ****   {
 754              		.loc 1 624 6 is_stmt 0 view .LVU272
 755 00a4 AA2A     		cmp	r2, #170
 756 00a6 06D0     		beq	.L32
 624:Drivers/STM32U0xx_HAL_Driver/Src/stm32u0xx_hal_flash_ex.c ****   {
 757              		.loc 1 624 34 view .LVU273
 758 00a8 CC3A     		subs	r2, r2, #204
 759              	.LVL56:
 624:Drivers/STM32U0xx_HAL_Driver/Src/stm32u0xx_hal_flash_ex.c ****   {
 760              		.loc 1 624 34 view .LVU274
 761 00aa 511E     		subs	r1, r2, #1
 762 00ac 8A41     		sbcs	r2, r2, r1
 763              	.LVL57:
 624:Drivers/STM32U0xx_HAL_Driver/Src/stm32u0xx_hal_flash_ex.c ****   {
 764              		.loc 1 624 34 view .LVU275
 765 00ae 1021     		movs	r1, #16
 766 00b0 5242     		rsbs	r2, r2, #0
 767 00b2 8A43     		bics	r2, r1
 768 00b4 CC32     		adds	r2, r2, #204
 769              	.L32:
 770              	.LVL58:
 624:Drivers/STM32U0xx_HAL_Driver/Src/stm32u0xx_hal_flash_ex.c ****   {
 771              		.loc 1 624 34 view .LVU276
 772              	.LBE69:
 773              	.LBE68:
 313:Drivers/STM32U0xx_HAL_Driver/Src/stm32u0xx_hal_flash_ex.c ****   }
 774              		.loc 1 313 5 is_stmt 1 view .LVU277
 775              	.LBB70:
 776              	.LBI70:
 597:Drivers/STM32U0xx_HAL_Driver/Src/stm32u0xx_hal_flash_ex.c **** {
 777              		.loc 1 597 13 view .LVU278
 778              	.LBB71:
 599:Drivers/STM32U0xx_HAL_Driver/Src/stm32u0xx_hal_flash_ex.c **** 
 779              		.loc 1 599 3 view .LVU279
 602:Drivers/STM32U0xx_HAL_Driver/Src/stm32u0xx_hal_flash_ex.c ****   assert_param(IS_OB_USER_CONFIG(UserType, UserConfig));
 780              		.loc 1 602 3 view .LVU280
 603:Drivers/STM32U0xx_HAL_Driver/Src/stm32u0xx_hal_flash_ex.c ****   assert_param(IS_OB_RDP_LEVEL(RDPLevel));
 781              		.loc 1 603 3 view .LVU281
 604:Drivers/STM32U0xx_HAL_Driver/Src/stm32u0xx_hal_flash_ex.c **** 
 782              		.loc 1 604 3 view .LVU282
 607:Drivers/STM32U0xx_HAL_Driver/Src/stm32u0xx_hal_flash_ex.c ****   optr &= ~(UserType | FLASH_OPTR_RDP);
 783              		.loc 1 607 3 view .LVU283
 608:Drivers/STM32U0xx_HAL_Driver/Src/stm32u0xx_hal_flash_ex.c ****   FLASH->OPTR = (optr | UserConfig | RDPLevel);
 784              		.loc 1 608 22 is_stmt 0 view .LVU284
 785 00b6 FF25     		movs	r5, #255
 607:Drivers/STM32U0xx_HAL_Driver/Src/stm32u0xx_hal_flash_ex.c ****   optr &= ~(UserType | FLASH_OPTR_RDP);
 786              		.loc 1 607 8 view .LVU285
 787 00b8 1F4E     		ldr	r6, .L63+4
 608:Drivers/STM32U0xx_HAL_Driver/Src/stm32u0xx_hal_flash_ex.c ****   FLASH->OPTR = (optr | UserConfig | RDPLevel);
 788              		.loc 1 608 22 view .LVU286
 789 00ba 4769     		ldr	r7, [r0, #20]
 607:Drivers/STM32U0xx_HAL_Driver/Src/stm32u0xx_hal_flash_ex.c ****   optr &= ~(UserType | FLASH_OPTR_RDP);
 790              		.loc 1 607 8 view .LVU287
 791 00bc 316A     		ldr	r1, [r6, #32]
 792              	.LVL59:
 608:Drivers/STM32U0xx_HAL_Driver/Src/stm32u0xx_hal_flash_ex.c ****   FLASH->OPTR = (optr | UserConfig | RDPLevel);
 793              		.loc 1 608 3 is_stmt 1 view .LVU288
ARM GAS  C:\Users\upo\AppData\Local\Temp\ccdB8pc0.s 			page 31


 609:Drivers/STM32U0xx_HAL_Driver/Src/stm32u0xx_hal_flash_ex.c **** }
 794              		.loc 1 609 3 view .LVU289
 608:Drivers/STM32U0xx_HAL_Driver/Src/stm32u0xx_hal_flash_ex.c ****   FLASH->OPTR = (optr | UserConfig | RDPLevel);
 795              		.loc 1 608 22 is_stmt 0 view .LVU290
 796 00be 3D43     		orrs	r5, r7
 608:Drivers/STM32U0xx_HAL_Driver/Src/stm32u0xx_hal_flash_ex.c ****   FLASH->OPTR = (optr | UserConfig | RDPLevel);
 797              		.loc 1 608 8 view .LVU291
 798 00c0 A943     		bics	r1, r5
 799              	.LVL60:
 609:Drivers/STM32U0xx_HAL_Driver/Src/stm32u0xx_hal_flash_ex.c **** }
 800              		.loc 1 609 23 view .LVU292
 801 00c2 8569     		ldr	r5, [r0, #24]
 802 00c4 2943     		orrs	r1, r5
 609:Drivers/STM32U0xx_HAL_Driver/Src/stm32u0xx_hal_flash_ex.c **** }
 803              		.loc 1 609 36 view .LVU293
 804 00c6 0A43     		orrs	r2, r1
 805              	.LVL61:
 609:Drivers/STM32U0xx_HAL_Driver/Src/stm32u0xx_hal_flash_ex.c **** }
 806              		.loc 1 609 15 view .LVU294
 807 00c8 3262     		str	r2, [r6, #32]
 808              	.LVL62:
 610:Drivers/STM32U0xx_HAL_Driver/Src/stm32u0xx_hal_flash_ex.c **** 
 809              		.loc 1 610 1 view .LVU295
 810 00ca C2E7     		b	.L30
 811              	.LVL63:
 812              	.L59:
 610:Drivers/STM32U0xx_HAL_Driver/Src/stm32u0xx_hal_flash_ex.c **** 
 813              		.loc 1 610 1 view .LVU296
 814              	.LBE71:
 815              	.LBE70:
 301:Drivers/STM32U0xx_HAL_Driver/Src/stm32u0xx_hal_flash_ex.c ****   }
 816              		.loc 1 301 5 is_stmt 1 view .LVU297
 817              	.LBB72:
 818              	.LBI72:
 597:Drivers/STM32U0xx_HAL_Driver/Src/stm32u0xx_hal_flash_ex.c **** {
 819              		.loc 1 597 13 view .LVU298
 820              	.LBB73:
 599:Drivers/STM32U0xx_HAL_Driver/Src/stm32u0xx_hal_flash_ex.c **** 
 821              		.loc 1 599 3 view .LVU299
 602:Drivers/STM32U0xx_HAL_Driver/Src/stm32u0xx_hal_flash_ex.c ****   assert_param(IS_OB_USER_CONFIG(UserType, UserConfig));
 822              		.loc 1 602 3 view .LVU300
 603:Drivers/STM32U0xx_HAL_Driver/Src/stm32u0xx_hal_flash_ex.c ****   assert_param(IS_OB_RDP_LEVEL(RDPLevel));
 823              		.loc 1 603 3 view .LVU301
 604:Drivers/STM32U0xx_HAL_Driver/Src/stm32u0xx_hal_flash_ex.c **** 
 824              		.loc 1 604 3 view .LVU302
 607:Drivers/STM32U0xx_HAL_Driver/Src/stm32u0xx_hal_flash_ex.c ****   optr &= ~(UserType | FLASH_OPTR_RDP);
 825              		.loc 1 607 3 view .LVU303
 608:Drivers/STM32U0xx_HAL_Driver/Src/stm32u0xx_hal_flash_ex.c ****   FLASH->OPTR = (optr | UserConfig | RDPLevel);
 826              		.loc 1 608 22 is_stmt 0 view .LVU304
 827 00cc FF21     		movs	r1, #255
 607:Drivers/STM32U0xx_HAL_Driver/Src/stm32u0xx_hal_flash_ex.c ****   optr &= ~(UserType | FLASH_OPTR_RDP);
 828              		.loc 1 607 8 view .LVU305
 829 00ce 1A4D     		ldr	r5, .L63+4
 608:Drivers/STM32U0xx_HAL_Driver/Src/stm32u0xx_hal_flash_ex.c ****   FLASH->OPTR = (optr | UserConfig | RDPLevel);
 830              		.loc 1 608 22 view .LVU306
 831 00d0 4669     		ldr	r6, [r0, #20]
 607:Drivers/STM32U0xx_HAL_Driver/Src/stm32u0xx_hal_flash_ex.c ****   optr &= ~(UserType | FLASH_OPTR_RDP);
ARM GAS  C:\Users\upo\AppData\Local\Temp\ccdB8pc0.s 			page 32


 832              		.loc 1 607 8 view .LVU307
 833 00d2 2A6A     		ldr	r2, [r5, #32]
 834              	.LVL64:
 608:Drivers/STM32U0xx_HAL_Driver/Src/stm32u0xx_hal_flash_ex.c ****   FLASH->OPTR = (optr | UserConfig | RDPLevel);
 835              		.loc 1 608 3 is_stmt 1 view .LVU308
 609:Drivers/STM32U0xx_HAL_Driver/Src/stm32u0xx_hal_flash_ex.c **** }
 836              		.loc 1 609 3 view .LVU309
 608:Drivers/STM32U0xx_HAL_Driver/Src/stm32u0xx_hal_flash_ex.c ****   FLASH->OPTR = (optr | UserConfig | RDPLevel);
 837              		.loc 1 608 22 is_stmt 0 view .LVU310
 838 00d4 3143     		orrs	r1, r6
 608:Drivers/STM32U0xx_HAL_Driver/Src/stm32u0xx_hal_flash_ex.c ****   FLASH->OPTR = (optr | UserConfig | RDPLevel);
 839              		.loc 1 608 8 view .LVU311
 840 00d6 8A43     		bics	r2, r1
 841              	.LVL65:
 609:Drivers/STM32U0xx_HAL_Driver/Src/stm32u0xx_hal_flash_ex.c **** }
 842              		.loc 1 609 36 view .LVU312
 843 00d8 0669     		ldr	r6, [r0, #16]
 844 00da 8169     		ldr	r1, [r0, #24]
 845 00dc 3143     		orrs	r1, r6
 846 00de 0A43     		orrs	r2, r1
 609:Drivers/STM32U0xx_HAL_Driver/Src/stm32u0xx_hal_flash_ex.c **** }
 847              		.loc 1 609 15 view .LVU313
 848 00e0 2A62     		str	r2, [r5, #32]
 849              	.LVL66:
 610:Drivers/STM32U0xx_HAL_Driver/Src/stm32u0xx_hal_flash_ex.c **** 
 850              		.loc 1 610 1 view .LVU314
 851 00e2 B6E7     		b	.L30
 852              	.LVL67:
 853              	.L62:
 610:Drivers/STM32U0xx_HAL_Driver/Src/stm32u0xx_hal_flash_ex.c **** 
 854              		.loc 1 610 1 view .LVU315
 855              	.LBE73:
 856              	.LBE72:
 340:Drivers/STM32U0xx_HAL_Driver/Src/stm32u0xx_hal_flash_ex.c **** 
 857              		.loc 1 340 5 is_stmt 1 view .LVU316
 858 00e4 8023     		movs	r3, #128
 343:Drivers/STM32U0xx_HAL_Driver/Src/stm32u0xx_hal_flash_ex.c **** 
 859              		.loc 1 343 14 is_stmt 0 view .LVU317
 860 00e6 FA20     		movs	r0, #250
 861              	.LVL68:
 340:Drivers/STM32U0xx_HAL_Driver/Src/stm32u0xx_hal_flash_ex.c **** 
 862              		.loc 1 340 5 view .LVU318
 863 00e8 134D     		ldr	r5, .L63+4
 864 00ea 9B02     		lsls	r3, r3, #10
 865 00ec 6A69     		ldr	r2, [r5, #20]
 343:Drivers/STM32U0xx_HAL_Driver/Src/stm32u0xx_hal_flash_ex.c **** 
 866              		.loc 1 343 14 view .LVU319
 867 00ee 8000     		lsls	r0, r0, #2
 340:Drivers/STM32U0xx_HAL_Driver/Src/stm32u0xx_hal_flash_ex.c **** 
 868              		.loc 1 340 5 view .LVU320
 869 00f0 1343     		orrs	r3, r2
 870 00f2 6B61     		str	r3, [r5, #20]
 343:Drivers/STM32U0xx_HAL_Driver/Src/stm32u0xx_hal_flash_ex.c **** 
 871              		.loc 1 343 5 is_stmt 1 view .LVU321
 343:Drivers/STM32U0xx_HAL_Driver/Src/stm32u0xx_hal_flash_ex.c **** 
 872              		.loc 1 343 14 is_stmt 0 view .LVU322
 873 00f4 FFF7FEFF 		bl	FLASH_WaitForLastOperation
ARM GAS  C:\Users\upo\AppData\Local\Temp\ccdB8pc0.s 			page 33


 874              	.LVL69:
 346:Drivers/STM32U0xx_HAL_Driver/Src/stm32u0xx_hal_flash_ex.c ****   }
 875              		.loc 1 346 5 is_stmt 1 view .LVU323
 876 00f8 6B69     		ldr	r3, [r5, #20]
 877 00fa 124A     		ldr	r2, .L63+16
 878 00fc 1340     		ands	r3, r2
 879 00fe 6B61     		str	r3, [r5, #20]
 880 0100 C7E7     		b	.L38
 881              	.LVL70:
 882              	.L61:
 883              	.LBB74:
 884              	.LBB67:
 724:Drivers/STM32U0xx_HAL_Driver/Src/stm32u0xx_hal_flash_ex.c ****   {
 725:Drivers/STM32U0xx_HAL_Driver/Src/stm32u0xx_hal_flash_ex.c **** 
 726:Drivers/STM32U0xx_HAL_Driver/Src/stm32u0xx_hal_flash_ex.c ****     WRITE_REG(FLASH->OEM2KEYW0R, RDPKey0);
 885              		.loc 1 726 5 view .LVU324
 886 0102 9820     		movs	r0, #152
 887              	.LVL71:
 888              		.loc 1 726 5 is_stmt 0 view .LVU325
 889 0104 0C4B     		ldr	r3, .L63+4
 890              	.LVL72:
 891              		.loc 1 726 5 view .LVU326
 892 0106 1E50     		str	r6, [r3, r0]
 893              	.LVL73:
 727:Drivers/STM32U0xx_HAL_Driver/Src/stm32u0xx_hal_flash_ex.c ****     WRITE_REG(FLASH->OEM2KEYW1R, RDPKey1);
 894              		.loc 1 727 5 is_stmt 1 view .LVU327
 895 0108 0430     		adds	r0, r0, #4
 896 010a 1D50     		str	r5, [r3, r0]
 728:Drivers/STM32U0xx_HAL_Driver/Src/stm32u0xx_hal_flash_ex.c ****     WRITE_REG(FLASH->OEM2KEYW2R, RDPKey2);
 897              		.loc 1 728 5 view .LVU328
 898 010c 0430     		adds	r0, r0, #4
 899 010e 1950     		str	r1, [r3, r0]
 729:Drivers/STM32U0xx_HAL_Driver/Src/stm32u0xx_hal_flash_ex.c ****     WRITE_REG(FLASH->OEM2KEYW3R, RDPKey3);
 900              		.loc 1 729 5 view .LVU329
 901 0110 A421     		movs	r1, #164
 902              	.LVL74:
 903              		.loc 1 729 5 is_stmt 0 view .LVU330
 904 0112 5A50     		str	r2, [r3, r1]
 905              	.LVL75:
 906              		.loc 1 729 5 view .LVU331
 907 0114 B7E7     		b	.L36
 908              	.LVL76:
 909              	.L60:
 718:Drivers/STM32U0xx_HAL_Driver/Src/stm32u0xx_hal_flash_ex.c ****     WRITE_REG(FLASH->OEM1KEYW1R, RDPKey1);
 910              		.loc 1 718 5 is_stmt 1 view .LVU332
 911 0116 8820     		movs	r0, #136
 912              	.LVL77:
 718:Drivers/STM32U0xx_HAL_Driver/Src/stm32u0xx_hal_flash_ex.c ****     WRITE_REG(FLASH->OEM1KEYW1R, RDPKey1);
 913              		.loc 1 718 5 is_stmt 0 view .LVU333
 914 0118 074B     		ldr	r3, .L63+4
 915              	.LVL78:
 718:Drivers/STM32U0xx_HAL_Driver/Src/stm32u0xx_hal_flash_ex.c ****     WRITE_REG(FLASH->OEM1KEYW1R, RDPKey1);
 916              		.loc 1 718 5 view .LVU334
 917 011a 1E50     		str	r6, [r3, r0]
 918              	.LVL79:
 719:Drivers/STM32U0xx_HAL_Driver/Src/stm32u0xx_hal_flash_ex.c ****     WRITE_REG(FLASH->OEM1KEYW2R, RDPKey2);
 919              		.loc 1 719 5 is_stmt 1 view .LVU335
ARM GAS  C:\Users\upo\AppData\Local\Temp\ccdB8pc0.s 			page 34


 920 011c 0430     		adds	r0, r0, #4
 921 011e 1D50     		str	r5, [r3, r0]
 720:Drivers/STM32U0xx_HAL_Driver/Src/stm32u0xx_hal_flash_ex.c ****     WRITE_REG(FLASH->OEM1KEYW3R, RDPKey3);
 922              		.loc 1 720 5 view .LVU336
 923 0120 0430     		adds	r0, r0, #4
 924 0122 1950     		str	r1, [r3, r0]
 721:Drivers/STM32U0xx_HAL_Driver/Src/stm32u0xx_hal_flash_ex.c ****   }
 925              		.loc 1 721 5 view .LVU337
 926 0124 9421     		movs	r1, #148
 927              	.LVL80:
 721:Drivers/STM32U0xx_HAL_Driver/Src/stm32u0xx_hal_flash_ex.c ****   }
 928              		.loc 1 721 5 is_stmt 0 view .LVU338
 929 0126 5A50     		str	r2, [r3, r1]
 930              	.LVL81:
 721:Drivers/STM32U0xx_HAL_Driver/Src/stm32u0xx_hal_flash_ex.c ****   }
 931              		.loc 1 721 5 view .LVU339
 932 0128 ADE7     		b	.L36
 933              	.LVL82:
 934              	.L58:
 721:Drivers/STM32U0xx_HAL_Driver/Src/stm32u0xx_hal_flash_ex.c ****   }
 935              		.loc 1 721 5 view .LVU340
 936              	.LBE67:
 937              	.LBE74:
 938              	.LBB75:
 939              	.LBB54:
 527:Drivers/STM32U0xx_HAL_Driver/Src/stm32u0xx_hal_flash_ex.c ****   }
 940              		.loc 1 527 5 is_stmt 1 view .LVU341
 527:Drivers/STM32U0xx_HAL_Driver/Src/stm32u0xx_hal_flash_ex.c ****   }
 941              		.loc 1 527 19 is_stmt 0 view .LVU342
 942 012a 0349     		ldr	r1, .L63+4
 943              	.LVL83:
 527:Drivers/STM32U0xx_HAL_Driver/Src/stm32u0xx_hal_flash_ex.c ****   }
 944              		.loc 1 527 19 view .LVU343
 945 012c CA62     		str	r2, [r1, #44]
 946              	.LVL84:
 527:Drivers/STM32U0xx_HAL_Driver/Src/stm32u0xx_hal_flash_ex.c ****   }
 947              		.loc 1 527 19 view .LVU344
 948 012e 7EE7     		b	.L27
 949              	.LVL85:
 950              	.L39:
 527:Drivers/STM32U0xx_HAL_Driver/Src/stm32u0xx_hal_flash_ex.c ****   }
 951              		.loc 1 527 19 view .LVU345
 952              	.LBE54:
 953              	.LBE75:
 286:Drivers/STM32U0xx_HAL_Driver/Src/stm32u0xx_hal_flash_ex.c **** 
 954              		.loc 1 286 3 view .LVU346
 955 0130 0220     		movs	r0, #2
 956              	.LVL86:
 286:Drivers/STM32U0xx_HAL_Driver/Src/stm32u0xx_hal_flash_ex.c **** 
 957              		.loc 1 286 3 view .LVU347
 958 0132 B0E7     		b	.L26
 959              	.L64:
 960              		.align	2
 961              	.L63:
 962 0134 00000000 		.word	pFlash
 963 0138 00200240 		.word	1073881088
 964 013c 00FF4F3F 		.word	1062207232
ARM GAS  C:\Users\upo\AppData\Local\Temp\ccdB8pc0.s 			page 35


 965 0140 C0FFFE00 		.word	16711616
 966 0144 FFFFFDFF 		.word	-131073
 967              		.cfi_endproc
 968              	.LFE336:
 970              		.section	.text.HAL_FLASHEx_OBGetConfig,"ax",%progbits
 971              		.align	1
 972              		.p2align 2,,3
 973              		.global	HAL_FLASHEx_OBGetConfig
 974              		.syntax unified
 975              		.code	16
 976              		.thumb_func
 978              	HAL_FLASHEx_OBGetConfig:
 979              	.LVL87:
 980              	.LFB337:
 367:Drivers/STM32U0xx_HAL_Driver/Src/stm32u0xx_hal_flash_ex.c ****   pOBInit->OptionType = OPTIONBYTE_ALL;
 981              		.loc 1 367 1 is_stmt 1 view -0
 982              		.cfi_startproc
 983              		@ args = 0, pretend = 0, frame = 0
 984              		@ frame_needed = 0, uses_anonymous_args = 0
 985              		@ link register save eliminated.
 368:Drivers/STM32U0xx_HAL_Driver/Src/stm32u0xx_hal_flash_ex.c **** 
 986              		.loc 1 368 3 view .LVU349
 368:Drivers/STM32U0xx_HAL_Driver/Src/stm32u0xx_hal_flash_ex.c **** 
 987              		.loc 1 368 23 is_stmt 0 view .LVU350
 988 0000 1F23     		movs	r3, #31
 989 0002 0360     		str	r3, [r0]
 371:Drivers/STM32U0xx_HAL_Driver/Src/stm32u0xx_hal_flash_ex.c **** 
 990              		.loc 1 371 3 is_stmt 1 view .LVU351
 991 0004 4368     		ldr	r3, [r0, #4]
 992              	.LVL88:
 993              	.LBB76:
 994              	.LBI76:
 547:Drivers/STM32U0xx_HAL_Driver/Src/stm32u0xx_hal_flash_ex.c **** {
 995              		.loc 1 547 13 view .LVU352
 996              	.LBB77:
 551:Drivers/STM32U0xx_HAL_Driver/Src/stm32u0xx_hal_flash_ex.c ****   {
 997              		.loc 1 551 3 view .LVU353
 551:Drivers/STM32U0xx_HAL_Driver/Src/stm32u0xx_hal_flash_ex.c ****   {
 998              		.loc 1 551 6 is_stmt 0 view .LVU354
 999 0006 012B     		cmp	r3, #1
 1000 0008 2AD0     		beq	.L74
 556:Drivers/STM32U0xx_HAL_Driver/Src/stm32u0xx_hal_flash_ex.c ****   {
 1001              		.loc 1 556 8 is_stmt 1 view .LVU355
 556:Drivers/STM32U0xx_HAL_Driver/Src/stm32u0xx_hal_flash_ex.c ****   {
 1002              		.loc 1 556 11 is_stmt 0 view .LVU356
 1003 000a 022B     		cmp	r3, #2
 1004 000c 1FD0     		beq	.L75
 1005              	.LVL89:
 1006              	.L67:
 564:Drivers/STM32U0xx_HAL_Driver/Src/stm32u0xx_hal_flash_ex.c **** }
 1007              		.loc 1 564 3 is_stmt 1 view .LVU357
 564:Drivers/STM32U0xx_HAL_Driver/Src/stm32u0xx_hal_flash_ex.c **** }
 1008              		.loc 1 564 3 is_stmt 0 view .LVU358
 1009              	.LBE77:
 1010              	.LBE76:
 374:Drivers/STM32U0xx_HAL_Driver/Src/stm32u0xx_hal_flash_ex.c **** 
 1011              		.loc 1 374 3 is_stmt 1 view .LVU359
ARM GAS  C:\Users\upo\AppData\Local\Temp\ccdB8pc0.s 			page 36


 1012              	.LBB79:
 1013              	.LBI79:
 620:Drivers/STM32U0xx_HAL_Driver/Src/stm32u0xx_hal_flash_ex.c **** {
 1014              		.loc 1 620 17 view .LVU360
 1015              	.LBB80:
 622:Drivers/STM32U0xx_HAL_Driver/Src/stm32u0xx_hal_flash_ex.c **** 
 1016              		.loc 1 622 3 view .LVU361
 622:Drivers/STM32U0xx_HAL_Driver/Src/stm32u0xx_hal_flash_ex.c **** 
 1017              		.loc 1 622 21 is_stmt 0 view .LVU362
 1018 000e 194B     		ldr	r3, .L76
 1019 0010 1A6A     		ldr	r2, [r3, #32]
 622:Drivers/STM32U0xx_HAL_Driver/Src/stm32u0xx_hal_flash_ex.c **** 
 1020              		.loc 1 622 12 view .LVU363
 1021 0012 FF23     		movs	r3, #255
 1022 0014 1340     		ands	r3, r2
 1023              	.LVL90:
 624:Drivers/STM32U0xx_HAL_Driver/Src/stm32u0xx_hal_flash_ex.c ****   {
 1024              		.loc 1 624 3 is_stmt 1 view .LVU364
 624:Drivers/STM32U0xx_HAL_Driver/Src/stm32u0xx_hal_flash_ex.c ****   {
 1025              		.loc 1 624 6 is_stmt 0 view .LVU365
 1026 0016 AA2B     		cmp	r3, #170
 1027 0018 06D0     		beq	.L68
 624:Drivers/STM32U0xx_HAL_Driver/Src/stm32u0xx_hal_flash_ex.c ****   {
 1028              		.loc 1 624 34 view .LVU366
 1029 001a CC3B     		subs	r3, r3, #204
 1030              	.LVL91:
 624:Drivers/STM32U0xx_HAL_Driver/Src/stm32u0xx_hal_flash_ex.c ****   {
 1031              		.loc 1 624 34 view .LVU367
 1032 001c 5A1E     		subs	r2, r3, #1
 1033 001e 9341     		sbcs	r3, r3, r2
 1034              	.LVL92:
 624:Drivers/STM32U0xx_HAL_Driver/Src/stm32u0xx_hal_flash_ex.c ****   {
 1035              		.loc 1 624 34 view .LVU368
 1036 0020 1022     		movs	r2, #16
 1037 0022 5B42     		rsbs	r3, r3, #0
 1038 0024 9343     		bics	r3, r2
 1039 0026 CC33     		adds	r3, r3, #204
 1040              	.L68:
 1041              	.LVL93:
 624:Drivers/STM32U0xx_HAL_Driver/Src/stm32u0xx_hal_flash_ex.c ****   {
 1042              		.loc 1 624 34 view .LVU369
 1043              	.LBE80:
 1044              	.LBE79:
 1045              	.LBB81:
 1046              	.LBB82:
 655:Drivers/STM32U0xx_HAL_Driver/Src/stm32u0xx_hal_flash_ex.c ****   return user;
 1047              		.loc 1 655 26 view .LVU370
 1048 0028 124A     		ldr	r2, .L76
 1049              	.LBE82:
 1050              	.LBE81:
 374:Drivers/STM32U0xx_HAL_Driver/Src/stm32u0xx_hal_flash_ex.c **** 
 1051              		.loc 1 374 21 view .LVU371
 1052 002a 0361     		str	r3, [r0, #16]
 377:Drivers/STM32U0xx_HAL_Driver/Src/stm32u0xx_hal_flash_ex.c ****   pOBInit->USERType = OB_USER_ALL;
 1053              		.loc 1 377 3 is_stmt 1 view .LVU372
 1054              	.LBB85:
 1055              	.LBI81:
ARM GAS  C:\Users\upo\AppData\Local\Temp\ccdB8pc0.s 			page 37


 653:Drivers/STM32U0xx_HAL_Driver/Src/stm32u0xx_hal_flash_ex.c **** {
 1056              		.loc 1 653 17 view .LVU373
 1057              	.LBB83:
 655:Drivers/STM32U0xx_HAL_Driver/Src/stm32u0xx_hal_flash_ex.c ****   return user;
 1058              		.loc 1 655 3 view .LVU374
 655:Drivers/STM32U0xx_HAL_Driver/Src/stm32u0xx_hal_flash_ex.c ****   return user;
 1059              		.loc 1 655 26 is_stmt 0 view .LVU375
 1060 002c 136A     		ldr	r3, [r2, #32]
 1061              	.LVL94:
 656:Drivers/STM32U0xx_HAL_Driver/Src/stm32u0xx_hal_flash_ex.c **** }
 1062              		.loc 1 656 3 is_stmt 1 view .LVU376
 655:Drivers/STM32U0xx_HAL_Driver/Src/stm32u0xx_hal_flash_ex.c ****   return user;
 1063              		.loc 1 655 12 is_stmt 0 view .LVU377
 1064 002e 1249     		ldr	r1, .L76+4
 1065              	.LBE83:
 1066              	.LBE85:
 382:Drivers/STM32U0xx_HAL_Driver/Src/stm32u0xx_hal_flash_ex.c **** 
 1067              		.loc 1 382 1 view .LVU378
 1068              		@ sp needed
 1069              	.LBB86:
 1070              	.LBB84:
 655:Drivers/STM32U0xx_HAL_Driver/Src/stm32u0xx_hal_flash_ex.c ****   return user;
 1071              		.loc 1 655 12 view .LVU379
 1072 0030 0B40     		ands	r3, r1
 1073              	.LBE84:
 1074              	.LBE86:
 377:Drivers/STM32U0xx_HAL_Driver/Src/stm32u0xx_hal_flash_ex.c ****   pOBInit->USERType = OB_USER_ALL;
 1075              		.loc 1 377 23 view .LVU380
 1076 0032 8361     		str	r3, [r0, #24]
 378:Drivers/STM32U0xx_HAL_Driver/Src/stm32u0xx_hal_flash_ex.c **** 
 1077              		.loc 1 378 3 is_stmt 1 view .LVU381
 1078              	.LBB87:
 1079              	.LBB88:
 690:Drivers/STM32U0xx_HAL_Driver/Src/stm32u0xx_hal_flash_ex.c **** 
 1080              		.loc 1 690 12 is_stmt 0 view .LVU382
 1081 0034 8023     		movs	r3, #128
 1082              	.LBE88:
 1083              	.LBE87:
 378:Drivers/STM32U0xx_HAL_Driver/Src/stm32u0xx_hal_flash_ex.c **** 
 1084              		.loc 1 378 21 view .LVU383
 1085 0036 4161     		str	r1, [r0, #20]
 381:Drivers/STM32U0xx_HAL_Driver/Src/stm32u0xx_hal_flash_ex.c **** }
 1086              		.loc 1 381 3 is_stmt 1 view .LVU384
 1087              	.LVL95:
 1088              	.LBB90:
 1089              	.LBI87:
 688:Drivers/STM32U0xx_HAL_Driver/Src/stm32u0xx_hal_flash_ex.c **** {
 1090              		.loc 1 688 13 view .LVU385
 1091              	.LBB89:
 690:Drivers/STM32U0xx_HAL_Driver/Src/stm32u0xx_hal_flash_ex.c **** 
 1092              		.loc 1 690 3 view .LVU386
 690:Drivers/STM32U0xx_HAL_Driver/Src/stm32u0xx_hal_flash_ex.c **** 
 1093              		.loc 1 690 12 is_stmt 0 view .LVU387
 1094 0038 D358     		ldr	r3, [r2, r3]
 1095              	.LVL96:
 692:Drivers/STM32U0xx_HAL_Driver/Src/stm32u0xx_hal_flash_ex.c ****   *HDPEndPage = (secmem & FLASH_SECR_HDP1_PEND);
 1096              		.loc 1 692 3 is_stmt 1 view .LVU388
ARM GAS  C:\Users\upo\AppData\Local\Temp\ccdB8pc0.s 			page 38


 692:Drivers/STM32U0xx_HAL_Driver/Src/stm32u0xx_hal_flash_ex.c ****   *HDPEndPage = (secmem & FLASH_SECR_HDP1_PEND);
 1097              		.loc 1 692 24 is_stmt 0 view .LVU389
 1098 003a 8022     		movs	r2, #128
 1099 003c 5202     		lsls	r2, r2, #9
 1100 003e 1A40     		ands	r2, r3
 692:Drivers/STM32U0xx_HAL_Driver/Src/stm32u0xx_hal_flash_ex.c ****   *HDPEndPage = (secmem & FLASH_SECR_HDP1_PEND);
 1101              		.loc 1 692 14 view .LVU390
 1102 0040 0263     		str	r2, [r0, #48]
 693:Drivers/STM32U0xx_HAL_Driver/Src/stm32u0xx_hal_flash_ex.c ****   *HDPEn = (secmem & FLASH_SECR_HDP1EN) >> FLASH_SECR_HDP1EN_Pos;
 1103              		.loc 1 693 3 is_stmt 1 view .LVU391
 693:Drivers/STM32U0xx_HAL_Driver/Src/stm32u0xx_hal_flash_ex.c ****   *HDPEn = (secmem & FLASH_SECR_HDP1EN) >> FLASH_SECR_HDP1EN_Pos;
 1104              		.loc 1 693 25 is_stmt 0 view .LVU392
 1105 0042 3F22     		movs	r2, #63
 1106 0044 1A40     		ands	r2, r3
 694:Drivers/STM32U0xx_HAL_Driver/Src/stm32u0xx_hal_flash_ex.c **** }
 1107              		.loc 1 694 41 view .LVU393
 1108 0046 1B0E     		lsrs	r3, r3, #24
 1109              	.LVL97:
 693:Drivers/STM32U0xx_HAL_Driver/Src/stm32u0xx_hal_flash_ex.c ****   *HDPEn = (secmem & FLASH_SECR_HDP1EN) >> FLASH_SECR_HDP1EN_Pos;
 1110              		.loc 1 693 15 view .LVU394
 1111 0048 4263     		str	r2, [r0, #52]
 694:Drivers/STM32U0xx_HAL_Driver/Src/stm32u0xx_hal_flash_ex.c **** }
 1112              		.loc 1 694 3 is_stmt 1 view .LVU395
 694:Drivers/STM32U0xx_HAL_Driver/Src/stm32u0xx_hal_flash_ex.c **** }
 1113              		.loc 1 694 10 is_stmt 0 view .LVU396
 1114 004a 8363     		str	r3, [r0, #56]
 1115              	.LVL98:
 694:Drivers/STM32U0xx_HAL_Driver/Src/stm32u0xx_hal_flash_ex.c **** }
 1116              		.loc 1 694 10 view .LVU397
 1117              	.LBE89:
 1118              	.LBE90:
 382:Drivers/STM32U0xx_HAL_Driver/Src/stm32u0xx_hal_flash_ex.c **** 
 1119              		.loc 1 382 1 view .LVU398
 1120 004c 7047     		bx	lr
 1121              	.LVL99:
 1122              	.L75:
 1123              	.LBB91:
 1124              	.LBB78:
 558:Drivers/STM32U0xx_HAL_Driver/Src/stm32u0xx_hal_flash_ex.c ****     *WRDPEndOffset = (READ_BIT(FLASH->WRP1BR, FLASH_WRP1BR_WRP1B_END) >> FLASH_WRP1BR_WRP1B_END_Pos
 1125              		.loc 1 558 5 is_stmt 1 view .LVU399
 558:Drivers/STM32U0xx_HAL_Driver/Src/stm32u0xx_hal_flash_ex.c ****     *WRDPEndOffset = (READ_BIT(FLASH->WRP1BR, FLASH_WRP1BR_WRP1B_END) >> FLASH_WRP1BR_WRP1B_END_Pos
 1126              		.loc 1 558 23 is_stmt 0 view .LVU400
 1127 004e 094A     		ldr	r2, .L76
 1128 0050 136B     		ldr	r3, [r2, #48]
 1129              	.LVL100:
 558:Drivers/STM32U0xx_HAL_Driver/Src/stm32u0xx_hal_flash_ex.c ****     *WRDPEndOffset = (READ_BIT(FLASH->WRP1BR, FLASH_WRP1BR_WRP1B_END) >> FLASH_WRP1BR_WRP1B_END_Pos
 1130              		.loc 1 558 23 view .LVU401
 1131 0052 1B04     		lsls	r3, r3, #16
 1132 0054 1B0C     		lsrs	r3, r3, #16
 558:Drivers/STM32U0xx_HAL_Driver/Src/stm32u0xx_hal_flash_ex.c ****     *WRDPEndOffset = (READ_BIT(FLASH->WRP1BR, FLASH_WRP1BR_WRP1B_END) >> FLASH_WRP1BR_WRP1B_END_Pos
 1133              		.loc 1 558 21 view .LVU402
 1134 0056 8360     		str	r3, [r0, #8]
 559:Drivers/STM32U0xx_HAL_Driver/Src/stm32u0xx_hal_flash_ex.c ****   }
 1135              		.loc 1 559 5 is_stmt 1 view .LVU403
 559:Drivers/STM32U0xx_HAL_Driver/Src/stm32u0xx_hal_flash_ex.c ****   }
 1136              		.loc 1 559 23 is_stmt 0 view .LVU404
 1137 0058 136B     		ldr	r3, [r2, #48]
ARM GAS  C:\Users\upo\AppData\Local\Temp\ccdB8pc0.s 			page 39


 559:Drivers/STM32U0xx_HAL_Driver/Src/stm32u0xx_hal_flash_ex.c ****   }
 1138              		.loc 1 559 71 view .LVU405
 1139 005a 1B0C     		lsrs	r3, r3, #16
 559:Drivers/STM32U0xx_HAL_Driver/Src/stm32u0xx_hal_flash_ex.c ****   }
 1140              		.loc 1 559 20 view .LVU406
 1141 005c C360     		str	r3, [r0, #12]
 1142 005e D6E7     		b	.L67
 1143              	.LVL101:
 1144              	.L74:
 553:Drivers/STM32U0xx_HAL_Driver/Src/stm32u0xx_hal_flash_ex.c ****     *WRDPEndOffset = (READ_BIT(FLASH->WRP1AR, FLASH_WRP1AR_WRP1A_END) >> FLASH_WRP1AR_WRP1A_END_Pos
 1145              		.loc 1 553 5 is_stmt 1 view .LVU407
 553:Drivers/STM32U0xx_HAL_Driver/Src/stm32u0xx_hal_flash_ex.c ****     *WRDPEndOffset = (READ_BIT(FLASH->WRP1AR, FLASH_WRP1AR_WRP1A_END) >> FLASH_WRP1AR_WRP1A_END_Pos
 1146              		.loc 1 553 23 is_stmt 0 view .LVU408
 1147 0060 044A     		ldr	r2, .L76
 1148 0062 D36A     		ldr	r3, [r2, #44]
 1149              	.LVL102:
 553:Drivers/STM32U0xx_HAL_Driver/Src/stm32u0xx_hal_flash_ex.c ****     *WRDPEndOffset = (READ_BIT(FLASH->WRP1AR, FLASH_WRP1AR_WRP1A_END) >> FLASH_WRP1AR_WRP1A_END_Pos
 1150              		.loc 1 553 23 view .LVU409
 1151 0064 1B04     		lsls	r3, r3, #16
 1152 0066 1B0C     		lsrs	r3, r3, #16
 553:Drivers/STM32U0xx_HAL_Driver/Src/stm32u0xx_hal_flash_ex.c ****     *WRDPEndOffset = (READ_BIT(FLASH->WRP1AR, FLASH_WRP1AR_WRP1A_END) >> FLASH_WRP1AR_WRP1A_END_Pos
 1153              		.loc 1 553 21 view .LVU410
 1154 0068 8360     		str	r3, [r0, #8]
 554:Drivers/STM32U0xx_HAL_Driver/Src/stm32u0xx_hal_flash_ex.c ****   }
 1155              		.loc 1 554 5 is_stmt 1 view .LVU411
 554:Drivers/STM32U0xx_HAL_Driver/Src/stm32u0xx_hal_flash_ex.c ****   }
 1156              		.loc 1 554 23 is_stmt 0 view .LVU412
 1157 006a D36A     		ldr	r3, [r2, #44]
 554:Drivers/STM32U0xx_HAL_Driver/Src/stm32u0xx_hal_flash_ex.c ****   }
 1158              		.loc 1 554 71 view .LVU413
 1159 006c 1B0C     		lsrs	r3, r3, #16
 554:Drivers/STM32U0xx_HAL_Driver/Src/stm32u0xx_hal_flash_ex.c ****   }
 1160              		.loc 1 554 20 view .LVU414
 1161 006e C360     		str	r3, [r0, #12]
 1162 0070 CDE7     		b	.L67
 1163              	.L77:
 1164 0072 C046     		.align	2
 1165              	.L76:
 1166 0074 00200240 		.word	1073881088
 1167 0078 00FF4F3F 		.word	1062207232
 1168              	.LBE78:
 1169              	.LBE91:
 1170              		.cfi_endproc
 1171              	.LFE337:
 1173              		.section	.text.HAL_FLASHEx_EnableDebugger,"ax",%progbits
 1174              		.align	1
 1175              		.p2align 2,,3
 1176              		.global	HAL_FLASHEx_EnableDebugger
 1177              		.syntax unified
 1178              		.code	16
 1179              		.thumb_func
 1181              	HAL_FLASHEx_EnableDebugger:
 1182              	.LFB338:
 390:Drivers/STM32U0xx_HAL_Driver/Src/stm32u0xx_hal_flash_ex.c ****   FLASH->ACR |= FLASH_ACR_DBG_SWEN;
 1183              		.loc 1 390 1 is_stmt 1 view -0
 1184              		.cfi_startproc
 1185              		@ args = 0, pretend = 0, frame = 0
ARM GAS  C:\Users\upo\AppData\Local\Temp\ccdB8pc0.s 			page 40


 1186              		@ frame_needed = 0, uses_anonymous_args = 0
 1187              		@ link register save eliminated.
 391:Drivers/STM32U0xx_HAL_Driver/Src/stm32u0xx_hal_flash_ex.c **** }
 1188              		.loc 1 391 3 view .LVU416
 391:Drivers/STM32U0xx_HAL_Driver/Src/stm32u0xx_hal_flash_ex.c **** }
 1189              		.loc 1 391 14 is_stmt 0 view .LVU417
 1190 0000 8023     		movs	r3, #128
 392:Drivers/STM32U0xx_HAL_Driver/Src/stm32u0xx_hal_flash_ex.c **** 
 1191              		.loc 1 392 1 view .LVU418
 1192              		@ sp needed
 391:Drivers/STM32U0xx_HAL_Driver/Src/stm32u0xx_hal_flash_ex.c **** }
 1193              		.loc 1 391 8 view .LVU419
 1194 0002 034A     		ldr	r2, .L79
 391:Drivers/STM32U0xx_HAL_Driver/Src/stm32u0xx_hal_flash_ex.c **** }
 1195              		.loc 1 391 14 view .LVU420
 1196 0004 DB02     		lsls	r3, r3, #11
 391:Drivers/STM32U0xx_HAL_Driver/Src/stm32u0xx_hal_flash_ex.c **** }
 1197              		.loc 1 391 8 view .LVU421
 1198 0006 1168     		ldr	r1, [r2]
 391:Drivers/STM32U0xx_HAL_Driver/Src/stm32u0xx_hal_flash_ex.c **** }
 1199              		.loc 1 391 14 view .LVU422
 1200 0008 0B43     		orrs	r3, r1
 1201 000a 1360     		str	r3, [r2]
 392:Drivers/STM32U0xx_HAL_Driver/Src/stm32u0xx_hal_flash_ex.c **** 
 1202              		.loc 1 392 1 view .LVU423
 1203 000c 7047     		bx	lr
 1204              	.L80:
 1205 000e C046     		.align	2
 1206              	.L79:
 1207 0010 00200240 		.word	1073881088
 1208              		.cfi_endproc
 1209              	.LFE338:
 1211              		.section	.text.HAL_FLASHEx_DisableDebugger,"ax",%progbits
 1212              		.align	1
 1213              		.p2align 2,,3
 1214              		.global	HAL_FLASHEx_DisableDebugger
 1215              		.syntax unified
 1216              		.code	16
 1217              		.thumb_func
 1219              	HAL_FLASHEx_DisableDebugger:
 1220              	.LFB339:
 402:Drivers/STM32U0xx_HAL_Driver/Src/stm32u0xx_hal_flash_ex.c ****   FLASH->ACR &= ~FLASH_ACR_DBG_SWEN;
 1221              		.loc 1 402 1 is_stmt 1 view -0
 1222              		.cfi_startproc
 1223              		@ args = 0, pretend = 0, frame = 0
 1224              		@ frame_needed = 0, uses_anonymous_args = 0
 1225              		@ link register save eliminated.
 403:Drivers/STM32U0xx_HAL_Driver/Src/stm32u0xx_hal_flash_ex.c **** }
 1226              		.loc 1 403 3 view .LVU425
 403:Drivers/STM32U0xx_HAL_Driver/Src/stm32u0xx_hal_flash_ex.c **** }
 1227              		.loc 1 403 8 is_stmt 0 view .LVU426
 1228 0000 024A     		ldr	r2, .L82
 403:Drivers/STM32U0xx_HAL_Driver/Src/stm32u0xx_hal_flash_ex.c **** }
 1229              		.loc 1 403 14 view .LVU427
 1230 0002 0349     		ldr	r1, .L82+4
 403:Drivers/STM32U0xx_HAL_Driver/Src/stm32u0xx_hal_flash_ex.c **** }
 1231              		.loc 1 403 8 view .LVU428
ARM GAS  C:\Users\upo\AppData\Local\Temp\ccdB8pc0.s 			page 41


 1232 0004 1368     		ldr	r3, [r2]
 404:Drivers/STM32U0xx_HAL_Driver/Src/stm32u0xx_hal_flash_ex.c **** 
 1233              		.loc 1 404 1 view .LVU429
 1234              		@ sp needed
 403:Drivers/STM32U0xx_HAL_Driver/Src/stm32u0xx_hal_flash_ex.c **** }
 1235              		.loc 1 403 14 view .LVU430
 1236 0006 0B40     		ands	r3, r1
 1237 0008 1360     		str	r3, [r2]
 404:Drivers/STM32U0xx_HAL_Driver/Src/stm32u0xx_hal_flash_ex.c **** 
 1238              		.loc 1 404 1 view .LVU431
 1239 000a 7047     		bx	lr
 1240              	.L83:
 1241              		.align	2
 1242              	.L82:
 1243 000c 00200240 		.word	1073881088
 1244 0010 FFFFFBFF 		.word	-262145
 1245              		.cfi_endproc
 1246              	.LFE339:
 1248              		.section	.text.HAL_FLASHEx_FlashEmptyCheck,"ax",%progbits
 1249              		.align	1
 1250              		.p2align 2,,3
 1251              		.global	HAL_FLASHEx_FlashEmptyCheck
 1252              		.syntax unified
 1253              		.code	16
 1254              		.thumb_func
 1256              	HAL_FLASHEx_FlashEmptyCheck:
 1257              	.LFB340:
 413:Drivers/STM32U0xx_HAL_Driver/Src/stm32u0xx_hal_flash_ex.c ****   return ((FLASH->ACR & FLASH_ACR_EMPTY));
 1258              		.loc 1 413 1 is_stmt 1 view -0
 1259              		.cfi_startproc
 1260              		@ args = 0, pretend = 0, frame = 0
 1261              		@ frame_needed = 0, uses_anonymous_args = 0
 1262              		@ link register save eliminated.
 414:Drivers/STM32U0xx_HAL_Driver/Src/stm32u0xx_hal_flash_ex.c **** }
 1263              		.loc 1 414 3 view .LVU433
 414:Drivers/STM32U0xx_HAL_Driver/Src/stm32u0xx_hal_flash_ex.c **** }
 1264              		.loc 1 414 17 is_stmt 0 view .LVU434
 1265 0000 024B     		ldr	r3, .L85
 415:Drivers/STM32U0xx_HAL_Driver/Src/stm32u0xx_hal_flash_ex.c **** 
 1266              		.loc 1 415 1 view .LVU435
 1267              		@ sp needed
 414:Drivers/STM32U0xx_HAL_Driver/Src/stm32u0xx_hal_flash_ex.c **** }
 1268              		.loc 1 414 17 view .LVU436
 1269 0002 1868     		ldr	r0, [r3]
 414:Drivers/STM32U0xx_HAL_Driver/Src/stm32u0xx_hal_flash_ex.c **** }
 1270              		.loc 1 414 23 view .LVU437
 1271 0004 8023     		movs	r3, #128
 1272 0006 5B02     		lsls	r3, r3, #9
 1273 0008 1840     		ands	r0, r3
 415:Drivers/STM32U0xx_HAL_Driver/Src/stm32u0xx_hal_flash_ex.c **** 
 1274              		.loc 1 415 1 view .LVU438
 1275 000a 7047     		bx	lr
 1276              	.L86:
 1277              		.align	2
 1278              	.L85:
 1279 000c 00200240 		.word	1073881088
 1280              		.cfi_endproc
ARM GAS  C:\Users\upo\AppData\Local\Temp\ccdB8pc0.s 			page 42


 1281              	.LFE340:
 1283              		.section	.text.HAL_FLASHEx_ForceFlashEmpty,"ax",%progbits
 1284              		.align	1
 1285              		.p2align 2,,3
 1286              		.global	HAL_FLASHEx_ForceFlashEmpty
 1287              		.syntax unified
 1288              		.code	16
 1289              		.thumb_func
 1291              	HAL_FLASHEx_ForceFlashEmpty:
 1292              	.LVL103:
 1293              	.LFB341:
 427:Drivers/STM32U0xx_HAL_Driver/Src/stm32u0xx_hal_flash_ex.c ****   uint32_t acr;
 1294              		.loc 1 427 1 is_stmt 1 view -0
 1295              		.cfi_startproc
 1296              		@ args = 0, pretend = 0, frame = 0
 1297              		@ frame_needed = 0, uses_anonymous_args = 0
 1298              		@ link register save eliminated.
 428:Drivers/STM32U0xx_HAL_Driver/Src/stm32u0xx_hal_flash_ex.c ****   assert_param(IS_FLASH_EMPTY_CHECK(FlashEmpty));
 1299              		.loc 1 428 3 view .LVU440
 429:Drivers/STM32U0xx_HAL_Driver/Src/stm32u0xx_hal_flash_ex.c **** 
 1300              		.loc 1 429 3 view .LVU441
 431:Drivers/STM32U0xx_HAL_Driver/Src/stm32u0xx_hal_flash_ex.c ****   FLASH->ACR = (acr | FlashEmpty);
 1301              		.loc 1 431 3 view .LVU442
 431:Drivers/STM32U0xx_HAL_Driver/Src/stm32u0xx_hal_flash_ex.c ****   FLASH->ACR = (acr | FlashEmpty);
 1302              		.loc 1 431 15 is_stmt 0 view .LVU443
 1303 0000 034A     		ldr	r2, .L88
 431:Drivers/STM32U0xx_HAL_Driver/Src/stm32u0xx_hal_flash_ex.c ****   FLASH->ACR = (acr | FlashEmpty);
 1304              		.loc 1 431 7 view .LVU444
 1305 0002 0449     		ldr	r1, .L88+4
 431:Drivers/STM32U0xx_HAL_Driver/Src/stm32u0xx_hal_flash_ex.c ****   FLASH->ACR = (acr | FlashEmpty);
 1306              		.loc 1 431 15 view .LVU445
 1307 0004 1368     		ldr	r3, [r2]
 1308              	.LVL104:
 432:Drivers/STM32U0xx_HAL_Driver/Src/stm32u0xx_hal_flash_ex.c **** }
 1309              		.loc 1 432 3 is_stmt 1 view .LVU446
 433:Drivers/STM32U0xx_HAL_Driver/Src/stm32u0xx_hal_flash_ex.c **** 
 1310              		.loc 1 433 1 is_stmt 0 view .LVU447
 1311              		@ sp needed
 431:Drivers/STM32U0xx_HAL_Driver/Src/stm32u0xx_hal_flash_ex.c ****   FLASH->ACR = (acr | FlashEmpty);
 1312              		.loc 1 431 7 view .LVU448
 1313 0006 0B40     		ands	r3, r1
 1314              	.LVL105:
 432:Drivers/STM32U0xx_HAL_Driver/Src/stm32u0xx_hal_flash_ex.c **** }
 1315              		.loc 1 432 21 view .LVU449
 1316 0008 0343     		orrs	r3, r0
 1317              	.LVL106:
 432:Drivers/STM32U0xx_HAL_Driver/Src/stm32u0xx_hal_flash_ex.c **** }
 1318              		.loc 1 432 14 view .LVU450
 1319 000a 1360     		str	r3, [r2]
 433:Drivers/STM32U0xx_HAL_Driver/Src/stm32u0xx_hal_flash_ex.c **** 
 1320              		.loc 1 433 1 view .LVU451
 1321 000c 7047     		bx	lr
 1322              	.L89:
 1323 000e C046     		.align	2
 1324              	.L88:
 1325 0010 00200240 		.word	1073881088
 1326 0014 FFFFFEFF 		.word	-65537
ARM GAS  C:\Users\upo\AppData\Local\Temp\ccdB8pc0.s 			page 43


 1327              		.cfi_endproc
 1328              	.LFE341:
 1330              		.section	.text.FLASH_PageErase,"ax",%progbits
 1331              		.align	1
 1332              		.p2align 2,,3
 1333              		.global	FLASH_PageErase
 1334              		.syntax unified
 1335              		.code	16
 1336              		.thumb_func
 1338              	FLASH_PageErase:
 1339              	.LVL107:
 1340              	.LFB343:
 465:Drivers/STM32U0xx_HAL_Driver/Src/stm32u0xx_hal_flash_ex.c ****   uint32_t tmp;
 1341              		.loc 1 465 1 is_stmt 1 view -0
 1342              		.cfi_startproc
 1343              		@ args = 0, pretend = 0, frame = 0
 1344              		@ frame_needed = 0, uses_anonymous_args = 0
 1345              		@ link register save eliminated.
 466:Drivers/STM32U0xx_HAL_Driver/Src/stm32u0xx_hal_flash_ex.c **** 
 1346              		.loc 1 466 3 view .LVU453
 469:Drivers/STM32U0xx_HAL_Driver/Src/stm32u0xx_hal_flash_ex.c ****   assert_param(IS_FLASH_PAGE(Page));
 1347              		.loc 1 469 3 view .LVU454
 470:Drivers/STM32U0xx_HAL_Driver/Src/stm32u0xx_hal_flash_ex.c **** 
 1348              		.loc 1 470 3 view .LVU455
 473:Drivers/STM32U0xx_HAL_Driver/Src/stm32u0xx_hal_flash_ex.c **** 
 1349              		.loc 1 473 3 view .LVU456
 473:Drivers/STM32U0xx_HAL_Driver/Src/stm32u0xx_hal_flash_ex.c **** 
 1350              		.loc 1 473 15 is_stmt 0 view .LVU457
 1351 0000 044A     		ldr	r2, .L91
 473:Drivers/STM32U0xx_HAL_Driver/Src/stm32u0xx_hal_flash_ex.c **** 
 1352              		.loc 1 473 7 view .LVU458
 1353 0002 0549     		ldr	r1, .L91+4
 473:Drivers/STM32U0xx_HAL_Driver/Src/stm32u0xx_hal_flash_ex.c **** 
 1354              		.loc 1 473 15 view .LVU459
 1355 0004 5369     		ldr	r3, [r2, #20]
 1356              	.LVL108:
 476:Drivers/STM32U0xx_HAL_Driver/Src/stm32u0xx_hal_flash_ex.c **** }
 1357              		.loc 1 476 3 is_stmt 1 view .LVU460
 476:Drivers/STM32U0xx_HAL_Driver/Src/stm32u0xx_hal_flash_ex.c **** }
 1358              		.loc 1 476 45 is_stmt 0 view .LVU461
 1359 0006 C000     		lsls	r0, r0, #3
 1360              	.LVL109:
 473:Drivers/STM32U0xx_HAL_Driver/Src/stm32u0xx_hal_flash_ex.c **** 
 1361              		.loc 1 473 7 view .LVU462
 1362 0008 0B40     		ands	r3, r1
 1363              	.LVL110:
 476:Drivers/STM32U0xx_HAL_Driver/Src/stm32u0xx_hal_flash_ex.c **** }
 1364              		.loc 1 476 20 view .LVU463
 1365 000a 1843     		orrs	r0, r3
 1366 000c 034B     		ldr	r3, .L91+8
 1367              	.LVL111:
 477:Drivers/STM32U0xx_HAL_Driver/Src/stm32u0xx_hal_flash_ex.c **** 
 1368              		.loc 1 477 1 view .LVU464
 1369              		@ sp needed
 476:Drivers/STM32U0xx_HAL_Driver/Src/stm32u0xx_hal_flash_ex.c **** }
 1370              		.loc 1 476 20 view .LVU465
 1371 000e 0343     		orrs	r3, r0
ARM GAS  C:\Users\upo\AppData\Local\Temp\ccdB8pc0.s 			page 44


 476:Drivers/STM32U0xx_HAL_Driver/Src/stm32u0xx_hal_flash_ex.c **** }
 1372              		.loc 1 476 13 view .LVU466
 1373 0010 5361     		str	r3, [r2, #20]
 477:Drivers/STM32U0xx_HAL_Driver/Src/stm32u0xx_hal_flash_ex.c **** 
 1374              		.loc 1 477 1 view .LVU467
 1375 0012 7047     		bx	lr
 1376              	.L92:
 1377              		.align	2
 1378              	.L91:
 1379 0014 00200240 		.word	1073881088
 1380 0018 07FCFFFF 		.word	-1017
 1381 001c 02000100 		.word	65538
 1382              		.cfi_endproc
 1383              	.LFE343:
 1385              		.section	.text.FLASH_FlushCaches,"ax",%progbits
 1386              		.align	1
 1387              		.p2align 2,,3
 1388              		.global	FLASH_FlushCaches
 1389              		.syntax unified
 1390              		.code	16
 1391              		.thumb_func
 1393              	FLASH_FlushCaches:
 1394              	.LFB344:
 484:Drivers/STM32U0xx_HAL_Driver/Src/stm32u0xx_hal_flash_ex.c ****   /* Flush instruction cache  */
 1395              		.loc 1 484 1 is_stmt 1 view -0
 1396              		.cfi_startproc
 1397              		@ args = 0, pretend = 0, frame = 0
 1398              		@ frame_needed = 0, uses_anonymous_args = 0
 1399              		@ link register save eliminated.
 486:Drivers/STM32U0xx_HAL_Driver/Src/stm32u0xx_hal_flash_ex.c ****   {
 1400              		.loc 1 486 3 view .LVU469
 486:Drivers/STM32U0xx_HAL_Driver/Src/stm32u0xx_hal_flash_ex.c ****   {
 1401              		.loc 1 486 7 is_stmt 0 view .LVU470
 1402 0000 8022     		movs	r2, #128
 1403 0002 0B4B     		ldr	r3, .L98
 1404 0004 9200     		lsls	r2, r2, #2
 1405 0006 1968     		ldr	r1, [r3]
 486:Drivers/STM32U0xx_HAL_Driver/Src/stm32u0xx_hal_flash_ex.c ****   {
 1406              		.loc 1 486 6 view .LVU471
 1407 0008 1142     		tst	r1, r2
 1408 000a 0FD0     		beq	.L93
 489:Drivers/STM32U0xx_HAL_Driver/Src/stm32u0xx_hal_flash_ex.c ****     /* Reset instruction cache */
 1409              		.loc 1 489 5 is_stmt 1 view .LVU472
 1410 000c 1968     		ldr	r1, [r3]
 1411 000e 0948     		ldr	r0, .L98+4
 1412 0010 0140     		ands	r1, r0
 1413 0012 1960     		str	r1, [r3]
 491:Drivers/STM32U0xx_HAL_Driver/Src/stm32u0xx_hal_flash_ex.c ****     /* Enable instruction cache */
 1414              		.loc 1 491 5 view .LVU473
 491:Drivers/STM32U0xx_HAL_Driver/Src/stm32u0xx_hal_flash_ex.c ****     /* Enable instruction cache */
 1415              		.loc 1 491 5 view .LVU474
 1416 0014 8021     		movs	r1, #128
 1417 0016 1868     		ldr	r0, [r3]
 1418 0018 0901     		lsls	r1, r1, #4
 1419 001a 0143     		orrs	r1, r0
 1420 001c 1960     		str	r1, [r3]
 491:Drivers/STM32U0xx_HAL_Driver/Src/stm32u0xx_hal_flash_ex.c ****     /* Enable instruction cache */
ARM GAS  C:\Users\upo\AppData\Local\Temp\ccdB8pc0.s 			page 45


 1421              		.loc 1 491 5 view .LVU475
 1422 001e 1968     		ldr	r1, [r3]
 1423 0020 0548     		ldr	r0, .L98+8
 1424 0022 0140     		ands	r1, r0
 1425 0024 1960     		str	r1, [r3]
 491:Drivers/STM32U0xx_HAL_Driver/Src/stm32u0xx_hal_flash_ex.c ****     /* Enable instruction cache */
 1426              		.loc 1 491 5 view .LVU476
 493:Drivers/STM32U0xx_HAL_Driver/Src/stm32u0xx_hal_flash_ex.c ****   }
 1427              		.loc 1 493 5 view .LVU477
 1428 0026 1968     		ldr	r1, [r3]
 1429 0028 0A43     		orrs	r2, r1
 1430 002a 1A60     		str	r2, [r3]
 1431              	.L93:
 495:Drivers/STM32U0xx_HAL_Driver/Src/stm32u0xx_hal_flash_ex.c **** 
 1432              		.loc 1 495 1 is_stmt 0 view .LVU478
 1433              		@ sp needed
 1434 002c 7047     		bx	lr
 1435              	.L99:
 1436 002e C046     		.align	2
 1437              	.L98:
 1438 0030 00200240 		.word	1073881088
 1439 0034 FFFDFFFF 		.word	-513
 1440 0038 FFF7FFFF 		.word	-2049
 1441              		.cfi_endproc
 1442              	.LFE344:
 1444              		.section	.text.HAL_FLASH_OB_GetOEMKeyCRC,"ax",%progbits
 1445              		.align	1
 1446              		.p2align 2,,3
 1447              		.global	HAL_FLASH_OB_GetOEMKeyCRC
 1448              		.syntax unified
 1449              		.code	16
 1450              		.thumb_func
 1452              	HAL_FLASH_OB_GetOEMKeyCRC:
 1453              	.LVL112:
 1454              	.LFB353:
 730:Drivers/STM32U0xx_HAL_Driver/Src/stm32u0xx_hal_flash_ex.c ****   }
 731:Drivers/STM32U0xx_HAL_Driver/Src/stm32u0xx_hal_flash_ex.c ****   else
 732:Drivers/STM32U0xx_HAL_Driver/Src/stm32u0xx_hal_flash_ex.c ****   {
 733:Drivers/STM32U0xx_HAL_Driver/Src/stm32u0xx_hal_flash_ex.c ****     /* nothing to do */
 734:Drivers/STM32U0xx_HAL_Driver/Src/stm32u0xx_hal_flash_ex.c ****   }
 735:Drivers/STM32U0xx_HAL_Driver/Src/stm32u0xx_hal_flash_ex.c **** }
 736:Drivers/STM32U0xx_HAL_Driver/Src/stm32u0xx_hal_flash_ex.c **** 
 737:Drivers/STM32U0xx_HAL_Driver/Src/stm32u0xx_hal_flash_ex.c **** /**
 738:Drivers/STM32U0xx_HAL_Driver/Src/stm32u0xx_hal_flash_ex.c ****   * @brief  Get the OEM1/2 keys CRC.
 739:Drivers/STM32U0xx_HAL_Driver/Src/stm32u0xx_hal_flash_ex.c ****   * @param  RDPKeyType specifies the read protection key type.
 740:Drivers/STM32U0xx_HAL_Driver/Src/stm32u0xx_hal_flash_ex.c ****   *         This parameter can be one of the following values:
 741:Drivers/STM32U0xx_HAL_Driver/Src/stm32u0xx_hal_flash_ex.c ****   *            @arg OB_RDP_KEY_OEM1: OEM1 key
 742:Drivers/STM32U0xx_HAL_Driver/Src/stm32u0xx_hal_flash_ex.c ****   *            @arg OB_RDP_KEY_OEM2: OEM2 key
 743:Drivers/STM32U0xx_HAL_Driver/Src/stm32u0xx_hal_flash_ex.c ****   * @param  OEMKeyCRC specifies the OEM keys CRC.
 744:Drivers/STM32U0xx_HAL_Driver/Src/stm32u0xx_hal_flash_ex.c ****   * @retval None
 745:Drivers/STM32U0xx_HAL_Driver/Src/stm32u0xx_hal_flash_ex.c ****   */
 746:Drivers/STM32U0xx_HAL_Driver/Src/stm32u0xx_hal_flash_ex.c **** void HAL_FLASH_OB_GetOEMKeyCRC(uint32_t RDPKeyType, uint32_t *OEMKeyCRC)
 747:Drivers/STM32U0xx_HAL_Driver/Src/stm32u0xx_hal_flash_ex.c **** {
 1455              		.loc 1 747 1 is_stmt 1 view -0
 1456              		.cfi_startproc
 1457              		@ args = 0, pretend = 0, frame = 0
 1458              		@ frame_needed = 0, uses_anonymous_args = 0
ARM GAS  C:\Users\upo\AppData\Local\Temp\ccdB8pc0.s 			page 46


 1459              		@ link register save eliminated.
 748:Drivers/STM32U0xx_HAL_Driver/Src/stm32u0xx_hal_flash_ex.c ****   uint32_t regvalue;
 1460              		.loc 1 748 3 view .LVU480
 749:Drivers/STM32U0xx_HAL_Driver/Src/stm32u0xx_hal_flash_ex.c **** 
 750:Drivers/STM32U0xx_HAL_Driver/Src/stm32u0xx_hal_flash_ex.c ****   regvalue = FLASH->OEMKEYSR;
 1461              		.loc 1 750 3 view .LVU481
 1462              		.loc 1 750 12 is_stmt 0 view .LVU482
 1463 0000 A823     		movs	r3, #168
 1464 0002 074A     		ldr	r2, .L105
 1465 0004 D358     		ldr	r3, [r2, r3]
 1466              	.LVL113:
 751:Drivers/STM32U0xx_HAL_Driver/Src/stm32u0xx_hal_flash_ex.c ****   if (RDPKeyType == OB_RDP_KEY_OEM1)
 1467              		.loc 1 751 3 is_stmt 1 view .LVU483
 1468              		.loc 1 751 6 is_stmt 0 view .LVU484
 1469 0006 0128     		cmp	r0, #1
 1470 0008 06D0     		beq	.L103
 752:Drivers/STM32U0xx_HAL_Driver/Src/stm32u0xx_hal_flash_ex.c ****   {
 753:Drivers/STM32U0xx_HAL_Driver/Src/stm32u0xx_hal_flash_ex.c ****     *OEMKeyCRC = (regvalue & FLASH_OEMKEYSR_OEM1KEYCRC);
 754:Drivers/STM32U0xx_HAL_Driver/Src/stm32u0xx_hal_flash_ex.c ****   }
 755:Drivers/STM32U0xx_HAL_Driver/Src/stm32u0xx_hal_flash_ex.c ****   else if (RDPKeyType == OB_RDP_KEY_OEM2)
 1471              		.loc 1 755 8 is_stmt 1 view .LVU485
 1472              		.loc 1 755 11 is_stmt 0 view .LVU486
 1473 000a 0228     		cmp	r0, #2
 1474 000c 00D0     		beq	.L104
 1475              	.LVL114:
 1476              	.L100:
 756:Drivers/STM32U0xx_HAL_Driver/Src/stm32u0xx_hal_flash_ex.c ****   {
 757:Drivers/STM32U0xx_HAL_Driver/Src/stm32u0xx_hal_flash_ex.c ****     *OEMKeyCRC = (regvalue & FLASH_OEMKEYSR_OEM2KEYCRC) >> FLASH_OEMKEYSR_OEM2KEYCRC_Pos;
 758:Drivers/STM32U0xx_HAL_Driver/Src/stm32u0xx_hal_flash_ex.c ****   }
 759:Drivers/STM32U0xx_HAL_Driver/Src/stm32u0xx_hal_flash_ex.c ****   else
 760:Drivers/STM32U0xx_HAL_Driver/Src/stm32u0xx_hal_flash_ex.c ****   {
 761:Drivers/STM32U0xx_HAL_Driver/Src/stm32u0xx_hal_flash_ex.c ****     /* Empty statement (to be compliant MISRA 15.7) */
 762:Drivers/STM32U0xx_HAL_Driver/Src/stm32u0xx_hal_flash_ex.c ****   }
 763:Drivers/STM32U0xx_HAL_Driver/Src/stm32u0xx_hal_flash_ex.c **** }
 1477              		.loc 1 763 1 view .LVU487
 1478              		@ sp needed
 1479 000e 7047     		bx	lr
 1480              	.LVL115:
 1481              	.L104:
 757:Drivers/STM32U0xx_HAL_Driver/Src/stm32u0xx_hal_flash_ex.c ****   }
 1482              		.loc 1 757 5 is_stmt 1 view .LVU488
 757:Drivers/STM32U0xx_HAL_Driver/Src/stm32u0xx_hal_flash_ex.c ****   }
 1483              		.loc 1 757 57 is_stmt 0 view .LVU489
 1484 0010 1B02     		lsls	r3, r3, #8
 1485              	.LVL116:
 757:Drivers/STM32U0xx_HAL_Driver/Src/stm32u0xx_hal_flash_ex.c ****   }
 1486              		.loc 1 757 57 view .LVU490
 1487 0012 1B0E     		lsrs	r3, r3, #24
 757:Drivers/STM32U0xx_HAL_Driver/Src/stm32u0xx_hal_flash_ex.c ****   }
 1488              		.loc 1 757 16 view .LVU491
 1489 0014 0B60     		str	r3, [r1]
 762:Drivers/STM32U0xx_HAL_Driver/Src/stm32u0xx_hal_flash_ex.c **** }
 1490              		.loc 1 762 3 is_stmt 1 view .LVU492
 1491              		.loc 1 763 1 is_stmt 0 view .LVU493
 1492 0016 FAE7     		b	.L100
 1493              	.LVL117:
 1494              	.L103:
ARM GAS  C:\Users\upo\AppData\Local\Temp\ccdB8pc0.s 			page 47


 753:Drivers/STM32U0xx_HAL_Driver/Src/stm32u0xx_hal_flash_ex.c ****   }
 1495              		.loc 1 753 5 is_stmt 1 view .LVU494
 753:Drivers/STM32U0xx_HAL_Driver/Src/stm32u0xx_hal_flash_ex.c ****   }
 1496              		.loc 1 753 28 is_stmt 0 view .LVU495
 1497 0018 FF22     		movs	r2, #255
 1498 001a 1340     		ands	r3, r2
 1499              	.LVL118:
 753:Drivers/STM32U0xx_HAL_Driver/Src/stm32u0xx_hal_flash_ex.c ****   }
 1500              		.loc 1 753 16 view .LVU496
 1501 001c 0B60     		str	r3, [r1]
 1502 001e F6E7     		b	.L100
 1503              	.L106:
 1504              		.align	2
 1505              	.L105:
 1506 0020 00200240 		.word	1073881088
 1507              		.cfi_endproc
 1508              	.LFE353:
 1510              		.section	.text.HAL_FLASHEx_EnableHDPProtection,"ax",%progbits
 1511              		.align	1
 1512              		.p2align 2,,3
 1513              		.global	HAL_FLASHEx_EnableHDPProtection
 1514              		.syntax unified
 1515              		.code	16
 1516              		.thumb_func
 1518              	HAL_FLASHEx_EnableHDPProtection:
 1519              	.LVL119:
 1520              	.LFB354:
 764:Drivers/STM32U0xx_HAL_Driver/Src/stm32u0xx_hal_flash_ex.c **** 
 765:Drivers/STM32U0xx_HAL_Driver/Src/stm32u0xx_hal_flash_ex.c **** /**
 766:Drivers/STM32U0xx_HAL_Driver/Src/stm32u0xx_hal_flash_ex.c ****   * @brief  Enable the HDP Protection area .
 767:Drivers/STM32U0xx_HAL_Driver/Src/stm32u0xx_hal_flash_ex.c ****   * @param  Banks specifies the bank number
 768:Drivers/STM32U0xx_HAL_Driver/Src/stm32u0xx_hal_flash_ex.c ****   *         this parameter can be:
 769:Drivers/STM32U0xx_HAL_Driver/Src/stm32u0xx_hal_flash_ex.c ****   *         @arg @ref FLASH_BANK_1
 770:Drivers/STM32U0xx_HAL_Driver/Src/stm32u0xx_hal_flash_ex.c ****   * @retval None
 771:Drivers/STM32U0xx_HAL_Driver/Src/stm32u0xx_hal_flash_ex.c ****   */
 772:Drivers/STM32U0xx_HAL_Driver/Src/stm32u0xx_hal_flash_ex.c **** void HAL_FLASHEx_EnableHDPProtection(uint32_t Banks)
 773:Drivers/STM32U0xx_HAL_Driver/Src/stm32u0xx_hal_flash_ex.c **** {
 1521              		.loc 1 773 1 is_stmt 1 view -0
 1522              		.cfi_startproc
 1523              		@ args = 0, pretend = 0, frame = 0
 1524              		@ frame_needed = 0, uses_anonymous_args = 0
 1525              		@ link register save eliminated.
 774:Drivers/STM32U0xx_HAL_Driver/Src/stm32u0xx_hal_flash_ex.c ****   assert_param(IS_FLASH_BANK(Banks));
 1526              		.loc 1 774 3 view .LVU498
 775:Drivers/STM32U0xx_HAL_Driver/Src/stm32u0xx_hal_flash_ex.c **** 
 776:Drivers/STM32U0xx_HAL_Driver/Src/stm32u0xx_hal_flash_ex.c ****   MODIFY_REG(FLASH->HDPCR, FLASH_HDPCR_HDP1_ACCDIS, FLASH_HDPCR_HDP1_ACCDIS);
 1527              		.loc 1 776 3 view .LVU499
 1528 0000 AC22     		movs	r2, #172
 777:Drivers/STM32U0xx_HAL_Driver/Src/stm32u0xx_hal_flash_ex.c **** }
 1529              		.loc 1 777 1 is_stmt 0 view .LVU500
 1530              		@ sp needed
 776:Drivers/STM32U0xx_HAL_Driver/Src/stm32u0xx_hal_flash_ex.c **** }
 1531              		.loc 1 776 3 view .LVU501
 1532 0002 FF20     		movs	r0, #255
 1533              	.LVL120:
 776:Drivers/STM32U0xx_HAL_Driver/Src/stm32u0xx_hal_flash_ex.c **** }
 1534              		.loc 1 776 3 view .LVU502
ARM GAS  C:\Users\upo\AppData\Local\Temp\ccdB8pc0.s 			page 48


 1535 0004 0249     		ldr	r1, .L108
 1536 0006 8B58     		ldr	r3, [r1, r2]
 1537 0008 0343     		orrs	r3, r0
 1538 000a 8B50     		str	r3, [r1, r2]
 1539              		.loc 1 777 1 view .LVU503
 1540 000c 7047     		bx	lr
 1541              	.L109:
 1542 000e C046     		.align	2
 1543              	.L108:
 1544 0010 00200240 		.word	1073881088
 1545              		.cfi_endproc
 1546              	.LFE354:
 1548              		.section	.text.HAL_FLASHEx_IsEnabledHDPProtection,"ax",%progbits
 1549              		.align	1
 1550              		.p2align 2,,3
 1551              		.global	HAL_FLASHEx_IsEnabledHDPProtection
 1552              		.syntax unified
 1553              		.code	16
 1554              		.thumb_func
 1556              	HAL_FLASHEx_IsEnabledHDPProtection:
 1557              	.LFB355:
 778:Drivers/STM32U0xx_HAL_Driver/Src/stm32u0xx_hal_flash_ex.c **** 
 779:Drivers/STM32U0xx_HAL_Driver/Src/stm32u0xx_hal_flash_ex.c **** /**
 780:Drivers/STM32U0xx_HAL_Driver/Src/stm32u0xx_hal_flash_ex.c ****   * @brief  Check if the HDP area protection enabled.
 781:Drivers/STM32U0xx_HAL_Driver/Src/stm32u0xx_hal_flash_ex.c ****   * @retval returns 1 if the Protection is enabled
 782:Drivers/STM32U0xx_HAL_Driver/Src/stm32u0xx_hal_flash_ex.c ****   *                 0 if the protection is disabled
 783:Drivers/STM32U0xx_HAL_Driver/Src/stm32u0xx_hal_flash_ex.c ****   */
 784:Drivers/STM32U0xx_HAL_Driver/Src/stm32u0xx_hal_flash_ex.c **** uint32_t HAL_FLASHEx_IsEnabledHDPProtection(void)
 785:Drivers/STM32U0xx_HAL_Driver/Src/stm32u0xx_hal_flash_ex.c **** {
 1558              		.loc 1 785 1 is_stmt 1 view -0
 1559              		.cfi_startproc
 1560              		@ args = 0, pretend = 0, frame = 0
 1561              		@ frame_needed = 0, uses_anonymous_args = 0
 1562              		@ link register save eliminated.
 786:Drivers/STM32U0xx_HAL_Driver/Src/stm32u0xx_hal_flash_ex.c ****   return ((READ_BIT(FLASH->HDPCR, FLASH_HDPCR_HDP1_ACCDIS) == FLASH_HDPCR_HDP1_ACCDIS) ? 0UL : 1UL)
 1563              		.loc 1 786 3 view .LVU505
 1564              		.loc 1 786 12 is_stmt 0 view .LVU506
 1565 0000 AC23     		movs	r3, #172
 787:Drivers/STM32U0xx_HAL_Driver/Src/stm32u0xx_hal_flash_ex.c **** }
 1566              		.loc 1 787 1 view .LVU507
 1567              		@ sp needed
 786:Drivers/STM32U0xx_HAL_Driver/Src/stm32u0xx_hal_flash_ex.c ****   return ((READ_BIT(FLASH->HDPCR, FLASH_HDPCR_HDP1_ACCDIS) == FLASH_HDPCR_HDP1_ACCDIS) ? 0UL : 1UL)
 1568              		.loc 1 786 12 view .LVU508
 1569 0002 FF20     		movs	r0, #255
 1570 0004 034A     		ldr	r2, .L111
 1571 0006 D358     		ldr	r3, [r2, r3]
 1572 0008 1840     		ands	r0, r3
 786:Drivers/STM32U0xx_HAL_Driver/Src/stm32u0xx_hal_flash_ex.c ****   return ((READ_BIT(FLASH->HDPCR, FLASH_HDPCR_HDP1_ACCDIS) == FLASH_HDPCR_HDP1_ACCDIS) ? 0UL : 1UL)
 1573              		.loc 1 786 94 view .LVU509
 1574 000a FF38     		subs	r0, r0, #255
 1575 000c 431E     		subs	r3, r0, #1
 1576 000e 9841     		sbcs	r0, r0, r3
 1577              		.loc 1 787 1 view .LVU510
 1578 0010 7047     		bx	lr
 1579              	.L112:
 1580 0012 C046     		.align	2
 1581              	.L111:
ARM GAS  C:\Users\upo\AppData\Local\Temp\ccdB8pc0.s 			page 49


 1582 0014 00200240 		.word	1073881088
 1583              		.cfi_endproc
 1584              	.LFE355:
 1586              		.section	.text.HAL_FLASHEx_ConfigHDPExtension,"ax",%progbits
 1587              		.align	1
 1588              		.p2align 2,,3
 1589              		.global	HAL_FLASHEx_ConfigHDPExtension
 1590              		.syntax unified
 1591              		.code	16
 1592              		.thumb_func
 1594              	HAL_FLASHEx_ConfigHDPExtension:
 1595              	.LVL121:
 1596              	.LFB356:
 788:Drivers/STM32U0xx_HAL_Driver/Src/stm32u0xx_hal_flash_ex.c **** /**
 789:Drivers/STM32U0xx_HAL_Driver/Src/stm32u0xx_hal_flash_ex.c ****   * @brief  HDP extension area configuration.
 790:Drivers/STM32U0xx_HAL_Driver/Src/stm32u0xx_hal_flash_ex.c ****   * @param  pHDPExtension pointer to an FLASH_HDPExtentionTypeDef structure that
 791:Drivers/STM32U0xx_HAL_Driver/Src/stm32u0xx_hal_flash_ex.c ****   *                       contains the configuration information.
 792:Drivers/STM32U0xx_HAL_Driver/Src/stm32u0xx_hal_flash_ex.c ****   * @retval None
 793:Drivers/STM32U0xx_HAL_Driver/Src/stm32u0xx_hal_flash_ex.c ****   */
 794:Drivers/STM32U0xx_HAL_Driver/Src/stm32u0xx_hal_flash_ex.c **** void HAL_FLASHEx_ConfigHDPExtension(const FLASH_HDPExtensionTypeDef *pHDPExtension)
 795:Drivers/STM32U0xx_HAL_Driver/Src/stm32u0xx_hal_flash_ex.c **** {
 1597              		.loc 1 795 1 is_stmt 1 view -0
 1598              		.cfi_startproc
 1599              		@ args = 0, pretend = 0, frame = 0
 1600              		@ frame_needed = 0, uses_anonymous_args = 0
 796:Drivers/STM32U0xx_HAL_Driver/Src/stm32u0xx_hal_flash_ex.c ****   assert_param(IS_FLASH_PAGE(pHDPExtension->NbPages));
 1601              		.loc 1 796 3 view .LVU512
 797:Drivers/STM32U0xx_HAL_Driver/Src/stm32u0xx_hal_flash_ex.c ****   assert_param(IS_OB_HDPEXT_CONFIG(pHDPExtension->Status));
 1602              		.loc 1 797 3 view .LVU513
 798:Drivers/STM32U0xx_HAL_Driver/Src/stm32u0xx_hal_flash_ex.c **** 
 799:Drivers/STM32U0xx_HAL_Driver/Src/stm32u0xx_hal_flash_ex.c ****   MODIFY_REG(FLASH->HDPEXTR, FLASH_HDPEXTR_HDP1_EXT, (pHDPExtension->NbPages));
 1603              		.loc 1 799 3 view .LVU514
 1604 0000 B021     		movs	r1, #176
 795:Drivers/STM32U0xx_HAL_Driver/Src/stm32u0xx_hal_flash_ex.c ****   assert_param(IS_FLASH_PAGE(pHDPExtension->NbPages));
 1605              		.loc 1 795 1 is_stmt 0 view .LVU515
 1606 0002 10B5     		push	{r4, lr}
 1607              	.LCFI4:
 1608              		.cfi_def_cfa_offset 8
 1609              		.cfi_offset 4, -8
 1610              		.cfi_offset 14, -4
 1611              		.loc 1 799 3 view .LVU516
 1612 0004 3F24     		movs	r4, #63
 800:Drivers/STM32U0xx_HAL_Driver/Src/stm32u0xx_hal_flash_ex.c ****   MODIFY_REG(FLASH->HDPCR, FLASH_HDPCR_HDP1EXT_ACCDIS, (pHDPExtension->Status));
 801:Drivers/STM32U0xx_HAL_Driver/Src/stm32u0xx_hal_flash_ex.c **** }
 1613              		.loc 1 801 1 view .LVU517
 1614              		@ sp needed
 799:Drivers/STM32U0xx_HAL_Driver/Src/stm32u0xx_hal_flash_ex.c ****   MODIFY_REG(FLASH->HDPCR, FLASH_HDPCR_HDP1EXT_ACCDIS, (pHDPExtension->Status));
 1615              		.loc 1 799 3 view .LVU518
 1616 0006 074A     		ldr	r2, .L114
 1617 0008 5358     		ldr	r3, [r2, r1]
 1618 000a A343     		bics	r3, r4
 1619 000c 4468     		ldr	r4, [r0, #4]
 1620 000e 2343     		orrs	r3, r4
 1621 0010 5350     		str	r3, [r2, r1]
 800:Drivers/STM32U0xx_HAL_Driver/Src/stm32u0xx_hal_flash_ex.c ****   MODIFY_REG(FLASH->HDPCR, FLASH_HDPCR_HDP1EXT_ACCDIS, (pHDPExtension->Status));
 1622              		.loc 1 800 3 is_stmt 1 view .LVU519
 1623 0012 0439     		subs	r1, r1, #4
ARM GAS  C:\Users\upo\AppData\Local\Temp\ccdB8pc0.s 			page 50


 1624 0014 5358     		ldr	r3, [r2, r1]
 1625 0016 044C     		ldr	r4, .L114+4
 1626 0018 0068     		ldr	r0, [r0]
 1627              	.LVL122:
 800:Drivers/STM32U0xx_HAL_Driver/Src/stm32u0xx_hal_flash_ex.c ****   MODIFY_REG(FLASH->HDPCR, FLASH_HDPCR_HDP1EXT_ACCDIS, (pHDPExtension->Status));
 1628              		.loc 1 800 3 is_stmt 0 view .LVU520
 1629 001a 2340     		ands	r3, r4
 1630 001c 0343     		orrs	r3, r0
 1631 001e 5350     		str	r3, [r2, r1]
 1632              		.loc 1 801 1 view .LVU521
 1633 0020 10BD     		pop	{r4, pc}
 1634              	.L115:
 1635 0022 C046     		.align	2
 1636              	.L114:
 1637 0024 00200240 		.word	1073881088
 1638 0028 FFFF00FF 		.word	-16711681
 1639              		.cfi_endproc
 1640              	.LFE356:
 1642              		.section	.text.HAL_FLASHEx_GetHDPExtensionConfig,"ax",%progbits
 1643              		.align	1
 1644              		.p2align 2,,3
 1645              		.global	HAL_FLASHEx_GetHDPExtensionConfig
 1646              		.syntax unified
 1647              		.code	16
 1648              		.thumb_func
 1650              	HAL_FLASHEx_GetHDPExtensionConfig:
 1651              	.LVL123:
 1652              	.LFB357:
 802:Drivers/STM32U0xx_HAL_Driver/Src/stm32u0xx_hal_flash_ex.c **** /**
 803:Drivers/STM32U0xx_HAL_Driver/Src/stm32u0xx_hal_flash_ex.c ****   * @brief  Get HDP extension configuration.
 804:Drivers/STM32U0xx_HAL_Driver/Src/stm32u0xx_hal_flash_ex.c ****   * @param  pHDPExtension pointer to an FLASH_HDPExtentionTypeDef structure that
 805:Drivers/STM32U0xx_HAL_Driver/Src/stm32u0xx_hal_flash_ex.c ****   *                       contains the configuration information.
 806:Drivers/STM32U0xx_HAL_Driver/Src/stm32u0xx_hal_flash_ex.c ****   * @retval None
 807:Drivers/STM32U0xx_HAL_Driver/Src/stm32u0xx_hal_flash_ex.c ****   */
 808:Drivers/STM32U0xx_HAL_Driver/Src/stm32u0xx_hal_flash_ex.c **** void HAL_FLASHEx_GetHDPExtensionConfig(FLASH_HDPExtensionTypeDef *pHDPExtension)
 809:Drivers/STM32U0xx_HAL_Driver/Src/stm32u0xx_hal_flash_ex.c **** {
 1653              		.loc 1 809 1 is_stmt 1 view -0
 1654              		.cfi_startproc
 1655              		@ args = 0, pretend = 0, frame = 0
 1656              		@ frame_needed = 0, uses_anonymous_args = 0
 1657              		@ link register save eliminated.
 810:Drivers/STM32U0xx_HAL_Driver/Src/stm32u0xx_hal_flash_ex.c ****   uint32_t regvalue;
 1658              		.loc 1 810 3 view .LVU523
 811:Drivers/STM32U0xx_HAL_Driver/Src/stm32u0xx_hal_flash_ex.c **** 
 812:Drivers/STM32U0xx_HAL_Driver/Src/stm32u0xx_hal_flash_ex.c ****   regvalue = FLASH->HDPEXTR;
 1659              		.loc 1 812 3 view .LVU524
 1660              		.loc 1 812 12 is_stmt 0 view .LVU525
 1661 0000 B023     		movs	r3, #176
 813:Drivers/STM32U0xx_HAL_Driver/Src/stm32u0xx_hal_flash_ex.c ****   pHDPExtension->NbPages = regvalue & FLASH_HDPEXTR_HDP1_EXT;
 814:Drivers/STM32U0xx_HAL_Driver/Src/stm32u0xx_hal_flash_ex.c ****   regvalue = FLASH->HDPCR;
 815:Drivers/STM32U0xx_HAL_Driver/Src/stm32u0xx_hal_flash_ex.c ****   pHDPExtension->Status = regvalue & FLASH_HDPCR_HDP1EXT_ACCDIS;
 816:Drivers/STM32U0xx_HAL_Driver/Src/stm32u0xx_hal_flash_ex.c **** }
 1662              		.loc 1 816 1 view .LVU526
 1663              		@ sp needed
 812:Drivers/STM32U0xx_HAL_Driver/Src/stm32u0xx_hal_flash_ex.c ****   pHDPExtension->NbPages = regvalue & FLASH_HDPEXTR_HDP1_EXT;
 1664              		.loc 1 812 12 view .LVU527
 1665 0002 064A     		ldr	r2, .L117
ARM GAS  C:\Users\upo\AppData\Local\Temp\ccdB8pc0.s 			page 51


 1666 0004 D158     		ldr	r1, [r2, r3]
 1667              	.LVL124:
 813:Drivers/STM32U0xx_HAL_Driver/Src/stm32u0xx_hal_flash_ex.c ****   pHDPExtension->NbPages = regvalue & FLASH_HDPEXTR_HDP1_EXT;
 1668              		.loc 1 813 3 is_stmt 1 view .LVU528
 813:Drivers/STM32U0xx_HAL_Driver/Src/stm32u0xx_hal_flash_ex.c ****   pHDPExtension->NbPages = regvalue & FLASH_HDPEXTR_HDP1_EXT;
 1669              		.loc 1 813 37 is_stmt 0 view .LVU529
 1670 0006 713B     		subs	r3, r3, #113
 1671 0008 0B40     		ands	r3, r1
 813:Drivers/STM32U0xx_HAL_Driver/Src/stm32u0xx_hal_flash_ex.c ****   pHDPExtension->NbPages = regvalue & FLASH_HDPEXTR_HDP1_EXT;
 1672              		.loc 1 813 26 view .LVU530
 1673 000a 4360     		str	r3, [r0, #4]
 814:Drivers/STM32U0xx_HAL_Driver/Src/stm32u0xx_hal_flash_ex.c ****   pHDPExtension->Status = regvalue & FLASH_HDPCR_HDP1EXT_ACCDIS;
 1674              		.loc 1 814 3 is_stmt 1 view .LVU531
 814:Drivers/STM32U0xx_HAL_Driver/Src/stm32u0xx_hal_flash_ex.c ****   pHDPExtension->Status = regvalue & FLASH_HDPCR_HDP1EXT_ACCDIS;
 1675              		.loc 1 814 12 is_stmt 0 view .LVU532
 1676 000c AC23     		movs	r3, #172
 1677 000e D358     		ldr	r3, [r2, r3]
 1678              	.LVL125:
 815:Drivers/STM32U0xx_HAL_Driver/Src/stm32u0xx_hal_flash_ex.c **** }
 1679              		.loc 1 815 3 is_stmt 1 view .LVU533
 815:Drivers/STM32U0xx_HAL_Driver/Src/stm32u0xx_hal_flash_ex.c **** }
 1680              		.loc 1 815 36 is_stmt 0 view .LVU534
 1681 0010 FF22     		movs	r2, #255
 1682 0012 1204     		lsls	r2, r2, #16
 1683 0014 1340     		ands	r3, r2
 1684              	.LVL126:
 815:Drivers/STM32U0xx_HAL_Driver/Src/stm32u0xx_hal_flash_ex.c **** }
 1685              		.loc 1 815 25 view .LVU535
 1686 0016 0360     		str	r3, [r0]
 1687              		.loc 1 816 1 view .LVU536
 1688 0018 7047     		bx	lr
 1689              	.L118:
 1690 001a C046     		.align	2
 1691              	.L117:
 1692 001c 00200240 		.word	1073881088
 1693              		.cfi_endproc
 1694              	.LFE357:
 1696              		.text
 1697              	.Letext0:
 1698              		.file 2 "C:\\ST\\STM32CubeCLT_1.15.0\\GNU-tools-for-STM32\\bin/../lib/gcc/arm-none-eabi/12.3.1/../
 1699              		.file 3 "C:\\ST\\STM32CubeCLT_1.15.0\\GNU-tools-for-STM32\\bin/../lib/gcc/arm-none-eabi/12.3.1/../
 1700              		.file 4 "Drivers/CMSIS/Device/ST/STM32U0xx/Include/stm32u073xx.h"
 1701              		.file 5 "Drivers/STM32U0xx_HAL_Driver/Inc/stm32u0xx_hal_def.h"
 1702              		.file 6 "Drivers/STM32U0xx_HAL_Driver/Inc/stm32u0xx_hal_flash.h"
 1703              		.file 7 "Drivers/STM32U0xx_HAL_Driver/Inc/stm32u0xx_ll_dma.h"
ARM GAS  C:\Users\upo\AppData\Local\Temp\ccdB8pc0.s 			page 52

