ARM GAS  C:\Users\upo\AppData\Local\Temp\ccMLO1b7.s 			page 1


   1              		.cpu cortex-m0plus
   2              		.arch armv6s-m
   3              		.fpu softvfp
   4              		.eabi_attribute 20, 1
   5              		.eabi_attribute 21, 1
   6              		.eabi_attribute 23, 3
   7              		.eabi_attribute 24, 1
   8              		.eabi_attribute 25, 1
   9              		.eabi_attribute 26, 1
  10              		.eabi_attribute 30, 2
  11              		.eabi_attribute 34, 0
  12              		.eabi_attribute 18, 4
  13              		.file	"stm32u0xx_hal_rcc_ex.c"
  14              		.text
  15              	.Ltext0:
  16              		.cfi_sections	.debug_frame
  17              		.file 1 "Drivers/STM32U0xx_HAL_Driver/Src/stm32u0xx_hal_rcc_ex.c"
  18              		.section	.text.HAL_RCCEx_PeriphCLKConfig,"ax",%progbits
  19              		.align	1
  20              		.p2align 2,,3
  21              		.global	HAL_RCCEx_PeriphCLKConfig
  22              		.syntax unified
  23              		.code	16
  24              		.thumb_func
  26              	HAL_RCCEx_PeriphCLKConfig:
  27              	.LVL0:
  28              	.LFB334:
   1:Drivers/STM32U0xx_HAL_Driver/Src/stm32u0xx_hal_rcc_ex.c **** /**
   2:Drivers/STM32U0xx_HAL_Driver/Src/stm32u0xx_hal_rcc_ex.c ****   ******************************************************************************
   3:Drivers/STM32U0xx_HAL_Driver/Src/stm32u0xx_hal_rcc_ex.c ****   * @file    stm32u0xx_hal_rcc_ex.c
   4:Drivers/STM32U0xx_HAL_Driver/Src/stm32u0xx_hal_rcc_ex.c ****   * @author  MCD Application Team
   5:Drivers/STM32U0xx_HAL_Driver/Src/stm32u0xx_hal_rcc_ex.c ****   * @brief   Extended RCC HAL module driver.
   6:Drivers/STM32U0xx_HAL_Driver/Src/stm32u0xx_hal_rcc_ex.c ****   *          This file provides firmware functions to manage the following
   7:Drivers/STM32U0xx_HAL_Driver/Src/stm32u0xx_hal_rcc_ex.c ****   *          functionalities RCC extended peripheral:
   8:Drivers/STM32U0xx_HAL_Driver/Src/stm32u0xx_hal_rcc_ex.c ****   *           + Extended Peripheral Control functions
   9:Drivers/STM32U0xx_HAL_Driver/Src/stm32u0xx_hal_rcc_ex.c ****   *           + Extended Clock management functions
  10:Drivers/STM32U0xx_HAL_Driver/Src/stm32u0xx_hal_rcc_ex.c ****   *           + Extended Clock Recovery System Control functions
  11:Drivers/STM32U0xx_HAL_Driver/Src/stm32u0xx_hal_rcc_ex.c ****   *
  12:Drivers/STM32U0xx_HAL_Driver/Src/stm32u0xx_hal_rcc_ex.c ****   ******************************************************************************
  13:Drivers/STM32U0xx_HAL_Driver/Src/stm32u0xx_hal_rcc_ex.c ****   * @attention
  14:Drivers/STM32U0xx_HAL_Driver/Src/stm32u0xx_hal_rcc_ex.c ****   *
  15:Drivers/STM32U0xx_HAL_Driver/Src/stm32u0xx_hal_rcc_ex.c ****   * Copyright (c) 2023 STMicroelectronics.
  16:Drivers/STM32U0xx_HAL_Driver/Src/stm32u0xx_hal_rcc_ex.c ****   * All rights reserved.
  17:Drivers/STM32U0xx_HAL_Driver/Src/stm32u0xx_hal_rcc_ex.c ****   *
  18:Drivers/STM32U0xx_HAL_Driver/Src/stm32u0xx_hal_rcc_ex.c ****   * This software is licensed under terms that can be found in the LICENSE file
  19:Drivers/STM32U0xx_HAL_Driver/Src/stm32u0xx_hal_rcc_ex.c ****   * in the root directory of this software component.
  20:Drivers/STM32U0xx_HAL_Driver/Src/stm32u0xx_hal_rcc_ex.c ****   * If no LICENSE file comes with this software, it is provided AS-IS.
  21:Drivers/STM32U0xx_HAL_Driver/Src/stm32u0xx_hal_rcc_ex.c ****   *
  22:Drivers/STM32U0xx_HAL_Driver/Src/stm32u0xx_hal_rcc_ex.c ****   ******************************************************************************
  23:Drivers/STM32U0xx_HAL_Driver/Src/stm32u0xx_hal_rcc_ex.c ****   */
  24:Drivers/STM32U0xx_HAL_Driver/Src/stm32u0xx_hal_rcc_ex.c **** 
  25:Drivers/STM32U0xx_HAL_Driver/Src/stm32u0xx_hal_rcc_ex.c **** /* Includes ------------------------------------------------------------------*/
  26:Drivers/STM32U0xx_HAL_Driver/Src/stm32u0xx_hal_rcc_ex.c **** #include "stm32u0xx_hal.h"
  27:Drivers/STM32U0xx_HAL_Driver/Src/stm32u0xx_hal_rcc_ex.c **** 
  28:Drivers/STM32U0xx_HAL_Driver/Src/stm32u0xx_hal_rcc_ex.c **** /** @addtogroup STM32U0xx_HAL_Driver
  29:Drivers/STM32U0xx_HAL_Driver/Src/stm32u0xx_hal_rcc_ex.c ****   * @{
  30:Drivers/STM32U0xx_HAL_Driver/Src/stm32u0xx_hal_rcc_ex.c ****   */
ARM GAS  C:\Users\upo\AppData\Local\Temp\ccMLO1b7.s 			page 2


  31:Drivers/STM32U0xx_HAL_Driver/Src/stm32u0xx_hal_rcc_ex.c **** 
  32:Drivers/STM32U0xx_HAL_Driver/Src/stm32u0xx_hal_rcc_ex.c **** /** @defgroup RCCEx RCCEx
  33:Drivers/STM32U0xx_HAL_Driver/Src/stm32u0xx_hal_rcc_ex.c ****   * @brief RCC Extended HAL module driver
  34:Drivers/STM32U0xx_HAL_Driver/Src/stm32u0xx_hal_rcc_ex.c ****   * @{
  35:Drivers/STM32U0xx_HAL_Driver/Src/stm32u0xx_hal_rcc_ex.c ****   */
  36:Drivers/STM32U0xx_HAL_Driver/Src/stm32u0xx_hal_rcc_ex.c **** 
  37:Drivers/STM32U0xx_HAL_Driver/Src/stm32u0xx_hal_rcc_ex.c **** #ifdef HAL_RCC_MODULE_ENABLED
  38:Drivers/STM32U0xx_HAL_Driver/Src/stm32u0xx_hal_rcc_ex.c **** 
  39:Drivers/STM32U0xx_HAL_Driver/Src/stm32u0xx_hal_rcc_ex.c **** /* Private typedef -----------------------------------------------------------*/
  40:Drivers/STM32U0xx_HAL_Driver/Src/stm32u0xx_hal_rcc_ex.c **** /* Private defines -----------------------------------------------------------*/
  41:Drivers/STM32U0xx_HAL_Driver/Src/stm32u0xx_hal_rcc_ex.c **** /** @defgroup RCCEx_Private_Constants RCCEx Private Constants
  42:Drivers/STM32U0xx_HAL_Driver/Src/stm32u0xx_hal_rcc_ex.c ****   * @{
  43:Drivers/STM32U0xx_HAL_Driver/Src/stm32u0xx_hal_rcc_ex.c ****   */
  44:Drivers/STM32U0xx_HAL_Driver/Src/stm32u0xx_hal_rcc_ex.c **** #define __LSCO_CLK_ENABLE()       __HAL_RCC_GPIOA_CLK_ENABLE()
  45:Drivers/STM32U0xx_HAL_Driver/Src/stm32u0xx_hal_rcc_ex.c **** #define LSCO_GPIO_PORT            GPIOA
  46:Drivers/STM32U0xx_HAL_Driver/Src/stm32u0xx_hal_rcc_ex.c **** #define LSCO_PIN                  GPIO_PIN_2
  47:Drivers/STM32U0xx_HAL_Driver/Src/stm32u0xx_hal_rcc_ex.c **** 
  48:Drivers/STM32U0xx_HAL_Driver/Src/stm32u0xx_hal_rcc_ex.c **** /**
  49:Drivers/STM32U0xx_HAL_Driver/Src/stm32u0xx_hal_rcc_ex.c ****   * @}
  50:Drivers/STM32U0xx_HAL_Driver/Src/stm32u0xx_hal_rcc_ex.c ****   */
  51:Drivers/STM32U0xx_HAL_Driver/Src/stm32u0xx_hal_rcc_ex.c **** 
  52:Drivers/STM32U0xx_HAL_Driver/Src/stm32u0xx_hal_rcc_ex.c **** /* Private macros ------------------------------------------------------------*/
  53:Drivers/STM32U0xx_HAL_Driver/Src/stm32u0xx_hal_rcc_ex.c **** /* Private variables ---------------------------------------------------------*/
  54:Drivers/STM32U0xx_HAL_Driver/Src/stm32u0xx_hal_rcc_ex.c **** /* Private function prototypes -----------------------------------------------*/
  55:Drivers/STM32U0xx_HAL_Driver/Src/stm32u0xx_hal_rcc_ex.c **** /** @defgroup RCCEx_Private_Functions RCCEx Private Functions
  56:Drivers/STM32U0xx_HAL_Driver/Src/stm32u0xx_hal_rcc_ex.c ****   * @{
  57:Drivers/STM32U0xx_HAL_Driver/Src/stm32u0xx_hal_rcc_ex.c ****   */
  58:Drivers/STM32U0xx_HAL_Driver/Src/stm32u0xx_hal_rcc_ex.c **** static HAL_StatusTypeDef RCCEx_PLLSource_Enable(uint32_t PllSource);
  59:Drivers/STM32U0xx_HAL_Driver/Src/stm32u0xx_hal_rcc_ex.c **** 
  60:Drivers/STM32U0xx_HAL_Driver/Src/stm32u0xx_hal_rcc_ex.c **** /**
  61:Drivers/STM32U0xx_HAL_Driver/Src/stm32u0xx_hal_rcc_ex.c ****   * @}
  62:Drivers/STM32U0xx_HAL_Driver/Src/stm32u0xx_hal_rcc_ex.c ****   */
  63:Drivers/STM32U0xx_HAL_Driver/Src/stm32u0xx_hal_rcc_ex.c **** 
  64:Drivers/STM32U0xx_HAL_Driver/Src/stm32u0xx_hal_rcc_ex.c **** /* Exported functions --------------------------------------------------------*/
  65:Drivers/STM32U0xx_HAL_Driver/Src/stm32u0xx_hal_rcc_ex.c **** 
  66:Drivers/STM32U0xx_HAL_Driver/Src/stm32u0xx_hal_rcc_ex.c **** /** @defgroup RCCEx_Exported_Functions RCCEx Exported Functions
  67:Drivers/STM32U0xx_HAL_Driver/Src/stm32u0xx_hal_rcc_ex.c ****   * @{
  68:Drivers/STM32U0xx_HAL_Driver/Src/stm32u0xx_hal_rcc_ex.c ****   */
  69:Drivers/STM32U0xx_HAL_Driver/Src/stm32u0xx_hal_rcc_ex.c **** 
  70:Drivers/STM32U0xx_HAL_Driver/Src/stm32u0xx_hal_rcc_ex.c **** /** @defgroup RCCEx_Exported_Functions_Group1 Extended Peripheral Control functions
  71:Drivers/STM32U0xx_HAL_Driver/Src/stm32u0xx_hal_rcc_ex.c ****   *  @brief  Extended Peripheral Control functions
  72:Drivers/STM32U0xx_HAL_Driver/Src/stm32u0xx_hal_rcc_ex.c ****   *
  73:Drivers/STM32U0xx_HAL_Driver/Src/stm32u0xx_hal_rcc_ex.c **** @verbatim
  74:Drivers/STM32U0xx_HAL_Driver/Src/stm32u0xx_hal_rcc_ex.c ****  ===============================================================================
  75:Drivers/STM32U0xx_HAL_Driver/Src/stm32u0xx_hal_rcc_ex.c ****                 ##### Extended Peripheral Control functions  #####
  76:Drivers/STM32U0xx_HAL_Driver/Src/stm32u0xx_hal_rcc_ex.c ****  ===============================================================================
  77:Drivers/STM32U0xx_HAL_Driver/Src/stm32u0xx_hal_rcc_ex.c ****     [..]
  78:Drivers/STM32U0xx_HAL_Driver/Src/stm32u0xx_hal_rcc_ex.c ****     This subsection provides a set of functions allowing to control the RCC Clocks
  79:Drivers/STM32U0xx_HAL_Driver/Src/stm32u0xx_hal_rcc_ex.c ****     frequencies.
  80:Drivers/STM32U0xx_HAL_Driver/Src/stm32u0xx_hal_rcc_ex.c ****     [..]
  81:Drivers/STM32U0xx_HAL_Driver/Src/stm32u0xx_hal_rcc_ex.c ****     (@) Important note: Care must be taken when HAL_RCCEx_PeriphCLKConfig() is used to
  82:Drivers/STM32U0xx_HAL_Driver/Src/stm32u0xx_hal_rcc_ex.c ****         select the RTC clock source; in this case the Backup domain will be reset in
  83:Drivers/STM32U0xx_HAL_Driver/Src/stm32u0xx_hal_rcc_ex.c ****         order to modify the RTC Clock source, as consequence RTC registers (including
  84:Drivers/STM32U0xx_HAL_Driver/Src/stm32u0xx_hal_rcc_ex.c ****         the backup registers) are set to their reset values.
  85:Drivers/STM32U0xx_HAL_Driver/Src/stm32u0xx_hal_rcc_ex.c **** 
  86:Drivers/STM32U0xx_HAL_Driver/Src/stm32u0xx_hal_rcc_ex.c **** @endverbatim
  87:Drivers/STM32U0xx_HAL_Driver/Src/stm32u0xx_hal_rcc_ex.c ****   * @{
ARM GAS  C:\Users\upo\AppData\Local\Temp\ccMLO1b7.s 			page 3


  88:Drivers/STM32U0xx_HAL_Driver/Src/stm32u0xx_hal_rcc_ex.c ****   */
  89:Drivers/STM32U0xx_HAL_Driver/Src/stm32u0xx_hal_rcc_ex.c **** /**
  90:Drivers/STM32U0xx_HAL_Driver/Src/stm32u0xx_hal_rcc_ex.c ****   * @brief  Initialize the RCC extended peripherals clocks according to the specified
  91:Drivers/STM32U0xx_HAL_Driver/Src/stm32u0xx_hal_rcc_ex.c ****   *         parameters in the RCC_PeriphCLKInitTypeDef.
  92:Drivers/STM32U0xx_HAL_Driver/Src/stm32u0xx_hal_rcc_ex.c ****   * @param  PeriphClkInit  pointer to an RCC_PeriphCLKInitTypeDef structure that
  93:Drivers/STM32U0xx_HAL_Driver/Src/stm32u0xx_hal_rcc_ex.c ****   *         contains a field PeriphClockSelection which can be a combination of the following value
  94:Drivers/STM32U0xx_HAL_Driver/Src/stm32u0xx_hal_rcc_ex.c ****   *            @arg @ref RCC_PERIPHCLK_USART1  USART1 peripheral clock
  95:Drivers/STM32U0xx_HAL_Driver/Src/stm32u0xx_hal_rcc_ex.c ****   *            @arg @ref RCC_PERIPHCLK_USART2  USART2 peripheral clock
  96:Drivers/STM32U0xx_HAL_Driver/Src/stm32u0xx_hal_rcc_ex.c ****   *            @arg @ref RCC_PERIPHCLK_LPUART1  LPUART1 peripheral clock
  97:Drivers/STM32U0xx_HAL_Driver/Src/stm32u0xx_hal_rcc_ex.c ****   *            @arg @ref RCC_PERIPHCLK_LPUART2  LPUART2 peripheral clock
  98:Drivers/STM32U0xx_HAL_Driver/Src/stm32u0xx_hal_rcc_ex.c ****   *            @arg @ref RCC_PERIPHCLK_LPUART3  LPUART3 peripheral clock
  99:Drivers/STM32U0xx_HAL_Driver/Src/stm32u0xx_hal_rcc_ex.c ****   *            @arg @ref RCC_PERIPHCLK_I2C1  I2C1 peripheral clock
 100:Drivers/STM32U0xx_HAL_Driver/Src/stm32u0xx_hal_rcc_ex.c ****   *            @arg @ref RCC_PERIPHCLK_I2C3  I2C3 peripheral clock
 101:Drivers/STM32U0xx_HAL_Driver/Src/stm32u0xx_hal_rcc_ex.c ****   *            @arg @ref RCC_PERIPHCLK_LPTIM1  LPTIM1 peripheral clock
 102:Drivers/STM32U0xx_HAL_Driver/Src/stm32u0xx_hal_rcc_ex.c ****   *            @arg @ref RCC_PERIPHCLK_LPTIM2  LPTIM2 peripheral clock
 103:Drivers/STM32U0xx_HAL_Driver/Src/stm32u0xx_hal_rcc_ex.c ****   *            @arg @ref RCC_PERIPHCLK_LPTIM3  LPTIM3 peripheral clock
 104:Drivers/STM32U0xx_HAL_Driver/Src/stm32u0xx_hal_rcc_ex.c ****   *            @arg @ref RCC_PERIPHCLK_TIM1  TIM1 peripheral clock
 105:Drivers/STM32U0xx_HAL_Driver/Src/stm32u0xx_hal_rcc_ex.c ****   *            @arg @ref RCC_PERIPHCLK_TIM15  TIM15 peripheral clock
 106:Drivers/STM32U0xx_HAL_Driver/Src/stm32u0xx_hal_rcc_ex.c ****   *            @arg @ref RCC_PERIPHCLK_USB  USB peripheral clock
 107:Drivers/STM32U0xx_HAL_Driver/Src/stm32u0xx_hal_rcc_ex.c ****   *            @arg @ref RCC_PERIPHCLK_ADC  ADC peripheral clock
 108:Drivers/STM32U0xx_HAL_Driver/Src/stm32u0xx_hal_rcc_ex.c ****   *
 109:Drivers/STM32U0xx_HAL_Driver/Src/stm32u0xx_hal_rcc_ex.c ****   * @note   Care must be taken when HAL_RCCEx_PeriphCLKConfig() is used to select
 110:Drivers/STM32U0xx_HAL_Driver/Src/stm32u0xx_hal_rcc_ex.c ****   *         the RTC clock source: in this case the access to Backup domain is enabled.
 111:Drivers/STM32U0xx_HAL_Driver/Src/stm32u0xx_hal_rcc_ex.c ****   *
 112:Drivers/STM32U0xx_HAL_Driver/Src/stm32u0xx_hal_rcc_ex.c ****   * @retval HAL status
 113:Drivers/STM32U0xx_HAL_Driver/Src/stm32u0xx_hal_rcc_ex.c ****   */
 114:Drivers/STM32U0xx_HAL_Driver/Src/stm32u0xx_hal_rcc_ex.c **** HAL_StatusTypeDef HAL_RCCEx_PeriphCLKConfig(const RCC_PeriphCLKInitTypeDef  *PeriphClkInit)
 115:Drivers/STM32U0xx_HAL_Driver/Src/stm32u0xx_hal_rcc_ex.c **** {
  29              		.loc 1 115 1 view -0
  30              		.cfi_startproc
  31              		@ args = 0, pretend = 0, frame = 8
  32              		@ frame_needed = 0, uses_anonymous_args = 0
 116:Drivers/STM32U0xx_HAL_Driver/Src/stm32u0xx_hal_rcc_ex.c ****   uint32_t tmpregister;
  33              		.loc 1 116 3 view .LVU1
 117:Drivers/STM32U0xx_HAL_Driver/Src/stm32u0xx_hal_rcc_ex.c ****   uint32_t tickstart;
  34              		.loc 1 117 3 view .LVU2
 118:Drivers/STM32U0xx_HAL_Driver/Src/stm32u0xx_hal_rcc_ex.c ****   HAL_StatusTypeDef ret = HAL_OK;      /* Intermediate status */
  35              		.loc 1 118 3 view .LVU3
 119:Drivers/STM32U0xx_HAL_Driver/Src/stm32u0xx_hal_rcc_ex.c ****   HAL_StatusTypeDef status = HAL_OK;   /* Final status */
  36              		.loc 1 119 3 view .LVU4
 120:Drivers/STM32U0xx_HAL_Driver/Src/stm32u0xx_hal_rcc_ex.c **** 
 121:Drivers/STM32U0xx_HAL_Driver/Src/stm32u0xx_hal_rcc_ex.c ****   /* Check the parameters */
 122:Drivers/STM32U0xx_HAL_Driver/Src/stm32u0xx_hal_rcc_ex.c ****   assert_param(IS_RCC_PERIPHCLOCK(PeriphClkInit->PeriphClockSelection));
  37              		.loc 1 122 3 view .LVU5
 123:Drivers/STM32U0xx_HAL_Driver/Src/stm32u0xx_hal_rcc_ex.c **** 
 124:Drivers/STM32U0xx_HAL_Driver/Src/stm32u0xx_hal_rcc_ex.c ****   /*-------------------------- RTC clock source configuration ----------------------*/
 125:Drivers/STM32U0xx_HAL_Driver/Src/stm32u0xx_hal_rcc_ex.c ****   if ((PeriphClkInit->PeriphClockSelection & RCC_PERIPHCLK_RTC) == RCC_PERIPHCLK_RTC)
  38              		.loc 1 125 3 view .LVU6
 115:Drivers/STM32U0xx_HAL_Driver/Src/stm32u0xx_hal_rcc_ex.c ****   uint32_t tmpregister;
  39              		.loc 1 115 1 is_stmt 0 view .LVU7
  40 0000 F0B5     		push	{r4, r5, r6, r7, lr}
  41              	.LCFI0:
  42              		.cfi_def_cfa_offset 20
  43              		.cfi_offset 4, -20
  44              		.cfi_offset 5, -16
  45              		.cfi_offset 6, -12
  46              		.cfi_offset 7, -8
ARM GAS  C:\Users\upo\AppData\Local\Temp\ccMLO1b7.s 			page 4


  47              		.cfi_offset 14, -4
  48 0002 D646     		mov	lr, r10
  49 0004 4F46     		mov	r7, r9
  50 0006 4646     		mov	r6, r8
  51 0008 C0B5     		push	{r6, r7, lr}
  52              	.LCFI1:
  53              		.cfi_def_cfa_offset 32
  54              		.cfi_offset 8, -32
  55              		.cfi_offset 9, -28
  56              		.cfi_offset 10, -24
  57              		.loc 1 125 21 view .LVU8
  58 000a 0368     		ldr	r3, [r0]
 115:Drivers/STM32U0xx_HAL_Driver/Src/stm32u0xx_hal_rcc_ex.c ****   uint32_t tmpregister;
  59              		.loc 1 115 1 view .LVU9
  60 000c 0400     		movs	r4, r0
  61 000e 82B0     		sub	sp, sp, #8
  62              	.LCFI2:
  63              		.cfi_def_cfa_offset 40
 119:Drivers/STM32U0xx_HAL_Driver/Src/stm32u0xx_hal_rcc_ex.c **** 
  64              		.loc 1 119 21 view .LVU10
  65 0010 0020     		movs	r0, #0
  66              	.LVL1:
  67              		.loc 1 125 6 view .LVU11
  68 0012 1A04     		lsls	r2, r3, #16
  69 0014 59D5     		bpl	.L2
  70              	.LBB2:
 126:Drivers/STM32U0xx_HAL_Driver/Src/stm32u0xx_hal_rcc_ex.c ****   {
 127:Drivers/STM32U0xx_HAL_Driver/Src/stm32u0xx_hal_rcc_ex.c ****     FlagStatus       pwrclkchanged = RESET;
  71              		.loc 1 127 5 is_stmt 1 view .LVU12
  72              	.LVL2:
 128:Drivers/STM32U0xx_HAL_Driver/Src/stm32u0xx_hal_rcc_ex.c **** 
 129:Drivers/STM32U0xx_HAL_Driver/Src/stm32u0xx_hal_rcc_ex.c ****     /* Check for RTC Parameters used to output RTCCLK */
 130:Drivers/STM32U0xx_HAL_Driver/Src/stm32u0xx_hal_rcc_ex.c ****     assert_param(IS_RCC_RTCCLKSOURCE(PeriphClkInit->RTCClockSelection));
  73              		.loc 1 130 5 view .LVU13
 131:Drivers/STM32U0xx_HAL_Driver/Src/stm32u0xx_hal_rcc_ex.c **** 
 132:Drivers/STM32U0xx_HAL_Driver/Src/stm32u0xx_hal_rcc_ex.c ****     /* Enable Power Clock */
 133:Drivers/STM32U0xx_HAL_Driver/Src/stm32u0xx_hal_rcc_ex.c ****     if (__HAL_RCC_PWR_IS_CLK_DISABLED())
  74              		.loc 1 133 5 view .LVU14
  75              		.loc 1 133 9 is_stmt 0 view .LVU15
  76 0016 8022     		movs	r2, #128
  77 0018 9F4B     		ldr	r3, .L113
  78 001a 5205     		lsls	r2, r2, #21
  79 001c 996D     		ldr	r1, [r3, #88]
 127:Drivers/STM32U0xx_HAL_Driver/Src/stm32u0xx_hal_rcc_ex.c **** 
  80              		.loc 1 127 22 view .LVU16
  81 001e 8246     		mov	r10, r0
  82              		.loc 1 133 8 view .LVU17
  83 0020 1142     		tst	r1, r2
  84 0022 00D1     		bne	.LCB53
  85 0024 01E1     		b	.L106	@long jump
  86              	.LCB53:
  87              	.LVL3:
  88              	.L3:
 134:Drivers/STM32U0xx_HAL_Driver/Src/stm32u0xx_hal_rcc_ex.c ****     {
 135:Drivers/STM32U0xx_HAL_Driver/Src/stm32u0xx_hal_rcc_ex.c ****       __HAL_RCC_PWR_CLK_ENABLE();
 136:Drivers/STM32U0xx_HAL_Driver/Src/stm32u0xx_hal_rcc_ex.c ****       pwrclkchanged = SET;
 137:Drivers/STM32U0xx_HAL_Driver/Src/stm32u0xx_hal_rcc_ex.c ****     }
ARM GAS  C:\Users\upo\AppData\Local\Temp\ccMLO1b7.s 			page 5


 138:Drivers/STM32U0xx_HAL_Driver/Src/stm32u0xx_hal_rcc_ex.c **** 
 139:Drivers/STM32U0xx_HAL_Driver/Src/stm32u0xx_hal_rcc_ex.c ****     /* Enable write access to Backup domain */
 140:Drivers/STM32U0xx_HAL_Driver/Src/stm32u0xx_hal_rcc_ex.c ****     SET_BIT(PWR->CR1, PWR_CR1_DBP);
  89              		.loc 1 140 5 is_stmt 1 view .LVU18
  90 0026 8027     		movs	r7, #128
  91 0028 9C4D     		ldr	r5, .L113+4
  92 002a 7F00     		lsls	r7, r7, #1
  93 002c 2B68     		ldr	r3, [r5]
  94 002e 3B43     		orrs	r3, r7
  95 0030 2B60     		str	r3, [r5]
 141:Drivers/STM32U0xx_HAL_Driver/Src/stm32u0xx_hal_rcc_ex.c **** 
 142:Drivers/STM32U0xx_HAL_Driver/Src/stm32u0xx_hal_rcc_ex.c ****     /* Wait for Backup domain Write protection disable */
 143:Drivers/STM32U0xx_HAL_Driver/Src/stm32u0xx_hal_rcc_ex.c ****     tickstart = HAL_GetTick();
  96              		.loc 1 143 5 view .LVU19
  97              		.loc 1 143 17 is_stmt 0 view .LVU20
  98 0032 FFF7FEFF 		bl	HAL_GetTick
  99              	.LVL4:
 100 0036 0600     		movs	r6, r0
 101              	.LVL5:
 144:Drivers/STM32U0xx_HAL_Driver/Src/stm32u0xx_hal_rcc_ex.c **** 
 145:Drivers/STM32U0xx_HAL_Driver/Src/stm32u0xx_hal_rcc_ex.c ****     while (READ_BIT(PWR->CR1, PWR_CR1_DBP) == 0U)
 102              		.loc 1 145 5 is_stmt 1 view .LVU21
 103              		.loc 1 145 11 is_stmt 0 view .LVU22
 104 0038 05E0     		b	.L4
 105              	.LVL6:
 106              	.L6:
 146:Drivers/STM32U0xx_HAL_Driver/Src/stm32u0xx_hal_rcc_ex.c ****     {
 147:Drivers/STM32U0xx_HAL_Driver/Src/stm32u0xx_hal_rcc_ex.c ****       if ((HAL_GetTick() - tickstart) > RCC_DBP_TIMEOUT_VALUE)
 107              		.loc 1 147 7 is_stmt 1 view .LVU23
 108              		.loc 1 147 12 is_stmt 0 view .LVU24
 109 003a FFF7FEFF 		bl	HAL_GetTick
 110              	.LVL7:
 111              		.loc 1 147 26 view .LVU25
 112 003e 801B     		subs	r0, r0, r6
 113              		.loc 1 147 10 view .LVU26
 114 0040 0228     		cmp	r0, #2
 115 0042 00D9     		bls	.LCB79
 116 0044 FBE0     		b	.L5	@long jump
 117              	.LCB79:
 118              	.L4:
 145:Drivers/STM32U0xx_HAL_Driver/Src/stm32u0xx_hal_rcc_ex.c ****     {
 119              		.loc 1 145 44 is_stmt 1 view .LVU27
 145:Drivers/STM32U0xx_HAL_Driver/Src/stm32u0xx_hal_rcc_ex.c ****     {
 120              		.loc 1 145 12 is_stmt 0 view .LVU28
 121 0046 2B68     		ldr	r3, [r5]
 145:Drivers/STM32U0xx_HAL_Driver/Src/stm32u0xx_hal_rcc_ex.c ****     {
 122              		.loc 1 145 44 view .LVU29
 123 0048 3B42     		tst	r3, r7
 124 004a F6D0     		beq	.L6
 148:Drivers/STM32U0xx_HAL_Driver/Src/stm32u0xx_hal_rcc_ex.c ****       {
 149:Drivers/STM32U0xx_HAL_Driver/Src/stm32u0xx_hal_rcc_ex.c ****         ret = HAL_TIMEOUT;
 150:Drivers/STM32U0xx_HAL_Driver/Src/stm32u0xx_hal_rcc_ex.c ****         break;
 151:Drivers/STM32U0xx_HAL_Driver/Src/stm32u0xx_hal_rcc_ex.c ****       }
 152:Drivers/STM32U0xx_HAL_Driver/Src/stm32u0xx_hal_rcc_ex.c ****     }
 153:Drivers/STM32U0xx_HAL_Driver/Src/stm32u0xx_hal_rcc_ex.c **** 
 154:Drivers/STM32U0xx_HAL_Driver/Src/stm32u0xx_hal_rcc_ex.c ****     if (ret == HAL_OK)
 125              		.loc 1 154 5 is_stmt 1 view .LVU30
ARM GAS  C:\Users\upo\AppData\Local\Temp\ccMLO1b7.s 			page 6


 155:Drivers/STM32U0xx_HAL_Driver/Src/stm32u0xx_hal_rcc_ex.c ****     {
 156:Drivers/STM32U0xx_HAL_Driver/Src/stm32u0xx_hal_rcc_ex.c ****       /* Reset the Backup domain only if the RTC Clock source selection is modified from default */
 157:Drivers/STM32U0xx_HAL_Driver/Src/stm32u0xx_hal_rcc_ex.c ****       tmpregister = READ_BIT(RCC->BDCR, RCC_BDCR_RTCSEL);
 126              		.loc 1 157 7 view .LVU31
 127              		.loc 1 157 21 is_stmt 0 view .LVU32
 128 004c 9023     		movs	r3, #144
 129 004e 924D     		ldr	r5, .L113
 130              		.loc 1 157 19 view .LVU33
 131 0050 C022     		movs	r2, #192
 132              		.loc 1 157 21 view .LVU34
 133 0052 E958     		ldr	r1, [r5, r3]
 134              		.loc 1 157 19 view .LVU35
 135 0054 9200     		lsls	r2, r2, #2
 136 0056 0E00     		movs	r6, r1
 137              	.LVL8:
 158:Drivers/STM32U0xx_HAL_Driver/Src/stm32u0xx_hal_rcc_ex.c **** 
 159:Drivers/STM32U0xx_HAL_Driver/Src/stm32u0xx_hal_rcc_ex.c ****       if ((tmpregister != RCC_RTCCLKSOURCE_NONE) && (tmpregister != PeriphClkInit->RTCClockSelectio
 138              		.loc 1 159 82 view .LVU36
 139 0058 206C     		ldr	r0, [r4, #64]
 157:Drivers/STM32U0xx_HAL_Driver/Src/stm32u0xx_hal_rcc_ex.c **** 
 140              		.loc 1 157 19 view .LVU37
 141 005a 1640     		ands	r6, r2
 142              	.LVL9:
 143              		.loc 1 159 7 is_stmt 1 view .LVU38
 144              		.loc 1 159 10 is_stmt 0 view .LVU39
 145 005c 1142     		tst	r1, r2
 146 005e 27D0     		beq	.L11
 147              		.loc 1 159 50 discriminator 1 view .LVU40
 148 0060 8642     		cmp	r6, r0
 149 0062 25D0     		beq	.L11
 160:Drivers/STM32U0xx_HAL_Driver/Src/stm32u0xx_hal_rcc_ex.c ****       {
 161:Drivers/STM32U0xx_HAL_Driver/Src/stm32u0xx_hal_rcc_ex.c ****         /* Store the content of BDCR register before the reset of Backup Domain */
 162:Drivers/STM32U0xx_HAL_Driver/Src/stm32u0xx_hal_rcc_ex.c ****         tmpregister = READ_BIT(RCC->BDCR, ~(RCC_BDCR_RTCSEL));
 150              		.loc 1 162 9 is_stmt 1 view .LVU41
 151              		.loc 1 162 23 is_stmt 0 view .LVU42
 152 0064 EA58     		ldr	r2, [r5, r3]
 163:Drivers/STM32U0xx_HAL_Driver/Src/stm32u0xx_hal_rcc_ex.c ****         /* RTC Clock selection can be changed only if the Backup Domain is reset */
 164:Drivers/STM32U0xx_HAL_Driver/Src/stm32u0xx_hal_rcc_ex.c ****         __HAL_RCC_BACKUPRESET_FORCE();
 153              		.loc 1 164 9 view .LVU43
 154 0066 EE58     		ldr	r6, [r5, r3]
 155              	.LVL10:
 162:Drivers/STM32U0xx_HAL_Driver/Src/stm32u0xx_hal_rcc_ex.c ****         /* RTC Clock selection can be changed only if the Backup Domain is reset */
 156              		.loc 1 162 21 view .LVU44
 157 0068 8D49     		ldr	r1, .L113+8
 158              	.LVL11:
 159              		.loc 1 164 9 view .LVU45
 160 006a B446     		mov	ip, r6
 161 006c 8026     		movs	r6, #128
 162 006e 6746     		mov	r7, ip
 163 0070 7602     		lsls	r6, r6, #9
 164 0072 3E43     		orrs	r6, r7
 165 0074 EE50     		str	r6, [r5, r3]
 165:Drivers/STM32U0xx_HAL_Driver/Src/stm32u0xx_hal_rcc_ex.c ****         __HAL_RCC_BACKUPRESET_RELEASE();
 166              		.loc 1 165 9 view .LVU46
 167 0076 EE58     		ldr	r6, [r5, r3]
 168 0078 8A4F     		ldr	r7, .L113+12
 162:Drivers/STM32U0xx_HAL_Driver/Src/stm32u0xx_hal_rcc_ex.c ****         /* RTC Clock selection can be changed only if the Backup Domain is reset */
ARM GAS  C:\Users\upo\AppData\Local\Temp\ccMLO1b7.s 			page 7


 169              		.loc 1 162 21 view .LVU47
 170 007a 1140     		ands	r1, r2
 171              	.LVL12:
 164:Drivers/STM32U0xx_HAL_Driver/Src/stm32u0xx_hal_rcc_ex.c ****         __HAL_RCC_BACKUPRESET_RELEASE();
 172              		.loc 1 164 9 is_stmt 1 view .LVU48
 173              		.loc 1 165 9 view .LVU49
 174 007c 3E40     		ands	r6, r7
 175 007e EE50     		str	r6, [r5, r3]
 166:Drivers/STM32U0xx_HAL_Driver/Src/stm32u0xx_hal_rcc_ex.c ****         /* Restore the Content of BDCR register */
 167:Drivers/STM32U0xx_HAL_Driver/Src/stm32u0xx_hal_rcc_ex.c ****         RCC->BDCR = tmpregister;
 176              		.loc 1 167 9 view .LVU50
 177              		.loc 1 167 19 is_stmt 0 view .LVU51
 178 0080 E950     		str	r1, [r5, r3]
 179              	.LVL13:
 168:Drivers/STM32U0xx_HAL_Driver/Src/stm32u0xx_hal_rcc_ex.c ****       }
 169:Drivers/STM32U0xx_HAL_Driver/Src/stm32u0xx_hal_rcc_ex.c **** 
 170:Drivers/STM32U0xx_HAL_Driver/Src/stm32u0xx_hal_rcc_ex.c ****       /* Wait for LSE reactivation if LSE was enable prior to Backup Domain reset */
 171:Drivers/STM32U0xx_HAL_Driver/Src/stm32u0xx_hal_rcc_ex.c ****       if (HAL_IS_BIT_SET(tmpregister, RCC_BDCR_LSEON))
 180              		.loc 1 171 7 is_stmt 1 view .LVU52
 181              		.loc 1 171 10 is_stmt 0 view .LVU53
 182 0082 D207     		lsls	r2, r2, #31
 183 0084 14D5     		bpl	.L11
 172:Drivers/STM32U0xx_HAL_Driver/Src/stm32u0xx_hal_rcc_ex.c ****       {
 173:Drivers/STM32U0xx_HAL_Driver/Src/stm32u0xx_hal_rcc_ex.c ****         /* Get Start Tick*/
 174:Drivers/STM32U0xx_HAL_Driver/Src/stm32u0xx_hal_rcc_ex.c ****         tickstart = HAL_GetTick();
 184              		.loc 1 174 9 is_stmt 1 view .LVU54
 185              		.loc 1 174 21 is_stmt 0 view .LVU55
 186 0086 FFF7FEFF 		bl	HAL_GetTick
 187              	.LVL14:
 175:Drivers/STM32U0xx_HAL_Driver/Src/stm32u0xx_hal_rcc_ex.c **** 
 176:Drivers/STM32U0xx_HAL_Driver/Src/stm32u0xx_hal_rcc_ex.c ****         /* Wait till LSE is ready */
 177:Drivers/STM32U0xx_HAL_Driver/Src/stm32u0xx_hal_rcc_ex.c ****         while (READ_BIT(RCC->BDCR, RCC_BDCR_LSERDY) == 0U)
 188              		.loc 1 177 16 view .LVU56
 189 008a 9023     		movs	r3, #144
 190 008c 9946     		mov	r9, r3
 191 008e 8E3B     		subs	r3, r3, #142
 174:Drivers/STM32U0xx_HAL_Driver/Src/stm32u0xx_hal_rcc_ex.c **** 
 192              		.loc 1 174 21 view .LVU57
 193 0090 0600     		movs	r6, r0
 194              	.LVL15:
 195              		.loc 1 177 9 is_stmt 1 view .LVU58
 196              		.loc 1 177 16 is_stmt 0 view .LVU59
 197 0092 9846     		mov	r8, r3
 198              		.loc 1 177 15 view .LVU60
 199 0094 06E0     		b	.L12
 200              	.LVL16:
 201              	.L13:
 178:Drivers/STM32U0xx_HAL_Driver/Src/stm32u0xx_hal_rcc_ex.c ****         {
 179:Drivers/STM32U0xx_HAL_Driver/Src/stm32u0xx_hal_rcc_ex.c ****           if ((HAL_GetTick() - tickstart) > RCC_LSE_TIMEOUT_VALUE)
 202              		.loc 1 179 11 is_stmt 1 view .LVU61
 203              		.loc 1 179 16 is_stmt 0 view .LVU62
 204 0096 FFF7FEFF 		bl	HAL_GetTick
 205              	.LVL17:
 206              		.loc 1 179 14 view .LVU63
 207 009a 834B     		ldr	r3, .L113+16
 208              		.loc 1 179 30 view .LVU64
 209 009c 801B     		subs	r0, r0, r6
ARM GAS  C:\Users\upo\AppData\Local\Temp\ccMLO1b7.s 			page 8


 210              		.loc 1 179 14 view .LVU65
 211 009e 9842     		cmp	r0, r3
 212 00a0 00D9     		bls	.LCB154
 213 00a2 CCE0     		b	.L5	@long jump
 214              	.LCB154:
 215              	.L12:
 177:Drivers/STM32U0xx_HAL_Driver/Src/stm32u0xx_hal_rcc_ex.c ****         {
 216              		.loc 1 177 53 is_stmt 1 view .LVU66
 177:Drivers/STM32U0xx_HAL_Driver/Src/stm32u0xx_hal_rcc_ex.c ****         {
 217              		.loc 1 177 16 is_stmt 0 view .LVU67
 218 00a4 4B46     		mov	r3, r9
 177:Drivers/STM32U0xx_HAL_Driver/Src/stm32u0xx_hal_rcc_ex.c ****         {
 219              		.loc 1 177 53 view .LVU68
 220 00a6 4246     		mov	r2, r8
 177:Drivers/STM32U0xx_HAL_Driver/Src/stm32u0xx_hal_rcc_ex.c ****         {
 221              		.loc 1 177 16 view .LVU69
 222 00a8 EB58     		ldr	r3, [r5, r3]
 177:Drivers/STM32U0xx_HAL_Driver/Src/stm32u0xx_hal_rcc_ex.c ****         {
 223              		.loc 1 177 53 view .LVU70
 224 00aa 1A42     		tst	r2, r3
 225 00ac F3D0     		beq	.L13
 180:Drivers/STM32U0xx_HAL_Driver/Src/stm32u0xx_hal_rcc_ex.c ****           {
 181:Drivers/STM32U0xx_HAL_Driver/Src/stm32u0xx_hal_rcc_ex.c ****             ret = HAL_TIMEOUT;
 182:Drivers/STM32U0xx_HAL_Driver/Src/stm32u0xx_hal_rcc_ex.c ****             break;
 183:Drivers/STM32U0xx_HAL_Driver/Src/stm32u0xx_hal_rcc_ex.c ****           }
 184:Drivers/STM32U0xx_HAL_Driver/Src/stm32u0xx_hal_rcc_ex.c ****         }
 185:Drivers/STM32U0xx_HAL_Driver/Src/stm32u0xx_hal_rcc_ex.c ****       }
 186:Drivers/STM32U0xx_HAL_Driver/Src/stm32u0xx_hal_rcc_ex.c **** 
 187:Drivers/STM32U0xx_HAL_Driver/Src/stm32u0xx_hal_rcc_ex.c ****       if (ret == HAL_OK)
 226              		.loc 1 187 7 is_stmt 1 view .LVU71
 188:Drivers/STM32U0xx_HAL_Driver/Src/stm32u0xx_hal_rcc_ex.c ****       {
 189:Drivers/STM32U0xx_HAL_Driver/Src/stm32u0xx_hal_rcc_ex.c ****         /* Apply new RTC clock source selection */
 190:Drivers/STM32U0xx_HAL_Driver/Src/stm32u0xx_hal_rcc_ex.c ****         __HAL_RCC_RTC_CONFIG(PeriphClkInit->RTCClockSelection);
 227              		.loc 1 190 9 is_stmt 0 view .LVU72
 228 00ae 206C     		ldr	r0, [r4, #64]
 229              	.LVL18:
 230              	.L11:
 231              		.loc 1 190 9 is_stmt 1 view .LVU73
 232 00b0 9022     		movs	r2, #144
 233 00b2 7949     		ldr	r1, .L113
 234 00b4 7A4D     		ldr	r5, .L113+8
 235 00b6 8B58     		ldr	r3, [r1, r2]
 236 00b8 2B40     		ands	r3, r5
 237 00ba 0343     		orrs	r3, r0
 238 00bc 8B50     		str	r3, [r1, r2]
 191:Drivers/STM32U0xx_HAL_Driver/Src/stm32u0xx_hal_rcc_ex.c ****       }
 192:Drivers/STM32U0xx_HAL_Driver/Src/stm32u0xx_hal_rcc_ex.c ****       else
 193:Drivers/STM32U0xx_HAL_Driver/Src/stm32u0xx_hal_rcc_ex.c ****       {
 194:Drivers/STM32U0xx_HAL_Driver/Src/stm32u0xx_hal_rcc_ex.c ****         /* set overall return value */
 195:Drivers/STM32U0xx_HAL_Driver/Src/stm32u0xx_hal_rcc_ex.c ****         status = ret;
 196:Drivers/STM32U0xx_HAL_Driver/Src/stm32u0xx_hal_rcc_ex.c ****       }
 197:Drivers/STM32U0xx_HAL_Driver/Src/stm32u0xx_hal_rcc_ex.c ****     }
 198:Drivers/STM32U0xx_HAL_Driver/Src/stm32u0xx_hal_rcc_ex.c ****     else
 199:Drivers/STM32U0xx_HAL_Driver/Src/stm32u0xx_hal_rcc_ex.c ****     {
 200:Drivers/STM32U0xx_HAL_Driver/Src/stm32u0xx_hal_rcc_ex.c ****       /* set overall return value */
 201:Drivers/STM32U0xx_HAL_Driver/Src/stm32u0xx_hal_rcc_ex.c ****       status = ret;
 202:Drivers/STM32U0xx_HAL_Driver/Src/stm32u0xx_hal_rcc_ex.c ****     }
ARM GAS  C:\Users\upo\AppData\Local\Temp\ccMLO1b7.s 			page 9


 203:Drivers/STM32U0xx_HAL_Driver/Src/stm32u0xx_hal_rcc_ex.c **** 
 204:Drivers/STM32U0xx_HAL_Driver/Src/stm32u0xx_hal_rcc_ex.c ****     /* Restore clock configuration if changed */
 205:Drivers/STM32U0xx_HAL_Driver/Src/stm32u0xx_hal_rcc_ex.c ****     if (pwrclkchanged == SET)
 239              		.loc 1 205 8 is_stmt 0 view .LVU74
 240 00be 5246     		mov	r2, r10
 241              	.LBE2:
 119:Drivers/STM32U0xx_HAL_Driver/Src/stm32u0xx_hal_rcc_ex.c **** 
 242              		.loc 1 119 21 view .LVU75
 243 00c0 0020     		movs	r0, #0
 244              	.LVL19:
 245              	.LBB4:
 246              		.loc 1 205 5 is_stmt 1 view .LVU76
 247              	.LBE4:
 206:Drivers/STM32U0xx_HAL_Driver/Src/stm32u0xx_hal_rcc_ex.c ****     {
 207:Drivers/STM32U0xx_HAL_Driver/Src/stm32u0xx_hal_rcc_ex.c ****       __HAL_RCC_PWR_CLK_DISABLE();
 208:Drivers/STM32U0xx_HAL_Driver/Src/stm32u0xx_hal_rcc_ex.c ****     }
 209:Drivers/STM32U0xx_HAL_Driver/Src/stm32u0xx_hal_rcc_ex.c ****   }
 210:Drivers/STM32U0xx_HAL_Driver/Src/stm32u0xx_hal_rcc_ex.c **** 
 211:Drivers/STM32U0xx_HAL_Driver/Src/stm32u0xx_hal_rcc_ex.c ****   /*-------------------------- USART1 clock source configuration -------------------*/
 212:Drivers/STM32U0xx_HAL_Driver/Src/stm32u0xx_hal_rcc_ex.c ****   if (((PeriphClkInit->PeriphClockSelection) & RCC_PERIPHCLK_USART1) == RCC_PERIPHCLK_USART1)
 248              		.loc 1 212 22 is_stmt 0 view .LVU77
 249 00c2 2368     		ldr	r3, [r4]
 250              	.LBB5:
 205:Drivers/STM32U0xx_HAL_Driver/Src/stm32u0xx_hal_rcc_ex.c ****     {
 251              		.loc 1 205 8 view .LVU78
 252 00c4 012A     		cmp	r2, #1
 253 00c6 00D1     		bne	.LCB191
 254 00c8 BFE0     		b	.L107	@long jump
 255              	.LCB191:
 256              	.LVL20:
 257              	.L2:
 205:Drivers/STM32U0xx_HAL_Driver/Src/stm32u0xx_hal_rcc_ex.c ****     {
 258              		.loc 1 205 8 view .LVU79
 259              	.LBE5:
 260              		.loc 1 212 3 is_stmt 1 view .LVU80
 261              		.loc 1 212 6 is_stmt 0 view .LVU81
 262 00ca DA07     		lsls	r2, r3, #31
 263 00cc 07D5     		bpl	.L16
 213:Drivers/STM32U0xx_HAL_Driver/Src/stm32u0xx_hal_rcc_ex.c ****   {
 214:Drivers/STM32U0xx_HAL_Driver/Src/stm32u0xx_hal_rcc_ex.c ****     /* Check the parameters */
 215:Drivers/STM32U0xx_HAL_Driver/Src/stm32u0xx_hal_rcc_ex.c ****     assert_param(IS_RCC_USART1CLKSOURCE(PeriphClkInit->Usart1ClockSelection));
 264              		.loc 1 215 5 is_stmt 1 view .LVU82
 216:Drivers/STM32U0xx_HAL_Driver/Src/stm32u0xx_hal_rcc_ex.c **** 
 217:Drivers/STM32U0xx_HAL_Driver/Src/stm32u0xx_hal_rcc_ex.c ****     /* Configure the USART1 clock source */
 218:Drivers/STM32U0xx_HAL_Driver/Src/stm32u0xx_hal_rcc_ex.c ****     __HAL_RCC_USART1_CONFIG(PeriphClkInit->Usart1ClockSelection);
 265              		.loc 1 218 5 view .LVU83
 266 00ce 8821     		movs	r1, #136
 267 00d0 0326     		movs	r6, #3
 268 00d2 714D     		ldr	r5, .L113
 269 00d4 6A58     		ldr	r2, [r5, r1]
 270 00d6 B243     		bics	r2, r6
 271 00d8 6668     		ldr	r6, [r4, #4]
 272 00da 3243     		orrs	r2, r6
 273 00dc 6A50     		str	r2, [r5, r1]
 274              	.L16:
 219:Drivers/STM32U0xx_HAL_Driver/Src/stm32u0xx_hal_rcc_ex.c ****   }
 220:Drivers/STM32U0xx_HAL_Driver/Src/stm32u0xx_hal_rcc_ex.c **** 
ARM GAS  C:\Users\upo\AppData\Local\Temp\ccMLO1b7.s 			page 10


 221:Drivers/STM32U0xx_HAL_Driver/Src/stm32u0xx_hal_rcc_ex.c ****   /*-------------------------- USART2 clock source configuration -------------------*/
 222:Drivers/STM32U0xx_HAL_Driver/Src/stm32u0xx_hal_rcc_ex.c ****   if (((PeriphClkInit->PeriphClockSelection) & RCC_PERIPHCLK_USART2) == RCC_PERIPHCLK_USART2)
 275              		.loc 1 222 3 view .LVU84
 276              		.loc 1 222 6 is_stmt 0 view .LVU85
 277 00de 9A07     		lsls	r2, r3, #30
 278 00e0 07D5     		bpl	.L17
 223:Drivers/STM32U0xx_HAL_Driver/Src/stm32u0xx_hal_rcc_ex.c ****   {
 224:Drivers/STM32U0xx_HAL_Driver/Src/stm32u0xx_hal_rcc_ex.c ****     /* Check the parameters */
 225:Drivers/STM32U0xx_HAL_Driver/Src/stm32u0xx_hal_rcc_ex.c ****     assert_param(IS_RCC_USART2CLKSOURCE(PeriphClkInit->Usart2ClockSelection));
 279              		.loc 1 225 5 is_stmt 1 view .LVU86
 226:Drivers/STM32U0xx_HAL_Driver/Src/stm32u0xx_hal_rcc_ex.c **** 
 227:Drivers/STM32U0xx_HAL_Driver/Src/stm32u0xx_hal_rcc_ex.c ****     /* Configure the USART2 clock source */
 228:Drivers/STM32U0xx_HAL_Driver/Src/stm32u0xx_hal_rcc_ex.c ****     __HAL_RCC_USART2_CONFIG(PeriphClkInit->Usart2ClockSelection);
 280              		.loc 1 228 5 view .LVU87
 281 00e2 8821     		movs	r1, #136
 282 00e4 0C26     		movs	r6, #12
 283 00e6 6C4D     		ldr	r5, .L113
 284 00e8 6A58     		ldr	r2, [r5, r1]
 285 00ea B243     		bics	r2, r6
 286 00ec A668     		ldr	r6, [r4, #8]
 287 00ee 3243     		orrs	r2, r6
 288 00f0 6A50     		str	r2, [r5, r1]
 289              	.L17:
 229:Drivers/STM32U0xx_HAL_Driver/Src/stm32u0xx_hal_rcc_ex.c ****   }
 230:Drivers/STM32U0xx_HAL_Driver/Src/stm32u0xx_hal_rcc_ex.c **** 
 231:Drivers/STM32U0xx_HAL_Driver/Src/stm32u0xx_hal_rcc_ex.c ****   /*-------------------------- LPUART1 clock source configuration ------------------*/
 232:Drivers/STM32U0xx_HAL_Driver/Src/stm32u0xx_hal_rcc_ex.c ****   if (((PeriphClkInit->PeriphClockSelection) & RCC_PERIPHCLK_LPUART1) == RCC_PERIPHCLK_LPUART1)
 290              		.loc 1 232 3 view .LVU88
 291              		.loc 1 232 6 is_stmt 0 view .LVU89
 292 00f2 DA06     		lsls	r2, r3, #27
 293 00f4 07D5     		bpl	.L18
 233:Drivers/STM32U0xx_HAL_Driver/Src/stm32u0xx_hal_rcc_ex.c ****   {
 234:Drivers/STM32U0xx_HAL_Driver/Src/stm32u0xx_hal_rcc_ex.c ****     /* Check the parameters */
 235:Drivers/STM32U0xx_HAL_Driver/Src/stm32u0xx_hal_rcc_ex.c ****     assert_param(IS_RCC_LPUART1CLKSOURCE(PeriphClkInit->Lpuart1ClockSelection));
 294              		.loc 1 235 5 is_stmt 1 view .LVU90
 236:Drivers/STM32U0xx_HAL_Driver/Src/stm32u0xx_hal_rcc_ex.c **** 
 237:Drivers/STM32U0xx_HAL_Driver/Src/stm32u0xx_hal_rcc_ex.c ****     /* Configure the LPUART1 clock source */
 238:Drivers/STM32U0xx_HAL_Driver/Src/stm32u0xx_hal_rcc_ex.c ****     __HAL_RCC_LPUART1_CONFIG(PeriphClkInit->Lpuart1ClockSelection);
 295              		.loc 1 238 5 view .LVU91
 296 00f6 8821     		movs	r1, #136
 297 00f8 674D     		ldr	r5, .L113
 298 00fa 6C4E     		ldr	r6, .L113+20
 299 00fc 6A58     		ldr	r2, [r5, r1]
 300 00fe 3240     		ands	r2, r6
 301 0100 6669     		ldr	r6, [r4, #20]
 302 0102 3243     		orrs	r2, r6
 303 0104 6A50     		str	r2, [r5, r1]
 304              	.L18:
 239:Drivers/STM32U0xx_HAL_Driver/Src/stm32u0xx_hal_rcc_ex.c ****   }
 240:Drivers/STM32U0xx_HAL_Driver/Src/stm32u0xx_hal_rcc_ex.c **** 
 241:Drivers/STM32U0xx_HAL_Driver/Src/stm32u0xx_hal_rcc_ex.c ****   /*-------------------------- LPUART2 clock source configuration ------------------*/
 242:Drivers/STM32U0xx_HAL_Driver/Src/stm32u0xx_hal_rcc_ex.c ****   if (((PeriphClkInit->PeriphClockSelection) & RCC_PERIPHCLK_LPUART2) == RCC_PERIPHCLK_LPUART2)
 305              		.loc 1 242 3 view .LVU92
 306              		.loc 1 242 6 is_stmt 0 view .LVU93
 307 0106 1A07     		lsls	r2, r3, #28
 308 0108 07D5     		bpl	.L19
 243:Drivers/STM32U0xx_HAL_Driver/Src/stm32u0xx_hal_rcc_ex.c ****   {
ARM GAS  C:\Users\upo\AppData\Local\Temp\ccMLO1b7.s 			page 11


 244:Drivers/STM32U0xx_HAL_Driver/Src/stm32u0xx_hal_rcc_ex.c ****     /* Check the parameters */
 245:Drivers/STM32U0xx_HAL_Driver/Src/stm32u0xx_hal_rcc_ex.c ****     assert_param(IS_RCC_LPUART2CLKSOURCE(PeriphClkInit->Lpuart2ClockSelection));
 309              		.loc 1 245 5 is_stmt 1 view .LVU94
 246:Drivers/STM32U0xx_HAL_Driver/Src/stm32u0xx_hal_rcc_ex.c **** 
 247:Drivers/STM32U0xx_HAL_Driver/Src/stm32u0xx_hal_rcc_ex.c ****     /* Configure the LPUART2 clock source */
 248:Drivers/STM32U0xx_HAL_Driver/Src/stm32u0xx_hal_rcc_ex.c ****     __HAL_RCC_LPUART2_CONFIG(PeriphClkInit->Lpuart2ClockSelection);
 310              		.loc 1 248 5 view .LVU95
 311 010a 8821     		movs	r1, #136
 312 010c 624D     		ldr	r5, .L113
 313 010e 644E     		ldr	r6, .L113+8
 314 0110 6A58     		ldr	r2, [r5, r1]
 315 0112 3240     		ands	r2, r6
 316 0114 2669     		ldr	r6, [r4, #16]
 317 0116 3243     		orrs	r2, r6
 318 0118 6A50     		str	r2, [r5, r1]
 319              	.L19:
 249:Drivers/STM32U0xx_HAL_Driver/Src/stm32u0xx_hal_rcc_ex.c ****   }
 250:Drivers/STM32U0xx_HAL_Driver/Src/stm32u0xx_hal_rcc_ex.c **** #if defined (LPUART3)
 251:Drivers/STM32U0xx_HAL_Driver/Src/stm32u0xx_hal_rcc_ex.c ****   /*-------------------------- LPUART3 clock source configuration ------------------*/
 252:Drivers/STM32U0xx_HAL_Driver/Src/stm32u0xx_hal_rcc_ex.c ****   if (((PeriphClkInit->PeriphClockSelection) & RCC_PERIPHCLK_LPUART3) == RCC_PERIPHCLK_LPUART3)
 320              		.loc 1 252 3 view .LVU96
 321              		.loc 1 252 6 is_stmt 0 view .LVU97
 322 011a 5A07     		lsls	r2, r3, #29
 323 011c 07D5     		bpl	.L20
 253:Drivers/STM32U0xx_HAL_Driver/Src/stm32u0xx_hal_rcc_ex.c ****   {
 254:Drivers/STM32U0xx_HAL_Driver/Src/stm32u0xx_hal_rcc_ex.c ****     /* Check the parameters */
 255:Drivers/STM32U0xx_HAL_Driver/Src/stm32u0xx_hal_rcc_ex.c ****     assert_param(IS_RCC_LPUART3CLKSOURCE(PeriphClkInit->Lpuart3ClockSelection));
 324              		.loc 1 255 5 is_stmt 1 view .LVU98
 256:Drivers/STM32U0xx_HAL_Driver/Src/stm32u0xx_hal_rcc_ex.c **** 
 257:Drivers/STM32U0xx_HAL_Driver/Src/stm32u0xx_hal_rcc_ex.c ****     /* Configure the LPUART3 clock source */
 258:Drivers/STM32U0xx_HAL_Driver/Src/stm32u0xx_hal_rcc_ex.c ****     __HAL_RCC_LPUART3_CONFIG(PeriphClkInit->Lpuart3ClockSelection);
 325              		.loc 1 258 5 view .LVU99
 326 011e 8821     		movs	r1, #136
 327 0120 C026     		movs	r6, #192
 328 0122 5D4D     		ldr	r5, .L113
 329 0124 6A58     		ldr	r2, [r5, r1]
 330 0126 B243     		bics	r2, r6
 331 0128 E668     		ldr	r6, [r4, #12]
 332 012a 3243     		orrs	r2, r6
 333 012c 6A50     		str	r2, [r5, r1]
 334              	.L20:
 259:Drivers/STM32U0xx_HAL_Driver/Src/stm32u0xx_hal_rcc_ex.c ****   }
 260:Drivers/STM32U0xx_HAL_Driver/Src/stm32u0xx_hal_rcc_ex.c **** #endif /* LPUART3 */
 261:Drivers/STM32U0xx_HAL_Driver/Src/stm32u0xx_hal_rcc_ex.c ****   /*-------------------------- I2C1 clock source configuration ---------------------*/
 262:Drivers/STM32U0xx_HAL_Driver/Src/stm32u0xx_hal_rcc_ex.c ****   if (((PeriphClkInit->PeriphClockSelection) & RCC_PERIPHCLK_I2C1) == RCC_PERIPHCLK_I2C1)
 335              		.loc 1 262 3 view .LVU100
 336              		.loc 1 262 6 is_stmt 0 view .LVU101
 337 012e 9A06     		lsls	r2, r3, #26
 338 0130 07D5     		bpl	.L21
 263:Drivers/STM32U0xx_HAL_Driver/Src/stm32u0xx_hal_rcc_ex.c ****   {
 264:Drivers/STM32U0xx_HAL_Driver/Src/stm32u0xx_hal_rcc_ex.c ****     /* Check the parameters */
 265:Drivers/STM32U0xx_HAL_Driver/Src/stm32u0xx_hal_rcc_ex.c ****     assert_param(IS_RCC_I2C1CLKSOURCE(PeriphClkInit->I2c1ClockSelection));
 339              		.loc 1 265 5 is_stmt 1 view .LVU102
 266:Drivers/STM32U0xx_HAL_Driver/Src/stm32u0xx_hal_rcc_ex.c **** 
 267:Drivers/STM32U0xx_HAL_Driver/Src/stm32u0xx_hal_rcc_ex.c ****     /* Configure the I2C1 clock source */
 268:Drivers/STM32U0xx_HAL_Driver/Src/stm32u0xx_hal_rcc_ex.c ****     __HAL_RCC_I2C1_CONFIG(PeriphClkInit->I2c1ClockSelection);
 340              		.loc 1 268 5 view .LVU103
ARM GAS  C:\Users\upo\AppData\Local\Temp\ccMLO1b7.s 			page 12


 341 0132 8821     		movs	r1, #136
 342 0134 584D     		ldr	r5, .L113
 343 0136 5E4E     		ldr	r6, .L113+24
 344 0138 6A58     		ldr	r2, [r5, r1]
 345 013a 3240     		ands	r2, r6
 346 013c A669     		ldr	r6, [r4, #24]
 347 013e 3243     		orrs	r2, r6
 348 0140 6A50     		str	r2, [r5, r1]
 349              	.L21:
 269:Drivers/STM32U0xx_HAL_Driver/Src/stm32u0xx_hal_rcc_ex.c ****   }
 270:Drivers/STM32U0xx_HAL_Driver/Src/stm32u0xx_hal_rcc_ex.c **** 
 271:Drivers/STM32U0xx_HAL_Driver/Src/stm32u0xx_hal_rcc_ex.c ****   /*-------------------------- I2C3 clock source configuration ---------------------*/
 272:Drivers/STM32U0xx_HAL_Driver/Src/stm32u0xx_hal_rcc_ex.c ****   if (((PeriphClkInit->PeriphClockSelection) & RCC_PERIPHCLK_I2C3) == RCC_PERIPHCLK_I2C3)
 350              		.loc 1 272 3 view .LVU104
 351              		.loc 1 272 6 is_stmt 0 view .LVU105
 352 0142 5A06     		lsls	r2, r3, #25
 353 0144 07D5     		bpl	.L22
 273:Drivers/STM32U0xx_HAL_Driver/Src/stm32u0xx_hal_rcc_ex.c ****   {
 274:Drivers/STM32U0xx_HAL_Driver/Src/stm32u0xx_hal_rcc_ex.c ****     /* Check the parameters */
 275:Drivers/STM32U0xx_HAL_Driver/Src/stm32u0xx_hal_rcc_ex.c ****     assert_param(IS_RCC_I2C3CLKSOURCE(PeriphClkInit->I2c3ClockSelection));
 354              		.loc 1 275 5 is_stmt 1 view .LVU106
 276:Drivers/STM32U0xx_HAL_Driver/Src/stm32u0xx_hal_rcc_ex.c **** 
 277:Drivers/STM32U0xx_HAL_Driver/Src/stm32u0xx_hal_rcc_ex.c ****     /* Configure the I2C3 clock source */
 278:Drivers/STM32U0xx_HAL_Driver/Src/stm32u0xx_hal_rcc_ex.c ****     __HAL_RCC_I2C3_CONFIG(PeriphClkInit->I2c3ClockSelection);
 355              		.loc 1 278 5 view .LVU107
 356 0146 8821     		movs	r1, #136
 357 0148 534D     		ldr	r5, .L113
 358 014a 5A4E     		ldr	r6, .L113+28
 359 014c 6A58     		ldr	r2, [r5, r1]
 360 014e 3240     		ands	r2, r6
 361 0150 E669     		ldr	r6, [r4, #28]
 362 0152 3243     		orrs	r2, r6
 363 0154 6A50     		str	r2, [r5, r1]
 364              	.L22:
 279:Drivers/STM32U0xx_HAL_Driver/Src/stm32u0xx_hal_rcc_ex.c ****   }
 280:Drivers/STM32U0xx_HAL_Driver/Src/stm32u0xx_hal_rcc_ex.c **** 
 281:Drivers/STM32U0xx_HAL_Driver/Src/stm32u0xx_hal_rcc_ex.c ****   /*----------------------- LPTIM1 clock source configuration -------------------*/
 282:Drivers/STM32U0xx_HAL_Driver/Src/stm32u0xx_hal_rcc_ex.c ****   if (((PeriphClkInit->PeriphClockSelection) & RCC_PERIPHCLK_LPTIM1) == (RCC_PERIPHCLK_LPTIM1))
 365              		.loc 1 282 3 view .LVU108
 366              		.loc 1 282 6 is_stmt 0 view .LVU109
 367 0156 1A06     		lsls	r2, r3, #24
 368 0158 07D5     		bpl	.L23
 283:Drivers/STM32U0xx_HAL_Driver/Src/stm32u0xx_hal_rcc_ex.c ****   {
 284:Drivers/STM32U0xx_HAL_Driver/Src/stm32u0xx_hal_rcc_ex.c ****     assert_param(IS_RCC_LPTIM1CLKSOURCE(PeriphClkInit->Lptim1ClockSelection));
 369              		.loc 1 284 5 is_stmt 1 view .LVU110
 285:Drivers/STM32U0xx_HAL_Driver/Src/stm32u0xx_hal_rcc_ex.c ****     __HAL_RCC_LPTIM1_CONFIG(PeriphClkInit->Lptim1ClockSelection);
 370              		.loc 1 285 5 view .LVU111
 371 015a 8821     		movs	r1, #136
 372 015c 4E4D     		ldr	r5, .L113
 373 015e 564E     		ldr	r6, .L113+32
 374 0160 6A58     		ldr	r2, [r5, r1]
 375 0162 3240     		ands	r2, r6
 376 0164 266A     		ldr	r6, [r4, #32]
 377 0166 3243     		orrs	r2, r6
 378 0168 6A50     		str	r2, [r5, r1]
 379              	.L23:
 286:Drivers/STM32U0xx_HAL_Driver/Src/stm32u0xx_hal_rcc_ex.c ****   }
ARM GAS  C:\Users\upo\AppData\Local\Temp\ccMLO1b7.s 			page 13


 287:Drivers/STM32U0xx_HAL_Driver/Src/stm32u0xx_hal_rcc_ex.c **** 
 288:Drivers/STM32U0xx_HAL_Driver/Src/stm32u0xx_hal_rcc_ex.c ****   /*-------------------------- LPTIM2 clock source configuration -------------------*/
 289:Drivers/STM32U0xx_HAL_Driver/Src/stm32u0xx_hal_rcc_ex.c ****   if (((PeriphClkInit->PeriphClockSelection) & RCC_PERIPHCLK_LPTIM2) == (RCC_PERIPHCLK_LPTIM2))
 380              		.loc 1 289 3 view .LVU112
 381              		.loc 1 289 6 is_stmt 0 view .LVU113
 382 016a DA05     		lsls	r2, r3, #23
 383 016c 07D5     		bpl	.L24
 290:Drivers/STM32U0xx_HAL_Driver/Src/stm32u0xx_hal_rcc_ex.c ****   {
 291:Drivers/STM32U0xx_HAL_Driver/Src/stm32u0xx_hal_rcc_ex.c ****     assert_param(IS_RCC_LPTIM2CLKSOURCE(PeriphClkInit->Lptim2ClockSelection));
 384              		.loc 1 291 5 is_stmt 1 view .LVU114
 292:Drivers/STM32U0xx_HAL_Driver/Src/stm32u0xx_hal_rcc_ex.c ****     __HAL_RCC_LPTIM2_CONFIG(PeriphClkInit->Lptim2ClockSelection);
 385              		.loc 1 292 5 view .LVU115
 386 016e 8821     		movs	r1, #136
 387 0170 494D     		ldr	r5, .L113
 388 0172 524E     		ldr	r6, .L113+36
 389 0174 6A58     		ldr	r2, [r5, r1]
 390 0176 3240     		ands	r2, r6
 391 0178 666A     		ldr	r6, [r4, #36]
 392 017a 3243     		orrs	r2, r6
 393 017c 6A50     		str	r2, [r5, r1]
 394              	.L24:
 293:Drivers/STM32U0xx_HAL_Driver/Src/stm32u0xx_hal_rcc_ex.c ****   }
 294:Drivers/STM32U0xx_HAL_Driver/Src/stm32u0xx_hal_rcc_ex.c **** #if defined (LPTIM3)
 295:Drivers/STM32U0xx_HAL_Driver/Src/stm32u0xx_hal_rcc_ex.c ****   /*----------------------- LPTIM3 clock source configuration -------------------*/
 296:Drivers/STM32U0xx_HAL_Driver/Src/stm32u0xx_hal_rcc_ex.c ****   if (((PeriphClkInit->PeriphClockSelection) & RCC_PERIPHCLK_LPTIM3) == (RCC_PERIPHCLK_LPTIM3))
 395              		.loc 1 296 3 view .LVU116
 396              		.loc 1 296 6 is_stmt 0 view .LVU117
 397 017e 9A05     		lsls	r2, r3, #22
 398 0180 07D5     		bpl	.L25
 297:Drivers/STM32U0xx_HAL_Driver/Src/stm32u0xx_hal_rcc_ex.c ****   {
 298:Drivers/STM32U0xx_HAL_Driver/Src/stm32u0xx_hal_rcc_ex.c ****     assert_param(IS_RCC_LPTIM3CLKSOURCE(PeriphClkInit->Lptim3ClockSelection));
 399              		.loc 1 298 5 is_stmt 1 view .LVU118
 299:Drivers/STM32U0xx_HAL_Driver/Src/stm32u0xx_hal_rcc_ex.c ****     __HAL_RCC_LPTIM3_CONFIG(PeriphClkInit->Lptim3ClockSelection);
 400              		.loc 1 299 5 view .LVU119
 401 0182 8821     		movs	r1, #136
 402 0184 444D     		ldr	r5, .L113
 403 0186 4E4E     		ldr	r6, .L113+40
 404 0188 6A58     		ldr	r2, [r5, r1]
 405 018a 3240     		ands	r2, r6
 406 018c A66A     		ldr	r6, [r4, #40]
 407 018e 3243     		orrs	r2, r6
 408 0190 6A50     		str	r2, [r5, r1]
 409              	.L25:
 300:Drivers/STM32U0xx_HAL_Driver/Src/stm32u0xx_hal_rcc_ex.c ****   }
 301:Drivers/STM32U0xx_HAL_Driver/Src/stm32u0xx_hal_rcc_ex.c **** #endif /* LPTIM3 */
 302:Drivers/STM32U0xx_HAL_Driver/Src/stm32u0xx_hal_rcc_ex.c ****   /*-------------------------- ADC clock source configuration ----------------*/
 303:Drivers/STM32U0xx_HAL_Driver/Src/stm32u0xx_hal_rcc_ex.c ****   if (((PeriphClkInit->PeriphClockSelection) & RCC_PERIPHCLK_ADC) == RCC_PERIPHCLK_ADC)
 410              		.loc 1 303 3 view .LVU120
 411              		.loc 1 303 6 is_stmt 0 view .LVU121
 412 0192 5A04     		lsls	r2, r3, #17
 413 0194 0BD5     		bpl	.L26
 304:Drivers/STM32U0xx_HAL_Driver/Src/stm32u0xx_hal_rcc_ex.c ****   {
 305:Drivers/STM32U0xx_HAL_Driver/Src/stm32u0xx_hal_rcc_ex.c ****     /* Check the parameters */
 306:Drivers/STM32U0xx_HAL_Driver/Src/stm32u0xx_hal_rcc_ex.c ****     assert_param(IS_RCC_ADCCLKSOURCE(PeriphClkInit->AdcClockSelection));
 414              		.loc 1 306 5 is_stmt 1 view .LVU122
 307:Drivers/STM32U0xx_HAL_Driver/Src/stm32u0xx_hal_rcc_ex.c ****     if (PeriphClkInit->AdcClockSelection == RCC_ADCCLKSOURCE_PLLP)
 415              		.loc 1 307 5 view .LVU123
ARM GAS  C:\Users\upo\AppData\Local\Temp\ccMLO1b7.s 			page 14


 416              		.loc 1 307 8 is_stmt 0 view .LVU124
 417 0196 8022     		movs	r2, #128
 418              		.loc 1 307 22 view .LVU125
 419 0198 E66B     		ldr	r6, [r4, #60]
 420              		.loc 1 307 8 view .LVU126
 421 019a 5205     		lsls	r2, r2, #21
 422 019c 9642     		cmp	r6, r2
 423 019e 5AD0     		beq	.L108
 424              	.L27:
 308:Drivers/STM32U0xx_HAL_Driver/Src/stm32u0xx_hal_rcc_ex.c ****     {
 309:Drivers/STM32U0xx_HAL_Driver/Src/stm32u0xx_hal_rcc_ex.c ****       __HAL_RCC_PLLCLKOUT_ENABLE(RCC_PLL_DIVP);
 310:Drivers/STM32U0xx_HAL_Driver/Src/stm32u0xx_hal_rcc_ex.c ****     }
 311:Drivers/STM32U0xx_HAL_Driver/Src/stm32u0xx_hal_rcc_ex.c ****     /* Configure the ADC1 clock source */
 312:Drivers/STM32U0xx_HAL_Driver/Src/stm32u0xx_hal_rcc_ex.c ****     __HAL_RCC_ADC_CONFIG(PeriphClkInit->AdcClockSelection);
 425              		.loc 1 312 5 is_stmt 1 view .LVU127
 426 01a0 8821     		movs	r1, #136
 427 01a2 3D4D     		ldr	r5, .L113
 428 01a4 474F     		ldr	r7, .L113+44
 429 01a6 6A58     		ldr	r2, [r5, r1]
 430 01a8 3A40     		ands	r2, r7
 431 01aa 3243     		orrs	r2, r6
 432 01ac 6A50     		str	r2, [r5, r1]
 433              	.L26:
 313:Drivers/STM32U0xx_HAL_Driver/Src/stm32u0xx_hal_rcc_ex.c ****   }
 314:Drivers/STM32U0xx_HAL_Driver/Src/stm32u0xx_hal_rcc_ex.c **** #if defined (USB_DRD_FS)
 315:Drivers/STM32U0xx_HAL_Driver/Src/stm32u0xx_hal_rcc_ex.c ****   /*-------------------------- USB clock source configuration ----------------*/
 316:Drivers/STM32U0xx_HAL_Driver/Src/stm32u0xx_hal_rcc_ex.c ****   if (((PeriphClkInit->PeriphClockSelection) & RCC_PERIPHCLK_USB) == RCC_PERIPHCLK_USB)
 434              		.loc 1 316 3 view .LVU128
 435              		.loc 1 316 6 is_stmt 0 view .LVU129
 436 01ae DA04     		lsls	r2, r3, #19
 437 01b0 0BD5     		bpl	.L28
 317:Drivers/STM32U0xx_HAL_Driver/Src/stm32u0xx_hal_rcc_ex.c ****   {
 318:Drivers/STM32U0xx_HAL_Driver/Src/stm32u0xx_hal_rcc_ex.c ****     /* Check the parameters */
 319:Drivers/STM32U0xx_HAL_Driver/Src/stm32u0xx_hal_rcc_ex.c ****     assert_param(IS_RCC_USBCLKSOURCE(PeriphClkInit->UsbClockSelection));
 438              		.loc 1 319 5 is_stmt 1 view .LVU130
 320:Drivers/STM32U0xx_HAL_Driver/Src/stm32u0xx_hal_rcc_ex.c ****     if (PeriphClkInit->UsbClockSelection == RCC_USBCLKSOURCE_PLLQ)
 439              		.loc 1 320 5 view .LVU131
 440              		.loc 1 320 8 is_stmt 0 view .LVU132
 441 01b2 8022     		movs	r2, #128
 442              		.loc 1 320 22 view .LVU133
 443 01b4 666B     		ldr	r6, [r4, #52]
 444              		.loc 1 320 8 view .LVU134
 445 01b6 1205     		lsls	r2, r2, #20
 446 01b8 9642     		cmp	r6, r2
 447 01ba 53D0     		beq	.L109
 448              	.L29:
 321:Drivers/STM32U0xx_HAL_Driver/Src/stm32u0xx_hal_rcc_ex.c ****     {
 322:Drivers/STM32U0xx_HAL_Driver/Src/stm32u0xx_hal_rcc_ex.c ****       __HAL_RCC_PLLCLKOUT_ENABLE(RCC_PLL_DIVQ);
 323:Drivers/STM32U0xx_HAL_Driver/Src/stm32u0xx_hal_rcc_ex.c ****     }
 324:Drivers/STM32U0xx_HAL_Driver/Src/stm32u0xx_hal_rcc_ex.c ****     /* Configure the USB clock source */
 325:Drivers/STM32U0xx_HAL_Driver/Src/stm32u0xx_hal_rcc_ex.c ****     __HAL_RCC_USB_CONFIG(PeriphClkInit->UsbClockSelection);
 449              		.loc 1 325 5 is_stmt 1 view .LVU135
 450 01bc 8821     		movs	r1, #136
 451 01be 364D     		ldr	r5, .L113
 452 01c0 414F     		ldr	r7, .L113+48
 453 01c2 6A58     		ldr	r2, [r5, r1]
 454 01c4 3A40     		ands	r2, r7
ARM GAS  C:\Users\upo\AppData\Local\Temp\ccMLO1b7.s 			page 15


 455 01c6 3243     		orrs	r2, r6
 456 01c8 6A50     		str	r2, [r5, r1]
 457              	.L28:
 326:Drivers/STM32U0xx_HAL_Driver/Src/stm32u0xx_hal_rcc_ex.c **** 
 327:Drivers/STM32U0xx_HAL_Driver/Src/stm32u0xx_hal_rcc_ex.c ****   }
 328:Drivers/STM32U0xx_HAL_Driver/Src/stm32u0xx_hal_rcc_ex.c **** #endif /* USB_DRD_FS */
 329:Drivers/STM32U0xx_HAL_Driver/Src/stm32u0xx_hal_rcc_ex.c ****   /*-------------------------- RNG clock source configuration ----------------*/
 330:Drivers/STM32U0xx_HAL_Driver/Src/stm32u0xx_hal_rcc_ex.c ****   if (((PeriphClkInit->PeriphClockSelection) & RCC_PERIPHCLK_RNG) == RCC_PERIPHCLK_RNG)
 458              		.loc 1 330 3 view .LVU136
 459              		.loc 1 330 6 is_stmt 0 view .LVU137
 460 01ca 9A04     		lsls	r2, r3, #18
 461 01cc 0BD5     		bpl	.L30
 331:Drivers/STM32U0xx_HAL_Driver/Src/stm32u0xx_hal_rcc_ex.c ****   {
 332:Drivers/STM32U0xx_HAL_Driver/Src/stm32u0xx_hal_rcc_ex.c ****     /* Check the parameters */
 333:Drivers/STM32U0xx_HAL_Driver/Src/stm32u0xx_hal_rcc_ex.c ****     assert_param(IS_RCC_RNGCLKSOURCE(PeriphClkInit->RngClockSelection));
 462              		.loc 1 333 5 is_stmt 1 view .LVU138
 334:Drivers/STM32U0xx_HAL_Driver/Src/stm32u0xx_hal_rcc_ex.c ****     if (PeriphClkInit->RngClockSelection == RCC_RNGCLKSOURCE_PLLQ)
 463              		.loc 1 334 5 view .LVU139
 464              		.loc 1 334 8 is_stmt 0 view .LVU140
 465 01ce 8022     		movs	r2, #128
 466              		.loc 1 334 22 view .LVU141
 467 01d0 A66B     		ldr	r6, [r4, #56]
 468              		.loc 1 334 8 view .LVU142
 469 01d2 1205     		lsls	r2, r2, #20
 470 01d4 9642     		cmp	r6, r2
 471 01d6 4CD0     		beq	.L110
 472              	.L31:
 335:Drivers/STM32U0xx_HAL_Driver/Src/stm32u0xx_hal_rcc_ex.c ****     {
 336:Drivers/STM32U0xx_HAL_Driver/Src/stm32u0xx_hal_rcc_ex.c ****       __HAL_RCC_PLLCLKOUT_ENABLE(RCC_PLL_DIVQ);
 337:Drivers/STM32U0xx_HAL_Driver/Src/stm32u0xx_hal_rcc_ex.c ****     }
 338:Drivers/STM32U0xx_HAL_Driver/Src/stm32u0xx_hal_rcc_ex.c ****     /* Configure the RNG clock source */
 339:Drivers/STM32U0xx_HAL_Driver/Src/stm32u0xx_hal_rcc_ex.c ****     __HAL_RCC_RNG_CONFIG(PeriphClkInit->RngClockSelection);
 473              		.loc 1 339 5 is_stmt 1 view .LVU143
 474 01d8 8821     		movs	r1, #136
 475 01da 2F4D     		ldr	r5, .L113
 476 01dc 3A4F     		ldr	r7, .L113+48
 477 01de 6A58     		ldr	r2, [r5, r1]
 478 01e0 3A40     		ands	r2, r7
 479 01e2 3243     		orrs	r2, r6
 480 01e4 6A50     		str	r2, [r5, r1]
 481              	.L30:
 340:Drivers/STM32U0xx_HAL_Driver/Src/stm32u0xx_hal_rcc_ex.c **** 
 341:Drivers/STM32U0xx_HAL_Driver/Src/stm32u0xx_hal_rcc_ex.c ****   }
 342:Drivers/STM32U0xx_HAL_Driver/Src/stm32u0xx_hal_rcc_ex.c ****   /*-------------------------- TIM1 clock source configuration ----------------*/
 343:Drivers/STM32U0xx_HAL_Driver/Src/stm32u0xx_hal_rcc_ex.c ****   if (((PeriphClkInit->PeriphClockSelection) & RCC_PERIPHCLK_TIM1) == RCC_PERIPHCLK_TIM1)
 482              		.loc 1 343 3 view .LVU144
 483              		.loc 1 343 6 is_stmt 0 view .LVU145
 484 01e6 5A05     		lsls	r2, r3, #21
 485 01e8 0BD5     		bpl	.L32
 344:Drivers/STM32U0xx_HAL_Driver/Src/stm32u0xx_hal_rcc_ex.c ****   {
 345:Drivers/STM32U0xx_HAL_Driver/Src/stm32u0xx_hal_rcc_ex.c **** 
 346:Drivers/STM32U0xx_HAL_Driver/Src/stm32u0xx_hal_rcc_ex.c ****     /* Check the parameters */
 347:Drivers/STM32U0xx_HAL_Driver/Src/stm32u0xx_hal_rcc_ex.c ****     assert_param(IS_RCC_TIM1CLKSOURCE(PeriphClkInit->Tim1ClockSelection));
 486              		.loc 1 347 5 is_stmt 1 view .LVU146
 348:Drivers/STM32U0xx_HAL_Driver/Src/stm32u0xx_hal_rcc_ex.c ****     if (PeriphClkInit->Tim1ClockSelection == RCC_TIM1CLKSOURCE_PLLQ)
 487              		.loc 1 348 5 view .LVU147
 488              		.loc 1 348 8 is_stmt 0 view .LVU148
ARM GAS  C:\Users\upo\AppData\Local\Temp\ccMLO1b7.s 			page 16


 489 01ea 8022     		movs	r2, #128
 490              		.loc 1 348 22 view .LVU149
 491 01ec E16A     		ldr	r1, [r4, #44]
 492              		.loc 1 348 8 view .LVU150
 493 01ee 5204     		lsls	r2, r2, #17
 494 01f0 9142     		cmp	r1, r2
 495 01f2 45D0     		beq	.L111
 496              	.L33:
 349:Drivers/STM32U0xx_HAL_Driver/Src/stm32u0xx_hal_rcc_ex.c ****     {
 350:Drivers/STM32U0xx_HAL_Driver/Src/stm32u0xx_hal_rcc_ex.c ****       __HAL_RCC_PLLCLKOUT_ENABLE(RCC_PLL_DIVQ);
 351:Drivers/STM32U0xx_HAL_Driver/Src/stm32u0xx_hal_rcc_ex.c ****     }
 352:Drivers/STM32U0xx_HAL_Driver/Src/stm32u0xx_hal_rcc_ex.c ****     /* Configure the TIM1 clock source */
 353:Drivers/STM32U0xx_HAL_Driver/Src/stm32u0xx_hal_rcc_ex.c ****     __HAL_RCC_TIM1_CONFIG(PeriphClkInit->Tim1ClockSelection);
 497              		.loc 1 353 5 is_stmt 1 view .LVU151
 498 01f4 8825     		movs	r5, #136
 499 01f6 284E     		ldr	r6, .L113
 500 01f8 344F     		ldr	r7, .L113+52
 501 01fa 7259     		ldr	r2, [r6, r5]
 502 01fc 3A40     		ands	r2, r7
 503 01fe 0A43     		orrs	r2, r1
 504 0200 7251     		str	r2, [r6, r5]
 505              	.L32:
 354:Drivers/STM32U0xx_HAL_Driver/Src/stm32u0xx_hal_rcc_ex.c **** 
 355:Drivers/STM32U0xx_HAL_Driver/Src/stm32u0xx_hal_rcc_ex.c ****   }
 356:Drivers/STM32U0xx_HAL_Driver/Src/stm32u0xx_hal_rcc_ex.c ****   /*-------------------------- TIM15 clock source configuration ----------------*/
 357:Drivers/STM32U0xx_HAL_Driver/Src/stm32u0xx_hal_rcc_ex.c ****   if (((PeriphClkInit->PeriphClockSelection) & RCC_PERIPHCLK_TIM15) == RCC_PERIPHCLK_TIM15)
 506              		.loc 1 357 3 view .LVU152
 507              		.loc 1 357 6 is_stmt 0 view .LVU153
 508 0202 1B05     		lsls	r3, r3, #20
 509 0204 0BD5     		bpl	.L39
 358:Drivers/STM32U0xx_HAL_Driver/Src/stm32u0xx_hal_rcc_ex.c ****   {
 359:Drivers/STM32U0xx_HAL_Driver/Src/stm32u0xx_hal_rcc_ex.c ****     /* Check the parameters */
 360:Drivers/STM32U0xx_HAL_Driver/Src/stm32u0xx_hal_rcc_ex.c ****     assert_param(IS_RCC_TIM15CLKSOURCE(PeriphClkInit->Tim15ClockSelection));
 510              		.loc 1 360 5 is_stmt 1 view .LVU154
 361:Drivers/STM32U0xx_HAL_Driver/Src/stm32u0xx_hal_rcc_ex.c ****     if (PeriphClkInit->Tim15ClockSelection == RCC_TIM15CLKSOURCE_PLLQ)
 511              		.loc 1 361 5 view .LVU155
 512              		.loc 1 361 8 is_stmt 0 view .LVU156
 513 0206 8023     		movs	r3, #128
 514              		.loc 1 361 22 view .LVU157
 515 0208 246B     		ldr	r4, [r4, #48]
 516              	.LVL21:
 517              		.loc 1 361 8 view .LVU158
 518 020a 9B04     		lsls	r3, r3, #18
 519 020c 9C42     		cmp	r4, r3
 520 020e 3CD0     		beq	.L112
 521              	.L35:
 362:Drivers/STM32U0xx_HAL_Driver/Src/stm32u0xx_hal_rcc_ex.c ****     {
 363:Drivers/STM32U0xx_HAL_Driver/Src/stm32u0xx_hal_rcc_ex.c ****       __HAL_RCC_PLLCLKOUT_ENABLE(RCC_PLL_DIVQ);
 364:Drivers/STM32U0xx_HAL_Driver/Src/stm32u0xx_hal_rcc_ex.c ****     }
 365:Drivers/STM32U0xx_HAL_Driver/Src/stm32u0xx_hal_rcc_ex.c ****     /* Configure the TIM1 clock source */
 366:Drivers/STM32U0xx_HAL_Driver/Src/stm32u0xx_hal_rcc_ex.c ****     __HAL_RCC_TIM15_CONFIG(PeriphClkInit->Tim15ClockSelection);
 522              		.loc 1 366 5 is_stmt 1 view .LVU159
 523 0210 8822     		movs	r2, #136
 524 0212 2149     		ldr	r1, .L113
 525 0214 2D4D     		ldr	r5, .L113+52
 526 0216 8B58     		ldr	r3, [r1, r2]
 527 0218 2B40     		ands	r3, r5
ARM GAS  C:\Users\upo\AppData\Local\Temp\ccMLO1b7.s 			page 17


 528 021a 2343     		orrs	r3, r4
 529 021c 8B50     		str	r3, [r1, r2]
 367:Drivers/STM32U0xx_HAL_Driver/Src/stm32u0xx_hal_rcc_ex.c **** 
 368:Drivers/STM32U0xx_HAL_Driver/Src/stm32u0xx_hal_rcc_ex.c ****   }
 369:Drivers/STM32U0xx_HAL_Driver/Src/stm32u0xx_hal_rcc_ex.c **** 
 370:Drivers/STM32U0xx_HAL_Driver/Src/stm32u0xx_hal_rcc_ex.c ****   return status;
 530              		.loc 1 370 3 view .LVU160
 531              	.L39:
 371:Drivers/STM32U0xx_HAL_Driver/Src/stm32u0xx_hal_rcc_ex.c **** }
 532              		.loc 1 371 1 is_stmt 0 view .LVU161
 533 021e 02B0     		add	sp, sp, #8
 534              		@ sp needed
 535 0220 E0BC     		pop	{r5, r6, r7}
 536 0222 BA46     		mov	r10, r7
 537 0224 B146     		mov	r9, r6
 538 0226 A846     		mov	r8, r5
 539 0228 F0BD     		pop	{r4, r5, r6, r7, pc}
 540              	.LVL22:
 541              	.L106:
 542              	.LBB6:
 135:Drivers/STM32U0xx_HAL_Driver/Src/stm32u0xx_hal_rcc_ex.c ****       pwrclkchanged = SET;
 543              		.loc 1 135 7 is_stmt 1 view .LVU162
 544              	.LBB3:
 135:Drivers/STM32U0xx_HAL_Driver/Src/stm32u0xx_hal_rcc_ex.c ****       pwrclkchanged = SET;
 545              		.loc 1 135 7 view .LVU163
 135:Drivers/STM32U0xx_HAL_Driver/Src/stm32u0xx_hal_rcc_ex.c ****       pwrclkchanged = SET;
 546              		.loc 1 135 7 view .LVU164
 547 022a 996D     		ldr	r1, [r3, #88]
 548 022c 1143     		orrs	r1, r2
 549 022e 9965     		str	r1, [r3, #88]
 135:Drivers/STM32U0xx_HAL_Driver/Src/stm32u0xx_hal_rcc_ex.c ****       pwrclkchanged = SET;
 550              		.loc 1 135 7 view .LVU165
 551 0230 9B6D     		ldr	r3, [r3, #88]
 552 0232 1340     		ands	r3, r2
 553 0234 0193     		str	r3, [sp, #4]
 135:Drivers/STM32U0xx_HAL_Driver/Src/stm32u0xx_hal_rcc_ex.c ****       pwrclkchanged = SET;
 554              		.loc 1 135 7 view .LVU166
 555 0236 019B     		ldr	r3, [sp, #4]
 556              	.LBE3:
 135:Drivers/STM32U0xx_HAL_Driver/Src/stm32u0xx_hal_rcc_ex.c ****       pwrclkchanged = SET;
 557              		.loc 1 135 7 view .LVU167
 136:Drivers/STM32U0xx_HAL_Driver/Src/stm32u0xx_hal_rcc_ex.c ****     }
 558              		.loc 1 136 7 view .LVU168
 559              	.LVL23:
 136:Drivers/STM32U0xx_HAL_Driver/Src/stm32u0xx_hal_rcc_ex.c ****     }
 560              		.loc 1 136 21 is_stmt 0 view .LVU169
 561 0238 0123     		movs	r3, #1
 562 023a 9A46     		mov	r10, r3
 563 023c F3E6     		b	.L3
 564              	.LVL24:
 565              	.L5:
 205:Drivers/STM32U0xx_HAL_Driver/Src/stm32u0xx_hal_rcc_ex.c ****     {
 566              		.loc 1 205 8 view .LVU170
 567 023e 5246     		mov	r2, r10
 195:Drivers/STM32U0xx_HAL_Driver/Src/stm32u0xx_hal_rcc_ex.c ****       }
 568              		.loc 1 195 16 view .LVU171
 569 0240 0320     		movs	r0, #3
ARM GAS  C:\Users\upo\AppData\Local\Temp\ccMLO1b7.s 			page 18


 570              	.LVL25:
 205:Drivers/STM32U0xx_HAL_Driver/Src/stm32u0xx_hal_rcc_ex.c ****     {
 571              		.loc 1 205 5 is_stmt 1 view .LVU172
 572              	.LBE6:
 212:Drivers/STM32U0xx_HAL_Driver/Src/stm32u0xx_hal_rcc_ex.c ****   {
 573              		.loc 1 212 22 is_stmt 0 view .LVU173
 574 0242 2368     		ldr	r3, [r4]
 575              	.LBB7:
 205:Drivers/STM32U0xx_HAL_Driver/Src/stm32u0xx_hal_rcc_ex.c ****     {
 576              		.loc 1 205 8 view .LVU174
 577 0244 012A     		cmp	r2, #1
 578 0246 00D0     		beq	.LCB555
 579 0248 3FE7     		b	.L2	@long jump
 580              	.LCB555:
 581              	.LVL26:
 582              	.L107:
 207:Drivers/STM32U0xx_HAL_Driver/Src/stm32u0xx_hal_rcc_ex.c ****     }
 583              		.loc 1 207 7 is_stmt 1 view .LVU175
 584 024a 1349     		ldr	r1, .L113
 585 024c 204D     		ldr	r5, .L113+56
 586 024e 8A6D     		ldr	r2, [r1, #88]
 587 0250 2A40     		ands	r2, r5
 588 0252 8A65     		str	r2, [r1, #88]
 589 0254 39E7     		b	.L2
 590              	.LVL27:
 591              	.L108:
 207:Drivers/STM32U0xx_HAL_Driver/Src/stm32u0xx_hal_rcc_ex.c ****     }
 592              		.loc 1 207 7 is_stmt 0 view .LVU176
 593              	.LBE7:
 309:Drivers/STM32U0xx_HAL_Driver/Src/stm32u0xx_hal_rcc_ex.c ****     }
 594              		.loc 1 309 7 is_stmt 1 view .LVU177
 595 0256 8022     		movs	r2, #128
 596 0258 0F49     		ldr	r1, .L113
 597 025a 5202     		lsls	r2, r2, #9
 598 025c CD68     		ldr	r5, [r1, #12]
 599 025e 2A43     		orrs	r2, r5
 600 0260 CA60     		str	r2, [r1, #12]
 601 0262 9DE7     		b	.L27
 602              	.L109:
 322:Drivers/STM32U0xx_HAL_Driver/Src/stm32u0xx_hal_rcc_ex.c ****     }
 603              		.loc 1 322 7 view .LVU178
 604 0264 8022     		movs	r2, #128
 605 0266 0C49     		ldr	r1, .L113
 606 0268 5204     		lsls	r2, r2, #17
 607 026a CD68     		ldr	r5, [r1, #12]
 608 026c 2A43     		orrs	r2, r5
 609 026e CA60     		str	r2, [r1, #12]
 610 0270 A4E7     		b	.L29
 611              	.L110:
 336:Drivers/STM32U0xx_HAL_Driver/Src/stm32u0xx_hal_rcc_ex.c ****     }
 612              		.loc 1 336 7 view .LVU179
 613 0272 8022     		movs	r2, #128
 614 0274 0849     		ldr	r1, .L113
 615 0276 5204     		lsls	r2, r2, #17
 616 0278 CD68     		ldr	r5, [r1, #12]
 617 027a 2A43     		orrs	r2, r5
 618 027c CA60     		str	r2, [r1, #12]
ARM GAS  C:\Users\upo\AppData\Local\Temp\ccMLO1b7.s 			page 19


 619 027e ABE7     		b	.L31
 620              	.L111:
 350:Drivers/STM32U0xx_HAL_Driver/Src/stm32u0xx_hal_rcc_ex.c ****     }
 621              		.loc 1 350 7 view .LVU180
 622 0280 054D     		ldr	r5, .L113
 623 0282 EA68     		ldr	r2, [r5, #12]
 624 0284 0A43     		orrs	r2, r1
 625 0286 EA60     		str	r2, [r5, #12]
 626 0288 B4E7     		b	.L33
 627              	.LVL28:
 628              	.L112:
 363:Drivers/STM32U0xx_HAL_Driver/Src/stm32u0xx_hal_rcc_ex.c ****     }
 629              		.loc 1 363 7 view .LVU181
 630 028a 8023     		movs	r3, #128
 631 028c 024A     		ldr	r2, .L113
 632 028e 5B04     		lsls	r3, r3, #17
 633 0290 D168     		ldr	r1, [r2, #12]
 634 0292 0B43     		orrs	r3, r1
 635 0294 D360     		str	r3, [r2, #12]
 636 0296 BBE7     		b	.L35
 637              	.L114:
 638              		.align	2
 639              	.L113:
 640 0298 00100240 		.word	1073876992
 641 029c 00700040 		.word	1073770496
 642 02a0 FFFCFFFF 		.word	-769
 643 02a4 FFFFFEFF 		.word	-65537
 644 02a8 88130000 		.word	5000
 645 02ac FFF3FFFF 		.word	-3073
 646 02b0 FFCFFFFF 		.word	-12289
 647 02b4 FFFFFCFF 		.word	-196609
 648 02b8 FFFFF3FF 		.word	-786433
 649 02bc FFFFCFFF 		.word	-3145729
 650 02c0 FFFF3FFF 		.word	-12582913
 651 02c4 FFFFFFCF 		.word	-805306369
 652 02c8 FFFFFFF3 		.word	-201326593
 653 02cc FFFFFFFE 		.word	-16777217
 654 02d0 FFFFFFEF 		.word	-268435457
 655              		.cfi_endproc
 656              	.LFE334:
 658              		.section	.text.HAL_RCCEx_GetPeriphCLKConfig,"ax",%progbits
 659              		.align	1
 660              		.p2align 2,,3
 661              		.global	HAL_RCCEx_GetPeriphCLKConfig
 662              		.syntax unified
 663              		.code	16
 664              		.thumb_func
 666              	HAL_RCCEx_GetPeriphCLKConfig:
 667              	.LVL29:
 668              	.LFB335:
 372:Drivers/STM32U0xx_HAL_Driver/Src/stm32u0xx_hal_rcc_ex.c **** /**
 373:Drivers/STM32U0xx_HAL_Driver/Src/stm32u0xx_hal_rcc_ex.c ****   * @brief  Get the RCC_ClkInitStruct according to the internal RCC configuration registers.
 374:Drivers/STM32U0xx_HAL_Driver/Src/stm32u0xx_hal_rcc_ex.c ****   * @param  PeriphClkInit  pointer to an RCC_PeriphCLKInitTypeDef structure that
 375:Drivers/STM32U0xx_HAL_Driver/Src/stm32u0xx_hal_rcc_ex.c ****   *         returns the configuration information for the Extended Peripherals
 376:Drivers/STM32U0xx_HAL_Driver/Src/stm32u0xx_hal_rcc_ex.c ****   *         clocks(USART1, USART2, LPUART1, LPUART2, LPUART3, I2C1, I2C2, I2C3, I2C4, LPTIM1,
 377:Drivers/STM32U0xx_HAL_Driver/Src/stm32u0xx_hal_rcc_ex.c ****   *         LPTIM2, LPTIM3, USB, TIM1, LCD, SPI1, SPI2, SPI3, RTC, RNG, ADC, DAC, IWDG).
 378:Drivers/STM32U0xx_HAL_Driver/Src/stm32u0xx_hal_rcc_ex.c ****   * @retval None
ARM GAS  C:\Users\upo\AppData\Local\Temp\ccMLO1b7.s 			page 20


 379:Drivers/STM32U0xx_HAL_Driver/Src/stm32u0xx_hal_rcc_ex.c ****   */
 380:Drivers/STM32U0xx_HAL_Driver/Src/stm32u0xx_hal_rcc_ex.c **** void HAL_RCCEx_GetPeriphCLKConfig(RCC_PeriphCLKInitTypeDef  *PeriphClkInit)
 381:Drivers/STM32U0xx_HAL_Driver/Src/stm32u0xx_hal_rcc_ex.c **** {
 669              		.loc 1 381 1 view -0
 670              		.cfi_startproc
 671              		@ args = 0, pretend = 0, frame = 0
 672              		@ frame_needed = 0, uses_anonymous_args = 0
 382:Drivers/STM32U0xx_HAL_Driver/Src/stm32u0xx_hal_rcc_ex.c ****   /* Set all possible values for the extended clock type parameter------------*/
 383:Drivers/STM32U0xx_HAL_Driver/Src/stm32u0xx_hal_rcc_ex.c ****   PeriphClkInit->PeriphClockSelection = RCC_PERIPHCLK_RTC  | RCC_PERIPHCLK_USART1 | RCC_PERIPHCLK_U
 673              		.loc 1 383 3 view .LVU183
 384:Drivers/STM32U0xx_HAL_Driver/Src/stm32u0xx_hal_rcc_ex.c ****                                         RCC_PERIPHCLK_LPUART1 | RCC_PERIPHCLK_LPUART2 | RCC_PERIPHC
 385:Drivers/STM32U0xx_HAL_Driver/Src/stm32u0xx_hal_rcc_ex.c ****                                         RCC_PERIPHCLK_I2C3 | RCC_PERIPHCLK_LPTIM1 | RCC_PERIPHCLK_L
 386:Drivers/STM32U0xx_HAL_Driver/Src/stm32u0xx_hal_rcc_ex.c ****                                         RCC_PERIPHCLK_TIM1 | RCC_PERIPHCLK_TIM15 | RCC_PERIPHCLK_RN
 387:Drivers/STM32U0xx_HAL_Driver/Src/stm32u0xx_hal_rcc_ex.c ****                                         RCC_PERIPHCLK_ADC ;
 388:Drivers/STM32U0xx_HAL_Driver/Src/stm32u0xx_hal_rcc_ex.c **** 
 389:Drivers/STM32U0xx_HAL_Driver/Src/stm32u0xx_hal_rcc_ex.c **** #if defined(LPUART3)
 390:Drivers/STM32U0xx_HAL_Driver/Src/stm32u0xx_hal_rcc_ex.c ****   PeriphClkInit->PeriphClockSelection |= RCC_PERIPHCLK_LPUART3;
 674              		.loc 1 390 3 view .LVU184
 391:Drivers/STM32U0xx_HAL_Driver/Src/stm32u0xx_hal_rcc_ex.c **** #endif /* LPUART3*/
 392:Drivers/STM32U0xx_HAL_Driver/Src/stm32u0xx_hal_rcc_ex.c **** #if defined(LPTIM3)
 393:Drivers/STM32U0xx_HAL_Driver/Src/stm32u0xx_hal_rcc_ex.c ****   PeriphClkInit->PeriphClockSelection |= RCC_PERIPHCLK_LPTIM3;
 675              		.loc 1 393 3 view .LVU185
 394:Drivers/STM32U0xx_HAL_Driver/Src/stm32u0xx_hal_rcc_ex.c **** #endif /* LPTIM3 */
 395:Drivers/STM32U0xx_HAL_Driver/Src/stm32u0xx_hal_rcc_ex.c **** #if defined(USB_DRD_FS)
 396:Drivers/STM32U0xx_HAL_Driver/Src/stm32u0xx_hal_rcc_ex.c ****   PeriphClkInit->PeriphClockSelection |= RCC_PERIPHCLK_USB;
 676              		.loc 1 396 3 view .LVU186
 397:Drivers/STM32U0xx_HAL_Driver/Src/stm32u0xx_hal_rcc_ex.c **** #endif /* USB_DRD_FS */
 398:Drivers/STM32U0xx_HAL_Driver/Src/stm32u0xx_hal_rcc_ex.c ****   /* Get the RTC clock source ---------------------------------------------*/
 399:Drivers/STM32U0xx_HAL_Driver/Src/stm32u0xx_hal_rcc_ex.c ****   PeriphClkInit->RTCClockSelection   = __HAL_RCC_GET_RTC_SOURCE();
 677              		.loc 1 399 40 is_stmt 0 view .LVU187
 678 0000 9022     		movs	r2, #144
 381:Drivers/STM32U0xx_HAL_Driver/Src/stm32u0xx_hal_rcc_ex.c ****   /* Set all possible values for the extended clock type parameter------------*/
 679              		.loc 1 381 1 view .LVU188
 680 0002 30B5     		push	{r4, r5, lr}
 681              	.LCFI3:
 682              		.cfi_def_cfa_offset 12
 683              		.cfi_offset 4, -12
 684              		.cfi_offset 5, -8
 685              		.cfi_offset 14, -4
 686              		.loc 1 399 40 view .LVU189
 687 0004 C024     		movs	r4, #192
 400:Drivers/STM32U0xx_HAL_Driver/Src/stm32u0xx_hal_rcc_ex.c **** 
 401:Drivers/STM32U0xx_HAL_Driver/Src/stm32u0xx_hal_rcc_ex.c ****   /* Get the USART1 clock source ---------------------------------------------*/
 402:Drivers/STM32U0xx_HAL_Driver/Src/stm32u0xx_hal_rcc_ex.c ****   PeriphClkInit->Usart1ClockSelection   = __HAL_RCC_GET_USART1_SOURCE();
 403:Drivers/STM32U0xx_HAL_Driver/Src/stm32u0xx_hal_rcc_ex.c **** 
 404:Drivers/STM32U0xx_HAL_Driver/Src/stm32u0xx_hal_rcc_ex.c ****   /* Get the USART2 clock source ---------------------------------------------*/
 405:Drivers/STM32U0xx_HAL_Driver/Src/stm32u0xx_hal_rcc_ex.c ****   PeriphClkInit->Usart2ClockSelection   = __HAL_RCC_GET_USART2_SOURCE();
 406:Drivers/STM32U0xx_HAL_Driver/Src/stm32u0xx_hal_rcc_ex.c **** 
 407:Drivers/STM32U0xx_HAL_Driver/Src/stm32u0xx_hal_rcc_ex.c ****   /* Get the LPUART1 clock source --------------------------------------------*/
 408:Drivers/STM32U0xx_HAL_Driver/Src/stm32u0xx_hal_rcc_ex.c ****   PeriphClkInit->Lpuart1ClockSelection  = __HAL_RCC_GET_LPUART1_SOURCE();
 409:Drivers/STM32U0xx_HAL_Driver/Src/stm32u0xx_hal_rcc_ex.c **** 
 410:Drivers/STM32U0xx_HAL_Driver/Src/stm32u0xx_hal_rcc_ex.c ****   /* Get the LPUART2 clock source --------------------------------------------*/
 411:Drivers/STM32U0xx_HAL_Driver/Src/stm32u0xx_hal_rcc_ex.c ****   PeriphClkInit->Lpuart2ClockSelection  = __HAL_RCC_GET_LPUART2_SOURCE();
 412:Drivers/STM32U0xx_HAL_Driver/Src/stm32u0xx_hal_rcc_ex.c **** 
 413:Drivers/STM32U0xx_HAL_Driver/Src/stm32u0xx_hal_rcc_ex.c **** #if defined (LPUART3)
 414:Drivers/STM32U0xx_HAL_Driver/Src/stm32u0xx_hal_rcc_ex.c ****   /* Get the LPUART3 clock source --------------------------------------------*/
 415:Drivers/STM32U0xx_HAL_Driver/Src/stm32u0xx_hal_rcc_ex.c ****   PeriphClkInit->Lpuart3ClockSelection  = __HAL_RCC_GET_LPUART3_SOURCE();
ARM GAS  C:\Users\upo\AppData\Local\Temp\ccMLO1b7.s 			page 21


 416:Drivers/STM32U0xx_HAL_Driver/Src/stm32u0xx_hal_rcc_ex.c **** #endif /* LPUART3 */
 417:Drivers/STM32U0xx_HAL_Driver/Src/stm32u0xx_hal_rcc_ex.c **** 
 418:Drivers/STM32U0xx_HAL_Driver/Src/stm32u0xx_hal_rcc_ex.c ****   /* Get the I2C1 clock source -----------------------------------------------*/
 419:Drivers/STM32U0xx_HAL_Driver/Src/stm32u0xx_hal_rcc_ex.c ****   PeriphClkInit->I2c1ClockSelection     = __HAL_RCC_GET_I2C1_SOURCE();
 420:Drivers/STM32U0xx_HAL_Driver/Src/stm32u0xx_hal_rcc_ex.c **** 
 421:Drivers/STM32U0xx_HAL_Driver/Src/stm32u0xx_hal_rcc_ex.c ****   /* Get the I2C3 clock source -----------------------------------------------*/
 422:Drivers/STM32U0xx_HAL_Driver/Src/stm32u0xx_hal_rcc_ex.c ****   PeriphClkInit->I2c3ClockSelection     = __HAL_RCC_GET_I2C3_SOURCE();
 423:Drivers/STM32U0xx_HAL_Driver/Src/stm32u0xx_hal_rcc_ex.c **** 
 424:Drivers/STM32U0xx_HAL_Driver/Src/stm32u0xx_hal_rcc_ex.c ****   /* Get the LPTIM1 clock source ---------------------------------------------*/
 425:Drivers/STM32U0xx_HAL_Driver/Src/stm32u0xx_hal_rcc_ex.c ****   PeriphClkInit->Lptim1ClockSelection  = __HAL_RCC_GET_LPTIM1_SOURCE();
 426:Drivers/STM32U0xx_HAL_Driver/Src/stm32u0xx_hal_rcc_ex.c **** 
 427:Drivers/STM32U0xx_HAL_Driver/Src/stm32u0xx_hal_rcc_ex.c ****   /* Get the LPTIM2 clock source ---------------------------------------------*/
 428:Drivers/STM32U0xx_HAL_Driver/Src/stm32u0xx_hal_rcc_ex.c ****   PeriphClkInit->Lptim2ClockSelection   = __HAL_RCC_GET_LPTIM2_SOURCE();
 429:Drivers/STM32U0xx_HAL_Driver/Src/stm32u0xx_hal_rcc_ex.c **** 
 430:Drivers/STM32U0xx_HAL_Driver/Src/stm32u0xx_hal_rcc_ex.c **** #if defined (LPTIM3)
 431:Drivers/STM32U0xx_HAL_Driver/Src/stm32u0xx_hal_rcc_ex.c ****   /* Get the LPTIM3 clock source ---------------------------------------------*/
 432:Drivers/STM32U0xx_HAL_Driver/Src/stm32u0xx_hal_rcc_ex.c ****   PeriphClkInit->Lptim3ClockSelection   = __HAL_RCC_GET_LPTIM3_SOURCE();
 433:Drivers/STM32U0xx_HAL_Driver/Src/stm32u0xx_hal_rcc_ex.c **** #endif /* LPTIM3 */
 434:Drivers/STM32U0xx_HAL_Driver/Src/stm32u0xx_hal_rcc_ex.c **** 
 435:Drivers/STM32U0xx_HAL_Driver/Src/stm32u0xx_hal_rcc_ex.c ****   /* Get the ADC clock source -----------------------------------------------*/
 436:Drivers/STM32U0xx_HAL_Driver/Src/stm32u0xx_hal_rcc_ex.c ****   PeriphClkInit->AdcClockSelection      = __HAL_RCC_GET_ADC_SOURCE();
 437:Drivers/STM32U0xx_HAL_Driver/Src/stm32u0xx_hal_rcc_ex.c **** 
 438:Drivers/STM32U0xx_HAL_Driver/Src/stm32u0xx_hal_rcc_ex.c ****   /* Get the TIM1 clock source -----------------------------------------------*/
 439:Drivers/STM32U0xx_HAL_Driver/Src/stm32u0xx_hal_rcc_ex.c ****   PeriphClkInit->Tim1ClockSelection     = __HAL_RCC_GET_TIM1_SOURCE();
 440:Drivers/STM32U0xx_HAL_Driver/Src/stm32u0xx_hal_rcc_ex.c **** 
 441:Drivers/STM32U0xx_HAL_Driver/Src/stm32u0xx_hal_rcc_ex.c ****   /* Get the TIM15 clock source -----------------------------------------------*/
 442:Drivers/STM32U0xx_HAL_Driver/Src/stm32u0xx_hal_rcc_ex.c ****   PeriphClkInit->Tim15ClockSelection     = __HAL_RCC_GET_TIM15_SOURCE();
 443:Drivers/STM32U0xx_HAL_Driver/Src/stm32u0xx_hal_rcc_ex.c **** 
 444:Drivers/STM32U0xx_HAL_Driver/Src/stm32u0xx_hal_rcc_ex.c **** #if defined (USB_DRD_FS)
 445:Drivers/STM32U0xx_HAL_Driver/Src/stm32u0xx_hal_rcc_ex.c ****   /* Get the USB clock source -------------------------------------------------*/
 446:Drivers/STM32U0xx_HAL_Driver/Src/stm32u0xx_hal_rcc_ex.c ****   PeriphClkInit->UsbClockSelection     = __HAL_RCC_GET_USB_SOURCE();
 447:Drivers/STM32U0xx_HAL_Driver/Src/stm32u0xx_hal_rcc_ex.c **** #endif /* USB_DRD_FS */
 448:Drivers/STM32U0xx_HAL_Driver/Src/stm32u0xx_hal_rcc_ex.c **** 
 449:Drivers/STM32U0xx_HAL_Driver/Src/stm32u0xx_hal_rcc_ex.c ****   /* Get the RNG clock source -------------------------------------------------*/
 450:Drivers/STM32U0xx_HAL_Driver/Src/stm32u0xx_hal_rcc_ex.c ****   PeriphClkInit->RngClockSelection     = __HAL_RCC_GET_RNG_SOURCE();
 451:Drivers/STM32U0xx_HAL_Driver/Src/stm32u0xx_hal_rcc_ex.c **** 
 452:Drivers/STM32U0xx_HAL_Driver/Src/stm32u0xx_hal_rcc_ex.c **** }
 688              		.loc 1 452 1 view .LVU190
 689              		@ sp needed
 396:Drivers/STM32U0xx_HAL_Driver/Src/stm32u0xx_hal_rcc_ex.c **** #endif /* USB_DRD_FS */
 690              		.loc 1 396 39 view .LVU191
 691 0006 264B     		ldr	r3, .L116
 399:Drivers/STM32U0xx_HAL_Driver/Src/stm32u0xx_hal_rcc_ex.c **** 
 692              		.loc 1 399 40 view .LVU192
 693 0008 A400     		lsls	r4, r4, #2
 396:Drivers/STM32U0xx_HAL_Driver/Src/stm32u0xx_hal_rcc_ex.c **** #endif /* USB_DRD_FS */
 694              		.loc 1 396 39 view .LVU193
 695 000a 0360     		str	r3, [r0]
 399:Drivers/STM32U0xx_HAL_Driver/Src/stm32u0xx_hal_rcc_ex.c **** 
 696              		.loc 1 399 3 is_stmt 1 view .LVU194
 399:Drivers/STM32U0xx_HAL_Driver/Src/stm32u0xx_hal_rcc_ex.c **** 
 697              		.loc 1 399 40 is_stmt 0 view .LVU195
 698 000c 254B     		ldr	r3, .L116+4
 402:Drivers/STM32U0xx_HAL_Driver/Src/stm32u0xx_hal_rcc_ex.c **** 
 699              		.loc 1 402 43 view .LVU196
 700 000e 0321     		movs	r1, #3
 399:Drivers/STM32U0xx_HAL_Driver/Src/stm32u0xx_hal_rcc_ex.c **** 
ARM GAS  C:\Users\upo\AppData\Local\Temp\ccMLO1b7.s 			page 22


 701              		.loc 1 399 40 view .LVU197
 702 0010 9A58     		ldr	r2, [r3, r2]
 703 0012 2240     		ands	r2, r4
 399:Drivers/STM32U0xx_HAL_Driver/Src/stm32u0xx_hal_rcc_ex.c **** 
 704              		.loc 1 399 38 view .LVU198
 705 0014 0264     		str	r2, [r0, #64]
 402:Drivers/STM32U0xx_HAL_Driver/Src/stm32u0xx_hal_rcc_ex.c **** 
 706              		.loc 1 402 3 is_stmt 1 view .LVU199
 402:Drivers/STM32U0xx_HAL_Driver/Src/stm32u0xx_hal_rcc_ex.c **** 
 707              		.loc 1 402 43 is_stmt 0 view .LVU200
 708 0016 8822     		movs	r2, #136
 709 0018 9D58     		ldr	r5, [r3, r2]
 710 001a 2940     		ands	r1, r5
 402:Drivers/STM32U0xx_HAL_Driver/Src/stm32u0xx_hal_rcc_ex.c **** 
 711              		.loc 1 402 41 view .LVU201
 712 001c 4160     		str	r1, [r0, #4]
 405:Drivers/STM32U0xx_HAL_Driver/Src/stm32u0xx_hal_rcc_ex.c **** 
 713              		.loc 1 405 3 is_stmt 1 view .LVU202
 405:Drivers/STM32U0xx_HAL_Driver/Src/stm32u0xx_hal_rcc_ex.c **** 
 714              		.loc 1 405 43 is_stmt 0 view .LVU203
 715 001e 0C21     		movs	r1, #12
 716 0020 9D58     		ldr	r5, [r3, r2]
 717 0022 2940     		ands	r1, r5
 408:Drivers/STM32U0xx_HAL_Driver/Src/stm32u0xx_hal_rcc_ex.c **** 
 718              		.loc 1 408 43 view .LVU204
 719 0024 C025     		movs	r5, #192
 405:Drivers/STM32U0xx_HAL_Driver/Src/stm32u0xx_hal_rcc_ex.c **** 
 720              		.loc 1 405 41 view .LVU205
 721 0026 8160     		str	r1, [r0, #8]
 408:Drivers/STM32U0xx_HAL_Driver/Src/stm32u0xx_hal_rcc_ex.c **** 
 722              		.loc 1 408 3 is_stmt 1 view .LVU206
 408:Drivers/STM32U0xx_HAL_Driver/Src/stm32u0xx_hal_rcc_ex.c **** 
 723              		.loc 1 408 43 is_stmt 0 view .LVU207
 724 0028 9958     		ldr	r1, [r3, r2]
 725 002a 2D01     		lsls	r5, r5, #4
 726 002c 2940     		ands	r1, r5
 408:Drivers/STM32U0xx_HAL_Driver/Src/stm32u0xx_hal_rcc_ex.c **** 
 727              		.loc 1 408 41 view .LVU208
 728 002e 4161     		str	r1, [r0, #20]
 411:Drivers/STM32U0xx_HAL_Driver/Src/stm32u0xx_hal_rcc_ex.c **** 
 729              		.loc 1 411 3 is_stmt 1 view .LVU209
 411:Drivers/STM32U0xx_HAL_Driver/Src/stm32u0xx_hal_rcc_ex.c **** 
 730              		.loc 1 411 43 is_stmt 0 view .LVU210
 731 0030 9958     		ldr	r1, [r3, r2]
 732 0032 2140     		ands	r1, r4
 411:Drivers/STM32U0xx_HAL_Driver/Src/stm32u0xx_hal_rcc_ex.c **** 
 733              		.loc 1 411 41 view .LVU211
 734 0034 0161     		str	r1, [r0, #16]
 415:Drivers/STM32U0xx_HAL_Driver/Src/stm32u0xx_hal_rcc_ex.c **** #endif /* LPUART3 */
 735              		.loc 1 415 3 is_stmt 1 view .LVU212
 415:Drivers/STM32U0xx_HAL_Driver/Src/stm32u0xx_hal_rcc_ex.c **** #endif /* LPUART3 */
 736              		.loc 1 415 43 is_stmt 0 view .LVU213
 737 0036 C021     		movs	r1, #192
 738 0038 9C58     		ldr	r4, [r3, r2]
 739 003a 2140     		ands	r1, r4
 419:Drivers/STM32U0xx_HAL_Driver/Src/stm32u0xx_hal_rcc_ex.c **** 
 740              		.loc 1 419 43 view .LVU214
ARM GAS  C:\Users\upo\AppData\Local\Temp\ccMLO1b7.s 			page 23


 741 003c C024     		movs	r4, #192
 415:Drivers/STM32U0xx_HAL_Driver/Src/stm32u0xx_hal_rcc_ex.c **** #endif /* LPUART3 */
 742              		.loc 1 415 41 view .LVU215
 743 003e C160     		str	r1, [r0, #12]
 419:Drivers/STM32U0xx_HAL_Driver/Src/stm32u0xx_hal_rcc_ex.c **** 
 744              		.loc 1 419 3 is_stmt 1 view .LVU216
 419:Drivers/STM32U0xx_HAL_Driver/Src/stm32u0xx_hal_rcc_ex.c **** 
 745              		.loc 1 419 43 is_stmt 0 view .LVU217
 746 0040 9958     		ldr	r1, [r3, r2]
 747 0042 A401     		lsls	r4, r4, #6
 748 0044 2140     		ands	r1, r4
 422:Drivers/STM32U0xx_HAL_Driver/Src/stm32u0xx_hal_rcc_ex.c **** 
 749              		.loc 1 422 43 view .LVU218
 750 0046 C024     		movs	r4, #192
 419:Drivers/STM32U0xx_HAL_Driver/Src/stm32u0xx_hal_rcc_ex.c **** 
 751              		.loc 1 419 41 view .LVU219
 752 0048 8161     		str	r1, [r0, #24]
 422:Drivers/STM32U0xx_HAL_Driver/Src/stm32u0xx_hal_rcc_ex.c **** 
 753              		.loc 1 422 3 is_stmt 1 view .LVU220
 422:Drivers/STM32U0xx_HAL_Driver/Src/stm32u0xx_hal_rcc_ex.c **** 
 754              		.loc 1 422 43 is_stmt 0 view .LVU221
 755 004a 9958     		ldr	r1, [r3, r2]
 756 004c A402     		lsls	r4, r4, #10
 757 004e 2140     		ands	r1, r4
 425:Drivers/STM32U0xx_HAL_Driver/Src/stm32u0xx_hal_rcc_ex.c **** 
 758              		.loc 1 425 42 view .LVU222
 759 0050 C024     		movs	r4, #192
 422:Drivers/STM32U0xx_HAL_Driver/Src/stm32u0xx_hal_rcc_ex.c **** 
 760              		.loc 1 422 41 view .LVU223
 761 0052 C161     		str	r1, [r0, #28]
 425:Drivers/STM32U0xx_HAL_Driver/Src/stm32u0xx_hal_rcc_ex.c **** 
 762              		.loc 1 425 3 is_stmt 1 view .LVU224
 425:Drivers/STM32U0xx_HAL_Driver/Src/stm32u0xx_hal_rcc_ex.c **** 
 763              		.loc 1 425 42 is_stmt 0 view .LVU225
 764 0054 9958     		ldr	r1, [r3, r2]
 765 0056 2403     		lsls	r4, r4, #12
 766 0058 2140     		ands	r1, r4
 428:Drivers/STM32U0xx_HAL_Driver/Src/stm32u0xx_hal_rcc_ex.c **** 
 767              		.loc 1 428 43 view .LVU226
 768 005a C024     		movs	r4, #192
 425:Drivers/STM32U0xx_HAL_Driver/Src/stm32u0xx_hal_rcc_ex.c **** 
 769              		.loc 1 425 40 view .LVU227
 770 005c 0162     		str	r1, [r0, #32]
 428:Drivers/STM32U0xx_HAL_Driver/Src/stm32u0xx_hal_rcc_ex.c **** 
 771              		.loc 1 428 3 is_stmt 1 view .LVU228
 428:Drivers/STM32U0xx_HAL_Driver/Src/stm32u0xx_hal_rcc_ex.c **** 
 772              		.loc 1 428 43 is_stmt 0 view .LVU229
 773 005e 9958     		ldr	r1, [r3, r2]
 774 0060 A403     		lsls	r4, r4, #14
 775 0062 2140     		ands	r1, r4
 432:Drivers/STM32U0xx_HAL_Driver/Src/stm32u0xx_hal_rcc_ex.c **** #endif /* LPTIM3 */
 776              		.loc 1 432 43 view .LVU230
 777 0064 C024     		movs	r4, #192
 428:Drivers/STM32U0xx_HAL_Driver/Src/stm32u0xx_hal_rcc_ex.c **** 
 778              		.loc 1 428 41 view .LVU231
 779 0066 4162     		str	r1, [r0, #36]
 432:Drivers/STM32U0xx_HAL_Driver/Src/stm32u0xx_hal_rcc_ex.c **** #endif /* LPTIM3 */
ARM GAS  C:\Users\upo\AppData\Local\Temp\ccMLO1b7.s 			page 24


 780              		.loc 1 432 3 is_stmt 1 view .LVU232
 432:Drivers/STM32U0xx_HAL_Driver/Src/stm32u0xx_hal_rcc_ex.c **** #endif /* LPTIM3 */
 781              		.loc 1 432 43 is_stmt 0 view .LVU233
 782 0068 9958     		ldr	r1, [r3, r2]
 783 006a 2404     		lsls	r4, r4, #16
 784 006c 2140     		ands	r1, r4
 436:Drivers/STM32U0xx_HAL_Driver/Src/stm32u0xx_hal_rcc_ex.c **** 
 785              		.loc 1 436 43 view .LVU234
 786 006e C024     		movs	r4, #192
 432:Drivers/STM32U0xx_HAL_Driver/Src/stm32u0xx_hal_rcc_ex.c **** #endif /* LPTIM3 */
 787              		.loc 1 432 41 view .LVU235
 788 0070 8162     		str	r1, [r0, #40]
 436:Drivers/STM32U0xx_HAL_Driver/Src/stm32u0xx_hal_rcc_ex.c **** 
 789              		.loc 1 436 3 is_stmt 1 view .LVU236
 436:Drivers/STM32U0xx_HAL_Driver/Src/stm32u0xx_hal_rcc_ex.c **** 
 790              		.loc 1 436 43 is_stmt 0 view .LVU237
 791 0072 9958     		ldr	r1, [r3, r2]
 792 0074 A405     		lsls	r4, r4, #22
 793 0076 2140     		ands	r1, r4
 439:Drivers/STM32U0xx_HAL_Driver/Src/stm32u0xx_hal_rcc_ex.c **** 
 794              		.loc 1 439 43 view .LVU238
 795 0078 8024     		movs	r4, #128
 436:Drivers/STM32U0xx_HAL_Driver/Src/stm32u0xx_hal_rcc_ex.c **** 
 796              		.loc 1 436 41 view .LVU239
 797 007a C163     		str	r1, [r0, #60]
 439:Drivers/STM32U0xx_HAL_Driver/Src/stm32u0xx_hal_rcc_ex.c **** 
 798              		.loc 1 439 3 is_stmt 1 view .LVU240
 439:Drivers/STM32U0xx_HAL_Driver/Src/stm32u0xx_hal_rcc_ex.c **** 
 799              		.loc 1 439 43 is_stmt 0 view .LVU241
 800 007c 9958     		ldr	r1, [r3, r2]
 801 007e 6404     		lsls	r4, r4, #17
 802 0080 2140     		ands	r1, r4
 442:Drivers/STM32U0xx_HAL_Driver/Src/stm32u0xx_hal_rcc_ex.c **** 
 803              		.loc 1 442 44 view .LVU242
 804 0082 8024     		movs	r4, #128
 439:Drivers/STM32U0xx_HAL_Driver/Src/stm32u0xx_hal_rcc_ex.c **** 
 805              		.loc 1 439 41 view .LVU243
 806 0084 C162     		str	r1, [r0, #44]
 442:Drivers/STM32U0xx_HAL_Driver/Src/stm32u0xx_hal_rcc_ex.c **** 
 807              		.loc 1 442 3 is_stmt 1 view .LVU244
 442:Drivers/STM32U0xx_HAL_Driver/Src/stm32u0xx_hal_rcc_ex.c **** 
 808              		.loc 1 442 44 is_stmt 0 view .LVU245
 809 0086 9958     		ldr	r1, [r3, r2]
 810 0088 A404     		lsls	r4, r4, #18
 811 008a 2140     		ands	r1, r4
 446:Drivers/STM32U0xx_HAL_Driver/Src/stm32u0xx_hal_rcc_ex.c **** #endif /* USB_DRD_FS */
 812              		.loc 1 446 42 view .LVU246
 813 008c C024     		movs	r4, #192
 442:Drivers/STM32U0xx_HAL_Driver/Src/stm32u0xx_hal_rcc_ex.c **** 
 814              		.loc 1 442 42 view .LVU247
 815 008e 0163     		str	r1, [r0, #48]
 446:Drivers/STM32U0xx_HAL_Driver/Src/stm32u0xx_hal_rcc_ex.c **** #endif /* USB_DRD_FS */
 816              		.loc 1 446 3 is_stmt 1 view .LVU248
 446:Drivers/STM32U0xx_HAL_Driver/Src/stm32u0xx_hal_rcc_ex.c **** #endif /* USB_DRD_FS */
 817              		.loc 1 446 42 is_stmt 0 view .LVU249
 818 0090 9958     		ldr	r1, [r3, r2]
 819 0092 2405     		lsls	r4, r4, #20
ARM GAS  C:\Users\upo\AppData\Local\Temp\ccMLO1b7.s 			page 25


 820 0094 2140     		ands	r1, r4
 446:Drivers/STM32U0xx_HAL_Driver/Src/stm32u0xx_hal_rcc_ex.c **** #endif /* USB_DRD_FS */
 821              		.loc 1 446 40 view .LVU250
 822 0096 4163     		str	r1, [r0, #52]
 450:Drivers/STM32U0xx_HAL_Driver/Src/stm32u0xx_hal_rcc_ex.c **** 
 823              		.loc 1 450 3 is_stmt 1 view .LVU251
 450:Drivers/STM32U0xx_HAL_Driver/Src/stm32u0xx_hal_rcc_ex.c **** 
 824              		.loc 1 450 42 is_stmt 0 view .LVU252
 825 0098 9B58     		ldr	r3, [r3, r2]
 826 009a 2340     		ands	r3, r4
 450:Drivers/STM32U0xx_HAL_Driver/Src/stm32u0xx_hal_rcc_ex.c **** 
 827              		.loc 1 450 40 view .LVU253
 828 009c 8363     		str	r3, [r0, #56]
 829              		.loc 1 452 1 view .LVU254
 830 009e 30BD     		pop	{r4, r5, pc}
 831              	.L117:
 832              		.align	2
 833              	.L116:
 834 00a0 FFFF0000 		.word	65535
 835 00a4 00100240 		.word	1073876992
 836              		.cfi_endproc
 837              	.LFE335:
 839              		.global	__aeabi_uidiv
 840              		.global	__aeabi_idiv
 841              		.section	.text.HAL_RCCEx_GetPLLClockFreq,"ax",%progbits
 842              		.align	1
 843              		.p2align 2,,3
 844              		.global	HAL_RCCEx_GetPLLClockFreq
 845              		.syntax unified
 846              		.code	16
 847              		.thumb_func
 849              	HAL_RCCEx_GetPLLClockFreq:
 850              	.LVL30:
 851              	.LFB337:
 453:Drivers/STM32U0xx_HAL_Driver/Src/stm32u0xx_hal_rcc_ex.c **** 
 454:Drivers/STM32U0xx_HAL_Driver/Src/stm32u0xx_hal_rcc_ex.c **** /**
 455:Drivers/STM32U0xx_HAL_Driver/Src/stm32u0xx_hal_rcc_ex.c ****   * @brief  Return the peripheral clock frequency for peripherals with clock source from PLLSAIs
 456:Drivers/STM32U0xx_HAL_Driver/Src/stm32u0xx_hal_rcc_ex.c ****   * @note   Return 0 if peripheral clock identifier not managed by this API
 457:Drivers/STM32U0xx_HAL_Driver/Src/stm32u0xx_hal_rcc_ex.c ****   * @param  PeriphClk  Peripheral clock identifier
 458:Drivers/STM32U0xx_HAL_Driver/Src/stm32u0xx_hal_rcc_ex.c ****   *         This parameter can be one of the following values:
 459:Drivers/STM32U0xx_HAL_Driver/Src/stm32u0xx_hal_rcc_ex.c ****   *            @arg @ref RCC_PERIPHCLK_ADC  ADC peripheral clock
 460:Drivers/STM32U0xx_HAL_Driver/Src/stm32u0xx_hal_rcc_ex.c ****   *            @arg @ref RCC_PERIPHCLK_I2C1  I2C1 peripheral clock
 461:Drivers/STM32U0xx_HAL_Driver/Src/stm32u0xx_hal_rcc_ex.c ****   *            @arg @ref RCC_PERIPHCLK_I2C3  I2C3 peripheral clock
 462:Drivers/STM32U0xx_HAL_Driver/Src/stm32u0xx_hal_rcc_ex.c ****   *            @arg @ref RCC_PERIPHCLK_LPTIM1  LPTIM1 peripheral clock
 463:Drivers/STM32U0xx_HAL_Driver/Src/stm32u0xx_hal_rcc_ex.c ****   *            @arg @ref RCC_PERIPHCLK_LPTIM2  LPTIM2 peripheral clock
 464:Drivers/STM32U0xx_HAL_Driver/Src/stm32u0xx_hal_rcc_ex.c ****   *            @arg @ref RCC_PERIPHCLK_LPTIM3  LPTIM3 peripheral clock
 465:Drivers/STM32U0xx_HAL_Driver/Src/stm32u0xx_hal_rcc_ex.c ****   *            @arg @ref RCC_PERIPHCLK_LPUART1  LPUART1 peripheral clock
 466:Drivers/STM32U0xx_HAL_Driver/Src/stm32u0xx_hal_rcc_ex.c ****   *            @arg @ref RCC_PERIPHCLK_LPUART2  LPUART2 peripheral clock
 467:Drivers/STM32U0xx_HAL_Driver/Src/stm32u0xx_hal_rcc_ex.c ****   *            @arg @ref RCC_PERIPHCLK_LPUART3  LPUART3 peripheral clock
 468:Drivers/STM32U0xx_HAL_Driver/Src/stm32u0xx_hal_rcc_ex.c ****   *            @arg @ref RCC_PERIPHCLK_USART1  USART1 peripheral clock
 469:Drivers/STM32U0xx_HAL_Driver/Src/stm32u0xx_hal_rcc_ex.c ****   *            @arg @ref RCC_PERIPHCLK_USART2  USART2 peripheral clock
 470:Drivers/STM32U0xx_HAL_Driver/Src/stm32u0xx_hal_rcc_ex.c ****   *            @arg @ref RCC_PERIPHCLK_USART3  USART3 peripheral clock
 471:Drivers/STM32U0xx_HAL_Driver/Src/stm32u0xx_hal_rcc_ex.c ****   *            @arg @ref RCC_PERIPHCLK_USART4  USART4 peripheral clock
 472:Drivers/STM32U0xx_HAL_Driver/Src/stm32u0xx_hal_rcc_ex.c ****   *            @arg @ref RCC_PERIPHCLK_USB  USB peripheral clock (only for devices with USB)
 473:Drivers/STM32U0xx_HAL_Driver/Src/stm32u0xx_hal_rcc_ex.c ****   *            @arg @ref RCC_PERIPHCLK_RNG  RNG peripheral clock (only for devices with RNG)
 474:Drivers/STM32U0xx_HAL_Driver/Src/stm32u0xx_hal_rcc_ex.c ****   *            @arg @ref RCC_PERIPHCLK_TIM1  TIM1 peripheral clock (only for devices with TIM1)
 475:Drivers/STM32U0xx_HAL_Driver/Src/stm32u0xx_hal_rcc_ex.c ****   *            @arg @ref RCC_PERIPHCLK_TIM15  TIM15 peripheral clock (only for devices with TIM15)
ARM GAS  C:\Users\upo\AppData\Local\Temp\ccMLO1b7.s 			page 26


 476:Drivers/STM32U0xx_HAL_Driver/Src/stm32u0xx_hal_rcc_ex.c ****   * @retval Frequency in Hz
 477:Drivers/STM32U0xx_HAL_Driver/Src/stm32u0xx_hal_rcc_ex.c ****   */
 478:Drivers/STM32U0xx_HAL_Driver/Src/stm32u0xx_hal_rcc_ex.c **** uint32_t HAL_RCCEx_GetPeriphCLKFreq(uint32_t PeriphClk)
 479:Drivers/STM32U0xx_HAL_Driver/Src/stm32u0xx_hal_rcc_ex.c **** {
 480:Drivers/STM32U0xx_HAL_Driver/Src/stm32u0xx_hal_rcc_ex.c ****   uint32_t frequency = 0U;
 481:Drivers/STM32U0xx_HAL_Driver/Src/stm32u0xx_hal_rcc_ex.c ****   uint32_t srcclk;    /* no init needed */
 482:Drivers/STM32U0xx_HAL_Driver/Src/stm32u0xx_hal_rcc_ex.c ****   PLL_ClocksTypeDef pll_freq;
 483:Drivers/STM32U0xx_HAL_Driver/Src/stm32u0xx_hal_rcc_ex.c ****   uint32_t msirange;
 484:Drivers/STM32U0xx_HAL_Driver/Src/stm32u0xx_hal_rcc_ex.c ****   /* Check the parameters */
 485:Drivers/STM32U0xx_HAL_Driver/Src/stm32u0xx_hal_rcc_ex.c ****   assert_param(IS_RCC_PERIPHCLOCK(PeriphClk));
 486:Drivers/STM32U0xx_HAL_Driver/Src/stm32u0xx_hal_rcc_ex.c **** 
 487:Drivers/STM32U0xx_HAL_Driver/Src/stm32u0xx_hal_rcc_ex.c ****   if (PeriphClk == RCC_PERIPHCLK_RTC)
 488:Drivers/STM32U0xx_HAL_Driver/Src/stm32u0xx_hal_rcc_ex.c ****   {
 489:Drivers/STM32U0xx_HAL_Driver/Src/stm32u0xx_hal_rcc_ex.c ****     /* Get the current RCC_PERIPHCLK_RTC source */
 490:Drivers/STM32U0xx_HAL_Driver/Src/stm32u0xx_hal_rcc_ex.c ****     srcclk = __HAL_RCC_GET_RTC_SOURCE();
 491:Drivers/STM32U0xx_HAL_Driver/Src/stm32u0xx_hal_rcc_ex.c **** 
 492:Drivers/STM32U0xx_HAL_Driver/Src/stm32u0xx_hal_rcc_ex.c ****     switch (srcclk)
 493:Drivers/STM32U0xx_HAL_Driver/Src/stm32u0xx_hal_rcc_ex.c ****     {
 494:Drivers/STM32U0xx_HAL_Driver/Src/stm32u0xx_hal_rcc_ex.c ****       case RCC_RTCCLKSOURCE_LSE:
 495:Drivers/STM32U0xx_HAL_Driver/Src/stm32u0xx_hal_rcc_ex.c ****         /* Check if LSE is ready */
 496:Drivers/STM32U0xx_HAL_Driver/Src/stm32u0xx_hal_rcc_ex.c ****         if (HAL_IS_BIT_SET(RCC->BDCR, RCC_BDCR_LSERDY))
 497:Drivers/STM32U0xx_HAL_Driver/Src/stm32u0xx_hal_rcc_ex.c ****         {
 498:Drivers/STM32U0xx_HAL_Driver/Src/stm32u0xx_hal_rcc_ex.c ****           frequency = LSE_VALUE;
 499:Drivers/STM32U0xx_HAL_Driver/Src/stm32u0xx_hal_rcc_ex.c ****         }
 500:Drivers/STM32U0xx_HAL_Driver/Src/stm32u0xx_hal_rcc_ex.c ****         break;
 501:Drivers/STM32U0xx_HAL_Driver/Src/stm32u0xx_hal_rcc_ex.c ****       case RCC_RTCCLKSOURCE_LSI:
 502:Drivers/STM32U0xx_HAL_Driver/Src/stm32u0xx_hal_rcc_ex.c ****         /* Check if LSI is ready */
 503:Drivers/STM32U0xx_HAL_Driver/Src/stm32u0xx_hal_rcc_ex.c ****         if (HAL_IS_BIT_SET(RCC->CSR, RCC_CSR_LSIRDY))
 504:Drivers/STM32U0xx_HAL_Driver/Src/stm32u0xx_hal_rcc_ex.c ****         {
 505:Drivers/STM32U0xx_HAL_Driver/Src/stm32u0xx_hal_rcc_ex.c **** #if defined(RCC_CSR_LSIPREDIV)
 506:Drivers/STM32U0xx_HAL_Driver/Src/stm32u0xx_hal_rcc_ex.c ****           if (HAL_IS_BIT_SET(RCC->CSR, RCC_CSR_LSIPREDIV))
 507:Drivers/STM32U0xx_HAL_Driver/Src/stm32u0xx_hal_rcc_ex.c ****           {
 508:Drivers/STM32U0xx_HAL_Driver/Src/stm32u0xx_hal_rcc_ex.c ****             frequency = LSI_VALUE / 128U;
 509:Drivers/STM32U0xx_HAL_Driver/Src/stm32u0xx_hal_rcc_ex.c ****           }
 510:Drivers/STM32U0xx_HAL_Driver/Src/stm32u0xx_hal_rcc_ex.c ****           else
 511:Drivers/STM32U0xx_HAL_Driver/Src/stm32u0xx_hal_rcc_ex.c **** #endif /* RCC_CSR_LSIPREDIV */
 512:Drivers/STM32U0xx_HAL_Driver/Src/stm32u0xx_hal_rcc_ex.c ****           {
 513:Drivers/STM32U0xx_HAL_Driver/Src/stm32u0xx_hal_rcc_ex.c ****             frequency = LSI_VALUE;
 514:Drivers/STM32U0xx_HAL_Driver/Src/stm32u0xx_hal_rcc_ex.c ****           }
 515:Drivers/STM32U0xx_HAL_Driver/Src/stm32u0xx_hal_rcc_ex.c ****         }
 516:Drivers/STM32U0xx_HAL_Driver/Src/stm32u0xx_hal_rcc_ex.c ****         break;
 517:Drivers/STM32U0xx_HAL_Driver/Src/stm32u0xx_hal_rcc_ex.c ****       case RCC_RTCCLKSOURCE_HSE:
 518:Drivers/STM32U0xx_HAL_Driver/Src/stm32u0xx_hal_rcc_ex.c ****         /* Check if HSE is ready */
 519:Drivers/STM32U0xx_HAL_Driver/Src/stm32u0xx_hal_rcc_ex.c ****         if (HAL_IS_BIT_SET(RCC->CR, RCC_CR_HSERDY))
 520:Drivers/STM32U0xx_HAL_Driver/Src/stm32u0xx_hal_rcc_ex.c ****         {
 521:Drivers/STM32U0xx_HAL_Driver/Src/stm32u0xx_hal_rcc_ex.c ****           frequency = HSE_VALUE / 32U;
 522:Drivers/STM32U0xx_HAL_Driver/Src/stm32u0xx_hal_rcc_ex.c ****         }
 523:Drivers/STM32U0xx_HAL_Driver/Src/stm32u0xx_hal_rcc_ex.c ****         break;
 524:Drivers/STM32U0xx_HAL_Driver/Src/stm32u0xx_hal_rcc_ex.c ****       default:
 525:Drivers/STM32U0xx_HAL_Driver/Src/stm32u0xx_hal_rcc_ex.c ****         /* No clock source, frequency default init at 0 */
 526:Drivers/STM32U0xx_HAL_Driver/Src/stm32u0xx_hal_rcc_ex.c ****         break;
 527:Drivers/STM32U0xx_HAL_Driver/Src/stm32u0xx_hal_rcc_ex.c ****     }
 528:Drivers/STM32U0xx_HAL_Driver/Src/stm32u0xx_hal_rcc_ex.c ****   }
 529:Drivers/STM32U0xx_HAL_Driver/Src/stm32u0xx_hal_rcc_ex.c ****   else
 530:Drivers/STM32U0xx_HAL_Driver/Src/stm32u0xx_hal_rcc_ex.c ****   {
 531:Drivers/STM32U0xx_HAL_Driver/Src/stm32u0xx_hal_rcc_ex.c ****     /* Other external peripheral clock source than RTC */
 532:Drivers/STM32U0xx_HAL_Driver/Src/stm32u0xx_hal_rcc_ex.c ****     switch (PeriphClk)
ARM GAS  C:\Users\upo\AppData\Local\Temp\ccMLO1b7.s 			page 27


 533:Drivers/STM32U0xx_HAL_Driver/Src/stm32u0xx_hal_rcc_ex.c ****     {
 534:Drivers/STM32U0xx_HAL_Driver/Src/stm32u0xx_hal_rcc_ex.c ****       case RCC_PERIPHCLK_USART1:
 535:Drivers/STM32U0xx_HAL_Driver/Src/stm32u0xx_hal_rcc_ex.c ****       {
 536:Drivers/STM32U0xx_HAL_Driver/Src/stm32u0xx_hal_rcc_ex.c ****         /* Get the current USART1 source */
 537:Drivers/STM32U0xx_HAL_Driver/Src/stm32u0xx_hal_rcc_ex.c ****         srcclk = __HAL_RCC_GET_USART1_SOURCE();
 538:Drivers/STM32U0xx_HAL_Driver/Src/stm32u0xx_hal_rcc_ex.c **** 
 539:Drivers/STM32U0xx_HAL_Driver/Src/stm32u0xx_hal_rcc_ex.c ****         switch (srcclk)
 540:Drivers/STM32U0xx_HAL_Driver/Src/stm32u0xx_hal_rcc_ex.c ****         {
 541:Drivers/STM32U0xx_HAL_Driver/Src/stm32u0xx_hal_rcc_ex.c ****           case RCC_USART1CLKSOURCE_PCLK1:
 542:Drivers/STM32U0xx_HAL_Driver/Src/stm32u0xx_hal_rcc_ex.c ****             frequency = HAL_RCC_GetPCLK1Freq();
 543:Drivers/STM32U0xx_HAL_Driver/Src/stm32u0xx_hal_rcc_ex.c ****             break;
 544:Drivers/STM32U0xx_HAL_Driver/Src/stm32u0xx_hal_rcc_ex.c ****           case RCC_USART1CLKSOURCE_SYSCLK:
 545:Drivers/STM32U0xx_HAL_Driver/Src/stm32u0xx_hal_rcc_ex.c ****             frequency = HAL_RCC_GetSysClockFreq();
 546:Drivers/STM32U0xx_HAL_Driver/Src/stm32u0xx_hal_rcc_ex.c ****             break;
 547:Drivers/STM32U0xx_HAL_Driver/Src/stm32u0xx_hal_rcc_ex.c ****           case RCC_USART1CLKSOURCE_HSI:
 548:Drivers/STM32U0xx_HAL_Driver/Src/stm32u0xx_hal_rcc_ex.c ****             if (HAL_IS_BIT_SET(RCC->CR, RCC_CR_HSIRDY))
 549:Drivers/STM32U0xx_HAL_Driver/Src/stm32u0xx_hal_rcc_ex.c ****             {
 550:Drivers/STM32U0xx_HAL_Driver/Src/stm32u0xx_hal_rcc_ex.c ****               frequency = HSI_VALUE;
 551:Drivers/STM32U0xx_HAL_Driver/Src/stm32u0xx_hal_rcc_ex.c ****             }
 552:Drivers/STM32U0xx_HAL_Driver/Src/stm32u0xx_hal_rcc_ex.c ****             break;
 553:Drivers/STM32U0xx_HAL_Driver/Src/stm32u0xx_hal_rcc_ex.c ****           case RCC_USART1CLKSOURCE_LSE:
 554:Drivers/STM32U0xx_HAL_Driver/Src/stm32u0xx_hal_rcc_ex.c ****             if (HAL_IS_BIT_SET(RCC->BDCR, RCC_BDCR_LSERDY))
 555:Drivers/STM32U0xx_HAL_Driver/Src/stm32u0xx_hal_rcc_ex.c ****             {
 556:Drivers/STM32U0xx_HAL_Driver/Src/stm32u0xx_hal_rcc_ex.c ****               frequency = LSE_VALUE;
 557:Drivers/STM32U0xx_HAL_Driver/Src/stm32u0xx_hal_rcc_ex.c ****             }
 558:Drivers/STM32U0xx_HAL_Driver/Src/stm32u0xx_hal_rcc_ex.c ****             break;
 559:Drivers/STM32U0xx_HAL_Driver/Src/stm32u0xx_hal_rcc_ex.c ****           default:
 560:Drivers/STM32U0xx_HAL_Driver/Src/stm32u0xx_hal_rcc_ex.c ****             /* No clock source, frequency default init at 0 */
 561:Drivers/STM32U0xx_HAL_Driver/Src/stm32u0xx_hal_rcc_ex.c ****             break;
 562:Drivers/STM32U0xx_HAL_Driver/Src/stm32u0xx_hal_rcc_ex.c ****         }
 563:Drivers/STM32U0xx_HAL_Driver/Src/stm32u0xx_hal_rcc_ex.c **** 
 564:Drivers/STM32U0xx_HAL_Driver/Src/stm32u0xx_hal_rcc_ex.c ****         break;
 565:Drivers/STM32U0xx_HAL_Driver/Src/stm32u0xx_hal_rcc_ex.c ****       }
 566:Drivers/STM32U0xx_HAL_Driver/Src/stm32u0xx_hal_rcc_ex.c **** 
 567:Drivers/STM32U0xx_HAL_Driver/Src/stm32u0xx_hal_rcc_ex.c ****       case RCC_PERIPHCLK_USART2:
 568:Drivers/STM32U0xx_HAL_Driver/Src/stm32u0xx_hal_rcc_ex.c ****       {
 569:Drivers/STM32U0xx_HAL_Driver/Src/stm32u0xx_hal_rcc_ex.c ****         /* Get the current USART2 source */
 570:Drivers/STM32U0xx_HAL_Driver/Src/stm32u0xx_hal_rcc_ex.c ****         srcclk = __HAL_RCC_GET_USART2_SOURCE();
 571:Drivers/STM32U0xx_HAL_Driver/Src/stm32u0xx_hal_rcc_ex.c **** 
 572:Drivers/STM32U0xx_HAL_Driver/Src/stm32u0xx_hal_rcc_ex.c ****         switch (srcclk)
 573:Drivers/STM32U0xx_HAL_Driver/Src/stm32u0xx_hal_rcc_ex.c ****         {
 574:Drivers/STM32U0xx_HAL_Driver/Src/stm32u0xx_hal_rcc_ex.c ****           case RCC_USART2CLKSOURCE_PCLK1:
 575:Drivers/STM32U0xx_HAL_Driver/Src/stm32u0xx_hal_rcc_ex.c ****             frequency = HAL_RCC_GetPCLK1Freq();
 576:Drivers/STM32U0xx_HAL_Driver/Src/stm32u0xx_hal_rcc_ex.c ****             break;
 577:Drivers/STM32U0xx_HAL_Driver/Src/stm32u0xx_hal_rcc_ex.c ****           case RCC_USART2CLKSOURCE_SYSCLK:
 578:Drivers/STM32U0xx_HAL_Driver/Src/stm32u0xx_hal_rcc_ex.c ****             frequency = HAL_RCC_GetSysClockFreq();
 579:Drivers/STM32U0xx_HAL_Driver/Src/stm32u0xx_hal_rcc_ex.c ****             break;
 580:Drivers/STM32U0xx_HAL_Driver/Src/stm32u0xx_hal_rcc_ex.c ****           case RCC_USART2CLKSOURCE_HSI:
 581:Drivers/STM32U0xx_HAL_Driver/Src/stm32u0xx_hal_rcc_ex.c ****             if (HAL_IS_BIT_SET(RCC->CR, RCC_CR_HSIRDY))
 582:Drivers/STM32U0xx_HAL_Driver/Src/stm32u0xx_hal_rcc_ex.c ****             {
 583:Drivers/STM32U0xx_HAL_Driver/Src/stm32u0xx_hal_rcc_ex.c ****               frequency = HSI_VALUE;
 584:Drivers/STM32U0xx_HAL_Driver/Src/stm32u0xx_hal_rcc_ex.c ****             }
 585:Drivers/STM32U0xx_HAL_Driver/Src/stm32u0xx_hal_rcc_ex.c ****             break;
 586:Drivers/STM32U0xx_HAL_Driver/Src/stm32u0xx_hal_rcc_ex.c ****           case RCC_USART2CLKSOURCE_LSE:
 587:Drivers/STM32U0xx_HAL_Driver/Src/stm32u0xx_hal_rcc_ex.c ****             if (HAL_IS_BIT_SET(RCC->BDCR, RCC_BDCR_LSERDY))
 588:Drivers/STM32U0xx_HAL_Driver/Src/stm32u0xx_hal_rcc_ex.c ****             {
 589:Drivers/STM32U0xx_HAL_Driver/Src/stm32u0xx_hal_rcc_ex.c ****               frequency = LSE_VALUE;
ARM GAS  C:\Users\upo\AppData\Local\Temp\ccMLO1b7.s 			page 28


 590:Drivers/STM32U0xx_HAL_Driver/Src/stm32u0xx_hal_rcc_ex.c ****             }
 591:Drivers/STM32U0xx_HAL_Driver/Src/stm32u0xx_hal_rcc_ex.c ****             break;
 592:Drivers/STM32U0xx_HAL_Driver/Src/stm32u0xx_hal_rcc_ex.c ****           default:
 593:Drivers/STM32U0xx_HAL_Driver/Src/stm32u0xx_hal_rcc_ex.c ****             /* No clock source, frequency default init at 0 */
 594:Drivers/STM32U0xx_HAL_Driver/Src/stm32u0xx_hal_rcc_ex.c ****             break;
 595:Drivers/STM32U0xx_HAL_Driver/Src/stm32u0xx_hal_rcc_ex.c ****         }
 596:Drivers/STM32U0xx_HAL_Driver/Src/stm32u0xx_hal_rcc_ex.c **** 
 597:Drivers/STM32U0xx_HAL_Driver/Src/stm32u0xx_hal_rcc_ex.c ****         break;
 598:Drivers/STM32U0xx_HAL_Driver/Src/stm32u0xx_hal_rcc_ex.c ****       }
 599:Drivers/STM32U0xx_HAL_Driver/Src/stm32u0xx_hal_rcc_ex.c **** 
 600:Drivers/STM32U0xx_HAL_Driver/Src/stm32u0xx_hal_rcc_ex.c ****       /* USART3 and USART4 source */
 601:Drivers/STM32U0xx_HAL_Driver/Src/stm32u0xx_hal_rcc_ex.c ****       case RCC_PERIPHCLK_USART3:
 602:Drivers/STM32U0xx_HAL_Driver/Src/stm32u0xx_hal_rcc_ex.c ****       case RCC_PERIPHCLK_USART4:
 603:Drivers/STM32U0xx_HAL_Driver/Src/stm32u0xx_hal_rcc_ex.c ****       {
 604:Drivers/STM32U0xx_HAL_Driver/Src/stm32u0xx_hal_rcc_ex.c ****         frequency = HAL_RCC_GetPCLK1Freq();
 605:Drivers/STM32U0xx_HAL_Driver/Src/stm32u0xx_hal_rcc_ex.c ****         break;
 606:Drivers/STM32U0xx_HAL_Driver/Src/stm32u0xx_hal_rcc_ex.c ****       }
 607:Drivers/STM32U0xx_HAL_Driver/Src/stm32u0xx_hal_rcc_ex.c **** 
 608:Drivers/STM32U0xx_HAL_Driver/Src/stm32u0xx_hal_rcc_ex.c ****       case RCC_PERIPHCLK_LPUART1:
 609:Drivers/STM32U0xx_HAL_Driver/Src/stm32u0xx_hal_rcc_ex.c ****       {
 610:Drivers/STM32U0xx_HAL_Driver/Src/stm32u0xx_hal_rcc_ex.c ****         /* Get the current LPUART1 source */
 611:Drivers/STM32U0xx_HAL_Driver/Src/stm32u0xx_hal_rcc_ex.c ****         srcclk = __HAL_RCC_GET_LPUART1_SOURCE();
 612:Drivers/STM32U0xx_HAL_Driver/Src/stm32u0xx_hal_rcc_ex.c **** 
 613:Drivers/STM32U0xx_HAL_Driver/Src/stm32u0xx_hal_rcc_ex.c ****         switch (srcclk)
 614:Drivers/STM32U0xx_HAL_Driver/Src/stm32u0xx_hal_rcc_ex.c ****         {
 615:Drivers/STM32U0xx_HAL_Driver/Src/stm32u0xx_hal_rcc_ex.c ****           case RCC_LPUART1CLKSOURCE_PCLK1:
 616:Drivers/STM32U0xx_HAL_Driver/Src/stm32u0xx_hal_rcc_ex.c ****             frequency = HAL_RCC_GetPCLK1Freq();
 617:Drivers/STM32U0xx_HAL_Driver/Src/stm32u0xx_hal_rcc_ex.c ****             break;
 618:Drivers/STM32U0xx_HAL_Driver/Src/stm32u0xx_hal_rcc_ex.c ****           case RCC_LPUART1CLKSOURCE_SYSCLK:
 619:Drivers/STM32U0xx_HAL_Driver/Src/stm32u0xx_hal_rcc_ex.c ****             frequency = HAL_RCC_GetSysClockFreq();
 620:Drivers/STM32U0xx_HAL_Driver/Src/stm32u0xx_hal_rcc_ex.c ****             break;
 621:Drivers/STM32U0xx_HAL_Driver/Src/stm32u0xx_hal_rcc_ex.c ****           case RCC_LPUART1CLKSOURCE_HSI:
 622:Drivers/STM32U0xx_HAL_Driver/Src/stm32u0xx_hal_rcc_ex.c ****             if (HAL_IS_BIT_SET(RCC->CR, RCC_CR_HSIRDY))
 623:Drivers/STM32U0xx_HAL_Driver/Src/stm32u0xx_hal_rcc_ex.c ****             {
 624:Drivers/STM32U0xx_HAL_Driver/Src/stm32u0xx_hal_rcc_ex.c ****               frequency = HSI_VALUE;
 625:Drivers/STM32U0xx_HAL_Driver/Src/stm32u0xx_hal_rcc_ex.c ****             }
 626:Drivers/STM32U0xx_HAL_Driver/Src/stm32u0xx_hal_rcc_ex.c ****             break;
 627:Drivers/STM32U0xx_HAL_Driver/Src/stm32u0xx_hal_rcc_ex.c ****           case RCC_LPUART1CLKSOURCE_LSE:
 628:Drivers/STM32U0xx_HAL_Driver/Src/stm32u0xx_hal_rcc_ex.c ****             if (HAL_IS_BIT_SET(RCC->BDCR, RCC_BDCR_LSERDY))
 629:Drivers/STM32U0xx_HAL_Driver/Src/stm32u0xx_hal_rcc_ex.c ****             {
 630:Drivers/STM32U0xx_HAL_Driver/Src/stm32u0xx_hal_rcc_ex.c ****               frequency = LSE_VALUE;
 631:Drivers/STM32U0xx_HAL_Driver/Src/stm32u0xx_hal_rcc_ex.c ****             }
 632:Drivers/STM32U0xx_HAL_Driver/Src/stm32u0xx_hal_rcc_ex.c ****             break;
 633:Drivers/STM32U0xx_HAL_Driver/Src/stm32u0xx_hal_rcc_ex.c ****           default:
 634:Drivers/STM32U0xx_HAL_Driver/Src/stm32u0xx_hal_rcc_ex.c ****             /* No clock source, frequency default init at 0 */
 635:Drivers/STM32U0xx_HAL_Driver/Src/stm32u0xx_hal_rcc_ex.c ****             break;
 636:Drivers/STM32U0xx_HAL_Driver/Src/stm32u0xx_hal_rcc_ex.c ****         }
 637:Drivers/STM32U0xx_HAL_Driver/Src/stm32u0xx_hal_rcc_ex.c ****         break;
 638:Drivers/STM32U0xx_HAL_Driver/Src/stm32u0xx_hal_rcc_ex.c ****       }
 639:Drivers/STM32U0xx_HAL_Driver/Src/stm32u0xx_hal_rcc_ex.c ****       case RCC_PERIPHCLK_LPUART2:
 640:Drivers/STM32U0xx_HAL_Driver/Src/stm32u0xx_hal_rcc_ex.c ****       {
 641:Drivers/STM32U0xx_HAL_Driver/Src/stm32u0xx_hal_rcc_ex.c ****         /* Get the current LPUART2 source */
 642:Drivers/STM32U0xx_HAL_Driver/Src/stm32u0xx_hal_rcc_ex.c ****         srcclk = __HAL_RCC_GET_LPUART2_SOURCE();
 643:Drivers/STM32U0xx_HAL_Driver/Src/stm32u0xx_hal_rcc_ex.c **** 
 644:Drivers/STM32U0xx_HAL_Driver/Src/stm32u0xx_hal_rcc_ex.c ****         switch (srcclk)
 645:Drivers/STM32U0xx_HAL_Driver/Src/stm32u0xx_hal_rcc_ex.c ****         {
 646:Drivers/STM32U0xx_HAL_Driver/Src/stm32u0xx_hal_rcc_ex.c ****           case RCC_LPUART2CLKSOURCE_PCLK1:
ARM GAS  C:\Users\upo\AppData\Local\Temp\ccMLO1b7.s 			page 29


 647:Drivers/STM32U0xx_HAL_Driver/Src/stm32u0xx_hal_rcc_ex.c ****             frequency = HAL_RCC_GetPCLK1Freq();
 648:Drivers/STM32U0xx_HAL_Driver/Src/stm32u0xx_hal_rcc_ex.c ****             break;
 649:Drivers/STM32U0xx_HAL_Driver/Src/stm32u0xx_hal_rcc_ex.c ****           case RCC_LPUART2CLKSOURCE_SYSCLK:
 650:Drivers/STM32U0xx_HAL_Driver/Src/stm32u0xx_hal_rcc_ex.c ****             frequency = HAL_RCC_GetSysClockFreq();
 651:Drivers/STM32U0xx_HAL_Driver/Src/stm32u0xx_hal_rcc_ex.c ****             break;
 652:Drivers/STM32U0xx_HAL_Driver/Src/stm32u0xx_hal_rcc_ex.c ****           case RCC_LPUART2CLKSOURCE_HSI:
 653:Drivers/STM32U0xx_HAL_Driver/Src/stm32u0xx_hal_rcc_ex.c ****             if (HAL_IS_BIT_SET(RCC->CR, RCC_CR_HSIRDY))
 654:Drivers/STM32U0xx_HAL_Driver/Src/stm32u0xx_hal_rcc_ex.c ****             {
 655:Drivers/STM32U0xx_HAL_Driver/Src/stm32u0xx_hal_rcc_ex.c ****               frequency = HSI_VALUE;
 656:Drivers/STM32U0xx_HAL_Driver/Src/stm32u0xx_hal_rcc_ex.c ****             }
 657:Drivers/STM32U0xx_HAL_Driver/Src/stm32u0xx_hal_rcc_ex.c ****             break;
 658:Drivers/STM32U0xx_HAL_Driver/Src/stm32u0xx_hal_rcc_ex.c ****           case RCC_LPUART2CLKSOURCE_LSE:
 659:Drivers/STM32U0xx_HAL_Driver/Src/stm32u0xx_hal_rcc_ex.c ****             if (HAL_IS_BIT_SET(RCC->BDCR, RCC_BDCR_LSERDY))
 660:Drivers/STM32U0xx_HAL_Driver/Src/stm32u0xx_hal_rcc_ex.c ****             {
 661:Drivers/STM32U0xx_HAL_Driver/Src/stm32u0xx_hal_rcc_ex.c ****               frequency = LSE_VALUE;
 662:Drivers/STM32U0xx_HAL_Driver/Src/stm32u0xx_hal_rcc_ex.c ****             }
 663:Drivers/STM32U0xx_HAL_Driver/Src/stm32u0xx_hal_rcc_ex.c ****             break;
 664:Drivers/STM32U0xx_HAL_Driver/Src/stm32u0xx_hal_rcc_ex.c ****           default:
 665:Drivers/STM32U0xx_HAL_Driver/Src/stm32u0xx_hal_rcc_ex.c ****             /* No clock source, frequency default init at 0 */
 666:Drivers/STM32U0xx_HAL_Driver/Src/stm32u0xx_hal_rcc_ex.c ****             break;
 667:Drivers/STM32U0xx_HAL_Driver/Src/stm32u0xx_hal_rcc_ex.c ****         }
 668:Drivers/STM32U0xx_HAL_Driver/Src/stm32u0xx_hal_rcc_ex.c ****         break;
 669:Drivers/STM32U0xx_HAL_Driver/Src/stm32u0xx_hal_rcc_ex.c ****       }
 670:Drivers/STM32U0xx_HAL_Driver/Src/stm32u0xx_hal_rcc_ex.c **** #if defined(LPUART3)
 671:Drivers/STM32U0xx_HAL_Driver/Src/stm32u0xx_hal_rcc_ex.c ****       case RCC_PERIPHCLK_LPUART3:
 672:Drivers/STM32U0xx_HAL_Driver/Src/stm32u0xx_hal_rcc_ex.c ****       {
 673:Drivers/STM32U0xx_HAL_Driver/Src/stm32u0xx_hal_rcc_ex.c ****         /* Get the current LPUART3 source */
 674:Drivers/STM32U0xx_HAL_Driver/Src/stm32u0xx_hal_rcc_ex.c ****         srcclk = __HAL_RCC_GET_LPUART3_SOURCE();
 675:Drivers/STM32U0xx_HAL_Driver/Src/stm32u0xx_hal_rcc_ex.c **** 
 676:Drivers/STM32U0xx_HAL_Driver/Src/stm32u0xx_hal_rcc_ex.c ****         switch (srcclk)
 677:Drivers/STM32U0xx_HAL_Driver/Src/stm32u0xx_hal_rcc_ex.c ****         {
 678:Drivers/STM32U0xx_HAL_Driver/Src/stm32u0xx_hal_rcc_ex.c ****           case RCC_LPUART3CLKSOURCE_PCLK1:
 679:Drivers/STM32U0xx_HAL_Driver/Src/stm32u0xx_hal_rcc_ex.c ****             frequency = HAL_RCC_GetPCLK1Freq();
 680:Drivers/STM32U0xx_HAL_Driver/Src/stm32u0xx_hal_rcc_ex.c ****             break;
 681:Drivers/STM32U0xx_HAL_Driver/Src/stm32u0xx_hal_rcc_ex.c ****           case RCC_LPUART3CLKSOURCE_SYSCLK:
 682:Drivers/STM32U0xx_HAL_Driver/Src/stm32u0xx_hal_rcc_ex.c ****             frequency = HAL_RCC_GetSysClockFreq();
 683:Drivers/STM32U0xx_HAL_Driver/Src/stm32u0xx_hal_rcc_ex.c ****             break;
 684:Drivers/STM32U0xx_HAL_Driver/Src/stm32u0xx_hal_rcc_ex.c ****           case RCC_LPUART3CLKSOURCE_HSI:
 685:Drivers/STM32U0xx_HAL_Driver/Src/stm32u0xx_hal_rcc_ex.c ****             if (HAL_IS_BIT_SET(RCC->CR, RCC_CR_HSIRDY))
 686:Drivers/STM32U0xx_HAL_Driver/Src/stm32u0xx_hal_rcc_ex.c ****             {
 687:Drivers/STM32U0xx_HAL_Driver/Src/stm32u0xx_hal_rcc_ex.c ****               frequency = HSI_VALUE;
 688:Drivers/STM32U0xx_HAL_Driver/Src/stm32u0xx_hal_rcc_ex.c ****             }
 689:Drivers/STM32U0xx_HAL_Driver/Src/stm32u0xx_hal_rcc_ex.c ****             break;
 690:Drivers/STM32U0xx_HAL_Driver/Src/stm32u0xx_hal_rcc_ex.c ****           case RCC_LPUART3CLKSOURCE_LSE:
 691:Drivers/STM32U0xx_HAL_Driver/Src/stm32u0xx_hal_rcc_ex.c ****             if (HAL_IS_BIT_SET(RCC->BDCR, RCC_BDCR_LSERDY))
 692:Drivers/STM32U0xx_HAL_Driver/Src/stm32u0xx_hal_rcc_ex.c ****             {
 693:Drivers/STM32U0xx_HAL_Driver/Src/stm32u0xx_hal_rcc_ex.c ****               frequency = LSE_VALUE;
 694:Drivers/STM32U0xx_HAL_Driver/Src/stm32u0xx_hal_rcc_ex.c ****             }
 695:Drivers/STM32U0xx_HAL_Driver/Src/stm32u0xx_hal_rcc_ex.c ****             break;
 696:Drivers/STM32U0xx_HAL_Driver/Src/stm32u0xx_hal_rcc_ex.c ****           default:
 697:Drivers/STM32U0xx_HAL_Driver/Src/stm32u0xx_hal_rcc_ex.c ****             /* No clock source, frequency default init at 0 */
 698:Drivers/STM32U0xx_HAL_Driver/Src/stm32u0xx_hal_rcc_ex.c ****             break;
 699:Drivers/STM32U0xx_HAL_Driver/Src/stm32u0xx_hal_rcc_ex.c ****         }
 700:Drivers/STM32U0xx_HAL_Driver/Src/stm32u0xx_hal_rcc_ex.c ****         break;
 701:Drivers/STM32U0xx_HAL_Driver/Src/stm32u0xx_hal_rcc_ex.c ****       }
 702:Drivers/STM32U0xx_HAL_Driver/Src/stm32u0xx_hal_rcc_ex.c **** #endif /* LPUART3 */
 703:Drivers/STM32U0xx_HAL_Driver/Src/stm32u0xx_hal_rcc_ex.c ****       case RCC_PERIPHCLK_ADC:
ARM GAS  C:\Users\upo\AppData\Local\Temp\ccMLO1b7.s 			page 30


 704:Drivers/STM32U0xx_HAL_Driver/Src/stm32u0xx_hal_rcc_ex.c ****       {
 705:Drivers/STM32U0xx_HAL_Driver/Src/stm32u0xx_hal_rcc_ex.c ****         srcclk = __HAL_RCC_GET_ADC_SOURCE();
 706:Drivers/STM32U0xx_HAL_Driver/Src/stm32u0xx_hal_rcc_ex.c **** 
 707:Drivers/STM32U0xx_HAL_Driver/Src/stm32u0xx_hal_rcc_ex.c ****         switch (srcclk)
 708:Drivers/STM32U0xx_HAL_Driver/Src/stm32u0xx_hal_rcc_ex.c ****         {
 709:Drivers/STM32U0xx_HAL_Driver/Src/stm32u0xx_hal_rcc_ex.c ****           case RCC_ADCCLKSOURCE_SYSCLK:
 710:Drivers/STM32U0xx_HAL_Driver/Src/stm32u0xx_hal_rcc_ex.c ****             frequency = HAL_RCC_GetSysClockFreq();
 711:Drivers/STM32U0xx_HAL_Driver/Src/stm32u0xx_hal_rcc_ex.c ****             break;
 712:Drivers/STM32U0xx_HAL_Driver/Src/stm32u0xx_hal_rcc_ex.c ****           case RCC_ADCCLKSOURCE_HSI:
 713:Drivers/STM32U0xx_HAL_Driver/Src/stm32u0xx_hal_rcc_ex.c ****             if (HAL_IS_BIT_SET(RCC->CR, RCC_CR_HSIRDY))
 714:Drivers/STM32U0xx_HAL_Driver/Src/stm32u0xx_hal_rcc_ex.c ****             {
 715:Drivers/STM32U0xx_HAL_Driver/Src/stm32u0xx_hal_rcc_ex.c ****               frequency = HSI_VALUE;
 716:Drivers/STM32U0xx_HAL_Driver/Src/stm32u0xx_hal_rcc_ex.c ****             }
 717:Drivers/STM32U0xx_HAL_Driver/Src/stm32u0xx_hal_rcc_ex.c ****             else
 718:Drivers/STM32U0xx_HAL_Driver/Src/stm32u0xx_hal_rcc_ex.c ****             {
 719:Drivers/STM32U0xx_HAL_Driver/Src/stm32u0xx_hal_rcc_ex.c ****               frequency = 0U;
 720:Drivers/STM32U0xx_HAL_Driver/Src/stm32u0xx_hal_rcc_ex.c ****             }
 721:Drivers/STM32U0xx_HAL_Driver/Src/stm32u0xx_hal_rcc_ex.c ****             break;
 722:Drivers/STM32U0xx_HAL_Driver/Src/stm32u0xx_hal_rcc_ex.c ****           case RCC_ADCCLKSOURCE_PLLP:
 723:Drivers/STM32U0xx_HAL_Driver/Src/stm32u0xx_hal_rcc_ex.c ****             HAL_RCCEx_GetPLLClockFreq(&pll_freq);
 724:Drivers/STM32U0xx_HAL_Driver/Src/stm32u0xx_hal_rcc_ex.c ****             frequency = pll_freq.PLL_P_Frequency;
 725:Drivers/STM32U0xx_HAL_Driver/Src/stm32u0xx_hal_rcc_ex.c ****             break;
 726:Drivers/STM32U0xx_HAL_Driver/Src/stm32u0xx_hal_rcc_ex.c **** 
 727:Drivers/STM32U0xx_HAL_Driver/Src/stm32u0xx_hal_rcc_ex.c ****           default:
 728:Drivers/STM32U0xx_HAL_Driver/Src/stm32u0xx_hal_rcc_ex.c ****             /* No clock source, frequency default init at 0 */
 729:Drivers/STM32U0xx_HAL_Driver/Src/stm32u0xx_hal_rcc_ex.c ****             break;
 730:Drivers/STM32U0xx_HAL_Driver/Src/stm32u0xx_hal_rcc_ex.c ****         }
 731:Drivers/STM32U0xx_HAL_Driver/Src/stm32u0xx_hal_rcc_ex.c ****         break;
 732:Drivers/STM32U0xx_HAL_Driver/Src/stm32u0xx_hal_rcc_ex.c ****       }
 733:Drivers/STM32U0xx_HAL_Driver/Src/stm32u0xx_hal_rcc_ex.c **** 
 734:Drivers/STM32U0xx_HAL_Driver/Src/stm32u0xx_hal_rcc_ex.c ****       case RCC_PERIPHCLK_I2C1:
 735:Drivers/STM32U0xx_HAL_Driver/Src/stm32u0xx_hal_rcc_ex.c ****       {
 736:Drivers/STM32U0xx_HAL_Driver/Src/stm32u0xx_hal_rcc_ex.c ****         /* Get the current I2C1 source */
 737:Drivers/STM32U0xx_HAL_Driver/Src/stm32u0xx_hal_rcc_ex.c ****         srcclk = __HAL_RCC_GET_I2C1_SOURCE();
 738:Drivers/STM32U0xx_HAL_Driver/Src/stm32u0xx_hal_rcc_ex.c **** 
 739:Drivers/STM32U0xx_HAL_Driver/Src/stm32u0xx_hal_rcc_ex.c ****         switch (srcclk)
 740:Drivers/STM32U0xx_HAL_Driver/Src/stm32u0xx_hal_rcc_ex.c ****         {
 741:Drivers/STM32U0xx_HAL_Driver/Src/stm32u0xx_hal_rcc_ex.c ****           case RCC_I2C1CLKSOURCE_PCLK1:
 742:Drivers/STM32U0xx_HAL_Driver/Src/stm32u0xx_hal_rcc_ex.c ****             frequency = HAL_RCC_GetPCLK1Freq();
 743:Drivers/STM32U0xx_HAL_Driver/Src/stm32u0xx_hal_rcc_ex.c ****             break;
 744:Drivers/STM32U0xx_HAL_Driver/Src/stm32u0xx_hal_rcc_ex.c ****           case RCC_I2C1CLKSOURCE_SYSCLK:
 745:Drivers/STM32U0xx_HAL_Driver/Src/stm32u0xx_hal_rcc_ex.c ****             frequency = HAL_RCC_GetSysClockFreq();
 746:Drivers/STM32U0xx_HAL_Driver/Src/stm32u0xx_hal_rcc_ex.c ****             break;
 747:Drivers/STM32U0xx_HAL_Driver/Src/stm32u0xx_hal_rcc_ex.c ****           case RCC_I2C1CLKSOURCE_HSI:
 748:Drivers/STM32U0xx_HAL_Driver/Src/stm32u0xx_hal_rcc_ex.c ****             if (HAL_IS_BIT_SET(RCC->CR, RCC_CR_HSIRDY))
 749:Drivers/STM32U0xx_HAL_Driver/Src/stm32u0xx_hal_rcc_ex.c ****             {
 750:Drivers/STM32U0xx_HAL_Driver/Src/stm32u0xx_hal_rcc_ex.c ****               frequency = HSI_VALUE;
 751:Drivers/STM32U0xx_HAL_Driver/Src/stm32u0xx_hal_rcc_ex.c ****             }
 752:Drivers/STM32U0xx_HAL_Driver/Src/stm32u0xx_hal_rcc_ex.c ****             break;
 753:Drivers/STM32U0xx_HAL_Driver/Src/stm32u0xx_hal_rcc_ex.c ****           default:
 754:Drivers/STM32U0xx_HAL_Driver/Src/stm32u0xx_hal_rcc_ex.c ****             /* No clock source, frequency default init at 0 */
 755:Drivers/STM32U0xx_HAL_Driver/Src/stm32u0xx_hal_rcc_ex.c ****             break;
 756:Drivers/STM32U0xx_HAL_Driver/Src/stm32u0xx_hal_rcc_ex.c ****         }
 757:Drivers/STM32U0xx_HAL_Driver/Src/stm32u0xx_hal_rcc_ex.c **** 
 758:Drivers/STM32U0xx_HAL_Driver/Src/stm32u0xx_hal_rcc_ex.c ****         break;
 759:Drivers/STM32U0xx_HAL_Driver/Src/stm32u0xx_hal_rcc_ex.c ****       }
 760:Drivers/STM32U0xx_HAL_Driver/Src/stm32u0xx_hal_rcc_ex.c **** 
ARM GAS  C:\Users\upo\AppData\Local\Temp\ccMLO1b7.s 			page 31


 761:Drivers/STM32U0xx_HAL_Driver/Src/stm32u0xx_hal_rcc_ex.c ****       case RCC_PERIPHCLK_I2C3:
 762:Drivers/STM32U0xx_HAL_Driver/Src/stm32u0xx_hal_rcc_ex.c ****       {
 763:Drivers/STM32U0xx_HAL_Driver/Src/stm32u0xx_hal_rcc_ex.c ****         /* Get the current I2C3 source */
 764:Drivers/STM32U0xx_HAL_Driver/Src/stm32u0xx_hal_rcc_ex.c ****         srcclk = __HAL_RCC_GET_I2C3_SOURCE();
 765:Drivers/STM32U0xx_HAL_Driver/Src/stm32u0xx_hal_rcc_ex.c **** 
 766:Drivers/STM32U0xx_HAL_Driver/Src/stm32u0xx_hal_rcc_ex.c ****         switch (srcclk)
 767:Drivers/STM32U0xx_HAL_Driver/Src/stm32u0xx_hal_rcc_ex.c ****         {
 768:Drivers/STM32U0xx_HAL_Driver/Src/stm32u0xx_hal_rcc_ex.c ****           case RCC_I2C3CLKSOURCE_PCLK1:
 769:Drivers/STM32U0xx_HAL_Driver/Src/stm32u0xx_hal_rcc_ex.c ****             frequency = HAL_RCC_GetPCLK1Freq();
 770:Drivers/STM32U0xx_HAL_Driver/Src/stm32u0xx_hal_rcc_ex.c ****             break;
 771:Drivers/STM32U0xx_HAL_Driver/Src/stm32u0xx_hal_rcc_ex.c ****           case RCC_I2C3CLKSOURCE_SYSCLK:
 772:Drivers/STM32U0xx_HAL_Driver/Src/stm32u0xx_hal_rcc_ex.c ****             frequency = HAL_RCC_GetSysClockFreq();
 773:Drivers/STM32U0xx_HAL_Driver/Src/stm32u0xx_hal_rcc_ex.c ****             break;
 774:Drivers/STM32U0xx_HAL_Driver/Src/stm32u0xx_hal_rcc_ex.c ****           case RCC_I2C3CLKSOURCE_HSI:
 775:Drivers/STM32U0xx_HAL_Driver/Src/stm32u0xx_hal_rcc_ex.c ****             if (HAL_IS_BIT_SET(RCC->CR, RCC_CR_HSIRDY))
 776:Drivers/STM32U0xx_HAL_Driver/Src/stm32u0xx_hal_rcc_ex.c ****             {
 777:Drivers/STM32U0xx_HAL_Driver/Src/stm32u0xx_hal_rcc_ex.c ****               frequency = HSI_VALUE;
 778:Drivers/STM32U0xx_HAL_Driver/Src/stm32u0xx_hal_rcc_ex.c ****             }
 779:Drivers/STM32U0xx_HAL_Driver/Src/stm32u0xx_hal_rcc_ex.c ****             break;
 780:Drivers/STM32U0xx_HAL_Driver/Src/stm32u0xx_hal_rcc_ex.c ****           default:
 781:Drivers/STM32U0xx_HAL_Driver/Src/stm32u0xx_hal_rcc_ex.c ****             /* No clock source, frequency default init at 0 */
 782:Drivers/STM32U0xx_HAL_Driver/Src/stm32u0xx_hal_rcc_ex.c ****             break;
 783:Drivers/STM32U0xx_HAL_Driver/Src/stm32u0xx_hal_rcc_ex.c ****         }
 784:Drivers/STM32U0xx_HAL_Driver/Src/stm32u0xx_hal_rcc_ex.c **** 
 785:Drivers/STM32U0xx_HAL_Driver/Src/stm32u0xx_hal_rcc_ex.c ****         break;
 786:Drivers/STM32U0xx_HAL_Driver/Src/stm32u0xx_hal_rcc_ex.c ****       }
 787:Drivers/STM32U0xx_HAL_Driver/Src/stm32u0xx_hal_rcc_ex.c **** 
 788:Drivers/STM32U0xx_HAL_Driver/Src/stm32u0xx_hal_rcc_ex.c ****       case RCC_PERIPHCLK_LPTIM1:
 789:Drivers/STM32U0xx_HAL_Driver/Src/stm32u0xx_hal_rcc_ex.c ****       {
 790:Drivers/STM32U0xx_HAL_Driver/Src/stm32u0xx_hal_rcc_ex.c ****         /* Get the current LPTIM1 source */
 791:Drivers/STM32U0xx_HAL_Driver/Src/stm32u0xx_hal_rcc_ex.c ****         srcclk = __HAL_RCC_GET_LPTIM1_SOURCE();
 792:Drivers/STM32U0xx_HAL_Driver/Src/stm32u0xx_hal_rcc_ex.c **** 
 793:Drivers/STM32U0xx_HAL_Driver/Src/stm32u0xx_hal_rcc_ex.c ****         switch (srcclk)
 794:Drivers/STM32U0xx_HAL_Driver/Src/stm32u0xx_hal_rcc_ex.c ****         {
 795:Drivers/STM32U0xx_HAL_Driver/Src/stm32u0xx_hal_rcc_ex.c ****           case RCC_LPTIM1CLKSOURCE_PCLK1:
 796:Drivers/STM32U0xx_HAL_Driver/Src/stm32u0xx_hal_rcc_ex.c ****             frequency = HAL_RCC_GetPCLK1Freq();
 797:Drivers/STM32U0xx_HAL_Driver/Src/stm32u0xx_hal_rcc_ex.c ****             break;
 798:Drivers/STM32U0xx_HAL_Driver/Src/stm32u0xx_hal_rcc_ex.c ****           case RCC_LPTIM1CLKSOURCE_LSI:
 799:Drivers/STM32U0xx_HAL_Driver/Src/stm32u0xx_hal_rcc_ex.c ****             if (HAL_IS_BIT_SET(RCC->CSR, RCC_CSR_LSIRDY))
 800:Drivers/STM32U0xx_HAL_Driver/Src/stm32u0xx_hal_rcc_ex.c ****             {
 801:Drivers/STM32U0xx_HAL_Driver/Src/stm32u0xx_hal_rcc_ex.c **** #if defined(RCC_CSR_LSIPREDIV)
 802:Drivers/STM32U0xx_HAL_Driver/Src/stm32u0xx_hal_rcc_ex.c ****               if (HAL_IS_BIT_SET(RCC->CSR, RCC_CSR_LSIPREDIV))
 803:Drivers/STM32U0xx_HAL_Driver/Src/stm32u0xx_hal_rcc_ex.c ****               {
 804:Drivers/STM32U0xx_HAL_Driver/Src/stm32u0xx_hal_rcc_ex.c ****                 frequency = LSI_VALUE / 128U;
 805:Drivers/STM32U0xx_HAL_Driver/Src/stm32u0xx_hal_rcc_ex.c ****               }
 806:Drivers/STM32U0xx_HAL_Driver/Src/stm32u0xx_hal_rcc_ex.c ****               else
 807:Drivers/STM32U0xx_HAL_Driver/Src/stm32u0xx_hal_rcc_ex.c **** #endif /* RCC_CSR_LSIPREDIV */
 808:Drivers/STM32U0xx_HAL_Driver/Src/stm32u0xx_hal_rcc_ex.c ****               {
 809:Drivers/STM32U0xx_HAL_Driver/Src/stm32u0xx_hal_rcc_ex.c ****                 frequency = LSI_VALUE;
 810:Drivers/STM32U0xx_HAL_Driver/Src/stm32u0xx_hal_rcc_ex.c ****               }
 811:Drivers/STM32U0xx_HAL_Driver/Src/stm32u0xx_hal_rcc_ex.c ****             }
 812:Drivers/STM32U0xx_HAL_Driver/Src/stm32u0xx_hal_rcc_ex.c ****             break;
 813:Drivers/STM32U0xx_HAL_Driver/Src/stm32u0xx_hal_rcc_ex.c ****           case RCC_LPTIM1CLKSOURCE_HSI:
 814:Drivers/STM32U0xx_HAL_Driver/Src/stm32u0xx_hal_rcc_ex.c ****             if (HAL_IS_BIT_SET(RCC->CR, RCC_CR_HSIRDY))
 815:Drivers/STM32U0xx_HAL_Driver/Src/stm32u0xx_hal_rcc_ex.c ****             {
 816:Drivers/STM32U0xx_HAL_Driver/Src/stm32u0xx_hal_rcc_ex.c ****               frequency = HSI_VALUE;
 817:Drivers/STM32U0xx_HAL_Driver/Src/stm32u0xx_hal_rcc_ex.c ****             }
ARM GAS  C:\Users\upo\AppData\Local\Temp\ccMLO1b7.s 			page 32


 818:Drivers/STM32U0xx_HAL_Driver/Src/stm32u0xx_hal_rcc_ex.c ****             break;
 819:Drivers/STM32U0xx_HAL_Driver/Src/stm32u0xx_hal_rcc_ex.c ****           case RCC_LPTIM1CLKSOURCE_LSE:
 820:Drivers/STM32U0xx_HAL_Driver/Src/stm32u0xx_hal_rcc_ex.c ****             if (HAL_IS_BIT_SET(RCC->BDCR, RCC_BDCR_LSERDY))
 821:Drivers/STM32U0xx_HAL_Driver/Src/stm32u0xx_hal_rcc_ex.c ****             {
 822:Drivers/STM32U0xx_HAL_Driver/Src/stm32u0xx_hal_rcc_ex.c ****               frequency = LSE_VALUE;
 823:Drivers/STM32U0xx_HAL_Driver/Src/stm32u0xx_hal_rcc_ex.c ****             }
 824:Drivers/STM32U0xx_HAL_Driver/Src/stm32u0xx_hal_rcc_ex.c ****             break;
 825:Drivers/STM32U0xx_HAL_Driver/Src/stm32u0xx_hal_rcc_ex.c ****           default:
 826:Drivers/STM32U0xx_HAL_Driver/Src/stm32u0xx_hal_rcc_ex.c ****             /* No clock source, frequency default init at 0 */
 827:Drivers/STM32U0xx_HAL_Driver/Src/stm32u0xx_hal_rcc_ex.c ****             break;
 828:Drivers/STM32U0xx_HAL_Driver/Src/stm32u0xx_hal_rcc_ex.c ****         }
 829:Drivers/STM32U0xx_HAL_Driver/Src/stm32u0xx_hal_rcc_ex.c **** 
 830:Drivers/STM32U0xx_HAL_Driver/Src/stm32u0xx_hal_rcc_ex.c ****         break;
 831:Drivers/STM32U0xx_HAL_Driver/Src/stm32u0xx_hal_rcc_ex.c ****       }
 832:Drivers/STM32U0xx_HAL_Driver/Src/stm32u0xx_hal_rcc_ex.c **** 
 833:Drivers/STM32U0xx_HAL_Driver/Src/stm32u0xx_hal_rcc_ex.c ****       case RCC_PERIPHCLK_LPTIM2:
 834:Drivers/STM32U0xx_HAL_Driver/Src/stm32u0xx_hal_rcc_ex.c ****       {
 835:Drivers/STM32U0xx_HAL_Driver/Src/stm32u0xx_hal_rcc_ex.c ****         /* Get the current LPTIM2 source */
 836:Drivers/STM32U0xx_HAL_Driver/Src/stm32u0xx_hal_rcc_ex.c ****         srcclk = __HAL_RCC_GET_LPTIM2_SOURCE();
 837:Drivers/STM32U0xx_HAL_Driver/Src/stm32u0xx_hal_rcc_ex.c **** 
 838:Drivers/STM32U0xx_HAL_Driver/Src/stm32u0xx_hal_rcc_ex.c ****         switch (srcclk)
 839:Drivers/STM32U0xx_HAL_Driver/Src/stm32u0xx_hal_rcc_ex.c ****         {
 840:Drivers/STM32U0xx_HAL_Driver/Src/stm32u0xx_hal_rcc_ex.c ****           case RCC_LPTIM2CLKSOURCE_PCLK1:
 841:Drivers/STM32U0xx_HAL_Driver/Src/stm32u0xx_hal_rcc_ex.c ****             frequency = HAL_RCC_GetPCLK1Freq();
 842:Drivers/STM32U0xx_HAL_Driver/Src/stm32u0xx_hal_rcc_ex.c ****             break;
 843:Drivers/STM32U0xx_HAL_Driver/Src/stm32u0xx_hal_rcc_ex.c ****           case RCC_LPTIM2CLKSOURCE_LSI:
 844:Drivers/STM32U0xx_HAL_Driver/Src/stm32u0xx_hal_rcc_ex.c ****             if (HAL_IS_BIT_SET(RCC->CSR, RCC_CSR_LSIRDY))
 845:Drivers/STM32U0xx_HAL_Driver/Src/stm32u0xx_hal_rcc_ex.c ****             {
 846:Drivers/STM32U0xx_HAL_Driver/Src/stm32u0xx_hal_rcc_ex.c **** #if defined(RCC_CSR_LSIPREDIV)
 847:Drivers/STM32U0xx_HAL_Driver/Src/stm32u0xx_hal_rcc_ex.c ****               if (HAL_IS_BIT_SET(RCC->CSR, RCC_CSR_LSIPREDIV))
 848:Drivers/STM32U0xx_HAL_Driver/Src/stm32u0xx_hal_rcc_ex.c ****               {
 849:Drivers/STM32U0xx_HAL_Driver/Src/stm32u0xx_hal_rcc_ex.c ****                 frequency = LSI_VALUE / 128U;
 850:Drivers/STM32U0xx_HAL_Driver/Src/stm32u0xx_hal_rcc_ex.c ****               }
 851:Drivers/STM32U0xx_HAL_Driver/Src/stm32u0xx_hal_rcc_ex.c ****               else
 852:Drivers/STM32U0xx_HAL_Driver/Src/stm32u0xx_hal_rcc_ex.c **** #endif /* RCC_CSR_LSIPREDIV */
 853:Drivers/STM32U0xx_HAL_Driver/Src/stm32u0xx_hal_rcc_ex.c ****               {
 854:Drivers/STM32U0xx_HAL_Driver/Src/stm32u0xx_hal_rcc_ex.c ****                 frequency = LSI_VALUE;
 855:Drivers/STM32U0xx_HAL_Driver/Src/stm32u0xx_hal_rcc_ex.c ****               }
 856:Drivers/STM32U0xx_HAL_Driver/Src/stm32u0xx_hal_rcc_ex.c ****             }
 857:Drivers/STM32U0xx_HAL_Driver/Src/stm32u0xx_hal_rcc_ex.c ****             break;
 858:Drivers/STM32U0xx_HAL_Driver/Src/stm32u0xx_hal_rcc_ex.c ****           case RCC_LPTIM2CLKSOURCE_HSI:
 859:Drivers/STM32U0xx_HAL_Driver/Src/stm32u0xx_hal_rcc_ex.c ****             if (HAL_IS_BIT_SET(RCC->CR, RCC_CR_HSIRDY))
 860:Drivers/STM32U0xx_HAL_Driver/Src/stm32u0xx_hal_rcc_ex.c ****             {
 861:Drivers/STM32U0xx_HAL_Driver/Src/stm32u0xx_hal_rcc_ex.c ****               frequency = HSI_VALUE;
 862:Drivers/STM32U0xx_HAL_Driver/Src/stm32u0xx_hal_rcc_ex.c ****             }
 863:Drivers/STM32U0xx_HAL_Driver/Src/stm32u0xx_hal_rcc_ex.c ****             break;
 864:Drivers/STM32U0xx_HAL_Driver/Src/stm32u0xx_hal_rcc_ex.c ****           case RCC_LPTIM2CLKSOURCE_LSE:
 865:Drivers/STM32U0xx_HAL_Driver/Src/stm32u0xx_hal_rcc_ex.c ****             if (HAL_IS_BIT_SET(RCC->BDCR, RCC_BDCR_LSERDY))
 866:Drivers/STM32U0xx_HAL_Driver/Src/stm32u0xx_hal_rcc_ex.c ****             {
 867:Drivers/STM32U0xx_HAL_Driver/Src/stm32u0xx_hal_rcc_ex.c ****               frequency = LSE_VALUE;
 868:Drivers/STM32U0xx_HAL_Driver/Src/stm32u0xx_hal_rcc_ex.c ****             }
 869:Drivers/STM32U0xx_HAL_Driver/Src/stm32u0xx_hal_rcc_ex.c ****             break;
 870:Drivers/STM32U0xx_HAL_Driver/Src/stm32u0xx_hal_rcc_ex.c ****           default:
 871:Drivers/STM32U0xx_HAL_Driver/Src/stm32u0xx_hal_rcc_ex.c ****             /* No clock source, frequency default init at 0 */
 872:Drivers/STM32U0xx_HAL_Driver/Src/stm32u0xx_hal_rcc_ex.c ****             break;
 873:Drivers/STM32U0xx_HAL_Driver/Src/stm32u0xx_hal_rcc_ex.c ****         }
 874:Drivers/STM32U0xx_HAL_Driver/Src/stm32u0xx_hal_rcc_ex.c ****         break;
ARM GAS  C:\Users\upo\AppData\Local\Temp\ccMLO1b7.s 			page 33


 875:Drivers/STM32U0xx_HAL_Driver/Src/stm32u0xx_hal_rcc_ex.c ****       }
 876:Drivers/STM32U0xx_HAL_Driver/Src/stm32u0xx_hal_rcc_ex.c **** #if defined (LPTIM3)
 877:Drivers/STM32U0xx_HAL_Driver/Src/stm32u0xx_hal_rcc_ex.c ****       case RCC_PERIPHCLK_LPTIM3:
 878:Drivers/STM32U0xx_HAL_Driver/Src/stm32u0xx_hal_rcc_ex.c ****       {
 879:Drivers/STM32U0xx_HAL_Driver/Src/stm32u0xx_hal_rcc_ex.c ****         /* Get the current LPTIM3 source */
 880:Drivers/STM32U0xx_HAL_Driver/Src/stm32u0xx_hal_rcc_ex.c ****         srcclk = __HAL_RCC_GET_LPTIM3_SOURCE();
 881:Drivers/STM32U0xx_HAL_Driver/Src/stm32u0xx_hal_rcc_ex.c **** 
 882:Drivers/STM32U0xx_HAL_Driver/Src/stm32u0xx_hal_rcc_ex.c ****         switch (srcclk)
 883:Drivers/STM32U0xx_HAL_Driver/Src/stm32u0xx_hal_rcc_ex.c ****         {
 884:Drivers/STM32U0xx_HAL_Driver/Src/stm32u0xx_hal_rcc_ex.c ****           case RCC_LPTIM3CLKSOURCE_PCLK1:
 885:Drivers/STM32U0xx_HAL_Driver/Src/stm32u0xx_hal_rcc_ex.c ****             frequency = HAL_RCC_GetPCLK1Freq();
 886:Drivers/STM32U0xx_HAL_Driver/Src/stm32u0xx_hal_rcc_ex.c ****             break;
 887:Drivers/STM32U0xx_HAL_Driver/Src/stm32u0xx_hal_rcc_ex.c ****           case RCC_LPTIM3CLKSOURCE_LSI:
 888:Drivers/STM32U0xx_HAL_Driver/Src/stm32u0xx_hal_rcc_ex.c ****             if (HAL_IS_BIT_SET(RCC->CSR, RCC_CSR_LSIRDY))
 889:Drivers/STM32U0xx_HAL_Driver/Src/stm32u0xx_hal_rcc_ex.c ****             {
 890:Drivers/STM32U0xx_HAL_Driver/Src/stm32u0xx_hal_rcc_ex.c **** #if defined(RCC_CSR_LSIPREDIV)
 891:Drivers/STM32U0xx_HAL_Driver/Src/stm32u0xx_hal_rcc_ex.c ****               if (HAL_IS_BIT_SET(RCC->CSR, RCC_CSR_LSIPREDIV))
 892:Drivers/STM32U0xx_HAL_Driver/Src/stm32u0xx_hal_rcc_ex.c ****               {
 893:Drivers/STM32U0xx_HAL_Driver/Src/stm32u0xx_hal_rcc_ex.c ****                 frequency = LSI_VALUE / 128U;
 894:Drivers/STM32U0xx_HAL_Driver/Src/stm32u0xx_hal_rcc_ex.c ****               }
 895:Drivers/STM32U0xx_HAL_Driver/Src/stm32u0xx_hal_rcc_ex.c ****               else
 896:Drivers/STM32U0xx_HAL_Driver/Src/stm32u0xx_hal_rcc_ex.c **** #endif /* RCC_CSR_LSIPREDIV */
 897:Drivers/STM32U0xx_HAL_Driver/Src/stm32u0xx_hal_rcc_ex.c ****               {
 898:Drivers/STM32U0xx_HAL_Driver/Src/stm32u0xx_hal_rcc_ex.c ****                 frequency = LSI_VALUE;
 899:Drivers/STM32U0xx_HAL_Driver/Src/stm32u0xx_hal_rcc_ex.c ****               }
 900:Drivers/STM32U0xx_HAL_Driver/Src/stm32u0xx_hal_rcc_ex.c ****             }
 901:Drivers/STM32U0xx_HAL_Driver/Src/stm32u0xx_hal_rcc_ex.c ****             break;
 902:Drivers/STM32U0xx_HAL_Driver/Src/stm32u0xx_hal_rcc_ex.c ****           case RCC_LPTIM3CLKSOURCE_HSI:
 903:Drivers/STM32U0xx_HAL_Driver/Src/stm32u0xx_hal_rcc_ex.c ****             if (HAL_IS_BIT_SET(RCC->CR, RCC_CR_HSIRDY))
 904:Drivers/STM32U0xx_HAL_Driver/Src/stm32u0xx_hal_rcc_ex.c ****             {
 905:Drivers/STM32U0xx_HAL_Driver/Src/stm32u0xx_hal_rcc_ex.c ****               frequency = HSI_VALUE;
 906:Drivers/STM32U0xx_HAL_Driver/Src/stm32u0xx_hal_rcc_ex.c ****             }
 907:Drivers/STM32U0xx_HAL_Driver/Src/stm32u0xx_hal_rcc_ex.c ****             break;
 908:Drivers/STM32U0xx_HAL_Driver/Src/stm32u0xx_hal_rcc_ex.c ****           case RCC_LPTIM3CLKSOURCE_LSE:
 909:Drivers/STM32U0xx_HAL_Driver/Src/stm32u0xx_hal_rcc_ex.c ****             if (HAL_IS_BIT_SET(RCC->BDCR, RCC_BDCR_LSERDY))
 910:Drivers/STM32U0xx_HAL_Driver/Src/stm32u0xx_hal_rcc_ex.c ****             {
 911:Drivers/STM32U0xx_HAL_Driver/Src/stm32u0xx_hal_rcc_ex.c ****               frequency = LSE_VALUE;
 912:Drivers/STM32U0xx_HAL_Driver/Src/stm32u0xx_hal_rcc_ex.c ****             }
 913:Drivers/STM32U0xx_HAL_Driver/Src/stm32u0xx_hal_rcc_ex.c ****             break;
 914:Drivers/STM32U0xx_HAL_Driver/Src/stm32u0xx_hal_rcc_ex.c ****           default:
 915:Drivers/STM32U0xx_HAL_Driver/Src/stm32u0xx_hal_rcc_ex.c ****             /* No clock source, frequency default init at 0 */
 916:Drivers/STM32U0xx_HAL_Driver/Src/stm32u0xx_hal_rcc_ex.c ****             break;
 917:Drivers/STM32U0xx_HAL_Driver/Src/stm32u0xx_hal_rcc_ex.c ****         }
 918:Drivers/STM32U0xx_HAL_Driver/Src/stm32u0xx_hal_rcc_ex.c **** 
 919:Drivers/STM32U0xx_HAL_Driver/Src/stm32u0xx_hal_rcc_ex.c ****         break;
 920:Drivers/STM32U0xx_HAL_Driver/Src/stm32u0xx_hal_rcc_ex.c ****       }
 921:Drivers/STM32U0xx_HAL_Driver/Src/stm32u0xx_hal_rcc_ex.c **** #endif /* LPTIM3 */
 922:Drivers/STM32U0xx_HAL_Driver/Src/stm32u0xx_hal_rcc_ex.c ****       case RCC_PERIPHCLK_TIM1:
 923:Drivers/STM32U0xx_HAL_Driver/Src/stm32u0xx_hal_rcc_ex.c ****       {
 924:Drivers/STM32U0xx_HAL_Driver/Src/stm32u0xx_hal_rcc_ex.c ****         /* Get the current TIM1 source */
 925:Drivers/STM32U0xx_HAL_Driver/Src/stm32u0xx_hal_rcc_ex.c ****         srcclk = __HAL_RCC_GET_TIM1_SOURCE();
 926:Drivers/STM32U0xx_HAL_Driver/Src/stm32u0xx_hal_rcc_ex.c ****         switch (srcclk)
 927:Drivers/STM32U0xx_HAL_Driver/Src/stm32u0xx_hal_rcc_ex.c ****         {
 928:Drivers/STM32U0xx_HAL_Driver/Src/stm32u0xx_hal_rcc_ex.c ****           case RCC_TIM1CLKSOURCE_PCLK1:
 929:Drivers/STM32U0xx_HAL_Driver/Src/stm32u0xx_hal_rcc_ex.c ****             if ((READ_BIT(RCC->CFGR, RCC_CFGR_PPRE) == RCC_HCLK_DIV1))
 930:Drivers/STM32U0xx_HAL_Driver/Src/stm32u0xx_hal_rcc_ex.c ****             {
 931:Drivers/STM32U0xx_HAL_Driver/Src/stm32u0xx_hal_rcc_ex.c ****               frequency = HAL_RCC_GetPCLK1Freq();
ARM GAS  C:\Users\upo\AppData\Local\Temp\ccMLO1b7.s 			page 34


 932:Drivers/STM32U0xx_HAL_Driver/Src/stm32u0xx_hal_rcc_ex.c ****             }
 933:Drivers/STM32U0xx_HAL_Driver/Src/stm32u0xx_hal_rcc_ex.c ****             else
 934:Drivers/STM32U0xx_HAL_Driver/Src/stm32u0xx_hal_rcc_ex.c ****             {
 935:Drivers/STM32U0xx_HAL_Driver/Src/stm32u0xx_hal_rcc_ex.c ****               frequency = (HAL_RCC_GetPCLK1Freq() * 2U);
 936:Drivers/STM32U0xx_HAL_Driver/Src/stm32u0xx_hal_rcc_ex.c ****             }
 937:Drivers/STM32U0xx_HAL_Driver/Src/stm32u0xx_hal_rcc_ex.c ****             break;
 938:Drivers/STM32U0xx_HAL_Driver/Src/stm32u0xx_hal_rcc_ex.c ****           case RCC_TIM1CLKSOURCE_PLLQ:
 939:Drivers/STM32U0xx_HAL_Driver/Src/stm32u0xx_hal_rcc_ex.c ****             HAL_RCCEx_GetPLLClockFreq(&pll_freq);
 940:Drivers/STM32U0xx_HAL_Driver/Src/stm32u0xx_hal_rcc_ex.c ****             frequency = pll_freq.PLL_Q_Frequency;
 941:Drivers/STM32U0xx_HAL_Driver/Src/stm32u0xx_hal_rcc_ex.c ****             break;
 942:Drivers/STM32U0xx_HAL_Driver/Src/stm32u0xx_hal_rcc_ex.c ****           default:
 943:Drivers/STM32U0xx_HAL_Driver/Src/stm32u0xx_hal_rcc_ex.c ****             /* No clock source, frequency default init at 0 */
 944:Drivers/STM32U0xx_HAL_Driver/Src/stm32u0xx_hal_rcc_ex.c ****             break;
 945:Drivers/STM32U0xx_HAL_Driver/Src/stm32u0xx_hal_rcc_ex.c ****         }
 946:Drivers/STM32U0xx_HAL_Driver/Src/stm32u0xx_hal_rcc_ex.c ****         break;
 947:Drivers/STM32U0xx_HAL_Driver/Src/stm32u0xx_hal_rcc_ex.c ****       }
 948:Drivers/STM32U0xx_HAL_Driver/Src/stm32u0xx_hal_rcc_ex.c ****       case RCC_PERIPHCLK_TIM15:
 949:Drivers/STM32U0xx_HAL_Driver/Src/stm32u0xx_hal_rcc_ex.c ****       {
 950:Drivers/STM32U0xx_HAL_Driver/Src/stm32u0xx_hal_rcc_ex.c ****         /* Get the current TIM15 source */
 951:Drivers/STM32U0xx_HAL_Driver/Src/stm32u0xx_hal_rcc_ex.c ****         srcclk = __HAL_RCC_GET_TIM15_SOURCE();
 952:Drivers/STM32U0xx_HAL_Driver/Src/stm32u0xx_hal_rcc_ex.c ****         switch (srcclk)
 953:Drivers/STM32U0xx_HAL_Driver/Src/stm32u0xx_hal_rcc_ex.c ****         {
 954:Drivers/STM32U0xx_HAL_Driver/Src/stm32u0xx_hal_rcc_ex.c ****           case RCC_TIM15CLKSOURCE_PCLK1:
 955:Drivers/STM32U0xx_HAL_Driver/Src/stm32u0xx_hal_rcc_ex.c ****             if ((READ_BIT(RCC->CFGR, RCC_CFGR_PPRE) == RCC_HCLK_DIV1))
 956:Drivers/STM32U0xx_HAL_Driver/Src/stm32u0xx_hal_rcc_ex.c ****             {
 957:Drivers/STM32U0xx_HAL_Driver/Src/stm32u0xx_hal_rcc_ex.c ****               frequency = HAL_RCC_GetPCLK1Freq();
 958:Drivers/STM32U0xx_HAL_Driver/Src/stm32u0xx_hal_rcc_ex.c ****             }
 959:Drivers/STM32U0xx_HAL_Driver/Src/stm32u0xx_hal_rcc_ex.c ****             else
 960:Drivers/STM32U0xx_HAL_Driver/Src/stm32u0xx_hal_rcc_ex.c ****             {
 961:Drivers/STM32U0xx_HAL_Driver/Src/stm32u0xx_hal_rcc_ex.c ****               frequency = (HAL_RCC_GetPCLK1Freq() * 2U);
 962:Drivers/STM32U0xx_HAL_Driver/Src/stm32u0xx_hal_rcc_ex.c ****             }
 963:Drivers/STM32U0xx_HAL_Driver/Src/stm32u0xx_hal_rcc_ex.c ****             break;
 964:Drivers/STM32U0xx_HAL_Driver/Src/stm32u0xx_hal_rcc_ex.c ****           case RCC_TIM15CLKSOURCE_PLLQ:
 965:Drivers/STM32U0xx_HAL_Driver/Src/stm32u0xx_hal_rcc_ex.c ****             HAL_RCCEx_GetPLLClockFreq(&pll_freq);
 966:Drivers/STM32U0xx_HAL_Driver/Src/stm32u0xx_hal_rcc_ex.c ****             frequency = pll_freq.PLL_Q_Frequency;
 967:Drivers/STM32U0xx_HAL_Driver/Src/stm32u0xx_hal_rcc_ex.c ****             break;
 968:Drivers/STM32U0xx_HAL_Driver/Src/stm32u0xx_hal_rcc_ex.c ****           default:
 969:Drivers/STM32U0xx_HAL_Driver/Src/stm32u0xx_hal_rcc_ex.c ****             /* No clock source, frequency default init at 0 */
 970:Drivers/STM32U0xx_HAL_Driver/Src/stm32u0xx_hal_rcc_ex.c ****             break;
 971:Drivers/STM32U0xx_HAL_Driver/Src/stm32u0xx_hal_rcc_ex.c ****         }
 972:Drivers/STM32U0xx_HAL_Driver/Src/stm32u0xx_hal_rcc_ex.c ****         break;
 973:Drivers/STM32U0xx_HAL_Driver/Src/stm32u0xx_hal_rcc_ex.c ****       }
 974:Drivers/STM32U0xx_HAL_Driver/Src/stm32u0xx_hal_rcc_ex.c **** #if defined (USB_DRD_FS)
 975:Drivers/STM32U0xx_HAL_Driver/Src/stm32u0xx_hal_rcc_ex.c ****       case RCC_PERIPHCLK_USB:
 976:Drivers/STM32U0xx_HAL_Driver/Src/stm32u0xx_hal_rcc_ex.c ****       {
 977:Drivers/STM32U0xx_HAL_Driver/Src/stm32u0xx_hal_rcc_ex.c ****         /* Get the current USB source */
 978:Drivers/STM32U0xx_HAL_Driver/Src/stm32u0xx_hal_rcc_ex.c ****         srcclk = __HAL_RCC_GET_USB_SOURCE();
 979:Drivers/STM32U0xx_HAL_Driver/Src/stm32u0xx_hal_rcc_ex.c ****         switch (srcclk)
 980:Drivers/STM32U0xx_HAL_Driver/Src/stm32u0xx_hal_rcc_ex.c ****         {
 981:Drivers/STM32U0xx_HAL_Driver/Src/stm32u0xx_hal_rcc_ex.c ****           case RCC_USBCLKSOURCE_HSI48:
 982:Drivers/STM32U0xx_HAL_Driver/Src/stm32u0xx_hal_rcc_ex.c ****             frequency = HSI48_VALUE;
 983:Drivers/STM32U0xx_HAL_Driver/Src/stm32u0xx_hal_rcc_ex.c ****             break;
 984:Drivers/STM32U0xx_HAL_Driver/Src/stm32u0xx_hal_rcc_ex.c ****           case RCC_USBCLKSOURCE_MSI:
 985:Drivers/STM32U0xx_HAL_Driver/Src/stm32u0xx_hal_rcc_ex.c ****             if (HAL_IS_BIT_SET(RCC->CR, RCC_CR_MSIRDY))
 986:Drivers/STM32U0xx_HAL_Driver/Src/stm32u0xx_hal_rcc_ex.c ****             {
 987:Drivers/STM32U0xx_HAL_Driver/Src/stm32u0xx_hal_rcc_ex.c ****               msirange = (__HAL_RCC_GET_MSI_RANGE() >> 4U);
 988:Drivers/STM32U0xx_HAL_Driver/Src/stm32u0xx_hal_rcc_ex.c ****               if (msirange > 11U)
ARM GAS  C:\Users\upo\AppData\Local\Temp\ccMLO1b7.s 			page 35


 989:Drivers/STM32U0xx_HAL_Driver/Src/stm32u0xx_hal_rcc_ex.c ****               {
 990:Drivers/STM32U0xx_HAL_Driver/Src/stm32u0xx_hal_rcc_ex.c ****                 msirange = 11U;
 991:Drivers/STM32U0xx_HAL_Driver/Src/stm32u0xx_hal_rcc_ex.c ****               }
 992:Drivers/STM32U0xx_HAL_Driver/Src/stm32u0xx_hal_rcc_ex.c ****               frequency = MSIRangeTable[msirange];
 993:Drivers/STM32U0xx_HAL_Driver/Src/stm32u0xx_hal_rcc_ex.c ****             }
 994:Drivers/STM32U0xx_HAL_Driver/Src/stm32u0xx_hal_rcc_ex.c ****             break;
 995:Drivers/STM32U0xx_HAL_Driver/Src/stm32u0xx_hal_rcc_ex.c ****           case RCC_USBCLKSOURCE_PLLQ:
 996:Drivers/STM32U0xx_HAL_Driver/Src/stm32u0xx_hal_rcc_ex.c ****             HAL_RCCEx_GetPLLClockFreq(&pll_freq);
 997:Drivers/STM32U0xx_HAL_Driver/Src/stm32u0xx_hal_rcc_ex.c ****             frequency = pll_freq.PLL_Q_Frequency;
 998:Drivers/STM32U0xx_HAL_Driver/Src/stm32u0xx_hal_rcc_ex.c ****             break;
 999:Drivers/STM32U0xx_HAL_Driver/Src/stm32u0xx_hal_rcc_ex.c ****           /* Clock not enabled for USB */
1000:Drivers/STM32U0xx_HAL_Driver/Src/stm32u0xx_hal_rcc_ex.c ****           case RCC_USBCLKSOURCE_NONE:
1001:Drivers/STM32U0xx_HAL_Driver/Src/stm32u0xx_hal_rcc_ex.c ****             frequency = 0U;
1002:Drivers/STM32U0xx_HAL_Driver/Src/stm32u0xx_hal_rcc_ex.c ****             break;
1003:Drivers/STM32U0xx_HAL_Driver/Src/stm32u0xx_hal_rcc_ex.c ****           default:
1004:Drivers/STM32U0xx_HAL_Driver/Src/stm32u0xx_hal_rcc_ex.c ****             /* No clock source, frequency default init at 0 */
1005:Drivers/STM32U0xx_HAL_Driver/Src/stm32u0xx_hal_rcc_ex.c ****             break;
1006:Drivers/STM32U0xx_HAL_Driver/Src/stm32u0xx_hal_rcc_ex.c ****         }
1007:Drivers/STM32U0xx_HAL_Driver/Src/stm32u0xx_hal_rcc_ex.c ****         break;
1008:Drivers/STM32U0xx_HAL_Driver/Src/stm32u0xx_hal_rcc_ex.c ****       }
1009:Drivers/STM32U0xx_HAL_Driver/Src/stm32u0xx_hal_rcc_ex.c **** #endif /* USB_DRD_FS */
1010:Drivers/STM32U0xx_HAL_Driver/Src/stm32u0xx_hal_rcc_ex.c ****       case RCC_PERIPHCLK_RNG:
1011:Drivers/STM32U0xx_HAL_Driver/Src/stm32u0xx_hal_rcc_ex.c ****       {
1012:Drivers/STM32U0xx_HAL_Driver/Src/stm32u0xx_hal_rcc_ex.c ****         /* Get the current RNG source */
1013:Drivers/STM32U0xx_HAL_Driver/Src/stm32u0xx_hal_rcc_ex.c ****         srcclk = __HAL_RCC_GET_RNG_SOURCE();
1014:Drivers/STM32U0xx_HAL_Driver/Src/stm32u0xx_hal_rcc_ex.c ****         switch (srcclk)
1015:Drivers/STM32U0xx_HAL_Driver/Src/stm32u0xx_hal_rcc_ex.c ****         {
1016:Drivers/STM32U0xx_HAL_Driver/Src/stm32u0xx_hal_rcc_ex.c ****           case RCC_RNGCLKSOURCE_HSI48:
1017:Drivers/STM32U0xx_HAL_Driver/Src/stm32u0xx_hal_rcc_ex.c ****             frequency = HSI48_VALUE;
1018:Drivers/STM32U0xx_HAL_Driver/Src/stm32u0xx_hal_rcc_ex.c ****             break;
1019:Drivers/STM32U0xx_HAL_Driver/Src/stm32u0xx_hal_rcc_ex.c ****           case RCC_RNGCLKSOURCE_MSI:
1020:Drivers/STM32U0xx_HAL_Driver/Src/stm32u0xx_hal_rcc_ex.c ****             if (HAL_IS_BIT_SET(RCC->CR, RCC_CR_MSIRDY))
1021:Drivers/STM32U0xx_HAL_Driver/Src/stm32u0xx_hal_rcc_ex.c ****             {
1022:Drivers/STM32U0xx_HAL_Driver/Src/stm32u0xx_hal_rcc_ex.c ****               msirange = (__HAL_RCC_GET_MSI_RANGE() >> 4U);
1023:Drivers/STM32U0xx_HAL_Driver/Src/stm32u0xx_hal_rcc_ex.c ****               if (msirange > 11U)
1024:Drivers/STM32U0xx_HAL_Driver/Src/stm32u0xx_hal_rcc_ex.c ****               {
1025:Drivers/STM32U0xx_HAL_Driver/Src/stm32u0xx_hal_rcc_ex.c ****                 msirange = 11U;
1026:Drivers/STM32U0xx_HAL_Driver/Src/stm32u0xx_hal_rcc_ex.c ****               }
1027:Drivers/STM32U0xx_HAL_Driver/Src/stm32u0xx_hal_rcc_ex.c ****               frequency = MSIRangeTable[msirange];
1028:Drivers/STM32U0xx_HAL_Driver/Src/stm32u0xx_hal_rcc_ex.c ****             }
1029:Drivers/STM32U0xx_HAL_Driver/Src/stm32u0xx_hal_rcc_ex.c ****             break;
1030:Drivers/STM32U0xx_HAL_Driver/Src/stm32u0xx_hal_rcc_ex.c ****           case RCC_RNGCLKSOURCE_PLLQ:
1031:Drivers/STM32U0xx_HAL_Driver/Src/stm32u0xx_hal_rcc_ex.c ****             HAL_RCCEx_GetPLLClockFreq(&pll_freq);
1032:Drivers/STM32U0xx_HAL_Driver/Src/stm32u0xx_hal_rcc_ex.c ****             frequency = pll_freq.PLL_Q_Frequency;
1033:Drivers/STM32U0xx_HAL_Driver/Src/stm32u0xx_hal_rcc_ex.c ****             break;
1034:Drivers/STM32U0xx_HAL_Driver/Src/stm32u0xx_hal_rcc_ex.c ****           /* Clock not enabled for RNG */
1035:Drivers/STM32U0xx_HAL_Driver/Src/stm32u0xx_hal_rcc_ex.c ****           case RCC_RNGCLKSOURCE_NONE:
1036:Drivers/STM32U0xx_HAL_Driver/Src/stm32u0xx_hal_rcc_ex.c ****             frequency = 0U;
1037:Drivers/STM32U0xx_HAL_Driver/Src/stm32u0xx_hal_rcc_ex.c ****             break;
1038:Drivers/STM32U0xx_HAL_Driver/Src/stm32u0xx_hal_rcc_ex.c ****           default:
1039:Drivers/STM32U0xx_HAL_Driver/Src/stm32u0xx_hal_rcc_ex.c ****             /* No clock source, frequency default init at 0 */
1040:Drivers/STM32U0xx_HAL_Driver/Src/stm32u0xx_hal_rcc_ex.c ****             break;
1041:Drivers/STM32U0xx_HAL_Driver/Src/stm32u0xx_hal_rcc_ex.c ****         }
1042:Drivers/STM32U0xx_HAL_Driver/Src/stm32u0xx_hal_rcc_ex.c ****         break;
1043:Drivers/STM32U0xx_HAL_Driver/Src/stm32u0xx_hal_rcc_ex.c ****       }
1044:Drivers/STM32U0xx_HAL_Driver/Src/stm32u0xx_hal_rcc_ex.c ****       default:
1045:Drivers/STM32U0xx_HAL_Driver/Src/stm32u0xx_hal_rcc_ex.c ****         break;
ARM GAS  C:\Users\upo\AppData\Local\Temp\ccMLO1b7.s 			page 36


1046:Drivers/STM32U0xx_HAL_Driver/Src/stm32u0xx_hal_rcc_ex.c ****     }
1047:Drivers/STM32U0xx_HAL_Driver/Src/stm32u0xx_hal_rcc_ex.c ****   }
1048:Drivers/STM32U0xx_HAL_Driver/Src/stm32u0xx_hal_rcc_ex.c ****   return (frequency);
1049:Drivers/STM32U0xx_HAL_Driver/Src/stm32u0xx_hal_rcc_ex.c **** }
1050:Drivers/STM32U0xx_HAL_Driver/Src/stm32u0xx_hal_rcc_ex.c **** 
1051:Drivers/STM32U0xx_HAL_Driver/Src/stm32u0xx_hal_rcc_ex.c **** /**
1052:Drivers/STM32U0xx_HAL_Driver/Src/stm32u0xx_hal_rcc_ex.c ****   * @brief  Returns the PLL clock frequencies :PLL_P_Frequency,PLL_R_Frequency and PLL_Q_Frequency
1053:Drivers/STM32U0xx_HAL_Driver/Src/stm32u0xx_hal_rcc_ex.c ****   * @note   The PLL clock frequencies computed by this function is not the real
1054:Drivers/STM32U0xx_HAL_Driver/Src/stm32u0xx_hal_rcc_ex.c ****   *         frequency in the chip. It is calculated based on the predefined
1055:Drivers/STM32U0xx_HAL_Driver/Src/stm32u0xx_hal_rcc_ex.c ****   *         constant and the selected clock source:
1056:Drivers/STM32U0xx_HAL_Driver/Src/stm32u0xx_hal_rcc_ex.c ****   * @note   The function returns values based on HSE_VALUE, HSI_VALUE or MSI Value multiplied/divid
1057:Drivers/STM32U0xx_HAL_Driver/Src/stm32u0xx_hal_rcc_ex.c ****   * @note   This function can be used by the user application to compute the
1058:Drivers/STM32U0xx_HAL_Driver/Src/stm32u0xx_hal_rcc_ex.c ****   *         baud-rate for the communication peripherals or configure other parameters.
1059:Drivers/STM32U0xx_HAL_Driver/Src/stm32u0xx_hal_rcc_ex.c ****   *
1060:Drivers/STM32U0xx_HAL_Driver/Src/stm32u0xx_hal_rcc_ex.c ****   * @note   Each time PLLCLK changes, this function must be called to update the
1061:Drivers/STM32U0xx_HAL_Driver/Src/stm32u0xx_hal_rcc_ex.c ****   *         right PLLCLK value. Otherwise, any configuration based on this function will be incorre
1062:Drivers/STM32U0xx_HAL_Driver/Src/stm32u0xx_hal_rcc_ex.c ****   * @param  PLL_Clocks structure.
1063:Drivers/STM32U0xx_HAL_Driver/Src/stm32u0xx_hal_rcc_ex.c ****   * @retval None
1064:Drivers/STM32U0xx_HAL_Driver/Src/stm32u0xx_hal_rcc_ex.c ****   */
1065:Drivers/STM32U0xx_HAL_Driver/Src/stm32u0xx_hal_rcc_ex.c **** 
1066:Drivers/STM32U0xx_HAL_Driver/Src/stm32u0xx_hal_rcc_ex.c **** void HAL_RCCEx_GetPLLClockFreq(PLL_ClocksTypeDef *PLL_Clocks)
1067:Drivers/STM32U0xx_HAL_Driver/Src/stm32u0xx_hal_rcc_ex.c **** {
 852              		.loc 1 1067 1 is_stmt 1 view -0
 853              		.cfi_startproc
 854              		@ args = 0, pretend = 0, frame = 0
 855              		@ frame_needed = 0, uses_anonymous_args = 0
1068:Drivers/STM32U0xx_HAL_Driver/Src/stm32u0xx_hal_rcc_ex.c ****   uint32_t pllsource;
 856              		.loc 1 1068 3 view .LVU256
1069:Drivers/STM32U0xx_HAL_Driver/Src/stm32u0xx_hal_rcc_ex.c ****   uint32_t pllm;
 857              		.loc 1 1069 3 view .LVU257
1070:Drivers/STM32U0xx_HAL_Driver/Src/stm32u0xx_hal_rcc_ex.c ****   uint32_t plln;
 858              		.loc 1 1070 3 view .LVU258
1071:Drivers/STM32U0xx_HAL_Driver/Src/stm32u0xx_hal_rcc_ex.c ****   uint32_t pllvco;
 859              		.loc 1 1071 3 view .LVU259
1072:Drivers/STM32U0xx_HAL_Driver/Src/stm32u0xx_hal_rcc_ex.c ****   uint32_t msirange;
 860              		.loc 1 1072 3 view .LVU260
1073:Drivers/STM32U0xx_HAL_Driver/Src/stm32u0xx_hal_rcc_ex.c **** 
1074:Drivers/STM32U0xx_HAL_Driver/Src/stm32u0xx_hal_rcc_ex.c ****   plln = ((RCC->PLLCFGR & RCC_PLLCFGR_PLLN) >> RCC_PLLCFGR_PLLN_Pos);
 861              		.loc 1 1074 3 view .LVU261
1075:Drivers/STM32U0xx_HAL_Driver/Src/stm32u0xx_hal_rcc_ex.c ****   pllsource = (RCC->PLLCFGR & RCC_PLLCFGR_PLLSRC);
 862              		.loc 1 1075 13 is_stmt 0 view .LVU262
 863 0000 0322     		movs	r2, #3
1074:Drivers/STM32U0xx_HAL_Driver/Src/stm32u0xx_hal_rcc_ex.c ****   pllsource = (RCC->PLLCFGR & RCC_PLLCFGR_PLLSRC);
 864              		.loc 1 1074 15 view .LVU263
 865 0002 2F4B     		ldr	r3, .L140
1067:Drivers/STM32U0xx_HAL_Driver/Src/stm32u0xx_hal_rcc_ex.c ****   uint32_t pllsource;
 866              		.loc 1 1067 1 view .LVU264
 867 0004 70B5     		push	{r4, r5, r6, lr}
 868              	.LCFI4:
 869              		.cfi_def_cfa_offset 16
 870              		.cfi_offset 4, -16
 871              		.cfi_offset 5, -12
 872              		.cfi_offset 6, -8
 873              		.cfi_offset 14, -4
1074:Drivers/STM32U0xx_HAL_Driver/Src/stm32u0xx_hal_rcc_ex.c ****   pllsource = (RCC->PLLCFGR & RCC_PLLCFGR_PLLSRC);
 874              		.loc 1 1074 15 view .LVU265
 875 0006 DD68     		ldr	r5, [r3, #12]
ARM GAS  C:\Users\upo\AppData\Local\Temp\ccMLO1b7.s 			page 37


 876              		.loc 1 1075 19 view .LVU266
 877 0008 D968     		ldr	r1, [r3, #12]
1067:Drivers/STM32U0xx_HAL_Driver/Src/stm32u0xx_hal_rcc_ex.c ****   uint32_t pllsource;
 878              		.loc 1 1067 1 view .LVU267
 879 000a 0400     		movs	r4, r0
 880              		.loc 1 1075 13 view .LVU268
 881 000c 0A40     		ands	r2, r1
1076:Drivers/STM32U0xx_HAL_Driver/Src/stm32u0xx_hal_rcc_ex.c ****   pllm = ((RCC->PLLCFGR & RCC_PLLCFGR_PLLM) >> RCC_PLLCFGR_PLLM_Pos) + 1U;
 882              		.loc 1 1076 15 view .LVU269
 883 000e D968     		ldr	r1, [r3, #12]
1077:Drivers/STM32U0xx_HAL_Driver/Src/stm32u0xx_hal_rcc_ex.c ****   msirange = (__HAL_RCC_GET_MSI_RANGE() >> 4U);
 884              		.loc 1 1077 15 view .LVU270
 885 0010 1868     		ldr	r0, [r3]
 886              	.LVL31:
1076:Drivers/STM32U0xx_HAL_Driver/Src/stm32u0xx_hal_rcc_ex.c ****   pllm = ((RCC->PLLCFGR & RCC_PLLCFGR_PLLM) >> RCC_PLLCFGR_PLLM_Pos) + 1U;
 887              		.loc 1 1076 45 view .LVU271
 888 0012 4906     		lsls	r1, r1, #25
1074:Drivers/STM32U0xx_HAL_Driver/Src/stm32u0xx_hal_rcc_ex.c ****   pllsource = (RCC->PLLCFGR & RCC_PLLCFGR_PLLSRC);
 889              		.loc 1 1074 8 view .LVU272
 890 0014 6D04     		lsls	r5, r5, #17
1076:Drivers/STM32U0xx_HAL_Driver/Src/stm32u0xx_hal_rcc_ex.c ****   pllm = ((RCC->PLLCFGR & RCC_PLLCFGR_PLLM) >> RCC_PLLCFGR_PLLM_Pos) + 1U;
 891              		.loc 1 1076 45 view .LVU273
 892 0016 490F     		lsrs	r1, r1, #29
1074:Drivers/STM32U0xx_HAL_Driver/Src/stm32u0xx_hal_rcc_ex.c ****   pllsource = (RCC->PLLCFGR & RCC_PLLCFGR_PLLSRC);
 893              		.loc 1 1074 8 view .LVU274
 894 0018 6D0E     		lsrs	r5, r5, #25
 895              	.LVL32:
1075:Drivers/STM32U0xx_HAL_Driver/Src/stm32u0xx_hal_rcc_ex.c ****   pllm = ((RCC->PLLCFGR & RCC_PLLCFGR_PLLM) >> RCC_PLLCFGR_PLLM_Pos) + 1U;
 896              		.loc 1 1075 3 is_stmt 1 view .LVU275
1076:Drivers/STM32U0xx_HAL_Driver/Src/stm32u0xx_hal_rcc_ex.c ****   msirange = (__HAL_RCC_GET_MSI_RANGE() >> 4U);
 897              		.loc 1 1076 3 view .LVU276
1076:Drivers/STM32U0xx_HAL_Driver/Src/stm32u0xx_hal_rcc_ex.c ****   msirange = (__HAL_RCC_GET_MSI_RANGE() >> 4U);
 898              		.loc 1 1076 8 is_stmt 0 view .LVU277
 899 001a 0131     		adds	r1, r1, #1
 900              	.LVL33:
 901              		.loc 1 1077 3 is_stmt 1 view .LVU278
 902              		.loc 1 1077 41 is_stmt 0 view .LVU279
 903 001c 0007     		lsls	r0, r0, #28
 904 001e 3FD5     		bpl	.L119
 905              		.loc 1 1077 15 discriminator 1 view .LVU280
 906 0020 1B68     		ldr	r3, [r3]
 907              		.loc 1 1077 41 discriminator 1 view .LVU281
 908 0022 1B06     		lsls	r3, r3, #24
 909 0024 1B0F     		lsrs	r3, r3, #28
 910              	.L120:
 911              	.LVL34:
1078:Drivers/STM32U0xx_HAL_Driver/Src/stm32u0xx_hal_rcc_ex.c ****   if (msirange > 11U)
 912              		.loc 1 1078 3 is_stmt 1 discriminator 4 view .LVU282
 913              		.loc 1 1078 6 is_stmt 0 discriminator 4 view .LVU283
 914 0026 0B2B     		cmp	r3, #11
 915 0028 00D9     		bls	.L121
 916 002a 0B23     		movs	r3, #11
 917              	.LVL35:
 918              	.L121:
1079:Drivers/STM32U0xx_HAL_Driver/Src/stm32u0xx_hal_rcc_ex.c ****   {
1080:Drivers/STM32U0xx_HAL_Driver/Src/stm32u0xx_hal_rcc_ex.c ****     msirange = 11U;
1081:Drivers/STM32U0xx_HAL_Driver/Src/stm32u0xx_hal_rcc_ex.c ****   }
ARM GAS  C:\Users\upo\AppData\Local\Temp\ccMLO1b7.s 			page 38


1082:Drivers/STM32U0xx_HAL_Driver/Src/stm32u0xx_hal_rcc_ex.c ****   switch (pllsource)
 919              		.loc 1 1082 3 is_stmt 1 discriminator 4 view .LVU284
 920 002c 022A     		cmp	r2, #2
 921 002e 3CD0     		beq	.L122
 922              		.loc 1 1082 3 is_stmt 0 view .LVU285
 923 0030 032A     		cmp	r2, #3
 924 0032 3FD0     		beq	.L123
1083:Drivers/STM32U0xx_HAL_Driver/Src/stm32u0xx_hal_rcc_ex.c ****   {
1084:Drivers/STM32U0xx_HAL_Driver/Src/stm32u0xx_hal_rcc_ex.c **** 
1085:Drivers/STM32U0xx_HAL_Driver/Src/stm32u0xx_hal_rcc_ex.c ****     case RCC_PLLSOURCE_HSI:  /* HSI used as PLL clock source */
1086:Drivers/STM32U0xx_HAL_Driver/Src/stm32u0xx_hal_rcc_ex.c ****       pllvco = (HSI_VALUE / pllm) * plln;
1087:Drivers/STM32U0xx_HAL_Driver/Src/stm32u0xx_hal_rcc_ex.c ****       break;
1088:Drivers/STM32U0xx_HAL_Driver/Src/stm32u0xx_hal_rcc_ex.c **** 
1089:Drivers/STM32U0xx_HAL_Driver/Src/stm32u0xx_hal_rcc_ex.c ****     case RCC_PLLSOURCE_MSI:  /* MSI used as PLL clock source */
1090:Drivers/STM32U0xx_HAL_Driver/Src/stm32u0xx_hal_rcc_ex.c ****       pllvco = ((MSIRangeTable[msirange] / pllm) * plln);
1091:Drivers/STM32U0xx_HAL_Driver/Src/stm32u0xx_hal_rcc_ex.c ****       break;
1092:Drivers/STM32U0xx_HAL_Driver/Src/stm32u0xx_hal_rcc_ex.c **** 
1093:Drivers/STM32U0xx_HAL_Driver/Src/stm32u0xx_hal_rcc_ex.c ****     case RCC_PLLSOURCE_HSE:  /* HSE used as PLL clock source */
1094:Drivers/STM32U0xx_HAL_Driver/Src/stm32u0xx_hal_rcc_ex.c ****       pllvco = (HSE_VALUE / pllm) * plln;
1095:Drivers/STM32U0xx_HAL_Driver/Src/stm32u0xx_hal_rcc_ex.c ****       break;
1096:Drivers/STM32U0xx_HAL_Driver/Src/stm32u0xx_hal_rcc_ex.c **** 
1097:Drivers/STM32U0xx_HAL_Driver/Src/stm32u0xx_hal_rcc_ex.c ****     default:
1098:Drivers/STM32U0xx_HAL_Driver/Src/stm32u0xx_hal_rcc_ex.c ****       pllvco = ((MSIRangeTable[msirange] / pllm) * plln);
 925              		.loc 1 1098 7 is_stmt 1 view .LVU286
 926              		.loc 1 1098 31 is_stmt 0 view .LVU287
 927 0034 234A     		ldr	r2, .L140+4
 928              	.LVL36:
 929              		.loc 1 1098 31 view .LVU288
 930 0036 9B00     		lsls	r3, r3, #2
 931              	.LVL37:
 932              		.loc 1 1098 42 view .LVU289
 933 0038 9858     		ldr	r0, [r3, r2]
 934 003a FFF7FEFF 		bl	__aeabi_uidiv
 935              	.LVL38:
 936              		.loc 1 1098 14 view .LVU290
 937 003e 4543     		muls	r5, r0
 938              	.LVL39:
1099:Drivers/STM32U0xx_HAL_Driver/Src/stm32u0xx_hal_rcc_ex.c ****       break;
 939              		.loc 1 1099 7 is_stmt 1 view .LVU291
 940              	.L126:
1100:Drivers/STM32U0xx_HAL_Driver/Src/stm32u0xx_hal_rcc_ex.c ****   }
1101:Drivers/STM32U0xx_HAL_Driver/Src/stm32u0xx_hal_rcc_ex.c **** 
1102:Drivers/STM32U0xx_HAL_Driver/Src/stm32u0xx_hal_rcc_ex.c ****   if (__HAL_RCC_GET_PLLCLKOUT_CONFIG(RCC_PLL_DIVP) != 0U)
 941              		.loc 1 1102 3 view .LVU292
 942              		.loc 1 1102 7 is_stmt 0 view .LVU293
 943 0040 1F49     		ldr	r1, .L140
 944 0042 8023     		movs	r3, #128
 945 0044 CA68     		ldr	r2, [r1, #12]
 946 0046 5B02     		lsls	r3, r3, #9
 947 0048 1000     		movs	r0, r2
 948 004a 1840     		ands	r0, r3
 949              		.loc 1 1102 6 view .LVU294
 950 004c 1A42     		tst	r2, r3
 951 004e 06D0     		beq	.L127
1103:Drivers/STM32U0xx_HAL_Driver/Src/stm32u0xx_hal_rcc_ex.c ****   {
1104:Drivers/STM32U0xx_HAL_Driver/Src/stm32u0xx_hal_rcc_ex.c ****     PLL_Clocks->PLL_P_Frequency = (uint32_t)(pllvco / (((RCC->PLLCFGR & RCC_PLLCFGR_PLLP) \
 952              		.loc 1 1104 5 is_stmt 1 view .LVU295
ARM GAS  C:\Users\upo\AppData\Local\Temp\ccMLO1b7.s 			page 39


 953              		.loc 1 1104 61 is_stmt 0 view .LVU296
 954 0050 C968     		ldr	r1, [r1, #12]
 955              		.loc 1 1104 35 view .LVU297
 956 0052 2800     		movs	r0, r5
1105:Drivers/STM32U0xx_HAL_Driver/Src/stm32u0xx_hal_rcc_ex.c ****                                                         >> RCC_PLLCFGR_PLLP_Pos) + 1U));
 957              		.loc 1 1105 57 view .LVU298
 958 0054 8902     		lsls	r1, r1, #10
 959 0056 C90E     		lsrs	r1, r1, #27
 960              		.loc 1 1105 82 view .LVU299
 961 0058 0131     		adds	r1, r1, #1
1104:Drivers/STM32U0xx_HAL_Driver/Src/stm32u0xx_hal_rcc_ex.c ****                                                         >> RCC_PLLCFGR_PLLP_Pos) + 1U));
 962              		.loc 1 1104 35 view .LVU300
 963 005a FFF7FEFF 		bl	__aeabi_uidiv
 964              	.LVL40:
 965              	.L127:
1106:Drivers/STM32U0xx_HAL_Driver/Src/stm32u0xx_hal_rcc_ex.c ****   }
1107:Drivers/STM32U0xx_HAL_Driver/Src/stm32u0xx_hal_rcc_ex.c ****   else
1108:Drivers/STM32U0xx_HAL_Driver/Src/stm32u0xx_hal_rcc_ex.c ****   {
1109:Drivers/STM32U0xx_HAL_Driver/Src/stm32u0xx_hal_rcc_ex.c ****     PLL_Clocks->PLL_P_Frequency = 0;
1110:Drivers/STM32U0xx_HAL_Driver/Src/stm32u0xx_hal_rcc_ex.c ****   }
1111:Drivers/STM32U0xx_HAL_Driver/Src/stm32u0xx_hal_rcc_ex.c **** 
1112:Drivers/STM32U0xx_HAL_Driver/Src/stm32u0xx_hal_rcc_ex.c ****   if (__HAL_RCC_GET_PLLCLKOUT_CONFIG(RCC_PLL_DIVQ) != 0U)
 966              		.loc 1 1112 7 view .LVU301
 967 005e 1849     		ldr	r1, .L140
 968 0060 2060     		str	r0, [r4]
 969              		.loc 1 1112 3 is_stmt 1 view .LVU302
 970              		.loc 1 1112 7 is_stmt 0 view .LVU303
 971 0062 CA68     		ldr	r2, [r1, #12]
 972 0064 8023     		movs	r3, #128
 973 0066 1000     		movs	r0, r2
 974 0068 5B04     		lsls	r3, r3, #17
 975 006a 1840     		ands	r0, r3
 976              		.loc 1 1112 6 view .LVU304
 977 006c 1A42     		tst	r2, r3
 978 006e 06D0     		beq	.L128
1113:Drivers/STM32U0xx_HAL_Driver/Src/stm32u0xx_hal_rcc_ex.c ****   {
1114:Drivers/STM32U0xx_HAL_Driver/Src/stm32u0xx_hal_rcc_ex.c ****     PLL_Clocks->PLL_Q_Frequency = (uint32_t)(pllvco / (((RCC->PLLCFGR & RCC_PLLCFGR_PLLQ) \
 979              		.loc 1 1114 5 is_stmt 1 view .LVU305
 980              		.loc 1 1114 61 is_stmt 0 view .LVU306
 981 0070 C968     		ldr	r1, [r1, #12]
 982              		.loc 1 1114 35 view .LVU307
 983 0072 2800     		movs	r0, r5
1115:Drivers/STM32U0xx_HAL_Driver/Src/stm32u0xx_hal_rcc_ex.c ****                                                         >> RCC_PLLCFGR_PLLQ_Pos) + 1U));
 984              		.loc 1 1115 57 view .LVU308
 985 0074 0901     		lsls	r1, r1, #4
 986 0076 490F     		lsrs	r1, r1, #29
 987              		.loc 1 1115 82 view .LVU309
 988 0078 0131     		adds	r1, r1, #1
1114:Drivers/STM32U0xx_HAL_Driver/Src/stm32u0xx_hal_rcc_ex.c ****                                                         >> RCC_PLLCFGR_PLLQ_Pos) + 1U));
 989              		.loc 1 1114 35 view .LVU310
 990 007a FFF7FEFF 		bl	__aeabi_uidiv
 991              	.LVL41:
 992              	.L128:
1116:Drivers/STM32U0xx_HAL_Driver/Src/stm32u0xx_hal_rcc_ex.c ****   }
1117:Drivers/STM32U0xx_HAL_Driver/Src/stm32u0xx_hal_rcc_ex.c ****   else
1118:Drivers/STM32U0xx_HAL_Driver/Src/stm32u0xx_hal_rcc_ex.c ****   {
1119:Drivers/STM32U0xx_HAL_Driver/Src/stm32u0xx_hal_rcc_ex.c ****     PLL_Clocks->PLL_Q_Frequency = 0;
ARM GAS  C:\Users\upo\AppData\Local\Temp\ccMLO1b7.s 			page 40


1120:Drivers/STM32U0xx_HAL_Driver/Src/stm32u0xx_hal_rcc_ex.c ****   }
1121:Drivers/STM32U0xx_HAL_Driver/Src/stm32u0xx_hal_rcc_ex.c **** 
1122:Drivers/STM32U0xx_HAL_Driver/Src/stm32u0xx_hal_rcc_ex.c ****   if (__HAL_RCC_GET_PLLCLKOUT_CONFIG(RCC_PLL_DIVR) != 0U)
 993              		.loc 1 1122 7 view .LVU311
 994 007e 1049     		ldr	r1, .L140
 995 0080 6060     		str	r0, [r4, #4]
 996              		.loc 1 1122 3 is_stmt 1 view .LVU312
 997              		.loc 1 1122 7 is_stmt 0 view .LVU313
 998 0082 CA68     		ldr	r2, [r1, #12]
 999 0084 8023     		movs	r3, #128
 1000 0086 1000     		movs	r0, r2
 1001 0088 5B05     		lsls	r3, r3, #21
 1002 008a 1840     		ands	r0, r3
 1003              		.loc 1 1122 6 view .LVU314
 1004 008c 1A42     		tst	r2, r3
 1005 008e 05D0     		beq	.L129
1123:Drivers/STM32U0xx_HAL_Driver/Src/stm32u0xx_hal_rcc_ex.c ****   {
1124:Drivers/STM32U0xx_HAL_Driver/Src/stm32u0xx_hal_rcc_ex.c ****     PLL_Clocks->PLL_R_Frequency = (uint32_t)(pllvco / (((RCC->PLLCFGR & RCC_PLLCFGR_PLLR) \
 1006              		.loc 1 1124 5 is_stmt 1 view .LVU315
 1007              		.loc 1 1124 61 is_stmt 0 view .LVU316
 1008 0090 C968     		ldr	r1, [r1, #12]
 1009              		.loc 1 1124 35 view .LVU317
 1010 0092 2800     		movs	r0, r5
1125:Drivers/STM32U0xx_HAL_Driver/Src/stm32u0xx_hal_rcc_ex.c ****                                                         >> RCC_PLLCFGR_PLLR_Pos) + 1U));
 1011              		.loc 1 1125 57 view .LVU318
 1012 0094 490F     		lsrs	r1, r1, #29
 1013              		.loc 1 1125 82 view .LVU319
 1014 0096 0131     		adds	r1, r1, #1
1124:Drivers/STM32U0xx_HAL_Driver/Src/stm32u0xx_hal_rcc_ex.c ****                                                         >> RCC_PLLCFGR_PLLR_Pos) + 1U));
 1015              		.loc 1 1124 35 view .LVU320
 1016 0098 FFF7FEFF 		bl	__aeabi_uidiv
 1017              	.LVL42:
 1018              	.L129:
1126:Drivers/STM32U0xx_HAL_Driver/Src/stm32u0xx_hal_rcc_ex.c ****   }
1127:Drivers/STM32U0xx_HAL_Driver/Src/stm32u0xx_hal_rcc_ex.c ****   else
1128:Drivers/STM32U0xx_HAL_Driver/Src/stm32u0xx_hal_rcc_ex.c ****   {
1129:Drivers/STM32U0xx_HAL_Driver/Src/stm32u0xx_hal_rcc_ex.c ****     PLL_Clocks->PLL_R_Frequency = 0;
1130:Drivers/STM32U0xx_HAL_Driver/Src/stm32u0xx_hal_rcc_ex.c ****   }
1131:Drivers/STM32U0xx_HAL_Driver/Src/stm32u0xx_hal_rcc_ex.c **** }
 1019              		.loc 1 1131 1 view .LVU321
 1020              		@ sp needed
 1021 009c A060     		str	r0, [r4, #8]
 1022              	.LVL43:
 1023              	.LVL44:
 1024              		.loc 1 1131 1 view .LVU322
 1025 009e 70BD     		pop	{r4, r5, r6, pc}
 1026              	.LVL45:
 1027              	.L119:
1077:Drivers/STM32U0xx_HAL_Driver/Src/stm32u0xx_hal_rcc_ex.c ****   if (msirange > 11U)
 1028              		.loc 1 1077 15 discriminator 2 view .LVU323
 1029 00a0 9420     		movs	r0, #148
 1030 00a2 1B58     		ldr	r3, [r3, r0]
1077:Drivers/STM32U0xx_HAL_Driver/Src/stm32u0xx_hal_rcc_ex.c ****   if (msirange > 11U)
 1031              		.loc 1 1077 41 discriminator 2 view .LVU324
 1032 00a4 1B05     		lsls	r3, r3, #20
 1033 00a6 1B0F     		lsrs	r3, r3, #28
 1034 00a8 BDE7     		b	.L120
ARM GAS  C:\Users\upo\AppData\Local\Temp\ccMLO1b7.s 			page 41


 1035              	.LVL46:
 1036              	.L122:
1086:Drivers/STM32U0xx_HAL_Driver/Src/stm32u0xx_hal_rcc_ex.c ****       break;
 1037              		.loc 1 1086 7 is_stmt 1 view .LVU325
1086:Drivers/STM32U0xx_HAL_Driver/Src/stm32u0xx_hal_rcc_ex.c ****       break;
 1038              		.loc 1 1086 27 is_stmt 0 view .LVU326
 1039 00aa 0748     		ldr	r0, .L140+8
 1040 00ac FFF7FEFF 		bl	__aeabi_uidiv
 1041              	.LVL47:
1086:Drivers/STM32U0xx_HAL_Driver/Src/stm32u0xx_hal_rcc_ex.c ****       break;
 1042              		.loc 1 1086 14 view .LVU327
 1043 00b0 4543     		muls	r5, r0
 1044              	.LVL48:
1087:Drivers/STM32U0xx_HAL_Driver/Src/stm32u0xx_hal_rcc_ex.c **** 
 1045              		.loc 1 1087 7 is_stmt 1 view .LVU328
 1046 00b2 C5E7     		b	.L126
 1047              	.LVL49:
 1048              	.L123:
1094:Drivers/STM32U0xx_HAL_Driver/Src/stm32u0xx_hal_rcc_ex.c ****       break;
 1049              		.loc 1 1094 7 view .LVU329
1094:Drivers/STM32U0xx_HAL_Driver/Src/stm32u0xx_hal_rcc_ex.c ****       break;
 1050              		.loc 1 1094 27 is_stmt 0 view .LVU330
 1051 00b4 0548     		ldr	r0, .L140+12
 1052 00b6 FFF7FEFF 		bl	__aeabi_uidiv
 1053              	.LVL50:
1094:Drivers/STM32U0xx_HAL_Driver/Src/stm32u0xx_hal_rcc_ex.c ****       break;
 1054              		.loc 1 1094 14 view .LVU331
 1055 00ba 4543     		muls	r5, r0
 1056              	.LVL51:
1095:Drivers/STM32U0xx_HAL_Driver/Src/stm32u0xx_hal_rcc_ex.c **** 
 1057              		.loc 1 1095 7 is_stmt 1 view .LVU332
 1058 00bc C0E7     		b	.L126
 1059              	.L141:
 1060 00be C046     		.align	2
 1061              	.L140:
 1062 00c0 00100240 		.word	1073876992
 1063 00c4 00000000 		.word	MSIRangeTable
 1064 00c8 0024F400 		.word	16000000
 1065 00cc 00093D00 		.word	4000000
 1066              		.cfi_endproc
 1067              	.LFE337:
 1069              		.section	.text.HAL_RCCEx_GetPeriphCLKFreq,"ax",%progbits
 1070              		.align	1
 1071              		.p2align 2,,3
 1072              		.global	HAL_RCCEx_GetPeriphCLKFreq
 1073              		.syntax unified
 1074              		.code	16
 1075              		.thumb_func
 1077              	HAL_RCCEx_GetPeriphCLKFreq:
 1078              	.LVL52:
 1079              	.LFB336:
 479:Drivers/STM32U0xx_HAL_Driver/Src/stm32u0xx_hal_rcc_ex.c ****   uint32_t frequency = 0U;
 1080              		.loc 1 479 1 view -0
 1081              		.cfi_startproc
 1082              		@ args = 0, pretend = 0, frame = 16
 1083              		@ frame_needed = 0, uses_anonymous_args = 0
 480:Drivers/STM32U0xx_HAL_Driver/Src/stm32u0xx_hal_rcc_ex.c ****   uint32_t srcclk;    /* no init needed */
ARM GAS  C:\Users\upo\AppData\Local\Temp\ccMLO1b7.s 			page 42


 1084              		.loc 1 480 3 view .LVU334
 481:Drivers/STM32U0xx_HAL_Driver/Src/stm32u0xx_hal_rcc_ex.c ****   PLL_ClocksTypeDef pll_freq;
 1085              		.loc 1 481 3 view .LVU335
 482:Drivers/STM32U0xx_HAL_Driver/Src/stm32u0xx_hal_rcc_ex.c ****   uint32_t msirange;
 1086              		.loc 1 482 3 view .LVU336
 483:Drivers/STM32U0xx_HAL_Driver/Src/stm32u0xx_hal_rcc_ex.c ****   /* Check the parameters */
 1087              		.loc 1 483 3 view .LVU337
 485:Drivers/STM32U0xx_HAL_Driver/Src/stm32u0xx_hal_rcc_ex.c **** 
 1088              		.loc 1 485 3 view .LVU338
 487:Drivers/STM32U0xx_HAL_Driver/Src/stm32u0xx_hal_rcc_ex.c ****   {
 1089              		.loc 1 487 3 view .LVU339
 487:Drivers/STM32U0xx_HAL_Driver/Src/stm32u0xx_hal_rcc_ex.c ****   {
 1090              		.loc 1 487 6 is_stmt 0 view .LVU340
 1091 0000 8023     		movs	r3, #128
 479:Drivers/STM32U0xx_HAL_Driver/Src/stm32u0xx_hal_rcc_ex.c ****   uint32_t frequency = 0U;
 1092              		.loc 1 479 1 view .LVU341
 1093 0002 10B5     		push	{r4, lr}
 1094              	.LCFI5:
 1095              		.cfi_def_cfa_offset 8
 1096              		.cfi_offset 4, -8
 1097              		.cfi_offset 14, -4
 487:Drivers/STM32U0xx_HAL_Driver/Src/stm32u0xx_hal_rcc_ex.c ****   {
 1098              		.loc 1 487 6 view .LVU342
 1099 0004 1B02     		lsls	r3, r3, #8
 479:Drivers/STM32U0xx_HAL_Driver/Src/stm32u0xx_hal_rcc_ex.c ****   uint32_t frequency = 0U;
 1100              		.loc 1 479 1 view .LVU343
 1101 0006 84B0     		sub	sp, sp, #16
 1102              	.LCFI6:
 1103              		.cfi_def_cfa_offset 24
 487:Drivers/STM32U0xx_HAL_Driver/Src/stm32u0xx_hal_rcc_ex.c ****   {
 1104              		.loc 1 487 6 view .LVU344
 1105 0008 9842     		cmp	r0, r3
 1106 000a 00D1     		bne	.LCB1009
 1107 000c 9EE0     		b	.L358	@long jump
 1108              	.LCB1009:
 532:Drivers/STM32U0xx_HAL_Driver/Src/stm32u0xx_hal_rcc_ex.c ****     {
 1109              		.loc 1 532 5 is_stmt 1 view .LVU345
 1110 000e 8023     		movs	r3, #128
 1111 0010 5B00     		lsls	r3, r3, #1
 1112 0012 9842     		cmp	r0, r3
 1113 0014 00D1     		bne	.LCB1014
 1114 0016 AFE1     		b	.L147	@long jump
 1115              	.LCB1014:
 1116 0018 09D8     		bhi	.L148
 1117 001a 2028     		cmp	r0, #32
 1118 001c 36D8     		bhi	.L149
 1119 001e 0028     		cmp	r0, #0
 1120 0020 18D0     		beq	.L213
 1121 0022 2028     		cmp	r0, #32
 1122 0024 16D8     		bhi	.L213
 1123 0026 B44B     		ldr	r3, .L362
 1124 0028 8000     		lsls	r0, r0, #2
 1125              	.LVL53:
 532:Drivers/STM32U0xx_HAL_Driver/Src/stm32u0xx_hal_rcc_ex.c ****     {
 1126              		.loc 1 532 5 is_stmt 0 view .LVU346
 1127 002a 1B58     		ldr	r3, [r3, r0]
 1128 002c 9F46     		mov	pc, r3
ARM GAS  C:\Users\upo\AppData\Local\Temp\ccMLO1b7.s 			page 43


 1129              		.section	.rodata.HAL_RCCEx_GetPeriphCLKFreq,"a",%progbits
 1130              		.align	2
 1131              	.L151:
 1132 0000 54000000 		.word	.L213
 1133 0004 1A020000 		.word	.L156
 1134 0008 64020000 		.word	.L155
 1135 000c 54000000 		.word	.L213
 1136 0010 7E020000 		.word	.L154
 1137 0014 54000000 		.word	.L213
 1138 0018 54000000 		.word	.L213
 1139 001c 54000000 		.word	.L213
 1140 0020 98020000 		.word	.L153
 1141 0024 54000000 		.word	.L213
 1142 0028 54000000 		.word	.L213
 1143 002c 54000000 		.word	.L213
 1144 0030 54000000 		.word	.L213
 1145 0034 54000000 		.word	.L213
 1146 0038 54000000 		.word	.L213
 1147 003c 54000000 		.word	.L213
 1148 0040 BE020000 		.word	.L152
 1149 0044 54000000 		.word	.L213
 1150 0048 54000000 		.word	.L213
 1151 004c 54000000 		.word	.L213
 1152 0050 54000000 		.word	.L213
 1153 0054 54000000 		.word	.L213
 1154 0058 54000000 		.word	.L213
 1155 005c 54000000 		.word	.L213
 1156 0060 54000000 		.word	.L213
 1157 0064 54000000 		.word	.L213
 1158 0068 54000000 		.word	.L213
 1159 006c 54000000 		.word	.L213
 1160 0070 54000000 		.word	.L213
 1161 0074 54000000 		.word	.L213
 1162 0078 54000000 		.word	.L213
 1163 007c 54000000 		.word	.L213
 1164 0080 34020000 		.word	.L150
 1165              		.section	.text.HAL_RCCEx_GetPeriphCLKFreq
 1166              	.LVL54:
 1167              	.L148:
 532:Drivers/STM32U0xx_HAL_Driver/Src/stm32u0xx_hal_rcc_ex.c ****     {
 1168              		.loc 1 532 5 view .LVU347
 1169 002e 8023     		movs	r3, #128
 1170 0030 5B01     		lsls	r3, r3, #5
 1171 0032 9842     		cmp	r0, r3
 1172 0034 00D1     		bne	.LCB1039
 1173 0036 8BE1     		b	.L159	@long jump
 1174              	.LCB1039:
 1175 0038 0FD9     		bls	.L359
 1176 003a 8023     		movs	r3, #128
 1177 003c DB01     		lsls	r3, r3, #7
 1178 003e 9842     		cmp	r0, r3
 1179 0040 00D1     		bne	.LCB1045
 1180 0042 CAE0     		b	.L164	@long jump
 1181              	.LCB1045:
 1182 0044 3CD9     		bls	.L360
 1183 0046 AD4B     		ldr	r3, .L362+4
 1184 0048 9C46     		mov	ip, r3
ARM GAS  C:\Users\upo\AppData\Local\Temp\ccMLO1b7.s 			page 44


 1185 004a AD4B     		ldr	r3, .L362+8
 1186 004c 6044     		add	r0, r0, ip
 1187              	.LVL55:
 532:Drivers/STM32U0xx_HAL_Driver/Src/stm32u0xx_hal_rcc_ex.c ****     {
 1188              		.loc 1 532 5 view .LVU348
 1189 004e 1842     		tst	r0, r3
 1190 0050 00D1     		bne	.LCB1055
 1191 0052 A3E0     		b	.L325	@long jump
 1192              	.LCB1055:
 1193              	.LVL56:
 1194              	.L213:
 532:Drivers/STM32U0xx_HAL_Driver/Src/stm32u0xx_hal_rcc_ex.c ****     {
 1195              		.loc 1 532 5 view .LVU349
 1196 0054 0020     		movs	r0, #0
 1197              	.LVL57:
 1198              	.L142:
1049:Drivers/STM32U0xx_HAL_Driver/Src/stm32u0xx_hal_rcc_ex.c **** 
 1199              		.loc 1 1049 1 view .LVU350
 1200 0056 04B0     		add	sp, sp, #16
 1201              		@ sp needed
 1202 0058 10BD     		pop	{r4, pc}
 1203              	.LVL58:
 1204              	.L359:
 532:Drivers/STM32U0xx_HAL_Driver/Src/stm32u0xx_hal_rcc_ex.c ****     {
 1205              		.loc 1 532 5 view .LVU351
 1206 005a 8023     		movs	r3, #128
 1207 005c DB00     		lsls	r3, r3, #3
 1208 005e 9842     		cmp	r0, r3
 1209 0060 00D1     		bne	.LCB1077
 1210 0062 CFE0     		b	.L161	@long jump
 1211              	.LCB1077:
 1212 0064 8022     		movs	r2, #128
 1213 0066 1201     		lsls	r2, r2, #4
 1214 0068 9042     		cmp	r0, r2
 1215 006a 55D1     		bne	.L361
 951:Drivers/STM32U0xx_HAL_Driver/Src/stm32u0xx_hal_rcc_ex.c ****         switch (srcclk)
 1216              		.loc 1 951 9 is_stmt 1 view .LVU352
 951:Drivers/STM32U0xx_HAL_Driver/Src/stm32u0xx_hal_rcc_ex.c ****         switch (srcclk)
 1217              		.loc 1 951 18 is_stmt 0 view .LVU353
 1218 006c 8823     		movs	r3, #136
 1219 006e A54A     		ldr	r2, .L362+12
 1220 0070 D358     		ldr	r3, [r2, r3]
 1221              	.LVL59:
 952:Drivers/STM32U0xx_HAL_Driver/Src/stm32u0xx_hal_rcc_ex.c ****         {
 1222              		.loc 1 952 9 is_stmt 1 view .LVU354
 1223 0072 9B01     		lsls	r3, r3, #6
 1224 0074 00D5     		bpl	.LCB1091
 1225 0076 CBE0     		b	.L200	@long jump
 1226              	.LCB1091:
 1227              	.LVL60:
 1228              	.L322:
 929:Drivers/STM32U0xx_HAL_Driver/Src/stm32u0xx_hal_rcc_ex.c ****             {
 1229              		.loc 1 929 13 view .LVU355
 929:Drivers/STM32U0xx_HAL_Driver/Src/stm32u0xx_hal_rcc_ex.c ****             {
 1230              		.loc 1 929 18 is_stmt 0 view .LVU356
 1231 0078 E023     		movs	r3, #224
 1232 007a 9268     		ldr	r2, [r2, #8]
ARM GAS  C:\Users\upo\AppData\Local\Temp\ccMLO1b7.s 			page 45


 1233 007c DB01     		lsls	r3, r3, #7
 929:Drivers/STM32U0xx_HAL_Driver/Src/stm32u0xx_hal_rcc_ex.c ****             {
 1234              		.loc 1 929 16 view .LVU357
 1235 007e 1A42     		tst	r2, r3
 1236 0080 00D1     		bne	.LCB1101
 1237 0082 8BE0     		b	.L325	@long jump
 1238              	.LCB1101:
 935:Drivers/STM32U0xx_HAL_Driver/Src/stm32u0xx_hal_rcc_ex.c ****             }
 1239              		.loc 1 935 15 is_stmt 1 view .LVU358
 935:Drivers/STM32U0xx_HAL_Driver/Src/stm32u0xx_hal_rcc_ex.c ****             }
 1240              		.loc 1 935 28 is_stmt 0 view .LVU359
 1241 0084 FFF7FEFF 		bl	HAL_RCC_GetPCLK1Freq
 1242              	.LVL61:
 935:Drivers/STM32U0xx_HAL_Driver/Src/stm32u0xx_hal_rcc_ex.c ****             }
 1243              		.loc 1 935 25 view .LVU360
 1244 0088 4000     		lsls	r0, r0, #1
 1245              	.LVL62:
 935:Drivers/STM32U0xx_HAL_Driver/Src/stm32u0xx_hal_rcc_ex.c ****             }
 1246              		.loc 1 935 25 view .LVU361
 1247 008a E4E7     		b	.L142
 1248              	.LVL63:
 1249              	.L149:
 532:Drivers/STM32U0xx_HAL_Driver/Src/stm32u0xx_hal_rcc_ex.c ****     {
 1250              		.loc 1 532 5 view .LVU362
 1251 008c 4028     		cmp	r0, #64
 1252 008e 74D0     		beq	.L157
 1253 0090 8028     		cmp	r0, #128
 1254 0092 DFD1     		bne	.L213
 791:Drivers/STM32U0xx_HAL_Driver/Src/stm32u0xx_hal_rcc_ex.c **** 
 1255              		.loc 1 791 9 is_stmt 1 view .LVU363
 791:Drivers/STM32U0xx_HAL_Driver/Src/stm32u0xx_hal_rcc_ex.c **** 
 1256              		.loc 1 791 18 is_stmt 0 view .LVU364
 1257 0094 8823     		movs	r3, #136
 791:Drivers/STM32U0xx_HAL_Driver/Src/stm32u0xx_hal_rcc_ex.c **** 
 1258              		.loc 1 791 16 view .LVU365
 1259 0096 C022     		movs	r2, #192
 1260 0098 8021     		movs	r1, #128
 791:Drivers/STM32U0xx_HAL_Driver/Src/stm32u0xx_hal_rcc_ex.c **** 
 1261              		.loc 1 791 18 view .LVU366
 1262 009a 9A48     		ldr	r0, .L362+12
 1263              	.LVL64:
 791:Drivers/STM32U0xx_HAL_Driver/Src/stm32u0xx_hal_rcc_ex.c **** 
 1264              		.loc 1 791 16 view .LVU367
 1265 009c 1203     		lsls	r2, r2, #12
 791:Drivers/STM32U0xx_HAL_Driver/Src/stm32u0xx_hal_rcc_ex.c **** 
 1266              		.loc 1 791 18 view .LVU368
 1267 009e C358     		ldr	r3, [r0, r3]
 1268 00a0 0903     		lsls	r1, r1, #12
 791:Drivers/STM32U0xx_HAL_Driver/Src/stm32u0xx_hal_rcc_ex.c **** 
 1269              		.loc 1 791 16 view .LVU369
 1270 00a2 1340     		ands	r3, r2
 1271              	.LVL65:
 793:Drivers/STM32U0xx_HAL_Driver/Src/stm32u0xx_hal_rcc_ex.c ****         {
 1272              		.loc 1 793 9 is_stmt 1 view .LVU370
 1273 00a4 8B42     		cmp	r3, r1
 1274 00a6 00D1     		bne	.LCB1131
 1275 00a8 1CE1     		b	.L187	@long jump
ARM GAS  C:\Users\upo\AppData\Local\Temp\ccMLO1b7.s 			page 46


 1276              	.LCB1131:
 1277 00aa 00D9     		bls	.LCB1133
 1278 00ac 34E1     		b	.L188	@long jump
 1279              	.LCB1133:
 1280 00ae 002B     		cmp	r3, #0
 1281 00b0 74D0     		beq	.L325
 1282 00b2 8022     		movs	r2, #128
 1283 00b4 D202     		lsls	r2, r2, #11
 1284 00b6 9342     		cmp	r3, r2
 1285 00b8 CCD1     		bne	.L213
 888:Drivers/STM32U0xx_HAL_Driver/Src/stm32u0xx_hal_rcc_ex.c ****             {
 1286              		.loc 1 888 13 view .LVU371
 888:Drivers/STM32U0xx_HAL_Driver/Src/stm32u0xx_hal_rcc_ex.c ****             {
 1287              		.loc 1 888 17 is_stmt 0 view .LVU372
 1288 00ba 924C     		ldr	r4, .L362+12
 1289              	.LVL66:
 1290              	.L331:
 888:Drivers/STM32U0xx_HAL_Driver/Src/stm32u0xx_hal_rcc_ex.c ****             {
 1291              		.loc 1 888 17 view .LVU373
 1292 00bc 9421     		movs	r1, #148
 1293 00be 7BE0     		b	.L334
 1294              	.LVL67:
 1295              	.L360:
 532:Drivers/STM32U0xx_HAL_Driver/Src/stm32u0xx_hal_rcc_ex.c ****     {
 1296              		.loc 1 532 5 view .LVU374
 1297 00c0 8023     		movs	r3, #128
 1298 00c2 9B01     		lsls	r3, r3, #6
 1299 00c4 9842     		cmp	r0, r3
 1300 00c6 C5D1     		bne	.L213
1013:Drivers/STM32U0xx_HAL_Driver/Src/stm32u0xx_hal_rcc_ex.c ****         switch (srcclk)
 1301              		.loc 1 1013 9 is_stmt 1 view .LVU375
1013:Drivers/STM32U0xx_HAL_Driver/Src/stm32u0xx_hal_rcc_ex.c ****         switch (srcclk)
 1302              		.loc 1 1013 18 is_stmt 0 view .LVU376
 1303 00c8 8823     		movs	r3, #136
 1304 00ca 8E4A     		ldr	r2, .L362+12
 1305 00cc 8021     		movs	r1, #128
 1306 00ce D358     		ldr	r3, [r2, r3]
1013:Drivers/STM32U0xx_HAL_Driver/Src/stm32u0xx_hal_rcc_ex.c ****         switch (srcclk)
 1307              		.loc 1 1013 16 view .LVU377
 1308 00d0 C022     		movs	r2, #192
 1309 00d2 1205     		lsls	r2, r2, #20
 1310 00d4 1340     		ands	r3, r2
 1311              	.LVL68:
1014:Drivers/STM32U0xx_HAL_Driver/Src/stm32u0xx_hal_rcc_ex.c ****         {
 1312              		.loc 1 1014 9 is_stmt 1 view .LVU378
 1313 00d6 0905     		lsls	r1, r1, #20
 1314 00d8 8B42     		cmp	r3, r1
 1315 00da 00D1     		bne	.LCB1167
 1316 00dc 98E0     		b	.L200	@long jump
 1317              	.LCB1167:
 1318 00de 9342     		cmp	r3, r2
 1319 00e0 00D1     		bne	.LCB1169
 1320 00e2 67E1     		b	.L219	@long jump
 1321              	.LCB1169:
 1322 00e4 8022     		movs	r2, #128
 1323 00e6 0020     		movs	r0, #0
 1324              	.LVL69:
ARM GAS  C:\Users\upo\AppData\Local\Temp\ccMLO1b7.s 			page 47


1014:Drivers/STM32U0xx_HAL_Driver/Src/stm32u0xx_hal_rcc_ex.c ****         {
 1325              		.loc 1 1014 9 is_stmt 0 view .LVU379
 1326 00e8 D204     		lsls	r2, r2, #19
 1327 00ea 9342     		cmp	r3, r2
 1328 00ec B3D1     		bne	.L142
1020:Drivers/STM32U0xx_HAL_Driver/Src/stm32u0xx_hal_rcc_ex.c ****             {
 1329              		.loc 1 1020 13 is_stmt 1 view .LVU380
1020:Drivers/STM32U0xx_HAL_Driver/Src/stm32u0xx_hal_rcc_ex.c ****             {
 1330              		.loc 1 1020 17 is_stmt 0 view .LVU381
 1331 00ee 8549     		ldr	r1, .L362+12
 1332              	.L355:
1020:Drivers/STM32U0xx_HAL_Driver/Src/stm32u0xx_hal_rcc_ex.c ****             {
 1333              		.loc 1 1020 17 view .LVU382
 1334 00f0 0222     		movs	r2, #2
 1335 00f2 1000     		movs	r0, r2
 1336 00f4 0B68     		ldr	r3, [r1]
 1337              	.LVL70:
1020:Drivers/STM32U0xx_HAL_Driver/Src/stm32u0xx_hal_rcc_ex.c ****             {
 1338              		.loc 1 1020 17 view .LVU383
 1339 00f6 1840     		ands	r0, r3
1020:Drivers/STM32U0xx_HAL_Driver/Src/stm32u0xx_hal_rcc_ex.c ****             {
 1340              		.loc 1 1020 16 view .LVU384
 1341 00f8 1A42     		tst	r2, r3
 1342 00fa ACD0     		beq	.L142
1022:Drivers/STM32U0xx_HAL_Driver/Src/stm32u0xx_hal_rcc_ex.c ****               if (msirange > 11U)
 1343              		.loc 1 1022 15 is_stmt 1 view .LVU385
1022:Drivers/STM32U0xx_HAL_Driver/Src/stm32u0xx_hal_rcc_ex.c ****               if (msirange > 11U)
 1344              		.loc 1 1022 27 is_stmt 0 view .LVU386
 1345 00fc 0B68     		ldr	r3, [r1]
1022:Drivers/STM32U0xx_HAL_Driver/Src/stm32u0xx_hal_rcc_ex.c ****               if (msirange > 11U)
 1346              		.loc 1 1022 53 view .LVU387
 1347 00fe 1B07     		lsls	r3, r3, #28
 1348 0100 00D4     		bmi	.LCB1193
 1349 0102 60E1     		b	.L207	@long jump
 1350              	.LCB1193:
1022:Drivers/STM32U0xx_HAL_Driver/Src/stm32u0xx_hal_rcc_ex.c ****               if (msirange > 11U)
 1351              		.loc 1 1022 27 discriminator 1 view .LVU388
 1352 0104 0B68     		ldr	r3, [r1]
1022:Drivers/STM32U0xx_HAL_Driver/Src/stm32u0xx_hal_rcc_ex.c ****               if (msirange > 11U)
 1353              		.loc 1 1022 53 discriminator 1 view .LVU389
 1354 0106 1B06     		lsls	r3, r3, #24
 1355 0108 1B0F     		lsrs	r3, r3, #28
 1356              	.L208:
 1357              	.LVL71:
1023:Drivers/STM32U0xx_HAL_Driver/Src/stm32u0xx_hal_rcc_ex.c ****               {
 1358              		.loc 1 1023 15 is_stmt 1 discriminator 4 view .LVU390
1027:Drivers/STM32U0xx_HAL_Driver/Src/stm32u0xx_hal_rcc_ex.c ****             }
 1359              		.loc 1 1027 15 discriminator 4 view .LVU391
1027:Drivers/STM32U0xx_HAL_Driver/Src/stm32u0xx_hal_rcc_ex.c ****             }
 1360              		.loc 1 1027 25 is_stmt 0 discriminator 4 view .LVU392
 1361 010a 7F4A     		ldr	r2, .L362+16
1023:Drivers/STM32U0xx_HAL_Driver/Src/stm32u0xx_hal_rcc_ex.c ****               {
 1362              		.loc 1 1023 18 discriminator 4 view .LVU393
 1363 010c 0B2B     		cmp	r3, #11
 1364 010e 00D9     		bls	.L209
 1365 0110 0B23     		movs	r3, #11
 1366              	.LVL72:
ARM GAS  C:\Users\upo\AppData\Local\Temp\ccMLO1b7.s 			page 48


 1367              	.L209:
1027:Drivers/STM32U0xx_HAL_Driver/Src/stm32u0xx_hal_rcc_ex.c ****             }
 1368              		.loc 1 1027 25 discriminator 4 view .LVU394
 1369 0112 9B00     		lsls	r3, r3, #2
 1370 0114 9858     		ldr	r0, [r3, r2]
 1371              	.LVL73:
1027:Drivers/STM32U0xx_HAL_Driver/Src/stm32u0xx_hal_rcc_ex.c ****             }
 1372              		.loc 1 1027 25 discriminator 4 view .LVU395
 1373 0116 9EE7     		b	.L142
 1374              	.LVL74:
 1375              	.L361:
 532:Drivers/STM32U0xx_HAL_Driver/Src/stm32u0xx_hal_rcc_ex.c ****     {
 1376              		.loc 1 532 5 view .LVU396
 1377 0118 8022     		movs	r2, #128
 1378 011a 9200     		lsls	r2, r2, #2
 1379 011c 9042     		cmp	r0, r2
 1380 011e 99D1     		bne	.L213
 880:Drivers/STM32U0xx_HAL_Driver/Src/stm32u0xx_hal_rcc_ex.c **** 
 1381              		.loc 1 880 9 is_stmt 1 view .LVU397
 880:Drivers/STM32U0xx_HAL_Driver/Src/stm32u0xx_hal_rcc_ex.c **** 
 1382              		.loc 1 880 18 is_stmt 0 view .LVU398
 1383 0120 8822     		movs	r2, #136
 880:Drivers/STM32U0xx_HAL_Driver/Src/stm32u0xx_hal_rcc_ex.c **** 
 1384              		.loc 1 880 16 view .LVU399
 1385 0122 C021     		movs	r1, #192
 880:Drivers/STM32U0xx_HAL_Driver/Src/stm32u0xx_hal_rcc_ex.c **** 
 1386              		.loc 1 880 18 view .LVU400
 1387 0124 7748     		ldr	r0, .L362+12
 1388              	.LVL75:
 880:Drivers/STM32U0xx_HAL_Driver/Src/stm32u0xx_hal_rcc_ex.c **** 
 1389              		.loc 1 880 16 view .LVU401
 1390 0126 0904     		lsls	r1, r1, #16
 880:Drivers/STM32U0xx_HAL_Driver/Src/stm32u0xx_hal_rcc_ex.c **** 
 1391              		.loc 1 880 18 view .LVU402
 1392 0128 8258     		ldr	r2, [r0, r2]
 880:Drivers/STM32U0xx_HAL_Driver/Src/stm32u0xx_hal_rcc_ex.c **** 
 1393              		.loc 1 880 16 view .LVU403
 1394 012a 0A40     		ands	r2, r1
 1395              	.LVL76:
 882:Drivers/STM32U0xx_HAL_Driver/Src/stm32u0xx_hal_rcc_ex.c ****         {
 1396              		.loc 1 882 9 is_stmt 1 view .LVU404
 1397 012c 8021     		movs	r1, #128
 1398 012e 0904     		lsls	r1, r1, #16
 1399 0130 8A42     		cmp	r2, r1
 1400 0132 00D1     		bne	.LCB1239
 1401 0134 D8E0     		b	.L195	@long jump
 1402              	.LCB1239:
 1403 0136 00D9     		bls	.LCB1241
 1404 0138 00E1     		b	.L196	@long jump
 1405              	.LCB1241:
 1406 013a 002A     		cmp	r2, #0
 1407 013c 2ED0     		beq	.L325
 1408 013e 8023     		movs	r3, #128
 1409 0140 DB03     		lsls	r3, r3, #15
 1410 0142 9A42     		cmp	r2, r3
 1411 0144 00D0     		beq	.LCB1247
 1412 0146 85E7     		b	.L213	@long jump
ARM GAS  C:\Users\upo\AppData\Local\Temp\ccMLO1b7.s 			page 49


 1413              	.LCB1247:
 888:Drivers/STM32U0xx_HAL_Driver/Src/stm32u0xx_hal_rcc_ex.c ****             {
 1414              		.loc 1 888 13 view .LVU405
 888:Drivers/STM32U0xx_HAL_Driver/Src/stm32u0xx_hal_rcc_ex.c ****             {
 1415              		.loc 1 888 17 is_stmt 0 view .LVU406
 1416 0148 6E4C     		ldr	r4, .L362+12
 1417 014a B7E7     		b	.L331
 1418              	.LVL77:
 1419              	.L358:
 490:Drivers/STM32U0xx_HAL_Driver/Src/stm32u0xx_hal_rcc_ex.c **** 
 1420              		.loc 1 490 5 is_stmt 1 view .LVU407
 490:Drivers/STM32U0xx_HAL_Driver/Src/stm32u0xx_hal_rcc_ex.c **** 
 1421              		.loc 1 490 14 is_stmt 0 view .LVU408
 1422 014c 9024     		movs	r4, #144
 490:Drivers/STM32U0xx_HAL_Driver/Src/stm32u0xx_hal_rcc_ex.c **** 
 1423              		.loc 1 490 12 view .LVU409
 1424 014e C022     		movs	r2, #192
 492:Drivers/STM32U0xx_HAL_Driver/Src/stm32u0xx_hal_rcc_ex.c ****     {
 1425              		.loc 1 492 5 view .LVU410
 1426 0150 8020     		movs	r0, #128
 1427              	.LVL78:
 490:Drivers/STM32U0xx_HAL_Driver/Src/stm32u0xx_hal_rcc_ex.c **** 
 1428              		.loc 1 490 14 view .LVU411
 1429 0152 6C49     		ldr	r1, .L362+12
 490:Drivers/STM32U0xx_HAL_Driver/Src/stm32u0xx_hal_rcc_ex.c **** 
 1430              		.loc 1 490 12 view .LVU412
 1431 0154 9200     		lsls	r2, r2, #2
 490:Drivers/STM32U0xx_HAL_Driver/Src/stm32u0xx_hal_rcc_ex.c **** 
 1432              		.loc 1 490 14 view .LVU413
 1433 0156 0B59     		ldr	r3, [r1, r4]
 492:Drivers/STM32U0xx_HAL_Driver/Src/stm32u0xx_hal_rcc_ex.c ****     {
 1434              		.loc 1 492 5 view .LVU414
 1435 0158 8000     		lsls	r0, r0, #2
 490:Drivers/STM32U0xx_HAL_Driver/Src/stm32u0xx_hal_rcc_ex.c **** 
 1436              		.loc 1 490 12 view .LVU415
 1437 015a 1340     		ands	r3, r2
 1438              	.LVL79:
 492:Drivers/STM32U0xx_HAL_Driver/Src/stm32u0xx_hal_rcc_ex.c ****     {
 1439              		.loc 1 492 5 is_stmt 1 view .LVU416
 1440 015c 8342     		cmp	r3, r0
 1441 015e 2AD0     		beq	.L144
 1442 0160 9342     		cmp	r3, r2
 1443 0162 1ED0     		beq	.L145
 1444 0164 8022     		movs	r2, #128
 1445 0166 0020     		movs	r0, #0
 1446 0168 5200     		lsls	r2, r2, #1
 1447 016a 9342     		cmp	r3, r2
 1448 016c 00D0     		beq	.LCB1276
 1449 016e 72E7     		b	.L142	@long jump
 1450              	.LCB1276:
 496:Drivers/STM32U0xx_HAL_Driver/Src/stm32u0xx_hal_rcc_ex.c ****         {
 1451              		.loc 1 496 9 view .LVU417
 496:Drivers/STM32U0xx_HAL_Driver/Src/stm32u0xx_hal_rcc_ex.c ****         {
 1452              		.loc 1 496 13 is_stmt 0 view .LVU418
 1453 0170 0859     		ldr	r0, [r1, r4]
 496:Drivers/STM32U0xx_HAL_Driver/Src/stm32u0xx_hal_rcc_ex.c ****         {
 1454              		.loc 1 496 12 view .LVU419
ARM GAS  C:\Users\upo\AppData\Local\Temp\ccMLO1b7.s 			page 50


 1455 0172 8007     		lsls	r0, r0, #30
 1456 0174 C00F     		lsrs	r0, r0, #31
 1457 0176 C003     		lsls	r0, r0, #15
 1458 0178 6DE7     		b	.L142
 1459              	.LVL80:
 1460              	.L157:
 764:Drivers/STM32U0xx_HAL_Driver/Src/stm32u0xx_hal_rcc_ex.c **** 
 1461              		.loc 1 764 9 is_stmt 1 view .LVU420
 764:Drivers/STM32U0xx_HAL_Driver/Src/stm32u0xx_hal_rcc_ex.c **** 
 1462              		.loc 1 764 18 is_stmt 0 view .LVU421
 1463 017a 8823     		movs	r3, #136
 764:Drivers/STM32U0xx_HAL_Driver/Src/stm32u0xx_hal_rcc_ex.c **** 
 1464              		.loc 1 764 16 view .LVU422
 1465 017c C021     		movs	r1, #192
 764:Drivers/STM32U0xx_HAL_Driver/Src/stm32u0xx_hal_rcc_ex.c **** 
 1466              		.loc 1 764 18 view .LVU423
 1467 017e 614A     		ldr	r2, .L362+12
 764:Drivers/STM32U0xx_HAL_Driver/Src/stm32u0xx_hal_rcc_ex.c **** 
 1468              		.loc 1 764 16 view .LVU424
 1469 0180 8902     		lsls	r1, r1, #10
 764:Drivers/STM32U0xx_HAL_Driver/Src/stm32u0xx_hal_rcc_ex.c **** 
 1470              		.loc 1 764 18 view .LVU425
 1471 0182 D358     		ldr	r3, [r2, r3]
 764:Drivers/STM32U0xx_HAL_Driver/Src/stm32u0xx_hal_rcc_ex.c **** 
 1472              		.loc 1 764 16 view .LVU426
 1473 0184 0B40     		ands	r3, r1
 1474              	.LVL81:
 766:Drivers/STM32U0xx_HAL_Driver/Src/stm32u0xx_hal_rcc_ex.c ****         {
 1475              		.loc 1 766 9 is_stmt 1 view .LVU427
 1476 0186 8021     		movs	r1, #128
 1477 0188 4902     		lsls	r1, r1, #9
 1478 018a 8B42     		cmp	r3, r1
 1479 018c 37D0     		beq	.L170
 1480 018e 8021     		movs	r1, #128
 1481 0190 8902     		lsls	r1, r1, #10
 1482 0192 8B42     		cmp	r3, r1
 1483 0194 5CD0     		beq	.L186
 1484              	.LVL82:
 1485              	.L350:
 766:Drivers/STM32U0xx_HAL_Driver/Src/stm32u0xx_hal_rcc_ex.c ****         {
 1486              		.loc 1 766 9 is_stmt 0 view .LVU428
 1487 0196 002B     		cmp	r3, #0
 1488 0198 00D0     		beq	.LCB1310
 1489 019a 5BE7     		b	.L213	@long jump
 1490              	.LCB1310:
 1491              	.LVL83:
 1492              	.L325:
 931:Drivers/STM32U0xx_HAL_Driver/Src/stm32u0xx_hal_rcc_ex.c ****             }
 1493              		.loc 1 931 15 is_stmt 1 view .LVU429
 931:Drivers/STM32U0xx_HAL_Driver/Src/stm32u0xx_hal_rcc_ex.c ****             }
 1494              		.loc 1 931 27 is_stmt 0 view .LVU430
 1495 019c FFF7FEFF 		bl	HAL_RCC_GetPCLK1Freq
 1496              	.LVL84:
 931:Drivers/STM32U0xx_HAL_Driver/Src/stm32u0xx_hal_rcc_ex.c ****             }
 1497              		.loc 1 931 27 view .LVU431
 1498 01a0 59E7     		b	.L142
 1499              	.LVL85:
ARM GAS  C:\Users\upo\AppData\Local\Temp\ccMLO1b7.s 			page 51


 1500              	.L145:
 519:Drivers/STM32U0xx_HAL_Driver/Src/stm32u0xx_hal_rcc_ex.c ****         {
 1501              		.loc 1 519 9 is_stmt 1 view .LVU432
 519:Drivers/STM32U0xx_HAL_Driver/Src/stm32u0xx_hal_rcc_ex.c ****         {
 1502              		.loc 1 519 13 is_stmt 0 view .LVU433
 1503 01a2 0A68     		ldr	r2, [r1]
 1504 01a4 8023     		movs	r3, #128
 1505              	.LVL86:
 519:Drivers/STM32U0xx_HAL_Driver/Src/stm32u0xx_hal_rcc_ex.c ****         {
 1506              		.loc 1 519 13 view .LVU434
 1507 01a6 1000     		movs	r0, r2
 1508 01a8 9B02     		lsls	r3, r3, #10
 1509 01aa 1840     		ands	r0, r3
 519:Drivers/STM32U0xx_HAL_Driver/Src/stm32u0xx_hal_rcc_ex.c ****         {
 1510              		.loc 1 519 12 view .LVU435
 1511 01ac 1A42     		tst	r2, r3
 1512 01ae 00D1     		bne	.LCB1330
 1513 01b0 51E7     		b	.L142	@long jump
 1514              	.LCB1330:
 521:Drivers/STM32U0xx_HAL_Driver/Src/stm32u0xx_hal_rcc_ex.c ****         }
 1515              		.loc 1 521 21 view .LVU436
 1516 01b2 5648     		ldr	r0, .L362+20
 1517 01b4 4FE7     		b	.L142
 1518              	.LVL87:
 1519              	.L144:
 503:Drivers/STM32U0xx_HAL_Driver/Src/stm32u0xx_hal_rcc_ex.c ****         {
 1520              		.loc 1 503 9 is_stmt 1 view .LVU437
 503:Drivers/STM32U0xx_HAL_Driver/Src/stm32u0xx_hal_rcc_ex.c ****         {
 1521              		.loc 1 503 13 is_stmt 0 view .LVU438
 1522 01b6 9424     		movs	r4, #148
 1523              	.LVL88:
 1524              	.L334:
 888:Drivers/STM32U0xx_HAL_Driver/Src/stm32u0xx_hal_rcc_ex.c ****             {
 1525              		.loc 1 888 17 view .LVU439
 1526 01b8 0222     		movs	r2, #2
 1527 01ba 1000     		movs	r0, r2
 1528 01bc 6358     		ldr	r3, [r4, r1]
 1529 01be 1840     		ands	r0, r3
 888:Drivers/STM32U0xx_HAL_Driver/Src/stm32u0xx_hal_rcc_ex.c ****             {
 1530              		.loc 1 888 16 view .LVU440
 1531 01c0 1A42     		tst	r2, r3
 1532 01c2 00D1     		bne	.LCB1347
 1533 01c4 47E7     		b	.L142	@long jump
 1534              	.LCB1347:
 891:Drivers/STM32U0xx_HAL_Driver/Src/stm32u0xx_hal_rcc_ex.c ****               {
 1535              		.loc 1 891 15 is_stmt 1 view .LVU441
 891:Drivers/STM32U0xx_HAL_Driver/Src/stm32u0xx_hal_rcc_ex.c ****               {
 1536              		.loc 1 891 19 is_stmt 0 view .LVU442
 1537 01c6 0420     		movs	r0, #4
 1538 01c8 6358     		ldr	r3, [r4, r1]
 1539 01ca 1840     		ands	r0, r3
 508:Drivers/STM32U0xx_HAL_Driver/Src/stm32u0xx_hal_rcc_ex.c ****           }
 1540              		.loc 1 508 23 view .LVU443
 1541 01cc 4342     		rsbs	r3, r0, #0
 1542 01ce 5841     		adcs	r0, r0, r3
 1543 01d0 4F4B     		ldr	r3, .L362+24
 1544 01d2 4042     		rsbs	r0, r0, #0
ARM GAS  C:\Users\upo\AppData\Local\Temp\ccMLO1b7.s 			page 52


 1545 01d4 1840     		ands	r0, r3
 1546 01d6 FA30     		adds	r0, r0, #250
 1547 01d8 3DE7     		b	.L142
 1548              	.LVL89:
 1549              	.L164:
 705:Drivers/STM32U0xx_HAL_Driver/Src/stm32u0xx_hal_rcc_ex.c **** 
 1550              		.loc 1 705 9 is_stmt 1 view .LVU444
 705:Drivers/STM32U0xx_HAL_Driver/Src/stm32u0xx_hal_rcc_ex.c **** 
 1551              		.loc 1 705 18 is_stmt 0 view .LVU445
 1552 01da 8823     		movs	r3, #136
 705:Drivers/STM32U0xx_HAL_Driver/Src/stm32u0xx_hal_rcc_ex.c **** 
 1553              		.loc 1 705 16 view .LVU446
 1554 01dc C021     		movs	r1, #192
 705:Drivers/STM32U0xx_HAL_Driver/Src/stm32u0xx_hal_rcc_ex.c **** 
 1555              		.loc 1 705 18 view .LVU447
 1556 01de 494A     		ldr	r2, .L362+12
 705:Drivers/STM32U0xx_HAL_Driver/Src/stm32u0xx_hal_rcc_ex.c **** 
 1557              		.loc 1 705 16 view .LVU448
 1558 01e0 8905     		lsls	r1, r1, #22
 705:Drivers/STM32U0xx_HAL_Driver/Src/stm32u0xx_hal_rcc_ex.c **** 
 1559              		.loc 1 705 18 view .LVU449
 1560 01e2 D358     		ldr	r3, [r2, r3]
 705:Drivers/STM32U0xx_HAL_Driver/Src/stm32u0xx_hal_rcc_ex.c **** 
 1561              		.loc 1 705 16 view .LVU450
 1562 01e4 0B40     		ands	r3, r1
 1563              	.LVL90:
 707:Drivers/STM32U0xx_HAL_Driver/Src/stm32u0xx_hal_rcc_ex.c ****         {
 1564              		.loc 1 707 9 is_stmt 1 view .LVU451
 1565 01e6 8021     		movs	r1, #128
 1566 01e8 4905     		lsls	r1, r1, #21
 1567 01ea 8B42     		cmp	r3, r1
 1568 01ec 00D1     		bne	.LCB1374
 1569 01ee E3E0     		b	.L183	@long jump
 1570              	.LCB1374:
 1571 01f0 8021     		movs	r1, #128
 1572 01f2 8905     		lsls	r1, r1, #22
 1573 01f4 8B42     		cmp	r3, r1
 1574 01f6 2BD0     		beq	.L186
 1575 01f8 002B     		cmp	r3, #0
 1576 01fa 00D0     		beq	.LCB1380
 1577 01fc 2AE7     		b	.L213	@long jump
 1578              	.LCB1380:
 1579              	.LVL91:
 1580              	.L170:
 545:Drivers/STM32U0xx_HAL_Driver/Src/stm32u0xx_hal_rcc_ex.c ****             break;
 1581              		.loc 1 545 13 view .LVU452
 545:Drivers/STM32U0xx_HAL_Driver/Src/stm32u0xx_hal_rcc_ex.c ****             break;
 1582              		.loc 1 545 25 is_stmt 0 view .LVU453
 1583 01fe FFF7FEFF 		bl	HAL_RCC_GetSysClockFreq
 1584              	.LVL92:
 546:Drivers/STM32U0xx_HAL_Driver/Src/stm32u0xx_hal_rcc_ex.c ****           case RCC_USART1CLKSOURCE_HSI:
 1585              		.loc 1 546 13 is_stmt 1 view .LVU454
 1586 0202 28E7     		b	.L142
 1587              	.LVL93:
 1588              	.L161:
 925:Drivers/STM32U0xx_HAL_Driver/Src/stm32u0xx_hal_rcc_ex.c ****         switch (srcclk)
 1589              		.loc 1 925 9 view .LVU455
ARM GAS  C:\Users\upo\AppData\Local\Temp\ccMLO1b7.s 			page 53


 925:Drivers/STM32U0xx_HAL_Driver/Src/stm32u0xx_hal_rcc_ex.c ****         switch (srcclk)
 1590              		.loc 1 925 18 is_stmt 0 view .LVU456
 1591 0204 8823     		movs	r3, #136
 1592 0206 3F4A     		ldr	r2, .L362+12
 1593 0208 D358     		ldr	r3, [r2, r3]
 1594              	.LVL94:
 926:Drivers/STM32U0xx_HAL_Driver/Src/stm32u0xx_hal_rcc_ex.c ****         {
 1595              		.loc 1 926 9 is_stmt 1 view .LVU457
 1596 020a DB01     		lsls	r3, r3, #7
 1597 020c 00D4     		bmi	.LCB1405
 1598 020e 33E7     		b	.L322	@long jump
 1599              	.LCB1405:
 1600              	.LVL95:
 1601              	.L200:
 939:Drivers/STM32U0xx_HAL_Driver/Src/stm32u0xx_hal_rcc_ex.c ****             frequency = pll_freq.PLL_Q_Frequency;
 1602              		.loc 1 939 13 view .LVU458
 1603 0210 01A8     		add	r0, sp, #4
 1604 0212 FFF7FEFF 		bl	HAL_RCCEx_GetPLLClockFreq
 1605              	.LVL96:
 940:Drivers/STM32U0xx_HAL_Driver/Src/stm32u0xx_hal_rcc_ex.c ****             break;
 1606              		.loc 1 940 13 view .LVU459
 940:Drivers/STM32U0xx_HAL_Driver/Src/stm32u0xx_hal_rcc_ex.c ****             break;
 1607              		.loc 1 940 23 is_stmt 0 view .LVU460
 1608 0216 0298     		ldr	r0, [sp, #8]
 1609              	.LVL97:
 941:Drivers/STM32U0xx_HAL_Driver/Src/stm32u0xx_hal_rcc_ex.c ****           default:
 1610              		.loc 1 941 13 is_stmt 1 view .LVU461
 1611 0218 1DE7     		b	.L142
 1612              	.LVL98:
 1613              	.L156:
 537:Drivers/STM32U0xx_HAL_Driver/Src/stm32u0xx_hal_rcc_ex.c **** 
 1614              		.loc 1 537 9 view .LVU462
 537:Drivers/STM32U0xx_HAL_Driver/Src/stm32u0xx_hal_rcc_ex.c **** 
 1615              		.loc 1 537 18 is_stmt 0 view .LVU463
 1616 021a 8823     		movs	r3, #136
 1617 021c 394A     		ldr	r2, .L362+12
 1618 021e D158     		ldr	r1, [r2, r3]
 537:Drivers/STM32U0xx_HAL_Driver/Src/stm32u0xx_hal_rcc_ex.c **** 
 1619              		.loc 1 537 16 view .LVU464
 1620 0220 853B     		subs	r3, r3, #133
 1621 0222 0B40     		ands	r3, r1
 1622              	.LVL99:
 539:Drivers/STM32U0xx_HAL_Driver/Src/stm32u0xx_hal_rcc_ex.c ****         {
 1623              		.loc 1 539 9 is_stmt 1 view .LVU465
 1624 0224 022B     		cmp	r3, #2
 1625 0226 13D0     		beq	.L186
 1626 0228 032B     		cmp	r3, #3
 1627 022a 00D1     		bne	.LCB1434
 1628 022c 80E0     		b	.L328	@long jump
 1629              	.LCB1434:
 1630 022e 012B     		cmp	r3, #1
 1631 0230 B4D1     		bne	.L325
 1632 0232 E4E7     		b	.L170
 1633              	.LVL100:
 1634              	.L150:
 737:Drivers/STM32U0xx_HAL_Driver/Src/stm32u0xx_hal_rcc_ex.c **** 
 1635              		.loc 1 737 9 view .LVU466
ARM GAS  C:\Users\upo\AppData\Local\Temp\ccMLO1b7.s 			page 54


 737:Drivers/STM32U0xx_HAL_Driver/Src/stm32u0xx_hal_rcc_ex.c **** 
 1636              		.loc 1 737 18 is_stmt 0 view .LVU467
 1637 0234 8823     		movs	r3, #136
 737:Drivers/STM32U0xx_HAL_Driver/Src/stm32u0xx_hal_rcc_ex.c **** 
 1638              		.loc 1 737 16 view .LVU468
 1639 0236 C021     		movs	r1, #192
 737:Drivers/STM32U0xx_HAL_Driver/Src/stm32u0xx_hal_rcc_ex.c **** 
 1640              		.loc 1 737 18 view .LVU469
 1641 0238 324A     		ldr	r2, .L362+12
 737:Drivers/STM32U0xx_HAL_Driver/Src/stm32u0xx_hal_rcc_ex.c **** 
 1642              		.loc 1 737 16 view .LVU470
 1643 023a 8901     		lsls	r1, r1, #6
 737:Drivers/STM32U0xx_HAL_Driver/Src/stm32u0xx_hal_rcc_ex.c **** 
 1644              		.loc 1 737 18 view .LVU471
 1645 023c D358     		ldr	r3, [r2, r3]
 737:Drivers/STM32U0xx_HAL_Driver/Src/stm32u0xx_hal_rcc_ex.c **** 
 1646              		.loc 1 737 16 view .LVU472
 1647 023e 0B40     		ands	r3, r1
 1648              	.LVL101:
 739:Drivers/STM32U0xx_HAL_Driver/Src/stm32u0xx_hal_rcc_ex.c ****         {
 1649              		.loc 1 739 9 is_stmt 1 view .LVU473
 1650 0240 8021     		movs	r1, #128
 1651 0242 4901     		lsls	r1, r1, #5
 1652 0244 8B42     		cmp	r3, r1
 1653 0246 DAD0     		beq	.L170
 1654 0248 8021     		movs	r1, #128
 1655 024a 8901     		lsls	r1, r1, #6
 1656 024c 8B42     		cmp	r3, r1
 1657 024e A2D1     		bne	.L350
 1658              	.L186:
 775:Drivers/STM32U0xx_HAL_Driver/Src/stm32u0xx_hal_rcc_ex.c ****             {
 1659              		.loc 1 775 13 view .LVU474
 775:Drivers/STM32U0xx_HAL_Driver/Src/stm32u0xx_hal_rcc_ex.c ****             {
 1660              		.loc 1 775 17 is_stmt 0 view .LVU475
 1661 0250 1268     		ldr	r2, [r2]
 1662              	.L338:
 859:Drivers/STM32U0xx_HAL_Driver/Src/stm32u0xx_hal_rcc_ex.c ****             {
 1663              		.loc 1 859 17 view .LVU476
 1664 0252 8023     		movs	r3, #128
 1665              	.LVL102:
 859:Drivers/STM32U0xx_HAL_Driver/Src/stm32u0xx_hal_rcc_ex.c ****             {
 1666              		.loc 1 859 17 view .LVU477
 1667 0254 1000     		movs	r0, r2
 1668 0256 DB00     		lsls	r3, r3, #3
 1669 0258 1840     		ands	r0, r3
 859:Drivers/STM32U0xx_HAL_Driver/Src/stm32u0xx_hal_rcc_ex.c ****             {
 1670              		.loc 1 859 16 view .LVU478
 1671 025a 1A42     		tst	r2, r3
 1672 025c 00D1     		bne	.LCB1472
 1673 025e FAE6     		b	.L142	@long jump
 1674              	.LCB1472:
 1675              	.LVL103:
 1676              	.L327:
 550:Drivers/STM32U0xx_HAL_Driver/Src/stm32u0xx_hal_rcc_ex.c ****             }
 1677              		.loc 1 550 25 view .LVU479
 1678 0260 2C48     		ldr	r0, .L362+28
 1679 0262 F8E6     		b	.L142
ARM GAS  C:\Users\upo\AppData\Local\Temp\ccMLO1b7.s 			page 55


 1680              	.L155:
 570:Drivers/STM32U0xx_HAL_Driver/Src/stm32u0xx_hal_rcc_ex.c **** 
 1681              		.loc 1 570 9 is_stmt 1 view .LVU480
 570:Drivers/STM32U0xx_HAL_Driver/Src/stm32u0xx_hal_rcc_ex.c **** 
 1682              		.loc 1 570 18 is_stmt 0 view .LVU481
 1683 0264 8823     		movs	r3, #136
 1684 0266 274A     		ldr	r2, .L362+12
 1685 0268 D158     		ldr	r1, [r2, r3]
 570:Drivers/STM32U0xx_HAL_Driver/Src/stm32u0xx_hal_rcc_ex.c **** 
 1686              		.loc 1 570 16 view .LVU482
 1687 026a 7C3B     		subs	r3, r3, #124
 1688 026c 0B40     		ands	r3, r1
 1689              	.LVL104:
 572:Drivers/STM32U0xx_HAL_Driver/Src/stm32u0xx_hal_rcc_ex.c ****         {
 1690              		.loc 1 572 9 is_stmt 1 view .LVU483
 1691 026e 082B     		cmp	r3, #8
 1692 0270 EED0     		beq	.L186
 1693 0272 6AD8     		bhi	.L172
 1694 0274 002B     		cmp	r3, #0
 1695 0276 91D0     		beq	.L325
 1696 0278 042B     		cmp	r3, #4
 1697 027a C0D0     		beq	.L170
 1698 027c EAE6     		b	.L213
 1699              	.LVL105:
 1700              	.L154:
 674:Drivers/STM32U0xx_HAL_Driver/Src/stm32u0xx_hal_rcc_ex.c **** 
 1701              		.loc 1 674 9 view .LVU484
 674:Drivers/STM32U0xx_HAL_Driver/Src/stm32u0xx_hal_rcc_ex.c **** 
 1702              		.loc 1 674 18 is_stmt 0 view .LVU485
 1703 027e 8823     		movs	r3, #136
 1704 0280 204A     		ldr	r2, .L362+12
 1705 0282 D158     		ldr	r1, [r2, r3]
 674:Drivers/STM32U0xx_HAL_Driver/Src/stm32u0xx_hal_rcc_ex.c **** 
 1706              		.loc 1 674 16 view .LVU486
 1707 0284 3833     		adds	r3, r3, #56
 1708 0286 0B40     		ands	r3, r1
 1709              	.LVL106:
 676:Drivers/STM32U0xx_HAL_Driver/Src/stm32u0xx_hal_rcc_ex.c ****         {
 1710              		.loc 1 676 9 is_stmt 1 view .LVU487
 1711 0288 802B     		cmp	r3, #128
 1712 028a E1D0     		beq	.L186
 1713 028c 4DD8     		bhi	.L181
 1714 028e 002B     		cmp	r3, #0
 1715 0290 84D0     		beq	.L325
 1716 0292 402B     		cmp	r3, #64
 1717 0294 B3D0     		beq	.L170
 1718 0296 DDE6     		b	.L213
 1719              	.LVL107:
 1720              	.L153:
 642:Drivers/STM32U0xx_HAL_Driver/Src/stm32u0xx_hal_rcc_ex.c **** 
 1721              		.loc 1 642 9 view .LVU488
 642:Drivers/STM32U0xx_HAL_Driver/Src/stm32u0xx_hal_rcc_ex.c **** 
 1722              		.loc 1 642 18 is_stmt 0 view .LVU489
 1723 0298 8823     		movs	r3, #136
 642:Drivers/STM32U0xx_HAL_Driver/Src/stm32u0xx_hal_rcc_ex.c **** 
 1724              		.loc 1 642 16 view .LVU490
 1725 029a C022     		movs	r2, #192
ARM GAS  C:\Users\upo\AppData\Local\Temp\ccMLO1b7.s 			page 56


 1726 029c 8021     		movs	r1, #128
 642:Drivers/STM32U0xx_HAL_Driver/Src/stm32u0xx_hal_rcc_ex.c **** 
 1727              		.loc 1 642 18 view .LVU491
 1728 029e 1948     		ldr	r0, .L362+12
 642:Drivers/STM32U0xx_HAL_Driver/Src/stm32u0xx_hal_rcc_ex.c **** 
 1729              		.loc 1 642 16 view .LVU492
 1730 02a0 9200     		lsls	r2, r2, #2
 642:Drivers/STM32U0xx_HAL_Driver/Src/stm32u0xx_hal_rcc_ex.c **** 
 1731              		.loc 1 642 18 view .LVU493
 1732 02a2 C358     		ldr	r3, [r0, r3]
 1733 02a4 8900     		lsls	r1, r1, #2
 642:Drivers/STM32U0xx_HAL_Driver/Src/stm32u0xx_hal_rcc_ex.c **** 
 1734              		.loc 1 642 16 view .LVU494
 1735 02a6 1340     		ands	r3, r2
 1736              	.LVL108:
 644:Drivers/STM32U0xx_HAL_Driver/Src/stm32u0xx_hal_rcc_ex.c ****         {
 1737              		.loc 1 644 9 is_stmt 1 view .LVU495
 1738 02a8 8B42     		cmp	r3, r1
 1739 02aa 1BD0     		beq	.L187
 1740 02ac 34D8     		bhi	.L188
 1741 02ae 002B     		cmp	r3, #0
 1742 02b0 00D1     		bne	.LCB1538
 1743 02b2 73E7     		b	.L325	@long jump
 1744              	.LCB1538:
 1745 02b4 8022     		movs	r2, #128
 1746 02b6 5200     		lsls	r2, r2, #1
 1747 02b8 9342     		cmp	r3, r2
 1748 02ba A0D0     		beq	.L170
 1749 02bc CAE6     		b	.L213
 1750              	.LVL109:
 1751              	.L152:
 611:Drivers/STM32U0xx_HAL_Driver/Src/stm32u0xx_hal_rcc_ex.c **** 
 1752              		.loc 1 611 9 view .LVU496
 611:Drivers/STM32U0xx_HAL_Driver/Src/stm32u0xx_hal_rcc_ex.c **** 
 1753              		.loc 1 611 18 is_stmt 0 view .LVU497
 1754 02be 8823     		movs	r3, #136
 611:Drivers/STM32U0xx_HAL_Driver/Src/stm32u0xx_hal_rcc_ex.c **** 
 1755              		.loc 1 611 16 view .LVU498
 1756 02c0 C022     		movs	r2, #192
 1757 02c2 8021     		movs	r1, #128
 611:Drivers/STM32U0xx_HAL_Driver/Src/stm32u0xx_hal_rcc_ex.c **** 
 1758              		.loc 1 611 18 view .LVU499
 1759 02c4 0F48     		ldr	r0, .L362+12
 611:Drivers/STM32U0xx_HAL_Driver/Src/stm32u0xx_hal_rcc_ex.c **** 
 1760              		.loc 1 611 16 view .LVU500
 1761 02c6 1201     		lsls	r2, r2, #4
 611:Drivers/STM32U0xx_HAL_Driver/Src/stm32u0xx_hal_rcc_ex.c **** 
 1762              		.loc 1 611 18 view .LVU501
 1763 02c8 C358     		ldr	r3, [r0, r3]
 1764 02ca 0901     		lsls	r1, r1, #4
 611:Drivers/STM32U0xx_HAL_Driver/Src/stm32u0xx_hal_rcc_ex.c **** 
 1765              		.loc 1 611 16 view .LVU502
 1766 02cc 1340     		ands	r3, r2
 1767              	.LVL110:
 613:Drivers/STM32U0xx_HAL_Driver/Src/stm32u0xx_hal_rcc_ex.c ****         {
 1768              		.loc 1 613 9 is_stmt 1 view .LVU503
 1769 02ce 8B42     		cmp	r3, r1
ARM GAS  C:\Users\upo\AppData\Local\Temp\ccMLO1b7.s 			page 57


 1770 02d0 08D0     		beq	.L187
 1771 02d2 21D8     		bhi	.L188
 1772 02d4 002B     		cmp	r3, #0
 1773 02d6 00D1     		bne	.LCB1564
 1774 02d8 60E7     		b	.L325	@long jump
 1775              	.LCB1564:
 1776 02da 8022     		movs	r2, #128
 1777 02dc D200     		lsls	r2, r2, #3
 1778 02de 9342     		cmp	r3, r2
 1779 02e0 8DD0     		beq	.L170
 1780 02e2 B7E6     		b	.L213
 1781              	.L187:
 814:Drivers/STM32U0xx_HAL_Driver/Src/stm32u0xx_hal_rcc_ex.c ****             {
 1782              		.loc 1 814 13 view .LVU504
 814:Drivers/STM32U0xx_HAL_Driver/Src/stm32u0xx_hal_rcc_ex.c ****             {
 1783              		.loc 1 814 17 is_stmt 0 view .LVU505
 1784 02e4 0268     		ldr	r2, [r0]
 1785 02e6 B4E7     		b	.L338
 1786              	.LVL111:
 1787              	.L195:
 903:Drivers/STM32U0xx_HAL_Driver/Src/stm32u0xx_hal_rcc_ex.c ****             {
 1788              		.loc 1 903 13 is_stmt 1 view .LVU506
 903:Drivers/STM32U0xx_HAL_Driver/Src/stm32u0xx_hal_rcc_ex.c ****             {
 1789              		.loc 1 903 17 is_stmt 0 view .LVU507
 1790 02e8 0268     		ldr	r2, [r0]
 1791              	.LVL112:
 903:Drivers/STM32U0xx_HAL_Driver/Src/stm32u0xx_hal_rcc_ex.c ****             {
 1792              		.loc 1 903 17 view .LVU508
 1793 02ea 1000     		movs	r0, r2
 1794 02ec 1840     		ands	r0, r3
 903:Drivers/STM32U0xx_HAL_Driver/Src/stm32u0xx_hal_rcc_ex.c ****             {
 1795              		.loc 1 903 16 view .LVU509
 1796 02ee 1A42     		tst	r2, r3
 1797 02f0 00D1     		bne	.LCB1587
 1798 02f2 B0E6     		b	.L142	@long jump
 1799              	.LCB1587:
 1800 02f4 B4E7     		b	.L327
 1801              	.L363:
 1802 02f6 C046     		.align	2
 1803              	.L362:
 1804 02f8 00000000 		.word	.L151
 1805 02fc 0000FFFF 		.word	-65536
 1806 0300 FFFFFEFF 		.word	-65537
 1807 0304 00100240 		.word	1073876992
 1808 0308 00000000 		.word	MSIRangeTable
 1809 030c 48E80100 		.word	125000
 1810 0310 067C0000 		.word	31750
 1811 0314 0024F400 		.word	16000000
 1812              	.LVL113:
 1813              	.L188:
 903:Drivers/STM32U0xx_HAL_Driver/Src/stm32u0xx_hal_rcc_ex.c ****             {
 1814              		.loc 1 903 16 view .LVU510
 1815 0318 9342     		cmp	r3, r2
 1816 031a 00D0     		beq	.LCB1607
 1817 031c 9AE6     		b	.L213	@long jump
 1818              	.LCB1607:
 820:Drivers/STM32U0xx_HAL_Driver/Src/stm32u0xx_hal_rcc_ex.c ****             {
ARM GAS  C:\Users\upo\AppData\Local\Temp\ccMLO1b7.s 			page 58


 1819              		.loc 1 820 13 is_stmt 1 view .LVU511
 820:Drivers/STM32U0xx_HAL_Driver/Src/stm32u0xx_hal_rcc_ex.c ****             {
 1820              		.loc 1 820 17 is_stmt 0 view .LVU512
 1821 031e 9023     		movs	r3, #144
 1822              	.LVL114:
 820:Drivers/STM32U0xx_HAL_Driver/Src/stm32u0xx_hal_rcc_ex.c ****             {
 1823              		.loc 1 820 17 view .LVU513
 1824 0320 C058     		ldr	r0, [r0, r3]
 820:Drivers/STM32U0xx_HAL_Driver/Src/stm32u0xx_hal_rcc_ex.c ****             {
 1825              		.loc 1 820 16 view .LVU514
 1826 0322 8007     		lsls	r0, r0, #30
 1827 0324 C00F     		lsrs	r0, r0, #31
 1828 0326 C003     		lsls	r0, r0, #15
 1829 0328 95E6     		b	.L142
 1830              	.LVL115:
 1831              	.L181:
 820:Drivers/STM32U0xx_HAL_Driver/Src/stm32u0xx_hal_rcc_ex.c ****             {
 1832              		.loc 1 820 16 view .LVU515
 1833 032a C02B     		cmp	r3, #192
 1834 032c 00D0     		beq	.LCB1622
 1835 032e 91E6     		b	.L213	@long jump
 1836              	.LCB1622:
 1837              	.LVL116:
 1838              	.L328:
 909:Drivers/STM32U0xx_HAL_Driver/Src/stm32u0xx_hal_rcc_ex.c ****             {
 1839              		.loc 1 909 17 view .LVU516
 1840 0330 9023     		movs	r3, #144
 1841 0332 D058     		ldr	r0, [r2, r3]
 909:Drivers/STM32U0xx_HAL_Driver/Src/stm32u0xx_hal_rcc_ex.c ****             {
 1842              		.loc 1 909 16 view .LVU517
 1843 0334 8007     		lsls	r0, r0, #30
 1844 0336 C00F     		lsrs	r0, r0, #31
 1845 0338 C003     		lsls	r0, r0, #15
 1846 033a 8CE6     		b	.L142
 1847              	.LVL117:
 1848              	.L196:
 909:Drivers/STM32U0xx_HAL_Driver/Src/stm32u0xx_hal_rcc_ex.c ****             {
 1849              		.loc 1 909 16 view .LVU518
 1850 033c C023     		movs	r3, #192
 1851 033e 1B04     		lsls	r3, r3, #16
 1852 0340 9A42     		cmp	r2, r3
 1853 0342 00D0     		beq	.LCB1639
 1854 0344 86E6     		b	.L213	@long jump
 1855              	.LCB1639:
 909:Drivers/STM32U0xx_HAL_Driver/Src/stm32u0xx_hal_rcc_ex.c ****             {
 1856              		.loc 1 909 13 is_stmt 1 view .LVU519
 909:Drivers/STM32U0xx_HAL_Driver/Src/stm32u0xx_hal_rcc_ex.c ****             {
 1857              		.loc 1 909 17 is_stmt 0 view .LVU520
 1858 0346 224A     		ldr	r2, .L364
 1859              	.LVL118:
 909:Drivers/STM32U0xx_HAL_Driver/Src/stm32u0xx_hal_rcc_ex.c ****             {
 1860              		.loc 1 909 17 view .LVU521
 1861 0348 F2E7     		b	.L328
 1862              	.LVL119:
 1863              	.L172:
 909:Drivers/STM32U0xx_HAL_Driver/Src/stm32u0xx_hal_rcc_ex.c ****             {
 1864              		.loc 1 909 17 view .LVU522
ARM GAS  C:\Users\upo\AppData\Local\Temp\ccMLO1b7.s 			page 59


 1865 034a 0C2B     		cmp	r3, #12
 1866 034c F0D0     		beq	.L328
 1867 034e 81E6     		b	.L213
 1868              	.LVL120:
 1869              	.L159:
 978:Drivers/STM32U0xx_HAL_Driver/Src/stm32u0xx_hal_rcc_ex.c ****         switch (srcclk)
 1870              		.loc 1 978 9 is_stmt 1 view .LVU523
 978:Drivers/STM32U0xx_HAL_Driver/Src/stm32u0xx_hal_rcc_ex.c ****         switch (srcclk)
 1871              		.loc 1 978 18 is_stmt 0 view .LVU524
 1872 0350 8823     		movs	r3, #136
 978:Drivers/STM32U0xx_HAL_Driver/Src/stm32u0xx_hal_rcc_ex.c ****         switch (srcclk)
 1873              		.loc 1 978 16 view .LVU525
 1874 0352 C022     		movs	r2, #192
 1875 0354 8020     		movs	r0, #128
 1876              	.LVL121:
 978:Drivers/STM32U0xx_HAL_Driver/Src/stm32u0xx_hal_rcc_ex.c ****         switch (srcclk)
 1877              		.loc 1 978 18 view .LVU526
 1878 0356 1E49     		ldr	r1, .L364
 978:Drivers/STM32U0xx_HAL_Driver/Src/stm32u0xx_hal_rcc_ex.c ****         switch (srcclk)
 1879              		.loc 1 978 16 view .LVU527
 1880 0358 1205     		lsls	r2, r2, #20
 978:Drivers/STM32U0xx_HAL_Driver/Src/stm32u0xx_hal_rcc_ex.c ****         switch (srcclk)
 1881              		.loc 1 978 18 view .LVU528
 1882 035a CB58     		ldr	r3, [r1, r3]
 1883 035c 0005     		lsls	r0, r0, #20
 978:Drivers/STM32U0xx_HAL_Driver/Src/stm32u0xx_hal_rcc_ex.c ****         switch (srcclk)
 1884              		.loc 1 978 16 view .LVU529
 1885 035e 1340     		ands	r3, r2
 1886              	.LVL122:
 979:Drivers/STM32U0xx_HAL_Driver/Src/stm32u0xx_hal_rcc_ex.c ****         {
 1887              		.loc 1 979 9 is_stmt 1 view .LVU530
 1888 0360 8342     		cmp	r3, r0
 1889 0362 00D1     		bne	.LCB1669
 1890 0364 54E7     		b	.L200	@long jump
 1891              	.LCB1669:
 1892 0366 9342     		cmp	r3, r2
 1893 0368 24D0     		beq	.L219
 1894 036a 8022     		movs	r2, #128
 1895 036c 0020     		movs	r0, #0
 1896 036e D204     		lsls	r2, r2, #19
 1897 0370 9342     		cmp	r3, r2
 1898 0372 00D0     		beq	.LCB1676
 1899 0374 6FE6     		b	.L142	@long jump
 1900              	.LCB1676:
 1901 0376 BBE6     		b	.L355
 1902              	.LVL123:
 1903              	.L147:
 836:Drivers/STM32U0xx_HAL_Driver/Src/stm32u0xx_hal_rcc_ex.c **** 
 1904              		.loc 1 836 9 view .LVU531
 836:Drivers/STM32U0xx_HAL_Driver/Src/stm32u0xx_hal_rcc_ex.c **** 
 1905              		.loc 1 836 18 is_stmt 0 view .LVU532
 1906 0378 8823     		movs	r3, #136
 836:Drivers/STM32U0xx_HAL_Driver/Src/stm32u0xx_hal_rcc_ex.c **** 
 1907              		.loc 1 836 16 view .LVU533
 1908 037a C022     		movs	r2, #192
 1909 037c 8021     		movs	r1, #128
 836:Drivers/STM32U0xx_HAL_Driver/Src/stm32u0xx_hal_rcc_ex.c **** 
ARM GAS  C:\Users\upo\AppData\Local\Temp\ccMLO1b7.s 			page 60


 1910              		.loc 1 836 18 view .LVU534
 1911 037e 144C     		ldr	r4, .L364
 836:Drivers/STM32U0xx_HAL_Driver/Src/stm32u0xx_hal_rcc_ex.c **** 
 1912              		.loc 1 836 16 view .LVU535
 1913 0380 9203     		lsls	r2, r2, #14
 836:Drivers/STM32U0xx_HAL_Driver/Src/stm32u0xx_hal_rcc_ex.c **** 
 1914              		.loc 1 836 18 view .LVU536
 1915 0382 E358     		ldr	r3, [r4, r3]
 1916 0384 8903     		lsls	r1, r1, #14
 836:Drivers/STM32U0xx_HAL_Driver/Src/stm32u0xx_hal_rcc_ex.c **** 
 1917              		.loc 1 836 16 view .LVU537
 1918 0386 1340     		ands	r3, r2
 1919              	.LVL124:
 838:Drivers/STM32U0xx_HAL_Driver/Src/stm32u0xx_hal_rcc_ex.c ****         {
 1920              		.loc 1 838 9 is_stmt 1 view .LVU538
 1921 0388 8B42     		cmp	r3, r1
 1922 038a 1AD0     		beq	.L191
 1923 038c 09D8     		bhi	.L192
 1924 038e 002B     		cmp	r3, #0
 1925 0390 00D1     		bne	.LCB1699
 1926 0392 03E7     		b	.L325	@long jump
 1927              	.LCB1699:
 1928 0394 8022     		movs	r2, #128
 1929 0396 5203     		lsls	r2, r2, #13
 1930 0398 9342     		cmp	r3, r2
 1931 039a 00D0     		beq	.LCB1703
 1932 039c 5AE6     		b	.L213	@long jump
 1933              	.LCB1703:
 888:Drivers/STM32U0xx_HAL_Driver/Src/stm32u0xx_hal_rcc_ex.c ****             {
 1934              		.loc 1 888 17 is_stmt 0 view .LVU539
 1935 039e 9421     		movs	r1, #148
 1936 03a0 0AE7     		b	.L334
 1937              	.L192:
 1938 03a2 9342     		cmp	r3, r2
 1939 03a4 00D0     		beq	.LCB1710
 1940 03a6 55E6     		b	.L213	@long jump
 1941              	.LCB1710:
 865:Drivers/STM32U0xx_HAL_Driver/Src/stm32u0xx_hal_rcc_ex.c ****             {
 1942              		.loc 1 865 13 is_stmt 1 view .LVU540
 865:Drivers/STM32U0xx_HAL_Driver/Src/stm32u0xx_hal_rcc_ex.c ****             {
 1943              		.loc 1 865 17 is_stmt 0 view .LVU541
 1944 03a8 9023     		movs	r3, #144
 1945              	.LVL125:
 865:Drivers/STM32U0xx_HAL_Driver/Src/stm32u0xx_hal_rcc_ex.c ****             {
 1946              		.loc 1 865 17 view .LVU542
 1947 03aa E058     		ldr	r0, [r4, r3]
 1948              	.LVL126:
 865:Drivers/STM32U0xx_HAL_Driver/Src/stm32u0xx_hal_rcc_ex.c ****             {
 1949              		.loc 1 865 16 view .LVU543
 1950 03ac 8007     		lsls	r0, r0, #30
 1951 03ae C00F     		lsrs	r0, r0, #31
 1952 03b0 C003     		lsls	r0, r0, #15
 1953 03b2 50E6     		b	.L142
 1954              	.LVL127:
 1955              	.L219:
 982:Drivers/STM32U0xx_HAL_Driver/Src/stm32u0xx_hal_rcc_ex.c ****             break;
 1956              		.loc 1 982 23 view .LVU544
ARM GAS  C:\Users\upo\AppData\Local\Temp\ccMLO1b7.s 			page 61


 1957 03b4 0748     		ldr	r0, .L364+4
 1958 03b6 4EE6     		b	.L142
 1959              	.LVL128:
 1960              	.L183:
 723:Drivers/STM32U0xx_HAL_Driver/Src/stm32u0xx_hal_rcc_ex.c ****             frequency = pll_freq.PLL_P_Frequency;
 1961              		.loc 1 723 13 is_stmt 1 view .LVU545
 1962 03b8 01A8     		add	r0, sp, #4
 1963              	.LVL129:
 723:Drivers/STM32U0xx_HAL_Driver/Src/stm32u0xx_hal_rcc_ex.c ****             frequency = pll_freq.PLL_P_Frequency;
 1964              		.loc 1 723 13 is_stmt 0 view .LVU546
 1965 03ba FFF7FEFF 		bl	HAL_RCCEx_GetPLLClockFreq
 1966              	.LVL130:
 724:Drivers/STM32U0xx_HAL_Driver/Src/stm32u0xx_hal_rcc_ex.c ****             break;
 1967              		.loc 1 724 13 is_stmt 1 view .LVU547
 724:Drivers/STM32U0xx_HAL_Driver/Src/stm32u0xx_hal_rcc_ex.c ****             break;
 1968              		.loc 1 724 23 is_stmt 0 view .LVU548
 1969 03be 0198     		ldr	r0, [sp, #4]
 1970              	.LVL131:
 725:Drivers/STM32U0xx_HAL_Driver/Src/stm32u0xx_hal_rcc_ex.c **** 
 1971              		.loc 1 725 13 is_stmt 1 view .LVU549
 1972 03c0 49E6     		b	.L142
 1973              	.LVL132:
 1974              	.L191:
 859:Drivers/STM32U0xx_HAL_Driver/Src/stm32u0xx_hal_rcc_ex.c ****             {
 1975              		.loc 1 859 13 view .LVU550
 859:Drivers/STM32U0xx_HAL_Driver/Src/stm32u0xx_hal_rcc_ex.c ****             {
 1976              		.loc 1 859 17 is_stmt 0 view .LVU551
 1977 03c2 2268     		ldr	r2, [r4]
 1978 03c4 45E7     		b	.L338
 1979              	.LVL133:
 1980              	.L207:
1022:Drivers/STM32U0xx_HAL_Driver/Src/stm32u0xx_hal_rcc_ex.c ****               if (msirange > 11U)
 1981              		.loc 1 1022 27 discriminator 2 view .LVU552
 1982 03c6 9423     		movs	r3, #148
 1983 03c8 CB58     		ldr	r3, [r1, r3]
1022:Drivers/STM32U0xx_HAL_Driver/Src/stm32u0xx_hal_rcc_ex.c ****               if (msirange > 11U)
 1984              		.loc 1 1022 53 discriminator 2 view .LVU553
 1985 03ca 1B05     		lsls	r3, r3, #20
 1986 03cc 1B0F     		lsrs	r3, r3, #28
 1987 03ce 9CE6     		b	.L208
 1988              	.L365:
 1989              		.align	2
 1990              	.L364:
 1991 03d0 00100240 		.word	1073876992
 1992 03d4 006CDC02 		.word	48000000
 1993              		.cfi_endproc
 1994              	.LFE336:
 1996              		.section	.text.HAL_RCCEx_EnablePLL,"ax",%progbits
 1997              		.align	1
 1998              		.p2align 2,,3
 1999              		.global	HAL_RCCEx_EnablePLL
 2000              		.syntax unified
 2001              		.code	16
 2002              		.thumb_func
 2004              	HAL_RCCEx_EnablePLL:
 2005              	.LVL134:
 2006              	.LFB338:
ARM GAS  C:\Users\upo\AppData\Local\Temp\ccMLO1b7.s 			page 62


1132:Drivers/STM32U0xx_HAL_Driver/Src/stm32u0xx_hal_rcc_ex.c **** 
1133:Drivers/STM32U0xx_HAL_Driver/Src/stm32u0xx_hal_rcc_ex.c **** /**
1134:Drivers/STM32U0xx_HAL_Driver/Src/stm32u0xx_hal_rcc_ex.c ****   * @brief  Enable PLL.
1135:Drivers/STM32U0xx_HAL_Driver/Src/stm32u0xx_hal_rcc_ex.c ****   * @param  PLLInit  pointer to an RCC_PLLInitTypeDef structure that
1136:Drivers/STM32U0xx_HAL_Driver/Src/stm32u0xx_hal_rcc_ex.c ****   *         contains the configuration information for the PLL
1137:Drivers/STM32U0xx_HAL_Driver/Src/stm32u0xx_hal_rcc_ex.c ****   * @retval HAL status
1138:Drivers/STM32U0xx_HAL_Driver/Src/stm32u0xx_hal_rcc_ex.c ****   */
1139:Drivers/STM32U0xx_HAL_Driver/Src/stm32u0xx_hal_rcc_ex.c **** HAL_StatusTypeDef HAL_RCCEx_EnablePLL(RCC_PLLInitTypeDef  *PLLInit)
1140:Drivers/STM32U0xx_HAL_Driver/Src/stm32u0xx_hal_rcc_ex.c **** {
 2007              		.loc 1 1140 1 is_stmt 1 view -0
 2008              		.cfi_startproc
 2009              		@ args = 0, pretend = 0, frame = 0
 2010              		@ frame_needed = 0, uses_anonymous_args = 0
1141:Drivers/STM32U0xx_HAL_Driver/Src/stm32u0xx_hal_rcc_ex.c ****   uint32_t tickstart;
 2011              		.loc 1 1141 3 view .LVU555
1142:Drivers/STM32U0xx_HAL_Driver/Src/stm32u0xx_hal_rcc_ex.c ****   HAL_StatusTypeDef status = HAL_OK;
 2012              		.loc 1 1142 3 view .LVU556
1143:Drivers/STM32U0xx_HAL_Driver/Src/stm32u0xx_hal_rcc_ex.c **** 
1144:Drivers/STM32U0xx_HAL_Driver/Src/stm32u0xx_hal_rcc_ex.c ****   /* check for PLL Parameters used to output PLLCLK */
1145:Drivers/STM32U0xx_HAL_Driver/Src/stm32u0xx_hal_rcc_ex.c ****   assert_param(IS_RCC_PLLSOURCE(PLLInit->PLLSource));
 2013              		.loc 1 1145 3 view .LVU557
1146:Drivers/STM32U0xx_HAL_Driver/Src/stm32u0xx_hal_rcc_ex.c ****   assert_param(IS_RCC_PLL_DIVM_VALUE(PLLInit->PLLM));
 2014              		.loc 1 1146 3 view .LVU558
1147:Drivers/STM32U0xx_HAL_Driver/Src/stm32u0xx_hal_rcc_ex.c ****   assert_param(IS_RCC_PLL_MULN_VALUE(PLLInit->PLLN));
 2015              		.loc 1 1147 3 view .LVU559
1148:Drivers/STM32U0xx_HAL_Driver/Src/stm32u0xx_hal_rcc_ex.c ****   assert_param(IS_RCC_PLL_DIVP_VALUE(PLLInit->PLLP));
 2016              		.loc 1 1148 3 view .LVU560
1149:Drivers/STM32U0xx_HAL_Driver/Src/stm32u0xx_hal_rcc_ex.c ****   assert_param(IS_RCC_PLL_DIVQ_VALUE(PLLInit->PLLQ));
 2017              		.loc 1 1149 3 view .LVU561
1150:Drivers/STM32U0xx_HAL_Driver/Src/stm32u0xx_hal_rcc_ex.c ****   assert_param(IS_RCC_PLL_DIVR_VALUE(PLLInit->PLLR));
 2018              		.loc 1 1150 3 view .LVU562
1151:Drivers/STM32U0xx_HAL_Driver/Src/stm32u0xx_hal_rcc_ex.c ****   assert_param(IS_RCC_PLLCLOCKOUT_VALUE(PLLInit->PLLClockOut));
 2019              		.loc 1 1151 3 view .LVU563
1152:Drivers/STM32U0xx_HAL_Driver/Src/stm32u0xx_hal_rcc_ex.c **** 
1153:Drivers/STM32U0xx_HAL_Driver/Src/stm32u0xx_hal_rcc_ex.c ****   /* Disable the PLL */
1154:Drivers/STM32U0xx_HAL_Driver/Src/stm32u0xx_hal_rcc_ex.c ****   __HAL_RCC_PLL_DISABLE();
 2020              		.loc 1 1154 3 view .LVU564
1140:Drivers/STM32U0xx_HAL_Driver/Src/stm32u0xx_hal_rcc_ex.c ****   uint32_t tickstart;
 2021              		.loc 1 1140 1 is_stmt 0 view .LVU565
 2022 0000 F8B5     		push	{r3, r4, r5, r6, r7, lr}
 2023              	.LCFI7:
 2024              		.cfi_def_cfa_offset 24
 2025              		.cfi_offset 3, -24
 2026              		.cfi_offset 4, -20
 2027              		.cfi_offset 5, -16
 2028              		.cfi_offset 6, -12
 2029              		.cfi_offset 7, -8
 2030              		.cfi_offset 14, -4
 2031              		.loc 1 1154 3 view .LVU566
 2032 0002 484C     		ldr	r4, .L396
 2033 0004 484A     		ldr	r2, .L396+4
 2034 0006 2368     		ldr	r3, [r4]
1140:Drivers/STM32U0xx_HAL_Driver/Src/stm32u0xx_hal_rcc_ex.c ****   uint32_t tickstart;
 2035              		.loc 1 1140 1 view .LVU567
 2036 0008 0700     		movs	r7, r0
 2037              		.loc 1 1154 3 view .LVU568
 2038 000a 1340     		ands	r3, r2
ARM GAS  C:\Users\upo\AppData\Local\Temp\ccMLO1b7.s 			page 63


 2039 000c 2360     		str	r3, [r4]
1155:Drivers/STM32U0xx_HAL_Driver/Src/stm32u0xx_hal_rcc_ex.c **** 
1156:Drivers/STM32U0xx_HAL_Driver/Src/stm32u0xx_hal_rcc_ex.c ****   /* Get Start Tick*/
1157:Drivers/STM32U0xx_HAL_Driver/Src/stm32u0xx_hal_rcc_ex.c ****   tickstart = HAL_GetTick();
 2040              		.loc 1 1157 3 is_stmt 1 view .LVU569
 2041              		.loc 1 1157 15 is_stmt 0 view .LVU570
 2042 000e FFF7FEFF 		bl	HAL_GetTick
 2043              	.LVL135:
1158:Drivers/STM32U0xx_HAL_Driver/Src/stm32u0xx_hal_rcc_ex.c **** 
1159:Drivers/STM32U0xx_HAL_Driver/Src/stm32u0xx_hal_rcc_ex.c ****   /* Wait till PLL is ready to be updated */
1160:Drivers/STM32U0xx_HAL_Driver/Src/stm32u0xx_hal_rcc_ex.c ****   while (READ_BIT(RCC->CR, RCC_CR_PLLRDY) != 0U)
 2044              		.loc 1 1160 10 view .LVU571
 2045 0012 8026     		movs	r6, #128
1157:Drivers/STM32U0xx_HAL_Driver/Src/stm32u0xx_hal_rcc_ex.c **** 
 2046              		.loc 1 1157 15 view .LVU572
 2047 0014 0500     		movs	r5, r0
 2048              	.LVL136:
 2049              		.loc 1 1160 3 is_stmt 1 view .LVU573
 2050              		.loc 1 1160 10 is_stmt 0 view .LVU574
 2051 0016 B604     		lsls	r6, r6, #18
 2052              		.loc 1 1160 9 view .LVU575
 2053 0018 04E0     		b	.L367
 2054              	.LVL137:
 2055              	.L369:
1161:Drivers/STM32U0xx_HAL_Driver/Src/stm32u0xx_hal_rcc_ex.c ****   {
1162:Drivers/STM32U0xx_HAL_Driver/Src/stm32u0xx_hal_rcc_ex.c ****     if ((HAL_GetTick() - tickstart) > 2U) /* PLL_TIMEOUT_VALUE) */
 2056              		.loc 1 1162 5 is_stmt 1 view .LVU576
 2057              		.loc 1 1162 10 is_stmt 0 view .LVU577
 2058 001a FFF7FEFF 		bl	HAL_GetTick
 2059              	.LVL138:
 2060              		.loc 1 1162 24 view .LVU578
 2061 001e 401B     		subs	r0, r0, r5
 2062              		.loc 1 1162 8 view .LVU579
 2063 0020 0228     		cmp	r0, #2
 2064 0022 69D8     		bhi	.L371
 2065              	.L367:
1160:Drivers/STM32U0xx_HAL_Driver/Src/stm32u0xx_hal_rcc_ex.c ****   {
 2066              		.loc 1 1160 43 is_stmt 1 view .LVU580
1160:Drivers/STM32U0xx_HAL_Driver/Src/stm32u0xx_hal_rcc_ex.c ****   {
 2067              		.loc 1 1160 10 is_stmt 0 view .LVU581
 2068 0024 2368     		ldr	r3, [r4]
1160:Drivers/STM32U0xx_HAL_Driver/Src/stm32u0xx_hal_rcc_ex.c ****   {
 2069              		.loc 1 1160 43 view .LVU582
 2070 0026 3342     		tst	r3, r6
 2071 0028 F7D1     		bne	.L369
1163:Drivers/STM32U0xx_HAL_Driver/Src/stm32u0xx_hal_rcc_ex.c ****     {
1164:Drivers/STM32U0xx_HAL_Driver/Src/stm32u0xx_hal_rcc_ex.c ****       status = HAL_TIMEOUT;
1165:Drivers/STM32U0xx_HAL_Driver/Src/stm32u0xx_hal_rcc_ex.c ****       break;
1166:Drivers/STM32U0xx_HAL_Driver/Src/stm32u0xx_hal_rcc_ex.c ****     }
1167:Drivers/STM32U0xx_HAL_Driver/Src/stm32u0xx_hal_rcc_ex.c ****   }
1168:Drivers/STM32U0xx_HAL_Driver/Src/stm32u0xx_hal_rcc_ex.c **** 
1169:Drivers/STM32U0xx_HAL_Driver/Src/stm32u0xx_hal_rcc_ex.c ****   if (status == HAL_OK)
 2072              		.loc 1 1169 3 is_stmt 1 view .LVU583
1170:Drivers/STM32U0xx_HAL_Driver/Src/stm32u0xx_hal_rcc_ex.c ****   {
1171:Drivers/STM32U0xx_HAL_Driver/Src/stm32u0xx_hal_rcc_ex.c ****     /* Make sure PLLSource is ready */
1172:Drivers/STM32U0xx_HAL_Driver/Src/stm32u0xx_hal_rcc_ex.c ****     status = RCCEx_PLLSource_Enable(PLLInit->PLLSource);
 2073              		.loc 1 1172 5 view .LVU584
ARM GAS  C:\Users\upo\AppData\Local\Temp\ccMLO1b7.s 			page 64


 2074              		.loc 1 1172 14 is_stmt 0 view .LVU585
 2075 002a 7B68     		ldr	r3, [r7, #4]
 2076              	.LVL139:
 2077              	.LBB10:
 2078              	.LBI10:
1173:Drivers/STM32U0xx_HAL_Driver/Src/stm32u0xx_hal_rcc_ex.c **** 
1174:Drivers/STM32U0xx_HAL_Driver/Src/stm32u0xx_hal_rcc_ex.c ****     if (status == HAL_OK)
1175:Drivers/STM32U0xx_HAL_Driver/Src/stm32u0xx_hal_rcc_ex.c ****     {
1176:Drivers/STM32U0xx_HAL_Driver/Src/stm32u0xx_hal_rcc_ex.c ****       /* Configure the PLL clock source, multiplication factor N, */
1177:Drivers/STM32U0xx_HAL_Driver/Src/stm32u0xx_hal_rcc_ex.c ****       /* and division factors M, P, Q and R */
1178:Drivers/STM32U0xx_HAL_Driver/Src/stm32u0xx_hal_rcc_ex.c ****       __HAL_RCC_PLL_CONFIG(PLLInit->PLLSource, PLLInit->PLLM, PLLInit->PLLN,
1179:Drivers/STM32U0xx_HAL_Driver/Src/stm32u0xx_hal_rcc_ex.c ****                            PLLInit->PLLP, PLLInit->PLLQ, PLLInit->PLLR);
1180:Drivers/STM32U0xx_HAL_Driver/Src/stm32u0xx_hal_rcc_ex.c **** 
1181:Drivers/STM32U0xx_HAL_Driver/Src/stm32u0xx_hal_rcc_ex.c ****       /* Configure the PLL Clock output(s) */
1182:Drivers/STM32U0xx_HAL_Driver/Src/stm32u0xx_hal_rcc_ex.c ****       __HAL_RCC_PLLCLKOUT_ENABLE(PLLInit->PLLClockOut);
1183:Drivers/STM32U0xx_HAL_Driver/Src/stm32u0xx_hal_rcc_ex.c **** 
1184:Drivers/STM32U0xx_HAL_Driver/Src/stm32u0xx_hal_rcc_ex.c ****       /* Enable the PLL again by setting PLLON to 1*/
1185:Drivers/STM32U0xx_HAL_Driver/Src/stm32u0xx_hal_rcc_ex.c ****       __HAL_RCC_PLL_ENABLE();
1186:Drivers/STM32U0xx_HAL_Driver/Src/stm32u0xx_hal_rcc_ex.c **** 
1187:Drivers/STM32U0xx_HAL_Driver/Src/stm32u0xx_hal_rcc_ex.c ****       /* Get Start Tick*/
1188:Drivers/STM32U0xx_HAL_Driver/Src/stm32u0xx_hal_rcc_ex.c ****       tickstart = HAL_GetTick();
1189:Drivers/STM32U0xx_HAL_Driver/Src/stm32u0xx_hal_rcc_ex.c **** 
1190:Drivers/STM32U0xx_HAL_Driver/Src/stm32u0xx_hal_rcc_ex.c ****       /* Wait till PLL is ready */
1191:Drivers/STM32U0xx_HAL_Driver/Src/stm32u0xx_hal_rcc_ex.c ****       while (READ_BIT(RCC->CR, RCC_CR_PLLRDY) == 0U)
1192:Drivers/STM32U0xx_HAL_Driver/Src/stm32u0xx_hal_rcc_ex.c ****       {
1193:Drivers/STM32U0xx_HAL_Driver/Src/stm32u0xx_hal_rcc_ex.c ****         if ((HAL_GetTick() - tickstart) > 2U) /* PLL_TIMEOUT_VALUE) */
1194:Drivers/STM32U0xx_HAL_Driver/Src/stm32u0xx_hal_rcc_ex.c ****         {
1195:Drivers/STM32U0xx_HAL_Driver/Src/stm32u0xx_hal_rcc_ex.c ****           status = HAL_TIMEOUT;
1196:Drivers/STM32U0xx_HAL_Driver/Src/stm32u0xx_hal_rcc_ex.c ****           break;
1197:Drivers/STM32U0xx_HAL_Driver/Src/stm32u0xx_hal_rcc_ex.c ****         }
1198:Drivers/STM32U0xx_HAL_Driver/Src/stm32u0xx_hal_rcc_ex.c ****       }
1199:Drivers/STM32U0xx_HAL_Driver/Src/stm32u0xx_hal_rcc_ex.c ****     }
1200:Drivers/STM32U0xx_HAL_Driver/Src/stm32u0xx_hal_rcc_ex.c ****   }
1201:Drivers/STM32U0xx_HAL_Driver/Src/stm32u0xx_hal_rcc_ex.c **** 
1202:Drivers/STM32U0xx_HAL_Driver/Src/stm32u0xx_hal_rcc_ex.c ****   return status;
1203:Drivers/STM32U0xx_HAL_Driver/Src/stm32u0xx_hal_rcc_ex.c **** }
1204:Drivers/STM32U0xx_HAL_Driver/Src/stm32u0xx_hal_rcc_ex.c **** 
1205:Drivers/STM32U0xx_HAL_Driver/Src/stm32u0xx_hal_rcc_ex.c **** /**
1206:Drivers/STM32U0xx_HAL_Driver/Src/stm32u0xx_hal_rcc_ex.c ****   * @brief  Disable PLL.
1207:Drivers/STM32U0xx_HAL_Driver/Src/stm32u0xx_hal_rcc_ex.c ****   * @retval HAL status
1208:Drivers/STM32U0xx_HAL_Driver/Src/stm32u0xx_hal_rcc_ex.c ****   */
1209:Drivers/STM32U0xx_HAL_Driver/Src/stm32u0xx_hal_rcc_ex.c **** HAL_StatusTypeDef HAL_RCCEx_DisablePLL(void)
1210:Drivers/STM32U0xx_HAL_Driver/Src/stm32u0xx_hal_rcc_ex.c **** {
1211:Drivers/STM32U0xx_HAL_Driver/Src/stm32u0xx_hal_rcc_ex.c ****   uint32_t tickstart;
1212:Drivers/STM32U0xx_HAL_Driver/Src/stm32u0xx_hal_rcc_ex.c ****   HAL_StatusTypeDef status = HAL_OK;
1213:Drivers/STM32U0xx_HAL_Driver/Src/stm32u0xx_hal_rcc_ex.c **** 
1214:Drivers/STM32U0xx_HAL_Driver/Src/stm32u0xx_hal_rcc_ex.c ****   /* Disable the PLL */
1215:Drivers/STM32U0xx_HAL_Driver/Src/stm32u0xx_hal_rcc_ex.c ****   __HAL_RCC_PLL_DISABLE();
1216:Drivers/STM32U0xx_HAL_Driver/Src/stm32u0xx_hal_rcc_ex.c **** 
1217:Drivers/STM32U0xx_HAL_Driver/Src/stm32u0xx_hal_rcc_ex.c ****   /* Get Start Tick*/
1218:Drivers/STM32U0xx_HAL_Driver/Src/stm32u0xx_hal_rcc_ex.c ****   tickstart = HAL_GetTick();
1219:Drivers/STM32U0xx_HAL_Driver/Src/stm32u0xx_hal_rcc_ex.c **** 
1220:Drivers/STM32U0xx_HAL_Driver/Src/stm32u0xx_hal_rcc_ex.c ****   /* Wait till PLL is ready */
1221:Drivers/STM32U0xx_HAL_Driver/Src/stm32u0xx_hal_rcc_ex.c ****   while (READ_BIT(RCC->CR, RCC_CR_PLLRDY) != 0U)
1222:Drivers/STM32U0xx_HAL_Driver/Src/stm32u0xx_hal_rcc_ex.c ****   {
1223:Drivers/STM32U0xx_HAL_Driver/Src/stm32u0xx_hal_rcc_ex.c ****     if ((HAL_GetTick() - tickstart) > 2U) /* PLL_TIMEOUT_VALUE) */
1224:Drivers/STM32U0xx_HAL_Driver/Src/stm32u0xx_hal_rcc_ex.c ****     {
ARM GAS  C:\Users\upo\AppData\Local\Temp\ccMLO1b7.s 			page 65


1225:Drivers/STM32U0xx_HAL_Driver/Src/stm32u0xx_hal_rcc_ex.c ****       status = HAL_TIMEOUT;
1226:Drivers/STM32U0xx_HAL_Driver/Src/stm32u0xx_hal_rcc_ex.c ****       break;
1227:Drivers/STM32U0xx_HAL_Driver/Src/stm32u0xx_hal_rcc_ex.c ****     }
1228:Drivers/STM32U0xx_HAL_Driver/Src/stm32u0xx_hal_rcc_ex.c ****   }
1229:Drivers/STM32U0xx_HAL_Driver/Src/stm32u0xx_hal_rcc_ex.c **** 
1230:Drivers/STM32U0xx_HAL_Driver/Src/stm32u0xx_hal_rcc_ex.c ****   /* To save power disable the PLL Source, FRACN and Clock outputs */
1231:Drivers/STM32U0xx_HAL_Driver/Src/stm32u0xx_hal_rcc_ex.c ****   CLEAR_BIT(RCC->PLLCFGR, RCC_PLLCFGR_PLLREN | RCC_PLLCFGR_PLLQEN | RCC_PLLCFGR_PLLPEN | RCC_PLLCFG
1232:Drivers/STM32U0xx_HAL_Driver/Src/stm32u0xx_hal_rcc_ex.c **** 
1233:Drivers/STM32U0xx_HAL_Driver/Src/stm32u0xx_hal_rcc_ex.c ****   return status;
1234:Drivers/STM32U0xx_HAL_Driver/Src/stm32u0xx_hal_rcc_ex.c **** }
1235:Drivers/STM32U0xx_HAL_Driver/Src/stm32u0xx_hal_rcc_ex.c **** 
1236:Drivers/STM32U0xx_HAL_Driver/Src/stm32u0xx_hal_rcc_ex.c **** /**
1237:Drivers/STM32U0xx_HAL_Driver/Src/stm32u0xx_hal_rcc_ex.c ****   * @brief  Configure the oscillator clock source for wakeup from Stop and CSS backup clock.
1238:Drivers/STM32U0xx_HAL_Driver/Src/stm32u0xx_hal_rcc_ex.c ****   * @param  WakeUpClk  Wakeup clock
1239:Drivers/STM32U0xx_HAL_Driver/Src/stm32u0xx_hal_rcc_ex.c ****   *         This parameter can be one of the following values:
1240:Drivers/STM32U0xx_HAL_Driver/Src/stm32u0xx_hal_rcc_ex.c ****   *            @arg @ref RCC_STOP_WAKEUPCLOCK_MSI  MSI oscillator selection
1241:Drivers/STM32U0xx_HAL_Driver/Src/stm32u0xx_hal_rcc_ex.c ****   *            @arg @ref RCC_STOP_WAKEUPCLOCK_HSI  HSI oscillator selection
1242:Drivers/STM32U0xx_HAL_Driver/Src/stm32u0xx_hal_rcc_ex.c ****   * @note   This function shall not be called after the Clock Security System on HSE has been
1243:Drivers/STM32U0xx_HAL_Driver/Src/stm32u0xx_hal_rcc_ex.c ****   *         enabled.
1244:Drivers/STM32U0xx_HAL_Driver/Src/stm32u0xx_hal_rcc_ex.c ****   * @retval None
1245:Drivers/STM32U0xx_HAL_Driver/Src/stm32u0xx_hal_rcc_ex.c ****   */
1246:Drivers/STM32U0xx_HAL_Driver/Src/stm32u0xx_hal_rcc_ex.c **** void HAL_RCCEx_WakeUpStopCLKConfig(uint32_t WakeUpClk)
1247:Drivers/STM32U0xx_HAL_Driver/Src/stm32u0xx_hal_rcc_ex.c **** {
1248:Drivers/STM32U0xx_HAL_Driver/Src/stm32u0xx_hal_rcc_ex.c ****   assert_param(IS_RCC_STOP_WAKEUPCLOCK(WakeUpClk));
1249:Drivers/STM32U0xx_HAL_Driver/Src/stm32u0xx_hal_rcc_ex.c **** 
1250:Drivers/STM32U0xx_HAL_Driver/Src/stm32u0xx_hal_rcc_ex.c ****   __HAL_RCC_WAKEUPSTOP_CLK_CONFIG(WakeUpClk);
1251:Drivers/STM32U0xx_HAL_Driver/Src/stm32u0xx_hal_rcc_ex.c **** }
1252:Drivers/STM32U0xx_HAL_Driver/Src/stm32u0xx_hal_rcc_ex.c **** 
1253:Drivers/STM32U0xx_HAL_Driver/Src/stm32u0xx_hal_rcc_ex.c **** /**
1254:Drivers/STM32U0xx_HAL_Driver/Src/stm32u0xx_hal_rcc_ex.c ****   * @brief  Configure the MSI range after standby mode.
1255:Drivers/STM32U0xx_HAL_Driver/Src/stm32u0xx_hal_rcc_ex.c ****   * @note   After Standby its frequency can be selected between 3 possible values (1, 3.072 or 4 MH
1256:Drivers/STM32U0xx_HAL_Driver/Src/stm32u0xx_hal_rcc_ex.c ****   * @param  MSIRange  MSI range
1257:Drivers/STM32U0xx_HAL_Driver/Src/stm32u0xx_hal_rcc_ex.c ****   *         This parameter can be one of the following values:
1258:Drivers/STM32U0xx_HAL_Driver/Src/stm32u0xx_hal_rcc_ex.c ****   *            @arg @ref RCC_MSIRANGE_4  Range 4 around 4 MHz (reset value)
1259:Drivers/STM32U0xx_HAL_Driver/Src/stm32u0xx_hal_rcc_ex.c ****   *            @arg @ref RCC_MSIRANGE_5  Range 5 around 2 MHz
1260:Drivers/STM32U0xx_HAL_Driver/Src/stm32u0xx_hal_rcc_ex.c ****   *            @arg @ref RCC_MSIRANGE_6  Range 6 around 1.5 MHz
1261:Drivers/STM32U0xx_HAL_Driver/Src/stm32u0xx_hal_rcc_ex.c ****   *            @arg @ref RCC_MSIRANGE_7  Range 7 around 1 MHz
1262:Drivers/STM32U0xx_HAL_Driver/Src/stm32u0xx_hal_rcc_ex.c ****   * @retval None
1263:Drivers/STM32U0xx_HAL_Driver/Src/stm32u0xx_hal_rcc_ex.c ****   */
1264:Drivers/STM32U0xx_HAL_Driver/Src/stm32u0xx_hal_rcc_ex.c **** void HAL_RCCEx_StandbyMSIRangeConfig(uint32_t MSIRange)
1265:Drivers/STM32U0xx_HAL_Driver/Src/stm32u0xx_hal_rcc_ex.c **** {
1266:Drivers/STM32U0xx_HAL_Driver/Src/stm32u0xx_hal_rcc_ex.c ****   assert_param(IS_RCC_MSI_STANDBY_CLOCK_RANGE(MSIRange));
1267:Drivers/STM32U0xx_HAL_Driver/Src/stm32u0xx_hal_rcc_ex.c **** 
1268:Drivers/STM32U0xx_HAL_Driver/Src/stm32u0xx_hal_rcc_ex.c ****   __HAL_RCC_MSI_STANDBY_RANGE_CONFIG(MSIRange);
1269:Drivers/STM32U0xx_HAL_Driver/Src/stm32u0xx_hal_rcc_ex.c **** }
1270:Drivers/STM32U0xx_HAL_Driver/Src/stm32u0xx_hal_rcc_ex.c **** 
1271:Drivers/STM32U0xx_HAL_Driver/Src/stm32u0xx_hal_rcc_ex.c **** /**
1272:Drivers/STM32U0xx_HAL_Driver/Src/stm32u0xx_hal_rcc_ex.c ****   * @brief  Enable the PLL-mode of the MSI.
1273:Drivers/STM32U0xx_HAL_Driver/Src/stm32u0xx_hal_rcc_ex.c ****   * @note   Prior to enable the PLL-mode of the MSI for automatic hardware
1274:Drivers/STM32U0xx_HAL_Driver/Src/stm32u0xx_hal_rcc_ex.c ****   *         calibration LSE oscillator is to be enabled with HAL_RCC_OscConfig().
1275:Drivers/STM32U0xx_HAL_Driver/Src/stm32u0xx_hal_rcc_ex.c ****   * @retval None
1276:Drivers/STM32U0xx_HAL_Driver/Src/stm32u0xx_hal_rcc_ex.c ****   */
1277:Drivers/STM32U0xx_HAL_Driver/Src/stm32u0xx_hal_rcc_ex.c **** void HAL_RCCEx_EnableMSIPLLMode(void)
1278:Drivers/STM32U0xx_HAL_Driver/Src/stm32u0xx_hal_rcc_ex.c **** {
1279:Drivers/STM32U0xx_HAL_Driver/Src/stm32u0xx_hal_rcc_ex.c ****   SET_BIT(RCC->CR, RCC_CR_MSIPLLEN);
1280:Drivers/STM32U0xx_HAL_Driver/Src/stm32u0xx_hal_rcc_ex.c **** }
1281:Drivers/STM32U0xx_HAL_Driver/Src/stm32u0xx_hal_rcc_ex.c **** 
ARM GAS  C:\Users\upo\AppData\Local\Temp\ccMLO1b7.s 			page 66


1282:Drivers/STM32U0xx_HAL_Driver/Src/stm32u0xx_hal_rcc_ex.c **** /**
1283:Drivers/STM32U0xx_HAL_Driver/Src/stm32u0xx_hal_rcc_ex.c ****   * @brief  Disable the PLL-mode of the MSI.
1284:Drivers/STM32U0xx_HAL_Driver/Src/stm32u0xx_hal_rcc_ex.c ****   * @note   PLL-mode of the MSI is automatically reset when LSE oscillator is disabled.
1285:Drivers/STM32U0xx_HAL_Driver/Src/stm32u0xx_hal_rcc_ex.c ****   * @retval None
1286:Drivers/STM32U0xx_HAL_Driver/Src/stm32u0xx_hal_rcc_ex.c ****   */
1287:Drivers/STM32U0xx_HAL_Driver/Src/stm32u0xx_hal_rcc_ex.c **** void HAL_RCCEx_DisableMSIPLLMode(void)
1288:Drivers/STM32U0xx_HAL_Driver/Src/stm32u0xx_hal_rcc_ex.c **** {
1289:Drivers/STM32U0xx_HAL_Driver/Src/stm32u0xx_hal_rcc_ex.c ****   CLEAR_BIT(RCC->CR, RCC_CR_MSIPLLEN);
1290:Drivers/STM32U0xx_HAL_Driver/Src/stm32u0xx_hal_rcc_ex.c **** }
1291:Drivers/STM32U0xx_HAL_Driver/Src/stm32u0xx_hal_rcc_ex.c **** 
1292:Drivers/STM32U0xx_HAL_Driver/Src/stm32u0xx_hal_rcc_ex.c **** /**
1293:Drivers/STM32U0xx_HAL_Driver/Src/stm32u0xx_hal_rcc_ex.c ****   * @brief  Enables the LSE Clock Security System.
1294:Drivers/STM32U0xx_HAL_Driver/Src/stm32u0xx_hal_rcc_ex.c ****   * @retval None
1295:Drivers/STM32U0xx_HAL_Driver/Src/stm32u0xx_hal_rcc_ex.c ****   */
1296:Drivers/STM32U0xx_HAL_Driver/Src/stm32u0xx_hal_rcc_ex.c **** void HAL_RCCEx_EnableLSECSS(void)
1297:Drivers/STM32U0xx_HAL_Driver/Src/stm32u0xx_hal_rcc_ex.c **** {
1298:Drivers/STM32U0xx_HAL_Driver/Src/stm32u0xx_hal_rcc_ex.c ****   SET_BIT(RCC->BDCR, RCC_BDCR_LSECSSON) ;
1299:Drivers/STM32U0xx_HAL_Driver/Src/stm32u0xx_hal_rcc_ex.c **** }
1300:Drivers/STM32U0xx_HAL_Driver/Src/stm32u0xx_hal_rcc_ex.c **** 
1301:Drivers/STM32U0xx_HAL_Driver/Src/stm32u0xx_hal_rcc_ex.c **** /**
1302:Drivers/STM32U0xx_HAL_Driver/Src/stm32u0xx_hal_rcc_ex.c ****   * @brief  Disables the LSE Clock Security System.
1303:Drivers/STM32U0xx_HAL_Driver/Src/stm32u0xx_hal_rcc_ex.c ****   * @note   Once enabled this bit cannot be disabled, except after an LSE failure detection
1304:Drivers/STM32U0xx_HAL_Driver/Src/stm32u0xx_hal_rcc_ex.c ****   *         (LSECSSD=1). In that case the software MUST disable the LSECSSON bit.
1305:Drivers/STM32U0xx_HAL_Driver/Src/stm32u0xx_hal_rcc_ex.c ****   *         Reset by power on reset and RTC software reset (RTCRST bit).
1306:Drivers/STM32U0xx_HAL_Driver/Src/stm32u0xx_hal_rcc_ex.c ****   * @retval None
1307:Drivers/STM32U0xx_HAL_Driver/Src/stm32u0xx_hal_rcc_ex.c ****   */
1308:Drivers/STM32U0xx_HAL_Driver/Src/stm32u0xx_hal_rcc_ex.c **** void HAL_RCCEx_DisableLSECSS(void)
1309:Drivers/STM32U0xx_HAL_Driver/Src/stm32u0xx_hal_rcc_ex.c **** {
1310:Drivers/STM32U0xx_HAL_Driver/Src/stm32u0xx_hal_rcc_ex.c ****   /* Disable LSE CSS */
1311:Drivers/STM32U0xx_HAL_Driver/Src/stm32u0xx_hal_rcc_ex.c ****   CLEAR_BIT(RCC->BDCR, RCC_BDCR_LSECSSON) ;
1312:Drivers/STM32U0xx_HAL_Driver/Src/stm32u0xx_hal_rcc_ex.c **** }
1313:Drivers/STM32U0xx_HAL_Driver/Src/stm32u0xx_hal_rcc_ex.c **** 
1314:Drivers/STM32U0xx_HAL_Driver/Src/stm32u0xx_hal_rcc_ex.c **** /**
1315:Drivers/STM32U0xx_HAL_Driver/Src/stm32u0xx_hal_rcc_ex.c ****   * @brief  Enable the LSE Clock Security System IT & corresponding EXTI line.
1316:Drivers/STM32U0xx_HAL_Driver/Src/stm32u0xx_hal_rcc_ex.c ****   * @note   LSE Clock Security System IT is mapped on RTC EXTI line 27
1317:Drivers/STM32U0xx_HAL_Driver/Src/stm32u0xx_hal_rcc_ex.c ****   * @retval None
1318:Drivers/STM32U0xx_HAL_Driver/Src/stm32u0xx_hal_rcc_ex.c ****   */
1319:Drivers/STM32U0xx_HAL_Driver/Src/stm32u0xx_hal_rcc_ex.c **** void HAL_RCCEx_EnableLSECSS_IT(void)
1320:Drivers/STM32U0xx_HAL_Driver/Src/stm32u0xx_hal_rcc_ex.c **** {
1321:Drivers/STM32U0xx_HAL_Driver/Src/stm32u0xx_hal_rcc_ex.c ****   /* Enable LSE CSS */
1322:Drivers/STM32U0xx_HAL_Driver/Src/stm32u0xx_hal_rcc_ex.c ****   SET_BIT(RCC->BDCR, RCC_BDCR_LSECSSON) ;
1323:Drivers/STM32U0xx_HAL_Driver/Src/stm32u0xx_hal_rcc_ex.c ****   /* Enable LSE CSS IT */
1324:Drivers/STM32U0xx_HAL_Driver/Src/stm32u0xx_hal_rcc_ex.c ****   __HAL_RCC_ENABLE_IT(RCC_IT_LSECSS);
1325:Drivers/STM32U0xx_HAL_Driver/Src/stm32u0xx_hal_rcc_ex.c ****   /* Enable IT on EXTI Line 27 */
1326:Drivers/STM32U0xx_HAL_Driver/Src/stm32u0xx_hal_rcc_ex.c ****   __HAL_RCC_LSECSS_EXTI_ENABLE_IT();
1327:Drivers/STM32U0xx_HAL_Driver/Src/stm32u0xx_hal_rcc_ex.c ****   __HAL_RCC_LSECSS_EXTI_ENABLE_RISING_EDGE();
1328:Drivers/STM32U0xx_HAL_Driver/Src/stm32u0xx_hal_rcc_ex.c **** }
1329:Drivers/STM32U0xx_HAL_Driver/Src/stm32u0xx_hal_rcc_ex.c **** 
1330:Drivers/STM32U0xx_HAL_Driver/Src/stm32u0xx_hal_rcc_ex.c **** /**
1331:Drivers/STM32U0xx_HAL_Driver/Src/stm32u0xx_hal_rcc_ex.c ****   * @brief Handle the RCC LSE Clock Security System interrupt request.
1332:Drivers/STM32U0xx_HAL_Driver/Src/stm32u0xx_hal_rcc_ex.c ****   * @retval None
1333:Drivers/STM32U0xx_HAL_Driver/Src/stm32u0xx_hal_rcc_ex.c ****   */
1334:Drivers/STM32U0xx_HAL_Driver/Src/stm32u0xx_hal_rcc_ex.c **** void HAL_RCCEx_LSECSS_IRQHandler(void)
1335:Drivers/STM32U0xx_HAL_Driver/Src/stm32u0xx_hal_rcc_ex.c **** {
1336:Drivers/STM32U0xx_HAL_Driver/Src/stm32u0xx_hal_rcc_ex.c ****   /* Check RCC LSE CSSF flag  */
1337:Drivers/STM32U0xx_HAL_Driver/Src/stm32u0xx_hal_rcc_ex.c ****   if (__HAL_RCC_GET_IT(RCC_IT_LSECSS))
1338:Drivers/STM32U0xx_HAL_Driver/Src/stm32u0xx_hal_rcc_ex.c ****   {
ARM GAS  C:\Users\upo\AppData\Local\Temp\ccMLO1b7.s 			page 67


1339:Drivers/STM32U0xx_HAL_Driver/Src/stm32u0xx_hal_rcc_ex.c ****     /* RCC LSE Clock Security System interrupt user callback */
1340:Drivers/STM32U0xx_HAL_Driver/Src/stm32u0xx_hal_rcc_ex.c ****     HAL_RCCEx_LSECSS_Callback();
1341:Drivers/STM32U0xx_HAL_Driver/Src/stm32u0xx_hal_rcc_ex.c **** 
1342:Drivers/STM32U0xx_HAL_Driver/Src/stm32u0xx_hal_rcc_ex.c ****     /* Clear RCC LSE CSS pending bit */
1343:Drivers/STM32U0xx_HAL_Driver/Src/stm32u0xx_hal_rcc_ex.c ****     __HAL_RCC_CLEAR_IT(RCC_IT_LSECSS);
1344:Drivers/STM32U0xx_HAL_Driver/Src/stm32u0xx_hal_rcc_ex.c ****   }
1345:Drivers/STM32U0xx_HAL_Driver/Src/stm32u0xx_hal_rcc_ex.c **** }
1346:Drivers/STM32U0xx_HAL_Driver/Src/stm32u0xx_hal_rcc_ex.c **** 
1347:Drivers/STM32U0xx_HAL_Driver/Src/stm32u0xx_hal_rcc_ex.c **** /**
1348:Drivers/STM32U0xx_HAL_Driver/Src/stm32u0xx_hal_rcc_ex.c ****   * @brief  RCCEx LSE Clock Security System interrupt callback.
1349:Drivers/STM32U0xx_HAL_Driver/Src/stm32u0xx_hal_rcc_ex.c ****   * @retval none
1350:Drivers/STM32U0xx_HAL_Driver/Src/stm32u0xx_hal_rcc_ex.c ****   */
1351:Drivers/STM32U0xx_HAL_Driver/Src/stm32u0xx_hal_rcc_ex.c **** __weak void HAL_RCCEx_LSECSS_Callback(void)
1352:Drivers/STM32U0xx_HAL_Driver/Src/stm32u0xx_hal_rcc_ex.c **** {
1353:Drivers/STM32U0xx_HAL_Driver/Src/stm32u0xx_hal_rcc_ex.c ****   /* NOTE : This function should not be modified, when the callback is needed,
1354:Drivers/STM32U0xx_HAL_Driver/Src/stm32u0xx_hal_rcc_ex.c ****             the @ref HAL_RCCEx_LSECSS_Callback should be implemented in the user file
1355:Drivers/STM32U0xx_HAL_Driver/Src/stm32u0xx_hal_rcc_ex.c ****    */
1356:Drivers/STM32U0xx_HAL_Driver/Src/stm32u0xx_hal_rcc_ex.c **** }
1357:Drivers/STM32U0xx_HAL_Driver/Src/stm32u0xx_hal_rcc_ex.c **** 
1358:Drivers/STM32U0xx_HAL_Driver/Src/stm32u0xx_hal_rcc_ex.c **** /**
1359:Drivers/STM32U0xx_HAL_Driver/Src/stm32u0xx_hal_rcc_ex.c ****   * @brief  Select the Low Speed clock source to output on LSCO pin (PA2).
1360:Drivers/STM32U0xx_HAL_Driver/Src/stm32u0xx_hal_rcc_ex.c ****   * @param  LSCOSource  specifies the Low Speed clock source to output.
1361:Drivers/STM32U0xx_HAL_Driver/Src/stm32u0xx_hal_rcc_ex.c ****   *          This parameter can be one of the following values:
1362:Drivers/STM32U0xx_HAL_Driver/Src/stm32u0xx_hal_rcc_ex.c ****   *            @arg @ref RCC_LSCOSOURCE_LSI  LSI clock selected as LSCO source
1363:Drivers/STM32U0xx_HAL_Driver/Src/stm32u0xx_hal_rcc_ex.c ****   *            @arg @ref RCC_LSCOSOURCE_LSE  LSE clock selected as LSCO source
1364:Drivers/STM32U0xx_HAL_Driver/Src/stm32u0xx_hal_rcc_ex.c ****   * @retval None
1365:Drivers/STM32U0xx_HAL_Driver/Src/stm32u0xx_hal_rcc_ex.c ****   */
1366:Drivers/STM32U0xx_HAL_Driver/Src/stm32u0xx_hal_rcc_ex.c **** void HAL_RCCEx_EnableLSCO(uint32_t LSCOSource)
1367:Drivers/STM32U0xx_HAL_Driver/Src/stm32u0xx_hal_rcc_ex.c **** {
1368:Drivers/STM32U0xx_HAL_Driver/Src/stm32u0xx_hal_rcc_ex.c ****   GPIO_InitTypeDef GPIO_InitStruct = {0};
1369:Drivers/STM32U0xx_HAL_Driver/Src/stm32u0xx_hal_rcc_ex.c ****   FlagStatus       pwrclkchanged = RESET;
1370:Drivers/STM32U0xx_HAL_Driver/Src/stm32u0xx_hal_rcc_ex.c ****   FlagStatus       backupchanged = RESET;
1371:Drivers/STM32U0xx_HAL_Driver/Src/stm32u0xx_hal_rcc_ex.c **** 
1372:Drivers/STM32U0xx_HAL_Driver/Src/stm32u0xx_hal_rcc_ex.c ****   /* Check the parameters */
1373:Drivers/STM32U0xx_HAL_Driver/Src/stm32u0xx_hal_rcc_ex.c ****   assert_param(IS_RCC_LSCOSOURCE(LSCOSource));
1374:Drivers/STM32U0xx_HAL_Driver/Src/stm32u0xx_hal_rcc_ex.c **** 
1375:Drivers/STM32U0xx_HAL_Driver/Src/stm32u0xx_hal_rcc_ex.c ****   /* LSCO Pin Clock Enable */
1376:Drivers/STM32U0xx_HAL_Driver/Src/stm32u0xx_hal_rcc_ex.c ****   __LSCO_CLK_ENABLE();
1377:Drivers/STM32U0xx_HAL_Driver/Src/stm32u0xx_hal_rcc_ex.c **** #if defined (LSCO_PIN)
1378:Drivers/STM32U0xx_HAL_Driver/Src/stm32u0xx_hal_rcc_ex.c ****   /* Configure the LSCO pin in analog mode */
1379:Drivers/STM32U0xx_HAL_Driver/Src/stm32u0xx_hal_rcc_ex.c ****   GPIO_InitStruct.Pin = LSCO_PIN;
1380:Drivers/STM32U0xx_HAL_Driver/Src/stm32u0xx_hal_rcc_ex.c ****   GPIO_InitStruct.Mode = GPIO_MODE_ANALOG;
1381:Drivers/STM32U0xx_HAL_Driver/Src/stm32u0xx_hal_rcc_ex.c ****   GPIO_InitStruct.Speed = GPIO_SPEED_FREQ_HIGH;
1382:Drivers/STM32U0xx_HAL_Driver/Src/stm32u0xx_hal_rcc_ex.c ****   GPIO_InitStruct.Pull = GPIO_NOPULL;
1383:Drivers/STM32U0xx_HAL_Driver/Src/stm32u0xx_hal_rcc_ex.c ****   HAL_GPIO_Init(LSCO_GPIO_PORT, &GPIO_InitStruct);
1384:Drivers/STM32U0xx_HAL_Driver/Src/stm32u0xx_hal_rcc_ex.c **** #endif /* LSCO_PIN */
1385:Drivers/STM32U0xx_HAL_Driver/Src/stm32u0xx_hal_rcc_ex.c ****   /* Update LSCOSEL clock source in Backup Domain control register */
1386:Drivers/STM32U0xx_HAL_Driver/Src/stm32u0xx_hal_rcc_ex.c ****   if (__HAL_RCC_PWR_IS_CLK_DISABLED())
1387:Drivers/STM32U0xx_HAL_Driver/Src/stm32u0xx_hal_rcc_ex.c ****   {
1388:Drivers/STM32U0xx_HAL_Driver/Src/stm32u0xx_hal_rcc_ex.c ****     __HAL_RCC_PWR_CLK_ENABLE();
1389:Drivers/STM32U0xx_HAL_Driver/Src/stm32u0xx_hal_rcc_ex.c ****     pwrclkchanged = SET;
1390:Drivers/STM32U0xx_HAL_Driver/Src/stm32u0xx_hal_rcc_ex.c ****   }
1391:Drivers/STM32U0xx_HAL_Driver/Src/stm32u0xx_hal_rcc_ex.c ****   if (HAL_IS_BIT_CLR(PWR->CR1, PWR_CR1_DBP))
1392:Drivers/STM32U0xx_HAL_Driver/Src/stm32u0xx_hal_rcc_ex.c ****   {
1393:Drivers/STM32U0xx_HAL_Driver/Src/stm32u0xx_hal_rcc_ex.c ****     HAL_PWR_EnableBkUpAccess();
1394:Drivers/STM32U0xx_HAL_Driver/Src/stm32u0xx_hal_rcc_ex.c ****     backupchanged = SET;
1395:Drivers/STM32U0xx_HAL_Driver/Src/stm32u0xx_hal_rcc_ex.c ****   }
ARM GAS  C:\Users\upo\AppData\Local\Temp\ccMLO1b7.s 			page 68


1396:Drivers/STM32U0xx_HAL_Driver/Src/stm32u0xx_hal_rcc_ex.c **** 
1397:Drivers/STM32U0xx_HAL_Driver/Src/stm32u0xx_hal_rcc_ex.c ****   MODIFY_REG(RCC->BDCR, RCC_BDCR_LSCOSEL | RCC_BDCR_LSCOEN, LSCOSource | RCC_BDCR_LSCOEN);
1398:Drivers/STM32U0xx_HAL_Driver/Src/stm32u0xx_hal_rcc_ex.c **** 
1399:Drivers/STM32U0xx_HAL_Driver/Src/stm32u0xx_hal_rcc_ex.c ****   if (backupchanged == SET)
1400:Drivers/STM32U0xx_HAL_Driver/Src/stm32u0xx_hal_rcc_ex.c ****   {
1401:Drivers/STM32U0xx_HAL_Driver/Src/stm32u0xx_hal_rcc_ex.c ****     HAL_PWR_DisableBkUpAccess();
1402:Drivers/STM32U0xx_HAL_Driver/Src/stm32u0xx_hal_rcc_ex.c ****   }
1403:Drivers/STM32U0xx_HAL_Driver/Src/stm32u0xx_hal_rcc_ex.c ****   if (pwrclkchanged == SET)
1404:Drivers/STM32U0xx_HAL_Driver/Src/stm32u0xx_hal_rcc_ex.c ****   {
1405:Drivers/STM32U0xx_HAL_Driver/Src/stm32u0xx_hal_rcc_ex.c ****     __HAL_RCC_PWR_CLK_DISABLE();
1406:Drivers/STM32U0xx_HAL_Driver/Src/stm32u0xx_hal_rcc_ex.c ****   }
1407:Drivers/STM32U0xx_HAL_Driver/Src/stm32u0xx_hal_rcc_ex.c **** }
1408:Drivers/STM32U0xx_HAL_Driver/Src/stm32u0xx_hal_rcc_ex.c **** 
1409:Drivers/STM32U0xx_HAL_Driver/Src/stm32u0xx_hal_rcc_ex.c **** /**
1410:Drivers/STM32U0xx_HAL_Driver/Src/stm32u0xx_hal_rcc_ex.c ****   * @brief  Disable the Low Speed clock output.
1411:Drivers/STM32U0xx_HAL_Driver/Src/stm32u0xx_hal_rcc_ex.c ****   * @retval None
1412:Drivers/STM32U0xx_HAL_Driver/Src/stm32u0xx_hal_rcc_ex.c ****   */
1413:Drivers/STM32U0xx_HAL_Driver/Src/stm32u0xx_hal_rcc_ex.c **** void HAL_RCCEx_DisableLSCO(void)
1414:Drivers/STM32U0xx_HAL_Driver/Src/stm32u0xx_hal_rcc_ex.c **** {
1415:Drivers/STM32U0xx_HAL_Driver/Src/stm32u0xx_hal_rcc_ex.c ****   FlagStatus       pwrclkchanged = RESET;
1416:Drivers/STM32U0xx_HAL_Driver/Src/stm32u0xx_hal_rcc_ex.c ****   FlagStatus       backupchanged = RESET;
1417:Drivers/STM32U0xx_HAL_Driver/Src/stm32u0xx_hal_rcc_ex.c **** 
1418:Drivers/STM32U0xx_HAL_Driver/Src/stm32u0xx_hal_rcc_ex.c ****   /* Update LSCOEN bit in Backup Domain control register */
1419:Drivers/STM32U0xx_HAL_Driver/Src/stm32u0xx_hal_rcc_ex.c ****   if (__HAL_RCC_PWR_IS_CLK_DISABLED())
1420:Drivers/STM32U0xx_HAL_Driver/Src/stm32u0xx_hal_rcc_ex.c ****   {
1421:Drivers/STM32U0xx_HAL_Driver/Src/stm32u0xx_hal_rcc_ex.c ****     __HAL_RCC_PWR_CLK_ENABLE();
1422:Drivers/STM32U0xx_HAL_Driver/Src/stm32u0xx_hal_rcc_ex.c ****     pwrclkchanged = SET;
1423:Drivers/STM32U0xx_HAL_Driver/Src/stm32u0xx_hal_rcc_ex.c ****   }
1424:Drivers/STM32U0xx_HAL_Driver/Src/stm32u0xx_hal_rcc_ex.c ****   if (HAL_IS_BIT_CLR(PWR->CR1, PWR_CR1_DBP))
1425:Drivers/STM32U0xx_HAL_Driver/Src/stm32u0xx_hal_rcc_ex.c ****   {
1426:Drivers/STM32U0xx_HAL_Driver/Src/stm32u0xx_hal_rcc_ex.c ****     /* Enable access to the backup domain */
1427:Drivers/STM32U0xx_HAL_Driver/Src/stm32u0xx_hal_rcc_ex.c ****     HAL_PWR_EnableBkUpAccess();
1428:Drivers/STM32U0xx_HAL_Driver/Src/stm32u0xx_hal_rcc_ex.c ****     backupchanged = SET;
1429:Drivers/STM32U0xx_HAL_Driver/Src/stm32u0xx_hal_rcc_ex.c ****   }
1430:Drivers/STM32U0xx_HAL_Driver/Src/stm32u0xx_hal_rcc_ex.c **** 
1431:Drivers/STM32U0xx_HAL_Driver/Src/stm32u0xx_hal_rcc_ex.c ****   CLEAR_BIT(RCC->BDCR, RCC_BDCR_LSCOEN);
1432:Drivers/STM32U0xx_HAL_Driver/Src/stm32u0xx_hal_rcc_ex.c **** 
1433:Drivers/STM32U0xx_HAL_Driver/Src/stm32u0xx_hal_rcc_ex.c ****   /* Restore previous configuration */
1434:Drivers/STM32U0xx_HAL_Driver/Src/stm32u0xx_hal_rcc_ex.c ****   if (backupchanged == SET)
1435:Drivers/STM32U0xx_HAL_Driver/Src/stm32u0xx_hal_rcc_ex.c ****   {
1436:Drivers/STM32U0xx_HAL_Driver/Src/stm32u0xx_hal_rcc_ex.c ****     /* Disable access to the backup domain */
1437:Drivers/STM32U0xx_HAL_Driver/Src/stm32u0xx_hal_rcc_ex.c ****     HAL_PWR_DisableBkUpAccess();
1438:Drivers/STM32U0xx_HAL_Driver/Src/stm32u0xx_hal_rcc_ex.c ****   }
1439:Drivers/STM32U0xx_HAL_Driver/Src/stm32u0xx_hal_rcc_ex.c ****   if (pwrclkchanged == SET)
1440:Drivers/STM32U0xx_HAL_Driver/Src/stm32u0xx_hal_rcc_ex.c ****   {
1441:Drivers/STM32U0xx_HAL_Driver/Src/stm32u0xx_hal_rcc_ex.c ****     __HAL_RCC_PWR_CLK_DISABLE();
1442:Drivers/STM32U0xx_HAL_Driver/Src/stm32u0xx_hal_rcc_ex.c ****   }
1443:Drivers/STM32U0xx_HAL_Driver/Src/stm32u0xx_hal_rcc_ex.c **** }
1444:Drivers/STM32U0xx_HAL_Driver/Src/stm32u0xx_hal_rcc_ex.c **** 
1445:Drivers/STM32U0xx_HAL_Driver/Src/stm32u0xx_hal_rcc_ex.c **** /**
1446:Drivers/STM32U0xx_HAL_Driver/Src/stm32u0xx_hal_rcc_ex.c ****   * @}
1447:Drivers/STM32U0xx_HAL_Driver/Src/stm32u0xx_hal_rcc_ex.c ****   */
1448:Drivers/STM32U0xx_HAL_Driver/Src/stm32u0xx_hal_rcc_ex.c **** 
1449:Drivers/STM32U0xx_HAL_Driver/Src/stm32u0xx_hal_rcc_ex.c **** #if defined(CRS)
1450:Drivers/STM32U0xx_HAL_Driver/Src/stm32u0xx_hal_rcc_ex.c **** 
1451:Drivers/STM32U0xx_HAL_Driver/Src/stm32u0xx_hal_rcc_ex.c **** /** @defgroup RCCEx_Exported_Functions_Group3 Extended Clock Recovery System Control functions
1452:Drivers/STM32U0xx_HAL_Driver/Src/stm32u0xx_hal_rcc_ex.c ****   * @brief  Extended Clock Recovery System Control functions
ARM GAS  C:\Users\upo\AppData\Local\Temp\ccMLO1b7.s 			page 69


1453:Drivers/STM32U0xx_HAL_Driver/Src/stm32u0xx_hal_rcc_ex.c ****   *
1454:Drivers/STM32U0xx_HAL_Driver/Src/stm32u0xx_hal_rcc_ex.c **** @verbatim
1455:Drivers/STM32U0xx_HAL_Driver/Src/stm32u0xx_hal_rcc_ex.c ****  ===============================================================================
1456:Drivers/STM32U0xx_HAL_Driver/Src/stm32u0xx_hal_rcc_ex.c ****                 ##### Extended Clock Recovery System Control functions  #####
1457:Drivers/STM32U0xx_HAL_Driver/Src/stm32u0xx_hal_rcc_ex.c ****  ===============================================================================
1458:Drivers/STM32U0xx_HAL_Driver/Src/stm32u0xx_hal_rcc_ex.c ****     [..]
1459:Drivers/STM32U0xx_HAL_Driver/Src/stm32u0xx_hal_rcc_ex.c ****       For devices with Clock Recovery System feature (CRS), RCC Extension HAL driver can be used as
1460:Drivers/STM32U0xx_HAL_Driver/Src/stm32u0xx_hal_rcc_ex.c **** 
1461:Drivers/STM32U0xx_HAL_Driver/Src/stm32u0xx_hal_rcc_ex.c ****       (#) In System clock config, HSI48 needs to be enabled
1462:Drivers/STM32U0xx_HAL_Driver/Src/stm32u0xx_hal_rcc_ex.c **** 
1463:Drivers/STM32U0xx_HAL_Driver/Src/stm32u0xx_hal_rcc_ex.c ****       (#) Enable CRS clock in IP MSP init which will use CRS functions
1464:Drivers/STM32U0xx_HAL_Driver/Src/stm32u0xx_hal_rcc_ex.c **** 
1465:Drivers/STM32U0xx_HAL_Driver/Src/stm32u0xx_hal_rcc_ex.c ****       (#) Call CRS functions as follows:
1466:Drivers/STM32U0xx_HAL_Driver/Src/stm32u0xx_hal_rcc_ex.c ****           (##) Prepare synchronization configuration necessary for HSI48 calibration
1467:Drivers/STM32U0xx_HAL_Driver/Src/stm32u0xx_hal_rcc_ex.c ****               (+++) Default values can be set for frequency Error Measurement (reload and error lim
1468:Drivers/STM32U0xx_HAL_Driver/Src/stm32u0xx_hal_rcc_ex.c ****                         and also HSI48 oscillator smooth trimming.
1469:Drivers/STM32U0xx_HAL_Driver/Src/stm32u0xx_hal_rcc_ex.c ****               (+++) Macro __HAL_RCC_CRS_RELOADVALUE_CALCULATE can be also used to calculate
1470:Drivers/STM32U0xx_HAL_Driver/Src/stm32u0xx_hal_rcc_ex.c ****                         directly reload value with target and synchronization frequencies values
1471:Drivers/STM32U0xx_HAL_Driver/Src/stm32u0xx_hal_rcc_ex.c ****           (##) Call function HAL_RCCEx_CRSConfig which
1472:Drivers/STM32U0xx_HAL_Driver/Src/stm32u0xx_hal_rcc_ex.c ****               (+++) Resets CRS registers to their default values.
1473:Drivers/STM32U0xx_HAL_Driver/Src/stm32u0xx_hal_rcc_ex.c ****               (+++) Configures CRS registers with synchronization configuration
1474:Drivers/STM32U0xx_HAL_Driver/Src/stm32u0xx_hal_rcc_ex.c ****               (+++) Enables automatic calibration and frequency error counter feature
1475:Drivers/STM32U0xx_HAL_Driver/Src/stm32u0xx_hal_rcc_ex.c ****            Note: When using USB LPM (Link Power Management) and the device is in Sleep mode, the
1476:Drivers/STM32U0xx_HAL_Driver/Src/stm32u0xx_hal_rcc_ex.c ****            periodic USB SOF will not be generated by the host. No SYNC signal will therefore be
1477:Drivers/STM32U0xx_HAL_Driver/Src/stm32u0xx_hal_rcc_ex.c ****            provided to the CRS to calibrate the HSI48 on the run. To guarantee the required clock
1478:Drivers/STM32U0xx_HAL_Driver/Src/stm32u0xx_hal_rcc_ex.c ****            precision after waking up from Sleep mode, the LSE or reference clock on the GPIOs
1479:Drivers/STM32U0xx_HAL_Driver/Src/stm32u0xx_hal_rcc_ex.c ****            should be used as SYNC signal.
1480:Drivers/STM32U0xx_HAL_Driver/Src/stm32u0xx_hal_rcc_ex.c **** 
1481:Drivers/STM32U0xx_HAL_Driver/Src/stm32u0xx_hal_rcc_ex.c ****           (##) A polling function is provided to wait for complete synchronization
1482:Drivers/STM32U0xx_HAL_Driver/Src/stm32u0xx_hal_rcc_ex.c ****               (+++) Call function HAL_RCCEx_CRSWaitSynchronization()
1483:Drivers/STM32U0xx_HAL_Driver/Src/stm32u0xx_hal_rcc_ex.c ****               (+++) According to CRS status, user can decide to adjust again the calibration or con
1484:Drivers/STM32U0xx_HAL_Driver/Src/stm32u0xx_hal_rcc_ex.c ****                         application if synchronization is OK
1485:Drivers/STM32U0xx_HAL_Driver/Src/stm32u0xx_hal_rcc_ex.c **** 
1486:Drivers/STM32U0xx_HAL_Driver/Src/stm32u0xx_hal_rcc_ex.c ****       (#) User can retrieve information related to synchronization in calling function
1487:Drivers/STM32U0xx_HAL_Driver/Src/stm32u0xx_hal_rcc_ex.c ****             HAL_RCCEx_CRSGetSynchronizationInfo()
1488:Drivers/STM32U0xx_HAL_Driver/Src/stm32u0xx_hal_rcc_ex.c **** 
1489:Drivers/STM32U0xx_HAL_Driver/Src/stm32u0xx_hal_rcc_ex.c ****       (#) Regarding synchronization status and synchronization information, user can try a new cali
1490:Drivers/STM32U0xx_HAL_Driver/Src/stm32u0xx_hal_rcc_ex.c ****            in changing synchronization configuration and call again HAL_RCCEx_CRSConfig.
1491:Drivers/STM32U0xx_HAL_Driver/Src/stm32u0xx_hal_rcc_ex.c ****            Note: When the SYNC event is detected during the downcounting phase (before reaching the
1492:Drivers/STM32U0xx_HAL_Driver/Src/stm32u0xx_hal_rcc_ex.c ****            it means that the actual frequency is lower than the target (and so, that the TRIM value
1493:Drivers/STM32U0xx_HAL_Driver/Src/stm32u0xx_hal_rcc_ex.c ****            incremented), while when it is detected during the upcounting phase it means that the ac
1494:Drivers/STM32U0xx_HAL_Driver/Src/stm32u0xx_hal_rcc_ex.c ****            is higher (and that the TRIM value should be decremented).
1495:Drivers/STM32U0xx_HAL_Driver/Src/stm32u0xx_hal_rcc_ex.c **** 
1496:Drivers/STM32U0xx_HAL_Driver/Src/stm32u0xx_hal_rcc_ex.c ****       (#) In interrupt mode, user can resort to the available macros (__HAL_RCC_CRS_XXX_IT). Interr
1497:Drivers/STM32U0xx_HAL_Driver/Src/stm32u0xx_hal_rcc_ex.c ****           through CRS Handler (CRS_IRQn/CRS_IRQHandler)
1498:Drivers/STM32U0xx_HAL_Driver/Src/stm32u0xx_hal_rcc_ex.c ****               (++) Call function HAL_RCCEx_CRSConfig()
1499:Drivers/STM32U0xx_HAL_Driver/Src/stm32u0xx_hal_rcc_ex.c ****               (++) Enable CRS_IRQn (thanks to NVIC functions)
1500:Drivers/STM32U0xx_HAL_Driver/Src/stm32u0xx_hal_rcc_ex.c ****               (++) Enable CRS interrupt (__HAL_RCC_CRS_ENABLE_IT)
1501:Drivers/STM32U0xx_HAL_Driver/Src/stm32u0xx_hal_rcc_ex.c ****               (++) Implement CRS status management in the following user callbacks called from
1502:Drivers/STM32U0xx_HAL_Driver/Src/stm32u0xx_hal_rcc_ex.c ****                    HAL_RCCEx_CRS_IRQHandler():
1503:Drivers/STM32U0xx_HAL_Driver/Src/stm32u0xx_hal_rcc_ex.c ****                    (+++) HAL_RCCEx_CRS_SyncOkCallback()
1504:Drivers/STM32U0xx_HAL_Driver/Src/stm32u0xx_hal_rcc_ex.c ****                    (+++) HAL_RCCEx_CRS_SyncWarnCallback()
1505:Drivers/STM32U0xx_HAL_Driver/Src/stm32u0xx_hal_rcc_ex.c ****                    (+++) HAL_RCCEx_CRS_ExpectedSyncCallback()
1506:Drivers/STM32U0xx_HAL_Driver/Src/stm32u0xx_hal_rcc_ex.c ****                    (+++) HAL_RCCEx_CRS_ErrorCallback()
1507:Drivers/STM32U0xx_HAL_Driver/Src/stm32u0xx_hal_rcc_ex.c **** 
1508:Drivers/STM32U0xx_HAL_Driver/Src/stm32u0xx_hal_rcc_ex.c ****       (#) To force a SYNC EVENT, user can use the function HAL_RCCEx_CRSSoftwareSynchronizationGene
1509:Drivers/STM32U0xx_HAL_Driver/Src/stm32u0xx_hal_rcc_ex.c ****           This function can be called before calling HAL_RCCEx_CRSConfig (for instance in Systick h
ARM GAS  C:\Users\upo\AppData\Local\Temp\ccMLO1b7.s 			page 70


1510:Drivers/STM32U0xx_HAL_Driver/Src/stm32u0xx_hal_rcc_ex.c **** 
1511:Drivers/STM32U0xx_HAL_Driver/Src/stm32u0xx_hal_rcc_ex.c **** @endverbatim
1512:Drivers/STM32U0xx_HAL_Driver/Src/stm32u0xx_hal_rcc_ex.c ****   * @{
1513:Drivers/STM32U0xx_HAL_Driver/Src/stm32u0xx_hal_rcc_ex.c ****   */
1514:Drivers/STM32U0xx_HAL_Driver/Src/stm32u0xx_hal_rcc_ex.c **** 
1515:Drivers/STM32U0xx_HAL_Driver/Src/stm32u0xx_hal_rcc_ex.c **** /**
1516:Drivers/STM32U0xx_HAL_Driver/Src/stm32u0xx_hal_rcc_ex.c ****   * @brief  Start automatic synchronization for polling mode
1517:Drivers/STM32U0xx_HAL_Driver/Src/stm32u0xx_hal_rcc_ex.c ****   * @param  pInit Pointer on RCC_CRSInitTypeDef structure
1518:Drivers/STM32U0xx_HAL_Driver/Src/stm32u0xx_hal_rcc_ex.c ****   * @retval None
1519:Drivers/STM32U0xx_HAL_Driver/Src/stm32u0xx_hal_rcc_ex.c ****   */
1520:Drivers/STM32U0xx_HAL_Driver/Src/stm32u0xx_hal_rcc_ex.c **** void HAL_RCCEx_CRSConfig(const RCC_CRSInitTypeDef *const pInit)
1521:Drivers/STM32U0xx_HAL_Driver/Src/stm32u0xx_hal_rcc_ex.c **** {
1522:Drivers/STM32U0xx_HAL_Driver/Src/stm32u0xx_hal_rcc_ex.c ****   uint32_t value;  /* no init needed */
1523:Drivers/STM32U0xx_HAL_Driver/Src/stm32u0xx_hal_rcc_ex.c **** 
1524:Drivers/STM32U0xx_HAL_Driver/Src/stm32u0xx_hal_rcc_ex.c ****   /* Check the parameters */
1525:Drivers/STM32U0xx_HAL_Driver/Src/stm32u0xx_hal_rcc_ex.c ****   assert_param(IS_RCC_CRS_SYNC_DIV(pInit->Prescaler));
1526:Drivers/STM32U0xx_HAL_Driver/Src/stm32u0xx_hal_rcc_ex.c ****   assert_param(IS_RCC_CRS_SYNC_SOURCE(pInit->Source));
1527:Drivers/STM32U0xx_HAL_Driver/Src/stm32u0xx_hal_rcc_ex.c ****   assert_param(IS_RCC_CRS_SYNC_POLARITY(pInit->Polarity));
1528:Drivers/STM32U0xx_HAL_Driver/Src/stm32u0xx_hal_rcc_ex.c ****   assert_param(IS_RCC_CRS_RELOADVALUE(pInit->ReloadValue));
1529:Drivers/STM32U0xx_HAL_Driver/Src/stm32u0xx_hal_rcc_ex.c ****   assert_param(IS_RCC_CRS_ERRORLIMIT(pInit->ErrorLimitValue));
1530:Drivers/STM32U0xx_HAL_Driver/Src/stm32u0xx_hal_rcc_ex.c ****   assert_param(IS_RCC_CRS_HSI48CALIBRATION(pInit->HSI48CalibrationValue));
1531:Drivers/STM32U0xx_HAL_Driver/Src/stm32u0xx_hal_rcc_ex.c **** 
1532:Drivers/STM32U0xx_HAL_Driver/Src/stm32u0xx_hal_rcc_ex.c ****   /* CONFIGURATION */
1533:Drivers/STM32U0xx_HAL_Driver/Src/stm32u0xx_hal_rcc_ex.c **** 
1534:Drivers/STM32U0xx_HAL_Driver/Src/stm32u0xx_hal_rcc_ex.c ****   /* Before configuration, reset CRS registers to their default values*/
1535:Drivers/STM32U0xx_HAL_Driver/Src/stm32u0xx_hal_rcc_ex.c ****   __HAL_RCC_CRS_FORCE_RESET();
1536:Drivers/STM32U0xx_HAL_Driver/Src/stm32u0xx_hal_rcc_ex.c ****   __HAL_RCC_CRS_RELEASE_RESET();
1537:Drivers/STM32U0xx_HAL_Driver/Src/stm32u0xx_hal_rcc_ex.c **** 
1538:Drivers/STM32U0xx_HAL_Driver/Src/stm32u0xx_hal_rcc_ex.c ****   /* Set the SYNCDIV[2:0] bits according to Prescaler value */
1539:Drivers/STM32U0xx_HAL_Driver/Src/stm32u0xx_hal_rcc_ex.c ****   /* Set the SYNCSRC[1:0] bits according to Source value */
1540:Drivers/STM32U0xx_HAL_Driver/Src/stm32u0xx_hal_rcc_ex.c ****   /* Set the SYNCSPOL bit according to Polarity value */
1541:Drivers/STM32U0xx_HAL_Driver/Src/stm32u0xx_hal_rcc_ex.c ****   value = (pInit->Prescaler | pInit->Source | pInit->Polarity);
1542:Drivers/STM32U0xx_HAL_Driver/Src/stm32u0xx_hal_rcc_ex.c ****   /* Set the RELOAD[15:0] bits according to ReloadValue value */
1543:Drivers/STM32U0xx_HAL_Driver/Src/stm32u0xx_hal_rcc_ex.c ****   value |= pInit->ReloadValue;
1544:Drivers/STM32U0xx_HAL_Driver/Src/stm32u0xx_hal_rcc_ex.c ****   /* Set the FELIM[7:0] bits according to ErrorLimitValue value */
1545:Drivers/STM32U0xx_HAL_Driver/Src/stm32u0xx_hal_rcc_ex.c ****   value |= (pInit->ErrorLimitValue << CRS_CFGR_FELIM_Pos);
1546:Drivers/STM32U0xx_HAL_Driver/Src/stm32u0xx_hal_rcc_ex.c ****   WRITE_REG(CRS->CFGR, value);
1547:Drivers/STM32U0xx_HAL_Driver/Src/stm32u0xx_hal_rcc_ex.c **** 
1548:Drivers/STM32U0xx_HAL_Driver/Src/stm32u0xx_hal_rcc_ex.c ****   /* Adjust HSI48 oscillator smooth trimming */
1549:Drivers/STM32U0xx_HAL_Driver/Src/stm32u0xx_hal_rcc_ex.c ****   /* Set the TRIM[6:0] bits according to RCC_CRS_HSI48CalibrationValue value */
1550:Drivers/STM32U0xx_HAL_Driver/Src/stm32u0xx_hal_rcc_ex.c ****   MODIFY_REG(CRS->CR, CRS_CR_TRIM, (pInit->HSI48CalibrationValue << CRS_CR_TRIM_Pos));
1551:Drivers/STM32U0xx_HAL_Driver/Src/stm32u0xx_hal_rcc_ex.c **** 
1552:Drivers/STM32U0xx_HAL_Driver/Src/stm32u0xx_hal_rcc_ex.c ****   /* START AUTOMATIC SYNCHRONIZATION*/
1553:Drivers/STM32U0xx_HAL_Driver/Src/stm32u0xx_hal_rcc_ex.c **** 
1554:Drivers/STM32U0xx_HAL_Driver/Src/stm32u0xx_hal_rcc_ex.c ****   /* Enable Automatic trimming & Frequency error counter */
1555:Drivers/STM32U0xx_HAL_Driver/Src/stm32u0xx_hal_rcc_ex.c ****   SET_BIT(CRS->CR, CRS_CR_AUTOTRIMEN | CRS_CR_CEN);
1556:Drivers/STM32U0xx_HAL_Driver/Src/stm32u0xx_hal_rcc_ex.c **** }
1557:Drivers/STM32U0xx_HAL_Driver/Src/stm32u0xx_hal_rcc_ex.c **** 
1558:Drivers/STM32U0xx_HAL_Driver/Src/stm32u0xx_hal_rcc_ex.c **** /**
1559:Drivers/STM32U0xx_HAL_Driver/Src/stm32u0xx_hal_rcc_ex.c ****   * @brief  Generate the software synchronization event
1560:Drivers/STM32U0xx_HAL_Driver/Src/stm32u0xx_hal_rcc_ex.c ****   * @retval None
1561:Drivers/STM32U0xx_HAL_Driver/Src/stm32u0xx_hal_rcc_ex.c ****   */
1562:Drivers/STM32U0xx_HAL_Driver/Src/stm32u0xx_hal_rcc_ex.c **** void HAL_RCCEx_CRSSoftwareSynchronizationGenerate(void)
1563:Drivers/STM32U0xx_HAL_Driver/Src/stm32u0xx_hal_rcc_ex.c **** {
1564:Drivers/STM32U0xx_HAL_Driver/Src/stm32u0xx_hal_rcc_ex.c ****   SET_BIT(CRS->CR, CRS_CR_SWSYNC);
1565:Drivers/STM32U0xx_HAL_Driver/Src/stm32u0xx_hal_rcc_ex.c **** }
1566:Drivers/STM32U0xx_HAL_Driver/Src/stm32u0xx_hal_rcc_ex.c **** 
ARM GAS  C:\Users\upo\AppData\Local\Temp\ccMLO1b7.s 			page 71


1567:Drivers/STM32U0xx_HAL_Driver/Src/stm32u0xx_hal_rcc_ex.c **** /**
1568:Drivers/STM32U0xx_HAL_Driver/Src/stm32u0xx_hal_rcc_ex.c ****   * @brief  Return synchronization info
1569:Drivers/STM32U0xx_HAL_Driver/Src/stm32u0xx_hal_rcc_ex.c ****   * @param  pSynchroInfo Pointer on RCC_CRSSynchroInfoTypeDef structure
1570:Drivers/STM32U0xx_HAL_Driver/Src/stm32u0xx_hal_rcc_ex.c ****   * @retval None
1571:Drivers/STM32U0xx_HAL_Driver/Src/stm32u0xx_hal_rcc_ex.c ****   */
1572:Drivers/STM32U0xx_HAL_Driver/Src/stm32u0xx_hal_rcc_ex.c **** void HAL_RCCEx_CRSGetSynchronizationInfo(RCC_CRSSynchroInfoTypeDef *pSynchroInfo)
1573:Drivers/STM32U0xx_HAL_Driver/Src/stm32u0xx_hal_rcc_ex.c **** {
1574:Drivers/STM32U0xx_HAL_Driver/Src/stm32u0xx_hal_rcc_ex.c ****   /* Check the parameter */
1575:Drivers/STM32U0xx_HAL_Driver/Src/stm32u0xx_hal_rcc_ex.c ****   assert_param(pSynchroInfo != (void *)NULL);
1576:Drivers/STM32U0xx_HAL_Driver/Src/stm32u0xx_hal_rcc_ex.c **** 
1577:Drivers/STM32U0xx_HAL_Driver/Src/stm32u0xx_hal_rcc_ex.c ****   /* Get the reload value */
1578:Drivers/STM32U0xx_HAL_Driver/Src/stm32u0xx_hal_rcc_ex.c ****   pSynchroInfo->ReloadValue = (READ_BIT(CRS->CFGR, CRS_CFGR_RELOAD));
1579:Drivers/STM32U0xx_HAL_Driver/Src/stm32u0xx_hal_rcc_ex.c **** 
1580:Drivers/STM32U0xx_HAL_Driver/Src/stm32u0xx_hal_rcc_ex.c ****   /* Get HSI48 oscillator smooth trimming */
1581:Drivers/STM32U0xx_HAL_Driver/Src/stm32u0xx_hal_rcc_ex.c ****   pSynchroInfo->HSI48CalibrationValue = (READ_BIT(CRS->CR, CRS_CR_TRIM) >> CRS_CR_TRIM_Pos);
1582:Drivers/STM32U0xx_HAL_Driver/Src/stm32u0xx_hal_rcc_ex.c **** 
1583:Drivers/STM32U0xx_HAL_Driver/Src/stm32u0xx_hal_rcc_ex.c ****   /* Get Frequency error capture */
1584:Drivers/STM32U0xx_HAL_Driver/Src/stm32u0xx_hal_rcc_ex.c ****   pSynchroInfo->FreqErrorCapture = (READ_BIT(CRS->ISR, CRS_ISR_FECAP) >> CRS_ISR_FECAP_Pos);
1585:Drivers/STM32U0xx_HAL_Driver/Src/stm32u0xx_hal_rcc_ex.c **** 
1586:Drivers/STM32U0xx_HAL_Driver/Src/stm32u0xx_hal_rcc_ex.c ****   /* Get Frequency error direction */
1587:Drivers/STM32U0xx_HAL_Driver/Src/stm32u0xx_hal_rcc_ex.c ****   pSynchroInfo->FreqErrorDirection = (READ_BIT(CRS->ISR, CRS_ISR_FEDIR));
1588:Drivers/STM32U0xx_HAL_Driver/Src/stm32u0xx_hal_rcc_ex.c **** }
1589:Drivers/STM32U0xx_HAL_Driver/Src/stm32u0xx_hal_rcc_ex.c **** 
1590:Drivers/STM32U0xx_HAL_Driver/Src/stm32u0xx_hal_rcc_ex.c **** /**
1591:Drivers/STM32U0xx_HAL_Driver/Src/stm32u0xx_hal_rcc_ex.c ****   * @brief Wait for CRS Synchronization status.
1592:Drivers/STM32U0xx_HAL_Driver/Src/stm32u0xx_hal_rcc_ex.c ****   * @param Timeout  Duration of the timeout
1593:Drivers/STM32U0xx_HAL_Driver/Src/stm32u0xx_hal_rcc_ex.c ****   * @note  Timeout is based on the maximum time to receive a SYNC event based on synchronization
1594:Drivers/STM32U0xx_HAL_Driver/Src/stm32u0xx_hal_rcc_ex.c ****   *        frequency.
1595:Drivers/STM32U0xx_HAL_Driver/Src/stm32u0xx_hal_rcc_ex.c ****   * @note    If Timeout set to HAL_MAX_DELAY, HAL_TIMEOUT will be never returned.
1596:Drivers/STM32U0xx_HAL_Driver/Src/stm32u0xx_hal_rcc_ex.c ****   * @retval Combination of Synchronization status
1597:Drivers/STM32U0xx_HAL_Driver/Src/stm32u0xx_hal_rcc_ex.c ****   *          This parameter can be a combination of the following values:
1598:Drivers/STM32U0xx_HAL_Driver/Src/stm32u0xx_hal_rcc_ex.c ****   *            @arg @ref RCC_CRS_TIMEOUT
1599:Drivers/STM32U0xx_HAL_Driver/Src/stm32u0xx_hal_rcc_ex.c ****   *            @arg @ref RCC_CRS_SYNCOK
1600:Drivers/STM32U0xx_HAL_Driver/Src/stm32u0xx_hal_rcc_ex.c ****   *            @arg @ref RCC_CRS_SYNCWARN
1601:Drivers/STM32U0xx_HAL_Driver/Src/stm32u0xx_hal_rcc_ex.c ****   *            @arg @ref RCC_CRS_SYNCERR
1602:Drivers/STM32U0xx_HAL_Driver/Src/stm32u0xx_hal_rcc_ex.c ****   *            @arg @ref RCC_CRS_SYNCMISS
1603:Drivers/STM32U0xx_HAL_Driver/Src/stm32u0xx_hal_rcc_ex.c ****   *            @arg @ref RCC_CRS_TRIMOVF
1604:Drivers/STM32U0xx_HAL_Driver/Src/stm32u0xx_hal_rcc_ex.c ****   */
1605:Drivers/STM32U0xx_HAL_Driver/Src/stm32u0xx_hal_rcc_ex.c **** uint32_t HAL_RCCEx_CRSWaitSynchronization(uint32_t Timeout)
1606:Drivers/STM32U0xx_HAL_Driver/Src/stm32u0xx_hal_rcc_ex.c **** {
1607:Drivers/STM32U0xx_HAL_Driver/Src/stm32u0xx_hal_rcc_ex.c ****   uint32_t crsstatus = RCC_CRS_NONE;
1608:Drivers/STM32U0xx_HAL_Driver/Src/stm32u0xx_hal_rcc_ex.c ****   uint32_t tickstart;
1609:Drivers/STM32U0xx_HAL_Driver/Src/stm32u0xx_hal_rcc_ex.c **** 
1610:Drivers/STM32U0xx_HAL_Driver/Src/stm32u0xx_hal_rcc_ex.c ****   /* Get timeout */
1611:Drivers/STM32U0xx_HAL_Driver/Src/stm32u0xx_hal_rcc_ex.c ****   tickstart = HAL_GetTick();
1612:Drivers/STM32U0xx_HAL_Driver/Src/stm32u0xx_hal_rcc_ex.c **** 
1613:Drivers/STM32U0xx_HAL_Driver/Src/stm32u0xx_hal_rcc_ex.c ****   /* Wait for CRS flag or timeout detection */
1614:Drivers/STM32U0xx_HAL_Driver/Src/stm32u0xx_hal_rcc_ex.c ****   do
1615:Drivers/STM32U0xx_HAL_Driver/Src/stm32u0xx_hal_rcc_ex.c ****   {
1616:Drivers/STM32U0xx_HAL_Driver/Src/stm32u0xx_hal_rcc_ex.c ****     if (Timeout != HAL_MAX_DELAY)
1617:Drivers/STM32U0xx_HAL_Driver/Src/stm32u0xx_hal_rcc_ex.c ****     {
1618:Drivers/STM32U0xx_HAL_Driver/Src/stm32u0xx_hal_rcc_ex.c ****       if (((HAL_GetTick() - tickstart) > Timeout) || (Timeout == 0U))
1619:Drivers/STM32U0xx_HAL_Driver/Src/stm32u0xx_hal_rcc_ex.c ****       {
1620:Drivers/STM32U0xx_HAL_Driver/Src/stm32u0xx_hal_rcc_ex.c ****         crsstatus = RCC_CRS_TIMEOUT;
1621:Drivers/STM32U0xx_HAL_Driver/Src/stm32u0xx_hal_rcc_ex.c ****       }
1622:Drivers/STM32U0xx_HAL_Driver/Src/stm32u0xx_hal_rcc_ex.c ****     }
1623:Drivers/STM32U0xx_HAL_Driver/Src/stm32u0xx_hal_rcc_ex.c ****     /* Check CRS SYNCOK flag  */
ARM GAS  C:\Users\upo\AppData\Local\Temp\ccMLO1b7.s 			page 72


1624:Drivers/STM32U0xx_HAL_Driver/Src/stm32u0xx_hal_rcc_ex.c ****     if (__HAL_RCC_CRS_GET_FLAG(RCC_CRS_FLAG_SYNCOK))
1625:Drivers/STM32U0xx_HAL_Driver/Src/stm32u0xx_hal_rcc_ex.c ****     {
1626:Drivers/STM32U0xx_HAL_Driver/Src/stm32u0xx_hal_rcc_ex.c ****       /* CRS SYNC event OK */
1627:Drivers/STM32U0xx_HAL_Driver/Src/stm32u0xx_hal_rcc_ex.c ****       crsstatus |= RCC_CRS_SYNCOK;
1628:Drivers/STM32U0xx_HAL_Driver/Src/stm32u0xx_hal_rcc_ex.c **** 
1629:Drivers/STM32U0xx_HAL_Driver/Src/stm32u0xx_hal_rcc_ex.c ****       /* Clear CRS SYNC event OK bit */
1630:Drivers/STM32U0xx_HAL_Driver/Src/stm32u0xx_hal_rcc_ex.c ****       __HAL_RCC_CRS_CLEAR_FLAG(RCC_CRS_FLAG_SYNCOK);
1631:Drivers/STM32U0xx_HAL_Driver/Src/stm32u0xx_hal_rcc_ex.c ****     }
1632:Drivers/STM32U0xx_HAL_Driver/Src/stm32u0xx_hal_rcc_ex.c **** 
1633:Drivers/STM32U0xx_HAL_Driver/Src/stm32u0xx_hal_rcc_ex.c ****     /* Check CRS SYNCWARN flag  */
1634:Drivers/STM32U0xx_HAL_Driver/Src/stm32u0xx_hal_rcc_ex.c ****     if (__HAL_RCC_CRS_GET_FLAG(RCC_CRS_FLAG_SYNCWARN))
1635:Drivers/STM32U0xx_HAL_Driver/Src/stm32u0xx_hal_rcc_ex.c ****     {
1636:Drivers/STM32U0xx_HAL_Driver/Src/stm32u0xx_hal_rcc_ex.c ****       /* CRS SYNC warning */
1637:Drivers/STM32U0xx_HAL_Driver/Src/stm32u0xx_hal_rcc_ex.c ****       crsstatus |= RCC_CRS_SYNCWARN;
1638:Drivers/STM32U0xx_HAL_Driver/Src/stm32u0xx_hal_rcc_ex.c **** 
1639:Drivers/STM32U0xx_HAL_Driver/Src/stm32u0xx_hal_rcc_ex.c ****       /* Clear CRS SYNCWARN bit */
1640:Drivers/STM32U0xx_HAL_Driver/Src/stm32u0xx_hal_rcc_ex.c ****       __HAL_RCC_CRS_CLEAR_FLAG(RCC_CRS_FLAG_SYNCWARN);
1641:Drivers/STM32U0xx_HAL_Driver/Src/stm32u0xx_hal_rcc_ex.c ****     }
1642:Drivers/STM32U0xx_HAL_Driver/Src/stm32u0xx_hal_rcc_ex.c **** 
1643:Drivers/STM32U0xx_HAL_Driver/Src/stm32u0xx_hal_rcc_ex.c ****     /* Check CRS TRIM overflow flag  */
1644:Drivers/STM32U0xx_HAL_Driver/Src/stm32u0xx_hal_rcc_ex.c ****     if (__HAL_RCC_CRS_GET_FLAG(RCC_CRS_FLAG_TRIMOVF))
1645:Drivers/STM32U0xx_HAL_Driver/Src/stm32u0xx_hal_rcc_ex.c ****     {
1646:Drivers/STM32U0xx_HAL_Driver/Src/stm32u0xx_hal_rcc_ex.c ****       /* CRS SYNC Error */
1647:Drivers/STM32U0xx_HAL_Driver/Src/stm32u0xx_hal_rcc_ex.c ****       crsstatus |= RCC_CRS_TRIMOVF;
1648:Drivers/STM32U0xx_HAL_Driver/Src/stm32u0xx_hal_rcc_ex.c **** 
1649:Drivers/STM32U0xx_HAL_Driver/Src/stm32u0xx_hal_rcc_ex.c ****       /* Clear CRS Error bit */
1650:Drivers/STM32U0xx_HAL_Driver/Src/stm32u0xx_hal_rcc_ex.c ****       __HAL_RCC_CRS_CLEAR_FLAG(RCC_CRS_FLAG_TRIMOVF);
1651:Drivers/STM32U0xx_HAL_Driver/Src/stm32u0xx_hal_rcc_ex.c ****     }
1652:Drivers/STM32U0xx_HAL_Driver/Src/stm32u0xx_hal_rcc_ex.c **** 
1653:Drivers/STM32U0xx_HAL_Driver/Src/stm32u0xx_hal_rcc_ex.c ****     /* Check CRS Error flag  */
1654:Drivers/STM32U0xx_HAL_Driver/Src/stm32u0xx_hal_rcc_ex.c ****     if (__HAL_RCC_CRS_GET_FLAG(RCC_CRS_FLAG_SYNCERR))
1655:Drivers/STM32U0xx_HAL_Driver/Src/stm32u0xx_hal_rcc_ex.c ****     {
1656:Drivers/STM32U0xx_HAL_Driver/Src/stm32u0xx_hal_rcc_ex.c ****       /* CRS SYNC Error */
1657:Drivers/STM32U0xx_HAL_Driver/Src/stm32u0xx_hal_rcc_ex.c ****       crsstatus |= RCC_CRS_SYNCERR;
1658:Drivers/STM32U0xx_HAL_Driver/Src/stm32u0xx_hal_rcc_ex.c **** 
1659:Drivers/STM32U0xx_HAL_Driver/Src/stm32u0xx_hal_rcc_ex.c ****       /* Clear CRS Error bit */
1660:Drivers/STM32U0xx_HAL_Driver/Src/stm32u0xx_hal_rcc_ex.c ****       __HAL_RCC_CRS_CLEAR_FLAG(RCC_CRS_FLAG_SYNCERR);
1661:Drivers/STM32U0xx_HAL_Driver/Src/stm32u0xx_hal_rcc_ex.c ****     }
1662:Drivers/STM32U0xx_HAL_Driver/Src/stm32u0xx_hal_rcc_ex.c **** 
1663:Drivers/STM32U0xx_HAL_Driver/Src/stm32u0xx_hal_rcc_ex.c ****     /* Check CRS SYNC Missed flag  */
1664:Drivers/STM32U0xx_HAL_Driver/Src/stm32u0xx_hal_rcc_ex.c ****     if (__HAL_RCC_CRS_GET_FLAG(RCC_CRS_FLAG_SYNCMISS))
1665:Drivers/STM32U0xx_HAL_Driver/Src/stm32u0xx_hal_rcc_ex.c ****     {
1666:Drivers/STM32U0xx_HAL_Driver/Src/stm32u0xx_hal_rcc_ex.c ****       /* CRS SYNC Missed */
1667:Drivers/STM32U0xx_HAL_Driver/Src/stm32u0xx_hal_rcc_ex.c ****       crsstatus |= RCC_CRS_SYNCMISS;
1668:Drivers/STM32U0xx_HAL_Driver/Src/stm32u0xx_hal_rcc_ex.c **** 
1669:Drivers/STM32U0xx_HAL_Driver/Src/stm32u0xx_hal_rcc_ex.c ****       /* Clear CRS SYNC Missed bit */
1670:Drivers/STM32U0xx_HAL_Driver/Src/stm32u0xx_hal_rcc_ex.c ****       __HAL_RCC_CRS_CLEAR_FLAG(RCC_CRS_FLAG_SYNCMISS);
1671:Drivers/STM32U0xx_HAL_Driver/Src/stm32u0xx_hal_rcc_ex.c ****     }
1672:Drivers/STM32U0xx_HAL_Driver/Src/stm32u0xx_hal_rcc_ex.c **** 
1673:Drivers/STM32U0xx_HAL_Driver/Src/stm32u0xx_hal_rcc_ex.c ****     /* Check CRS Expected SYNC flag  */
1674:Drivers/STM32U0xx_HAL_Driver/Src/stm32u0xx_hal_rcc_ex.c ****     if (__HAL_RCC_CRS_GET_FLAG(RCC_CRS_FLAG_ESYNC))
1675:Drivers/STM32U0xx_HAL_Driver/Src/stm32u0xx_hal_rcc_ex.c ****     {
1676:Drivers/STM32U0xx_HAL_Driver/Src/stm32u0xx_hal_rcc_ex.c ****       /* frequency error counter reached a zero value */
1677:Drivers/STM32U0xx_HAL_Driver/Src/stm32u0xx_hal_rcc_ex.c ****       __HAL_RCC_CRS_CLEAR_FLAG(RCC_CRS_FLAG_ESYNC);
1678:Drivers/STM32U0xx_HAL_Driver/Src/stm32u0xx_hal_rcc_ex.c ****     }
1679:Drivers/STM32U0xx_HAL_Driver/Src/stm32u0xx_hal_rcc_ex.c ****   } while (RCC_CRS_NONE == crsstatus);
1680:Drivers/STM32U0xx_HAL_Driver/Src/stm32u0xx_hal_rcc_ex.c **** 
ARM GAS  C:\Users\upo\AppData\Local\Temp\ccMLO1b7.s 			page 73


1681:Drivers/STM32U0xx_HAL_Driver/Src/stm32u0xx_hal_rcc_ex.c ****   return crsstatus;
1682:Drivers/STM32U0xx_HAL_Driver/Src/stm32u0xx_hal_rcc_ex.c **** }
1683:Drivers/STM32U0xx_HAL_Driver/Src/stm32u0xx_hal_rcc_ex.c **** 
1684:Drivers/STM32U0xx_HAL_Driver/Src/stm32u0xx_hal_rcc_ex.c **** /**
1685:Drivers/STM32U0xx_HAL_Driver/Src/stm32u0xx_hal_rcc_ex.c ****   * @brief Handle the Clock Recovery System interrupt request.
1686:Drivers/STM32U0xx_HAL_Driver/Src/stm32u0xx_hal_rcc_ex.c ****   * @retval None
1687:Drivers/STM32U0xx_HAL_Driver/Src/stm32u0xx_hal_rcc_ex.c ****   */
1688:Drivers/STM32U0xx_HAL_Driver/Src/stm32u0xx_hal_rcc_ex.c **** void HAL_RCCEx_CRS_IRQHandler(void)
1689:Drivers/STM32U0xx_HAL_Driver/Src/stm32u0xx_hal_rcc_ex.c **** {
1690:Drivers/STM32U0xx_HAL_Driver/Src/stm32u0xx_hal_rcc_ex.c ****   uint32_t crserror = RCC_CRS_NONE;
1691:Drivers/STM32U0xx_HAL_Driver/Src/stm32u0xx_hal_rcc_ex.c ****   /* Get current IT flags and IT sources values */
1692:Drivers/STM32U0xx_HAL_Driver/Src/stm32u0xx_hal_rcc_ex.c ****   uint32_t itflags = READ_REG(CRS->ISR);
1693:Drivers/STM32U0xx_HAL_Driver/Src/stm32u0xx_hal_rcc_ex.c ****   uint32_t itsources = READ_REG(CRS->CR);
1694:Drivers/STM32U0xx_HAL_Driver/Src/stm32u0xx_hal_rcc_ex.c **** 
1695:Drivers/STM32U0xx_HAL_Driver/Src/stm32u0xx_hal_rcc_ex.c ****   /* Check CRS SYNCOK flag  */
1696:Drivers/STM32U0xx_HAL_Driver/Src/stm32u0xx_hal_rcc_ex.c ****   if (((itflags & RCC_CRS_FLAG_SYNCOK) != 0U) && ((itsources & RCC_CRS_IT_SYNCOK) != 0U))
1697:Drivers/STM32U0xx_HAL_Driver/Src/stm32u0xx_hal_rcc_ex.c ****   {
1698:Drivers/STM32U0xx_HAL_Driver/Src/stm32u0xx_hal_rcc_ex.c ****     /* Clear CRS SYNC event OK flag */
1699:Drivers/STM32U0xx_HAL_Driver/Src/stm32u0xx_hal_rcc_ex.c ****     WRITE_REG(CRS->ICR, CRS_ICR_SYNCOKC);
1700:Drivers/STM32U0xx_HAL_Driver/Src/stm32u0xx_hal_rcc_ex.c **** 
1701:Drivers/STM32U0xx_HAL_Driver/Src/stm32u0xx_hal_rcc_ex.c ****     /* user callback */
1702:Drivers/STM32U0xx_HAL_Driver/Src/stm32u0xx_hal_rcc_ex.c ****     HAL_RCCEx_CRS_SyncOkCallback();
1703:Drivers/STM32U0xx_HAL_Driver/Src/stm32u0xx_hal_rcc_ex.c ****   }
1704:Drivers/STM32U0xx_HAL_Driver/Src/stm32u0xx_hal_rcc_ex.c ****   /* Check CRS SYNCWARN flag  */
1705:Drivers/STM32U0xx_HAL_Driver/Src/stm32u0xx_hal_rcc_ex.c ****   else if (((itflags & RCC_CRS_FLAG_SYNCWARN) != 0U) && ((itsources & RCC_CRS_IT_SYNCWARN) != 0U))
1706:Drivers/STM32U0xx_HAL_Driver/Src/stm32u0xx_hal_rcc_ex.c ****   {
1707:Drivers/STM32U0xx_HAL_Driver/Src/stm32u0xx_hal_rcc_ex.c ****     /* Clear CRS SYNCWARN flag */
1708:Drivers/STM32U0xx_HAL_Driver/Src/stm32u0xx_hal_rcc_ex.c ****     WRITE_REG(CRS->ICR, CRS_ICR_SYNCWARNC);
1709:Drivers/STM32U0xx_HAL_Driver/Src/stm32u0xx_hal_rcc_ex.c **** 
1710:Drivers/STM32U0xx_HAL_Driver/Src/stm32u0xx_hal_rcc_ex.c ****     /* user callback */
1711:Drivers/STM32U0xx_HAL_Driver/Src/stm32u0xx_hal_rcc_ex.c ****     HAL_RCCEx_CRS_SyncWarnCallback();
1712:Drivers/STM32U0xx_HAL_Driver/Src/stm32u0xx_hal_rcc_ex.c ****   }
1713:Drivers/STM32U0xx_HAL_Driver/Src/stm32u0xx_hal_rcc_ex.c ****   /* Check CRS Expected SYNC flag  */
1714:Drivers/STM32U0xx_HAL_Driver/Src/stm32u0xx_hal_rcc_ex.c ****   else if (((itflags & RCC_CRS_FLAG_ESYNC) != 0U) && ((itsources & RCC_CRS_IT_ESYNC) != 0U))
1715:Drivers/STM32U0xx_HAL_Driver/Src/stm32u0xx_hal_rcc_ex.c ****   {
1716:Drivers/STM32U0xx_HAL_Driver/Src/stm32u0xx_hal_rcc_ex.c ****     /* frequency error counter reached a zero value */
1717:Drivers/STM32U0xx_HAL_Driver/Src/stm32u0xx_hal_rcc_ex.c ****     WRITE_REG(CRS->ICR, CRS_ICR_ESYNCC);
1718:Drivers/STM32U0xx_HAL_Driver/Src/stm32u0xx_hal_rcc_ex.c **** 
1719:Drivers/STM32U0xx_HAL_Driver/Src/stm32u0xx_hal_rcc_ex.c ****     /* user callback */
1720:Drivers/STM32U0xx_HAL_Driver/Src/stm32u0xx_hal_rcc_ex.c ****     HAL_RCCEx_CRS_ExpectedSyncCallback();
1721:Drivers/STM32U0xx_HAL_Driver/Src/stm32u0xx_hal_rcc_ex.c ****   }
1722:Drivers/STM32U0xx_HAL_Driver/Src/stm32u0xx_hal_rcc_ex.c ****   /* Check CRS Error flags  */
1723:Drivers/STM32U0xx_HAL_Driver/Src/stm32u0xx_hal_rcc_ex.c ****   else
1724:Drivers/STM32U0xx_HAL_Driver/Src/stm32u0xx_hal_rcc_ex.c ****   {
1725:Drivers/STM32U0xx_HAL_Driver/Src/stm32u0xx_hal_rcc_ex.c ****     if (((itflags & RCC_CRS_FLAG_ERR) != 0U) && ((itsources & RCC_CRS_IT_ERR) != 0U))
1726:Drivers/STM32U0xx_HAL_Driver/Src/stm32u0xx_hal_rcc_ex.c ****     {
1727:Drivers/STM32U0xx_HAL_Driver/Src/stm32u0xx_hal_rcc_ex.c ****       if ((itflags & RCC_CRS_FLAG_SYNCERR) != 0U)
1728:Drivers/STM32U0xx_HAL_Driver/Src/stm32u0xx_hal_rcc_ex.c ****       {
1729:Drivers/STM32U0xx_HAL_Driver/Src/stm32u0xx_hal_rcc_ex.c ****         crserror |= RCC_CRS_SYNCERR;
1730:Drivers/STM32U0xx_HAL_Driver/Src/stm32u0xx_hal_rcc_ex.c ****       }
1731:Drivers/STM32U0xx_HAL_Driver/Src/stm32u0xx_hal_rcc_ex.c ****       if ((itflags & RCC_CRS_FLAG_SYNCMISS) != 0U)
1732:Drivers/STM32U0xx_HAL_Driver/Src/stm32u0xx_hal_rcc_ex.c ****       {
1733:Drivers/STM32U0xx_HAL_Driver/Src/stm32u0xx_hal_rcc_ex.c ****         crserror |= RCC_CRS_SYNCMISS;
1734:Drivers/STM32U0xx_HAL_Driver/Src/stm32u0xx_hal_rcc_ex.c ****       }
1735:Drivers/STM32U0xx_HAL_Driver/Src/stm32u0xx_hal_rcc_ex.c ****       if ((itflags & RCC_CRS_FLAG_TRIMOVF) != 0U)
1736:Drivers/STM32U0xx_HAL_Driver/Src/stm32u0xx_hal_rcc_ex.c ****       {
1737:Drivers/STM32U0xx_HAL_Driver/Src/stm32u0xx_hal_rcc_ex.c ****         crserror |= RCC_CRS_TRIMOVF;
ARM GAS  C:\Users\upo\AppData\Local\Temp\ccMLO1b7.s 			page 74


1738:Drivers/STM32U0xx_HAL_Driver/Src/stm32u0xx_hal_rcc_ex.c ****       }
1739:Drivers/STM32U0xx_HAL_Driver/Src/stm32u0xx_hal_rcc_ex.c **** 
1740:Drivers/STM32U0xx_HAL_Driver/Src/stm32u0xx_hal_rcc_ex.c ****       /* Clear CRS Error flags */
1741:Drivers/STM32U0xx_HAL_Driver/Src/stm32u0xx_hal_rcc_ex.c ****       WRITE_REG(CRS->ICR, CRS_ICR_ERRC);
1742:Drivers/STM32U0xx_HAL_Driver/Src/stm32u0xx_hal_rcc_ex.c **** 
1743:Drivers/STM32U0xx_HAL_Driver/Src/stm32u0xx_hal_rcc_ex.c ****       /* user error callback */
1744:Drivers/STM32U0xx_HAL_Driver/Src/stm32u0xx_hal_rcc_ex.c ****       HAL_RCCEx_CRS_ErrorCallback(crserror);
1745:Drivers/STM32U0xx_HAL_Driver/Src/stm32u0xx_hal_rcc_ex.c ****     }
1746:Drivers/STM32U0xx_HAL_Driver/Src/stm32u0xx_hal_rcc_ex.c ****   }
1747:Drivers/STM32U0xx_HAL_Driver/Src/stm32u0xx_hal_rcc_ex.c **** }
1748:Drivers/STM32U0xx_HAL_Driver/Src/stm32u0xx_hal_rcc_ex.c **** 
1749:Drivers/STM32U0xx_HAL_Driver/Src/stm32u0xx_hal_rcc_ex.c **** /**
1750:Drivers/STM32U0xx_HAL_Driver/Src/stm32u0xx_hal_rcc_ex.c ****   * @brief  RCCEx Clock Recovery System SYNCOK interrupt callback.
1751:Drivers/STM32U0xx_HAL_Driver/Src/stm32u0xx_hal_rcc_ex.c ****   * @retval none
1752:Drivers/STM32U0xx_HAL_Driver/Src/stm32u0xx_hal_rcc_ex.c ****   */
1753:Drivers/STM32U0xx_HAL_Driver/Src/stm32u0xx_hal_rcc_ex.c **** __weak void HAL_RCCEx_CRS_SyncOkCallback(void)
1754:Drivers/STM32U0xx_HAL_Driver/Src/stm32u0xx_hal_rcc_ex.c **** {
1755:Drivers/STM32U0xx_HAL_Driver/Src/stm32u0xx_hal_rcc_ex.c ****   /* NOTE : This function should not be modified, when the callback is needed,
1756:Drivers/STM32U0xx_HAL_Driver/Src/stm32u0xx_hal_rcc_ex.c ****             the @ref HAL_RCCEx_CRS_SyncOkCallback should be implemented in the user file
1757:Drivers/STM32U0xx_HAL_Driver/Src/stm32u0xx_hal_rcc_ex.c ****    */
1758:Drivers/STM32U0xx_HAL_Driver/Src/stm32u0xx_hal_rcc_ex.c **** }
1759:Drivers/STM32U0xx_HAL_Driver/Src/stm32u0xx_hal_rcc_ex.c **** 
1760:Drivers/STM32U0xx_HAL_Driver/Src/stm32u0xx_hal_rcc_ex.c **** /**
1761:Drivers/STM32U0xx_HAL_Driver/Src/stm32u0xx_hal_rcc_ex.c ****   * @brief  RCCEx Clock Recovery System SYNCWARN interrupt callback.
1762:Drivers/STM32U0xx_HAL_Driver/Src/stm32u0xx_hal_rcc_ex.c ****   * @retval none
1763:Drivers/STM32U0xx_HAL_Driver/Src/stm32u0xx_hal_rcc_ex.c ****   */
1764:Drivers/STM32U0xx_HAL_Driver/Src/stm32u0xx_hal_rcc_ex.c **** __weak void HAL_RCCEx_CRS_SyncWarnCallback(void)
1765:Drivers/STM32U0xx_HAL_Driver/Src/stm32u0xx_hal_rcc_ex.c **** {
1766:Drivers/STM32U0xx_HAL_Driver/Src/stm32u0xx_hal_rcc_ex.c ****   /* NOTE : This function should not be modified, when the callback is needed,
1767:Drivers/STM32U0xx_HAL_Driver/Src/stm32u0xx_hal_rcc_ex.c ****             the @ref HAL_RCCEx_CRS_SyncWarnCallback should be implemented in the user file
1768:Drivers/STM32U0xx_HAL_Driver/Src/stm32u0xx_hal_rcc_ex.c ****    */
1769:Drivers/STM32U0xx_HAL_Driver/Src/stm32u0xx_hal_rcc_ex.c **** }
1770:Drivers/STM32U0xx_HAL_Driver/Src/stm32u0xx_hal_rcc_ex.c **** 
1771:Drivers/STM32U0xx_HAL_Driver/Src/stm32u0xx_hal_rcc_ex.c **** /**
1772:Drivers/STM32U0xx_HAL_Driver/Src/stm32u0xx_hal_rcc_ex.c ****   * @brief  RCCEx Clock Recovery System Expected SYNC interrupt callback.
1773:Drivers/STM32U0xx_HAL_Driver/Src/stm32u0xx_hal_rcc_ex.c ****   * @retval none
1774:Drivers/STM32U0xx_HAL_Driver/Src/stm32u0xx_hal_rcc_ex.c ****   */
1775:Drivers/STM32U0xx_HAL_Driver/Src/stm32u0xx_hal_rcc_ex.c **** __weak void HAL_RCCEx_CRS_ExpectedSyncCallback(void)
1776:Drivers/STM32U0xx_HAL_Driver/Src/stm32u0xx_hal_rcc_ex.c **** {
1777:Drivers/STM32U0xx_HAL_Driver/Src/stm32u0xx_hal_rcc_ex.c ****   /* NOTE : This function should not be modified, when the callback is needed,
1778:Drivers/STM32U0xx_HAL_Driver/Src/stm32u0xx_hal_rcc_ex.c ****             the @ref HAL_RCCEx_CRS_ExpectedSyncCallback should be implemented in the user file
1779:Drivers/STM32U0xx_HAL_Driver/Src/stm32u0xx_hal_rcc_ex.c ****    */
1780:Drivers/STM32U0xx_HAL_Driver/Src/stm32u0xx_hal_rcc_ex.c **** }
1781:Drivers/STM32U0xx_HAL_Driver/Src/stm32u0xx_hal_rcc_ex.c **** 
1782:Drivers/STM32U0xx_HAL_Driver/Src/stm32u0xx_hal_rcc_ex.c **** /**
1783:Drivers/STM32U0xx_HAL_Driver/Src/stm32u0xx_hal_rcc_ex.c ****   * @brief  RCCEx Clock Recovery System Error interrupt callback.
1784:Drivers/STM32U0xx_HAL_Driver/Src/stm32u0xx_hal_rcc_ex.c ****   * @param  Error Combination of Error status.
1785:Drivers/STM32U0xx_HAL_Driver/Src/stm32u0xx_hal_rcc_ex.c ****   *         This parameter can be a combination of the following values:
1786:Drivers/STM32U0xx_HAL_Driver/Src/stm32u0xx_hal_rcc_ex.c ****   *           @arg @ref RCC_CRS_SYNCERR
1787:Drivers/STM32U0xx_HAL_Driver/Src/stm32u0xx_hal_rcc_ex.c ****   *           @arg @ref RCC_CRS_SYNCMISS
1788:Drivers/STM32U0xx_HAL_Driver/Src/stm32u0xx_hal_rcc_ex.c ****   *           @arg @ref RCC_CRS_TRIMOVF
1789:Drivers/STM32U0xx_HAL_Driver/Src/stm32u0xx_hal_rcc_ex.c ****   * @retval none
1790:Drivers/STM32U0xx_HAL_Driver/Src/stm32u0xx_hal_rcc_ex.c ****   */
1791:Drivers/STM32U0xx_HAL_Driver/Src/stm32u0xx_hal_rcc_ex.c **** __weak void HAL_RCCEx_CRS_ErrorCallback(uint32_t Error)
1792:Drivers/STM32U0xx_HAL_Driver/Src/stm32u0xx_hal_rcc_ex.c **** {
1793:Drivers/STM32U0xx_HAL_Driver/Src/stm32u0xx_hal_rcc_ex.c ****   /* Prevent unused argument(s) compilation warning */
1794:Drivers/STM32U0xx_HAL_Driver/Src/stm32u0xx_hal_rcc_ex.c ****   UNUSED(Error);
ARM GAS  C:\Users\upo\AppData\Local\Temp\ccMLO1b7.s 			page 75


1795:Drivers/STM32U0xx_HAL_Driver/Src/stm32u0xx_hal_rcc_ex.c **** 
1796:Drivers/STM32U0xx_HAL_Driver/Src/stm32u0xx_hal_rcc_ex.c ****   /* NOTE : This function should not be modified, when the callback is needed,
1797:Drivers/STM32U0xx_HAL_Driver/Src/stm32u0xx_hal_rcc_ex.c ****             the @ref HAL_RCCEx_CRS_ErrorCallback should be implemented in the user file
1798:Drivers/STM32U0xx_HAL_Driver/Src/stm32u0xx_hal_rcc_ex.c ****    */
1799:Drivers/STM32U0xx_HAL_Driver/Src/stm32u0xx_hal_rcc_ex.c **** }
1800:Drivers/STM32U0xx_HAL_Driver/Src/stm32u0xx_hal_rcc_ex.c **** 
1801:Drivers/STM32U0xx_HAL_Driver/Src/stm32u0xx_hal_rcc_ex.c **** /**
1802:Drivers/STM32U0xx_HAL_Driver/Src/stm32u0xx_hal_rcc_ex.c ****   * @}
1803:Drivers/STM32U0xx_HAL_Driver/Src/stm32u0xx_hal_rcc_ex.c ****   */
1804:Drivers/STM32U0xx_HAL_Driver/Src/stm32u0xx_hal_rcc_ex.c **** 
1805:Drivers/STM32U0xx_HAL_Driver/Src/stm32u0xx_hal_rcc_ex.c **** #endif /* CRS */
1806:Drivers/STM32U0xx_HAL_Driver/Src/stm32u0xx_hal_rcc_ex.c **** 
1807:Drivers/STM32U0xx_HAL_Driver/Src/stm32u0xx_hal_rcc_ex.c **** /** @addtogroup RCCEx_Private_Functions
1808:Drivers/STM32U0xx_HAL_Driver/Src/stm32u0xx_hal_rcc_ex.c ****   * @{
1809:Drivers/STM32U0xx_HAL_Driver/Src/stm32u0xx_hal_rcc_ex.c ****   */
1810:Drivers/STM32U0xx_HAL_Driver/Src/stm32u0xx_hal_rcc_ex.c **** 
1811:Drivers/STM32U0xx_HAL_Driver/Src/stm32u0xx_hal_rcc_ex.c **** static HAL_StatusTypeDef RCCEx_PLLSource_Enable(uint32_t PllSource)
 2079              		.loc 1 1811 26 is_stmt 1 view .LVU586
 2080              	.LBB11:
1812:Drivers/STM32U0xx_HAL_Driver/Src/stm32u0xx_hal_rcc_ex.c **** {
1813:Drivers/STM32U0xx_HAL_Driver/Src/stm32u0xx_hal_rcc_ex.c ****   uint32_t tickstart;
 2081              		.loc 1 1813 3 view .LVU587
1814:Drivers/STM32U0xx_HAL_Driver/Src/stm32u0xx_hal_rcc_ex.c ****   HAL_StatusTypeDef status = HAL_OK;
 2082              		.loc 1 1814 3 view .LVU588
1815:Drivers/STM32U0xx_HAL_Driver/Src/stm32u0xx_hal_rcc_ex.c **** 
1816:Drivers/STM32U0xx_HAL_Driver/Src/stm32u0xx_hal_rcc_ex.c ****   switch (PllSource)
 2083              		.loc 1 1816 3 view .LVU589
 2084 002c 022B     		cmp	r3, #2
 2085 002e 05D0     		beq	.L393
 2086 0030 032B     		cmp	r3, #3
 2087 0032 48D0     		beq	.L372
 2088 0034 0120     		movs	r0, #1
 2089 0036 012B     		cmp	r3, #1
 2090 0038 2FD0     		beq	.L394
 2091              	.LVL140:
 2092              	.L388:
 2093              		.loc 1 1816 3 is_stmt 0 view .LVU590
 2094              	.LBE11:
 2095              	.LBE10:
1203:Drivers/STM32U0xx_HAL_Driver/Src/stm32u0xx_hal_rcc_ex.c **** 
 2096              		.loc 1 1203 1 view .LVU591
 2097              		@ sp needed
 2098              	.LVL141:
1203:Drivers/STM32U0xx_HAL_Driver/Src/stm32u0xx_hal_rcc_ex.c **** 
 2099              		.loc 1 1203 1 view .LVU592
 2100 003a F8BD     		pop	{r3, r4, r5, r6, r7, pc}
 2101              	.LVL142:
 2102              	.L393:
 2103              	.LBB16:
 2104              	.LBB12:
1817:Drivers/STM32U0xx_HAL_Driver/Src/stm32u0xx_hal_rcc_ex.c ****   {
1818:Drivers/STM32U0xx_HAL_Driver/Src/stm32u0xx_hal_rcc_ex.c ****     case RCC_PLLSOURCE_MSI:
1819:Drivers/STM32U0xx_HAL_Driver/Src/stm32u0xx_hal_rcc_ex.c ****       /* Check whether MSI in not ready and enable it */
1820:Drivers/STM32U0xx_HAL_Driver/Src/stm32u0xx_hal_rcc_ex.c ****       if (READ_BIT(RCC->CR, RCC_CR_MSIRDY) == 0U)
1821:Drivers/STM32U0xx_HAL_Driver/Src/stm32u0xx_hal_rcc_ex.c ****       {
1822:Drivers/STM32U0xx_HAL_Driver/Src/stm32u0xx_hal_rcc_ex.c ****         /* Enable the Internal Multi Speed oscillator (MSI). */
1823:Drivers/STM32U0xx_HAL_Driver/Src/stm32u0xx_hal_rcc_ex.c ****         __HAL_RCC_MSI_ENABLE();
ARM GAS  C:\Users\upo\AppData\Local\Temp\ccMLO1b7.s 			page 76


1824:Drivers/STM32U0xx_HAL_Driver/Src/stm32u0xx_hal_rcc_ex.c **** 
1825:Drivers/STM32U0xx_HAL_Driver/Src/stm32u0xx_hal_rcc_ex.c ****         /* Get timeout */
1826:Drivers/STM32U0xx_HAL_Driver/Src/stm32u0xx_hal_rcc_ex.c ****         tickstart = HAL_GetTick();
1827:Drivers/STM32U0xx_HAL_Driver/Src/stm32u0xx_hal_rcc_ex.c **** 
1828:Drivers/STM32U0xx_HAL_Driver/Src/stm32u0xx_hal_rcc_ex.c ****         /* Wait till MSI is ready */
1829:Drivers/STM32U0xx_HAL_Driver/Src/stm32u0xx_hal_rcc_ex.c ****         while (READ_BIT(RCC->CR, RCC_CR_MSIRDY) == 0U)
1830:Drivers/STM32U0xx_HAL_Driver/Src/stm32u0xx_hal_rcc_ex.c ****         {
1831:Drivers/STM32U0xx_HAL_Driver/Src/stm32u0xx_hal_rcc_ex.c ****           if ((HAL_GetTick() - tickstart) > RCC_MSI_TIMEOUT_VALUE)
1832:Drivers/STM32U0xx_HAL_Driver/Src/stm32u0xx_hal_rcc_ex.c ****           {
1833:Drivers/STM32U0xx_HAL_Driver/Src/stm32u0xx_hal_rcc_ex.c ****             status = HAL_TIMEOUT;
1834:Drivers/STM32U0xx_HAL_Driver/Src/stm32u0xx_hal_rcc_ex.c ****             break;
1835:Drivers/STM32U0xx_HAL_Driver/Src/stm32u0xx_hal_rcc_ex.c ****           }
1836:Drivers/STM32U0xx_HAL_Driver/Src/stm32u0xx_hal_rcc_ex.c ****         }
1837:Drivers/STM32U0xx_HAL_Driver/Src/stm32u0xx_hal_rcc_ex.c ****       }
1838:Drivers/STM32U0xx_HAL_Driver/Src/stm32u0xx_hal_rcc_ex.c ****       break;
1839:Drivers/STM32U0xx_HAL_Driver/Src/stm32u0xx_hal_rcc_ex.c **** 
1840:Drivers/STM32U0xx_HAL_Driver/Src/stm32u0xx_hal_rcc_ex.c ****     case RCC_PLLSOURCE_HSI:
1841:Drivers/STM32U0xx_HAL_Driver/Src/stm32u0xx_hal_rcc_ex.c ****       /* Check whether HSI in not ready and enable it */
1842:Drivers/STM32U0xx_HAL_Driver/Src/stm32u0xx_hal_rcc_ex.c ****       if (READ_BIT(RCC->CR, RCC_CR_HSIRDY) == 0U)
 2105              		.loc 1 1842 7 is_stmt 1 view .LVU593
 2106              		.loc 1 1842 11 is_stmt 0 view .LVU594
 2107 003c 8025     		movs	r5, #128
 2108              	.LVL143:
 2109              		.loc 1 1842 11 view .LVU595
 2110 003e 2268     		ldr	r2, [r4]
 2111 0040 ED00     		lsls	r5, r5, #3
 2112              		.loc 1 1842 10 view .LVU596
 2113 0042 2A42     		tst	r2, r5
 2114 0044 5AD0     		beq	.L395
 2115              	.LVL144:
 2116              	.L374:
 2117              		.loc 1 1842 10 view .LVU597
 2118              	.LBE12:
 2119              	.LBE16:
1178:Drivers/STM32U0xx_HAL_Driver/Src/stm32u0xx_hal_rcc_ex.c ****                            PLLInit->PLLP, PLLInit->PLLQ, PLLInit->PLLR);
 2120              		.loc 1 1178 7 is_stmt 1 view .LVU598
 2121 0046 374C     		ldr	r4, .L396
 2122 0048 7869     		ldr	r0, [r7, #20]
 2123 004a BA68     		ldr	r2, [r7, #8]
 2124 004c E168     		ldr	r1, [r4, #12]
 2125 004e 0243     		orrs	r2, r0
 2126 0050 3648     		ldr	r0, .L396+8
1191:Drivers/STM32U0xx_HAL_Driver/Src/stm32u0xx_hal_rcc_ex.c ****       {
 2127              		.loc 1 1191 14 is_stmt 0 view .LVU599
 2128 0052 8026     		movs	r6, #128
1178:Drivers/STM32U0xx_HAL_Driver/Src/stm32u0xx_hal_rcc_ex.c ****                            PLLInit->PLLP, PLLInit->PLLQ, PLLInit->PLLR);
 2129              		.loc 1 1178 7 view .LVU600
 2130 0054 0140     		ands	r1, r0
 2131 0056 0A43     		orrs	r2, r1
 2132 0058 B969     		ldr	r1, [r7, #24]
1191:Drivers/STM32U0xx_HAL_Driver/Src/stm32u0xx_hal_rcc_ex.c ****       {
 2133              		.loc 1 1191 14 view .LVU601
 2134 005a B604     		lsls	r6, r6, #18
1178:Drivers/STM32U0xx_HAL_Driver/Src/stm32u0xx_hal_rcc_ex.c ****                            PLLInit->PLLP, PLLInit->PLLQ, PLLInit->PLLR);
 2135              		.loc 1 1178 7 view .LVU602
 2136 005c 0A43     		orrs	r2, r1
 2137 005e 3969     		ldr	r1, [r7, #16]
ARM GAS  C:\Users\upo\AppData\Local\Temp\ccMLO1b7.s 			page 77


 2138 0060 0A43     		orrs	r2, r1
 2139 0062 F968     		ldr	r1, [r7, #12]
 2140 0064 0902     		lsls	r1, r1, #8
 2141 0066 0A43     		orrs	r2, r1
 2142 0068 1343     		orrs	r3, r2
 2143 006a E360     		str	r3, [r4, #12]
1182:Drivers/STM32U0xx_HAL_Driver/Src/stm32u0xx_hal_rcc_ex.c **** 
 2144              		.loc 1 1182 7 is_stmt 1 view .LVU603
 2145 006c E368     		ldr	r3, [r4, #12]
 2146 006e FA69     		ldr	r2, [r7, #28]
 2147 0070 1343     		orrs	r3, r2
 2148 0072 E360     		str	r3, [r4, #12]
1185:Drivers/STM32U0xx_HAL_Driver/Src/stm32u0xx_hal_rcc_ex.c **** 
 2149              		.loc 1 1185 7 view .LVU604
 2150 0074 8023     		movs	r3, #128
 2151 0076 2268     		ldr	r2, [r4]
 2152 0078 5B04     		lsls	r3, r3, #17
 2153 007a 1343     		orrs	r3, r2
 2154 007c 2360     		str	r3, [r4]
1188:Drivers/STM32U0xx_HAL_Driver/Src/stm32u0xx_hal_rcc_ex.c **** 
 2155              		.loc 1 1188 7 view .LVU605
1188:Drivers/STM32U0xx_HAL_Driver/Src/stm32u0xx_hal_rcc_ex.c **** 
 2156              		.loc 1 1188 19 is_stmt 0 view .LVU606
 2157 007e FFF7FEFF 		bl	HAL_GetTick
 2158              	.LVL145:
 2159 0082 0500     		movs	r5, r0
 2160              	.LVL146:
1191:Drivers/STM32U0xx_HAL_Driver/Src/stm32u0xx_hal_rcc_ex.c ****       {
 2161              		.loc 1 1191 7 is_stmt 1 view .LVU607
1191:Drivers/STM32U0xx_HAL_Driver/Src/stm32u0xx_hal_rcc_ex.c ****       {
 2162              		.loc 1 1191 13 is_stmt 0 view .LVU608
 2163 0084 04E0     		b	.L383
 2164              	.LVL147:
 2165              	.L384:
1193:Drivers/STM32U0xx_HAL_Driver/Src/stm32u0xx_hal_rcc_ex.c ****         {
 2166              		.loc 1 1193 9 is_stmt 1 view .LVU609
1193:Drivers/STM32U0xx_HAL_Driver/Src/stm32u0xx_hal_rcc_ex.c ****         {
 2167              		.loc 1 1193 14 is_stmt 0 view .LVU610
 2168 0086 FFF7FEFF 		bl	HAL_GetTick
 2169              	.LVL148:
1193:Drivers/STM32U0xx_HAL_Driver/Src/stm32u0xx_hal_rcc_ex.c ****         {
 2170              		.loc 1 1193 28 view .LVU611
 2171 008a 401B     		subs	r0, r0, r5
1193:Drivers/STM32U0xx_HAL_Driver/Src/stm32u0xx_hal_rcc_ex.c ****         {
 2172              		.loc 1 1193 12 view .LVU612
 2173 008c 0228     		cmp	r0, #2
 2174 008e 33D8     		bhi	.L371
 2175              	.L383:
1191:Drivers/STM32U0xx_HAL_Driver/Src/stm32u0xx_hal_rcc_ex.c ****       {
 2176              		.loc 1 1191 47 is_stmt 1 view .LVU613
1191:Drivers/STM32U0xx_HAL_Driver/Src/stm32u0xx_hal_rcc_ex.c ****       {
 2177              		.loc 1 1191 14 is_stmt 0 view .LVU614
 2178 0090 2368     		ldr	r3, [r4]
1191:Drivers/STM32U0xx_HAL_Driver/Src/stm32u0xx_hal_rcc_ex.c ****       {
 2179              		.loc 1 1191 47 view .LVU615
 2180 0092 3342     		tst	r3, r6
 2181 0094 F7D0     		beq	.L384
ARM GAS  C:\Users\upo\AppData\Local\Temp\ccMLO1b7.s 			page 78


1172:Drivers/STM32U0xx_HAL_Driver/Src/stm32u0xx_hal_rcc_ex.c **** 
 2182              		.loc 1 1172 14 view .LVU616
 2183 0096 0020     		movs	r0, #0
 2184 0098 CFE7     		b	.L388
 2185              	.LVL149:
 2186              	.L394:
 2187              	.LBB17:
 2188              	.LBB13:
1820:Drivers/STM32U0xx_HAL_Driver/Src/stm32u0xx_hal_rcc_ex.c ****       {
 2189              		.loc 1 1820 7 is_stmt 1 view .LVU617
1820:Drivers/STM32U0xx_HAL_Driver/Src/stm32u0xx_hal_rcc_ex.c ****       {
 2190              		.loc 1 1820 11 is_stmt 0 view .LVU618
 2191 009a 2268     		ldr	r2, [r4]
1820:Drivers/STM32U0xx_HAL_Driver/Src/stm32u0xx_hal_rcc_ex.c ****       {
 2192              		.loc 1 1820 10 view .LVU619
 2193 009c 9207     		lsls	r2, r2, #30
 2194 009e D2D4     		bmi	.L374
1823:Drivers/STM32U0xx_HAL_Driver/Src/stm32u0xx_hal_rcc_ex.c **** 
 2195              		.loc 1 1823 9 is_stmt 1 view .LVU620
 2196 00a0 2268     		ldr	r2, [r4]
1829:Drivers/STM32U0xx_HAL_Driver/Src/stm32u0xx_hal_rcc_ex.c ****         {
 2197              		.loc 1 1829 16 is_stmt 0 view .LVU621
 2198 00a2 0225     		movs	r5, #2
 2199              	.LVL150:
1823:Drivers/STM32U0xx_HAL_Driver/Src/stm32u0xx_hal_rcc_ex.c **** 
 2200              		.loc 1 1823 9 view .LVU622
 2201 00a4 1343     		orrs	r3, r2
 2202              	.LVL151:
1823:Drivers/STM32U0xx_HAL_Driver/Src/stm32u0xx_hal_rcc_ex.c **** 
 2203              		.loc 1 1823 9 view .LVU623
 2204 00a6 2360     		str	r3, [r4]
 2205              	.LVL152:
1826:Drivers/STM32U0xx_HAL_Driver/Src/stm32u0xx_hal_rcc_ex.c **** 
 2206              		.loc 1 1826 9 is_stmt 1 view .LVU624
1826:Drivers/STM32U0xx_HAL_Driver/Src/stm32u0xx_hal_rcc_ex.c **** 
 2207              		.loc 1 1826 21 is_stmt 0 view .LVU625
 2208 00a8 FFF7FEFF 		bl	HAL_GetTick
 2209              	.LVL153:
1829:Drivers/STM32U0xx_HAL_Driver/Src/stm32u0xx_hal_rcc_ex.c ****         {
 2210              		.loc 1 1829 16 view .LVU626
 2211 00ac 1D4E     		ldr	r6, .L396
1826:Drivers/STM32U0xx_HAL_Driver/Src/stm32u0xx_hal_rcc_ex.c **** 
 2212              		.loc 1 1826 21 view .LVU627
 2213 00ae 0400     		movs	r4, r0
 2214              	.LVL154:
1829:Drivers/STM32U0xx_HAL_Driver/Src/stm32u0xx_hal_rcc_ex.c ****         {
 2215              		.loc 1 1829 9 is_stmt 1 view .LVU628
1829:Drivers/STM32U0xx_HAL_Driver/Src/stm32u0xx_hal_rcc_ex.c ****         {
 2216              		.loc 1 1829 15 is_stmt 0 view .LVU629
 2217 00b0 04E0     		b	.L375
 2218              	.LVL155:
 2219              	.L376:
1831:Drivers/STM32U0xx_HAL_Driver/Src/stm32u0xx_hal_rcc_ex.c ****           {
 2220              		.loc 1 1831 11 is_stmt 1 view .LVU630
1831:Drivers/STM32U0xx_HAL_Driver/Src/stm32u0xx_hal_rcc_ex.c ****           {
 2221              		.loc 1 1831 16 is_stmt 0 view .LVU631
 2222 00b2 FFF7FEFF 		bl	HAL_GetTick
ARM GAS  C:\Users\upo\AppData\Local\Temp\ccMLO1b7.s 			page 79


 2223              	.LVL156:
1831:Drivers/STM32U0xx_HAL_Driver/Src/stm32u0xx_hal_rcc_ex.c ****           {
 2224              		.loc 1 1831 30 view .LVU632
 2225 00b6 001B     		subs	r0, r0, r4
1831:Drivers/STM32U0xx_HAL_Driver/Src/stm32u0xx_hal_rcc_ex.c ****           {
 2226              		.loc 1 1831 14 view .LVU633
 2227 00b8 0228     		cmp	r0, #2
 2228 00ba 1DD8     		bhi	.L371
 2229              	.L375:
1829:Drivers/STM32U0xx_HAL_Driver/Src/stm32u0xx_hal_rcc_ex.c ****         {
 2230              		.loc 1 1829 49 is_stmt 1 view .LVU634
1829:Drivers/STM32U0xx_HAL_Driver/Src/stm32u0xx_hal_rcc_ex.c ****         {
 2231              		.loc 1 1829 16 is_stmt 0 view .LVU635
 2232 00bc 3368     		ldr	r3, [r6]
1829:Drivers/STM32U0xx_HAL_Driver/Src/stm32u0xx_hal_rcc_ex.c ****         {
 2233              		.loc 1 1829 49 view .LVU636
 2234 00be 1D42     		tst	r5, r3
 2235 00c0 F7D0     		beq	.L376
1843:Drivers/STM32U0xx_HAL_Driver/Src/stm32u0xx_hal_rcc_ex.c ****       {
1844:Drivers/STM32U0xx_HAL_Driver/Src/stm32u0xx_hal_rcc_ex.c ****         /* Enable the Internal High Speed oscillator (HSI). */
1845:Drivers/STM32U0xx_HAL_Driver/Src/stm32u0xx_hal_rcc_ex.c ****         __HAL_RCC_HSI_ENABLE();
1846:Drivers/STM32U0xx_HAL_Driver/Src/stm32u0xx_hal_rcc_ex.c **** 
1847:Drivers/STM32U0xx_HAL_Driver/Src/stm32u0xx_hal_rcc_ex.c ****         /* Get timeout */
1848:Drivers/STM32U0xx_HAL_Driver/Src/stm32u0xx_hal_rcc_ex.c ****         tickstart = HAL_GetTick();
1849:Drivers/STM32U0xx_HAL_Driver/Src/stm32u0xx_hal_rcc_ex.c **** 
1850:Drivers/STM32U0xx_HAL_Driver/Src/stm32u0xx_hal_rcc_ex.c ****         /* Wait till MSI is ready */
1851:Drivers/STM32U0xx_HAL_Driver/Src/stm32u0xx_hal_rcc_ex.c ****         while (READ_BIT(RCC->CR, RCC_CR_HSIRDY) == 0U)
1852:Drivers/STM32U0xx_HAL_Driver/Src/stm32u0xx_hal_rcc_ex.c ****         {
1853:Drivers/STM32U0xx_HAL_Driver/Src/stm32u0xx_hal_rcc_ex.c ****           if ((HAL_GetTick() - tickstart) > RCC_HSI_TIMEOUT_VALUE)
1854:Drivers/STM32U0xx_HAL_Driver/Src/stm32u0xx_hal_rcc_ex.c ****           {
1855:Drivers/STM32U0xx_HAL_Driver/Src/stm32u0xx_hal_rcc_ex.c ****             status = HAL_TIMEOUT;
1856:Drivers/STM32U0xx_HAL_Driver/Src/stm32u0xx_hal_rcc_ex.c ****             break;
1857:Drivers/STM32U0xx_HAL_Driver/Src/stm32u0xx_hal_rcc_ex.c ****           }
1858:Drivers/STM32U0xx_HAL_Driver/Src/stm32u0xx_hal_rcc_ex.c ****         }
1859:Drivers/STM32U0xx_HAL_Driver/Src/stm32u0xx_hal_rcc_ex.c ****       }
1860:Drivers/STM32U0xx_HAL_Driver/Src/stm32u0xx_hal_rcc_ex.c ****       break;
1861:Drivers/STM32U0xx_HAL_Driver/Src/stm32u0xx_hal_rcc_ex.c **** 
1862:Drivers/STM32U0xx_HAL_Driver/Src/stm32u0xx_hal_rcc_ex.c ****     case RCC_PLLSOURCE_HSE:
1863:Drivers/STM32U0xx_HAL_Driver/Src/stm32u0xx_hal_rcc_ex.c ****       /* Check whether HSE in not ready and enable it */
1864:Drivers/STM32U0xx_HAL_Driver/Src/stm32u0xx_hal_rcc_ex.c ****       if (READ_BIT(RCC->CR, RCC_CR_HSERDY) == 0U)
1865:Drivers/STM32U0xx_HAL_Driver/Src/stm32u0xx_hal_rcc_ex.c ****       {
1866:Drivers/STM32U0xx_HAL_Driver/Src/stm32u0xx_hal_rcc_ex.c ****         /* Enable the External High Speed oscillator (HSE). */
1867:Drivers/STM32U0xx_HAL_Driver/Src/stm32u0xx_hal_rcc_ex.c ****         SET_BIT(RCC->CR, RCC_CR_HSEON);
1868:Drivers/STM32U0xx_HAL_Driver/Src/stm32u0xx_hal_rcc_ex.c **** 
1869:Drivers/STM32U0xx_HAL_Driver/Src/stm32u0xx_hal_rcc_ex.c ****         /* Get Start Tick*/
1870:Drivers/STM32U0xx_HAL_Driver/Src/stm32u0xx_hal_rcc_ex.c ****         tickstart = HAL_GetTick();
1871:Drivers/STM32U0xx_HAL_Driver/Src/stm32u0xx_hal_rcc_ex.c **** 
1872:Drivers/STM32U0xx_HAL_Driver/Src/stm32u0xx_hal_rcc_ex.c ****         /* Wait till HSE is ready */
1873:Drivers/STM32U0xx_HAL_Driver/Src/stm32u0xx_hal_rcc_ex.c ****         while (READ_BIT(RCC->CR, RCC_CR_HSERDY) == 0U)
1874:Drivers/STM32U0xx_HAL_Driver/Src/stm32u0xx_hal_rcc_ex.c ****         {
1875:Drivers/STM32U0xx_HAL_Driver/Src/stm32u0xx_hal_rcc_ex.c ****           if ((HAL_GetTick() - tickstart) > RCC_HSE_TIMEOUT_VALUE)
1876:Drivers/STM32U0xx_HAL_Driver/Src/stm32u0xx_hal_rcc_ex.c ****           {
1877:Drivers/STM32U0xx_HAL_Driver/Src/stm32u0xx_hal_rcc_ex.c ****             status = HAL_TIMEOUT;
1878:Drivers/STM32U0xx_HAL_Driver/Src/stm32u0xx_hal_rcc_ex.c ****             break;
1879:Drivers/STM32U0xx_HAL_Driver/Src/stm32u0xx_hal_rcc_ex.c ****           }
1880:Drivers/STM32U0xx_HAL_Driver/Src/stm32u0xx_hal_rcc_ex.c ****         }
1881:Drivers/STM32U0xx_HAL_Driver/Src/stm32u0xx_hal_rcc_ex.c ****       }
ARM GAS  C:\Users\upo\AppData\Local\Temp\ccMLO1b7.s 			page 80


1882:Drivers/STM32U0xx_HAL_Driver/Src/stm32u0xx_hal_rcc_ex.c ****       break;
1883:Drivers/STM32U0xx_HAL_Driver/Src/stm32u0xx_hal_rcc_ex.c **** 
1884:Drivers/STM32U0xx_HAL_Driver/Src/stm32u0xx_hal_rcc_ex.c ****     default:
1885:Drivers/STM32U0xx_HAL_Driver/Src/stm32u0xx_hal_rcc_ex.c ****       status = HAL_ERROR;
1886:Drivers/STM32U0xx_HAL_Driver/Src/stm32u0xx_hal_rcc_ex.c ****       break;
1887:Drivers/STM32U0xx_HAL_Driver/Src/stm32u0xx_hal_rcc_ex.c ****   }
1888:Drivers/STM32U0xx_HAL_Driver/Src/stm32u0xx_hal_rcc_ex.c **** 
1889:Drivers/STM32U0xx_HAL_Driver/Src/stm32u0xx_hal_rcc_ex.c ****   return status;
 2236              		.loc 1 1889 3 is_stmt 1 view .LVU637
 2237              	.LVL157:
 2238              		.loc 1 1889 3 is_stmt 0 view .LVU638
 2239              	.LBE13:
 2240              	.LBE17:
1174:Drivers/STM32U0xx_HAL_Driver/Src/stm32u0xx_hal_rcc_ex.c ****     {
 2241              		.loc 1 1174 5 is_stmt 1 view .LVU639
1178:Drivers/STM32U0xx_HAL_Driver/Src/stm32u0xx_hal_rcc_ex.c ****                            PLLInit->PLLP, PLLInit->PLLQ, PLLInit->PLLR);
 2242              		.loc 1 1178 7 is_stmt 0 view .LVU640
 2243 00c2 7B68     		ldr	r3, [r7, #4]
 2244 00c4 BFE7     		b	.L374
 2245              	.LVL158:
 2246              	.L372:
 2247              	.LBB18:
 2248              	.LBB14:
1864:Drivers/STM32U0xx_HAL_Driver/Src/stm32u0xx_hal_rcc_ex.c ****       {
 2249              		.loc 1 1864 7 is_stmt 1 view .LVU641
1864:Drivers/STM32U0xx_HAL_Driver/Src/stm32u0xx_hal_rcc_ex.c ****       {
 2250              		.loc 1 1864 11 is_stmt 0 view .LVU642
 2251 00c6 8025     		movs	r5, #128
 2252              	.LVL159:
1864:Drivers/STM32U0xx_HAL_Driver/Src/stm32u0xx_hal_rcc_ex.c ****       {
 2253              		.loc 1 1864 11 view .LVU643
 2254 00c8 2268     		ldr	r2, [r4]
 2255 00ca AD02     		lsls	r5, r5, #10
1864:Drivers/STM32U0xx_HAL_Driver/Src/stm32u0xx_hal_rcc_ex.c ****       {
 2256              		.loc 1 1864 10 view .LVU644
 2257 00cc 2A42     		tst	r2, r5
 2258 00ce BAD1     		bne	.L374
1867:Drivers/STM32U0xx_HAL_Driver/Src/stm32u0xx_hal_rcc_ex.c **** 
 2259              		.loc 1 1867 9 is_stmt 1 view .LVU645
 2260 00d0 8023     		movs	r3, #128
 2261              	.LVL160:
1867:Drivers/STM32U0xx_HAL_Driver/Src/stm32u0xx_hal_rcc_ex.c **** 
 2262              		.loc 1 1867 9 is_stmt 0 view .LVU646
 2263 00d2 2268     		ldr	r2, [r4]
 2264 00d4 5B02     		lsls	r3, r3, #9
 2265 00d6 1343     		orrs	r3, r2
 2266 00d8 2360     		str	r3, [r4]
 2267              	.LVL161:
1870:Drivers/STM32U0xx_HAL_Driver/Src/stm32u0xx_hal_rcc_ex.c **** 
 2268              		.loc 1 1870 9 is_stmt 1 view .LVU647
1870:Drivers/STM32U0xx_HAL_Driver/Src/stm32u0xx_hal_rcc_ex.c **** 
 2269              		.loc 1 1870 21 is_stmt 0 view .LVU648
 2270 00da FFF7FEFF 		bl	HAL_GetTick
 2271              	.LVL162:
1873:Drivers/STM32U0xx_HAL_Driver/Src/stm32u0xx_hal_rcc_ex.c ****         {
 2272              		.loc 1 1873 16 view .LVU649
 2273 00de 114E     		ldr	r6, .L396
ARM GAS  C:\Users\upo\AppData\Local\Temp\ccMLO1b7.s 			page 81


1870:Drivers/STM32U0xx_HAL_Driver/Src/stm32u0xx_hal_rcc_ex.c **** 
 2274              		.loc 1 1870 21 view .LVU650
 2275 00e0 0400     		movs	r4, r0
 2276              	.LVL163:
1873:Drivers/STM32U0xx_HAL_Driver/Src/stm32u0xx_hal_rcc_ex.c ****         {
 2277              		.loc 1 1873 9 is_stmt 1 view .LVU651
1873:Drivers/STM32U0xx_HAL_Driver/Src/stm32u0xx_hal_rcc_ex.c ****         {
 2278              		.loc 1 1873 15 is_stmt 0 view .LVU652
 2279 00e2 04E0     		b	.L381
 2280              	.LVL164:
 2281              	.L382:
1875:Drivers/STM32U0xx_HAL_Driver/Src/stm32u0xx_hal_rcc_ex.c ****           {
 2282              		.loc 1 1875 11 is_stmt 1 view .LVU653
1875:Drivers/STM32U0xx_HAL_Driver/Src/stm32u0xx_hal_rcc_ex.c ****           {
 2283              		.loc 1 1875 16 is_stmt 0 view .LVU654
 2284 00e4 FFF7FEFF 		bl	HAL_GetTick
 2285              	.LVL165:
1875:Drivers/STM32U0xx_HAL_Driver/Src/stm32u0xx_hal_rcc_ex.c ****           {
 2286              		.loc 1 1875 30 view .LVU655
 2287 00e8 001B     		subs	r0, r0, r4
1875:Drivers/STM32U0xx_HAL_Driver/Src/stm32u0xx_hal_rcc_ex.c ****           {
 2288              		.loc 1 1875 14 view .LVU656
 2289 00ea 6428     		cmp	r0, #100
 2290 00ec 04D8     		bhi	.L371
 2291              	.L381:
1873:Drivers/STM32U0xx_HAL_Driver/Src/stm32u0xx_hal_rcc_ex.c ****         {
 2292              		.loc 1 1873 49 is_stmt 1 view .LVU657
1873:Drivers/STM32U0xx_HAL_Driver/Src/stm32u0xx_hal_rcc_ex.c ****         {
 2293              		.loc 1 1873 16 is_stmt 0 view .LVU658
 2294 00ee 3368     		ldr	r3, [r6]
1873:Drivers/STM32U0xx_HAL_Driver/Src/stm32u0xx_hal_rcc_ex.c ****         {
 2295              		.loc 1 1873 49 view .LVU659
 2296 00f0 2B42     		tst	r3, r5
 2297 00f2 F7D0     		beq	.L382
 2298              		.loc 1 1889 3 is_stmt 1 view .LVU660
 2299              	.LVL166:
 2300              		.loc 1 1889 3 is_stmt 0 view .LVU661
 2301              	.LBE14:
 2302              	.LBE18:
1174:Drivers/STM32U0xx_HAL_Driver/Src/stm32u0xx_hal_rcc_ex.c ****     {
 2303              		.loc 1 1174 5 is_stmt 1 view .LVU662
1178:Drivers/STM32U0xx_HAL_Driver/Src/stm32u0xx_hal_rcc_ex.c ****                            PLLInit->PLLP, PLLInit->PLLQ, PLLInit->PLLR);
 2304              		.loc 1 1178 7 is_stmt 0 view .LVU663
 2305 00f4 7B68     		ldr	r3, [r7, #4]
 2306 00f6 A6E7     		b	.L374
 2307              	.LVL167:
 2308              	.L371:
 2309              	.LBB19:
 2310              	.LBB15:
1833:Drivers/STM32U0xx_HAL_Driver/Src/stm32u0xx_hal_rcc_ex.c ****             break;
 2311              		.loc 1 1833 20 view .LVU664
 2312 00f8 0320     		movs	r0, #3
 2313 00fa 9EE7     		b	.L388
 2314              	.LVL168:
 2315              	.L395:
1845:Drivers/STM32U0xx_HAL_Driver/Src/stm32u0xx_hal_rcc_ex.c **** 
 2316              		.loc 1 1845 9 is_stmt 1 view .LVU665
ARM GAS  C:\Users\upo\AppData\Local\Temp\ccMLO1b7.s 			page 82


 2317 00fc 8023     		movs	r3, #128
 2318              	.LVL169:
1845:Drivers/STM32U0xx_HAL_Driver/Src/stm32u0xx_hal_rcc_ex.c **** 
 2319              		.loc 1 1845 9 is_stmt 0 view .LVU666
 2320 00fe 2268     		ldr	r2, [r4]
 2321 0100 5B00     		lsls	r3, r3, #1
 2322 0102 1343     		orrs	r3, r2
 2323 0104 2360     		str	r3, [r4]
 2324              	.LVL170:
1848:Drivers/STM32U0xx_HAL_Driver/Src/stm32u0xx_hal_rcc_ex.c **** 
 2325              		.loc 1 1848 9 is_stmt 1 view .LVU667
1848:Drivers/STM32U0xx_HAL_Driver/Src/stm32u0xx_hal_rcc_ex.c **** 
 2326              		.loc 1 1848 21 is_stmt 0 view .LVU668
 2327 0106 FFF7FEFF 		bl	HAL_GetTick
 2328              	.LVL171:
1851:Drivers/STM32U0xx_HAL_Driver/Src/stm32u0xx_hal_rcc_ex.c ****         {
 2329              		.loc 1 1851 16 view .LVU669
 2330 010a 064E     		ldr	r6, .L396
1848:Drivers/STM32U0xx_HAL_Driver/Src/stm32u0xx_hal_rcc_ex.c **** 
 2331              		.loc 1 1848 21 view .LVU670
 2332 010c 0400     		movs	r4, r0
 2333              	.LVL172:
1851:Drivers/STM32U0xx_HAL_Driver/Src/stm32u0xx_hal_rcc_ex.c ****         {
 2334              		.loc 1 1851 9 is_stmt 1 view .LVU671
1851:Drivers/STM32U0xx_HAL_Driver/Src/stm32u0xx_hal_rcc_ex.c ****         {
 2335              		.loc 1 1851 15 is_stmt 0 view .LVU672
 2336 010e 04E0     		b	.L377
 2337              	.LVL173:
 2338              	.L379:
1853:Drivers/STM32U0xx_HAL_Driver/Src/stm32u0xx_hal_rcc_ex.c ****           {
 2339              		.loc 1 1853 11 is_stmt 1 view .LVU673
1853:Drivers/STM32U0xx_HAL_Driver/Src/stm32u0xx_hal_rcc_ex.c ****           {
 2340              		.loc 1 1853 16 is_stmt 0 view .LVU674
 2341 0110 FFF7FEFF 		bl	HAL_GetTick
 2342              	.LVL174:
1853:Drivers/STM32U0xx_HAL_Driver/Src/stm32u0xx_hal_rcc_ex.c ****           {
 2343              		.loc 1 1853 30 view .LVU675
 2344 0114 001B     		subs	r0, r0, r4
1853:Drivers/STM32U0xx_HAL_Driver/Src/stm32u0xx_hal_rcc_ex.c ****           {
 2345              		.loc 1 1853 14 view .LVU676
 2346 0116 0228     		cmp	r0, #2
 2347 0118 EED8     		bhi	.L371
 2348              	.L377:
1851:Drivers/STM32U0xx_HAL_Driver/Src/stm32u0xx_hal_rcc_ex.c ****         {
 2349              		.loc 1 1851 49 is_stmt 1 view .LVU677
1851:Drivers/STM32U0xx_HAL_Driver/Src/stm32u0xx_hal_rcc_ex.c ****         {
 2350              		.loc 1 1851 16 is_stmt 0 view .LVU678
 2351 011a 3368     		ldr	r3, [r6]
1851:Drivers/STM32U0xx_HAL_Driver/Src/stm32u0xx_hal_rcc_ex.c ****         {
 2352              		.loc 1 1851 49 view .LVU679
 2353 011c 2B42     		tst	r3, r5
 2354 011e F7D0     		beq	.L379
 2355              		.loc 1 1889 3 is_stmt 1 view .LVU680
 2356              	.LVL175:
 2357              		.loc 1 1889 3 is_stmt 0 view .LVU681
 2358              	.LBE15:
 2359              	.LBE19:
ARM GAS  C:\Users\upo\AppData\Local\Temp\ccMLO1b7.s 			page 83


1174:Drivers/STM32U0xx_HAL_Driver/Src/stm32u0xx_hal_rcc_ex.c ****     {
 2360              		.loc 1 1174 5 is_stmt 1 view .LVU682
1178:Drivers/STM32U0xx_HAL_Driver/Src/stm32u0xx_hal_rcc_ex.c ****                            PLLInit->PLLP, PLLInit->PLLQ, PLLInit->PLLR);
 2361              		.loc 1 1178 7 is_stmt 0 view .LVU683
 2362 0120 7B68     		ldr	r3, [r7, #4]
 2363 0122 90E7     		b	.L374
 2364              	.L397:
 2365              		.align	2
 2366              	.L396:
 2367 0124 00100240 		.word	1073876992
 2368 0128 FFFFFFFE 		.word	-16777217
 2369 012c 8C80C111 		.word	297894028
 2370              		.cfi_endproc
 2371              	.LFE338:
 2373              		.section	.text.HAL_RCCEx_DisablePLL,"ax",%progbits
 2374              		.align	1
 2375              		.p2align 2,,3
 2376              		.global	HAL_RCCEx_DisablePLL
 2377              		.syntax unified
 2378              		.code	16
 2379              		.thumb_func
 2381              	HAL_RCCEx_DisablePLL:
 2382              	.LFB339:
1210:Drivers/STM32U0xx_HAL_Driver/Src/stm32u0xx_hal_rcc_ex.c ****   uint32_t tickstart;
 2383              		.loc 1 1210 1 is_stmt 1 view -0
 2384              		.cfi_startproc
 2385              		@ args = 0, pretend = 0, frame = 0
 2386              		@ frame_needed = 0, uses_anonymous_args = 0
1211:Drivers/STM32U0xx_HAL_Driver/Src/stm32u0xx_hal_rcc_ex.c ****   HAL_StatusTypeDef status = HAL_OK;
 2387              		.loc 1 1211 3 view .LVU685
1212:Drivers/STM32U0xx_HAL_Driver/Src/stm32u0xx_hal_rcc_ex.c **** 
 2388              		.loc 1 1212 3 view .LVU686
 2389              	.LVL176:
1215:Drivers/STM32U0xx_HAL_Driver/Src/stm32u0xx_hal_rcc_ex.c **** 
 2390              		.loc 1 1215 3 view .LVU687
1210:Drivers/STM32U0xx_HAL_Driver/Src/stm32u0xx_hal_rcc_ex.c ****   uint32_t tickstart;
 2391              		.loc 1 1210 1 is_stmt 0 view .LVU688
 2392 0000 70B5     		push	{r4, r5, r6, lr}
 2393              	.LCFI8:
 2394              		.cfi_def_cfa_offset 16
 2395              		.cfi_offset 4, -16
 2396              		.cfi_offset 5, -12
 2397              		.cfi_offset 6, -8
 2398              		.cfi_offset 14, -4
1215:Drivers/STM32U0xx_HAL_Driver/Src/stm32u0xx_hal_rcc_ex.c **** 
 2399              		.loc 1 1215 3 view .LVU689
 2400 0002 0E4C     		ldr	r4, .L403
 2401 0004 0E4A     		ldr	r2, .L403+4
 2402 0006 2368     		ldr	r3, [r4]
1221:Drivers/STM32U0xx_HAL_Driver/Src/stm32u0xx_hal_rcc_ex.c ****   {
 2403              		.loc 1 1221 10 view .LVU690
 2404 0008 8026     		movs	r6, #128
1215:Drivers/STM32U0xx_HAL_Driver/Src/stm32u0xx_hal_rcc_ex.c **** 
 2405              		.loc 1 1215 3 view .LVU691
 2406 000a 1340     		ands	r3, r2
 2407 000c 2360     		str	r3, [r4]
1218:Drivers/STM32U0xx_HAL_Driver/Src/stm32u0xx_hal_rcc_ex.c **** 
ARM GAS  C:\Users\upo\AppData\Local\Temp\ccMLO1b7.s 			page 84


 2408              		.loc 1 1218 3 is_stmt 1 view .LVU692
1218:Drivers/STM32U0xx_HAL_Driver/Src/stm32u0xx_hal_rcc_ex.c **** 
 2409              		.loc 1 1218 15 is_stmt 0 view .LVU693
 2410 000e FFF7FEFF 		bl	HAL_GetTick
 2411              	.LVL177:
1221:Drivers/STM32U0xx_HAL_Driver/Src/stm32u0xx_hal_rcc_ex.c ****   {
 2412              		.loc 1 1221 10 view .LVU694
 2413 0012 B604     		lsls	r6, r6, #18
1218:Drivers/STM32U0xx_HAL_Driver/Src/stm32u0xx_hal_rcc_ex.c **** 
 2414              		.loc 1 1218 15 view .LVU695
 2415 0014 0500     		movs	r5, r0
 2416              	.LVL178:
1221:Drivers/STM32U0xx_HAL_Driver/Src/stm32u0xx_hal_rcc_ex.c ****   {
 2417              		.loc 1 1221 3 is_stmt 1 view .LVU696
1221:Drivers/STM32U0xx_HAL_Driver/Src/stm32u0xx_hal_rcc_ex.c ****   {
 2418              		.loc 1 1221 9 is_stmt 0 view .LVU697
 2419 0016 04E0     		b	.L399
 2420              	.LVL179:
 2421              	.L401:
1223:Drivers/STM32U0xx_HAL_Driver/Src/stm32u0xx_hal_rcc_ex.c ****     {
 2422              		.loc 1 1223 5 is_stmt 1 view .LVU698
1223:Drivers/STM32U0xx_HAL_Driver/Src/stm32u0xx_hal_rcc_ex.c ****     {
 2423              		.loc 1 1223 10 is_stmt 0 view .LVU699
 2424 0018 FFF7FEFF 		bl	HAL_GetTick
 2425              	.LVL180:
1223:Drivers/STM32U0xx_HAL_Driver/Src/stm32u0xx_hal_rcc_ex.c ****     {
 2426              		.loc 1 1223 24 view .LVU700
 2427 001c 401B     		subs	r0, r0, r5
1223:Drivers/STM32U0xx_HAL_Driver/Src/stm32u0xx_hal_rcc_ex.c ****     {
 2428              		.loc 1 1223 8 view .LVU701
 2429 001e 0228     		cmp	r0, #2
 2430 0020 09D8     		bhi	.L402
 2431              	.L399:
1221:Drivers/STM32U0xx_HAL_Driver/Src/stm32u0xx_hal_rcc_ex.c ****   {
 2432              		.loc 1 1221 43 is_stmt 1 view .LVU702
1221:Drivers/STM32U0xx_HAL_Driver/Src/stm32u0xx_hal_rcc_ex.c ****   {
 2433              		.loc 1 1221 10 is_stmt 0 view .LVU703
 2434 0022 2368     		ldr	r3, [r4]
1221:Drivers/STM32U0xx_HAL_Driver/Src/stm32u0xx_hal_rcc_ex.c ****   {
 2435              		.loc 1 1221 43 view .LVU704
 2436 0024 3342     		tst	r3, r6
 2437 0026 F7D1     		bne	.L401
1212:Drivers/STM32U0xx_HAL_Driver/Src/stm32u0xx_hal_rcc_ex.c **** 
 2438              		.loc 1 1212 21 view .LVU705
 2439 0028 0020     		movs	r0, #0
 2440              	.L400:
 2441              	.LVL181:
1231:Drivers/STM32U0xx_HAL_Driver/Src/stm32u0xx_hal_rcc_ex.c **** 
 2442              		.loc 1 1231 3 is_stmt 1 view .LVU706
1234:Drivers/STM32U0xx_HAL_Driver/Src/stm32u0xx_hal_rcc_ex.c **** 
 2443              		.loc 1 1234 1 is_stmt 0 view .LVU707
 2444              		@ sp needed
1231:Drivers/STM32U0xx_HAL_Driver/Src/stm32u0xx_hal_rcc_ex.c **** 
 2445              		.loc 1 1231 3 view .LVU708
 2446 002a 044A     		ldr	r2, .L403
 2447 002c 0549     		ldr	r1, .L403+8
 2448 002e D368     		ldr	r3, [r2, #12]
ARM GAS  C:\Users\upo\AppData\Local\Temp\ccMLO1b7.s 			page 85


 2449 0030 0B40     		ands	r3, r1
 2450 0032 D360     		str	r3, [r2, #12]
1233:Drivers/STM32U0xx_HAL_Driver/Src/stm32u0xx_hal_rcc_ex.c **** }
 2451              		.loc 1 1233 3 is_stmt 1 view .LVU709
 2452              	.LVL182:
1234:Drivers/STM32U0xx_HAL_Driver/Src/stm32u0xx_hal_rcc_ex.c **** 
 2453              		.loc 1 1234 1 is_stmt 0 view .LVU710
 2454 0034 70BD     		pop	{r4, r5, r6, pc}
 2455              	.LVL183:
 2456              	.L402:
1225:Drivers/STM32U0xx_HAL_Driver/Src/stm32u0xx_hal_rcc_ex.c ****       break;
 2457              		.loc 1 1225 14 view .LVU711
 2458 0036 0320     		movs	r0, #3
 2459 0038 F7E7     		b	.L400
 2460              	.L404:
 2461 003a C046     		.align	2
 2462              	.L403:
 2463 003c 00100240 		.word	1073876992
 2464 0040 FFFFFFFE 		.word	-16777217
 2465 0044 FCFFFEEE 		.word	-285278212
 2466              		.cfi_endproc
 2467              	.LFE339:
 2469              		.section	.text.HAL_RCCEx_WakeUpStopCLKConfig,"ax",%progbits
 2470              		.align	1
 2471              		.p2align 2,,3
 2472              		.global	HAL_RCCEx_WakeUpStopCLKConfig
 2473              		.syntax unified
 2474              		.code	16
 2475              		.thumb_func
 2477              	HAL_RCCEx_WakeUpStopCLKConfig:
 2478              	.LVL184:
 2479              	.LFB340:
1247:Drivers/STM32U0xx_HAL_Driver/Src/stm32u0xx_hal_rcc_ex.c ****   assert_param(IS_RCC_STOP_WAKEUPCLOCK(WakeUpClk));
 2480              		.loc 1 1247 1 is_stmt 1 view -0
 2481              		.cfi_startproc
 2482              		@ args = 0, pretend = 0, frame = 0
 2483              		@ frame_needed = 0, uses_anonymous_args = 0
 2484              		@ link register save eliminated.
1248:Drivers/STM32U0xx_HAL_Driver/Src/stm32u0xx_hal_rcc_ex.c **** 
 2485              		.loc 1 1248 3 view .LVU713
1250:Drivers/STM32U0xx_HAL_Driver/Src/stm32u0xx_hal_rcc_ex.c **** }
 2486              		.loc 1 1250 3 view .LVU714
 2487 0000 034A     		ldr	r2, .L406
 2488 0002 0449     		ldr	r1, .L406+4
 2489 0004 9368     		ldr	r3, [r2, #8]
1251:Drivers/STM32U0xx_HAL_Driver/Src/stm32u0xx_hal_rcc_ex.c **** 
 2490              		.loc 1 1251 1 is_stmt 0 view .LVU715
 2491              		@ sp needed
1250:Drivers/STM32U0xx_HAL_Driver/Src/stm32u0xx_hal_rcc_ex.c **** }
 2492              		.loc 1 1250 3 view .LVU716
 2493 0006 0B40     		ands	r3, r1
 2494 0008 0343     		orrs	r3, r0
 2495 000a 9360     		str	r3, [r2, #8]
1251:Drivers/STM32U0xx_HAL_Driver/Src/stm32u0xx_hal_rcc_ex.c **** 
 2496              		.loc 1 1251 1 view .LVU717
 2497 000c 7047     		bx	lr
 2498              	.L407:
ARM GAS  C:\Users\upo\AppData\Local\Temp\ccMLO1b7.s 			page 86


 2499 000e C046     		.align	2
 2500              	.L406:
 2501 0010 00100240 		.word	1073876992
 2502 0014 FF7FFFFF 		.word	-32769
 2503              		.cfi_endproc
 2504              	.LFE340:
 2506              		.section	.text.HAL_RCCEx_StandbyMSIRangeConfig,"ax",%progbits
 2507              		.align	1
 2508              		.p2align 2,,3
 2509              		.global	HAL_RCCEx_StandbyMSIRangeConfig
 2510              		.syntax unified
 2511              		.code	16
 2512              		.thumb_func
 2514              	HAL_RCCEx_StandbyMSIRangeConfig:
 2515              	.LVL185:
 2516              	.LFB341:
1265:Drivers/STM32U0xx_HAL_Driver/Src/stm32u0xx_hal_rcc_ex.c ****   assert_param(IS_RCC_MSI_STANDBY_CLOCK_RANGE(MSIRange));
 2517              		.loc 1 1265 1 is_stmt 1 view -0
 2518              		.cfi_startproc
 2519              		@ args = 0, pretend = 0, frame = 0
 2520              		@ frame_needed = 0, uses_anonymous_args = 0
1266:Drivers/STM32U0xx_HAL_Driver/Src/stm32u0xx_hal_rcc_ex.c **** 
 2521              		.loc 1 1266 3 view .LVU719
1268:Drivers/STM32U0xx_HAL_Driver/Src/stm32u0xx_hal_rcc_ex.c **** }
 2522              		.loc 1 1268 3 view .LVU720
 2523 0000 9422     		movs	r2, #148
 2524 0002 0449     		ldr	r1, .L409
1265:Drivers/STM32U0xx_HAL_Driver/Src/stm32u0xx_hal_rcc_ex.c ****   assert_param(IS_RCC_MSI_STANDBY_CLOCK_RANGE(MSIRange));
 2525              		.loc 1 1265 1 is_stmt 0 view .LVU721
 2526 0004 10B5     		push	{r4, lr}
 2527              	.LCFI9:
 2528              		.cfi_def_cfa_offset 8
 2529              		.cfi_offset 4, -8
 2530              		.cfi_offset 14, -4
1268:Drivers/STM32U0xx_HAL_Driver/Src/stm32u0xx_hal_rcc_ex.c **** }
 2531              		.loc 1 1268 3 view .LVU722
 2532 0006 8B58     		ldr	r3, [r1, r2]
 2533 0008 034C     		ldr	r4, .L409+4
 2534 000a 0001     		lsls	r0, r0, #4
 2535              	.LVL186:
1268:Drivers/STM32U0xx_HAL_Driver/Src/stm32u0xx_hal_rcc_ex.c **** }
 2536              		.loc 1 1268 3 view .LVU723
 2537 000c 2340     		ands	r3, r4
 2538 000e 0343     		orrs	r3, r0
 2539 0010 8B50     		str	r3, [r1, r2]
1269:Drivers/STM32U0xx_HAL_Driver/Src/stm32u0xx_hal_rcc_ex.c **** 
 2540              		.loc 1 1269 1 view .LVU724
 2541              		@ sp needed
 2542 0012 10BD     		pop	{r4, pc}
 2543              	.L410:
 2544              		.align	2
 2545              	.L409:
 2546 0014 00100240 		.word	1073876992
 2547 0018 FFF0FFFF 		.word	-3841
 2548              		.cfi_endproc
 2549              	.LFE341:
 2551              		.section	.text.HAL_RCCEx_EnableMSIPLLMode,"ax",%progbits
ARM GAS  C:\Users\upo\AppData\Local\Temp\ccMLO1b7.s 			page 87


 2552              		.align	1
 2553              		.p2align 2,,3
 2554              		.global	HAL_RCCEx_EnableMSIPLLMode
 2555              		.syntax unified
 2556              		.code	16
 2557              		.thumb_func
 2559              	HAL_RCCEx_EnableMSIPLLMode:
 2560              	.LFB342:
1278:Drivers/STM32U0xx_HAL_Driver/Src/stm32u0xx_hal_rcc_ex.c ****   SET_BIT(RCC->CR, RCC_CR_MSIPLLEN);
 2561              		.loc 1 1278 1 is_stmt 1 view -0
 2562              		.cfi_startproc
 2563              		@ args = 0, pretend = 0, frame = 0
 2564              		@ frame_needed = 0, uses_anonymous_args = 0
 2565              		@ link register save eliminated.
1279:Drivers/STM32U0xx_HAL_Driver/Src/stm32u0xx_hal_rcc_ex.c **** }
 2566              		.loc 1 1279 3 view .LVU726
 2567 0000 0421     		movs	r1, #4
1280:Drivers/STM32U0xx_HAL_Driver/Src/stm32u0xx_hal_rcc_ex.c **** 
 2568              		.loc 1 1280 1 is_stmt 0 view .LVU727
 2569              		@ sp needed
1279:Drivers/STM32U0xx_HAL_Driver/Src/stm32u0xx_hal_rcc_ex.c **** }
 2570              		.loc 1 1279 3 view .LVU728
 2571 0002 024A     		ldr	r2, .L412
 2572 0004 1368     		ldr	r3, [r2]
 2573 0006 0B43     		orrs	r3, r1
 2574 0008 1360     		str	r3, [r2]
1280:Drivers/STM32U0xx_HAL_Driver/Src/stm32u0xx_hal_rcc_ex.c **** 
 2575              		.loc 1 1280 1 view .LVU729
 2576 000a 7047     		bx	lr
 2577              	.L413:
 2578              		.align	2
 2579              	.L412:
 2580 000c 00100240 		.word	1073876992
 2581              		.cfi_endproc
 2582              	.LFE342:
 2584              		.section	.text.HAL_RCCEx_DisableMSIPLLMode,"ax",%progbits
 2585              		.align	1
 2586              		.p2align 2,,3
 2587              		.global	HAL_RCCEx_DisableMSIPLLMode
 2588              		.syntax unified
 2589              		.code	16
 2590              		.thumb_func
 2592              	HAL_RCCEx_DisableMSIPLLMode:
 2593              	.LFB343:
1288:Drivers/STM32U0xx_HAL_Driver/Src/stm32u0xx_hal_rcc_ex.c ****   CLEAR_BIT(RCC->CR, RCC_CR_MSIPLLEN);
 2594              		.loc 1 1288 1 is_stmt 1 view -0
 2595              		.cfi_startproc
 2596              		@ args = 0, pretend = 0, frame = 0
 2597              		@ frame_needed = 0, uses_anonymous_args = 0
 2598              		@ link register save eliminated.
1289:Drivers/STM32U0xx_HAL_Driver/Src/stm32u0xx_hal_rcc_ex.c **** }
 2599              		.loc 1 1289 3 view .LVU731
 2600 0000 0421     		movs	r1, #4
1290:Drivers/STM32U0xx_HAL_Driver/Src/stm32u0xx_hal_rcc_ex.c **** 
 2601              		.loc 1 1290 1 is_stmt 0 view .LVU732
 2602              		@ sp needed
1289:Drivers/STM32U0xx_HAL_Driver/Src/stm32u0xx_hal_rcc_ex.c **** }
ARM GAS  C:\Users\upo\AppData\Local\Temp\ccMLO1b7.s 			page 88


 2603              		.loc 1 1289 3 view .LVU733
 2604 0002 024A     		ldr	r2, .L415
 2605 0004 1368     		ldr	r3, [r2]
 2606 0006 8B43     		bics	r3, r1
 2607 0008 1360     		str	r3, [r2]
1290:Drivers/STM32U0xx_HAL_Driver/Src/stm32u0xx_hal_rcc_ex.c **** 
 2608              		.loc 1 1290 1 view .LVU734
 2609 000a 7047     		bx	lr
 2610              	.L416:
 2611              		.align	2
 2612              	.L415:
 2613 000c 00100240 		.word	1073876992
 2614              		.cfi_endproc
 2615              	.LFE343:
 2617              		.section	.text.HAL_RCCEx_EnableLSECSS,"ax",%progbits
 2618              		.align	1
 2619              		.p2align 2,,3
 2620              		.global	HAL_RCCEx_EnableLSECSS
 2621              		.syntax unified
 2622              		.code	16
 2623              		.thumb_func
 2625              	HAL_RCCEx_EnableLSECSS:
 2626              	.LFB344:
1297:Drivers/STM32U0xx_HAL_Driver/Src/stm32u0xx_hal_rcc_ex.c ****   SET_BIT(RCC->BDCR, RCC_BDCR_LSECSSON) ;
 2627              		.loc 1 1297 1 is_stmt 1 view -0
 2628              		.cfi_startproc
 2629              		@ args = 0, pretend = 0, frame = 0
 2630              		@ frame_needed = 0, uses_anonymous_args = 0
 2631              		@ link register save eliminated.
1298:Drivers/STM32U0xx_HAL_Driver/Src/stm32u0xx_hal_rcc_ex.c **** }
 2632              		.loc 1 1298 3 view .LVU736
 2633 0000 9022     		movs	r2, #144
1299:Drivers/STM32U0xx_HAL_Driver/Src/stm32u0xx_hal_rcc_ex.c **** 
 2634              		.loc 1 1299 1 is_stmt 0 view .LVU737
 2635              		@ sp needed
1298:Drivers/STM32U0xx_HAL_Driver/Src/stm32u0xx_hal_rcc_ex.c **** }
 2636              		.loc 1 1298 3 view .LVU738
 2637 0002 2020     		movs	r0, #32
 2638 0004 0249     		ldr	r1, .L418
 2639 0006 8B58     		ldr	r3, [r1, r2]
 2640 0008 0343     		orrs	r3, r0
 2641 000a 8B50     		str	r3, [r1, r2]
1299:Drivers/STM32U0xx_HAL_Driver/Src/stm32u0xx_hal_rcc_ex.c **** 
 2642              		.loc 1 1299 1 view .LVU739
 2643 000c 7047     		bx	lr
 2644              	.L419:
 2645 000e C046     		.align	2
 2646              	.L418:
 2647 0010 00100240 		.word	1073876992
 2648              		.cfi_endproc
 2649              	.LFE344:
 2651              		.section	.text.HAL_RCCEx_DisableLSECSS,"ax",%progbits
 2652              		.align	1
 2653              		.p2align 2,,3
 2654              		.global	HAL_RCCEx_DisableLSECSS
 2655              		.syntax unified
 2656              		.code	16
ARM GAS  C:\Users\upo\AppData\Local\Temp\ccMLO1b7.s 			page 89


 2657              		.thumb_func
 2659              	HAL_RCCEx_DisableLSECSS:
 2660              	.LFB345:
1309:Drivers/STM32U0xx_HAL_Driver/Src/stm32u0xx_hal_rcc_ex.c ****   /* Disable LSE CSS */
 2661              		.loc 1 1309 1 is_stmt 1 view -0
 2662              		.cfi_startproc
 2663              		@ args = 0, pretend = 0, frame = 0
 2664              		@ frame_needed = 0, uses_anonymous_args = 0
 2665              		@ link register save eliminated.
1311:Drivers/STM32U0xx_HAL_Driver/Src/stm32u0xx_hal_rcc_ex.c **** }
 2666              		.loc 1 1311 3 view .LVU741
 2667 0000 9022     		movs	r2, #144
1312:Drivers/STM32U0xx_HAL_Driver/Src/stm32u0xx_hal_rcc_ex.c **** 
 2668              		.loc 1 1312 1 is_stmt 0 view .LVU742
 2669              		@ sp needed
1311:Drivers/STM32U0xx_HAL_Driver/Src/stm32u0xx_hal_rcc_ex.c **** }
 2670              		.loc 1 1311 3 view .LVU743
 2671 0002 2020     		movs	r0, #32
 2672 0004 0249     		ldr	r1, .L421
 2673 0006 8B58     		ldr	r3, [r1, r2]
 2674 0008 8343     		bics	r3, r0
 2675 000a 8B50     		str	r3, [r1, r2]
1312:Drivers/STM32U0xx_HAL_Driver/Src/stm32u0xx_hal_rcc_ex.c **** 
 2676              		.loc 1 1312 1 view .LVU744
 2677 000c 7047     		bx	lr
 2678              	.L422:
 2679 000e C046     		.align	2
 2680              	.L421:
 2681 0010 00100240 		.word	1073876992
 2682              		.cfi_endproc
 2683              	.LFE345:
 2685              		.section	.text.HAL_RCCEx_EnableLSECSS_IT,"ax",%progbits
 2686              		.align	1
 2687              		.p2align 2,,3
 2688              		.global	HAL_RCCEx_EnableLSECSS_IT
 2689              		.syntax unified
 2690              		.code	16
 2691              		.thumb_func
 2693              	HAL_RCCEx_EnableLSECSS_IT:
 2694              	.LFB346:
1320:Drivers/STM32U0xx_HAL_Driver/Src/stm32u0xx_hal_rcc_ex.c ****   /* Enable LSE CSS */
 2695              		.loc 1 1320 1 is_stmt 1 view -0
 2696              		.cfi_startproc
 2697              		@ args = 0, pretend = 0, frame = 0
 2698              		@ frame_needed = 0, uses_anonymous_args = 0
 2699              		@ link register save eliminated.
1322:Drivers/STM32U0xx_HAL_Driver/Src/stm32u0xx_hal_rcc_ex.c ****   /* Enable LSE CSS IT */
 2700              		.loc 1 1322 3 view .LVU746
 2701 0000 9021     		movs	r1, #144
1328:Drivers/STM32U0xx_HAL_Driver/Src/stm32u0xx_hal_rcc_ex.c **** 
 2702              		.loc 1 1328 1 is_stmt 0 view .LVU747
 2703              		@ sp needed
1322:Drivers/STM32U0xx_HAL_Driver/Src/stm32u0xx_hal_rcc_ex.c ****   /* Enable LSE CSS IT */
 2704              		.loc 1 1322 3 view .LVU748
 2705 0002 2020     		movs	r0, #32
 2706 0004 094B     		ldr	r3, .L424
 2707 0006 5A58     		ldr	r2, [r3, r1]
ARM GAS  C:\Users\upo\AppData\Local\Temp\ccMLO1b7.s 			page 90


 2708 0008 0243     		orrs	r2, r0
 2709 000a 5A50     		str	r2, [r3, r1]
1324:Drivers/STM32U0xx_HAL_Driver/Src/stm32u0xx_hal_rcc_ex.c ****   /* Enable IT on EXTI Line 27 */
 2710              		.loc 1 1324 3 is_stmt 1 view .LVU749
 2711 000c 8022     		movs	r2, #128
 2712 000e 9969     		ldr	r1, [r3, #24]
 2713 0010 9200     		lsls	r2, r2, #2
 2714 0012 0A43     		orrs	r2, r1
 2715 0014 9A61     		str	r2, [r3, #24]
1326:Drivers/STM32U0xx_HAL_Driver/Src/stm32u0xx_hal_rcc_ex.c ****   __HAL_RCC_LSECSS_EXTI_ENABLE_RISING_EDGE();
 2716              		.loc 1 1326 3 view .LVU750
 2717 0016 8022     		movs	r2, #128
 2718 0018 054B     		ldr	r3, .L424+4
 2719 001a 6030     		adds	r0, r0, #96
 2720 001c 1958     		ldr	r1, [r3, r0]
 2721 001e 1205     		lsls	r2, r2, #20
 2722 0020 1143     		orrs	r1, r2
 2723 0022 1950     		str	r1, [r3, r0]
1327:Drivers/STM32U0xx_HAL_Driver/Src/stm32u0xx_hal_rcc_ex.c **** }
 2724              		.loc 1 1327 3 view .LVU751
 2725 0024 1968     		ldr	r1, [r3]
 2726 0026 0A43     		orrs	r2, r1
 2727 0028 1A60     		str	r2, [r3]
1328:Drivers/STM32U0xx_HAL_Driver/Src/stm32u0xx_hal_rcc_ex.c **** 
 2728              		.loc 1 1328 1 is_stmt 0 view .LVU752
 2729 002a 7047     		bx	lr
 2730              	.L425:
 2731              		.align	2
 2732              	.L424:
 2733 002c 00100240 		.word	1073876992
 2734 0030 00180240 		.word	1073879040
 2735              		.cfi_endproc
 2736              	.LFE346:
 2738              		.section	.text.HAL_RCCEx_LSECSS_Callback,"ax",%progbits
 2739              		.align	1
 2740              		.p2align 2,,3
 2741              		.weak	HAL_RCCEx_LSECSS_Callback
 2742              		.syntax unified
 2743              		.code	16
 2744              		.thumb_func
 2746              	HAL_RCCEx_LSECSS_Callback:
 2747              	.LFB348:
1352:Drivers/STM32U0xx_HAL_Driver/Src/stm32u0xx_hal_rcc_ex.c ****   /* NOTE : This function should not be modified, when the callback is needed,
 2748              		.loc 1 1352 1 is_stmt 1 view -0
 2749              		.cfi_startproc
 2750              		@ args = 0, pretend = 0, frame = 0
 2751              		@ frame_needed = 0, uses_anonymous_args = 0
 2752              		@ link register save eliminated.
1356:Drivers/STM32U0xx_HAL_Driver/Src/stm32u0xx_hal_rcc_ex.c **** 
 2753              		.loc 1 1356 1 view .LVU754
 2754              		@ sp needed
 2755 0000 7047     		bx	lr
 2756              		.cfi_endproc
 2757              	.LFE348:
 2759 0002 C046     		.section	.text.HAL_RCCEx_LSECSS_IRQHandler,"ax",%progbits
 2760              		.align	1
 2761              		.p2align 2,,3
ARM GAS  C:\Users\upo\AppData\Local\Temp\ccMLO1b7.s 			page 91


 2762              		.global	HAL_RCCEx_LSECSS_IRQHandler
 2763              		.syntax unified
 2764              		.code	16
 2765              		.thumb_func
 2767              	HAL_RCCEx_LSECSS_IRQHandler:
 2768              	.LFB347:
1335:Drivers/STM32U0xx_HAL_Driver/Src/stm32u0xx_hal_rcc_ex.c ****   /* Check RCC LSE CSSF flag  */
 2769              		.loc 1 1335 1 view -0
 2770              		.cfi_startproc
 2771              		@ args = 0, pretend = 0, frame = 0
 2772              		@ frame_needed = 0, uses_anonymous_args = 0
1337:Drivers/STM32U0xx_HAL_Driver/Src/stm32u0xx_hal_rcc_ex.c ****   {
 2773              		.loc 1 1337 3 view .LVU756
1335:Drivers/STM32U0xx_HAL_Driver/Src/stm32u0xx_hal_rcc_ex.c ****   /* Check RCC LSE CSSF flag  */
 2774              		.loc 1 1335 1 is_stmt 0 view .LVU757
 2775 0000 70B5     		push	{r4, r5, r6, lr}
 2776              	.LCFI10:
 2777              		.cfi_def_cfa_offset 16
 2778              		.cfi_offset 4, -16
 2779              		.cfi_offset 5, -12
 2780              		.cfi_offset 6, -8
 2781              		.cfi_offset 14, -4
1337:Drivers/STM32U0xx_HAL_Driver/Src/stm32u0xx_hal_rcc_ex.c ****   {
 2782              		.loc 1 1337 7 view .LVU758
 2783 0002 8025     		movs	r5, #128
 2784 0004 044C     		ldr	r4, .L433
 2785 0006 AD00     		lsls	r5, r5, #2
 2786 0008 E369     		ldr	r3, [r4, #28]
1337:Drivers/STM32U0xx_HAL_Driver/Src/stm32u0xx_hal_rcc_ex.c ****   {
 2787              		.loc 1 1337 6 view .LVU759
 2788 000a 2B42     		tst	r3, r5
 2789 000c 00D1     		bne	.L432
 2790              	.L427:
1345:Drivers/STM32U0xx_HAL_Driver/Src/stm32u0xx_hal_rcc_ex.c **** 
 2791              		.loc 1 1345 1 view .LVU760
 2792              		@ sp needed
 2793 000e 70BD     		pop	{r4, r5, r6, pc}
 2794              	.L432:
1340:Drivers/STM32U0xx_HAL_Driver/Src/stm32u0xx_hal_rcc_ex.c **** 
 2795              		.loc 1 1340 5 is_stmt 1 view .LVU761
 2796 0010 FFF7FEFF 		bl	HAL_RCCEx_LSECSS_Callback
 2797              	.LVL187:
1343:Drivers/STM32U0xx_HAL_Driver/Src/stm32u0xx_hal_rcc_ex.c ****   }
 2798              		.loc 1 1343 5 view .LVU762
 2799 0014 2562     		str	r5, [r4, #32]
1345:Drivers/STM32U0xx_HAL_Driver/Src/stm32u0xx_hal_rcc_ex.c **** 
 2800              		.loc 1 1345 1 is_stmt 0 view .LVU763
 2801 0016 FAE7     		b	.L427
 2802              	.L434:
 2803              		.align	2
 2804              	.L433:
 2805 0018 00100240 		.word	1073876992
 2806              		.cfi_endproc
 2807              	.LFE347:
 2809              		.section	.text.HAL_RCCEx_EnableLSCO,"ax",%progbits
 2810              		.align	1
 2811              		.p2align 2,,3
ARM GAS  C:\Users\upo\AppData\Local\Temp\ccMLO1b7.s 			page 92


 2812              		.global	HAL_RCCEx_EnableLSCO
 2813              		.syntax unified
 2814              		.code	16
 2815              		.thumb_func
 2817              	HAL_RCCEx_EnableLSCO:
 2818              	.LVL188:
 2819              	.LFB349:
1367:Drivers/STM32U0xx_HAL_Driver/Src/stm32u0xx_hal_rcc_ex.c ****   GPIO_InitTypeDef GPIO_InitStruct = {0};
 2820              		.loc 1 1367 1 is_stmt 1 view -0
 2821              		.cfi_startproc
 2822              		@ args = 0, pretend = 0, frame = 32
 2823              		@ frame_needed = 0, uses_anonymous_args = 0
1368:Drivers/STM32U0xx_HAL_Driver/Src/stm32u0xx_hal_rcc_ex.c ****   FlagStatus       pwrclkchanged = RESET;
 2824              		.loc 1 1368 3 view .LVU765
1367:Drivers/STM32U0xx_HAL_Driver/Src/stm32u0xx_hal_rcc_ex.c ****   GPIO_InitTypeDef GPIO_InitStruct = {0};
 2825              		.loc 1 1367 1 is_stmt 0 view .LVU766
 2826 0000 70B5     		push	{r4, r5, r6, lr}
 2827              	.LCFI11:
 2828              		.cfi_def_cfa_offset 16
 2829              		.cfi_offset 4, -16
 2830              		.cfi_offset 5, -12
 2831              		.cfi_offset 6, -8
 2832              		.cfi_offset 14, -4
 2833 0002 88B0     		sub	sp, sp, #32
 2834              	.LCFI12:
 2835              		.cfi_def_cfa_offset 48
1368:Drivers/STM32U0xx_HAL_Driver/Src/stm32u0xx_hal_rcc_ex.c ****   FlagStatus       pwrclkchanged = RESET;
 2836              		.loc 1 1368 20 view .LVU767
 2837 0004 0C22     		movs	r2, #12
 2838 0006 0021     		movs	r1, #0
1367:Drivers/STM32U0xx_HAL_Driver/Src/stm32u0xx_hal_rcc_ex.c ****   GPIO_InitTypeDef GPIO_InitStruct = {0};
 2839              		.loc 1 1367 1 view .LVU768
 2840 0008 0500     		movs	r5, r0
1368:Drivers/STM32U0xx_HAL_Driver/Src/stm32u0xx_hal_rcc_ex.c ****   FlagStatus       pwrclkchanged = RESET;
 2841              		.loc 1 1368 20 view .LVU769
 2842 000a 04A8     		add	r0, sp, #16
 2843              	.LVL189:
1368:Drivers/STM32U0xx_HAL_Driver/Src/stm32u0xx_hal_rcc_ex.c ****   FlagStatus       pwrclkchanged = RESET;
 2844              		.loc 1 1368 20 view .LVU770
 2845 000c FFF7FEFF 		bl	memset
 2846              	.LVL190:
1369:Drivers/STM32U0xx_HAL_Driver/Src/stm32u0xx_hal_rcc_ex.c ****   FlagStatus       backupchanged = RESET;
 2847              		.loc 1 1369 3 is_stmt 1 view .LVU771
1370:Drivers/STM32U0xx_HAL_Driver/Src/stm32u0xx_hal_rcc_ex.c **** 
 2848              		.loc 1 1370 3 view .LVU772
1373:Drivers/STM32U0xx_HAL_Driver/Src/stm32u0xx_hal_rcc_ex.c **** 
 2849              		.loc 1 1373 3 view .LVU773
1376:Drivers/STM32U0xx_HAL_Driver/Src/stm32u0xx_hal_rcc_ex.c **** #if defined (LSCO_PIN)
 2850              		.loc 1 1376 3 view .LVU774
 2851              	.LBB20:
1376:Drivers/STM32U0xx_HAL_Driver/Src/stm32u0xx_hal_rcc_ex.c **** #if defined (LSCO_PIN)
 2852              		.loc 1 1376 3 view .LVU775
1376:Drivers/STM32U0xx_HAL_Driver/Src/stm32u0xx_hal_rcc_ex.c **** #if defined (LSCO_PIN)
 2853              		.loc 1 1376 3 view .LVU776
 2854 0010 0123     		movs	r3, #1
 2855 0012 234C     		ldr	r4, .L441
 2856              	.LBE20:
ARM GAS  C:\Users\upo\AppData\Local\Temp\ccMLO1b7.s 			page 93


1383:Drivers/STM32U0xx_HAL_Driver/Src/stm32u0xx_hal_rcc_ex.c **** #endif /* LSCO_PIN */
 2857              		.loc 1 1383 3 is_stmt 0 view .LVU777
 2858 0014 A020     		movs	r0, #160
 2859              	.LBB21:
1376:Drivers/STM32U0xx_HAL_Driver/Src/stm32u0xx_hal_rcc_ex.c **** #if defined (LSCO_PIN)
 2860              		.loc 1 1376 3 view .LVU778
 2861 0016 E26C     		ldr	r2, [r4, #76]
 2862              	.LBE21:
1383:Drivers/STM32U0xx_HAL_Driver/Src/stm32u0xx_hal_rcc_ex.c **** #endif /* LSCO_PIN */
 2863              		.loc 1 1383 3 view .LVU779
 2864 0018 02A9     		add	r1, sp, #8
 2865              	.LBB22:
1376:Drivers/STM32U0xx_HAL_Driver/Src/stm32u0xx_hal_rcc_ex.c **** #if defined (LSCO_PIN)
 2866              		.loc 1 1376 3 view .LVU780
 2867 001a 1A43     		orrs	r2, r3
 2868 001c E264     		str	r2, [r4, #76]
1376:Drivers/STM32U0xx_HAL_Driver/Src/stm32u0xx_hal_rcc_ex.c **** #if defined (LSCO_PIN)
 2869              		.loc 1 1376 3 is_stmt 1 view .LVU781
 2870 001e E26C     		ldr	r2, [r4, #76]
 2871              	.LBE22:
1383:Drivers/STM32U0xx_HAL_Driver/Src/stm32u0xx_hal_rcc_ex.c **** #endif /* LSCO_PIN */
 2872              		.loc 1 1383 3 is_stmt 0 view .LVU782
 2873 0020 C005     		lsls	r0, r0, #23
 2874              	.LBB23:
1376:Drivers/STM32U0xx_HAL_Driver/Src/stm32u0xx_hal_rcc_ex.c **** #if defined (LSCO_PIN)
 2875              		.loc 1 1376 3 view .LVU783
 2876 0022 1340     		ands	r3, r2
 2877 0024 0093     		str	r3, [sp]
1376:Drivers/STM32U0xx_HAL_Driver/Src/stm32u0xx_hal_rcc_ex.c **** #if defined (LSCO_PIN)
 2878              		.loc 1 1376 3 is_stmt 1 view .LVU784
 2879              	.LBE23:
1379:Drivers/STM32U0xx_HAL_Driver/Src/stm32u0xx_hal_rcc_ex.c ****   GPIO_InitStruct.Mode = GPIO_MODE_ANALOG;
 2880              		.loc 1 1379 23 is_stmt 0 view .LVU785
 2881 0026 0422     		movs	r2, #4
 2882              	.LBB24:
1376:Drivers/STM32U0xx_HAL_Driver/Src/stm32u0xx_hal_rcc_ex.c **** #if defined (LSCO_PIN)
 2883              		.loc 1 1376 3 view .LVU786
 2884 0028 009B     		ldr	r3, [sp]
 2885              	.LBE24:
1376:Drivers/STM32U0xx_HAL_Driver/Src/stm32u0xx_hal_rcc_ex.c **** #if defined (LSCO_PIN)
 2886              		.loc 1 1376 3 is_stmt 1 view .LVU787
1379:Drivers/STM32U0xx_HAL_Driver/Src/stm32u0xx_hal_rcc_ex.c ****   GPIO_InitStruct.Mode = GPIO_MODE_ANALOG;
 2887              		.loc 1 1379 3 view .LVU788
1380:Drivers/STM32U0xx_HAL_Driver/Src/stm32u0xx_hal_rcc_ex.c ****   GPIO_InitStruct.Speed = GPIO_SPEED_FREQ_HIGH;
 2888              		.loc 1 1380 3 view .LVU789
1379:Drivers/STM32U0xx_HAL_Driver/Src/stm32u0xx_hal_rcc_ex.c ****   GPIO_InitStruct.Mode = GPIO_MODE_ANALOG;
 2889              		.loc 1 1379 23 is_stmt 0 view .LVU790
 2890 002a 0323     		movs	r3, #3
 2891 002c 0292     		str	r2, [sp, #8]
 2892 002e 0393     		str	r3, [sp, #12]
1381:Drivers/STM32U0xx_HAL_Driver/Src/stm32u0xx_hal_rcc_ex.c ****   GPIO_InitStruct.Pull = GPIO_NOPULL;
 2893              		.loc 1 1381 3 is_stmt 1 view .LVU791
1381:Drivers/STM32U0xx_HAL_Driver/Src/stm32u0xx_hal_rcc_ex.c ****   GPIO_InitStruct.Pull = GPIO_NOPULL;
 2894              		.loc 1 1381 25 is_stmt 0 view .LVU792
 2895 0030 0223     		movs	r3, #2
 2896 0032 0593     		str	r3, [sp, #20]
1382:Drivers/STM32U0xx_HAL_Driver/Src/stm32u0xx_hal_rcc_ex.c ****   HAL_GPIO_Init(LSCO_GPIO_PORT, &GPIO_InitStruct);
ARM GAS  C:\Users\upo\AppData\Local\Temp\ccMLO1b7.s 			page 94


 2897              		.loc 1 1382 3 is_stmt 1 view .LVU793
1383:Drivers/STM32U0xx_HAL_Driver/Src/stm32u0xx_hal_rcc_ex.c **** #endif /* LSCO_PIN */
 2898              		.loc 1 1383 3 view .LVU794
 2899 0034 FFF7FEFF 		bl	HAL_GPIO_Init
 2900              	.LVL191:
1386:Drivers/STM32U0xx_HAL_Driver/Src/stm32u0xx_hal_rcc_ex.c ****   {
 2901              		.loc 1 1386 3 view .LVU795
1386:Drivers/STM32U0xx_HAL_Driver/Src/stm32u0xx_hal_rcc_ex.c ****   {
 2902              		.loc 1 1386 7 is_stmt 0 view .LVU796
 2903 0038 8023     		movs	r3, #128
 2904 003a A26D     		ldr	r2, [r4, #88]
 2905 003c 5B05     		lsls	r3, r3, #21
1369:Drivers/STM32U0xx_HAL_Driver/Src/stm32u0xx_hal_rcc_ex.c ****   FlagStatus       backupchanged = RESET;
 2906              		.loc 1 1369 20 view .LVU797
 2907 003e 0026     		movs	r6, #0
1386:Drivers/STM32U0xx_HAL_Driver/Src/stm32u0xx_hal_rcc_ex.c ****   {
 2908              		.loc 1 1386 6 view .LVU798
 2909 0040 1A42     		tst	r2, r3
 2910 0042 07D1     		bne	.L436
1388:Drivers/STM32U0xx_HAL_Driver/Src/stm32u0xx_hal_rcc_ex.c ****     pwrclkchanged = SET;
 2911              		.loc 1 1388 5 is_stmt 1 view .LVU799
 2912              	.LBB25:
1388:Drivers/STM32U0xx_HAL_Driver/Src/stm32u0xx_hal_rcc_ex.c ****     pwrclkchanged = SET;
 2913              		.loc 1 1388 5 view .LVU800
1388:Drivers/STM32U0xx_HAL_Driver/Src/stm32u0xx_hal_rcc_ex.c ****     pwrclkchanged = SET;
 2914              		.loc 1 1388 5 view .LVU801
 2915 0044 A26D     		ldr	r2, [r4, #88]
 2916              	.LBE25:
1389:Drivers/STM32U0xx_HAL_Driver/Src/stm32u0xx_hal_rcc_ex.c ****   }
 2917              		.loc 1 1389 19 is_stmt 0 view .LVU802
 2918 0046 0136     		adds	r6, r6, #1
 2919              	.LBB26:
1388:Drivers/STM32U0xx_HAL_Driver/Src/stm32u0xx_hal_rcc_ex.c ****     pwrclkchanged = SET;
 2920              		.loc 1 1388 5 view .LVU803
 2921 0048 1A43     		orrs	r2, r3
 2922 004a A265     		str	r2, [r4, #88]
1388:Drivers/STM32U0xx_HAL_Driver/Src/stm32u0xx_hal_rcc_ex.c ****     pwrclkchanged = SET;
 2923              		.loc 1 1388 5 is_stmt 1 view .LVU804
 2924 004c A26D     		ldr	r2, [r4, #88]
 2925 004e 1340     		ands	r3, r2
 2926 0050 0193     		str	r3, [sp, #4]
1388:Drivers/STM32U0xx_HAL_Driver/Src/stm32u0xx_hal_rcc_ex.c ****     pwrclkchanged = SET;
 2927              		.loc 1 1388 5 view .LVU805
 2928 0052 019B     		ldr	r3, [sp, #4]
 2929              	.LBE26:
1388:Drivers/STM32U0xx_HAL_Driver/Src/stm32u0xx_hal_rcc_ex.c ****     pwrclkchanged = SET;
 2930              		.loc 1 1388 5 view .LVU806
1389:Drivers/STM32U0xx_HAL_Driver/Src/stm32u0xx_hal_rcc_ex.c ****   }
 2931              		.loc 1 1389 5 view .LVU807
 2932              	.LVL192:
 2933              	.L436:
1391:Drivers/STM32U0xx_HAL_Driver/Src/stm32u0xx_hal_rcc_ex.c ****   {
 2934              		.loc 1 1391 3 view .LVU808
1391:Drivers/STM32U0xx_HAL_Driver/Src/stm32u0xx_hal_rcc_ex.c ****   {
 2935              		.loc 1 1391 7 is_stmt 0 view .LVU809
 2936 0054 134B     		ldr	r3, .L441+4
 2937 0056 1B68     		ldr	r3, [r3]
ARM GAS  C:\Users\upo\AppData\Local\Temp\ccMLO1b7.s 			page 95


1391:Drivers/STM32U0xx_HAL_Driver/Src/stm32u0xx_hal_rcc_ex.c ****   {
 2938              		.loc 1 1391 6 view .LVU810
 2939 0058 DB05     		lsls	r3, r3, #23
 2940 005a 12D5     		bpl	.L437
1397:Drivers/STM32U0xx_HAL_Driver/Src/stm32u0xx_hal_rcc_ex.c **** 
 2941              		.loc 1 1397 3 is_stmt 1 view .LVU811
 2942 005c 9022     		movs	r2, #144
 2943 005e 1049     		ldr	r1, .L441
 2944 0060 114B     		ldr	r3, .L441+8
 2945 0062 8858     		ldr	r0, [r1, r2]
 2946 0064 1840     		ands	r0, r3
 2947 0066 8023     		movs	r3, #128
 2948 0068 2843     		orrs	r0, r5
 2949 006a 5B04     		lsls	r3, r3, #17
 2950 006c 0343     		orrs	r3, r0
 2951 006e 8B50     		str	r3, [r1, r2]
1399:Drivers/STM32U0xx_HAL_Driver/Src/stm32u0xx_hal_rcc_ex.c ****   {
 2952              		.loc 1 1399 3 view .LVU812
 2953              	.LVL193:
 2954              	.L438:
1403:Drivers/STM32U0xx_HAL_Driver/Src/stm32u0xx_hal_rcc_ex.c ****   {
 2955              		.loc 1 1403 3 view .LVU813
1403:Drivers/STM32U0xx_HAL_Driver/Src/stm32u0xx_hal_rcc_ex.c ****   {
 2956              		.loc 1 1403 6 is_stmt 0 view .LVU814
 2957 0070 012E     		cmp	r6, #1
 2958 0072 04D1     		bne	.L435
1405:Drivers/STM32U0xx_HAL_Driver/Src/stm32u0xx_hal_rcc_ex.c ****   }
 2959              		.loc 1 1405 5 is_stmt 1 view .LVU815
 2960 0074 0A4A     		ldr	r2, .L441
 2961 0076 0D49     		ldr	r1, .L441+12
 2962 0078 936D     		ldr	r3, [r2, #88]
 2963 007a 0B40     		ands	r3, r1
 2964 007c 9365     		str	r3, [r2, #88]
 2965              	.L435:
1407:Drivers/STM32U0xx_HAL_Driver/Src/stm32u0xx_hal_rcc_ex.c **** 
 2966              		.loc 1 1407 1 is_stmt 0 view .LVU816
 2967 007e 08B0     		add	sp, sp, #32
 2968              		@ sp needed
 2969              	.LVL194:
 2970              	.LVL195:
1407:Drivers/STM32U0xx_HAL_Driver/Src/stm32u0xx_hal_rcc_ex.c **** 
 2971              		.loc 1 1407 1 view .LVU817
 2972 0080 70BD     		pop	{r4, r5, r6, pc}
 2973              	.LVL196:
 2974              	.L437:
1393:Drivers/STM32U0xx_HAL_Driver/Src/stm32u0xx_hal_rcc_ex.c ****     backupchanged = SET;
 2975              		.loc 1 1393 5 is_stmt 1 view .LVU818
 2976 0082 FFF7FEFF 		bl	HAL_PWR_EnableBkUpAccess
 2977              	.LVL197:
1394:Drivers/STM32U0xx_HAL_Driver/Src/stm32u0xx_hal_rcc_ex.c ****   }
 2978              		.loc 1 1394 5 view .LVU819
1397:Drivers/STM32U0xx_HAL_Driver/Src/stm32u0xx_hal_rcc_ex.c **** 
 2979              		.loc 1 1397 3 view .LVU820
 2980 0086 9021     		movs	r1, #144
 2981 0088 0548     		ldr	r0, .L441
 2982 008a 074A     		ldr	r2, .L441+8
 2983 008c 4358     		ldr	r3, [r0, r1]
ARM GAS  C:\Users\upo\AppData\Local\Temp\ccMLO1b7.s 			page 96


 2984 008e 1340     		ands	r3, r2
 2985 0090 8022     		movs	r2, #128
 2986 0092 2B43     		orrs	r3, r5
 2987 0094 5204     		lsls	r2, r2, #17
 2988 0096 1343     		orrs	r3, r2
 2989 0098 4350     		str	r3, [r0, r1]
1399:Drivers/STM32U0xx_HAL_Driver/Src/stm32u0xx_hal_rcc_ex.c ****   {
 2990              		.loc 1 1399 3 view .LVU821
1401:Drivers/STM32U0xx_HAL_Driver/Src/stm32u0xx_hal_rcc_ex.c ****   }
 2991              		.loc 1 1401 5 view .LVU822
 2992 009a FFF7FEFF 		bl	HAL_PWR_DisableBkUpAccess
 2993              	.LVL198:
 2994 009e E7E7     		b	.L438
 2995              	.L442:
 2996              		.align	2
 2997              	.L441:
 2998 00a0 00100240 		.word	1073876992
 2999 00a4 00700040 		.word	1073770496
 3000 00a8 FFFFFFFC 		.word	-50331649
 3001 00ac FFFFFFEF 		.word	-268435457
 3002              		.cfi_endproc
 3003              	.LFE349:
 3005              		.section	.text.HAL_RCCEx_DisableLSCO,"ax",%progbits
 3006              		.align	1
 3007              		.p2align 2,,3
 3008              		.global	HAL_RCCEx_DisableLSCO
 3009              		.syntax unified
 3010              		.code	16
 3011              		.thumb_func
 3013              	HAL_RCCEx_DisableLSCO:
 3014              	.LFB350:
1414:Drivers/STM32U0xx_HAL_Driver/Src/stm32u0xx_hal_rcc_ex.c ****   FlagStatus       pwrclkchanged = RESET;
 3015              		.loc 1 1414 1 view -0
 3016              		.cfi_startproc
 3017              		@ args = 0, pretend = 0, frame = 8
 3018              		@ frame_needed = 0, uses_anonymous_args = 0
1415:Drivers/STM32U0xx_HAL_Driver/Src/stm32u0xx_hal_rcc_ex.c ****   FlagStatus       backupchanged = RESET;
 3019              		.loc 1 1415 3 view .LVU824
 3020              	.LVL199:
1416:Drivers/STM32U0xx_HAL_Driver/Src/stm32u0xx_hal_rcc_ex.c **** 
 3021              		.loc 1 1416 3 view .LVU825
1419:Drivers/STM32U0xx_HAL_Driver/Src/stm32u0xx_hal_rcc_ex.c ****   {
 3022              		.loc 1 1419 3 view .LVU826
1419:Drivers/STM32U0xx_HAL_Driver/Src/stm32u0xx_hal_rcc_ex.c ****   {
 3023              		.loc 1 1419 7 is_stmt 0 view .LVU827
 3024 0000 8023     		movs	r3, #128
1414:Drivers/STM32U0xx_HAL_Driver/Src/stm32u0xx_hal_rcc_ex.c ****   FlagStatus       pwrclkchanged = RESET;
 3025              		.loc 1 1414 1 view .LVU828
 3026 0002 10B5     		push	{r4, lr}
 3027              	.LCFI13:
 3028              		.cfi_def_cfa_offset 8
 3029              		.cfi_offset 4, -8
 3030              		.cfi_offset 14, -4
1419:Drivers/STM32U0xx_HAL_Driver/Src/stm32u0xx_hal_rcc_ex.c ****   {
 3031              		.loc 1 1419 7 view .LVU829
 3032 0004 1D4C     		ldr	r4, .L449
 3033 0006 5B05     		lsls	r3, r3, #21
ARM GAS  C:\Users\upo\AppData\Local\Temp\ccMLO1b7.s 			page 97


 3034 0008 A26D     		ldr	r2, [r4, #88]
1414:Drivers/STM32U0xx_HAL_Driver/Src/stm32u0xx_hal_rcc_ex.c ****   FlagStatus       pwrclkchanged = RESET;
 3035              		.loc 1 1414 1 view .LVU830
 3036 000a 82B0     		sub	sp, sp, #8
 3037              	.LCFI14:
 3038              		.cfi_def_cfa_offset 16
1419:Drivers/STM32U0xx_HAL_Driver/Src/stm32u0xx_hal_rcc_ex.c ****   {
 3039              		.loc 1 1419 6 view .LVU831
 3040 000c 1A42     		tst	r2, r3
 3041 000e 09D0     		beq	.L444
1424:Drivers/STM32U0xx_HAL_Driver/Src/stm32u0xx_hal_rcc_ex.c ****   {
 3042              		.loc 1 1424 3 is_stmt 1 view .LVU832
1424:Drivers/STM32U0xx_HAL_Driver/Src/stm32u0xx_hal_rcc_ex.c ****   {
 3043              		.loc 1 1424 7 is_stmt 0 view .LVU833
 3044 0010 1B4B     		ldr	r3, .L449+4
 3045 0012 1B68     		ldr	r3, [r3]
1424:Drivers/STM32U0xx_HAL_Driver/Src/stm32u0xx_hal_rcc_ex.c ****   {
 3046              		.loc 1 1424 6 view .LVU834
 3047 0014 DB05     		lsls	r3, r3, #23
 3048 0016 1CD5     		bpl	.L445
1431:Drivers/STM32U0xx_HAL_Driver/Src/stm32u0xx_hal_rcc_ex.c **** 
 3049              		.loc 1 1431 3 is_stmt 1 view .LVU835
 3050 0018 9022     		movs	r2, #144
 3051 001a 1A49     		ldr	r1, .L449+8
 3052 001c A358     		ldr	r3, [r4, r2]
 3053 001e 0B40     		ands	r3, r1
 3054 0020 A350     		str	r3, [r4, r2]
1434:Drivers/STM32U0xx_HAL_Driver/Src/stm32u0xx_hal_rcc_ex.c ****   {
 3055              		.loc 1 1434 3 view .LVU836
1439:Drivers/STM32U0xx_HAL_Driver/Src/stm32u0xx_hal_rcc_ex.c ****   {
 3056              		.loc 1 1439 3 view .LVU837
 3057 0022 14E0     		b	.L443
 3058              	.L444:
1421:Drivers/STM32U0xx_HAL_Driver/Src/stm32u0xx_hal_rcc_ex.c ****     pwrclkchanged = SET;
 3059              		.loc 1 1421 5 view .LVU838
 3060              	.LBB27:
1421:Drivers/STM32U0xx_HAL_Driver/Src/stm32u0xx_hal_rcc_ex.c ****     pwrclkchanged = SET;
 3061              		.loc 1 1421 5 view .LVU839
1421:Drivers/STM32U0xx_HAL_Driver/Src/stm32u0xx_hal_rcc_ex.c ****     pwrclkchanged = SET;
 3062              		.loc 1 1421 5 view .LVU840
 3063 0024 A26D     		ldr	r2, [r4, #88]
 3064 0026 1A43     		orrs	r2, r3
 3065 0028 A265     		str	r2, [r4, #88]
1421:Drivers/STM32U0xx_HAL_Driver/Src/stm32u0xx_hal_rcc_ex.c ****     pwrclkchanged = SET;
 3066              		.loc 1 1421 5 view .LVU841
 3067 002a A26D     		ldr	r2, [r4, #88]
 3068 002c 1340     		ands	r3, r2
 3069 002e 0193     		str	r3, [sp, #4]
1421:Drivers/STM32U0xx_HAL_Driver/Src/stm32u0xx_hal_rcc_ex.c ****     pwrclkchanged = SET;
 3070              		.loc 1 1421 5 view .LVU842
 3071 0030 019B     		ldr	r3, [sp, #4]
 3072              	.LBE27:
1421:Drivers/STM32U0xx_HAL_Driver/Src/stm32u0xx_hal_rcc_ex.c ****     pwrclkchanged = SET;
 3073              		.loc 1 1421 5 view .LVU843
1422:Drivers/STM32U0xx_HAL_Driver/Src/stm32u0xx_hal_rcc_ex.c ****   }
 3074              		.loc 1 1422 5 view .LVU844
 3075              	.LVL200:
ARM GAS  C:\Users\upo\AppData\Local\Temp\ccMLO1b7.s 			page 98


1424:Drivers/STM32U0xx_HAL_Driver/Src/stm32u0xx_hal_rcc_ex.c ****   {
 3076              		.loc 1 1424 3 view .LVU845
1424:Drivers/STM32U0xx_HAL_Driver/Src/stm32u0xx_hal_rcc_ex.c ****   {
 3077              		.loc 1 1424 7 is_stmt 0 view .LVU846
 3078 0032 134B     		ldr	r3, .L449+4
 3079 0034 1B68     		ldr	r3, [r3]
1424:Drivers/STM32U0xx_HAL_Driver/Src/stm32u0xx_hal_rcc_ex.c ****   {
 3080              		.loc 1 1424 6 view .LVU847
 3081 0036 DB05     		lsls	r3, r3, #23
 3082 0038 15D5     		bpl	.L447
1431:Drivers/STM32U0xx_HAL_Driver/Src/stm32u0xx_hal_rcc_ex.c **** 
 3083              		.loc 1 1431 3 is_stmt 1 view .LVU848
 3084 003a 9022     		movs	r2, #144
 3085 003c 1149     		ldr	r1, .L449+8
 3086 003e A358     		ldr	r3, [r4, r2]
 3087 0040 0B40     		ands	r3, r1
 3088 0042 A350     		str	r3, [r4, r2]
1434:Drivers/STM32U0xx_HAL_Driver/Src/stm32u0xx_hal_rcc_ex.c ****   {
 3089              		.loc 1 1434 3 view .LVU849
1439:Drivers/STM32U0xx_HAL_Driver/Src/stm32u0xx_hal_rcc_ex.c ****   {
 3090              		.loc 1 1439 3 view .LVU850
 3091              	.LVL201:
 3092              	.L448:
1441:Drivers/STM32U0xx_HAL_Driver/Src/stm32u0xx_hal_rcc_ex.c ****   }
 3093              		.loc 1 1441 5 view .LVU851
 3094 0044 0D4A     		ldr	r2, .L449
 3095 0046 1049     		ldr	r1, .L449+12
 3096 0048 936D     		ldr	r3, [r2, #88]
 3097 004a 0B40     		ands	r3, r1
 3098 004c 9365     		str	r3, [r2, #88]
 3099              	.LVL202:
 3100              	.L443:
1443:Drivers/STM32U0xx_HAL_Driver/Src/stm32u0xx_hal_rcc_ex.c **** 
 3101              		.loc 1 1443 1 is_stmt 0 view .LVU852
 3102 004e 02B0     		add	sp, sp, #8
 3103              		@ sp needed
 3104 0050 10BD     		pop	{r4, pc}
 3105              	.LVL203:
 3106              	.L445:
1427:Drivers/STM32U0xx_HAL_Driver/Src/stm32u0xx_hal_rcc_ex.c ****     backupchanged = SET;
 3107              		.loc 1 1427 5 is_stmt 1 view .LVU853
 3108 0052 FFF7FEFF 		bl	HAL_PWR_EnableBkUpAccess
 3109              	.LVL204:
1428:Drivers/STM32U0xx_HAL_Driver/Src/stm32u0xx_hal_rcc_ex.c ****   }
 3110              		.loc 1 1428 5 view .LVU854
1431:Drivers/STM32U0xx_HAL_Driver/Src/stm32u0xx_hal_rcc_ex.c **** 
 3111              		.loc 1 1431 3 view .LVU855
 3112 0056 9022     		movs	r2, #144
 3113 0058 0A49     		ldr	r1, .L449+8
 3114 005a A358     		ldr	r3, [r4, r2]
 3115 005c 0B40     		ands	r3, r1
 3116 005e A350     		str	r3, [r4, r2]
1434:Drivers/STM32U0xx_HAL_Driver/Src/stm32u0xx_hal_rcc_ex.c ****   {
 3117              		.loc 1 1434 3 view .LVU856
1437:Drivers/STM32U0xx_HAL_Driver/Src/stm32u0xx_hal_rcc_ex.c ****   }
 3118              		.loc 1 1437 5 view .LVU857
 3119 0060 FFF7FEFF 		bl	HAL_PWR_DisableBkUpAccess
ARM GAS  C:\Users\upo\AppData\Local\Temp\ccMLO1b7.s 			page 99


 3120              	.LVL205:
1439:Drivers/STM32U0xx_HAL_Driver/Src/stm32u0xx_hal_rcc_ex.c ****   {
 3121              		.loc 1 1439 3 view .LVU858
 3122 0064 F3E7     		b	.L443
 3123              	.LVL206:
 3124              	.L447:
1427:Drivers/STM32U0xx_HAL_Driver/Src/stm32u0xx_hal_rcc_ex.c ****     backupchanged = SET;
 3125              		.loc 1 1427 5 view .LVU859
 3126 0066 FFF7FEFF 		bl	HAL_PWR_EnableBkUpAccess
 3127              	.LVL207:
1428:Drivers/STM32U0xx_HAL_Driver/Src/stm32u0xx_hal_rcc_ex.c ****   }
 3128              		.loc 1 1428 5 view .LVU860
1431:Drivers/STM32U0xx_HAL_Driver/Src/stm32u0xx_hal_rcc_ex.c **** 
 3129              		.loc 1 1431 3 view .LVU861
 3130 006a 9022     		movs	r2, #144
 3131 006c 0549     		ldr	r1, .L449+8
 3132 006e A358     		ldr	r3, [r4, r2]
 3133 0070 0B40     		ands	r3, r1
 3134 0072 A350     		str	r3, [r4, r2]
1434:Drivers/STM32U0xx_HAL_Driver/Src/stm32u0xx_hal_rcc_ex.c ****   {
 3135              		.loc 1 1434 3 view .LVU862
1437:Drivers/STM32U0xx_HAL_Driver/Src/stm32u0xx_hal_rcc_ex.c ****   }
 3136              		.loc 1 1437 5 view .LVU863
 3137 0074 FFF7FEFF 		bl	HAL_PWR_DisableBkUpAccess
 3138              	.LVL208:
1439:Drivers/STM32U0xx_HAL_Driver/Src/stm32u0xx_hal_rcc_ex.c ****   {
 3139              		.loc 1 1439 3 view .LVU864
 3140 0078 E4E7     		b	.L448
 3141              	.L450:
 3142 007a C046     		.align	2
 3143              	.L449:
 3144 007c 00100240 		.word	1073876992
 3145 0080 00700040 		.word	1073770496
 3146 0084 FFFFFFFE 		.word	-16777217
 3147 0088 FFFFFFEF 		.word	-268435457
 3148              		.cfi_endproc
 3149              	.LFE350:
 3151              		.section	.text.HAL_RCCEx_CRSConfig,"ax",%progbits
 3152              		.align	1
 3153              		.p2align 2,,3
 3154              		.global	HAL_RCCEx_CRSConfig
 3155              		.syntax unified
 3156              		.code	16
 3157              		.thumb_func
 3159              	HAL_RCCEx_CRSConfig:
 3160              	.LVL209:
 3161              	.LFB351:
1521:Drivers/STM32U0xx_HAL_Driver/Src/stm32u0xx_hal_rcc_ex.c ****   uint32_t value;  /* no init needed */
 3162              		.loc 1 1521 1 view -0
 3163              		.cfi_startproc
 3164              		@ args = 0, pretend = 0, frame = 0
 3165              		@ frame_needed = 0, uses_anonymous_args = 0
 3166              		@ link register save eliminated.
1522:Drivers/STM32U0xx_HAL_Driver/Src/stm32u0xx_hal_rcc_ex.c **** 
 3167              		.loc 1 1522 3 view .LVU866
1525:Drivers/STM32U0xx_HAL_Driver/Src/stm32u0xx_hal_rcc_ex.c ****   assert_param(IS_RCC_CRS_SYNC_SOURCE(pInit->Source));
 3168              		.loc 1 1525 3 view .LVU867
ARM GAS  C:\Users\upo\AppData\Local\Temp\ccMLO1b7.s 			page 100


1526:Drivers/STM32U0xx_HAL_Driver/Src/stm32u0xx_hal_rcc_ex.c ****   assert_param(IS_RCC_CRS_SYNC_POLARITY(pInit->Polarity));
 3169              		.loc 1 1526 3 view .LVU868
1527:Drivers/STM32U0xx_HAL_Driver/Src/stm32u0xx_hal_rcc_ex.c ****   assert_param(IS_RCC_CRS_RELOADVALUE(pInit->ReloadValue));
 3170              		.loc 1 1527 3 view .LVU869
1528:Drivers/STM32U0xx_HAL_Driver/Src/stm32u0xx_hal_rcc_ex.c ****   assert_param(IS_RCC_CRS_ERRORLIMIT(pInit->ErrorLimitValue));
 3171              		.loc 1 1528 3 view .LVU870
1529:Drivers/STM32U0xx_HAL_Driver/Src/stm32u0xx_hal_rcc_ex.c ****   assert_param(IS_RCC_CRS_HSI48CALIBRATION(pInit->HSI48CalibrationValue));
 3172              		.loc 1 1529 3 view .LVU871
1530:Drivers/STM32U0xx_HAL_Driver/Src/stm32u0xx_hal_rcc_ex.c **** 
 3173              		.loc 1 1530 3 view .LVU872
1535:Drivers/STM32U0xx_HAL_Driver/Src/stm32u0xx_hal_rcc_ex.c ****   __HAL_RCC_CRS_RELEASE_RESET();
 3174              		.loc 1 1535 3 view .LVU873
 3175 0000 8022     		movs	r2, #128
1556:Drivers/STM32U0xx_HAL_Driver/Src/stm32u0xx_hal_rcc_ex.c **** 
 3176              		.loc 1 1556 1 is_stmt 0 view .LVU874
 3177              		@ sp needed
1535:Drivers/STM32U0xx_HAL_Driver/Src/stm32u0xx_hal_rcc_ex.c ****   __HAL_RCC_CRS_RELEASE_RESET();
 3178              		.loc 1 1535 3 view .LVU875
 3179 0002 104B     		ldr	r3, .L452
 3180 0004 5202     		lsls	r2, r2, #9
 3181 0006 996B     		ldr	r1, [r3, #56]
 3182 0008 0A43     		orrs	r2, r1
 3183 000a 9A63     		str	r2, [r3, #56]
1536:Drivers/STM32U0xx_HAL_Driver/Src/stm32u0xx_hal_rcc_ex.c **** 
 3184              		.loc 1 1536 3 is_stmt 1 view .LVU876
 3185 000c 9A6B     		ldr	r2, [r3, #56]
 3186 000e 0E49     		ldr	r1, .L452+4
 3187 0010 0A40     		ands	r2, r1
 3188 0012 9A63     		str	r2, [r3, #56]
1541:Drivers/STM32U0xx_HAL_Driver/Src/stm32u0xx_hal_rcc_ex.c ****   /* Set the RELOAD[15:0] bits according to ReloadValue value */
 3189              		.loc 1 1541 3 view .LVU877
1541:Drivers/STM32U0xx_HAL_Driver/Src/stm32u0xx_hal_rcc_ex.c ****   /* Set the RELOAD[15:0] bits according to ReloadValue value */
 3190              		.loc 1 1541 29 is_stmt 0 view .LVU878
 3191 0014 4268     		ldr	r2, [r0, #4]
 3192 0016 0368     		ldr	r3, [r0]
 3193 0018 1343     		orrs	r3, r2
1541:Drivers/STM32U0xx_HAL_Driver/Src/stm32u0xx_hal_rcc_ex.c ****   /* Set the RELOAD[15:0] bits according to ReloadValue value */
 3194              		.loc 1 1541 9 view .LVU879
 3195 001a 8268     		ldr	r2, [r0, #8]
 3196 001c 1343     		orrs	r3, r2
 3197              	.LVL210:
1543:Drivers/STM32U0xx_HAL_Driver/Src/stm32u0xx_hal_rcc_ex.c ****   /* Set the FELIM[7:0] bits according to ErrorLimitValue value */
 3198              		.loc 1 1543 3 is_stmt 1 view .LVU880
1543:Drivers/STM32U0xx_HAL_Driver/Src/stm32u0xx_hal_rcc_ex.c ****   /* Set the FELIM[7:0] bits according to ErrorLimitValue value */
 3199              		.loc 1 1543 9 is_stmt 0 view .LVU881
 3200 001e C268     		ldr	r2, [r0, #12]
 3201 0020 1343     		orrs	r3, r2
 3202              	.LVL211:
1545:Drivers/STM32U0xx_HAL_Driver/Src/stm32u0xx_hal_rcc_ex.c ****   WRITE_REG(CRS->CFGR, value);
 3203              		.loc 1 1545 3 is_stmt 1 view .LVU882
1545:Drivers/STM32U0xx_HAL_Driver/Src/stm32u0xx_hal_rcc_ex.c ****   WRITE_REG(CRS->CFGR, value);
 3204              		.loc 1 1545 36 is_stmt 0 view .LVU883
 3205 0022 0269     		ldr	r2, [r0, #16]
 3206 0024 1204     		lsls	r2, r2, #16
1545:Drivers/STM32U0xx_HAL_Driver/Src/stm32u0xx_hal_rcc_ex.c ****   WRITE_REG(CRS->CFGR, value);
 3207              		.loc 1 1545 9 view .LVU884
 3208 0026 1A43     		orrs	r2, r3
ARM GAS  C:\Users\upo\AppData\Local\Temp\ccMLO1b7.s 			page 101


 3209              	.LVL212:
1546:Drivers/STM32U0xx_HAL_Driver/Src/stm32u0xx_hal_rcc_ex.c **** 
 3210              		.loc 1 1546 3 is_stmt 1 view .LVU885
 3211 0028 084B     		ldr	r3, .L452+8
 3212 002a 5A60     		str	r2, [r3, #4]
1550:Drivers/STM32U0xx_HAL_Driver/Src/stm32u0xx_hal_rcc_ex.c **** 
 3213              		.loc 1 1550 3 view .LVU886
 3214 002c 1968     		ldr	r1, [r3]
 3215 002e 4269     		ldr	r2, [r0, #20]
 3216              	.LVL213:
1550:Drivers/STM32U0xx_HAL_Driver/Src/stm32u0xx_hal_rcc_ex.c **** 
 3217              		.loc 1 1550 3 is_stmt 0 view .LVU887
 3218 0030 0748     		ldr	r0, .L452+12
 3219              	.LVL214:
1550:Drivers/STM32U0xx_HAL_Driver/Src/stm32u0xx_hal_rcc_ex.c **** 
 3220              		.loc 1 1550 3 view .LVU888
 3221 0032 1202     		lsls	r2, r2, #8
 3222 0034 0140     		ands	r1, r0
 3223 0036 0A43     		orrs	r2, r1
1555:Drivers/STM32U0xx_HAL_Driver/Src/stm32u0xx_hal_rcc_ex.c **** }
 3224              		.loc 1 1555 3 view .LVU889
 3225 0038 6021     		movs	r1, #96
1550:Drivers/STM32U0xx_HAL_Driver/Src/stm32u0xx_hal_rcc_ex.c **** 
 3226              		.loc 1 1550 3 view .LVU890
 3227 003a 1A60     		str	r2, [r3]
 3228              	.LVL215:
1555:Drivers/STM32U0xx_HAL_Driver/Src/stm32u0xx_hal_rcc_ex.c **** }
 3229              		.loc 1 1555 3 is_stmt 1 view .LVU891
 3230 003c 1A68     		ldr	r2, [r3]
 3231 003e 0A43     		orrs	r2, r1
 3232 0040 1A60     		str	r2, [r3]
1556:Drivers/STM32U0xx_HAL_Driver/Src/stm32u0xx_hal_rcc_ex.c **** 
 3233              		.loc 1 1556 1 is_stmt 0 view .LVU892
 3234 0042 7047     		bx	lr
 3235              	.L453:
 3236              		.align	2
 3237              	.L452:
 3238 0044 00100240 		.word	1073876992
 3239 0048 FFFFFEFF 		.word	-65537
 3240 004c 006C0040 		.word	1073769472
 3241 0050 FFC0FFFF 		.word	-16129
 3242              		.cfi_endproc
 3243              	.LFE351:
 3245              		.section	.text.HAL_RCCEx_CRSSoftwareSynchronizationGenerate,"ax",%progbits
 3246              		.align	1
 3247              		.p2align 2,,3
 3248              		.global	HAL_RCCEx_CRSSoftwareSynchronizationGenerate
 3249              		.syntax unified
 3250              		.code	16
 3251              		.thumb_func
 3253              	HAL_RCCEx_CRSSoftwareSynchronizationGenerate:
 3254              	.LFB352:
1563:Drivers/STM32U0xx_HAL_Driver/Src/stm32u0xx_hal_rcc_ex.c ****   SET_BIT(CRS->CR, CRS_CR_SWSYNC);
 3255              		.loc 1 1563 1 is_stmt 1 view -0
 3256              		.cfi_startproc
 3257              		@ args = 0, pretend = 0, frame = 0
 3258              		@ frame_needed = 0, uses_anonymous_args = 0
ARM GAS  C:\Users\upo\AppData\Local\Temp\ccMLO1b7.s 			page 102


 3259              		@ link register save eliminated.
1564:Drivers/STM32U0xx_HAL_Driver/Src/stm32u0xx_hal_rcc_ex.c **** }
 3260              		.loc 1 1564 3 view .LVU894
 3261 0000 8021     		movs	r1, #128
1565:Drivers/STM32U0xx_HAL_Driver/Src/stm32u0xx_hal_rcc_ex.c **** 
 3262              		.loc 1 1565 1 is_stmt 0 view .LVU895
 3263              		@ sp needed
1564:Drivers/STM32U0xx_HAL_Driver/Src/stm32u0xx_hal_rcc_ex.c **** }
 3264              		.loc 1 1564 3 view .LVU896
 3265 0002 024A     		ldr	r2, .L455
 3266 0004 1368     		ldr	r3, [r2]
 3267 0006 0B43     		orrs	r3, r1
 3268 0008 1360     		str	r3, [r2]
1565:Drivers/STM32U0xx_HAL_Driver/Src/stm32u0xx_hal_rcc_ex.c **** 
 3269              		.loc 1 1565 1 view .LVU897
 3270 000a 7047     		bx	lr
 3271              	.L456:
 3272              		.align	2
 3273              	.L455:
 3274 000c 006C0040 		.word	1073769472
 3275              		.cfi_endproc
 3276              	.LFE352:
 3278              		.section	.text.HAL_RCCEx_CRSGetSynchronizationInfo,"ax",%progbits
 3279              		.align	1
 3280              		.p2align 2,,3
 3281              		.global	HAL_RCCEx_CRSGetSynchronizationInfo
 3282              		.syntax unified
 3283              		.code	16
 3284              		.thumb_func
 3286              	HAL_RCCEx_CRSGetSynchronizationInfo:
 3287              	.LVL216:
 3288              	.LFB353:
1573:Drivers/STM32U0xx_HAL_Driver/Src/stm32u0xx_hal_rcc_ex.c ****   /* Check the parameter */
 3289              		.loc 1 1573 1 is_stmt 1 view -0
 3290              		.cfi_startproc
 3291              		@ args = 0, pretend = 0, frame = 0
 3292              		@ frame_needed = 0, uses_anonymous_args = 0
 3293              		@ link register save eliminated.
1575:Drivers/STM32U0xx_HAL_Driver/Src/stm32u0xx_hal_rcc_ex.c **** 
 3294              		.loc 1 1575 3 view .LVU899
1578:Drivers/STM32U0xx_HAL_Driver/Src/stm32u0xx_hal_rcc_ex.c **** 
 3295              		.loc 1 1578 3 view .LVU900
1578:Drivers/STM32U0xx_HAL_Driver/Src/stm32u0xx_hal_rcc_ex.c **** 
 3296              		.loc 1 1578 32 is_stmt 0 view .LVU901
 3297 0000 084A     		ldr	r2, .L458
1588:Drivers/STM32U0xx_HAL_Driver/Src/stm32u0xx_hal_rcc_ex.c **** 
 3298              		.loc 1 1588 1 view .LVU902
 3299              		@ sp needed
1578:Drivers/STM32U0xx_HAL_Driver/Src/stm32u0xx_hal_rcc_ex.c **** 
 3300              		.loc 1 1578 32 view .LVU903
 3301 0002 5368     		ldr	r3, [r2, #4]
 3302 0004 1B04     		lsls	r3, r3, #16
 3303 0006 1B0C     		lsrs	r3, r3, #16
1578:Drivers/STM32U0xx_HAL_Driver/Src/stm32u0xx_hal_rcc_ex.c **** 
 3304              		.loc 1 1578 29 view .LVU904
 3305 0008 0360     		str	r3, [r0]
1581:Drivers/STM32U0xx_HAL_Driver/Src/stm32u0xx_hal_rcc_ex.c **** 
ARM GAS  C:\Users\upo\AppData\Local\Temp\ccMLO1b7.s 			page 103


 3306              		.loc 1 1581 3 is_stmt 1 view .LVU905
1581:Drivers/STM32U0xx_HAL_Driver/Src/stm32u0xx_hal_rcc_ex.c **** 
 3307              		.loc 1 1581 42 is_stmt 0 view .LVU906
 3308 000a 1368     		ldr	r3, [r2]
1581:Drivers/STM32U0xx_HAL_Driver/Src/stm32u0xx_hal_rcc_ex.c **** 
 3309              		.loc 1 1581 73 view .LVU907
 3310 000c 9B04     		lsls	r3, r3, #18
 3311 000e 9B0E     		lsrs	r3, r3, #26
1581:Drivers/STM32U0xx_HAL_Driver/Src/stm32u0xx_hal_rcc_ex.c **** 
 3312              		.loc 1 1581 39 view .LVU908
 3313 0010 4360     		str	r3, [r0, #4]
1584:Drivers/STM32U0xx_HAL_Driver/Src/stm32u0xx_hal_rcc_ex.c **** 
 3314              		.loc 1 1584 3 is_stmt 1 view .LVU909
1584:Drivers/STM32U0xx_HAL_Driver/Src/stm32u0xx_hal_rcc_ex.c **** 
 3315              		.loc 1 1584 37 is_stmt 0 view .LVU910
 3316 0012 9368     		ldr	r3, [r2, #8]
1584:Drivers/STM32U0xx_HAL_Driver/Src/stm32u0xx_hal_rcc_ex.c **** 
 3317              		.loc 1 1584 71 view .LVU911
 3318 0014 1B0C     		lsrs	r3, r3, #16
1584:Drivers/STM32U0xx_HAL_Driver/Src/stm32u0xx_hal_rcc_ex.c **** 
 3319              		.loc 1 1584 34 view .LVU912
 3320 0016 8360     		str	r3, [r0, #8]
1587:Drivers/STM32U0xx_HAL_Driver/Src/stm32u0xx_hal_rcc_ex.c **** }
 3321              		.loc 1 1587 3 is_stmt 1 view .LVU913
1587:Drivers/STM32U0xx_HAL_Driver/Src/stm32u0xx_hal_rcc_ex.c **** }
 3322              		.loc 1 1587 39 is_stmt 0 view .LVU914
 3323 0018 9368     		ldr	r3, [r2, #8]
 3324 001a 8022     		movs	r2, #128
 3325 001c 1202     		lsls	r2, r2, #8
 3326 001e 1340     		ands	r3, r2
1587:Drivers/STM32U0xx_HAL_Driver/Src/stm32u0xx_hal_rcc_ex.c **** }
 3327              		.loc 1 1587 36 view .LVU915
 3328 0020 C360     		str	r3, [r0, #12]
1588:Drivers/STM32U0xx_HAL_Driver/Src/stm32u0xx_hal_rcc_ex.c **** 
 3329              		.loc 1 1588 1 view .LVU916
 3330 0022 7047     		bx	lr
 3331              	.L459:
 3332              		.align	2
 3333              	.L458:
 3334 0024 006C0040 		.word	1073769472
 3335              		.cfi_endproc
 3336              	.LFE353:
 3338              		.section	.text.HAL_RCCEx_CRSWaitSynchronization,"ax",%progbits
 3339              		.align	1
 3340              		.p2align 2,,3
 3341              		.global	HAL_RCCEx_CRSWaitSynchronization
 3342              		.syntax unified
 3343              		.code	16
 3344              		.thumb_func
 3346              	HAL_RCCEx_CRSWaitSynchronization:
 3347              	.LVL217:
 3348              	.LFB354:
1606:Drivers/STM32U0xx_HAL_Driver/Src/stm32u0xx_hal_rcc_ex.c ****   uint32_t crsstatus = RCC_CRS_NONE;
 3349              		.loc 1 1606 1 is_stmt 1 view -0
 3350              		.cfi_startproc
 3351              		@ args = 0, pretend = 0, frame = 0
 3352              		@ frame_needed = 0, uses_anonymous_args = 0
ARM GAS  C:\Users\upo\AppData\Local\Temp\ccMLO1b7.s 			page 104


1607:Drivers/STM32U0xx_HAL_Driver/Src/stm32u0xx_hal_rcc_ex.c ****   uint32_t tickstart;
 3353              		.loc 1 1607 3 view .LVU918
1608:Drivers/STM32U0xx_HAL_Driver/Src/stm32u0xx_hal_rcc_ex.c **** 
 3354              		.loc 1 1608 3 view .LVU919
1611:Drivers/STM32U0xx_HAL_Driver/Src/stm32u0xx_hal_rcc_ex.c **** 
 3355              		.loc 1 1611 3 view .LVU920
1606:Drivers/STM32U0xx_HAL_Driver/Src/stm32u0xx_hal_rcc_ex.c ****   uint32_t crsstatus = RCC_CRS_NONE;
 3356              		.loc 1 1606 1 is_stmt 0 view .LVU921
 3357 0000 F8B5     		push	{r3, r4, r5, r6, r7, lr}
 3358              	.LCFI15:
 3359              		.cfi_def_cfa_offset 24
 3360              		.cfi_offset 3, -24
 3361              		.cfi_offset 4, -20
 3362              		.cfi_offset 5, -16
 3363              		.cfi_offset 6, -12
 3364              		.cfi_offset 7, -8
 3365              		.cfi_offset 14, -4
 3366 0002 CE46     		mov	lr, r9
 3367 0004 4746     		mov	r7, r8
 3368 0006 80B5     		push	{r7, lr}
 3369              	.LCFI16:
 3370              		.cfi_def_cfa_offset 32
 3371              		.cfi_offset 8, -32
 3372              		.cfi_offset 9, -28
1606:Drivers/STM32U0xx_HAL_Driver/Src/stm32u0xx_hal_rcc_ex.c ****   uint32_t crsstatus = RCC_CRS_NONE;
 3373              		.loc 1 1606 1 view .LVU922
 3374 0008 0600     		movs	r6, r0
1611:Drivers/STM32U0xx_HAL_Driver/Src/stm32u0xx_hal_rcc_ex.c **** 
 3375              		.loc 1 1611 15 view .LVU923
 3376 000a FFF7FEFF 		bl	HAL_GetTick
 3377              	.LVL218:
1611:Drivers/STM32U0xx_HAL_Driver/Src/stm32u0xx_hal_rcc_ex.c **** 
 3378              		.loc 1 1611 15 view .LVU924
 3379 000e 0700     		movs	r7, r0
 3380              	.LVL219:
1611:Drivers/STM32U0xx_HAL_Driver/Src/stm32u0xx_hal_rcc_ex.c **** 
 3381              		.loc 1 1611 15 view .LVU925
 3382 0010 731C     		adds	r3, r6, #1
 3383 0012 3CD1     		bne	.L522
1644:Drivers/STM32U0xx_HAL_Driver/Src/stm32u0xx_hal_rcc_ex.c ****     {
 3384              		.loc 1 1644 9 view .LVU926
 3385 0014 8022     		movs	r2, #128
 3386 0016 D200     		lsls	r2, r2, #3
 3387 0018 9446     		mov	ip, r2
1647:Drivers/STM32U0xx_HAL_Driver/Src/stm32u0xx_hal_rcc_ex.c **** 
 3388              		.loc 1 1647 17 view .LVU927
 3389 001a 2022     		movs	r2, #32
 3390 001c 9046     		mov	r8, r2
1654:Drivers/STM32U0xx_HAL_Driver/Src/stm32u0xx_hal_rcc_ex.c ****     {
 3391              		.loc 1 1654 9 view .LVU928
 3392 001e E032     		adds	r2, r2, #224
1624:Drivers/STM32U0xx_HAL_Driver/Src/stm32u0xx_hal_rcc_ex.c ****     {
 3393              		.loc 1 1624 9 view .LVU929
 3394 0020 0121     		movs	r1, #1
1634:Drivers/STM32U0xx_HAL_Driver/Src/stm32u0xx_hal_rcc_ex.c ****     {
 3395              		.loc 1 1634 9 view .LVU930
 3396 0022 0224     		movs	r4, #2
ARM GAS  C:\Users\upo\AppData\Local\Temp\ccMLO1b7.s 			page 105


1637:Drivers/STM32U0xx_HAL_Driver/Src/stm32u0xx_hal_rcc_ex.c **** 
 3397              		.loc 1 1637 17 view .LVU931
 3398 0024 0425     		movs	r5, #4
1654:Drivers/STM32U0xx_HAL_Driver/Src/stm32u0xx_hal_rcc_ex.c ****     {
 3399              		.loc 1 1654 9 view .LVU932
 3400 0026 9146     		mov	r9, r2
1657:Drivers/STM32U0xx_HAL_Driver/Src/stm32u0xx_hal_rcc_ex.c **** 
 3401              		.loc 1 1657 17 view .LVU933
 3402 0028 0826     		movs	r6, #8
 3403              	.LVL220:
1624:Drivers/STM32U0xx_HAL_Driver/Src/stm32u0xx_hal_rcc_ex.c ****     {
 3404              		.loc 1 1624 9 view .LVU934
 3405 002a 314B     		ldr	r3, .L523
 3406              	.LVL221:
 3407              	.L468:
1614:Drivers/STM32U0xx_HAL_Driver/Src/stm32u0xx_hal_rcc_ex.c ****   {
 3408              		.loc 1 1614 3 is_stmt 1 view .LVU935
1616:Drivers/STM32U0xx_HAL_Driver/Src/stm32u0xx_hal_rcc_ex.c ****     {
 3409              		.loc 1 1616 5 view .LVU936
1624:Drivers/STM32U0xx_HAL_Driver/Src/stm32u0xx_hal_rcc_ex.c ****     {
 3410              		.loc 1 1624 5 view .LVU937
1624:Drivers/STM32U0xx_HAL_Driver/Src/stm32u0xx_hal_rcc_ex.c ****     {
 3411              		.loc 1 1624 9 is_stmt 0 view .LVU938
 3412 002c 0800     		movs	r0, r1
 3413 002e 9A68     		ldr	r2, [r3, #8]
 3414 0030 1040     		ands	r0, r2
1624:Drivers/STM32U0xx_HAL_Driver/Src/stm32u0xx_hal_rcc_ex.c ****     {
 3415              		.loc 1 1624 8 view .LVU939
 3416 0032 1142     		tst	r1, r2
 3417 0034 01D0     		beq	.L462
1627:Drivers/STM32U0xx_HAL_Driver/Src/stm32u0xx_hal_rcc_ex.c **** 
 3418              		.loc 1 1627 7 is_stmt 1 view .LVU940
 3419              	.LVL222:
1630:Drivers/STM32U0xx_HAL_Driver/Src/stm32u0xx_hal_rcc_ex.c ****     }
 3420              		.loc 1 1630 7 view .LVU941
1630:Drivers/STM32U0xx_HAL_Driver/Src/stm32u0xx_hal_rcc_ex.c ****     }
 3421              		.loc 1 1630 7 view .LVU942
1630:Drivers/STM32U0xx_HAL_Driver/Src/stm32u0xx_hal_rcc_ex.c ****     }
 3422              		.loc 1 1630 7 view .LVU943
1627:Drivers/STM32U0xx_HAL_Driver/Src/stm32u0xx_hal_rcc_ex.c **** 
 3423              		.loc 1 1627 17 is_stmt 0 view .LVU944
 3424 0036 0220     		movs	r0, #2
1630:Drivers/STM32U0xx_HAL_Driver/Src/stm32u0xx_hal_rcc_ex.c ****     }
 3425              		.loc 1 1630 7 view .LVU945
 3426 0038 D960     		str	r1, [r3, #12]
 3427              	.LVL223:
 3428              	.L462:
1630:Drivers/STM32U0xx_HAL_Driver/Src/stm32u0xx_hal_rcc_ex.c ****     }
 3429              		.loc 1 1630 7 is_stmt 1 view .LVU946
1634:Drivers/STM32U0xx_HAL_Driver/Src/stm32u0xx_hal_rcc_ex.c ****     {
 3430              		.loc 1 1634 5 view .LVU947
1634:Drivers/STM32U0xx_HAL_Driver/Src/stm32u0xx_hal_rcc_ex.c ****     {
 3431              		.loc 1 1634 9 is_stmt 0 view .LVU948
 3432 003a 9A68     		ldr	r2, [r3, #8]
1634:Drivers/STM32U0xx_HAL_Driver/Src/stm32u0xx_hal_rcc_ex.c ****     {
 3433              		.loc 1 1634 8 view .LVU949
 3434 003c 1442     		tst	r4, r2
ARM GAS  C:\Users\upo\AppData\Local\Temp\ccMLO1b7.s 			page 106


 3435 003e 01D0     		beq	.L463
1637:Drivers/STM32U0xx_HAL_Driver/Src/stm32u0xx_hal_rcc_ex.c **** 
 3436              		.loc 1 1637 7 is_stmt 1 view .LVU950
1637:Drivers/STM32U0xx_HAL_Driver/Src/stm32u0xx_hal_rcc_ex.c **** 
 3437              		.loc 1 1637 17 is_stmt 0 view .LVU951
 3438 0040 2843     		orrs	r0, r5
 3439              	.LVL224:
1640:Drivers/STM32U0xx_HAL_Driver/Src/stm32u0xx_hal_rcc_ex.c ****     }
 3440              		.loc 1 1640 7 is_stmt 1 view .LVU952
1640:Drivers/STM32U0xx_HAL_Driver/Src/stm32u0xx_hal_rcc_ex.c ****     }
 3441              		.loc 1 1640 7 view .LVU953
1640:Drivers/STM32U0xx_HAL_Driver/Src/stm32u0xx_hal_rcc_ex.c ****     }
 3442              		.loc 1 1640 7 view .LVU954
 3443 0042 DC60     		str	r4, [r3, #12]
 3444              	.L463:
1640:Drivers/STM32U0xx_HAL_Driver/Src/stm32u0xx_hal_rcc_ex.c ****     }
 3445              		.loc 1 1640 7 view .LVU955
1644:Drivers/STM32U0xx_HAL_Driver/Src/stm32u0xx_hal_rcc_ex.c ****     {
 3446              		.loc 1 1644 5 view .LVU956
1644:Drivers/STM32U0xx_HAL_Driver/Src/stm32u0xx_hal_rcc_ex.c ****     {
 3447              		.loc 1 1644 8 is_stmt 0 view .LVU957
 3448 0044 6746     		mov	r7, ip
1644:Drivers/STM32U0xx_HAL_Driver/Src/stm32u0xx_hal_rcc_ex.c ****     {
 3449              		.loc 1 1644 9 view .LVU958
 3450 0046 9A68     		ldr	r2, [r3, #8]
1644:Drivers/STM32U0xx_HAL_Driver/Src/stm32u0xx_hal_rcc_ex.c ****     {
 3451              		.loc 1 1644 8 view .LVU959
 3452 0048 3A42     		tst	r2, r7
 3453 004a 02D0     		beq	.L464
1647:Drivers/STM32U0xx_HAL_Driver/Src/stm32u0xx_hal_rcc_ex.c **** 
 3454              		.loc 1 1647 7 is_stmt 1 view .LVU960
1647:Drivers/STM32U0xx_HAL_Driver/Src/stm32u0xx_hal_rcc_ex.c **** 
 3455              		.loc 1 1647 17 is_stmt 0 view .LVU961
 3456 004c 4246     		mov	r2, r8
1650:Drivers/STM32U0xx_HAL_Driver/Src/stm32u0xx_hal_rcc_ex.c ****     }
 3457              		.loc 1 1650 7 view .LVU962
 3458 004e DD60     		str	r5, [r3, #12]
1647:Drivers/STM32U0xx_HAL_Driver/Src/stm32u0xx_hal_rcc_ex.c **** 
 3459              		.loc 1 1647 17 view .LVU963
 3460 0050 1043     		orrs	r0, r2
 3461              	.LVL225:
1650:Drivers/STM32U0xx_HAL_Driver/Src/stm32u0xx_hal_rcc_ex.c ****     }
 3462              		.loc 1 1650 7 is_stmt 1 view .LVU964
1650:Drivers/STM32U0xx_HAL_Driver/Src/stm32u0xx_hal_rcc_ex.c ****     }
 3463              		.loc 1 1650 7 view .LVU965
1650:Drivers/STM32U0xx_HAL_Driver/Src/stm32u0xx_hal_rcc_ex.c ****     }
 3464              		.loc 1 1650 7 view .LVU966
 3465              	.L464:
1650:Drivers/STM32U0xx_HAL_Driver/Src/stm32u0xx_hal_rcc_ex.c ****     }
 3466              		.loc 1 1650 7 view .LVU967
1654:Drivers/STM32U0xx_HAL_Driver/Src/stm32u0xx_hal_rcc_ex.c ****     {
 3467              		.loc 1 1654 5 view .LVU968
1654:Drivers/STM32U0xx_HAL_Driver/Src/stm32u0xx_hal_rcc_ex.c ****     {
 3468              		.loc 1 1654 8 is_stmt 0 view .LVU969
 3469 0052 4F46     		mov	r7, r9
1654:Drivers/STM32U0xx_HAL_Driver/Src/stm32u0xx_hal_rcc_ex.c ****     {
 3470              		.loc 1 1654 9 view .LVU970
ARM GAS  C:\Users\upo\AppData\Local\Temp\ccMLO1b7.s 			page 107


 3471 0054 9A68     		ldr	r2, [r3, #8]
1654:Drivers/STM32U0xx_HAL_Driver/Src/stm32u0xx_hal_rcc_ex.c ****     {
 3472              		.loc 1 1654 8 view .LVU971
 3473 0056 3A42     		tst	r2, r7
 3474 0058 01D0     		beq	.L465
1657:Drivers/STM32U0xx_HAL_Driver/Src/stm32u0xx_hal_rcc_ex.c **** 
 3475              		.loc 1 1657 7 is_stmt 1 view .LVU972
1657:Drivers/STM32U0xx_HAL_Driver/Src/stm32u0xx_hal_rcc_ex.c **** 
 3476              		.loc 1 1657 17 is_stmt 0 view .LVU973
 3477 005a 3043     		orrs	r0, r6
 3478              	.LVL226:
1660:Drivers/STM32U0xx_HAL_Driver/Src/stm32u0xx_hal_rcc_ex.c ****     }
 3479              		.loc 1 1660 7 is_stmt 1 view .LVU974
1660:Drivers/STM32U0xx_HAL_Driver/Src/stm32u0xx_hal_rcc_ex.c ****     }
 3480              		.loc 1 1660 7 view .LVU975
1660:Drivers/STM32U0xx_HAL_Driver/Src/stm32u0xx_hal_rcc_ex.c ****     }
 3481              		.loc 1 1660 7 view .LVU976
 3482 005c DD60     		str	r5, [r3, #12]
 3483              	.L465:
1660:Drivers/STM32U0xx_HAL_Driver/Src/stm32u0xx_hal_rcc_ex.c ****     }
 3484              		.loc 1 1660 7 view .LVU977
1664:Drivers/STM32U0xx_HAL_Driver/Src/stm32u0xx_hal_rcc_ex.c ****     {
 3485              		.loc 1 1664 5 view .LVU978
1664:Drivers/STM32U0xx_HAL_Driver/Src/stm32u0xx_hal_rcc_ex.c ****     {
 3486              		.loc 1 1664 9 is_stmt 0 view .LVU979
 3487 005e 9A68     		ldr	r2, [r3, #8]
1664:Drivers/STM32U0xx_HAL_Driver/Src/stm32u0xx_hal_rcc_ex.c ****     {
 3488              		.loc 1 1664 8 view .LVU980
 3489 0060 9205     		lsls	r2, r2, #22
 3490 0062 09D4     		bmi	.L466
1670:Drivers/STM32U0xx_HAL_Driver/Src/stm32u0xx_hal_rcc_ex.c ****     }
 3491              		.loc 1 1670 7 is_stmt 1 view .LVU981
1674:Drivers/STM32U0xx_HAL_Driver/Src/stm32u0xx_hal_rcc_ex.c ****     {
 3492              		.loc 1 1674 5 view .LVU982
1674:Drivers/STM32U0xx_HAL_Driver/Src/stm32u0xx_hal_rcc_ex.c ****     {
 3493              		.loc 1 1674 9 is_stmt 0 view .LVU983
 3494 0064 9A68     		ldr	r2, [r3, #8]
1674:Drivers/STM32U0xx_HAL_Driver/Src/stm32u0xx_hal_rcc_ex.c ****     {
 3495              		.loc 1 1674 8 view .LVU984
 3496 0066 1642     		tst	r6, r2
 3497 0068 00D0     		beq	.L467
1677:Drivers/STM32U0xx_HAL_Driver/Src/stm32u0xx_hal_rcc_ex.c ****     }
 3498              		.loc 1 1677 7 is_stmt 1 view .LVU985
1677:Drivers/STM32U0xx_HAL_Driver/Src/stm32u0xx_hal_rcc_ex.c ****     }
 3499              		.loc 1 1677 7 view .LVU986
1677:Drivers/STM32U0xx_HAL_Driver/Src/stm32u0xx_hal_rcc_ex.c ****     }
 3500              		.loc 1 1677 7 view .LVU987
 3501 006a DE60     		str	r6, [r3, #12]
 3502              	.L467:
1677:Drivers/STM32U0xx_HAL_Driver/Src/stm32u0xx_hal_rcc_ex.c ****     }
 3503              		.loc 1 1677 7 view .LVU988
1679:Drivers/STM32U0xx_HAL_Driver/Src/stm32u0xx_hal_rcc_ex.c **** 
 3504              		.loc 1 1679 25 view .LVU989
 3505 006c 0028     		cmp	r0, #0
 3506 006e DDD0     		beq	.L468
 3507              	.LVL227:
 3508              	.L460:
ARM GAS  C:\Users\upo\AppData\Local\Temp\ccMLO1b7.s 			page 108


1682:Drivers/STM32U0xx_HAL_Driver/Src/stm32u0xx_hal_rcc_ex.c **** 
 3509              		.loc 1 1682 1 is_stmt 0 view .LVU990
 3510              		@ sp needed
 3511 0070 C0BC     		pop	{r6, r7}
 3512 0072 B946     		mov	r9, r7
 3513 0074 B046     		mov	r8, r6
 3514 0076 F8BD     		pop	{r3, r4, r5, r6, r7, pc}
 3515              	.LVL228:
 3516              	.L466:
1667:Drivers/STM32U0xx_HAL_Driver/Src/stm32u0xx_hal_rcc_ex.c **** 
 3517              		.loc 1 1667 7 is_stmt 1 view .LVU991
1670:Drivers/STM32U0xx_HAL_Driver/Src/stm32u0xx_hal_rcc_ex.c ****     }
 3518              		.loc 1 1670 7 view .LVU992
1670:Drivers/STM32U0xx_HAL_Driver/Src/stm32u0xx_hal_rcc_ex.c ****     }
 3519              		.loc 1 1670 7 view .LVU993
1670:Drivers/STM32U0xx_HAL_Driver/Src/stm32u0xx_hal_rcc_ex.c ****     }
 3520              		.loc 1 1670 7 view .LVU994
 3521 0078 0422     		movs	r2, #4
 3522 007a 1D4B     		ldr	r3, .L523
 3523 007c DA60     		str	r2, [r3, #12]
1670:Drivers/STM32U0xx_HAL_Driver/Src/stm32u0xx_hal_rcc_ex.c ****     }
 3524              		.loc 1 1670 7 view .LVU995
1674:Drivers/STM32U0xx_HAL_Driver/Src/stm32u0xx_hal_rcc_ex.c ****     {
 3525              		.loc 1 1674 5 view .LVU996
1674:Drivers/STM32U0xx_HAL_Driver/Src/stm32u0xx_hal_rcc_ex.c ****     {
 3526              		.loc 1 1674 9 is_stmt 0 view .LVU997
 3527 007e 9968     		ldr	r1, [r3, #8]
 3528 0080 0432     		adds	r2, r2, #4
1674:Drivers/STM32U0xx_HAL_Driver/Src/stm32u0xx_hal_rcc_ex.c ****     {
 3529              		.loc 1 1674 8 view .LVU998
 3530 0082 0A42     		tst	r2, r1
 3531 0084 00D0     		beq	.L476
1677:Drivers/STM32U0xx_HAL_Driver/Src/stm32u0xx_hal_rcc_ex.c ****     }
 3532              		.loc 1 1677 7 is_stmt 1 view .LVU999
1677:Drivers/STM32U0xx_HAL_Driver/Src/stm32u0xx_hal_rcc_ex.c ****     }
 3533              		.loc 1 1677 7 view .LVU1000
1677:Drivers/STM32U0xx_HAL_Driver/Src/stm32u0xx_hal_rcc_ex.c ****     }
 3534              		.loc 1 1677 7 view .LVU1001
 3535 0086 DA60     		str	r2, [r3, #12]
1677:Drivers/STM32U0xx_HAL_Driver/Src/stm32u0xx_hal_rcc_ex.c ****     }
 3536              		.loc 1 1677 7 view .LVU1002
1679:Drivers/STM32U0xx_HAL_Driver/Src/stm32u0xx_hal_rcc_ex.c **** 
 3537              		.loc 1 1679 25 view .LVU1003
 3538              	.L476:
1667:Drivers/STM32U0xx_HAL_Driver/Src/stm32u0xx_hal_rcc_ex.c **** 
 3539              		.loc 1 1667 17 is_stmt 0 view .LVU1004
 3540 0088 1023     		movs	r3, #16
 3541 008a 1843     		orrs	r0, r3
 3542              	.LVL229:
1681:Drivers/STM32U0xx_HAL_Driver/Src/stm32u0xx_hal_rcc_ex.c **** }
 3543              		.loc 1 1681 3 is_stmt 1 view .LVU1005
1681:Drivers/STM32U0xx_HAL_Driver/Src/stm32u0xx_hal_rcc_ex.c **** }
 3544              		.loc 1 1681 10 is_stmt 0 view .LVU1006
 3545 008c F0E7     		b	.L460
 3546              	.LVL230:
 3547              	.L522:
1618:Drivers/STM32U0xx_HAL_Driver/Src/stm32u0xx_hal_rcc_ex.c ****       {
ARM GAS  C:\Users\upo\AppData\Local\Temp\ccMLO1b7.s 			page 109


 3548              		.loc 1 1618 51 view .LVU1007
 3549 008e 7242     		rsbs	r2, r6, #0
 3550 0090 7241     		adcs	r2, r2, r6
1627:Drivers/STM32U0xx_HAL_Driver/Src/stm32u0xx_hal_rcc_ex.c **** 
 3551              		.loc 1 1627 17 view .LVU1008
 3552 0092 0225     		movs	r5, #2
1618:Drivers/STM32U0xx_HAL_Driver/Src/stm32u0xx_hal_rcc_ex.c ****       {
 3553              		.loc 1 1618 51 view .LVU1009
 3554 0094 9046     		mov	r8, r2
1624:Drivers/STM32U0xx_HAL_Driver/Src/stm32u0xx_hal_rcc_ex.c ****     {
 3555              		.loc 1 1624 9 view .LVU1010
 3556 0096 164C     		ldr	r4, .L523
 3557              	.LVL231:
 3558              	.L461:
1614:Drivers/STM32U0xx_HAL_Driver/Src/stm32u0xx_hal_rcc_ex.c ****   {
 3559              		.loc 1 1614 3 is_stmt 1 view .LVU1011
1616:Drivers/STM32U0xx_HAL_Driver/Src/stm32u0xx_hal_rcc_ex.c ****     {
 3560              		.loc 1 1616 5 view .LVU1012
1618:Drivers/STM32U0xx_HAL_Driver/Src/stm32u0xx_hal_rcc_ex.c ****       {
 3561              		.loc 1 1618 7 view .LVU1013
1618:Drivers/STM32U0xx_HAL_Driver/Src/stm32u0xx_hal_rcc_ex.c ****       {
 3562              		.loc 1 1618 13 is_stmt 0 view .LVU1014
 3563 0098 FFF7FEFF 		bl	HAL_GetTick
 3564              	.LVL232:
1618:Drivers/STM32U0xx_HAL_Driver/Src/stm32u0xx_hal_rcc_ex.c ****       {
 3565              		.loc 1 1618 27 view .LVU1015
 3566 009c C31B     		subs	r3, r0, r7
1620:Drivers/STM32U0xx_HAL_Driver/Src/stm32u0xx_hal_rcc_ex.c ****       }
 3567              		.loc 1 1620 19 view .LVU1016
 3568 009e 0120     		movs	r0, #1
1618:Drivers/STM32U0xx_HAL_Driver/Src/stm32u0xx_hal_rcc_ex.c ****       {
 3569              		.loc 1 1618 10 view .LVU1017
 3570 00a0 B342     		cmp	r3, r6
 3571 00a2 00D8     		bhi	.L470
1618:Drivers/STM32U0xx_HAL_Driver/Src/stm32u0xx_hal_rcc_ex.c ****       {
 3572              		.loc 1 1618 51 discriminator 1 view .LVU1018
 3573 00a4 4046     		mov	r0, r8
 3574              	.L470:
 3575              	.LVL233:
1624:Drivers/STM32U0xx_HAL_Driver/Src/stm32u0xx_hal_rcc_ex.c ****     {
 3576              		.loc 1 1624 5 is_stmt 1 view .LVU1019
1624:Drivers/STM32U0xx_HAL_Driver/Src/stm32u0xx_hal_rcc_ex.c ****     {
 3577              		.loc 1 1624 9 is_stmt 0 view .LVU1020
 3578 00a6 0123     		movs	r3, #1
 3579 00a8 A268     		ldr	r2, [r4, #8]
1624:Drivers/STM32U0xx_HAL_Driver/Src/stm32u0xx_hal_rcc_ex.c ****     {
 3580              		.loc 1 1624 8 view .LVU1021
 3581 00aa 1342     		tst	r3, r2
 3582 00ac 01D0     		beq	.L471
1627:Drivers/STM32U0xx_HAL_Driver/Src/stm32u0xx_hal_rcc_ex.c **** 
 3583              		.loc 1 1627 7 is_stmt 1 view .LVU1022
1627:Drivers/STM32U0xx_HAL_Driver/Src/stm32u0xx_hal_rcc_ex.c **** 
 3584              		.loc 1 1627 17 is_stmt 0 view .LVU1023
 3585 00ae 2843     		orrs	r0, r5
 3586              	.LVL234:
1630:Drivers/STM32U0xx_HAL_Driver/Src/stm32u0xx_hal_rcc_ex.c ****     }
 3587              		.loc 1 1630 7 is_stmt 1 view .LVU1024
ARM GAS  C:\Users\upo\AppData\Local\Temp\ccMLO1b7.s 			page 110


1630:Drivers/STM32U0xx_HAL_Driver/Src/stm32u0xx_hal_rcc_ex.c ****     }
 3588              		.loc 1 1630 7 view .LVU1025
1630:Drivers/STM32U0xx_HAL_Driver/Src/stm32u0xx_hal_rcc_ex.c ****     }
 3589              		.loc 1 1630 7 view .LVU1026
 3590 00b0 E360     		str	r3, [r4, #12]
 3591              	.L471:
1630:Drivers/STM32U0xx_HAL_Driver/Src/stm32u0xx_hal_rcc_ex.c ****     }
 3592              		.loc 1 1630 7 discriminator 4 view .LVU1027
1634:Drivers/STM32U0xx_HAL_Driver/Src/stm32u0xx_hal_rcc_ex.c ****     {
 3593              		.loc 1 1634 5 discriminator 4 view .LVU1028
1634:Drivers/STM32U0xx_HAL_Driver/Src/stm32u0xx_hal_rcc_ex.c ****     {
 3594              		.loc 1 1634 9 is_stmt 0 discriminator 4 view .LVU1029
 3595 00b2 A368     		ldr	r3, [r4, #8]
1634:Drivers/STM32U0xx_HAL_Driver/Src/stm32u0xx_hal_rcc_ex.c ****     {
 3596              		.loc 1 1634 8 discriminator 4 view .LVU1030
 3597 00b4 1D42     		tst	r5, r3
 3598 00b6 02D0     		beq	.L472
1637:Drivers/STM32U0xx_HAL_Driver/Src/stm32u0xx_hal_rcc_ex.c **** 
 3599              		.loc 1 1637 7 is_stmt 1 view .LVU1031
1637:Drivers/STM32U0xx_HAL_Driver/Src/stm32u0xx_hal_rcc_ex.c **** 
 3600              		.loc 1 1637 17 is_stmt 0 view .LVU1032
 3601 00b8 0423     		movs	r3, #4
1640:Drivers/STM32U0xx_HAL_Driver/Src/stm32u0xx_hal_rcc_ex.c ****     }
 3602              		.loc 1 1640 7 view .LVU1033
 3603 00ba E560     		str	r5, [r4, #12]
1637:Drivers/STM32U0xx_HAL_Driver/Src/stm32u0xx_hal_rcc_ex.c **** 
 3604              		.loc 1 1637 17 view .LVU1034
 3605 00bc 1843     		orrs	r0, r3
 3606              	.LVL235:
1640:Drivers/STM32U0xx_HAL_Driver/Src/stm32u0xx_hal_rcc_ex.c ****     }
 3607              		.loc 1 1640 7 is_stmt 1 view .LVU1035
1640:Drivers/STM32U0xx_HAL_Driver/Src/stm32u0xx_hal_rcc_ex.c ****     }
 3608              		.loc 1 1640 7 view .LVU1036
1640:Drivers/STM32U0xx_HAL_Driver/Src/stm32u0xx_hal_rcc_ex.c ****     }
 3609              		.loc 1 1640 7 view .LVU1037
 3610              	.L472:
1640:Drivers/STM32U0xx_HAL_Driver/Src/stm32u0xx_hal_rcc_ex.c ****     }
 3611              		.loc 1 1640 7 discriminator 4 view .LVU1038
1644:Drivers/STM32U0xx_HAL_Driver/Src/stm32u0xx_hal_rcc_ex.c ****     {
 3612              		.loc 1 1644 5 discriminator 4 view .LVU1039
1644:Drivers/STM32U0xx_HAL_Driver/Src/stm32u0xx_hal_rcc_ex.c ****     {
 3613              		.loc 1 1644 9 is_stmt 0 discriminator 4 view .LVU1040
 3614 00be A368     		ldr	r3, [r4, #8]
1644:Drivers/STM32U0xx_HAL_Driver/Src/stm32u0xx_hal_rcc_ex.c ****     {
 3615              		.loc 1 1644 8 discriminator 4 view .LVU1041
 3616 00c0 5B05     		lsls	r3, r3, #21
 3617 00c2 03D5     		bpl	.L473
1647:Drivers/STM32U0xx_HAL_Driver/Src/stm32u0xx_hal_rcc_ex.c **** 
 3618              		.loc 1 1647 7 is_stmt 1 view .LVU1042
1647:Drivers/STM32U0xx_HAL_Driver/Src/stm32u0xx_hal_rcc_ex.c **** 
 3619              		.loc 1 1647 17 is_stmt 0 view .LVU1043
 3620 00c4 2023     		movs	r3, #32
 3621 00c6 1843     		orrs	r0, r3
 3622              	.LVL236:
1650:Drivers/STM32U0xx_HAL_Driver/Src/stm32u0xx_hal_rcc_ex.c ****     }
 3623              		.loc 1 1650 7 is_stmt 1 view .LVU1044
1650:Drivers/STM32U0xx_HAL_Driver/Src/stm32u0xx_hal_rcc_ex.c ****     }
ARM GAS  C:\Users\upo\AppData\Local\Temp\ccMLO1b7.s 			page 111


 3624              		.loc 1 1650 7 view .LVU1045
1650:Drivers/STM32U0xx_HAL_Driver/Src/stm32u0xx_hal_rcc_ex.c ****     }
 3625              		.loc 1 1650 7 view .LVU1046
 3626 00c8 1C3B     		subs	r3, r3, #28
 3627 00ca E360     		str	r3, [r4, #12]
 3628              	.L473:
1650:Drivers/STM32U0xx_HAL_Driver/Src/stm32u0xx_hal_rcc_ex.c ****     }
 3629              		.loc 1 1650 7 discriminator 4 view .LVU1047
1654:Drivers/STM32U0xx_HAL_Driver/Src/stm32u0xx_hal_rcc_ex.c ****     {
 3630              		.loc 1 1654 5 discriminator 4 view .LVU1048
1654:Drivers/STM32U0xx_HAL_Driver/Src/stm32u0xx_hal_rcc_ex.c ****     {
 3631              		.loc 1 1654 9 is_stmt 0 discriminator 4 view .LVU1049
 3632 00cc A368     		ldr	r3, [r4, #8]
1654:Drivers/STM32U0xx_HAL_Driver/Src/stm32u0xx_hal_rcc_ex.c ****     {
 3633              		.loc 1 1654 8 discriminator 4 view .LVU1050
 3634 00ce DB05     		lsls	r3, r3, #23
 3635 00d0 03D5     		bpl	.L474
1657:Drivers/STM32U0xx_HAL_Driver/Src/stm32u0xx_hal_rcc_ex.c **** 
 3636              		.loc 1 1657 7 is_stmt 1 view .LVU1051
1657:Drivers/STM32U0xx_HAL_Driver/Src/stm32u0xx_hal_rcc_ex.c **** 
 3637              		.loc 1 1657 17 is_stmt 0 view .LVU1052
 3638 00d2 0823     		movs	r3, #8
 3639 00d4 1843     		orrs	r0, r3
 3640              	.LVL237:
1660:Drivers/STM32U0xx_HAL_Driver/Src/stm32u0xx_hal_rcc_ex.c ****     }
 3641              		.loc 1 1660 7 is_stmt 1 view .LVU1053
1660:Drivers/STM32U0xx_HAL_Driver/Src/stm32u0xx_hal_rcc_ex.c ****     }
 3642              		.loc 1 1660 7 view .LVU1054
1660:Drivers/STM32U0xx_HAL_Driver/Src/stm32u0xx_hal_rcc_ex.c ****     }
 3643              		.loc 1 1660 7 view .LVU1055
 3644 00d6 043B     		subs	r3, r3, #4
 3645 00d8 E360     		str	r3, [r4, #12]
 3646              	.L474:
1660:Drivers/STM32U0xx_HAL_Driver/Src/stm32u0xx_hal_rcc_ex.c ****     }
 3647              		.loc 1 1660 7 discriminator 4 view .LVU1056
1664:Drivers/STM32U0xx_HAL_Driver/Src/stm32u0xx_hal_rcc_ex.c ****     {
 3648              		.loc 1 1664 5 discriminator 4 view .LVU1057
1664:Drivers/STM32U0xx_HAL_Driver/Src/stm32u0xx_hal_rcc_ex.c ****     {
 3649              		.loc 1 1664 9 is_stmt 0 discriminator 4 view .LVU1058
 3650 00da A368     		ldr	r3, [r4, #8]
1664:Drivers/STM32U0xx_HAL_Driver/Src/stm32u0xx_hal_rcc_ex.c ****     {
 3651              		.loc 1 1664 8 discriminator 4 view .LVU1059
 3652 00dc 9B05     		lsls	r3, r3, #22
 3653 00de CBD4     		bmi	.L466
1670:Drivers/STM32U0xx_HAL_Driver/Src/stm32u0xx_hal_rcc_ex.c ****     }
 3654              		.loc 1 1670 7 is_stmt 1 discriminator 4 view .LVU1060
1674:Drivers/STM32U0xx_HAL_Driver/Src/stm32u0xx_hal_rcc_ex.c ****     {
 3655              		.loc 1 1674 5 discriminator 4 view .LVU1061
1674:Drivers/STM32U0xx_HAL_Driver/Src/stm32u0xx_hal_rcc_ex.c ****     {
 3656              		.loc 1 1674 9 is_stmt 0 discriminator 4 view .LVU1062
 3657 00e0 0823     		movs	r3, #8
 3658 00e2 A268     		ldr	r2, [r4, #8]
1674:Drivers/STM32U0xx_HAL_Driver/Src/stm32u0xx_hal_rcc_ex.c ****     {
 3659              		.loc 1 1674 8 discriminator 4 view .LVU1063
 3660 00e4 1342     		tst	r3, r2
 3661 00e6 00D0     		beq	.L477
1677:Drivers/STM32U0xx_HAL_Driver/Src/stm32u0xx_hal_rcc_ex.c ****     }
ARM GAS  C:\Users\upo\AppData\Local\Temp\ccMLO1b7.s 			page 112


 3662              		.loc 1 1677 7 is_stmt 1 discriminator 2 view .LVU1064
1677:Drivers/STM32U0xx_HAL_Driver/Src/stm32u0xx_hal_rcc_ex.c ****     }
 3663              		.loc 1 1677 7 discriminator 2 view .LVU1065
1677:Drivers/STM32U0xx_HAL_Driver/Src/stm32u0xx_hal_rcc_ex.c ****     }
 3664              		.loc 1 1677 7 discriminator 2 view .LVU1066
 3665 00e8 E360     		str	r3, [r4, #12]
 3666              	.L477:
1677:Drivers/STM32U0xx_HAL_Driver/Src/stm32u0xx_hal_rcc_ex.c ****     }
 3667              		.loc 1 1677 7 discriminator 4 view .LVU1067
1679:Drivers/STM32U0xx_HAL_Driver/Src/stm32u0xx_hal_rcc_ex.c **** 
 3668              		.loc 1 1679 25 discriminator 4 view .LVU1068
 3669 00ea 0028     		cmp	r0, #0
 3670 00ec D4D0     		beq	.L461
 3671 00ee BFE7     		b	.L460
 3672              	.L524:
 3673              		.align	2
 3674              	.L523:
 3675 00f0 006C0040 		.word	1073769472
 3676              		.cfi_endproc
 3677              	.LFE354:
 3679              		.section	.text.HAL_RCCEx_CRS_SyncOkCallback,"ax",%progbits
 3680              		.align	1
 3681              		.p2align 2,,3
 3682              		.weak	HAL_RCCEx_CRS_SyncOkCallback
 3683              		.syntax unified
 3684              		.code	16
 3685              		.thumb_func
 3687              	HAL_RCCEx_CRS_SyncOkCallback:
 3688              	.LFB362:
 3689              		.cfi_startproc
1753:Drivers/STM32U0xx_HAL_Driver/Src/stm32u0xx_hal_rcc_ex.c **** {
 3690              		.loc 1 1753 13 view -0
 3691              		@ args = 0, pretend = 0, frame = 0
 3692              		@ frame_needed = 0, uses_anonymous_args = 0
 3693              		@ link register save eliminated.
 3694              		@ sp needed
 3695 0000 7047     		bx	lr
 3696              		.cfi_endproc
 3697              	.LFE362:
 3699 0002 C046     		.section	.text.HAL_RCCEx_CRS_SyncWarnCallback,"ax",%progbits
 3700              		.align	1
 3701              		.p2align 2,,3
 3702              		.weak	HAL_RCCEx_CRS_SyncWarnCallback
 3703              		.syntax unified
 3704              		.code	16
 3705              		.thumb_func
 3707              	HAL_RCCEx_CRS_SyncWarnCallback:
 3708              	.LFB364:
 3709              		.cfi_startproc
1764:Drivers/STM32U0xx_HAL_Driver/Src/stm32u0xx_hal_rcc_ex.c **** {
 3710              		.loc 1 1764 13 view -0
 3711              		@ args = 0, pretend = 0, frame = 0
 3712              		@ frame_needed = 0, uses_anonymous_args = 0
 3713              		@ link register save eliminated.
 3714              		@ sp needed
 3715 0000 7047     		bx	lr
 3716              		.cfi_endproc
ARM GAS  C:\Users\upo\AppData\Local\Temp\ccMLO1b7.s 			page 113


 3717              	.LFE364:
 3719 0002 C046     		.section	.text.HAL_RCCEx_CRS_ExpectedSyncCallback,"ax",%progbits
 3720              		.align	1
 3721              		.p2align 2,,3
 3722              		.weak	HAL_RCCEx_CRS_ExpectedSyncCallback
 3723              		.syntax unified
 3724              		.code	16
 3725              		.thumb_func
 3727              	HAL_RCCEx_CRS_ExpectedSyncCallback:
 3728              	.LFB366:
 3729              		.cfi_startproc
1775:Drivers/STM32U0xx_HAL_Driver/Src/stm32u0xx_hal_rcc_ex.c **** {
 3730              		.loc 1 1775 13 view -0
 3731              		@ args = 0, pretend = 0, frame = 0
 3732              		@ frame_needed = 0, uses_anonymous_args = 0
 3733              		@ link register save eliminated.
 3734              		@ sp needed
 3735 0000 7047     		bx	lr
 3736              		.cfi_endproc
 3737              	.LFE366:
 3739 0002 C046     		.section	.text.HAL_RCCEx_CRS_ErrorCallback,"ax",%progbits
 3740              		.align	1
 3741              		.p2align 2,,3
 3742              		.weak	HAL_RCCEx_CRS_ErrorCallback
 3743              		.syntax unified
 3744              		.code	16
 3745              		.thumb_func
 3747              	HAL_RCCEx_CRS_ErrorCallback:
 3748              	.LVL238:
 3749              	.LFB359:
1792:Drivers/STM32U0xx_HAL_Driver/Src/stm32u0xx_hal_rcc_ex.c ****   /* Prevent unused argument(s) compilation warning */
 3750              		.loc 1 1792 1 view -0
 3751              		.cfi_startproc
 3752              		@ args = 0, pretend = 0, frame = 0
 3753              		@ frame_needed = 0, uses_anonymous_args = 0
 3754              		@ link register save eliminated.
1794:Drivers/STM32U0xx_HAL_Driver/Src/stm32u0xx_hal_rcc_ex.c **** 
 3755              		.loc 1 1794 3 view .LVU1073
1799:Drivers/STM32U0xx_HAL_Driver/Src/stm32u0xx_hal_rcc_ex.c **** 
 3756              		.loc 1 1799 1 is_stmt 0 view .LVU1074
 3757              		@ sp needed
 3758 0000 7047     		bx	lr
 3759              		.cfi_endproc
 3760              	.LFE359:
 3762 0002 C046     		.section	.text.HAL_RCCEx_CRS_IRQHandler,"ax",%progbits
 3763              		.align	1
 3764              		.p2align 2,,3
 3765              		.global	HAL_RCCEx_CRS_IRQHandler
 3766              		.syntax unified
 3767              		.code	16
 3768              		.thumb_func
 3770              	HAL_RCCEx_CRS_IRQHandler:
 3771              	.LFB355:
1689:Drivers/STM32U0xx_HAL_Driver/Src/stm32u0xx_hal_rcc_ex.c ****   uint32_t crserror = RCC_CRS_NONE;
 3772              		.loc 1 1689 1 is_stmt 1 view -0
 3773              		.cfi_startproc
 3774              		@ args = 0, pretend = 0, frame = 0
ARM GAS  C:\Users\upo\AppData\Local\Temp\ccMLO1b7.s 			page 114


 3775              		@ frame_needed = 0, uses_anonymous_args = 0
1690:Drivers/STM32U0xx_HAL_Driver/Src/stm32u0xx_hal_rcc_ex.c ****   /* Get current IT flags and IT sources values */
 3776              		.loc 1 1690 3 view .LVU1076
 3777              	.LVL239:
1692:Drivers/STM32U0xx_HAL_Driver/Src/stm32u0xx_hal_rcc_ex.c ****   uint32_t itsources = READ_REG(CRS->CR);
 3778              		.loc 1 1692 3 view .LVU1077
1696:Drivers/STM32U0xx_HAL_Driver/Src/stm32u0xx_hal_rcc_ex.c ****   {
 3779              		.loc 1 1696 17 is_stmt 0 view .LVU1078
 3780 0000 0121     		movs	r1, #1
1692:Drivers/STM32U0xx_HAL_Driver/Src/stm32u0xx_hal_rcc_ex.c ****   uint32_t itsources = READ_REG(CRS->CR);
 3781              		.loc 1 1692 12 view .LVU1079
 3782 0002 1B4A     		ldr	r2, .L571
1689:Drivers/STM32U0xx_HAL_Driver/Src/stm32u0xx_hal_rcc_ex.c ****   uint32_t crserror = RCC_CRS_NONE;
 3783              		.loc 1 1689 1 view .LVU1080
 3784 0004 10B5     		push	{r4, lr}
 3785              	.LCFI17:
 3786              		.cfi_def_cfa_offset 8
 3787              		.cfi_offset 4, -8
 3788              		.cfi_offset 14, -4
1692:Drivers/STM32U0xx_HAL_Driver/Src/stm32u0xx_hal_rcc_ex.c ****   uint32_t itsources = READ_REG(CRS->CR);
 3789              		.loc 1 1692 12 view .LVU1081
 3790 0006 9368     		ldr	r3, [r2, #8]
 3791              	.LVL240:
1693:Drivers/STM32U0xx_HAL_Driver/Src/stm32u0xx_hal_rcc_ex.c **** 
 3792              		.loc 1 1693 3 is_stmt 1 view .LVU1082
1693:Drivers/STM32U0xx_HAL_Driver/Src/stm32u0xx_hal_rcc_ex.c **** 
 3793              		.loc 1 1693 12 is_stmt 0 view .LVU1083
 3794 0008 1068     		ldr	r0, [r2]
 3795              	.LVL241:
1696:Drivers/STM32U0xx_HAL_Driver/Src/stm32u0xx_hal_rcc_ex.c ****   {
 3796              		.loc 1 1696 3 is_stmt 1 view .LVU1084
1696:Drivers/STM32U0xx_HAL_Driver/Src/stm32u0xx_hal_rcc_ex.c ****   {
 3797              		.loc 1 1696 6 is_stmt 0 view .LVU1085
 3798 000a 1942     		tst	r1, r3
 3799 000c 01D0     		beq	.L530
1696:Drivers/STM32U0xx_HAL_Driver/Src/stm32u0xx_hal_rcc_ex.c ****   {
 3800              		.loc 1 1696 47 discriminator 1 view .LVU1086
 3801 000e 0142     		tst	r1, r0
 3802 0010 1FD1     		bne	.L568
 3803              	.L530:
1705:Drivers/STM32U0xx_HAL_Driver/Src/stm32u0xx_hal_rcc_ex.c ****   {
 3804              		.loc 1 1705 8 is_stmt 1 view .LVU1087
1705:Drivers/STM32U0xx_HAL_Driver/Src/stm32u0xx_hal_rcc_ex.c ****   {
 3805              		.loc 1 1705 22 is_stmt 0 view .LVU1088
 3806 0012 0222     		movs	r2, #2
1705:Drivers/STM32U0xx_HAL_Driver/Src/stm32u0xx_hal_rcc_ex.c ****   {
 3807              		.loc 1 1705 11 view .LVU1089
 3808 0014 1A42     		tst	r2, r3
 3809 0016 01D0     		beq	.L532
1705:Drivers/STM32U0xx_HAL_Driver/Src/stm32u0xx_hal_rcc_ex.c ****   {
 3810              		.loc 1 1705 54 discriminator 1 view .LVU1090
 3811 0018 0242     		tst	r2, r0
 3812 001a 1ED1     		bne	.L569
 3813              	.L532:
1714:Drivers/STM32U0xx_HAL_Driver/Src/stm32u0xx_hal_rcc_ex.c ****   {
 3814              		.loc 1 1714 8 is_stmt 1 view .LVU1091
1714:Drivers/STM32U0xx_HAL_Driver/Src/stm32u0xx_hal_rcc_ex.c ****   {
ARM GAS  C:\Users\upo\AppData\Local\Temp\ccMLO1b7.s 			page 115


 3815              		.loc 1 1714 22 is_stmt 0 view .LVU1092
 3816 001c 0822     		movs	r2, #8
1714:Drivers/STM32U0xx_HAL_Driver/Src/stm32u0xx_hal_rcc_ex.c ****   {
 3817              		.loc 1 1714 11 view .LVU1093
 3818 001e 1A42     		tst	r2, r3
 3819 0020 01D0     		beq	.L533
1714:Drivers/STM32U0xx_HAL_Driver/Src/stm32u0xx_hal_rcc_ex.c ****   {
 3820              		.loc 1 1714 51 discriminator 1 view .LVU1094
 3821 0022 0242     		tst	r2, r0
 3822 0024 1ED1     		bne	.L570
 3823              	.L533:
1725:Drivers/STM32U0xx_HAL_Driver/Src/stm32u0xx_hal_rcc_ex.c ****     {
 3824              		.loc 1 1725 5 is_stmt 1 view .LVU1095
1725:Drivers/STM32U0xx_HAL_Driver/Src/stm32u0xx_hal_rcc_ex.c ****     {
 3825              		.loc 1 1725 19 is_stmt 0 view .LVU1096
 3826 0026 0422     		movs	r2, #4
1725:Drivers/STM32U0xx_HAL_Driver/Src/stm32u0xx_hal_rcc_ex.c ****     {
 3827              		.loc 1 1725 8 view .LVU1097
 3828 0028 1A42     		tst	r2, r3
 3829 002a 11D0     		beq	.L529
1725:Drivers/STM32U0xx_HAL_Driver/Src/stm32u0xx_hal_rcc_ex.c ****     {
 3830              		.loc 1 1725 46 discriminator 1 view .LVU1098
 3831 002c 0242     		tst	r2, r0
 3832 002e 0FD0     		beq	.L529
1727:Drivers/STM32U0xx_HAL_Driver/Src/stm32u0xx_hal_rcc_ex.c ****       {
 3833              		.loc 1 1727 7 is_stmt 1 view .LVU1099
1727:Drivers/STM32U0xx_HAL_Driver/Src/stm32u0xx_hal_rcc_ex.c ****       {
 3834              		.loc 1 1727 10 is_stmt 0 view .LVU1100
 3835 0030 D805     		lsls	r0, r3, #23
 3836              	.LVL242:
1727:Drivers/STM32U0xx_HAL_Driver/Src/stm32u0xx_hal_rcc_ex.c ****       {
 3837              		.loc 1 1727 10 view .LVU1101
 3838 0032 C00F     		lsrs	r0, r0, #31
 3839 0034 C000     		lsls	r0, r0, #3
 3840              	.LVL243:
1731:Drivers/STM32U0xx_HAL_Driver/Src/stm32u0xx_hal_rcc_ex.c ****       {
 3841              		.loc 1 1731 7 is_stmt 1 view .LVU1102
1731:Drivers/STM32U0xx_HAL_Driver/Src/stm32u0xx_hal_rcc_ex.c ****       {
 3842              		.loc 1 1731 10 is_stmt 0 view .LVU1103
 3843 0036 9A05     		lsls	r2, r3, #22
 3844 0038 01D5     		bpl	.L534
1733:Drivers/STM32U0xx_HAL_Driver/Src/stm32u0xx_hal_rcc_ex.c ****       }
 3845              		.loc 1 1733 9 is_stmt 1 view .LVU1104
1733:Drivers/STM32U0xx_HAL_Driver/Src/stm32u0xx_hal_rcc_ex.c ****       }
 3846              		.loc 1 1733 18 is_stmt 0 view .LVU1105
 3847 003a 1022     		movs	r2, #16
 3848 003c 1043     		orrs	r0, r2
 3849              	.LVL244:
 3850              	.L534:
1735:Drivers/STM32U0xx_HAL_Driver/Src/stm32u0xx_hal_rcc_ex.c ****       {
 3851              		.loc 1 1735 7 is_stmt 1 view .LVU1106
1735:Drivers/STM32U0xx_HAL_Driver/Src/stm32u0xx_hal_rcc_ex.c ****       {
 3852              		.loc 1 1735 10 is_stmt 0 view .LVU1107
 3853 003e 5B05     		lsls	r3, r3, #21
 3854 0040 01D5     		bpl	.L535
 3855              	.LVL245:
1737:Drivers/STM32U0xx_HAL_Driver/Src/stm32u0xx_hal_rcc_ex.c ****       }
ARM GAS  C:\Users\upo\AppData\Local\Temp\ccMLO1b7.s 			page 116


 3856              		.loc 1 1737 9 is_stmt 1 view .LVU1108
1737:Drivers/STM32U0xx_HAL_Driver/Src/stm32u0xx_hal_rcc_ex.c ****       }
 3857              		.loc 1 1737 18 is_stmt 0 view .LVU1109
 3858 0042 2023     		movs	r3, #32
 3859 0044 1843     		orrs	r0, r3
 3860              	.LVL246:
 3861              	.L535:
1741:Drivers/STM32U0xx_HAL_Driver/Src/stm32u0xx_hal_rcc_ex.c **** 
 3862              		.loc 1 1741 7 is_stmt 1 view .LVU1110
 3863 0046 0422     		movs	r2, #4
 3864 0048 094B     		ldr	r3, .L571
 3865 004a DA60     		str	r2, [r3, #12]
1744:Drivers/STM32U0xx_HAL_Driver/Src/stm32u0xx_hal_rcc_ex.c ****     }
 3866              		.loc 1 1744 7 view .LVU1111
 3867 004c FFF7FEFF 		bl	HAL_RCCEx_CRS_ErrorCallback
 3868              	.LVL247:
 3869              	.L529:
1747:Drivers/STM32U0xx_HAL_Driver/Src/stm32u0xx_hal_rcc_ex.c **** 
 3870              		.loc 1 1747 1 is_stmt 0 view .LVU1112
 3871              		@ sp needed
 3872 0050 10BD     		pop	{r4, pc}
 3873              	.LVL248:
 3874              	.L568:
1699:Drivers/STM32U0xx_HAL_Driver/Src/stm32u0xx_hal_rcc_ex.c **** 
 3875              		.loc 1 1699 5 is_stmt 1 view .LVU1113
 3876 0052 D160     		str	r1, [r2, #12]
1702:Drivers/STM32U0xx_HAL_Driver/Src/stm32u0xx_hal_rcc_ex.c ****   }
 3877              		.loc 1 1702 5 view .LVU1114
 3878 0054 FFF7FEFF 		bl	HAL_RCCEx_CRS_SyncOkCallback
 3879              	.LVL249:
1702:Drivers/STM32U0xx_HAL_Driver/Src/stm32u0xx_hal_rcc_ex.c ****   }
 3880              		.loc 1 1702 5 is_stmt 0 view .LVU1115
 3881 0058 FAE7     		b	.L529
 3882              	.LVL250:
 3883              	.L569:
1708:Drivers/STM32U0xx_HAL_Driver/Src/stm32u0xx_hal_rcc_ex.c **** 
 3884              		.loc 1 1708 5 is_stmt 1 view .LVU1116
 3885 005a 054B     		ldr	r3, .L571
 3886              	.LVL251:
1708:Drivers/STM32U0xx_HAL_Driver/Src/stm32u0xx_hal_rcc_ex.c **** 
 3887              		.loc 1 1708 5 is_stmt 0 view .LVU1117
 3888 005c DA60     		str	r2, [r3, #12]
1711:Drivers/STM32U0xx_HAL_Driver/Src/stm32u0xx_hal_rcc_ex.c ****   }
 3889              		.loc 1 1711 5 is_stmt 1 view .LVU1118
 3890 005e FFF7FEFF 		bl	HAL_RCCEx_CRS_SyncWarnCallback
 3891              	.LVL252:
1711:Drivers/STM32U0xx_HAL_Driver/Src/stm32u0xx_hal_rcc_ex.c ****   }
 3892              		.loc 1 1711 5 is_stmt 0 view .LVU1119
 3893 0062 F5E7     		b	.L529
 3894              	.LVL253:
 3895              	.L570:
1717:Drivers/STM32U0xx_HAL_Driver/Src/stm32u0xx_hal_rcc_ex.c **** 
 3896              		.loc 1 1717 5 is_stmt 1 view .LVU1120
 3897 0064 024B     		ldr	r3, .L571
 3898              	.LVL254:
1717:Drivers/STM32U0xx_HAL_Driver/Src/stm32u0xx_hal_rcc_ex.c **** 
 3899              		.loc 1 1717 5 is_stmt 0 view .LVU1121
ARM GAS  C:\Users\upo\AppData\Local\Temp\ccMLO1b7.s 			page 117


 3900 0066 DA60     		str	r2, [r3, #12]
1720:Drivers/STM32U0xx_HAL_Driver/Src/stm32u0xx_hal_rcc_ex.c ****   }
 3901              		.loc 1 1720 5 is_stmt 1 view .LVU1122
 3902 0068 FFF7FEFF 		bl	HAL_RCCEx_CRS_ExpectedSyncCallback
 3903              	.LVL255:
1720:Drivers/STM32U0xx_HAL_Driver/Src/stm32u0xx_hal_rcc_ex.c ****   }
 3904              		.loc 1 1720 5 is_stmt 0 view .LVU1123
 3905 006c F0E7     		b	.L529
 3906              	.L572:
 3907 006e C046     		.align	2
 3908              	.L571:
 3909 0070 006C0040 		.word	1073769472
 3910              		.cfi_endproc
 3911              	.LFE355:
 3913              		.text
 3914              	.Letext0:
 3915              		.file 2 "C:\\ST\\STM32CubeCLT_1.15.0\\GNU-tools-for-STM32\\bin/../lib/gcc/arm-none-eabi/12.3.1/../
 3916              		.file 3 "C:\\ST\\STM32CubeCLT_1.15.0\\GNU-tools-for-STM32\\bin/../lib/gcc/arm-none-eabi/12.3.1/../
 3917              		.file 4 "Drivers/CMSIS/Device/ST/STM32U0xx/Include/stm32u073xx.h"
 3918              		.file 5 "Drivers/CMSIS/Device/ST/STM32U0xx/Include/stm32u0xx.h"
 3919              		.file 6 "Drivers/STM32U0xx_HAL_Driver/Inc/stm32u0xx_hal_def.h"
 3920              		.file 7 "Drivers/STM32U0xx_HAL_Driver/Inc/stm32u0xx_hal_rcc.h"
 3921              		.file 8 "Drivers/STM32U0xx_HAL_Driver/Inc/stm32u0xx_hal_rcc_ex.h"
 3922              		.file 9 "Drivers/STM32U0xx_HAL_Driver/Inc/stm32u0xx_hal_gpio.h"
 3923              		.file 10 "Drivers/STM32U0xx_HAL_Driver/Inc/stm32u0xx_hal_pwr.h"
 3924              		.file 11 "Drivers/STM32U0xx_HAL_Driver/Inc/stm32u0xx_hal.h"
 3925              		.file 12 "Drivers/CMSIS/Device/ST/STM32U0xx/Include/system_stm32u0xx.h"
 3926              		.file 13 "Drivers/STM32U0xx_HAL_Driver/Inc/stm32u0xx_ll_dma.h"
 3927              		.file 14 "<built-in>"
ARM GAS  C:\Users\upo\AppData\Local\Temp\ccMLO1b7.s 			page 118


DEFINED SYMBOLS
                            *ABS*:00000000 stm32u0xx_hal_rcc_ex.c
C:\Users\upo\AppData\Local\Temp\ccMLO1b7.s:19     .text.HAL_RCCEx_PeriphCLKConfig:00000000 $t
C:\Users\upo\AppData\Local\Temp\ccMLO1b7.s:26     .text.HAL_RCCEx_PeriphCLKConfig:00000000 HAL_RCCEx_PeriphCLKConfig
C:\Users\upo\AppData\Local\Temp\ccMLO1b7.s:640    .text.HAL_RCCEx_PeriphCLKConfig:00000298 $d
C:\Users\upo\AppData\Local\Temp\ccMLO1b7.s:659    .text.HAL_RCCEx_GetPeriphCLKConfig:00000000 $t
C:\Users\upo\AppData\Local\Temp\ccMLO1b7.s:666    .text.HAL_RCCEx_GetPeriphCLKConfig:00000000 HAL_RCCEx_GetPeriphCLKConfig
C:\Users\upo\AppData\Local\Temp\ccMLO1b7.s:834    .text.HAL_RCCEx_GetPeriphCLKConfig:000000a0 $d
C:\Users\upo\AppData\Local\Temp\ccMLO1b7.s:842    .text.HAL_RCCEx_GetPLLClockFreq:00000000 $t
C:\Users\upo\AppData\Local\Temp\ccMLO1b7.s:849    .text.HAL_RCCEx_GetPLLClockFreq:00000000 HAL_RCCEx_GetPLLClockFreq
C:\Users\upo\AppData\Local\Temp\ccMLO1b7.s:1062   .text.HAL_RCCEx_GetPLLClockFreq:000000c0 $d
C:\Users\upo\AppData\Local\Temp\ccMLO1b7.s:1070   .text.HAL_RCCEx_GetPeriphCLKFreq:00000000 $t
C:\Users\upo\AppData\Local\Temp\ccMLO1b7.s:1077   .text.HAL_RCCEx_GetPeriphCLKFreq:00000000 HAL_RCCEx_GetPeriphCLKFreq
C:\Users\upo\AppData\Local\Temp\ccMLO1b7.s:1130   .rodata.HAL_RCCEx_GetPeriphCLKFreq:00000000 $d
C:\Users\upo\AppData\Local\Temp\ccMLO1b7.s:1804   .text.HAL_RCCEx_GetPeriphCLKFreq:000002f8 $d
C:\Users\upo\AppData\Local\Temp\ccMLO1b7.s:1815   .text.HAL_RCCEx_GetPeriphCLKFreq:00000318 $t
C:\Users\upo\AppData\Local\Temp\ccMLO1b7.s:1991   .text.HAL_RCCEx_GetPeriphCLKFreq:000003d0 $d
C:\Users\upo\AppData\Local\Temp\ccMLO1b7.s:1997   .text.HAL_RCCEx_EnablePLL:00000000 $t
C:\Users\upo\AppData\Local\Temp\ccMLO1b7.s:2004   .text.HAL_RCCEx_EnablePLL:00000000 HAL_RCCEx_EnablePLL
C:\Users\upo\AppData\Local\Temp\ccMLO1b7.s:2367   .text.HAL_RCCEx_EnablePLL:00000124 $d
C:\Users\upo\AppData\Local\Temp\ccMLO1b7.s:2374   .text.HAL_RCCEx_DisablePLL:00000000 $t
C:\Users\upo\AppData\Local\Temp\ccMLO1b7.s:2381   .text.HAL_RCCEx_DisablePLL:00000000 HAL_RCCEx_DisablePLL
C:\Users\upo\AppData\Local\Temp\ccMLO1b7.s:2463   .text.HAL_RCCEx_DisablePLL:0000003c $d
C:\Users\upo\AppData\Local\Temp\ccMLO1b7.s:2470   .text.HAL_RCCEx_WakeUpStopCLKConfig:00000000 $t
C:\Users\upo\AppData\Local\Temp\ccMLO1b7.s:2477   .text.HAL_RCCEx_WakeUpStopCLKConfig:00000000 HAL_RCCEx_WakeUpStopCLKConfig
C:\Users\upo\AppData\Local\Temp\ccMLO1b7.s:2501   .text.HAL_RCCEx_WakeUpStopCLKConfig:00000010 $d
C:\Users\upo\AppData\Local\Temp\ccMLO1b7.s:2507   .text.HAL_RCCEx_StandbyMSIRangeConfig:00000000 $t
C:\Users\upo\AppData\Local\Temp\ccMLO1b7.s:2514   .text.HAL_RCCEx_StandbyMSIRangeConfig:00000000 HAL_RCCEx_StandbyMSIRangeConfig
C:\Users\upo\AppData\Local\Temp\ccMLO1b7.s:2546   .text.HAL_RCCEx_StandbyMSIRangeConfig:00000014 $d
C:\Users\upo\AppData\Local\Temp\ccMLO1b7.s:2552   .text.HAL_RCCEx_EnableMSIPLLMode:00000000 $t
C:\Users\upo\AppData\Local\Temp\ccMLO1b7.s:2559   .text.HAL_RCCEx_EnableMSIPLLMode:00000000 HAL_RCCEx_EnableMSIPLLMode
C:\Users\upo\AppData\Local\Temp\ccMLO1b7.s:2580   .text.HAL_RCCEx_EnableMSIPLLMode:0000000c $d
C:\Users\upo\AppData\Local\Temp\ccMLO1b7.s:2585   .text.HAL_RCCEx_DisableMSIPLLMode:00000000 $t
C:\Users\upo\AppData\Local\Temp\ccMLO1b7.s:2592   .text.HAL_RCCEx_DisableMSIPLLMode:00000000 HAL_RCCEx_DisableMSIPLLMode
C:\Users\upo\AppData\Local\Temp\ccMLO1b7.s:2613   .text.HAL_RCCEx_DisableMSIPLLMode:0000000c $d
C:\Users\upo\AppData\Local\Temp\ccMLO1b7.s:2618   .text.HAL_RCCEx_EnableLSECSS:00000000 $t
C:\Users\upo\AppData\Local\Temp\ccMLO1b7.s:2625   .text.HAL_RCCEx_EnableLSECSS:00000000 HAL_RCCEx_EnableLSECSS
C:\Users\upo\AppData\Local\Temp\ccMLO1b7.s:2647   .text.HAL_RCCEx_EnableLSECSS:00000010 $d
C:\Users\upo\AppData\Local\Temp\ccMLO1b7.s:2652   .text.HAL_RCCEx_DisableLSECSS:00000000 $t
C:\Users\upo\AppData\Local\Temp\ccMLO1b7.s:2659   .text.HAL_RCCEx_DisableLSECSS:00000000 HAL_RCCEx_DisableLSECSS
C:\Users\upo\AppData\Local\Temp\ccMLO1b7.s:2681   .text.HAL_RCCEx_DisableLSECSS:00000010 $d
C:\Users\upo\AppData\Local\Temp\ccMLO1b7.s:2686   .text.HAL_RCCEx_EnableLSECSS_IT:00000000 $t
C:\Users\upo\AppData\Local\Temp\ccMLO1b7.s:2693   .text.HAL_RCCEx_EnableLSECSS_IT:00000000 HAL_RCCEx_EnableLSECSS_IT
C:\Users\upo\AppData\Local\Temp\ccMLO1b7.s:2733   .text.HAL_RCCEx_EnableLSECSS_IT:0000002c $d
C:\Users\upo\AppData\Local\Temp\ccMLO1b7.s:2739   .text.HAL_RCCEx_LSECSS_Callback:00000000 $t
C:\Users\upo\AppData\Local\Temp\ccMLO1b7.s:2746   .text.HAL_RCCEx_LSECSS_Callback:00000000 HAL_RCCEx_LSECSS_Callback
C:\Users\upo\AppData\Local\Temp\ccMLO1b7.s:2760   .text.HAL_RCCEx_LSECSS_IRQHandler:00000000 $t
C:\Users\upo\AppData\Local\Temp\ccMLO1b7.s:2767   .text.HAL_RCCEx_LSECSS_IRQHandler:00000000 HAL_RCCEx_LSECSS_IRQHandler
C:\Users\upo\AppData\Local\Temp\ccMLO1b7.s:2805   .text.HAL_RCCEx_LSECSS_IRQHandler:00000018 $d
C:\Users\upo\AppData\Local\Temp\ccMLO1b7.s:2810   .text.HAL_RCCEx_EnableLSCO:00000000 $t
C:\Users\upo\AppData\Local\Temp\ccMLO1b7.s:2817   .text.HAL_RCCEx_EnableLSCO:00000000 HAL_RCCEx_EnableLSCO
C:\Users\upo\AppData\Local\Temp\ccMLO1b7.s:2998   .text.HAL_RCCEx_EnableLSCO:000000a0 $d
C:\Users\upo\AppData\Local\Temp\ccMLO1b7.s:3006   .text.HAL_RCCEx_DisableLSCO:00000000 $t
C:\Users\upo\AppData\Local\Temp\ccMLO1b7.s:3013   .text.HAL_RCCEx_DisableLSCO:00000000 HAL_RCCEx_DisableLSCO
C:\Users\upo\AppData\Local\Temp\ccMLO1b7.s:3144   .text.HAL_RCCEx_DisableLSCO:0000007c $d
C:\Users\upo\AppData\Local\Temp\ccMLO1b7.s:3152   .text.HAL_RCCEx_CRSConfig:00000000 $t
C:\Users\upo\AppData\Local\Temp\ccMLO1b7.s:3159   .text.HAL_RCCEx_CRSConfig:00000000 HAL_RCCEx_CRSConfig
ARM GAS  C:\Users\upo\AppData\Local\Temp\ccMLO1b7.s 			page 119


C:\Users\upo\AppData\Local\Temp\ccMLO1b7.s:3238   .text.HAL_RCCEx_CRSConfig:00000044 $d
C:\Users\upo\AppData\Local\Temp\ccMLO1b7.s:3246   .text.HAL_RCCEx_CRSSoftwareSynchronizationGenerate:00000000 $t
C:\Users\upo\AppData\Local\Temp\ccMLO1b7.s:3253   .text.HAL_RCCEx_CRSSoftwareSynchronizationGenerate:00000000 HAL_RCCEx_CRSSoftwareSynchronizationGenerate
C:\Users\upo\AppData\Local\Temp\ccMLO1b7.s:3274   .text.HAL_RCCEx_CRSSoftwareSynchronizationGenerate:0000000c $d
C:\Users\upo\AppData\Local\Temp\ccMLO1b7.s:3279   .text.HAL_RCCEx_CRSGetSynchronizationInfo:00000000 $t
C:\Users\upo\AppData\Local\Temp\ccMLO1b7.s:3286   .text.HAL_RCCEx_CRSGetSynchronizationInfo:00000000 HAL_RCCEx_CRSGetSynchronizationInfo
C:\Users\upo\AppData\Local\Temp\ccMLO1b7.s:3334   .text.HAL_RCCEx_CRSGetSynchronizationInfo:00000024 $d
C:\Users\upo\AppData\Local\Temp\ccMLO1b7.s:3339   .text.HAL_RCCEx_CRSWaitSynchronization:00000000 $t
C:\Users\upo\AppData\Local\Temp\ccMLO1b7.s:3346   .text.HAL_RCCEx_CRSWaitSynchronization:00000000 HAL_RCCEx_CRSWaitSynchronization
C:\Users\upo\AppData\Local\Temp\ccMLO1b7.s:3675   .text.HAL_RCCEx_CRSWaitSynchronization:000000f0 $d
C:\Users\upo\AppData\Local\Temp\ccMLO1b7.s:3680   .text.HAL_RCCEx_CRS_SyncOkCallback:00000000 $t
C:\Users\upo\AppData\Local\Temp\ccMLO1b7.s:3687   .text.HAL_RCCEx_CRS_SyncOkCallback:00000000 HAL_RCCEx_CRS_SyncOkCallback
C:\Users\upo\AppData\Local\Temp\ccMLO1b7.s:3700   .text.HAL_RCCEx_CRS_SyncWarnCallback:00000000 $t
C:\Users\upo\AppData\Local\Temp\ccMLO1b7.s:3707   .text.HAL_RCCEx_CRS_SyncWarnCallback:00000000 HAL_RCCEx_CRS_SyncWarnCallback
C:\Users\upo\AppData\Local\Temp\ccMLO1b7.s:3720   .text.HAL_RCCEx_CRS_ExpectedSyncCallback:00000000 $t
C:\Users\upo\AppData\Local\Temp\ccMLO1b7.s:3727   .text.HAL_RCCEx_CRS_ExpectedSyncCallback:00000000 HAL_RCCEx_CRS_ExpectedSyncCallback
C:\Users\upo\AppData\Local\Temp\ccMLO1b7.s:3740   .text.HAL_RCCEx_CRS_ErrorCallback:00000000 $t
C:\Users\upo\AppData\Local\Temp\ccMLO1b7.s:3747   .text.HAL_RCCEx_CRS_ErrorCallback:00000000 HAL_RCCEx_CRS_ErrorCallback
C:\Users\upo\AppData\Local\Temp\ccMLO1b7.s:3763   .text.HAL_RCCEx_CRS_IRQHandler:00000000 $t
C:\Users\upo\AppData\Local\Temp\ccMLO1b7.s:3770   .text.HAL_RCCEx_CRS_IRQHandler:00000000 HAL_RCCEx_CRS_IRQHandler
C:\Users\upo\AppData\Local\Temp\ccMLO1b7.s:3909   .text.HAL_RCCEx_CRS_IRQHandler:00000070 $d

UNDEFINED SYMBOLS
HAL_GetTick
__aeabi_uidiv
__aeabi_idiv
MSIRangeTable
HAL_RCC_GetPCLK1Freq
HAL_RCC_GetSysClockFreq
memset
HAL_GPIO_Init
HAL_PWR_EnableBkUpAccess
HAL_PWR_DisableBkUpAccess
