ARM GAS  C:\Users\upo\AppData\Local\Temp\cc8nuiJ7.s 			page 1


   1              		.cpu cortex-m0plus
   2              		.arch armv6s-m
   3              		.fpu softvfp
   4              		.eabi_attribute 20, 1
   5              		.eabi_attribute 21, 1
   6              		.eabi_attribute 23, 3
   7              		.eabi_attribute 24, 1
   8              		.eabi_attribute 25, 1
   9              		.eabi_attribute 26, 1
  10              		.eabi_attribute 30, 2
  11              		.eabi_attribute 34, 0
  12              		.eabi_attribute 18, 4
  13              		.file	"syscalls.c"
  14              		.text
  15              	.Ltext0:
  16              		.cfi_sections	.debug_frame
  17              		.file 1 "Core/Src/syscalls.c"
  18              		.section	.text.initialise_monitor_handles,"ax",%progbits
  19              		.align	1
  20              		.p2align 2,,3
  21              		.global	initialise_monitor_handles
  22              		.syntax unified
  23              		.code	16
  24              		.thumb_func
  26              	initialise_monitor_handles:
  27              	.LFB25:
   1:Core/Src/syscalls.c **** /**
   2:Core/Src/syscalls.c ****  ******************************************************************************
   3:Core/Src/syscalls.c ****  * @file      syscalls.c
   4:Core/Src/syscalls.c ****  * @author    Auto-generated by STM32CubeMX
   5:Core/Src/syscalls.c ****  * @brief     Minimal System calls file
   6:Core/Src/syscalls.c ****  *
   7:Core/Src/syscalls.c ****  *            For more information about which c-functions
   8:Core/Src/syscalls.c ****  *            need which of these lowlevel functions
   9:Core/Src/syscalls.c ****  *            please consult the Newlib libc-manual
  10:Core/Src/syscalls.c ****  ******************************************************************************
  11:Core/Src/syscalls.c ****  * @attention
  12:Core/Src/syscalls.c ****  *
  13:Core/Src/syscalls.c ****  * Copyright (c) 2020-2024 STMicroelectronics.
  14:Core/Src/syscalls.c ****  * All rights reserved.
  15:Core/Src/syscalls.c ****  *
  16:Core/Src/syscalls.c ****  * This software is licensed under terms that can be found in the LICENSE file
  17:Core/Src/syscalls.c ****  * in the root directory of this software component.
  18:Core/Src/syscalls.c ****  * If no LICENSE file comes with this software, it is provided AS-IS.
  19:Core/Src/syscalls.c ****  *
  20:Core/Src/syscalls.c ****  ******************************************************************************
  21:Core/Src/syscalls.c ****  */
  22:Core/Src/syscalls.c **** 
  23:Core/Src/syscalls.c **** /* Includes */
  24:Core/Src/syscalls.c **** #include <sys/stat.h>
  25:Core/Src/syscalls.c **** #include <stdlib.h>
  26:Core/Src/syscalls.c **** #include <errno.h>
  27:Core/Src/syscalls.c **** #include <stdio.h>
  28:Core/Src/syscalls.c **** #include <signal.h>
  29:Core/Src/syscalls.c **** #include <time.h>
  30:Core/Src/syscalls.c **** #include <sys/time.h>
  31:Core/Src/syscalls.c **** #include <sys/times.h>
ARM GAS  C:\Users\upo\AppData\Local\Temp\cc8nuiJ7.s 			page 2


  32:Core/Src/syscalls.c **** 
  33:Core/Src/syscalls.c **** 
  34:Core/Src/syscalls.c **** /* Variables */
  35:Core/Src/syscalls.c **** extern int __io_putchar(int ch) __attribute__((weak));
  36:Core/Src/syscalls.c **** extern int __io_getchar(void) __attribute__((weak));
  37:Core/Src/syscalls.c **** 
  38:Core/Src/syscalls.c **** 
  39:Core/Src/syscalls.c **** char *__env[1] = { 0 };
  40:Core/Src/syscalls.c **** char **environ = __env;
  41:Core/Src/syscalls.c **** 
  42:Core/Src/syscalls.c **** 
  43:Core/Src/syscalls.c **** /* Functions */
  44:Core/Src/syscalls.c **** void initialise_monitor_handles()
  45:Core/Src/syscalls.c **** {
  28              		.loc 1 45 1 view -0
  29              		.cfi_startproc
  30              		@ args = 0, pretend = 0, frame = 0
  31              		@ frame_needed = 0, uses_anonymous_args = 0
  32              		@ link register save eliminated.
  46:Core/Src/syscalls.c **** }
  33              		.loc 1 46 1 view .LVU1
  34              		@ sp needed
  35 0000 7047     		bx	lr
  36              		.cfi_endproc
  37              	.LFE25:
  39 0002 C046     		.section	.text._getpid,"ax",%progbits
  40              		.align	1
  41              		.p2align 2,,3
  42              		.global	_getpid
  43              		.syntax unified
  44              		.code	16
  45              		.thumb_func
  47              	_getpid:
  48              	.LFB26:
  47:Core/Src/syscalls.c **** 
  48:Core/Src/syscalls.c **** int _getpid(void)
  49:Core/Src/syscalls.c **** {
  49              		.loc 1 49 1 view -0
  50              		.cfi_startproc
  51              		@ args = 0, pretend = 0, frame = 0
  52              		@ frame_needed = 0, uses_anonymous_args = 0
  53              		@ link register save eliminated.
  50:Core/Src/syscalls.c ****   return 1;
  54              		.loc 1 50 3 view .LVU3
  51:Core/Src/syscalls.c **** }
  55              		.loc 1 51 1 is_stmt 0 view .LVU4
  56 0000 0120     		movs	r0, #1
  57              		@ sp needed
  58 0002 7047     		bx	lr
  59              		.cfi_endproc
  60              	.LFE26:
  62              		.section	.text._kill,"ax",%progbits
  63              		.align	1
  64              		.p2align 2,,3
  65              		.global	_kill
  66              		.syntax unified
  67              		.code	16
ARM GAS  C:\Users\upo\AppData\Local\Temp\cc8nuiJ7.s 			page 3


  68              		.thumb_func
  70              	_kill:
  71              	.LVL0:
  72              	.LFB27:
  52:Core/Src/syscalls.c **** 
  53:Core/Src/syscalls.c **** int _kill(int pid, int sig)
  54:Core/Src/syscalls.c **** {
  73              		.loc 1 54 1 is_stmt 1 view -0
  74              		.cfi_startproc
  75              		@ args = 0, pretend = 0, frame = 0
  76              		@ frame_needed = 0, uses_anonymous_args = 0
  55:Core/Src/syscalls.c ****   (void)pid;
  77              		.loc 1 55 3 view .LVU6
  56:Core/Src/syscalls.c ****   (void)sig;
  78              		.loc 1 56 3 view .LVU7
  57:Core/Src/syscalls.c ****   errno = EINVAL;
  79              		.loc 1 57 3 view .LVU8
  54:Core/Src/syscalls.c ****   (void)pid;
  80              		.loc 1 54 1 is_stmt 0 view .LVU9
  81 0000 10B5     		push	{r4, lr}
  82              	.LCFI0:
  83              		.cfi_def_cfa_offset 8
  84              		.cfi_offset 4, -8
  85              		.cfi_offset 14, -4
  86              		.loc 1 57 3 view .LVU10
  87 0002 FFF7FEFF 		bl	__errno
  88              	.LVL1:
  58:Core/Src/syscalls.c ****   return -1;
  59:Core/Src/syscalls.c **** }
  89              		.loc 1 59 1 view .LVU11
  90              		@ sp needed
  57:Core/Src/syscalls.c ****   return -1;
  91              		.loc 1 57 9 view .LVU12
  92 0006 1623     		movs	r3, #22
  93 0008 0360     		str	r3, [r0]
  58:Core/Src/syscalls.c ****   return -1;
  94              		.loc 1 58 3 is_stmt 1 view .LVU13
  58:Core/Src/syscalls.c ****   return -1;
  95              		.loc 1 58 10 is_stmt 0 view .LVU14
  96 000a 0120     		movs	r0, #1
  97              		.loc 1 59 1 view .LVU15
  98 000c 4042     		rsbs	r0, r0, #0
  99 000e 10BD     		pop	{r4, pc}
 100              		.cfi_endproc
 101              	.LFE27:
 103              		.section	.text._exit,"ax",%progbits
 104              		.align	1
 105              		.p2align 2,,3
 106              		.global	_exit
 107              		.syntax unified
 108              		.code	16
 109              		.thumb_func
 111              	_exit:
 112              	.LVL2:
 113              	.LFB28:
  60:Core/Src/syscalls.c **** 
  61:Core/Src/syscalls.c **** void _exit (int status)
ARM GAS  C:\Users\upo\AppData\Local\Temp\cc8nuiJ7.s 			page 4


  62:Core/Src/syscalls.c **** {
 114              		.loc 1 62 1 is_stmt 1 view -0
 115              		.cfi_startproc
 116              		@ Volatile: function does not return.
 117              		@ args = 0, pretend = 0, frame = 0
 118              		@ frame_needed = 0, uses_anonymous_args = 0
  63:Core/Src/syscalls.c ****   _kill(status, -1);
 119              		.loc 1 63 3 view .LVU17
 120              	.LBB4:
 121              	.LBI4:
  53:Core/Src/syscalls.c **** {
 122              		.loc 1 53 5 view .LVU18
 123              	.LBB5:
  55:Core/Src/syscalls.c ****   (void)sig;
 124              		.loc 1 55 3 view .LVU19
  56:Core/Src/syscalls.c ****   errno = EINVAL;
 125              		.loc 1 56 3 view .LVU20
  57:Core/Src/syscalls.c ****   return -1;
 126              		.loc 1 57 3 view .LVU21
 127              	.LBE5:
 128              	.LBE4:
  62:Core/Src/syscalls.c ****   _kill(status, -1);
 129              		.loc 1 62 1 is_stmt 0 view .LVU22
 130 0000 10B5     		push	{r4, lr}
 131              	.LCFI1:
 132              		.cfi_def_cfa_offset 8
 133              		.cfi_offset 4, -8
 134              		.cfi_offset 14, -4
 135              	.LBB7:
 136              	.LBB6:
  57:Core/Src/syscalls.c ****   return -1;
 137              		.loc 1 57 3 view .LVU23
 138 0002 FFF7FEFF 		bl	__errno
 139              	.LVL3:
  57:Core/Src/syscalls.c ****   return -1;
 140              		.loc 1 57 9 view .LVU24
 141 0006 1623     		movs	r3, #22
 142 0008 0360     		str	r3, [r0]
  58:Core/Src/syscalls.c **** }
 143              		.loc 1 58 3 is_stmt 1 view .LVU25
 144              	.LVL4:
 145              	.L6:
  58:Core/Src/syscalls.c **** }
 146              		.loc 1 58 3 is_stmt 0 view .LVU26
 147              	.LBE6:
 148              	.LBE7:
  64:Core/Src/syscalls.c ****   while (1) {}    /* Make sure we hang here */
 149              		.loc 1 64 3 is_stmt 1 discriminator 1 view .LVU27
 150              		.loc 1 64 14 discriminator 1 view .LVU28
 151              		.loc 1 64 9 discriminator 1 view .LVU29
 152              		.loc 1 64 3 discriminator 1 view .LVU30
 153              		.loc 1 64 14 discriminator 1 view .LVU31
 154              		.loc 1 64 9 discriminator 1 view .LVU32
 155 000a FEE7     		b	.L6
 156              		.cfi_endproc
 157              	.LFE28:
 159              		.section	.text._read,"ax",%progbits
ARM GAS  C:\Users\upo\AppData\Local\Temp\cc8nuiJ7.s 			page 5


 160              		.align	1
 161              		.p2align 2,,3
 162              		.weak	_read
 163              		.syntax unified
 164              		.code	16
 165              		.thumb_func
 167              	_read:
 168              	.LVL5:
 169              	.LFB29:
  65:Core/Src/syscalls.c **** }
  66:Core/Src/syscalls.c **** 
  67:Core/Src/syscalls.c **** __attribute__((weak)) int _read(int file, char *ptr, int len)
  68:Core/Src/syscalls.c **** {
 170              		.loc 1 68 1 view -0
 171              		.cfi_startproc
 172              		@ args = 0, pretend = 0, frame = 0
 173              		@ frame_needed = 0, uses_anonymous_args = 0
  69:Core/Src/syscalls.c ****   (void)file;
 174              		.loc 1 69 3 view .LVU34
  70:Core/Src/syscalls.c ****   int DataIdx;
 175              		.loc 1 70 3 view .LVU35
  71:Core/Src/syscalls.c **** 
  72:Core/Src/syscalls.c ****   for (DataIdx = 0; DataIdx < len; DataIdx++)
 176              		.loc 1 72 3 view .LVU36
 177              		.loc 1 72 29 view .LVU37
  68:Core/Src/syscalls.c ****   (void)file;
 178              		.loc 1 68 1 is_stmt 0 view .LVU38
 179 0000 70B5     		push	{r4, r5, r6, lr}
 180              	.LCFI2:
 181              		.cfi_def_cfa_offset 16
 182              		.cfi_offset 4, -16
 183              		.cfi_offset 5, -12
 184              		.cfi_offset 6, -8
 185              		.cfi_offset 14, -4
  68:Core/Src/syscalls.c ****   (void)file;
 186              		.loc 1 68 1 view .LVU39
 187 0002 161E     		subs	r6, r2, #0
 188              		.loc 1 72 29 view .LVU40
 189 0004 07DD     		ble	.L8
 190 0006 0C00     		movs	r4, r1
 191 0008 8D18     		adds	r5, r1, r2
 192              	.LVL6:
 193              	.L9:
  73:Core/Src/syscalls.c ****   {
  74:Core/Src/syscalls.c ****     *ptr++ = __io_getchar();
 194              		.loc 1 74 5 is_stmt 1 discriminator 3 view .LVU41
 195              		.loc 1 74 14 is_stmt 0 discriminator 3 view .LVU42
 196 000a FFF7FEFF 		bl	__io_getchar
 197              	.LVL7:
 198              		.loc 1 74 12 discriminator 3 view .LVU43
 199 000e 2070     		strb	r0, [r4]
  72:Core/Src/syscalls.c ****   {
 200              		.loc 1 72 43 is_stmt 1 discriminator 3 view .LVU44
 201              	.LVL8:
  72:Core/Src/syscalls.c ****   {
 202              		.loc 1 72 29 discriminator 3 view .LVU45
 203 0010 0134     		adds	r4, r4, #1
ARM GAS  C:\Users\upo\AppData\Local\Temp\cc8nuiJ7.s 			page 6


 204              	.LVL9:
  72:Core/Src/syscalls.c ****   {
 205              		.loc 1 72 29 is_stmt 0 discriminator 3 view .LVU46
 206 0012 AC42     		cmp	r4, r5
 207 0014 F9D1     		bne	.L9
 208              	.LVL10:
 209              	.L8:
  75:Core/Src/syscalls.c ****   }
  76:Core/Src/syscalls.c **** 
  77:Core/Src/syscalls.c ****   return len;
 210              		.loc 1 77 3 is_stmt 1 view .LVU47
  78:Core/Src/syscalls.c **** }
 211              		.loc 1 78 1 is_stmt 0 view .LVU48
 212              		@ sp needed
 213 0016 3000     		movs	r0, r6
 214              	.LVL11:
 215              		.loc 1 78 1 view .LVU49
 216 0018 70BD     		pop	{r4, r5, r6, pc}
 217              		.cfi_endproc
 218              	.LFE29:
 220 001a C046     		.section	.text._write,"ax",%progbits
 221              		.align	1
 222              		.p2align 2,,3
 223              		.weak	_write
 224              		.syntax unified
 225              		.code	16
 226              		.thumb_func
 228              	_write:
 229              	.LVL12:
 230              	.LFB30:
  79:Core/Src/syscalls.c **** 
  80:Core/Src/syscalls.c **** __attribute__((weak)) int _write(int file, char *ptr, int len)
  81:Core/Src/syscalls.c **** {
 231              		.loc 1 81 1 is_stmt 1 view -0
 232              		.cfi_startproc
 233              		@ args = 0, pretend = 0, frame = 0
 234              		@ frame_needed = 0, uses_anonymous_args = 0
  82:Core/Src/syscalls.c ****   (void)file;
 235              		.loc 1 82 3 view .LVU51
  83:Core/Src/syscalls.c ****   int DataIdx;
 236              		.loc 1 83 3 view .LVU52
  84:Core/Src/syscalls.c **** 
  85:Core/Src/syscalls.c ****   for (DataIdx = 0; DataIdx < len; DataIdx++)
 237              		.loc 1 85 3 view .LVU53
 238              		.loc 1 85 29 view .LVU54
  81:Core/Src/syscalls.c ****   (void)file;
 239              		.loc 1 81 1 is_stmt 0 view .LVU55
 240 0000 70B5     		push	{r4, r5, r6, lr}
 241              	.LCFI3:
 242              		.cfi_def_cfa_offset 16
 243              		.cfi_offset 4, -16
 244              		.cfi_offset 5, -12
 245              		.cfi_offset 6, -8
 246              		.cfi_offset 14, -4
  81:Core/Src/syscalls.c ****   (void)file;
 247              		.loc 1 81 1 view .LVU56
 248 0002 161E     		subs	r6, r2, #0
ARM GAS  C:\Users\upo\AppData\Local\Temp\cc8nuiJ7.s 			page 7


 249              		.loc 1 85 29 view .LVU57
 250 0004 07DD     		ble	.L12
 251 0006 0C00     		movs	r4, r1
 252 0008 8D18     		adds	r5, r1, r2
 253              	.LVL13:
 254              	.L13:
  86:Core/Src/syscalls.c ****   {
  87:Core/Src/syscalls.c ****     __io_putchar(*ptr++);
 255              		.loc 1 87 5 is_stmt 1 discriminator 3 view .LVU58
 256              		.loc 1 87 5 is_stmt 0 discriminator 3 view .LVU59
 257 000a 2078     		ldrb	r0, [r4]
  85:Core/Src/syscalls.c ****   {
 258              		.loc 1 85 29 discriminator 3 view .LVU60
 259 000c 0134     		adds	r4, r4, #1
 260              	.LVL14:
 261              		.loc 1 87 5 discriminator 3 view .LVU61
 262 000e FFF7FEFF 		bl	__io_putchar
 263              	.LVL15:
  85:Core/Src/syscalls.c ****   {
 264              		.loc 1 85 43 is_stmt 1 discriminator 3 view .LVU62
  85:Core/Src/syscalls.c ****   {
 265              		.loc 1 85 29 discriminator 3 view .LVU63
 266 0012 AC42     		cmp	r4, r5
 267 0014 F9D1     		bne	.L13
 268              	.LVL16:
 269              	.L12:
  88:Core/Src/syscalls.c ****   }
  89:Core/Src/syscalls.c ****   return len;
 270              		.loc 1 89 3 view .LVU64
  90:Core/Src/syscalls.c **** }
 271              		.loc 1 90 1 is_stmt 0 view .LVU65
 272              		@ sp needed
 273 0016 3000     		movs	r0, r6
 274              	.LVL17:
 275              		.loc 1 90 1 view .LVU66
 276 0018 70BD     		pop	{r4, r5, r6, pc}
 277              		.cfi_endproc
 278              	.LFE30:
 280 001a C046     		.section	.text._close,"ax",%progbits
 281              		.align	1
 282              		.p2align 2,,3
 283              		.global	_close
 284              		.syntax unified
 285              		.code	16
 286              		.thumb_func
 288              	_close:
 289              	.LVL18:
 290              	.LFB31:
  91:Core/Src/syscalls.c **** 
  92:Core/Src/syscalls.c **** int _close(int file)
  93:Core/Src/syscalls.c **** {
 291              		.loc 1 93 1 is_stmt 1 view -0
 292              		.cfi_startproc
 293              		@ args = 0, pretend = 0, frame = 0
 294              		@ frame_needed = 0, uses_anonymous_args = 0
 295              		@ link register save eliminated.
  94:Core/Src/syscalls.c ****   (void)file;
ARM GAS  C:\Users\upo\AppData\Local\Temp\cc8nuiJ7.s 			page 8


 296              		.loc 1 94 3 view .LVU68
  95:Core/Src/syscalls.c ****   return -1;
 297              		.loc 1 95 3 view .LVU69
 298              		.loc 1 95 10 is_stmt 0 view .LVU70
 299 0000 0120     		movs	r0, #1
 300              	.LVL19:
  96:Core/Src/syscalls.c **** }
 301              		.loc 1 96 1 view .LVU71
 302              		@ sp needed
 303 0002 4042     		rsbs	r0, r0, #0
 304 0004 7047     		bx	lr
 305              		.cfi_endproc
 306              	.LFE31:
 308 0006 C046     		.section	.text._fstat,"ax",%progbits
 309              		.align	1
 310              		.p2align 2,,3
 311              		.global	_fstat
 312              		.syntax unified
 313              		.code	16
 314              		.thumb_func
 316              	_fstat:
 317              	.LVL20:
 318              	.LFB32:
  97:Core/Src/syscalls.c **** 
  98:Core/Src/syscalls.c **** 
  99:Core/Src/syscalls.c **** int _fstat(int file, struct stat *st)
 100:Core/Src/syscalls.c **** {
 319              		.loc 1 100 1 is_stmt 1 view -0
 320              		.cfi_startproc
 321              		@ args = 0, pretend = 0, frame = 0
 322              		@ frame_needed = 0, uses_anonymous_args = 0
 323              		@ link register save eliminated.
 101:Core/Src/syscalls.c ****   (void)file;
 324              		.loc 1 101 3 view .LVU73
 102:Core/Src/syscalls.c ****   st->st_mode = S_IFCHR;
 325              		.loc 1 102 3 view .LVU74
 326              		.loc 1 102 15 is_stmt 0 view .LVU75
 327 0000 8023     		movs	r3, #128
 103:Core/Src/syscalls.c ****   return 0;
 104:Core/Src/syscalls.c **** }
 328              		.loc 1 104 1 view .LVU76
 329              		@ sp needed
 102:Core/Src/syscalls.c ****   st->st_mode = S_IFCHR;
 330              		.loc 1 102 15 view .LVU77
 331 0002 9B01     		lsls	r3, r3, #6
 332              		.loc 1 104 1 view .LVU78
 333 0004 0020     		movs	r0, #0
 334              	.LVL21:
 102:Core/Src/syscalls.c ****   st->st_mode = S_IFCHR;
 335              		.loc 1 102 15 view .LVU79
 336 0006 4B60     		str	r3, [r1, #4]
 103:Core/Src/syscalls.c ****   return 0;
 337              		.loc 1 103 3 is_stmt 1 view .LVU80
 338              		.loc 1 104 1 is_stmt 0 view .LVU81
 339 0008 7047     		bx	lr
 340              		.cfi_endproc
 341              	.LFE32:
ARM GAS  C:\Users\upo\AppData\Local\Temp\cc8nuiJ7.s 			page 9


 343 000a C046     		.section	.text._isatty,"ax",%progbits
 344              		.align	1
 345              		.p2align 2,,3
 346              		.global	_isatty
 347              		.syntax unified
 348              		.code	16
 349              		.thumb_func
 351              	_isatty:
 352              	.LVL22:
 353              	.LFB33:
 105:Core/Src/syscalls.c **** 
 106:Core/Src/syscalls.c **** int _isatty(int file)
 107:Core/Src/syscalls.c **** {
 354              		.loc 1 107 1 is_stmt 1 view -0
 355              		.cfi_startproc
 356              		@ args = 0, pretend = 0, frame = 0
 357              		@ frame_needed = 0, uses_anonymous_args = 0
 358              		@ link register save eliminated.
 108:Core/Src/syscalls.c ****   (void)file;
 359              		.loc 1 108 3 view .LVU83
 109:Core/Src/syscalls.c ****   return 1;
 360              		.loc 1 109 3 view .LVU84
 110:Core/Src/syscalls.c **** }
 361              		.loc 1 110 1 is_stmt 0 view .LVU85
 362 0000 0120     		movs	r0, #1
 363              	.LVL23:
 364              		.loc 1 110 1 view .LVU86
 365              		@ sp needed
 366 0002 7047     		bx	lr
 367              		.cfi_endproc
 368              	.LFE33:
 370              		.section	.text._lseek,"ax",%progbits
 371              		.align	1
 372              		.p2align 2,,3
 373              		.global	_lseek
 374              		.syntax unified
 375              		.code	16
 376              		.thumb_func
 378              	_lseek:
 379              	.LVL24:
 380              	.LFB34:
 111:Core/Src/syscalls.c **** 
 112:Core/Src/syscalls.c **** int _lseek(int file, int ptr, int dir)
 113:Core/Src/syscalls.c **** {
 381              		.loc 1 113 1 is_stmt 1 view -0
 382              		.cfi_startproc
 383              		@ args = 0, pretend = 0, frame = 0
 384              		@ frame_needed = 0, uses_anonymous_args = 0
 385              		@ link register save eliminated.
 114:Core/Src/syscalls.c ****   (void)file;
 386              		.loc 1 114 3 view .LVU88
 115:Core/Src/syscalls.c ****   (void)ptr;
 387              		.loc 1 115 3 view .LVU89
 116:Core/Src/syscalls.c ****   (void)dir;
 388              		.loc 1 116 3 view .LVU90
 117:Core/Src/syscalls.c ****   return 0;
 389              		.loc 1 117 3 view .LVU91
ARM GAS  C:\Users\upo\AppData\Local\Temp\cc8nuiJ7.s 			page 10


 118:Core/Src/syscalls.c **** }
 390              		.loc 1 118 1 is_stmt 0 view .LVU92
 391 0000 0020     		movs	r0, #0
 392              	.LVL25:
 393              		.loc 1 118 1 view .LVU93
 394              		@ sp needed
 395 0002 7047     		bx	lr
 396              		.cfi_endproc
 397              	.LFE34:
 399              		.section	.text._open,"ax",%progbits
 400              		.align	1
 401              		.p2align 2,,3
 402              		.global	_open
 403              		.syntax unified
 404              		.code	16
 405              		.thumb_func
 407              	_open:
 408              	.LVL26:
 409              	.LFB35:
 119:Core/Src/syscalls.c **** 
 120:Core/Src/syscalls.c **** int _open(char *path, int flags, ...)
 121:Core/Src/syscalls.c **** {
 410              		.loc 1 121 1 is_stmt 1 view -0
 411              		.cfi_startproc
 412              		@ args = 4, pretend = 12, frame = 0
 413              		@ frame_needed = 0, uses_anonymous_args = 1
 414              		@ link register save eliminated.
 122:Core/Src/syscalls.c ****   (void)path;
 415              		.loc 1 122 3 view .LVU95
 123:Core/Src/syscalls.c ****   (void)flags;
 416              		.loc 1 123 3 view .LVU96
 124:Core/Src/syscalls.c ****   /* Pretend like we always fail */
 125:Core/Src/syscalls.c ****   return -1;
 417              		.loc 1 125 3 view .LVU97
 418              		.loc 1 125 10 is_stmt 0 view .LVU98
 419 0000 0120     		movs	r0, #1
 420              	.LVL27:
 121:Core/Src/syscalls.c ****   (void)path;
 421              		.loc 1 121 1 view .LVU99
 422 0002 0EB4     		push	{r1, r2, r3}
 423              	.LCFI4:
 424              		.cfi_def_cfa_offset 12
 126:Core/Src/syscalls.c **** }
 425              		.loc 1 126 1 view .LVU100
 426 0004 4042     		rsbs	r0, r0, #0
 427              		@ sp needed
 428 0006 03B0     		add	sp, sp, #12
 429 0008 7047     		bx	lr
 430              		.cfi_endproc
 431              	.LFE35:
 433 000a C046     		.section	.text._wait,"ax",%progbits
 434              		.align	1
 435              		.p2align 2,,3
 436              		.global	_wait
 437              		.syntax unified
 438              		.code	16
 439              		.thumb_func
ARM GAS  C:\Users\upo\AppData\Local\Temp\cc8nuiJ7.s 			page 11


 441              	_wait:
 442              	.LVL28:
 443              	.LFB36:
 127:Core/Src/syscalls.c **** 
 128:Core/Src/syscalls.c **** int _wait(int *status)
 129:Core/Src/syscalls.c **** {
 444              		.loc 1 129 1 is_stmt 1 view -0
 445              		.cfi_startproc
 446              		@ args = 0, pretend = 0, frame = 0
 447              		@ frame_needed = 0, uses_anonymous_args = 0
 130:Core/Src/syscalls.c ****   (void)status;
 448              		.loc 1 130 3 view .LVU102
 131:Core/Src/syscalls.c ****   errno = ECHILD;
 449              		.loc 1 131 3 view .LVU103
 129:Core/Src/syscalls.c ****   (void)status;
 450              		.loc 1 129 1 is_stmt 0 view .LVU104
 451 0000 10B5     		push	{r4, lr}
 452              	.LCFI5:
 453              		.cfi_def_cfa_offset 8
 454              		.cfi_offset 4, -8
 455              		.cfi_offset 14, -4
 456              		.loc 1 131 3 view .LVU105
 457 0002 FFF7FEFF 		bl	__errno
 458              	.LVL29:
 132:Core/Src/syscalls.c ****   return -1;
 133:Core/Src/syscalls.c **** }
 459              		.loc 1 133 1 view .LVU106
 460              		@ sp needed
 131:Core/Src/syscalls.c ****   return -1;
 461              		.loc 1 131 9 view .LVU107
 462 0006 0A23     		movs	r3, #10
 463 0008 0360     		str	r3, [r0]
 132:Core/Src/syscalls.c ****   return -1;
 464              		.loc 1 132 3 is_stmt 1 view .LVU108
 132:Core/Src/syscalls.c ****   return -1;
 465              		.loc 1 132 10 is_stmt 0 view .LVU109
 466 000a 0120     		movs	r0, #1
 467              		.loc 1 133 1 view .LVU110
 468 000c 4042     		rsbs	r0, r0, #0
 469 000e 10BD     		pop	{r4, pc}
 470              		.cfi_endproc
 471              	.LFE36:
 473              		.section	.text._unlink,"ax",%progbits
 474              		.align	1
 475              		.p2align 2,,3
 476              		.global	_unlink
 477              		.syntax unified
 478              		.code	16
 479              		.thumb_func
 481              	_unlink:
 482              	.LVL30:
 483              	.LFB37:
 134:Core/Src/syscalls.c **** 
 135:Core/Src/syscalls.c **** int _unlink(char *name)
 136:Core/Src/syscalls.c **** {
 484              		.loc 1 136 1 is_stmt 1 view -0
 485              		.cfi_startproc
ARM GAS  C:\Users\upo\AppData\Local\Temp\cc8nuiJ7.s 			page 12


 486              		@ args = 0, pretend = 0, frame = 0
 487              		@ frame_needed = 0, uses_anonymous_args = 0
 137:Core/Src/syscalls.c ****   (void)name;
 488              		.loc 1 137 3 view .LVU112
 138:Core/Src/syscalls.c ****   errno = ENOENT;
 489              		.loc 1 138 3 view .LVU113
 136:Core/Src/syscalls.c ****   (void)name;
 490              		.loc 1 136 1 is_stmt 0 view .LVU114
 491 0000 10B5     		push	{r4, lr}
 492              	.LCFI6:
 493              		.cfi_def_cfa_offset 8
 494              		.cfi_offset 4, -8
 495              		.cfi_offset 14, -4
 496              		.loc 1 138 3 view .LVU115
 497 0002 FFF7FEFF 		bl	__errno
 498              	.LVL31:
 139:Core/Src/syscalls.c ****   return -1;
 140:Core/Src/syscalls.c **** }
 499              		.loc 1 140 1 view .LVU116
 500              		@ sp needed
 138:Core/Src/syscalls.c ****   return -1;
 501              		.loc 1 138 9 view .LVU117
 502 0006 0223     		movs	r3, #2
 503 0008 0360     		str	r3, [r0]
 139:Core/Src/syscalls.c ****   return -1;
 504              		.loc 1 139 3 is_stmt 1 view .LVU118
 139:Core/Src/syscalls.c ****   return -1;
 505              		.loc 1 139 10 is_stmt 0 view .LVU119
 506 000a 0120     		movs	r0, #1
 507              		.loc 1 140 1 view .LVU120
 508 000c 4042     		rsbs	r0, r0, #0
 509 000e 10BD     		pop	{r4, pc}
 510              		.cfi_endproc
 511              	.LFE37:
 513              		.section	.text._times,"ax",%progbits
 514              		.align	1
 515              		.p2align 2,,3
 516              		.global	_times
 517              		.syntax unified
 518              		.code	16
 519              		.thumb_func
 521              	_times:
 522              	.LVL32:
 523              	.LFB38:
 141:Core/Src/syscalls.c **** 
 142:Core/Src/syscalls.c **** int _times(struct tms *buf)
 143:Core/Src/syscalls.c **** {
 524              		.loc 1 143 1 is_stmt 1 view -0
 525              		.cfi_startproc
 526              		@ args = 0, pretend = 0, frame = 0
 527              		@ frame_needed = 0, uses_anonymous_args = 0
 528              		@ link register save eliminated.
 144:Core/Src/syscalls.c ****   (void)buf;
 529              		.loc 1 144 3 view .LVU122
 145:Core/Src/syscalls.c ****   return -1;
 530              		.loc 1 145 3 view .LVU123
 531              		.loc 1 145 10 is_stmt 0 view .LVU124
ARM GAS  C:\Users\upo\AppData\Local\Temp\cc8nuiJ7.s 			page 13


 532 0000 0120     		movs	r0, #1
 533              	.LVL33:
 146:Core/Src/syscalls.c **** }
 534              		.loc 1 146 1 view .LVU125
 535              		@ sp needed
 536 0002 4042     		rsbs	r0, r0, #0
 537 0004 7047     		bx	lr
 538              		.cfi_endproc
 539              	.LFE38:
 541 0006 C046     		.section	.text._stat,"ax",%progbits
 542              		.align	1
 543              		.p2align 2,,3
 544              		.global	_stat
 545              		.syntax unified
 546              		.code	16
 547              		.thumb_func
 549              	_stat:
 550              	.LVL34:
 551              	.LFB39:
 147:Core/Src/syscalls.c **** 
 148:Core/Src/syscalls.c **** int _stat(char *file, struct stat *st)
 149:Core/Src/syscalls.c **** {
 552              		.loc 1 149 1 is_stmt 1 view -0
 553              		.cfi_startproc
 554              		@ args = 0, pretend = 0, frame = 0
 555              		@ frame_needed = 0, uses_anonymous_args = 0
 556              		@ link register save eliminated.
 150:Core/Src/syscalls.c ****   (void)file;
 557              		.loc 1 150 3 view .LVU127
 151:Core/Src/syscalls.c ****   st->st_mode = S_IFCHR;
 558              		.loc 1 151 3 view .LVU128
 559              		.loc 1 151 15 is_stmt 0 view .LVU129
 560 0000 8023     		movs	r3, #128
 152:Core/Src/syscalls.c ****   return 0;
 153:Core/Src/syscalls.c **** }
 561              		.loc 1 153 1 view .LVU130
 562              		@ sp needed
 151:Core/Src/syscalls.c ****   st->st_mode = S_IFCHR;
 563              		.loc 1 151 15 view .LVU131
 564 0002 9B01     		lsls	r3, r3, #6
 565              		.loc 1 153 1 view .LVU132
 566 0004 0020     		movs	r0, #0
 567              	.LVL35:
 151:Core/Src/syscalls.c ****   st->st_mode = S_IFCHR;
 568              		.loc 1 151 15 view .LVU133
 569 0006 4B60     		str	r3, [r1, #4]
 152:Core/Src/syscalls.c ****   return 0;
 570              		.loc 1 152 3 is_stmt 1 view .LVU134
 571              		.loc 1 153 1 is_stmt 0 view .LVU135
 572 0008 7047     		bx	lr
 573              		.cfi_endproc
 574              	.LFE39:
 576 000a C046     		.section	.text._link,"ax",%progbits
 577              		.align	1
 578              		.p2align 2,,3
 579              		.global	_link
 580              		.syntax unified
ARM GAS  C:\Users\upo\AppData\Local\Temp\cc8nuiJ7.s 			page 14


 581              		.code	16
 582              		.thumb_func
 584              	_link:
 585              	.LVL36:
 586              	.LFB40:
 154:Core/Src/syscalls.c **** 
 155:Core/Src/syscalls.c **** int _link(char *old, char *new)
 156:Core/Src/syscalls.c **** {
 587              		.loc 1 156 1 is_stmt 1 view -0
 588              		.cfi_startproc
 589              		@ args = 0, pretend = 0, frame = 0
 590              		@ frame_needed = 0, uses_anonymous_args = 0
 157:Core/Src/syscalls.c ****   (void)old;
 591              		.loc 1 157 3 view .LVU137
 158:Core/Src/syscalls.c ****   (void)new;
 592              		.loc 1 158 3 view .LVU138
 159:Core/Src/syscalls.c ****   errno = EMLINK;
 593              		.loc 1 159 3 view .LVU139
 156:Core/Src/syscalls.c ****   (void)old;
 594              		.loc 1 156 1 is_stmt 0 view .LVU140
 595 0000 10B5     		push	{r4, lr}
 596              	.LCFI7:
 597              		.cfi_def_cfa_offset 8
 598              		.cfi_offset 4, -8
 599              		.cfi_offset 14, -4
 600              		.loc 1 159 3 view .LVU141
 601 0002 FFF7FEFF 		bl	__errno
 602              	.LVL37:
 160:Core/Src/syscalls.c ****   return -1;
 161:Core/Src/syscalls.c **** }
 603              		.loc 1 161 1 view .LVU142
 604              		@ sp needed
 159:Core/Src/syscalls.c ****   return -1;
 605              		.loc 1 159 9 view .LVU143
 606 0006 1F23     		movs	r3, #31
 607 0008 0360     		str	r3, [r0]
 160:Core/Src/syscalls.c ****   return -1;
 608              		.loc 1 160 3 is_stmt 1 view .LVU144
 160:Core/Src/syscalls.c ****   return -1;
 609              		.loc 1 160 10 is_stmt 0 view .LVU145
 610 000a 0120     		movs	r0, #1
 611              		.loc 1 161 1 view .LVU146
 612 000c 4042     		rsbs	r0, r0, #0
 613 000e 10BD     		pop	{r4, pc}
 614              		.cfi_endproc
 615              	.LFE40:
 617              		.section	.text._fork,"ax",%progbits
 618              		.align	1
 619              		.p2align 2,,3
 620              		.global	_fork
 621              		.syntax unified
 622              		.code	16
 623              		.thumb_func
 625              	_fork:
 626              	.LFB41:
 162:Core/Src/syscalls.c **** 
 163:Core/Src/syscalls.c **** int _fork(void)
ARM GAS  C:\Users\upo\AppData\Local\Temp\cc8nuiJ7.s 			page 15


 164:Core/Src/syscalls.c **** {
 627              		.loc 1 164 1 is_stmt 1 view -0
 628              		.cfi_startproc
 629              		@ args = 0, pretend = 0, frame = 0
 630              		@ frame_needed = 0, uses_anonymous_args = 0
 165:Core/Src/syscalls.c ****   errno = EAGAIN;
 631              		.loc 1 165 3 view .LVU148
 164:Core/Src/syscalls.c ****   errno = EAGAIN;
 632              		.loc 1 164 1 is_stmt 0 view .LVU149
 633 0000 10B5     		push	{r4, lr}
 634              	.LCFI8:
 635              		.cfi_def_cfa_offset 8
 636              		.cfi_offset 4, -8
 637              		.cfi_offset 14, -4
 638              		.loc 1 165 3 view .LVU150
 639 0002 FFF7FEFF 		bl	__errno
 640              	.LVL38:
 166:Core/Src/syscalls.c ****   return -1;
 167:Core/Src/syscalls.c **** }
 641              		.loc 1 167 1 view .LVU151
 642              		@ sp needed
 165:Core/Src/syscalls.c ****   return -1;
 643              		.loc 1 165 9 view .LVU152
 644 0006 0B23     		movs	r3, #11
 645 0008 0360     		str	r3, [r0]
 166:Core/Src/syscalls.c ****   return -1;
 646              		.loc 1 166 3 is_stmt 1 view .LVU153
 166:Core/Src/syscalls.c ****   return -1;
 647              		.loc 1 166 10 is_stmt 0 view .LVU154
 648 000a 0120     		movs	r0, #1
 649              		.loc 1 167 1 view .LVU155
 650 000c 4042     		rsbs	r0, r0, #0
 651 000e 10BD     		pop	{r4, pc}
 652              		.cfi_endproc
 653              	.LFE41:
 655              		.section	.text._execve,"ax",%progbits
 656              		.align	1
 657              		.p2align 2,,3
 658              		.global	_execve
 659              		.syntax unified
 660              		.code	16
 661              		.thumb_func
 663              	_execve:
 664              	.LVL39:
 665              	.LFB42:
 168:Core/Src/syscalls.c **** 
 169:Core/Src/syscalls.c **** int _execve(char *name, char **argv, char **env)
 170:Core/Src/syscalls.c **** {
 666              		.loc 1 170 1 is_stmt 1 view -0
 667              		.cfi_startproc
 668              		@ args = 0, pretend = 0, frame = 0
 669              		@ frame_needed = 0, uses_anonymous_args = 0
 171:Core/Src/syscalls.c ****   (void)name;
 670              		.loc 1 171 3 view .LVU157
 172:Core/Src/syscalls.c ****   (void)argv;
 671              		.loc 1 172 3 view .LVU158
 173:Core/Src/syscalls.c ****   (void)env;
ARM GAS  C:\Users\upo\AppData\Local\Temp\cc8nuiJ7.s 			page 16


 672              		.loc 1 173 3 view .LVU159
 174:Core/Src/syscalls.c ****   errno = ENOMEM;
 673              		.loc 1 174 3 view .LVU160
 170:Core/Src/syscalls.c ****   (void)name;
 674              		.loc 1 170 1 is_stmt 0 view .LVU161
 675 0000 10B5     		push	{r4, lr}
 676              	.LCFI9:
 677              		.cfi_def_cfa_offset 8
 678              		.cfi_offset 4, -8
 679              		.cfi_offset 14, -4
 680              		.loc 1 174 3 view .LVU162
 681 0002 FFF7FEFF 		bl	__errno
 682              	.LVL40:
 175:Core/Src/syscalls.c ****   return -1;
 176:Core/Src/syscalls.c **** }
 683              		.loc 1 176 1 view .LVU163
 684              		@ sp needed
 174:Core/Src/syscalls.c ****   return -1;
 685              		.loc 1 174 9 view .LVU164
 686 0006 0C23     		movs	r3, #12
 687 0008 0360     		str	r3, [r0]
 175:Core/Src/syscalls.c ****   return -1;
 688              		.loc 1 175 3 is_stmt 1 view .LVU165
 175:Core/Src/syscalls.c ****   return -1;
 689              		.loc 1 175 10 is_stmt 0 view .LVU166
 690 000a 0120     		movs	r0, #1
 691              		.loc 1 176 1 view .LVU167
 692 000c 4042     		rsbs	r0, r0, #0
 693 000e 10BD     		pop	{r4, pc}
 694              		.cfi_endproc
 695              	.LFE42:
 697              		.global	environ
 698              		.section	.data.environ,"aw"
 699              		.align	2
 702              	environ:
 703 0000 00000000 		.word	__env
 704              		.global	__env
 705              		.section	.bss.__env,"aw",%nobits
 706              		.align	2
 709              	__env:
 710 0000 00000000 		.space	4
 711              		.weak	__io_putchar
 712              		.weak	__io_getchar
 713              		.text
 714              	.Letext0:
 715              		.file 2 "C:\\ST\\STM32CubeCLT_1.15.0\\GNU-tools-for-STM32\\bin/../lib/gcc/arm-none-eabi/12.3.1/../
 716              		.file 3 "C:\\ST\\STM32CubeCLT_1.15.0\\GNU-tools-for-STM32\\bin/../lib/gcc/arm-none-eabi/12.3.1/../
 717              		.file 4 "C:\\ST\\STM32CubeCLT_1.15.0\\GNU-tools-for-STM32\\bin/../lib/gcc/arm-none-eabi/12.3.1/../
 718              		.file 5 "C:\\ST\\STM32CubeCLT_1.15.0\\GNU-tools-for-STM32\\bin/../lib/gcc/arm-none-eabi/12.3.1/../
 719              		.file 6 "C:\\ST\\STM32CubeCLT_1.15.0\\GNU-tools-for-STM32\\bin/../lib/gcc/arm-none-eabi/12.3.1/../
 720              		.file 7 "C:\\ST\\STM32CubeCLT_1.15.0\\GNU-tools-for-STM32\\bin/../lib/gcc/arm-none-eabi/12.3.1/../
 721              		.file 8 "C:\\ST\\STM32CubeCLT_1.15.0\\GNU-tools-for-STM32\\bin/../lib/gcc/arm-none-eabi/12.3.1/../
 722              		.file 9 "C:\\ST\\STM32CubeCLT_1.15.0\\GNU-tools-for-STM32\\bin/../lib/gcc/arm-none-eabi/12.3.1/../
ARM GAS  C:\Users\upo\AppData\Local\Temp\cc8nuiJ7.s 			page 17

